[[0;33m*[0m] Binary protection state of [0;33mip6tables[0m
[REF] s12

  	RELRO          CANARY            NX           PIE       RPATH        RUNPATH      SYMBOLS      
  	[31mNo RELRO[0m       [31mNo Canary found[0m   [31mNX disabled[0m  [31mNo PIE[0m       [32mNo RPATH[0m     [32mNo RUNPATH[0m   [32mNo Symbols[0m

[0m
[[0;33m*[0m] Function [0;33mprintf[0m tear down of [0;33mip6tables[0m

  402ec8:	0320f809 	jalr	t9
  402ecc:	00000000 	nop
  402ed0:	3c020045 	lui	v0,0x45
  402ed4:	8c42e5b0 	lw	v0,-6736(v0)
  402ed8:	14400088 	bnez	v0,4030fc <main@@Base+0x50c>
  402edc:	00002021 	move	a0,zero
  402ee0:	8f998194 	lw	t9,-32364(gp)
  402ee4:	3c140043 	lui	s4,0x43
  402ee8:	0320f809 	jalr	t9
  402eec:	3c130043 	lui	s3,0x43
  402ef0:	27a40020 	addiu	a0,sp,32
  402ef4:	8fbc0018 	lw	gp,24(sp)
  402ef8:	3c120043 	lui	s2,0x43
  402efc:	afa20020 	sw	v0,32(sp)
  402f00:	27b50028 	addiu	s5,sp,40
  402f04:	8f998294 	lw	t9,-32108(gp)
  402f08:	2694c348 	addiu	s4,s4,-15544
  402f0c:	2673c360 	addiu	s3,s3,-15520
  402f10:	0320f809 	jalr	t9
  402f14:	2652ca28 	addiu	s2,s2,-13784
  402f18:	3c040043 	lui	a0,0x43
  402f1c:	8fbc0018 	lw	gp,24(sp)
  402f20:	3c050043 	lui	a1,0x43
  402f24:	00403021 	move	a2,v0
  402f28:	2484c310 	addiu	a0,a0,-15600
[31m  402f2c:	8f9983f4 	lw	t9,printf[0m
  402f30:	0320f809 	jalr	t9
  402f34:	24a5c338 	addiu	a1,a1,-15560
  402f38:	3c040043 	lui	a0,0x43
  402f3c:	02202821 	move	a1,s1
  402f40:	8fbc0018 	lw	gp,24(sp)
  402f44:	2484c340 	addiu	a0,a0,-15552
  402f48:	3c110043 	lui	s1,0x43
[31m  402f4c:	8f9983f4 	lw	t9,printf[0m
  402f50:	0320f809 	jalr	t9
  402f54:	2631c350 	addiu	s1,s1,-15536
  402f58:	8fbc0018 	lw	gp,24(sp)
  402f5c:	8f998060 	lw	t9,-32672(gp)
  402f60:	0320f809 	jalr	t9
  402f64:	02002021 	move	a0,s0
  402f68:	8fbc0018 	lw	gp,24(sp)
  402f6c:	1000002b 	b	40301c <main@@Base+0x42c>
  402f70:	0040b021 	move	s6,v0
[31m  402f74:	8f9983f4 	lw	t9,printf[0m
  402f78:	02802021 	move	a0,s4
  402f7c:	0320f809 	jalr	t9
  402f80:	02c02821 	move	a1,s6
  402f84:	02c02021 	move	a0,s6
  402f88:	8fbc0018 	lw	gp,24(sp)
  402f8c:	8f9982d4 	lw	t9,-32044(gp)
  402f90:	0320f809 	jalr	t9
  402f94:	02002821 	move	a1,s0
  402f98:	8fbc0018 	lw	gp,24(sp)
  402f9c:	10400016 	beqz	v0,402ff8 <main@@Base+0x408>
  402fa0:	02003021 	move	a2,s0
  402fa4:	8f998188 	lw	t9,-32376(gp)
  402fa8:	02c02021 	move	a0,s6
  402fac:	0320f809 	jalr	t9
  402fb0:	02a02821 	move	a1,s5
  402fb4:	02402021 	move	a0,s2
  402fb8:	8fbc0018 	lw	gp,24(sp)
[31m  402fbc:	8f9983f4 	lw	t9,printf[0m
  402fc0:	0320f809 	jalr	t9
  402fc4:	00402821 	move	a1,v0
  402fc8:	02202021 	move	a0,s1
  402fcc:	8fbc0018 	lw	gp,24(sp)
  402fd0:	8fa30034 	lw	v1,52(sp)
  402fd4:	8fa20030 	lw	v0,48(sp)
[31m  402fd8:	8f9983f4 	lw	t9,printf[0m
  402fdc:	8fa7002c 	lw	a3,44(sp)
  402fe0:	8fa60028 	lw	a2,40(sp)
--
  403074:	00402021 	move	a0,v0
  403078:	8f9980e8 	lw	t9,-32536(gp)
  40307c:	02002021 	move	a0,s0
  403080:	0320f809 	jalr	t9
  403084:	00000000 	nop
  403088:	8fbc0018 	lw	gp,24(sp)
  40308c:	1440ffe8 	bnez	v0,403030 <main@@Base+0x440>
  403090:	00408821 	move	s1,v0
  403094:	8f998194 	lw	t9,-32364(gp)
  403098:	00002021 	move	a0,zero
  40309c:	0320f809 	jalr	t9
  4030a0:	24110001 	li	s1,1
  4030a4:	3c040043 	lui	a0,0x43
  4030a8:	8fbc0018 	lw	gp,24(sp)
  4030ac:	2484c368 	addiu	a0,a0,-15512
  4030b0:	8f998370 	lw	t9,-31888(gp)
  4030b4:	0320f809 	jalr	t9
  4030b8:	afa20020 	sw	v0,32(sp)
  4030bc:	8fbc0018 	lw	gp,24(sp)
  4030c0:	8f998294 	lw	t9,-32108(gp)
  4030c4:	0320f809 	jalr	t9
  4030c8:	27a40020 	addiu	a0,sp,32
  4030cc:	3c040043 	lui	a0,0x43
  4030d0:	8fbc0018 	lw	gp,24(sp)
  4030d4:	2484c370 	addiu	a0,a0,-15504
[31m  4030d8:	8f9983f4 	lw	t9,printf[0m
  4030dc:	0320f809 	jalr	t9
  4030e0:	00402821 	move	a1,v0
--
  404378:	00003021 	move	a2,zero
  40437c:	0320f809 	jalr	t9
  404380:	00622021 	addu	a0,v1,v0
  404384:	8fbc0010 	lw	gp,16(sp)
  404388:	14400003 	bnez	v0,404398 <ip6tables_main@@Base+0x418>
  40438c:	2c642710 	sltiu	a0,v1,10000
  404390:	14800015 	bnez	a0,4043e8 <ip6tables_main@@Base+0x468>
  404394:	00000000 	nop
  404398:	32100010 	andi	s0,s0,0x10
  40439c:	12000003 	beqz	s0,4043ac <ip6tables_main@@Base+0x42c>
  4043a0:	3c100043 	lui	s0,0x43
  4043a4:	10000003 	b	4043b4 <ip6tables_main@@Base+0x434>
  4043a8:	2610c7a4 	addiu	s0,s0,-14428
  4043ac:	3c100043 	lui	s0,0x43
  4043b0:	2610c7ac 	addiu	s0,s0,-14420
  4043b4:	246501f4 	addiu	a1,v1,500
  4043b8:	240703e8 	li	a3,1000
  4043bc:	8f998214 	lw	t9,-32236(gp)
  4043c0:	00a3182b 	sltu	v1,a1,v1
  4043c4:	00003021 	move	a2,zero
  4043c8:	0320f809 	jalr	t9
  4043cc:	00622021 	addu	a0,v1,v0
  4043d0:	02002021 	move	a0,s0
  4043d4:	8fbc0010 	lw	gp,16(sp)
  4043d8:	00603821 	move	a3,v1
[31m  4043dc:	8f9983f4 	lw	t9,printf[0m
  4043e0:	10000034 	b	4044b4 <ip6tables_main@@Base+0x534>
  4043e4:	00403021 	move	a2,v0
--
  4043ec:	12000004 	beqz	s0,404400 <ip6tables_main@@Base+0x480>
  4043f0:	00000000 	nop
  4043f4:	3c040043 	lui	a0,0x43
  4043f8:	10000015 	b	404450 <ip6tables_main@@Base+0x4d0>
  4043fc:	2484c7b4 	addiu	a0,a0,-14412
  404400:	3c040043 	lui	a0,0x43
  404404:	10000012 	b	404450 <ip6tables_main@@Base+0x4d0>
  404408:	2484c7bc 	addiu	a0,a0,-14404
  40440c:	32100010 	andi	s0,s0,0x10
  404410:	12000004 	beqz	s0,404424 <ip6tables_main@@Base+0x4a4>
  404414:	00000000 	nop
  404418:	3c040043 	lui	a0,0x43
  40441c:	1000000c 	b	404450 <ip6tables_main@@Base+0x4d0>
  404420:	2484c7c4 	addiu	a0,a0,-14396
  404424:	3c040043 	lui	a0,0x43
  404428:	10000009 	b	404450 <ip6tables_main@@Base+0x4d0>
  40442c:	2484c7cc 	addiu	a0,a0,-14388
  404430:	32100010 	andi	s0,s0,0x10
  404434:	12000004 	beqz	s0,404448 <ip6tables_main@@Base+0x4c8>
  404438:	00000000 	nop
  40443c:	3c040043 	lui	a0,0x43
  404440:	10000003 	b	404450 <ip6tables_main@@Base+0x4d0>
  404444:	2484c7d4 	addiu	a0,a0,-14380
  404448:	3c040043 	lui	a0,0x43
  40444c:	2484c7dc 	addiu	a0,a0,-14372
[31m  404450:	8f9983f4 	lw	t9,printf[0m
  404454:	00003021 	move	a2,zero
  404458:	10000016 	b	4044b4 <ip6tables_main@@Base+0x534>
  40445c:	00603821 	move	a3,v1
  404460:	30d00010 	andi	s0,a2,0x10
  404464:	12000004 	beqz	s0,404478 <ip6tables_main@@Base+0x4f8>
  404468:	00000000 	nop
  40446c:	3c040043 	lui	a0,0x43
  404470:	10000003 	b	404480 <ip6tables_main@@Base+0x500>
  404474:	24843eec 	addiu	a0,a0,16108
  404478:	3c040043 	lui	a0,0x43
  40447c:	2484c7e4 	addiu	a0,a0,-14364
[31m  404480:	8f9983f4 	lw	t9,printf[0m
  404484:	1000000a 	b	4044b0 <ip6tables_main@@Base+0x530>
  404488:	00003021 	move	a2,zero
  40448c:	30d00010 	andi	s0,a2,0x10
  404490:	12000003 	beqz	s0,4044a0 <ip6tables_main@@Base+0x520>
  404494:	3c040043 	lui	a0,0x43
  404498:	10000003 	b	4044a8 <ip6tables_main@@Base+0x528>
  40449c:	24843eec 	addiu	a0,a0,16108
  4044a0:	3c040043 	lui	a0,0x43
  4044a4:	2484c7ec 	addiu	a0,a0,-14356
[31m  4044a8:	8f9983f4 	lw	t9,printf[0m
  4044ac:	00403021 	move	a2,v0
  4044b0:	00a03821 	move	a3,a1
--
  404690:	8fa20020 	lw	v0,32(sp)
  404694:	8fbf002c 	lw	ra,44(sp)
  404698:	8fb00028 	lw	s0,40(sp)
  40469c:	03e00008 	jr	ra
  4046a0:	27bd0030 	addiu	sp,sp,48
  4046a4:	27bdffd0 	addiu	sp,sp,-48
  4046a8:	afbf002c 	sw	ra,44(sp)
  4046ac:	afb30028 	sw	s3,40(sp)
  4046b0:	afb20024 	sw	s2,36(sp)
  4046b4:	afb10020 	sw	s1,32(sp)
  4046b8:	afb0001c 	sw	s0,28(sp)
  4046bc:	3c1c0045 	lui	gp,0x45
  4046c0:	279c6160 	addiu	gp,gp,24928
  4046c4:	afbc0010 	sw	gp,16(sp)
  4046c8:	90c20000 	lbu	v0,0(a2)
  4046cc:	00c08021 	move	s0,a2
  4046d0:	00a08821 	move	s1,a1
  4046d4:	10400030 	beqz	v0,404798 <ip6tables_main@@Base+0x818>
  4046d8:	00803021 	move	a2,a0
  4046dc:	14e00003 	bnez	a3,4046ec <ip6tables_main@@Base+0x76c>
  4046e0:	3c050043 	lui	a1,0x43
  4046e4:	10000003 	b	4046f4 <ip6tables_main@@Base+0x774>
  4046e8:	24a53f34 	addiu	a1,a1,16180
  4046ec:	3c050043 	lui	a1,0x43
  4046f0:	24a5c8c4 	addiu	a1,a1,-14140
[31m  4046f4:	8f9983f4 	lw	t9,printf[0m
  4046f8:	3c040043 	lui	a0,0x43
  4046fc:	2484c8c8 	addiu	a0,a0,-14136
--
  404908:	00e09021 	move	s2,a3
  40490c:	8fbc0010 	lw	gp,16(sp)
  404910:	8f998404 	lw	t9,-31740(gp)
  404914:	14400003 	bnez	v0,404924 <ip6tables_main@@Base+0x9a4>
  404918:	02202021 	move	a0,s1
  40491c:	10000004 	b	404930 <ip6tables_main@@Base+0x9b0>
  404920:	24050002 	li	a1,2
  404924:	3c040043 	lui	a0,0x43
  404928:	24050003 	li	a1,3
  40492c:	24843f34 	addiu	a0,a0,16180
  404930:	0320f809 	jalr	t9
  404934:	00000000 	nop
  404938:	9616008c 	lhu	s6,140(s0)
  40493c:	0040a821 	move	s5,v0
  404940:	32420100 	andi	v0,s2,0x100
  404944:	8fbc0010 	lw	gp,16(sp)
  404948:	1040000c 	beqz	v0,40497c <ip6tables_main@@Base+0x9fc>
  40494c:	0216b021 	addu	s6,s0,s6
  404950:	32420010 	andi	v0,s2,0x10
  404954:	10400003 	beqz	v0,404964 <ip6tables_main@@Base+0x9e4>
  404958:	3c040043 	lui	a0,0x43
  40495c:	10000003 	b	40496c <ip6tables_main@@Base+0x9ec>
  404960:	2484391c 	addiu	a0,a0,14620
  404964:	3c040043 	lui	a0,0x43
  404968:	2484c8d0 	addiu	a0,a0,-14128
[31m  40496c:	8f9983f4 	lw	t9,printf[0m
  404970:	0320f809 	jalr	t9
  404974:	02602821 	move	a1,s3
  404978:	8fbc0010 	lw	gp,16(sp)
  40497c:	32420002 	andi	v0,s2,0x2
  404980:	1440000b 	bnez	v0,4049b0 <ip6tables_main@@Base+0xa30>
  404984:	32420020 	andi	v0,s2,0x20
  404988:	8e05009c 	lw	a1,156(s0)
  40498c:	8e040098 	lw	a0,152(s0)
  404990:	0c1010b0 	jal	4042c0 <ip6tables_main@@Base+0x340>
  404994:	02403021 	move	a2,s2
  404998:	8e0500a4 	lw	a1,164(s0)
  40499c:	8e0400a0 	lw	a0,160(s0)
  4049a0:	0c1010b0 	jal	4042c0 <ip6tables_main@@Base+0x340>
  4049a4:	02403021 	move	a2,s2
  4049a8:	8fbc0010 	lw	gp,16(sp)
  4049ac:	32420020 	andi	v0,s2,0x20
  4049b0:	1440000b 	bnez	v0,4049e0 <ip6tables_main@@Base+0xa60>
  4049b4:	32420010 	andi	v0,s2,0x10
  4049b8:	10400003 	beqz	v0,4049c8 <ip6tables_main@@Base+0xa48>
  4049bc:	3c040043 	lui	a0,0x43
  4049c0:	10000003 	b	4049d0 <ip6tables_main@@Base+0xa50>
  4049c4:	2484ca28 	addiu	a0,a0,-13784
  4049c8:	3c040043 	lui	a0,0x43
  4049cc:	2484c8d8 	addiu	a0,a0,-14120
[31m  4049d0:	8f9983f4 	lw	t9,printf[0m
  4049d4:	0320f809 	jalr	t9
  4049d8:	02202821 	move	a1,s1
--
  404a80:	02602021 	move	a0,s3
  404a84:	8fbc0010 	lw	gp,16(sp)
  404a88:	1040fff8 	beqz	v0,404a6c <ip6tables_main@@Base+0xaec>
  404a8c:	00000000 	nop
  404a90:	8c450000 	lw	a1,0(v0)
  404a94:	14a0000b 	bnez	a1,404ac4 <ip6tables_main@@Base+0xb44>
  404a98:	32420010 	andi	v0,s2,0x10
  404a9c:	10000014 	b	404af0 <ip6tables_main@@Base+0xb70>
  404aa0:	00000000 	nop
  404aa4:	90430004 	lbu	v1,4(v0)
  404aa8:	10730006 	beq	v1,s3,404ac4 <ip6tables_main@@Base+0xb44>
  404aac:	24420008 	addiu	v0,v0,8
  404ab0:	8c450000 	lw	a1,0(v0)
  404ab4:	14a0fffb 	bnez	a1,404aa4 <ip6tables_main@@Base+0xb24>
  404ab8:	00000000 	nop
  404abc:	1000000c 	b	404af0 <ip6tables_main@@Base+0xb70>
  404ac0:	32420010 	andi	v0,s2,0x10
  404ac4:	32420010 	andi	v0,s2,0x10
  404ac8:	10400004 	beqz	v0,404adc <ip6tables_main@@Base+0xb5c>
  404acc:	00000000 	nop
  404ad0:	3c040043 	lui	a0,0x43
  404ad4:	10000003 	b	404ae4 <ip6tables_main@@Base+0xb64>
  404ad8:	2484ca28 	addiu	a0,a0,-13784
  404adc:	3c040043 	lui	a0,0x43
  404ae0:	2484c8e0 	addiu	a0,a0,-14112
[31m  404ae4:	8f9983f4 	lw	t9,printf[0m
  404ae8:	10000009 	b	404b10 <ip6tables_main@@Base+0xb90>
  404aec:	00000000 	nop
  404af0:	10400003 	beqz	v0,404b00 <ip6tables_main@@Base+0xb80>
  404af4:	3c040043 	lui	a0,0x43
  404af8:	10000003 	b	404b08 <ip6tables_main@@Base+0xb88>
  404afc:	2484c8e8 	addiu	a0,a0,-14104
  404b00:	3c040043 	lui	a0,0x43
  404b04:	2484c8f0 	addiu	a0,a0,-14096
[31m  404b08:	8f9983f4 	lw	t9,printf[0m
  404b0c:	96050080 	lhu	a1,128(s0)
  404b10:	0320f809 	jalr	t9
--
  404c6c:	10000002 	b	404c78 <ip6tables_main@@Base+0xcf8>
  404c70:	a3a00019 	sb	zero,25(sp)
  404c74:	a3a00018 	sb	zero,24(sp)
  404c78:	82020040 	lb	v0,64(s0)
  404c7c:	10400004 	beqz	v0,404c90 <ip6tables_main@@Base+0xd10>
  404c80:	27a40018 	addiu	a0,sp,24
  404c84:	8f998290 	lw	t9,-32112(gp)
  404c88:	10000008 	b	404cac <ip6tables_main@@Base+0xd2c>
  404c8c:	26050040 	addiu	a1,s0,64
  404c90:	8f998290 	lw	t9,-32112(gp)
  404c94:	12200003 	beqz	s1,404ca4 <ip6tables_main@@Base+0xd24>
  404c98:	3c050043 	lui	a1,0x43
  404c9c:	10000003 	b	404cac <ip6tables_main@@Base+0xd2c>
  404ca0:	24a5c900 	addiu	a1,a1,-14080
  404ca4:	3c050043 	lui	a1,0x43
  404ca8:	24a5c904 	addiu	a1,a1,-14076
  404cac:	0320f809 	jalr	t9
  404cb0:	32530010 	andi	s3,s2,0x10
  404cb4:	8fbc0010 	lw	gp,16(sp)
  404cb8:	16600003 	bnez	s3,404cc8 <ip6tables_main@@Base+0xd48>
  404cbc:	3c040043 	lui	a0,0x43
  404cc0:	10000003 	b	404cd0 <ip6tables_main@@Base+0xd50>
  404cc4:	2484c908 	addiu	a0,a0,-14072
  404cc8:	3c040043 	lui	a0,0x43
  404ccc:	248433a8 	addiu	a0,a0,13224
[31m  404cd0:	8f9983f4 	lw	t9,printf[0m
  404cd4:	0320f809 	jalr	t9
  404cd8:	27a50018 	addiu	a1,sp,24
--
  404cf4:	10000002 	b	404d00 <ip6tables_main@@Base+0xd80>
  404cf8:	a3a00019 	sb	zero,25(sp)
  404cfc:	a3a00018 	sb	zero,24(sp)
  404d00:	82020050 	lb	v0,80(s0)
  404d04:	10400004 	beqz	v0,404d18 <ip6tables_main@@Base+0xd98>
  404d08:	27a40018 	addiu	a0,sp,24
  404d0c:	8f998290 	lw	t9,-32112(gp)
  404d10:	10000008 	b	404d34 <ip6tables_main@@Base+0xdb4>
  404d14:	26050050 	addiu	a1,s0,80
  404d18:	8f998290 	lw	t9,-32112(gp)
  404d1c:	12200003 	beqz	s1,404d2c <ip6tables_main@@Base+0xdac>
  404d20:	3c050043 	lui	a1,0x43
  404d24:	10000003 	b	404d34 <ip6tables_main@@Base+0xdb4>
  404d28:	24a5c900 	addiu	a1,a1,-14080
  404d2c:	3c050043 	lui	a1,0x43
  404d30:	24a5c904 	addiu	a1,a1,-14076
  404d34:	0320f809 	jalr	t9
  404d38:	00000000 	nop
  404d3c:	8fbc0010 	lw	gp,16(sp)
  404d40:	12600003 	beqz	s3,404d50 <ip6tables_main@@Base+0xdd0>
  404d44:	3c040043 	lui	a0,0x43
  404d48:	10000003 	b	404d58 <ip6tables_main@@Base+0xdd8>
  404d4c:	248433d0 	addiu	a0,a0,13264
  404d50:	3c040043 	lui	a0,0x43
  404d54:	2484c910 	addiu	a0,a0,-14064
[31m  404d58:	8f9983f4 	lw	t9,printf[0m
  404d5c:	0320f809 	jalr	t9
  404d60:	27a50018 	addiu	a1,sp,24
--
  404dc8:	24030021 	li	v1,33
  404dcc:	24020020 	li	v0,32
  404dd0:	0064100b 	0x64100b
  404dd4:	0320f809 	jalr	t9
  404dd8:	00402021 	move	a0,v0
  404ddc:	8fbc0010 	lw	gp,16(sp)
  404de0:	8f998200 	lw	t9,-32256(gp)
  404de4:	26130020 	addiu	s3,s0,32
  404de8:	8f858410 	lw	a1,-31728(gp)
  404dec:	02602021 	move	a0,s3
  404df0:	0320f809 	jalr	t9
  404df4:	24060010 	li	a2,16
  404df8:	8fbc0010 	lw	gp,16(sp)
  404dfc:	1440000e 	bnez	v0,404e38 <ip6tables_main@@Base+0xeb8>
  404e00:	00000000 	nop
  404e04:	1620000e 	bnez	s1,404e40 <ip6tables_main@@Base+0xec0>
  404e08:	32420010 	andi	v0,s2,0x10
  404e0c:	10400004 	beqz	v0,404e20 <ip6tables_main@@Base+0xea0>
  404e10:	00000000 	nop
  404e14:	3c040043 	lui	a0,0x43
  404e18:	10000003 	b	404e28 <ip6tables_main@@Base+0xea8>
  404e1c:	2484ca28 	addiu	a0,a0,-13784
  404e20:	3c040043 	lui	a0,0x43
  404e24:	2484c918 	addiu	a0,a0,-14056
  404e28:	3c050043 	lui	a1,0x43
[31m  404e2c:	8f9983f4 	lw	t9,printf[0m
  404e30:	10000021 	b	404eb8 <ip6tables_main@@Base+0xf38>
  404e34:	24a5c920 	addiu	a1,a1,-14048
--
  404e4c:	8f998220 	lw	t9,-32224(gp)
  404e50:	0320f809 	jalr	t9
  404e54:	02002021 	move	a0,s0
  404e58:	27a4002c 	addiu	a0,sp,44
  404e5c:	8fbc0010 	lw	gp,16(sp)
  404e60:	8f99840c 	lw	t9,-31732(gp)
  404e64:	0320f809 	jalr	t9
  404e68:	00402821 	move	a1,v0
  404e6c:	8fbc0010 	lw	gp,16(sp)
  404e70:	8f9983fc 	lw	t9,-31748(gp)
  404e74:	0320f809 	jalr	t9
  404e78:	02602021 	move	a0,s3
  404e7c:	27a4002c 	addiu	a0,sp,44
  404e80:	8fbc0010 	lw	gp,16(sp)
  404e84:	8f998290 	lw	t9,-32112(gp)
  404e88:	0320f809 	jalr	t9
  404e8c:	00402821 	move	a1,v0
  404e90:	32420010 	andi	v0,s2,0x10
  404e94:	8fbc0010 	lw	gp,16(sp)
  404e98:	10400003 	beqz	v0,404ea8 <ip6tables_main@@Base+0xf28>
  404e9c:	3c040043 	lui	a0,0x43
  404ea0:	10000003 	b	404eb0 <ip6tables_main@@Base+0xf30>
  404ea4:	2484ca28 	addiu	a0,a0,-13784
  404ea8:	3c040043 	lui	a0,0x43
  404eac:	2484c918 	addiu	a0,a0,-14056
[31m  404eb0:	8f9983f4 	lw	t9,printf[0m
  404eb4:	27a5002c 	addiu	a1,sp,44
  404eb8:	0320f809 	jalr	t9
--
  404f24:	24030021 	li	v1,33
  404f28:	24020020 	li	v0,32
  404f2c:	0064100b 	0x64100b
  404f30:	0320f809 	jalr	t9
  404f34:	00402021 	move	a0,v0
  404f38:	8fbc0010 	lw	gp,16(sp)
  404f3c:	8f998200 	lw	t9,-32256(gp)
  404f40:	26130030 	addiu	s3,s0,48
  404f44:	8f858410 	lw	a1,-31728(gp)
  404f48:	02602021 	move	a0,s3
  404f4c:	0320f809 	jalr	t9
  404f50:	24060010 	li	a2,16
  404f54:	8fbc0010 	lw	gp,16(sp)
  404f58:	1440000e 	bnez	v0,404f94 <ip6tables_main@@Base+0x1014>
  404f5c:	00000000 	nop
  404f60:	1620000e 	bnez	s1,404f9c <ip6tables_main@@Base+0x101c>
  404f64:	32420010 	andi	v0,s2,0x10
  404f68:	10400004 	beqz	v0,404f7c <ip6tables_main@@Base+0xffc>
  404f6c:	00000000 	nop
  404f70:	3c040043 	lui	a0,0x43
  404f74:	10000003 	b	404f84 <ip6tables_main@@Base+0x1004>
  404f78:	2484c92c 	addiu	a0,a0,-14036
  404f7c:	3c040043 	lui	a0,0x43
  404f80:	2484c918 	addiu	a0,a0,-14056
  404f84:	3c050043 	lui	a1,0x43
[31m  404f88:	8f9983f4 	lw	t9,printf[0m
  404f8c:	10000021 	b	405014 <ip6tables_main@@Base+0x1094>
  404f90:	24a5c920 	addiu	a1,a1,-14048
--
  404fa8:	8f998220 	lw	t9,-32224(gp)
  404fac:	0320f809 	jalr	t9
  404fb0:	26040010 	addiu	a0,s0,16
  404fb4:	27a4002c 	addiu	a0,sp,44
  404fb8:	8fbc0010 	lw	gp,16(sp)
  404fbc:	8f99840c 	lw	t9,-31732(gp)
  404fc0:	0320f809 	jalr	t9
  404fc4:	00402821 	move	a1,v0
  404fc8:	8fbc0010 	lw	gp,16(sp)
  404fcc:	8f9983fc 	lw	t9,-31748(gp)
  404fd0:	0320f809 	jalr	t9
  404fd4:	02602021 	move	a0,s3
  404fd8:	27a4002c 	addiu	a0,sp,44
  404fdc:	8fbc0010 	lw	gp,16(sp)
  404fe0:	8f998290 	lw	t9,-32112(gp)
  404fe4:	0320f809 	jalr	t9
  404fe8:	00402821 	move	a1,v0
  404fec:	32420010 	andi	v0,s2,0x10
  404ff0:	8fbc0010 	lw	gp,16(sp)
  404ff4:	10400003 	beqz	v0,405004 <ip6tables_main@@Base+0x1084>
  404ff8:	3c040043 	lui	a0,0x43
  404ffc:	10000003 	b	40500c <ip6tables_main@@Base+0x108c>
  405000:	2484c92c 	addiu	a0,a0,-14036
  405004:	3c040043 	lui	a0,0x43
  405008:	2484c918 	addiu	a0,a0,-14056
[31m  40500c:	8f9983f4 	lw	t9,printf[0m
  405010:	27a5002c 	addiu	a1,sp,44
  405014:	0320f809 	jalr	t9
  405018:	00000000 	nop
  40501c:	32420010 	andi	v0,s2,0x10
  405020:	8fbc0010 	lw	gp,16(sp)
  405024:	10400008 	beqz	v0,405048 <ip6tables_main@@Base+0x10c8>
  405028:	00000000 	nop
  40502c:	8f8283f0 	lw	v0,-31760(gp)
  405030:	3c040043 	lui	a0,0x43
  405034:	8f99808c 	lw	t9,-32628(gp)
  405038:	8c450000 	lw	a1,0(v0)
  40503c:	0320f809 	jalr	t9
  405040:	2484c934 	addiu	a0,a0,-14028
  405044:	8fbc0010 	lw	gp,16(sp)
  405048:	92020083 	lbu	v0,131(s0)
  40504c:	30420004 	andi	v0,v0,0x4
  405050:	10400005 	beqz	v0,405068 <ip6tables_main@@Base+0x10e8>
  405054:	3c040043 	lui	a0,0x43
[31m  405058:	8f9983f4 	lw	t9,printf[0m
  40505c:	0320f809 	jalr	t9
  405060:	2484c938 	addiu	a0,a0,-14024
  405064:	8fbc0010 	lw	gp,16(sp)
  405068:	3c1e0043 	lui	s8,0x43
  40506c:	241300a8 	li	s3,168
  405070:	1000001d 	b	4050e8 <ip6tables_main@@Base+0x1168>
  405074:	27deca28 	addiu	s8,s8,-13784
  405078:	0320f809 	jalr	t9
  40507c:	00000000 	nop
  405080:	02002021 	move	a0,s0
  405084:	8fbc0010 	lw	gp,16(sp)
  405088:	1040000c 	beqz	v0,4050bc <ip6tables_main@@Base+0x113c>
  40508c:	02802821 	move	a1,s4
  405090:	8c590028 	lw	t9,40(v0)
  405094:	13200005 	beqz	t9,4050ac <ip6tables_main@@Base+0x112c>
  405098:	02203021 	move	a2,s1
  40509c:	0320f809 	jalr	t9
  4050a0:	00000000 	nop
  4050a4:	1000000d 	b	4050dc <ip6tables_main@@Base+0x115c>
  4050a8:	00000000 	nop
  4050ac:	8c450008 	lw	a1,8(v0)
[31m  4050b0:	8f9983f4 	lw	t9,printf[0m
  4050b4:	10000007 	b	4050d4 <ip6tables_main@@Base+0x1154>
  4050b8:	03c02021 	move	a0,s8
  4050bc:	82820002 	lb	v0,2(s4)
  4050c0:	10400007 	beqz	v0,4050e0 <ip6tables_main@@Base+0x1160>
  4050c4:	3c040043 	lui	a0,0x43
  4050c8:	02e02821 	move	a1,s7
[31m  4050cc:	8f9983f4 	lw	t9,printf[0m
  4050d0:	2484c940 	addiu	a0,a0,-14016
  4050d4:	0320f809 	jalr	t9
--
  4050e0:	96820000 	lhu	v0,0(s4)
  4050e4:	02629821 	addu	s3,s3,v0
  4050e8:	9602008c 	lhu	v0,140(s0)
  4050ec:	0213a021 	addu	s4,s0,s3
  4050f0:	26970002 	addiu	s7,s4,2
  4050f4:	00003021 	move	a2,zero
  4050f8:	0262102b 	sltu	v0,s3,v0
  4050fc:	24050002 	li	a1,2
  405100:	8f998174 	lw	t9,-32396(gp)
  405104:	1440ffdc 	bnez	v0,405078 <ip6tables_main@@Base+0x10f8>
  405108:	02e02021 	move	a0,s7
  40510c:	12a00009 	beqz	s5,405134 <ip6tables_main@@Base+0x11b4>
  405110:	24020020 	li	v0,32
  405114:	8eb90028 	lw	t9,40(s5)
  405118:	1320000e 	beqz	t9,405154 <ip6tables_main@@Base+0x11d4>
  40511c:	02c02821 	move	a1,s6
  405120:	02002021 	move	a0,s0
  405124:	0320f809 	jalr	t9
  405128:	02203021 	move	a2,s1
  40512c:	10000008 	b	405150 <ip6tables_main@@Base+0x11d0>
  405130:	00000000 	nop
  405134:	96c50000 	lhu	a1,0(s6)
  405138:	10a20006 	beq	a1,v0,405154 <ip6tables_main@@Base+0x11d4>
  40513c:	24a5ffe0 	addiu	a1,a1,-32
  405140:	3c040043 	lui	a0,0x43
[31m  405144:	8f9983f4 	lw	t9,printf[0m
  405148:	0320f809 	jalr	t9
  40514c:	2484c954 	addiu	a0,a0,-13996
--
  405434:	8fa50050 	lw	a1,80(sp)
  405438:	8fa70054 	lw	a3,84(sp)
  40543c:	14400005 	bnez	v0,405454 <for_each_chain@@Base+0x274>
  405440:	00408021 	move	s0,v0
  405444:	14e00008 	bnez	a3,405468 <for_each_chain@@Base+0x288>
  405448:	3c130043 	lui	s3,0x43
  40544c:	1000002a 	b	4054f8 <for_each_chain@@Base+0x318>
  405450:	00000000 	nop
  405454:	14e00003 	bnez	a3,405464 <for_each_chain@@Base+0x284>
  405458:	3c130043 	lui	s3,0x43
  40545c:	10000003 	b	40546c <for_each_chain@@Base+0x28c>
  405460:	26733f34 	addiu	s3,s3,16180
  405464:	3c130043 	lui	s3,0x43
  405468:	2673c8c4 	addiu	s3,s3,-14140
  40546c:	8f9980bc 	lw	t9,-32580(gp)
  405470:	27b10018 	addiu	s1,sp,24
  405474:	2404000a 	li	a0,10
  405478:	02203021 	move	a2,s1
  40547c:	0320f809 	jalr	t9
  405480:	24070033 	li	a3,51
  405484:	3c040043 	lui	a0,0x43
  405488:	02602821 	move	a1,s3
  40548c:	8fbc0010 	lw	gp,16(sp)
  405490:	2484c98c 	addiu	a0,a0,-13940
  405494:	02803021 	move	a2,s4
[31m  405498:	8f9983f4 	lw	t9,printf[0m
  40549c:	0320f809 	jalr	t9
  4054a0:	00403821 	move	a3,v0
  4054a4:	2402ffff 	li	v0,-1
  4054a8:	8fbc0010 	lw	gp,16(sp)
  4054ac:	1602000c 	bne	s0,v0,4054e0 <for_each_chain@@Base+0x300>
  4054b0:	02402821 	move	a1,s2
  4054b4:	8f9980bc 	lw	t9,-32580(gp)
  4054b8:	2404000a 	li	a0,10
  4054bc:	02203021 	move	a2,s1
  4054c0:	0320f809 	jalr	t9
  4054c4:	24070033 	li	a3,51
  4054c8:	3c040043 	lui	a0,0x43
  4054cc:	8fbc0010 	lw	gp,16(sp)
  4054d0:	2484c994 	addiu	a0,a0,-13932
[31m  4054d4:	8f9983f4 	lw	t9,printf[0m
  4054d8:	10000005 	b	4054f0 <for_each_chain@@Base+0x310>
  4054dc:	00402821 	move	a1,v0
  4054e0:	3c040043 	lui	a0,0x43
  4054e4:	02002821 	move	a1,s0
[31m  4054e8:	8f9983f4 	lw	t9,printf[0m
  4054ec:	2484c99c 	addiu	a0,a0,-13924
  4054f0:	0320f809 	jalr	t9
--

00405518 <print_rule@@Base>:
  405518:	27bdffb0 	addiu	sp,sp,-80
  40551c:	afbf004c 	sw	ra,76(sp)
  405520:	afb70048 	sw	s7,72(sp)
  405524:	afb60044 	sw	s6,68(sp)
  405528:	afb50040 	sw	s5,64(sp)
  40552c:	afb4003c 	sw	s4,60(sp)
  405530:	afb30038 	sw	s3,56(sp)
  405534:	afb20034 	sw	s2,52(sp)
  405538:	afb10030 	sw	s1,48(sp)
  40553c:	afb0002c 	sw	s0,44(sp)
  405540:	3c1c0045 	lui	gp,0x45
  405544:	279c6160 	addiu	gp,gp,24928
  405548:	afbc0018 	sw	gp,24(sp)
  40554c:	00a09021 	move	s2,a1
  405550:	00e08821 	move	s1,a3
  405554:	00808021 	move	s0,a0
  405558:	18e0000e 	blez	a3,405594 <print_rule@@Base+0x7c>
  40555c:	00c02821 	move	a1,a2
  405560:	8c8300a4 	lw	v1,164(a0)
  405564:	8c8200a0 	lw	v0,160(a0)
  405568:	8c87009c 	lw	a3,156(a0)
  40556c:	8c860098 	lw	a2,152(a0)
  405570:	3c040043 	lui	a0,0x43
[31m  405574:	8f9983f4 	lw	t9,printf[0m
  405578:	2484c9a4 	addiu	a0,a0,-13916
  40557c:	afa50020 	sw	a1,32(sp)
  405580:	afa30014 	sw	v1,20(sp)
  405584:	0320f809 	jalr	t9
  405588:	afa20010 	sw	v0,16(sp)
  40558c:	8fbc0018 	lw	gp,24(sp)
  405590:	8fa50020 	lw	a1,32(sp)
[31m  405594:	8f9983f4 	lw	t9,printf[0m
  405598:	3c040043 	lui	a0,0x43
  40559c:	0320f809 	jalr	t9
--
  405614:	92020084 	lbu	v0,132(s0)
  405618:	12600023 	beqz	s3,4056a8 <print_rule@@Base+0x190>
  40561c:	30420040 	andi	v0,v0,0x40
  405620:	14400003 	bnez	v0,405630 <print_rule@@Base+0x118>
  405624:	3c050043 	lui	a1,0x43
  405628:	10000003 	b	405638 <print_rule@@Base+0x120>
  40562c:	24a53f34 	addiu	a1,a1,16180
  405630:	3c050043 	lui	a1,0x43
  405634:	24a5c8c4 	addiu	a1,a1,-14140
  405638:	8f9983ac 	lw	t9,-31828(gp)
  40563c:	02602021 	move	a0,s3
  405640:	0320f809 	jalr	t9
  405644:	afa50020 	sw	a1,32(sp)
  405648:	8fbc0018 	lw	gp,24(sp)
  40564c:	8fa50020 	lw	a1,32(sp)
  405650:	8f83832c 	lw	v1,-31956(gp)
  405654:	1040000b 	beqz	v0,405684 <print_rule@@Base+0x16c>
  405658:	3c040043 	lui	a0,0x43
  40565c:	8c460000 	lw	a2,0(v0)
  405660:	10000005 	b	405678 <print_rule@@Base+0x160>
  405664:	00000000 	nop
  405668:	90620004 	lbu	v0,4(v1)
  40566c:	14530005 	bne	v0,s3,405684 <print_rule@@Base+0x16c>
  405670:	24630008 	addiu	v1,v1,8
  405674:	3c040043 	lui	a0,0x43
[31m  405678:	8f9983f4 	lw	t9,printf[0m
  40567c:	10000007 	b	40569c <print_rule@@Base+0x184>
  405680:	2484c9c4 	addiu	a0,a0,-13884
  405684:	8c660000 	lw	a2,0(v1)
  405688:	14c0fff7 	bnez	a2,405668 <print_rule@@Base+0x150>
  40568c:	3c040043 	lui	a0,0x43
  405690:	02603021 	move	a2,s3
[31m  405694:	8f9983f4 	lw	t9,printf[0m
  405698:	2484c9d0 	addiu	a0,a0,-13872
  40569c:	0320f809 	jalr	t9
  4056a0:	00000000 	nop
  4056a4:	8fbc0018 	lw	gp,24(sp)
  4056a8:	92020083 	lbu	v0,131(s0)
  4056ac:	30420002 	andi	v0,v0,0x2
  4056b0:	1040000f 	beqz	v0,4056f0 <print_rule@@Base+0x1d8>
  4056b4:	00000000 	nop
  4056b8:	92020084 	lbu	v0,132(s0)
  4056bc:	30420004 	andi	v0,v0,0x4
  4056c0:	14400003 	bnez	v0,4056d0 <print_rule@@Base+0x1b8>
  4056c4:	3c050043 	lui	a1,0x43
  4056c8:	10000003 	b	4056d8 <print_rule@@Base+0x1c0>
  4056cc:	24a53f34 	addiu	a1,a1,16180
  4056d0:	3c050043 	lui	a1,0x43
  4056d4:	24a5c8c4 	addiu	a1,a1,-14140
[31m  4056d8:	8f9983f4 	lw	t9,printf[0m
  4056dc:	3c040043 	lui	a0,0x43
  4056e0:	92060082 	lbu	a2,130(s0)
  4056e4:	0320f809 	jalr	t9
  4056e8:	2484c9dc 	addiu	a0,a0,-13860
  4056ec:	8fbc0018 	lw	gp,24(sp)
  4056f0:	9602008c 	lhu	v0,140(s0)
  4056f4:	1040002a 	beqz	v0,4057a0 <print_rule@@Base+0x288>
  4056f8:	00000000 	nop
  4056fc:	3c160043 	lui	s6,0x43
  405700:	241300a8 	li	s3,168
  405704:	10000023 	b	405794 <print_rule@@Base+0x27c>
  405708:	26d6c9e8 	addiu	s6,s6,-13848
  40570c:	24050002 	li	a1,2
  405710:	8f998174 	lw	t9,-32396(gp)
  405714:	26950002 	addiu	s5,s4,2
  405718:	02a02021 	move	a0,s5
  40571c:	0320f809 	jalr	t9
  405720:	00003021 	move	a2,zero
  405724:	8fbc0018 	lw	gp,24(sp)
  405728:	1040000e 	beqz	v0,405764 <print_rule@@Base+0x24c>
  40572c:	0040b821 	move	s7,v0
[31m  405730:	8f9983f4 	lw	t9,printf[0m
  405734:	02a02821 	move	a1,s5
  405738:	0320f809 	jalr	t9
--
  405758:	8fbc0018 	lw	gp,24(sp)
  40575c:	1000000a 	b	405788 <print_rule@@Base+0x270>
  405760:	00000000 	nop
  405764:	96820000 	lhu	v0,0(s4)
  405768:	10400009 	beqz	v0,405790 <print_rule@@Base+0x278>
  40576c:	02629821 	addu	s3,s3,v0
  405770:	02629823 	subu	s3,s3,v0
  405774:	3c050043 	lui	a1,0x43
  405778:	02a03021 	move	a2,s5
  40577c:	8f9982a0 	lw	t9,-32096(gp)
  405780:	10000038 	b	405864 <print_rule@@Base+0x34c>
  405784:	24a5c9f0 	addiu	a1,a1,-13840
  405788:	96820000 	lhu	v0,0(s4)
  40578c:	02629821 	addu	s3,s3,v0
  405790:	9602008c 	lhu	v0,140(s0)
  405794:	0262102b 	sltu	v0,s3,v0
  405798:	1440ffdc 	bnez	v0,40570c <print_rule@@Base+0x1f4>
  40579c:	0213a021 	addu	s4,s0,s3
  4057a0:	0621000b 	bgez	s1,4057d0 <print_rule@@Base+0x2b8>
  4057a4:	3c040043 	lui	a0,0x43
  4057a8:	8e0300a4 	lw	v1,164(s0)
  4057ac:	8e0200a0 	lw	v0,160(s0)
  4057b0:	2484ca14 	addiu	a0,a0,-13804
  4057b4:	8e07009c 	lw	a3,156(s0)
  4057b8:	8e060098 	lw	a2,152(s0)
[31m  4057bc:	8f9983f4 	lw	t9,printf[0m
  4057c0:	afa30014 	sw	v1,20(sp)
  4057c4:	0320f809 	jalr	t9
  4057c8:	afa20010 	sw	v0,16(sp)
  4057cc:	8fbc0018 	lw	gp,24(sp)
  4057d0:	8f998120 	lw	t9,-32480(gp)
  4057d4:	02402821 	move	a1,s2
  4057d8:	0320f809 	jalr	t9
  4057dc:	02002021 	move	a0,s0
  4057e0:	8fbc0018 	lw	gp,24(sp)
  4057e4:	1040000f 	beqz	v0,405824 <print_rule@@Base+0x30c>
  4057e8:	00000000 	nop
  4057ec:	80430000 	lb	v1,0(v0)
  4057f0:	1060000c 	beqz	v1,405824 <print_rule@@Base+0x30c>
  4057f4:	00403021 	move	a2,v0
  4057f8:	92050083 	lbu	a1,131(s0)
  4057fc:	24030067 	li	v1,103
  405800:	2402006a 	li	v0,106
  405804:	3c040043 	lui	a0,0x43
  405808:	30a50004 	andi	a1,a1,0x4
[31m  40580c:	8f9983f4 	lw	t9,printf[0m
  405810:	2484ca24 	addiu	a0,a0,-13788
  405814:	0065100b 	0x65100b
--
  406104:	00000000 	nop
  406108:	8f828268 	lw	v0,-32152(gp)
  40610c:	8c420000 	lw	v0,0(v0)
  406110:	00021080 	sll	v0,v0,0x2
  406114:	02a2a821 	addu	s5,s5,v0
  406118:	8ea30000 	lw	v1,0(s5)
  40611c:	8f828350 	lw	v0,-31920(gp)
  406120:	ac430000 	sw	v1,0(v0)
  406124:	8fa2005c 	lw	v0,92(sp)
  406128:	1440000a 	bnez	v0,406154 <do_command6@@Base+0x750>
  40612c:	3c030045 	lui	v1,0x45
  406130:	8fa30130 	lw	v1,304(sp)
  406134:	10600006 	beqz	v1,406150 <do_command6@@Base+0x74c>
  406138:	24050002 	li	a1,2
  40613c:	8f998174 	lw	t9,-32396(gp)
  406140:	00602021 	move	a0,v1
  406144:	0320f809 	jalr	t9
  406148:	27a6005c 	addiu	a2,sp,92
  40614c:	8fbc0038 	lw	gp,56(sp)
  406150:	3c030045 	lui	v1,0x45
  406154:	3c040043 	lui	a0,0x43
  406158:	2463be40 	addiu	v1,v1,-16832
  40615c:	2484cb70 	addiu	a0,a0,-13456
  406160:	8c620004 	lw	v0,4(v1)
  406164:	8c660008 	lw	a2,8(v1)
[31m  406168:	8f9983f4 	lw	t9,printf[0m
  40616c:	00402821 	move	a1,v0
  406170:	afa20010 	sw	v0,16(sp)
--
  4066fc:	ad020010 	sw	v0,16(t0)
  406700:	8fa70040 	lw	a3,64(sp)
  406704:	1000000e 	b	406740 <do_command6@@Base+0xd3c>
  406708:	24050001 	li	a1,1
  40670c:	8fa20040 	lw	v0,64(sp)
  406710:	10400004 	beqz	v0,406724 <do_command6@@Base+0xd20>
  406714:	02008821 	move	s1,s0
  406718:	3c050043 	lui	a1,0x43
  40671c:	1000fef7 	b	4062fc <do_command6@@Base+0x8f8>
  406720:	24a5d528 	addiu	a1,a1,-10968
  406724:	8e820000 	lw	v0,0(s4)
  406728:	8fb901a0 	lw	t9,416(sp)
  40672c:	1000014d 	b	406c64 <do_command6@@Base+0x1260>
  406730:	af220000 	sw	v0,0(t9)
  406734:	8fa70040 	lw	a3,64(sp)
  406738:	03c02021 	move	a0,s8
  40673c:	24050040 	li	a1,64
  406740:	8fa60128 	lw	a2,296(sp)
  406744:	0c101073 	jal	4041cc <ip6tables_main@@Base+0x24c>
  406748:	02008821 	move	s1,s0
  40674c:	8fbc0038 	lw	gp,56(sp)
  406750:	1000ff90 	b	406594 <do_command6@@Base+0xb90>
  406754:	00000000 	nop
  406758:	8fa30040 	lw	v1,64(sp)
  40675c:	3c020045 	lui	v0,0x45
[31m  406760:	8f9983f4 	lw	t9,printf[0m
  406764:	10600007 	beqz	v1,406784 <do_command6@@Base+0xd80>
  406768:	2442be40 	addiu	v0,v0,-16832
--
  407930:	0040b821 	move	s7,v0
  407934:	12000007 	beqz	s0,407954 <do_command6@@Base+0x1f50>
  407938:	02002021 	move	a0,s0
  40793c:	8f998180 	lw	t9,-32384(gp)
  407940:	0320f809 	jalr	t9
  407944:	02e02821 	move	a1,s7
  407948:	8fbc0038 	lw	gp,56(sp)
  40794c:	144000f5 	bnez	v0,407d24 <do_command6@@Base+0x2320>
  407950:	00000000 	nop
  407954:	12400005 	beqz	s2,40796c <do_command6@@Base+0x1f68>
  407958:	00000000 	nop
  40795c:	8f998414 	lw	t9,-31724(gp)
  407960:	0320f809 	jalr	t9
  407964:	2404000a 	li	a0,10
  407968:	8fbc0038 	lw	gp,56(sp)
  40796c:	17c000d3 	bnez	s8,407cbc <do_command6@@Base+0x22b8>
  407970:	02e02021 	move	a0,s7
  407974:	8f998188 	lw	t9,-32376(gp)
  407978:	27a50070 	addiu	a1,sp,112
  40797c:	0320f809 	jalr	t9
  407980:	02a03021 	move	a2,s5
  407984:	3c080043 	lui	t0,0x43
  407988:	02e02821 	move	a1,s7
  40798c:	8fbc0038 	lw	gp,56(sp)
  407990:	2504d8b4 	addiu	a0,t0,-10060
[31m  407994:	8f9983f4 	lw	t9,printf[0m
  407998:	0320f809 	jalr	t9
  40799c:	00409021 	move	s2,v0
  4079a0:	8fbc0038 	lw	gp,56(sp)
  4079a4:	1240003b 	beqz	s2,407a94 <do_command6@@Base+0x2090>
  4079a8:	3c040043 	lui	a0,0x43
[31m  4079ac:	8f9983f4 	lw	t9,printf[0m
  4079b0:	02402821 	move	a1,s2
  4079b4:	0320f809 	jalr	t9
--
  407a6c:	8fbc0038 	lw	gp,56(sp)
  407a70:	8e450000 	lw	a1,0(s2)
  407a74:	8f99808c 	lw	t9,-32628(gp)
  407a78:	0320f809 	jalr	t9
  407a7c:	24843f00 	addiu	a0,a0,16128
  407a80:	8fbc0038 	lw	gp,56(sp)
  407a84:	3c040043 	lui	a0,0x43
  407a88:	8f998370 	lw	t9,-31888(gp)
  407a8c:	1000000b 	b	407abc <do_command6@@Base+0x20b8>
  407a90:	2484e91c 	addiu	a0,a0,-5860
  407a94:	8f998138 	lw	t9,-32456(gp)
  407a98:	27a40060 	addiu	a0,sp,96
  407a9c:	02e02821 	move	a1,s7
  407aa0:	0320f809 	jalr	t9
  407aa4:	02a03021 	move	a2,s5
  407aa8:	8fbc0038 	lw	gp,56(sp)
  407aac:	14400007 	bnez	v0,407acc <do_command6@@Base+0x20c8>
  407ab0:	3c040043 	lui	a0,0x43
  407ab4:	8f998370 	lw	t9,-31888(gp)
  407ab8:	2484d8d8 	addiu	a0,a0,-10024
  407abc:	0320f809 	jalr	t9
  407ac0:	00000000 	nop
  407ac4:	10000007 	b	407ae4 <do_command6@@Base+0x20e0>
  407ac8:	32620100 	andi	v0,s3,0x100
  407acc:	3c040043 	lui	a0,0x43
[31m  407ad0:	8f9983f4 	lw	t9,printf[0m
  407ad4:	8fa50060 	lw	a1,96(sp)
  407ad8:	0320f809 	jalr	t9
  407adc:	2484d8f0 	addiu	a0,a0,-10000
  407ae0:	32620100 	andi	v0,s3,0x100
  407ae4:	8fbc0038 	lw	gp,56(sp)
  407ae8:	1040000c 	beqz	v0,407b1c <do_command6@@Base+0x2118>
  407aec:	32620002 	andi	v0,s3,0x2
  407af0:	3c020043 	lui	v0,0x43
  407af4:	32640010 	andi	a0,s3,0x10
  407af8:	3c050043 	lui	a1,0x43
  407afc:	2442d904 	addiu	v0,v0,-9980
  407b00:	24a5d90c 	addiu	a1,a1,-9972
[31m  407b04:	8f9983f4 	lw	t9,printf[0m
  407b08:	0284100b 	0x284100b
  407b0c:	0320f809 	jalr	t9
  407b10:	00402021 	move	a0,v0
  407b14:	8fbc0038 	lw	gp,56(sp)
  407b18:	32620002 	andi	v0,s3,0x2
  407b1c:	14400020 	bnez	v0,407ba0 <do_command6@@Base+0x219c>
  407b20:	32620020 	andi	v0,s3,0x20
  407b24:	32620004 	andi	v0,s3,0x4
  407b28:	1040000c 	beqz	v0,407b5c <do_command6@@Base+0x2158>
  407b2c:	32720010 	andi	s2,s3,0x10
  407b30:	3c040043 	lui	a0,0x43
  407b34:	3c050043 	lui	a1,0x43
[31m  407b38:	8f9983f4 	lw	t9,printf[0m
  407b3c:	2484d910 	addiu	a0,a0,-9968
  407b40:	0292200b 	0x292200b
  407b44:	0320f809 	jalr	t9
  407b48:	24a5d918 	addiu	a1,a1,-9960
  407b4c:	3c040043 	lui	a0,0x43
  407b50:	8fbc0038 	lw	gp,56(sp)
  407b54:	1000000b 	b	407b84 <do_command6@@Base+0x2180>
  407b58:	2484d910 	addiu	a0,a0,-9968
  407b5c:	3c040043 	lui	a0,0x43
  407b60:	3c050043 	lui	a1,0x43
[31m  407b64:	8f9983f4 	lw	t9,printf[0m
  407b68:	2484d920 	addiu	a0,a0,-9952
  407b6c:	0292200b 	0x292200b
  407b70:	0320f809 	jalr	t9
  407b74:	24a5d918 	addiu	a1,a1,-9960
  407b78:	3c040043 	lui	a0,0x43
  407b7c:	8fbc0038 	lw	gp,56(sp)
  407b80:	2484d928 	addiu	a0,a0,-9944
[31m  407b84:	8f9983f4 	lw	t9,printf[0m
  407b88:	3c050043 	lui	a1,0x43
  407b8c:	0292200b 	0x292200b
  407b90:	0320f809 	jalr	t9
  407b94:	24a53f00 	addiu	a1,a1,16128
  407b98:	8fbc0038 	lw	gp,56(sp)
  407b9c:	32620020 	andi	v0,s3,0x20
  407ba0:	1440000a 	bnez	v0,407bcc <do_command6@@Base+0x21c8>
  407ba4:	3c030043 	lui	v1,0x43
  407ba8:	32640010 	andi	a0,s3,0x10
  407bac:	3c050043 	lui	a1,0x43
  407bb0:	2463c8d8 	addiu	v1,v1,-14120
  407bb4:	24a5d930 	addiu	a1,a1,-9936
[31m  407bb8:	8f9983f4 	lw	t9,printf[0m
  407bbc:	0284180b 	0x284180b
  407bc0:	0320f809 	jalr	t9
  407bc4:	00602021 	move	a0,v1
  407bc8:	8fbc0038 	lw	gp,56(sp)
  407bcc:	8f9283f0 	lw	s2,-31760(gp)
  407bd0:	3c040043 	lui	a0,0x43
  407bd4:	8f99808c 	lw	t9,-32628(gp)
  407bd8:	8e450000 	lw	a1,0(s2)
  407bdc:	0320f809 	jalr	t9
  407be0:	2484d938 	addiu	a0,a0,-9928
  407be4:	32620008 	andi	v0,s3,0x8
  407be8:	8fbc0038 	lw	gp,56(sp)
  407bec:	10400008 	beqz	v0,407c10 <do_command6@@Base+0x220c>
  407bf0:	32620040 	andi	v0,s3,0x40
  407bf4:	8f99808c 	lw	t9,-32628(gp)
  407bf8:	3c040043 	lui	a0,0x43
  407bfc:	8e450000 	lw	a1,0(s2)
  407c00:	0320f809 	jalr	t9
  407c04:	2484d940 	addiu	a0,a0,-9920
  407c08:	8fbc0038 	lw	gp,56(sp)
  407c0c:	32620040 	andi	v0,s3,0x40
  407c10:	10400012 	beqz	v0,407c5c <do_command6@@Base+0x2258>
  407c14:	00000000 	nop
  407c18:	3c040043 	lui	a0,0x43
  407c1c:	32720010 	andi	s2,s3,0x10
  407c20:	3c050043 	lui	a1,0x43
[31m  407c24:	8f9983f4 	lw	t9,printf[0m
  407c28:	2484c908 	addiu	a0,a0,-14072
  407c2c:	0292200b 	0x292200b
  407c30:	0320f809 	jalr	t9
  407c34:	24a53414 	addiu	a1,a1,13332
  407c38:	3c040043 	lui	a0,0x43
  407c3c:	8fbc0038 	lw	gp,56(sp)
  407c40:	2484c910 	addiu	a0,a0,-14064
  407c44:	3c050043 	lui	a1,0x43
  407c48:	0292200b 	0x292200b
[31m  407c4c:	8f9983f4 	lw	t9,printf[0m
  407c50:	0320f809 	jalr	t9
  407c54:	24a5343c 	addiu	a1,a1,13372
  407c58:	8fbc0038 	lw	gp,56(sp)
  407c5c:	3c040043 	lui	a0,0x43
  407c60:	32720010 	andi	s2,s3,0x10
  407c64:	3c050043 	lui	a1,0x43
[31m  407c68:	8f9983f4 	lw	t9,printf[0m
  407c6c:	2484d944 	addiu	a0,a0,-9916
  407c70:	0292200b 	0x292200b
  407c74:	0320f809 	jalr	t9
  407c78:	24a52220 	addiu	a1,a1,8736
  407c7c:	3c040043 	lui	a0,0x43
  407c80:	8fbc0038 	lw	gp,56(sp)
  407c84:	3c050043 	lui	a1,0x43
  407c88:	24a5d944 	addiu	a1,a1,-9916
  407c8c:	248417bc 	addiu	a0,a0,6076
[31m  407c90:	8f9983f4 	lw	t9,printf[0m
  407c94:	00b2200a 	0xb2200a
  407c98:	3c050043 	lui	a1,0x43
--
  407da0:	8f998180 	lw	t9,-32384(gp)
  407da4:	afa30168 	sw	v1,360(sp)
  407da8:	0320f809 	jalr	t9
  407dac:	02002821 	move	a1,s0
  407db0:	8fbc0038 	lw	gp,56(sp)
  407db4:	8fa30168 	lw	v1,360(sp)
  407db8:	1440002b 	bnez	v0,407e68 <do_command6@@Base+0x2464>
  407dbc:	00000000 	nop
  407dc0:	8f9982d4 	lw	t9,-32044(gp)
  407dc4:	00602021 	move	a0,v1
  407dc8:	afa30168 	sw	v1,360(sp)
  407dcc:	0320f809 	jalr	t9
  407dd0:	02602821 	move	a1,s3
  407dd4:	8fbc0038 	lw	gp,56(sp)
  407dd8:	8fa30168 	lw	v1,360(sp)
  407ddc:	1040001d 	beqz	v0,407e54 <do_command6@@Base+0x2450>
  407de0:	00602021 	move	a0,v1
  407de4:	8f998188 	lw	t9,-32376(gp)
  407de8:	8fa50128 	lw	a1,296(sp)
  407dec:	0320f809 	jalr	t9
  407df0:	02603021 	move	a2,s3
  407df4:	02802021 	move	a0,s4
  407df8:	8fbc0038 	lw	gp,56(sp)
  407dfc:	00403021 	move	a2,v0
  407e00:	8fa30168 	lw	v1,360(sp)
[31m  407e04:	8f9983f4 	lw	t9,printf[0m
  407e08:	0320f809 	jalr	t9
  407e0c:	00602821 	move	a1,v1
  407e10:	8fbc0038 	lw	gp,56(sp)
  407e14:	12a0000a 	beqz	s5,407e40 <do_command6@@Base+0x243c>
  407e18:	02402021 	move	a0,s2
  407e1c:	8fa3007c 	lw	v1,124(sp)
  407e20:	8fa20078 	lw	v0,120(sp)
[31m  407e24:	8f9983f4 	lw	t9,printf[0m
  407e28:	8fa70074 	lw	a3,116(sp)
  407e2c:	8fa60070 	lw	a2,112(sp)
  407e30:	afa30014 	sw	v1,20(sp)
  407e34:	0320f809 	jalr	t9
  407e38:	afa20010 	sw	v0,16(sp)
  407e3c:	8fbc0038 	lw	gp,56(sp)
  407e40:	8f998414 	lw	t9,-31724(gp)
  407e44:	0320f809 	jalr	t9
  407e48:	2404000a 	li	a0,10
  407e4c:	10000005 	b	407e64 <do_command6@@Base+0x2460>
  407e50:	00000000 	nop
[31m  407e54:	8f9983f4 	lw	t9,printf[0m
  407e58:	00602821 	move	a1,v1
  407e5c:	0320f809 	jalr	t9
--
  4086d8:	10000002 	b	4086e4 <xtables_save_string@@Base+0x234>
  4086dc:	00000000 	nop
  4086e0:	8f998118 	lw	t9,-32488(gp)
  4086e4:	82040000 	lb	a0,0(s0)
  4086e8:	0320f809 	jalr	t9
  4086ec:	00000000 	nop
  4086f0:	8fbc0010 	lw	gp,16(sp)
  4086f4:	8f998054 	lw	t9,-32684(gp)
  4086f8:	26150001 	addiu	s5,s0,1
  4086fc:	02602821 	move	a1,s3
  408700:	0320f809 	jalr	t9
  408704:	02a02021 	move	a0,s5
  408708:	8fbc0010 	lw	gp,16(sp)
  40870c:	00408021 	move	s0,v0
  408710:	1600ffc8 	bnez	s0,408634 <xtables_save_string@@Base+0x184>
  408714:	02b0102b 	sltu	v0,s5,s0
  408718:	8f8283f0 	lw	v0,-31760(gp)
  40871c:	8f99808c 	lw	t9,-32628(gp)
  408720:	8c450000 	lw	a1,0(v0)
  408724:	0320f809 	jalr	t9
  408728:	02a02021 	move	a0,s5
  40872c:	3c040044 	lui	a0,0x44
  408730:	8fbc0010 	lw	gp,16(sp)
  408734:	24849080 	addiu	a0,a0,-28544
  408738:	8fbf0034 	lw	ra,52(sp)
[31m  40873c:	8f9983f4 	lw	t9,printf[0m
  408740:	8fb50030 	lw	s5,48(sp)
  408744:	8fb4002c 	lw	s4,44(sp)
--
  40d8c0:	27bd0068 	addiu	sp,sp,104

0040d8c4 <dump_entries6@@Base>:
  40d8c4:	27bdff88 	addiu	sp,sp,-120
  40d8c8:	afbf0074 	sw	ra,116(sp)
  40d8cc:	afbe0070 	sw	s8,112(sp)
  40d8d0:	afb7006c 	sw	s7,108(sp)
  40d8d4:	afb60068 	sw	s6,104(sp)
  40d8d8:	afb50064 	sw	s5,100(sp)
  40d8dc:	afb40060 	sw	s4,96(sp)
  40d8e0:	afb3005c 	sw	s3,92(sp)
  40d8e4:	afb20058 	sw	s2,88(sp)
  40d8e8:	afb10054 	sw	s1,84(sp)
  40d8ec:	afb00050 	sw	s0,80(sp)
  40d8f0:	3c1c0045 	lui	gp,0x45
  40d8f4:	279c6160 	addiu	gp,gp,24928
  40d8f8:	afbc0018 	sw	gp,24(sp)
  40d8fc:	3c030041 	lui	v1,0x41
  40d900:	2463d8c4 	addiu	v1,v1,-10044
  40d904:	3c020045 	lui	v0,0x45
  40d908:	00808821 	move	s1,a0
  40d90c:	ac43eec0 	sw	v1,-4416(v0)
  40d910:	3c050043 	lui	a1,0x43
  40d914:	8c82007c 	lw	v0,124(a0)
  40d918:	3c040043 	lui	a0,0x43
[31m  40d91c:	8f9983f4 	lw	t9,printf[0m
  40d920:	2484e3a8 	addiu	a0,a0,-7256
  40d924:	8c460020 	lw	a2,32(v0)
  40d928:	24a5df24 	addiu	a1,a1,-8412
  40d92c:	3c140043 	lui	s4,0x43
  40d930:	0320f809 	jalr	t9
  40d934:	3c1e0043 	lui	s8,0x43
  40d938:	3c040043 	lui	a0,0x43
  40d93c:	8fbc0018 	lw	gp,24(sp)
  40d940:	2484e3c0 	addiu	a0,a0,-7232
  40d944:	26250028 	addiu	a1,s1,40
  40d948:	3c170043 	lui	s7,0x43
[31m  40d94c:	8f9983f4 	lw	t9,printf[0m
  40d950:	3c160043 	lui	s6,0x43
  40d954:	00009821 	move	s3,zero
  40d958:	0320f809 	jalr	t9
  40d95c:	2694e470 	addiu	s4,s4,-7056
  40d960:	3c040043 	lui	a0,0x43
  40d964:	8fbc0018 	lw	gp,24(sp)
  40d968:	2484e3cc 	addiu	a0,a0,-7220
  40d96c:	8e230058 	lw	v1,88(s1)
  40d970:	27dee474 	addiu	s8,s8,-7052
  40d974:	8e22005c 	lw	v0,92(s1)
  40d978:	26f7e480 	addiu	s7,s7,-7040
  40d97c:	8e25004c 	lw	a1,76(s1)
  40d980:	26d6e510 	addiu	s6,s6,-6896
  40d984:	8e260050 	lw	a2,80(s1)
  40d988:	8e270054 	lw	a3,84(s1)
[31m  40d98c:	8f9983f4 	lw	t9,printf[0m
  40d990:	afa30010 	sw	v1,16(sp)
  40d994:	0320f809 	jalr	t9
  40d998:	afa20014 	sw	v0,20(sp)
  40d99c:	3c040043 	lui	a0,0x43
  40d9a0:	8fbc0018 	lw	gp,24(sp)
  40d9a4:	2484e3fc 	addiu	a0,a0,-7172
  40d9a8:	8e23006c 	lw	v1,108(s1)
  40d9ac:	8e220070 	lw	v0,112(s1)
  40d9b0:	8e250060 	lw	a1,96(s1)
  40d9b4:	8e260064 	lw	a2,100(s1)
  40d9b8:	8e270068 	lw	a3,104(s1)
[31m  40d9bc:	8f9983f4 	lw	t9,printf[0m
  40d9c0:	afa30010 	sw	v1,16(sp)
  40d9c4:	0320f809 	jalr	t9
--
  40d9d4:	00000000 	nop
  40d9d8:	24c40028 	addiu	a0,a2,40
  40d9dc:	00938021 	addu	s0,a0,s3
  40d9e0:	10000006 	b	40d9fc <dump_entries6@@Base+0x138>
  40d9e4:	00001821 	move	v1,zero
  40d9e8:	12500013 	beq	s2,s0,40da38 <dump_entries6@@Base+0x174>
  40d9ec:	00000000 	nop
  40d9f0:	9647008e 	lhu	a3,142(s2)
  40d9f4:	24a50001 	addiu	a1,a1,1
  40d9f8:	00671821 	addu	v1,v1,a3
  40d9fc:	0062382b 	sltu	a3,v1,v0
  40da00:	14e0fff9 	bnez	a3,40d9e8 <dump_entries6@@Base+0x124>
  40da04:	00839021 	addu	s2,a0,v1
  40da08:	8f82813c 	lw	v0,-32452(gp)
  40da0c:	24c60028 	addiu	a2,a2,40
  40da10:	8f9982a0 	lw	t9,-32096(gp)
  40da14:	3c050043 	lui	a1,0x43
  40da18:	8c440000 	lw	a0,0(v0)
  40da1c:	02063023 	subu	a2,s0,a2
  40da20:	0320f809 	jalr	t9
  40da24:	24a5e430 	addiu	a1,a1,-7120
  40da28:	8fbc0018 	lw	gp,24(sp)
  40da2c:	8f9982ec 	lw	t9,-32020(gp)
  40da30:	0320f809 	jalr	t9
  40da34:	00000000 	nop
[31m  40da38:	8f9983f4 	lw	t9,printf[0m
  40da3c:	24c60028 	addiu	a2,a2,40
  40da40:	3c040043 	lui	a0,0x43
--
  40daa8:	00000000 	nop
  40daac:	8ca20010 	lw	v0,16(a1)
  40dab0:	8ca3001c 	lw	v1,28(a1)
  40dab4:	0043182b 	sltu	v1,v0,v1
  40dab8:	10600005 	beqz	v1,40dad0 <dump_entries6@@Base+0x20c>
  40dabc:	24430001 	addiu	v1,v0,1
  40dac0:	2404002f 	li	a0,47
  40dac4:	a0440000 	sb	a0,0(v0)
  40dac8:	10000007 	b	40dae8 <dump_entries6@@Base+0x224>
  40dacc:	aca30010 	sw	v1,16(a1)
  40dad0:	8f998044 	lw	t9,-32700(gp)
  40dad4:	10000002 	b	40dae0 <dump_entries6@@Base+0x21c>
  40dad8:	00000000 	nop
  40dadc:	8f998118 	lw	t9,-32488(gp)
  40dae0:	0320f809 	jalr	t9
  40dae4:	2404002f 	li	a0,47
  40dae8:	26430020 	addiu	v1,s2,32
  40daec:	00602021 	move	a0,v1
  40daf0:	0c102b2b 	jal	40acac <ipv6_prefix_length@@Base>
  40daf4:	afa30048 	sw	v1,72(sp)
  40daf8:	2404ffff 	li	a0,-1
  40dafc:	8fbc0018 	lw	gp,24(sp)
  40db00:	8fa30048 	lw	v1,72(sp)
  40db04:	10440006 	beq	v0,a0,40db20 <dump_entries6@@Base+0x25c>
  40db08:	00402821 	move	a1,v0
[31m  40db0c:	8f9983f4 	lw	t9,printf[0m
  40db10:	0320f809 	jalr	t9
  40db14:	02802021 	move	a0,s4
--
  40dbf4:	00000000 	nop
  40dbf8:	8ca20010 	lw	v0,16(a1)
  40dbfc:	8ca3001c 	lw	v1,28(a1)
  40dc00:	0043182b 	sltu	v1,v0,v1
  40dc04:	10600005 	beqz	v1,40dc1c <dump_entries6@@Base+0x358>
  40dc08:	24430001 	addiu	v1,v0,1
  40dc0c:	2404002f 	li	a0,47
  40dc10:	a0440000 	sb	a0,0(v0)
  40dc14:	10000007 	b	40dc34 <dump_entries6@@Base+0x370>
  40dc18:	aca30010 	sw	v1,16(a1)
  40dc1c:	8f998044 	lw	t9,-32700(gp)
  40dc20:	10000002 	b	40dc2c <dump_entries6@@Base+0x368>
  40dc24:	00000000 	nop
  40dc28:	8f998118 	lw	t9,-32488(gp)
  40dc2c:	0320f809 	jalr	t9
  40dc30:	2404002f 	li	a0,47
  40dc34:	26430030 	addiu	v1,s2,48
  40dc38:	00602021 	move	a0,v1
  40dc3c:	0c102b2b 	jal	40acac <ipv6_prefix_length@@Base>
  40dc40:	afa30048 	sw	v1,72(sp)
  40dc44:	2404ffff 	li	a0,-1
  40dc48:	8fbc0018 	lw	gp,24(sp)
  40dc4c:	8fa30048 	lw	v1,72(sp)
  40dc50:	10440006 	beq	v0,a0,40dc6c <dump_entries6@@Base+0x3a8>
  40dc54:	00402821 	move	a1,v0
[31m  40dc58:	8f9983f4 	lw	t9,printf[0m
  40dc5c:	0320f809 	jalr	t9
  40dc60:	02802021 	move	a0,s4
--
  40dc8c:	8f998370 	lw	t9,-31888(gp)
  40dc90:	0320f809 	jalr	t9
  40dc94:	02a02021 	move	a0,s5
  40dc98:	8fbc0018 	lw	gp,24(sp)
  40dc9c:	8f8280ec 	lw	v0,-32532(gp)
  40dca0:	8c450000 	lw	a1,0(v0)
  40dca4:	8ca20034 	lw	v0,52(a1)
  40dca8:	1040000d 	beqz	v0,40dce0 <dump_entries6@@Base+0x41c>
  40dcac:	00000000 	nop
  40dcb0:	8ca20010 	lw	v0,16(a1)
  40dcb4:	8ca3001c 	lw	v1,28(a1)
  40dcb8:	0043182b 	sltu	v1,v0,v1
  40dcbc:	10600005 	beqz	v1,40dcd4 <dump_entries6@@Base+0x410>
  40dcc0:	24430001 	addiu	v1,v0,1
  40dcc4:	2404000a 	li	a0,10
  40dcc8:	a0440000 	sb	a0,0(v0)
  40dccc:	10000008 	b	40dcf0 <dump_entries6@@Base+0x42c>
  40dcd0:	aca30010 	sw	v1,16(a1)
  40dcd4:	8f998044 	lw	t9,-32700(gp)
  40dcd8:	10000002 	b	40dce4 <dump_entries6@@Base+0x420>
  40dcdc:	00000000 	nop
  40dce0:	8f998118 	lw	t9,-32488(gp)
  40dce4:	0320f809 	jalr	t9
  40dce8:	2404000a 	li	a0,10
  40dcec:	8fbc0018 	lw	gp,24(sp)
[31m  40dcf0:	8f9983f4 	lw	t9,printf[0m
  40dcf4:	02e02021 	move	a0,s7
  40dcf8:	26450040 	addiu	a1,s2,64
  40dcfc:	0320f809 	jalr	t9
  40dd00:	0000a821 	move	s5,zero
  40dd04:	8fbc0018 	lw	gp,24(sp)
  40dd08:	02551021 	addu	v0,s2,s5
  40dd0c:	24030058 	li	v1,88
  40dd10:	90440060 	lbu	a0,96(v0)
  40dd14:	2402002e 	li	v0,46
  40dd18:	8f998414 	lw	t9,-31724(gp)
  40dd1c:	26b50001 	addiu	s5,s5,1
  40dd20:	0064100b 	0x64100b
  40dd24:	0320f809 	jalr	t9
  40dd28:	00402021 	move	a0,v0
  40dd2c:	24020010 	li	v0,16
  40dd30:	8fbc0018 	lw	gp,24(sp)
  40dd34:	16a2fff5 	bne	s5,v0,40dd0c <dump_entries6@@Base+0x448>
  40dd38:	02551021 	addu	v0,s2,s5
[31m  40dd3c:	8f9983f4 	lw	t9,printf[0m
  40dd40:	3c030043 	lui	v1,0x43
  40dd44:	2464e494 	addiu	a0,v1,-7020
  40dd48:	0320f809 	jalr	t9
  40dd4c:	26450050 	addiu	a1,s2,80
  40dd50:	0000a821 	move	s5,zero
  40dd54:	8fbc0018 	lw	gp,24(sp)
  40dd58:	02551021 	addu	v0,s2,s5
  40dd5c:	24030058 	li	v1,88
  40dd60:	90440070 	lbu	a0,112(v0)
  40dd64:	2402002e 	li	v0,46
  40dd68:	8f998414 	lw	t9,-31724(gp)
  40dd6c:	26b50001 	addiu	s5,s5,1
  40dd70:	0064100b 	0x64100b
  40dd74:	0320f809 	jalr	t9
  40dd78:	00402021 	move	a0,v0
  40dd7c:	24020010 	li	v0,16
  40dd80:	8fbc0018 	lw	gp,24(sp)
  40dd84:	16a2fff5 	bne	s5,v0,40dd5c <dump_entries6@@Base+0x498>
  40dd88:	02551021 	addu	v0,s2,s5
[31m  40dd8c:	8f9983f4 	lw	t9,printf[0m
  40dd90:	3c040043 	lui	a0,0x43
  40dd94:	96450080 	lhu	a1,128(s2)
  40dd98:	0320f809 	jalr	t9
  40dd9c:	2484e4a0 	addiu	a0,a0,-7008
  40dda0:	92020083 	lbu	v0,131(s0)
  40dda4:	8fbc0018 	lw	gp,24(sp)
  40dda8:	30420002 	andi	v0,v0,0x2
  40ddac:	10400007 	beqz	v0,40ddcc <dump_entries6@@Base+0x508>
  40ddb0:	00000000 	nop
[31m  40ddb4:	8f9983f4 	lw	t9,printf[0m
  40ddb8:	3c040043 	lui	a0,0x43
  40ddbc:	92050082 	lbu	a1,130(s0)
  40ddc0:	0320f809 	jalr	t9
  40ddc4:	2484e4b0 	addiu	a0,a0,-6992
  40ddc8:	8fbc0018 	lw	gp,24(sp)
[31m  40ddcc:	8f9983f4 	lw	t9,printf[0m
  40ddd0:	3c040043 	lui	a0,0x43
  40ddd4:	92050083 	lbu	a1,131(s0)
  40ddd8:	2484e4bc 	addiu	a0,a0,-6980
  40dddc:	0320f809 	jalr	t9
  40dde0:	241200a8 	li	s2,168
  40dde4:	3c040043 	lui	a0,0x43
  40dde8:	8fbc0018 	lw	gp,24(sp)
  40ddec:	92050084 	lbu	a1,132(s0)
[31m  40ddf0:	8f9983f4 	lw	t9,printf[0m
  40ddf4:	0320f809 	jalr	t9
  40ddf8:	2484e4cc 	addiu	a0,a0,-6964
  40ddfc:	3c040043 	lui	a0,0x43
  40de00:	8fbc0018 	lw	gp,24(sp)
  40de04:	2484e4dc 	addiu	a0,a0,-6948
  40de08:	8e0300a4 	lw	v1,164(s0)
  40de0c:	8e0200a0 	lw	v0,160(s0)
  40de10:	8e07009c 	lw	a3,156(s0)
  40de14:	8e060098 	lw	a2,152(s0)
[31m  40de18:	8f9983f4 	lw	t9,printf[0m
  40de1c:	afa30014 	sw	v1,20(sp)
  40de20:	0320f809 	jalr	t9
  40de24:	afa20010 	sw	v0,16(sp)
  40de28:	3c040043 	lui	a0,0x43
  40de2c:	8fbc0018 	lw	gp,24(sp)
  40de30:	8e050088 	lw	a1,136(s0)
[31m  40de34:	8f9983f4 	lw	t9,printf[0m
  40de38:	0320f809 	jalr	t9
  40de3c:	2484e500 	addiu	a0,a0,-6912
  40de40:	8fbc0018 	lw	gp,24(sp)
  40de44:	10000007 	b	40de64 <dump_entries6@@Base+0x5a0>
  40de48:	00000000 	nop
  40de4c:	02c02021 	move	a0,s6
  40de50:	0320f809 	jalr	t9
  40de54:	26a50002 	addiu	a1,s5,2
  40de58:	96a20000 	lhu	v0,0(s5)
  40de5c:	8fbc0018 	lw	gp,24(sp)
  40de60:	02429021 	addu	s2,s2,v0
  40de64:	9602008c 	lhu	v0,140(s0)
[31m  40de68:	8f9983f4 	lw	t9,printf[0m
  40de6c:	0242182b 	sltu	v1,s2,v0
  40de70:	1460fff6 	bnez	v1,40de4c <dump_entries6@@Base+0x588>
--
  40de88:	96460000 	lhu	a2,0(s2)
  40de8c:	0320f809 	jalr	t9
  40de90:	02a02821 	move	a1,s5
  40de94:	92420002 	lbu	v0,2(s2)
  40de98:	8fbc0018 	lw	gp,24(sp)
  40de9c:	1440001b 	bnez	v0,40df0c <dump_entries6@@Base+0x648>
  40dea0:	02a02021 	move	a0,s5
  40dea4:	8e420020 	lw	v0,32(s2)
  40dea8:	04410013 	bgez	v0,40def8 <dump_entries6@@Base+0x634>
  40deac:	2403fffe 	li	v1,-2
  40deb0:	3c050043 	lui	a1,0x43
  40deb4:	1043000c 	beq	v0,v1,40dee8 <dump_entries6@@Base+0x624>
  40deb8:	24a5e53c 	addiu	a1,a1,-6852
  40debc:	3c050043 	lui	a1,0x43
  40dec0:	2403ffff 	li	v1,-1
  40dec4:	10430008 	beq	v0,v1,40dee8 <dump_entries6@@Base+0x624>
  40dec8:	24a5e548 	addiu	a1,a1,-6840
  40decc:	2405fffb 	li	a1,-5
  40ded0:	3c030043 	lui	v1,0x43
  40ded4:	00451026 	xor	v0,v0,a1
  40ded8:	3c050043 	lui	a1,0x43
  40dedc:	2463dbb8 	addiu	v1,v1,-9288
  40dee0:	24a5e550 	addiu	a1,a1,-6832
  40dee4:	0062280a 	0x62280a
  40dee8:	3c040043 	lui	a0,0x43
[31m  40deec:	8f9983f4 	lw	t9,printf[0m
  40def0:	10000010 	b	40df34 <dump_entries6@@Base+0x670>
  40def4:	2484e558 	addiu	a0,a0,-6824
  40def8:	3c040043 	lui	a0,0x43
  40defc:	00402821 	move	a1,v0
[31m  40df00:	8f9983f4 	lw	t9,printf[0m
  40df04:	1000000b 	b	40df34 <dump_entries6@@Base+0x670>
  40df08:	2484e564 	addiu	a0,a0,-6812
  40df0c:	8f998180 	lw	t9,-32384(gp)
  40df10:	3c050043 	lui	a1,0x43
  40df14:	0320f809 	jalr	t9
  40df18:	24a5e320 	addiu	a1,a1,-7392
  40df1c:	8fbc0018 	lw	gp,24(sp)
  40df20:	14400007 	bnez	v0,40df40 <dump_entries6@@Base+0x67c>
  40df24:	3c040043 	lui	a0,0x43
  40df28:	26450020 	addiu	a1,s2,32
[31m  40df2c:	8f9983f4 	lw	t9,printf[0m
  40df30:	2484e570 	addiu	a0,a0,-6800
  40df34:	0320f809 	jalr	t9
--
  40eaf0:	afbc0010 	sw	gp,16(sp)
  40eaf4:	14800007 	bnez	a0,40eb14 <init_extensions@@Base+0x454>
  40eaf8:	3c050043 	lui	a1,0x43
  40eafc:	8f828080 	lw	v0,-32640(gp)
  40eb00:	24a5e814 	addiu	a1,a1,-6124
  40eb04:	8c420000 	lw	v0,0(v0)
  40eb08:	8c590014 	lw	t9,20(v0)
  40eb0c:	0320f809 	jalr	t9
  40eb10:	24040002 	li	a0,2
  40eb14:	8fbf001c 	lw	ra,28(sp)
  40eb18:	03e00008 	jr	ra
  40eb1c:	27bd0020 	addiu	sp,sp,32

0040eb20 <libxt_CLASSIFY_init@@Base>:
  40eb20:	3c1c0045 	lui	gp,0x45
  40eb24:	3c040045 	lui	a0,0x45
  40eb28:	279c6160 	addiu	gp,gp,24928
  40eb2c:	2484c070 	addiu	a0,a0,-16272
  40eb30:	8f9980c0 	lw	t9,-32576(gp)
  40eb34:	03200008 	jr	t9
  40eb38:	00000000 	nop
  40eb3c:	3c1c0045 	lui	gp,0x45
  40eb40:	3c040043 	lui	a0,0x43
  40eb44:	8ca50020 	lw	a1,32(a1)
  40eb48:	279c6160 	addiu	gp,gp,24928
[31m  40eb4c:	8f9983f4 	lw	t9,printf[0m
  40eb50:	2484e840 	addiu	a0,a0,-6080
  40eb54:	30a6ffff 	andi	a2,a1,0xffff
  40eb58:	00052c02 	srl	a1,a1,0x10
  40eb5c:	03200008 	jr	t9
  40eb60:	00000000 	nop
  40eb64:	27bdffd8 	addiu	sp,sp,-40
  40eb68:	afbf0024 	sw	ra,36(sp)
  40eb6c:	3c1c0045 	lui	gp,0x45
  40eb70:	279c6160 	addiu	gp,gp,24928
  40eb74:	afbc0010 	sw	gp,16(sp)
  40eb78:	3c040043 	lui	a0,0x43
[31m  40eb7c:	8f9983f4 	lw	t9,printf[0m
  40eb80:	2484e858 	addiu	a0,a0,-6056
  40eb84:	0320f809 	jalr	t9
  40eb88:	afa50018 	sw	a1,24(sp)
  40eb8c:	3c040043 	lui	a0,0x43
  40eb90:	8fa50018 	lw	a1,24(sp)
  40eb94:	2484e868 	addiu	a0,a0,-6040
  40eb98:	8fbc0010 	lw	gp,16(sp)
  40eb9c:	8ca50020 	lw	a1,32(a1)
[31m  40eba0:	8f9983f4 	lw	t9,printf[0m
  40eba4:	8fbf0024 	lw	ra,36(sp)
  40eba8:	30a6ffff 	andi	a2,a1,0xffff
--
  40ed94:	3c050043 	lui	a1,0x43
  40ed98:	1000ffee 	b	40ed54 <libxt_CLASSIFY_init@@Base+0x234>
  40ed9c:	24a5ea38 	addiu	a1,a1,-5576
  40eda0:	8fbf001c 	lw	ra,28(sp)
  40eda4:	03e00008 	jr	ra
  40eda8:	27bd0020 	addiu	sp,sp,32

0040edac <libxt_cluster_init@@Base>:
  40edac:	3c1c0045 	lui	gp,0x45
  40edb0:	3c040045 	lui	a0,0x45
  40edb4:	279c6160 	addiu	gp,gp,24928
  40edb8:	2484c0c0 	addiu	a0,a0,-16192
  40edbc:	8f998148 	lw	t9,-32440(gp)
  40edc0:	03200008 	jr	t9
  40edc4:	00000000 	nop
  40edc8:	27bdffd8 	addiu	sp,sp,-40
  40edcc:	afbf0024 	sw	ra,36(sp)
  40edd0:	afb10020 	sw	s1,32(sp)
  40edd4:	afb0001c 	sw	s0,28(sp)
  40edd8:	3c1c0045 	lui	gp,0x45
  40eddc:	279c6160 	addiu	gp,gp,24928
  40ede0:	afbc0010 	sw	gp,16(sp)
  40ede4:	24b00020 	addiu	s0,a1,32
  40ede8:	00a08821 	move	s1,a1
  40edec:	8e02000c 	lw	v0,12(s0)
[31m  40edf0:	8f9983f4 	lw	t9,printf[0m
  40edf4:	30420001 	andi	v0,v0,0x1
  40edf8:	8e050004 	lw	a1,4(s0)
  40edfc:	10400003 	beqz	v0,40ee0c <libxt_cluster_init@@Base+0x60>
  40ee00:	3c040043 	lui	a0,0x43
  40ee04:	10000003 	b	40ee14 <libxt_cluster_init@@Base+0x68>
  40ee08:	2484ea88 	addiu	a0,a0,-5496
  40ee0c:	3c040043 	lui	a0,0x43
  40ee10:	2484eaac 	addiu	a0,a0,-5460
  40ee14:	0320f809 	jalr	t9
  40ee18:	00000000 	nop
  40ee1c:	3c040043 	lui	a0,0x43
  40ee20:	8fbc0010 	lw	gp,16(sp)
  40ee24:	2484ead0 	addiu	a0,a0,-5424
  40ee28:	8e250020 	lw	a1,32(s1)
  40ee2c:	8e060008 	lw	a2,8(s0)
[31m  40ee30:	8f9983f4 	lw	t9,printf[0m
  40ee34:	8fbf0024 	lw	ra,36(sp)
  40ee38:	8fb10020 	lw	s1,32(sp)
  40ee3c:	8fb0001c 	lw	s0,28(sp)
  40ee40:	03200008 	jr	t9
  40ee44:	27bd0028 	addiu	sp,sp,40
  40ee48:	27bdffd8 	addiu	sp,sp,-40
  40ee4c:	afbf0024 	sw	ra,36(sp)
  40ee50:	afb10020 	sw	s1,32(sp)
  40ee54:	afb0001c 	sw	s0,28(sp)
  40ee58:	3c1c0045 	lui	gp,0x45
  40ee5c:	279c6160 	addiu	gp,gp,24928
  40ee60:	afbc0010 	sw	gp,16(sp)
  40ee64:	3c040043 	lui	a0,0x43
[31m  40ee68:	8f9983f4 	lw	t9,printf[0m
  40ee6c:	24b00020 	addiu	s0,a1,32
  40ee70:	00a08821 	move	s1,a1
  40ee74:	0320f809 	jalr	t9
  40ee78:	2484eb08 	addiu	a0,a0,-5368
  40ee7c:	8e02000c 	lw	v0,12(s0)
  40ee80:	8fbc0010 	lw	gp,16(sp)
  40ee84:	30420001 	andi	v0,v0,0x1
  40ee88:	8e050004 	lw	a1,4(s0)
[31m  40ee8c:	8f9983f4 	lw	t9,printf[0m
  40ee90:	10400003 	beqz	v0,40eea0 <libxt_cluster_init@@Base+0xf4>
  40ee94:	3c040043 	lui	a0,0x43
  40ee98:	10000003 	b	40eea8 <libxt_cluster_init@@Base+0xfc>
  40ee9c:	2484eb14 	addiu	a0,a0,-5356
  40eea0:	3c040043 	lui	a0,0x43
  40eea4:	2484eb28 	addiu	a0,a0,-5336
  40eea8:	0320f809 	jalr	t9
  40eeac:	00000000 	nop
  40eeb0:	3c040043 	lui	a0,0x43
  40eeb4:	8fbc0010 	lw	gp,16(sp)
  40eeb8:	2484eb3c 	addiu	a0,a0,-5316
  40eebc:	8e250020 	lw	a1,32(s1)
  40eec0:	8e060008 	lw	a2,8(s0)
[31m  40eec4:	8f9983f4 	lw	t9,printf[0m
  40eec8:	8fbf0024 	lw	ra,36(sp)
  40eecc:	8fb10020 	lw	s1,32(sp)
--
  40f238:	03e00008 	jr	ra
  40f23c:	27bd0020 	addiu	sp,sp,32

0040f240 <libxt_comment_init@@Base>:
  40f240:	27bdffe0 	addiu	sp,sp,-32
  40f244:	afbf001c 	sw	ra,28(sp)
  40f248:	3c1c0045 	lui	gp,0x45
  40f24c:	279c6160 	addiu	gp,gp,24928
  40f250:	afbc0010 	sw	gp,16(sp)
  40f254:	3c040045 	lui	a0,0x45
  40f258:	8f998148 	lw	t9,-32440(gp)
  40f25c:	0320f809 	jalr	t9
  40f260:	2484c110 	addiu	a0,a0,-16112
  40f264:	3c040045 	lui	a0,0x45
  40f268:	8fbc0010 	lw	gp,16(sp)
  40f26c:	2484c154 	addiu	a0,a0,-16044
  40f270:	8fbf001c 	lw	ra,28(sp)
  40f274:	8f998148 	lw	t9,-32440(gp)
  40f278:	03200008 	jr	t9
  40f27c:	27bd0020 	addiu	sp,sp,32
  40f280:	3c1c0045 	lui	gp,0x45
  40f284:	24a20020 	addiu	v0,a1,32
  40f288:	279c6160 	addiu	gp,gp,24928
  40f28c:	3c040043 	lui	a0,0x43
  40f290:	00402821 	move	a1,v0
[31m  40f294:	8f9983f4 	lw	t9,printf[0m
  40f298:	2484ee48 	addiu	a0,a0,-4536
  40f29c:	a04000ff 	sb	zero,255(v0)
  40f2a0:	03200008 	jr	t9
  40f2a4:	00000000 	nop
  40f2a8:	27bdffe0 	addiu	sp,sp,-32
  40f2ac:	afbf001c 	sw	ra,28(sp)
  40f2b0:	afb00018 	sw	s0,24(sp)
  40f2b4:	3c1c0045 	lui	gp,0x45
  40f2b8:	279c6160 	addiu	gp,gp,24928
  40f2bc:	afbc0010 	sw	gp,16(sp)
  40f2c0:	3c040043 	lui	a0,0x43
  40f2c4:	24b00020 	addiu	s0,a1,32
  40f2c8:	2484ee54 	addiu	a0,a0,-4524
[31m  40f2cc:	8f9983f4 	lw	t9,printf[0m
  40f2d0:	0320f809 	jalr	t9
  40f2d4:	a20000ff 	sb	zero,255(s0)
--
  40f5a0:	3c040043 	lui	a0,0x43
  40f5a4:	8c650000 	lw	a1,0(v1)
  40f5a8:	2484ef74 	addiu	a0,a0,-4236
  40f5ac:	03200008 	jr	t9
  40f5b0:	00000000 	nop
  40f5b4:	27bdffd0 	addiu	sp,sp,-48
  40f5b8:	afbf002c 	sw	ra,44(sp)
  40f5bc:	afb10028 	sw	s1,40(sp)
  40f5c0:	afb00024 	sw	s0,36(sp)
  40f5c4:	3c1c0045 	lui	gp,0x45
  40f5c8:	279c6160 	addiu	gp,gp,24928
  40f5cc:	afbc0018 	sw	gp,24(sp)
  40f5d0:	24b00020 	addiu	s0,a1,32
  40f5d4:	8e040008 	lw	a0,8(s0)
  40f5d8:	8ca50020 	lw	a1,32(a1)
  40f5dc:	8e030004 	lw	v1,4(s0)
  40f5e0:	0085302b 	sltu	a2,a0,a1
  40f5e4:	8e02000c 	lw	v0,12(s0)
  40f5e8:	14c00005 	bnez	a2,40f600 <libxt_connbytes_init@@Base+0x18c>
  40f5ec:	00803021 	move	a2,a0
  40f5f0:	14a4000a 	bne	a1,a0,40f61c <libxt_connbytes_init@@Base+0x1a8>
  40f5f4:	0043302b 	sltu	a2,v0,v1
  40f5f8:	10c00008 	beqz	a2,40f61c <libxt_connbytes_init@@Base+0x1a8>
  40f5fc:	00803021 	move	a2,a0
  40f600:	3c040043 	lui	a0,0x43
[31m  40f604:	8f9983f4 	lw	t9,printf[0m
  40f608:	2484ef9c 	addiu	a0,a0,-4196
  40f60c:	00403821 	move	a3,v0
  40f610:	afa50010 	sw	a1,16(sp)
  40f614:	10000008 	b	40f638 <libxt_connbytes_init@@Base+0x1c4>
  40f618:	afa30014 	sw	v1,20(sp)
  40f61c:	afa40010 	sw	a0,16(sp)
  40f620:	3c040043 	lui	a0,0x43
  40f624:	00a03021 	move	a2,a1
[31m  40f628:	8f9983f4 	lw	t9,printf[0m
  40f62c:	2484efb8 	addiu	a0,a0,-4168
  40f630:	00603821 	move	a3,v1
--
  40f684:	8fbf002c 	lw	ra,44(sp)
  40f688:	8fb10028 	lw	s1,40(sp)
  40f68c:	8fb00024 	lw	s0,36(sp)
  40f690:	08103d4d 	j	40f534 <libxt_connbytes_init@@Base+0xc0>
  40f694:	27bd0030 	addiu	sp,sp,48
  40f698:	27bdffd0 	addiu	sp,sp,-48
  40f69c:	afbf002c 	sw	ra,44(sp)
  40f6a0:	afb10028 	sw	s1,40(sp)
  40f6a4:	afb00024 	sw	s0,36(sp)
  40f6a8:	3c1c0045 	lui	gp,0x45
  40f6ac:	279c6160 	addiu	gp,gp,24928
  40f6b0:	afbc0018 	sw	gp,24(sp)
  40f6b4:	24b00020 	addiu	s0,a1,32
  40f6b8:	8e040008 	lw	a0,8(s0)
  40f6bc:	8ca50020 	lw	a1,32(a1)
  40f6c0:	8e030004 	lw	v1,4(s0)
  40f6c4:	0085302b 	sltu	a2,a0,a1
  40f6c8:	8e02000c 	lw	v0,12(s0)
  40f6cc:	14c00005 	bnez	a2,40f6e4 <libxt_connbytes_init@@Base+0x270>
  40f6d0:	00803021 	move	a2,a0
  40f6d4:	14a4000a 	bne	a1,a0,40f700 <libxt_connbytes_init@@Base+0x28c>
  40f6d8:	0043302b 	sltu	a2,v0,v1
  40f6dc:	10c00008 	beqz	a2,40f700 <libxt_connbytes_init@@Base+0x28c>
  40f6e0:	00803021 	move	a2,a0
  40f6e4:	3c040043 	lui	a0,0x43
[31m  40f6e8:	8f9983f4 	lw	t9,printf[0m
  40f6ec:	2484eff8 	addiu	a0,a0,-4104
  40f6f0:	00403821 	move	a3,v0
  40f6f4:	afa50010 	sw	a1,16(sp)
  40f6f8:	10000008 	b	40f71c <libxt_connbytes_init@@Base+0x2a8>
  40f6fc:	afa30014 	sw	v1,20(sp)
  40f700:	afa40010 	sw	a0,16(sp)
  40f704:	3c040043 	lui	a0,0x43
  40f708:	00a03021 	move	a2,a1
[31m  40f70c:	8f9983f4 	lw	t9,printf[0m
  40f710:	2484efa0 	addiu	a0,a0,-4192
  40f714:	00603821 	move	a3,v1
--
  40fb38:	8c430014 	lw	v1,20(v0)
  40fb3c:	14600004 	bnez	v1,40fb50 <libxt_connlimit_init@@Base+0x6c>
  40fb40:	00000000 	nop
  40fb44:	3c050043 	lui	a1,0x43
  40fb48:	10000003 	b	40fb58 <libxt_connlimit_init@@Base+0x74>
  40fb4c:	24a53f34 	addiu	a1,a1,16180
  40fb50:	3c050043 	lui	a1,0x43
  40fb54:	24a5c8c4 	addiu	a1,a1,-14140
  40fb58:	00401821 	move	v1,v0
  40fb5c:	8c460010 	lw	a2,16(v0)
  40fb60:	24480010 	addiu	t0,v0,16
  40fb64:	27a40008 	addiu	a0,sp,8
  40fb68:	00001021 	move	v0,zero
  40fb6c:	8c670000 	lw	a3,0(v1)
  40fb70:	00073827 	nor	a3,zero,a3
  40fb74:	10000003 	b	40fb84 <libxt_connlimit_init@@Base+0xa0>
  40fb78:	ac870000 	sw	a3,0(a0)
  40fb7c:	ac890000 	sw	t1,0(a0)
  40fb80:	24420001 	addiu	v0,v0,1
  40fb84:	8c870000 	lw	a3,0(a0)
  40fb88:	14e0fffc 	bnez	a3,40fb7c <libxt_connlimit_init@@Base+0x98>
  40fb8c:	00074842 	srl	t1,a3,0x1
  40fb90:	24630004 	addiu	v1,v1,4
  40fb94:	1468fff5 	bne	v1,t0,40fb6c <libxt_connlimit_init@@Base+0x88>
  40fb98:	24840004 	addiu	a0,a0,4
[31m  40fb9c:	8f9983f4 	lw	t9,printf[0m
  40fba0:	24070080 	li	a3,128
  40fba4:	3c040043 	lui	a0,0x43
--
  40fbd0:	24a70020 	addiu	a3,a1,32
  40fbd4:	27a30008 	addiu	v1,sp,8
  40fbd8:	24a50030 	addiu	a1,a1,48
  40fbdc:	00e02021 	move	a0,a3
  40fbe0:	8c860000 	lw	a2,0(a0)
  40fbe4:	00063027 	nor	a2,zero,a2
  40fbe8:	10000003 	b	40fbf8 <libxt_connlimit_init@@Base+0x114>
  40fbec:	ac660000 	sw	a2,0(v1)
  40fbf0:	ac680000 	sw	t0,0(v1)
  40fbf4:	24420001 	addiu	v0,v0,1
  40fbf8:	8c660000 	lw	a2,0(v1)
  40fbfc:	14c0fffc 	bnez	a2,40fbf0 <libxt_connlimit_init@@Base+0x10c>
  40fc00:	00064042 	srl	t0,a2,0x1
  40fc04:	24840004 	addiu	a0,a0,4
  40fc08:	1485fff5 	bne	a0,a1,40fbe0 <libxt_connlimit_init@@Base+0xfc>
  40fc0c:	24630004 	addiu	v1,v1,4
  40fc10:	8ce30014 	lw	v1,20(a3)
  40fc14:	14600003 	bnez	v1,40fc24 <libxt_connlimit_init@@Base+0x140>
  40fc18:	3c060043 	lui	a2,0x43
  40fc1c:	10000003 	b	40fc2c <libxt_connlimit_init@@Base+0x148>
  40fc20:	24c6f1ec 	addiu	a2,a2,-3604
  40fc24:	3c060043 	lui	a2,0x43
  40fc28:	24c6f1f0 	addiu	a2,a2,-3600
  40fc2c:	8ce70010 	lw	a3,16(a3)
  40fc30:	24050080 	li	a1,128
[31m  40fc34:	8f9983f4 	lw	t9,printf[0m
  40fc38:	3c040043 	lui	a0,0x43
  40fc3c:	00a22823 	subu	a1,a1,v0
  40fc40:	2484f1f4 	addiu	a0,a0,-3596
  40fc44:	27bd0018 	addiu	sp,sp,24
  40fc48:	03200008 	jr	t9
  40fc4c:	00000000 	nop
  40fc50:	24a40020 	addiu	a0,a1,32
  40fc54:	3c1c0045 	lui	gp,0x45
  40fc58:	00a01021 	move	v0,a1
  40fc5c:	8c830014 	lw	v1,20(a0)
  40fc60:	14600004 	bnez	v1,40fc74 <libxt_connlimit_init@@Base+0x190>
  40fc64:	279c6160 	addiu	gp,gp,24928
  40fc68:	3c050043 	lui	a1,0x43
  40fc6c:	10000003 	b	40fc7c <libxt_connlimit_init@@Base+0x198>
  40fc70:	24a53f34 	addiu	a1,a1,16180
  40fc74:	3c050043 	lui	a1,0x43
  40fc78:	24a5c8c4 	addiu	a1,a1,-14140
  40fc7c:	8c430020 	lw	v1,32(v0)
  40fc80:	00001021 	move	v0,zero
  40fc84:	8c860010 	lw	a2,16(a0)
  40fc88:	10000002 	b	40fc94 <libxt_connlimit_init@@Base+0x1b0>
  40fc8c:	00031827 	nor	v1,zero,v1
  40fc90:	24420001 	addiu	v0,v0,1
  40fc94:	1460fffe 	bnez	v1,40fc90 <libxt_connlimit_init@@Base+0x1ac>
  40fc98:	00031842 	srl	v1,v1,0x1
[31m  40fc9c:	8f9983f4 	lw	t9,printf[0m
  40fca0:	24070020 	li	a3,32
  40fca4:	3c040043 	lui	a0,0x43
  40fca8:	00e23823 	subu	a3,a3,v0
  40fcac:	2484f1c0 	addiu	a0,a0,-3648
  40fcb0:	03200008 	jr	t9
  40fcb4:	00000000 	nop
  40fcb8:	8ca30020 	lw	v1,32(a1)
  40fcbc:	3c1c0045 	lui	gp,0x45
  40fcc0:	279c6160 	addiu	gp,gp,24928
  40fcc4:	00001021 	move	v0,zero
  40fcc8:	24a50020 	addiu	a1,a1,32
  40fccc:	10000002 	b	40fcd8 <libxt_connlimit_init@@Base+0x1f4>
  40fcd0:	00031827 	nor	v1,zero,v1
  40fcd4:	24420001 	addiu	v0,v0,1
  40fcd8:	1460fffe 	bnez	v1,40fcd4 <libxt_connlimit_init@@Base+0x1f0>
  40fcdc:	00031842 	srl	v1,v1,0x1
  40fce0:	8ca30014 	lw	v1,20(a1)
  40fce4:	14600003 	bnez	v1,40fcf4 <libxt_connlimit_init@@Base+0x210>
  40fce8:	3c060043 	lui	a2,0x43
  40fcec:	10000003 	b	40fcfc <libxt_connlimit_init@@Base+0x218>
  40fcf0:	24c6f1ec 	addiu	a2,a2,-3604
  40fcf4:	3c060043 	lui	a2,0x43
  40fcf8:	24c6f1f0 	addiu	a2,a2,-3600
  40fcfc:	8ca70010 	lw	a3,16(a1)
  40fd00:	3c040043 	lui	a0,0x43
  40fd04:	24050020 	li	a1,32
  40fd08:	2484f1f4 	addiu	a0,a0,-3596
[31m  40fd0c:	8f9983f4 	lw	t9,printf[0m
  40fd10:	00a22823 	subu	a1,a1,v0
  40fd14:	03200008 	jr	t9
--
  410044:	3c040045 	lui	a0,0x45
  410048:	8f998148 	lw	t9,-32440(gp)
  41004c:	0320f809 	jalr	t9
  410050:	2484c2c0 	addiu	a0,a0,-15680
  410054:	3c040045 	lui	a0,0x45
  410058:	8fbc0010 	lw	gp,16(sp)
  41005c:	8f998148 	lw	t9,-32440(gp)
  410060:	0320f809 	jalr	t9
  410064:	2484c304 	addiu	a0,a0,-15612
  410068:	3c040045 	lui	a0,0x45
  41006c:	8fbc0010 	lw	gp,16(sp)
  410070:	8f998148 	lw	t9,-32440(gp)
  410074:	0320f809 	jalr	t9
  410078:	2484c348 	addiu	a0,a0,-15544
  41007c:	3c040045 	lui	a0,0x45
  410080:	8fbc0010 	lw	gp,16(sp)
  410084:	2484c38c 	addiu	a0,a0,-15476
  410088:	8fbf001c 	lw	ra,28(sp)
  41008c:	8f998148 	lw	t9,-32440(gp)
  410090:	03200008 	jr	t9
  410094:	27bd0020 	addiu	sp,sp,32
  410098:	3c1c0045 	lui	gp,0x45
  41009c:	00a03021 	move	a2,a1
  4100a0:	2402ffff 	li	v0,-1
  4100a4:	279c6160 	addiu	gp,gp,24928
[31m  4100a8:	8f9983f4 	lw	t9,printf[0m
  4100ac:	10c20005 	beq	a2,v0,4100c4 <libxt_connmark_init@@Base+0x94>
  4100b0:	00802821 	move	a1,a0
  4100b4:	3c040043 	lui	a0,0x43
  4100b8:	2484f4b0 	addiu	a0,a0,-2896
  4100bc:	03200008 	jr	t9
  4100c0:	00000000 	nop
  4100c4:	3c040043 	lui	a0,0x43
  4100c8:	2484f554 	addiu	a0,a0,-2732
  4100cc:	03200008 	jr	t9
  4100d0:	00000000 	nop
  4100d4:	27bdffd8 	addiu	sp,sp,-40
  4100d8:	afbf0024 	sw	ra,36(sp)
  4100dc:	afb10020 	sw	s1,32(sp)
  4100e0:	afb0001c 	sw	s0,28(sp)
  4100e4:	3c1c0045 	lui	gp,0x45
  4100e8:	279c6160 	addiu	gp,gp,24928
  4100ec:	afbc0010 	sw	gp,16(sp)
  4100f0:	24b00020 	addiu	s0,a1,32
  4100f4:	92020008 	lbu	v0,8(s0)
  4100f8:	10400006 	beqz	v0,410114 <libxt_connmark_init@@Base+0xe4>
  4100fc:	00a08821 	move	s1,a1
[31m  410100:	8f9983f4 	lw	t9,printf[0m
  410104:	3c040043 	lui	a0,0x43
  410108:	0320f809 	jalr	t9
  41010c:	2484c8c4 	addiu	a0,a0,-14140
  410110:	8fbc0010 	lw	gp,16(sp)
[31m  410114:	8f9983f4 	lw	t9,printf[0m
  410118:	3c040043 	lui	a0,0x43
  41011c:	0320f809 	jalr	t9
  410120:	2484f3d0 	addiu	a0,a0,-3120
  410124:	8e240020 	lw	a0,32(s1)
  410128:	8e050004 	lw	a1,4(s0)
  41012c:	8fbc0010 	lw	gp,16(sp)
  410130:	8fbf0024 	lw	ra,36(sp)
  410134:	8fb10020 	lw	s1,32(sp)
  410138:	8fb0001c 	lw	s0,28(sp)
  41013c:	08104026 	j	410098 <libxt_connmark_init@@Base+0x68>
  410140:	27bd0028 	addiu	sp,sp,40
  410144:	27bdffd8 	addiu	sp,sp,-40
  410148:	afbf0024 	sw	ra,36(sp)
  41014c:	afb10020 	sw	s1,32(sp)
  410150:	afb0001c 	sw	s0,28(sp)
  410154:	3c1c0045 	lui	gp,0x45
  410158:	279c6160 	addiu	gp,gp,24928
  41015c:	afbc0010 	sw	gp,16(sp)
  410160:	24b00020 	addiu	s0,a1,32
  410164:	92020008 	lbu	v0,8(s0)
  410168:	10400006 	beqz	v0,410184 <libxt_connmark_init@@Base+0x154>
  41016c:	00a08821 	move	s1,a1
[31m  410170:	8f9983f4 	lw	t9,printf[0m
  410174:	3c040043 	lui	a0,0x43
  410178:	0320f809 	jalr	t9
  41017c:	2484c8c4 	addiu	a0,a0,-14140
  410180:	8fbc0010 	lw	gp,16(sp)
[31m  410184:	8f9983f4 	lw	t9,printf[0m
  410188:	3c040043 	lui	a0,0x43
  41018c:	0320f809 	jalr	t9
  410190:	2484f3d0 	addiu	a0,a0,-3120
  410194:	8e240020 	lw	a0,32(s1)
  410198:	8e050004 	lw	a1,4(s0)
  41019c:	8fbc0010 	lw	gp,16(sp)
  4101a0:	8fbf0024 	lw	ra,36(sp)
  4101a4:	8fb10020 	lw	s1,32(sp)
  4101a8:	8fb0001c 	lw	s0,28(sp)
  4101ac:	08104026 	j	410098 <libxt_connmark_init@@Base+0x68>
  4101b0:	27bd0028 	addiu	sp,sp,40
  4101b4:	27bdffd8 	addiu	sp,sp,-40
  4101b8:	afbf0024 	sw	ra,36(sp)
  4101bc:	afb10020 	sw	s1,32(sp)
  4101c0:	afb0001c 	sw	s0,28(sp)
  4101c4:	3c1c0045 	lui	gp,0x45
  4101c8:	279c6160 	addiu	gp,gp,24928
  4101cc:	afbc0010 	sw	gp,16(sp)
  4101d0:	3c040043 	lui	a0,0x43
[31m  4101d4:	8f9983f4 	lw	t9,printf[0m
  4101d8:	24b00020 	addiu	s0,a1,32
  4101dc:	00a08821 	move	s1,a1
  4101e0:	0320f809 	jalr	t9
  4101e4:	2484f3d8 	addiu	a0,a0,-3112
  4101e8:	92020008 	lbu	v0,8(s0)
  4101ec:	8fbc0010 	lw	gp,16(sp)
  4101f0:	10400005 	beqz	v0,410208 <libxt_connmark_init@@Base+0x1d8>
  4101f4:	00000000 	nop
  4101f8:	8f998414 	lw	t9,-31724(gp)
  4101fc:	0320f809 	jalr	t9
  410200:	24040021 	li	a0,33
  410204:	8fbc0010 	lw	gp,16(sp)
  410208:	8e240020 	lw	a0,32(s1)
  41020c:	8e050004 	lw	a1,4(s0)
  410210:	8fbf0024 	lw	ra,36(sp)
  410214:	8fb10020 	lw	s1,32(sp)
  410218:	8fb0001c 	lw	s0,28(sp)
  41021c:	08104026 	j	410098 <libxt_connmark_init@@Base+0x68>
  410220:	27bd0028 	addiu	sp,sp,40
  410224:	27bdffd8 	addiu	sp,sp,-40
  410228:	afbf0024 	sw	ra,36(sp)
  41022c:	afb10020 	sw	s1,32(sp)
  410230:	afb0001c 	sw	s0,28(sp)
  410234:	3c1c0045 	lui	gp,0x45
  410238:	279c6160 	addiu	gp,gp,24928
  41023c:	afbc0010 	sw	gp,16(sp)
  410240:	3c040043 	lui	a0,0x43
[31m  410244:	8f9983f4 	lw	t9,printf[0m
  410248:	24b00020 	addiu	s0,a1,32
  41024c:	00a08821 	move	s1,a1
--
  410628:	8fbc0010 	lw	gp,16(sp)
  41062c:	8f9980c0 	lw	t9,-32576(gp)
  410630:	0320f809 	jalr	t9
  410634:	2484c418 	addiu	a0,a0,-15336
  410638:	3c040045 	lui	a0,0x45
  41063c:	8fbc0010 	lw	gp,16(sp)
  410640:	8f9980c0 	lw	t9,-32576(gp)
  410644:	0320f809 	jalr	t9
  410648:	2484c460 	addiu	a0,a0,-15264
  41064c:	3c040045 	lui	a0,0x45
  410650:	8fbc0010 	lw	gp,16(sp)
  410654:	2484c4a8 	addiu	a0,a0,-15192
  410658:	8fbf001c 	lw	ra,28(sp)
  41065c:	8f9980c0 	lw	t9,-32576(gp)
  410660:	03200008 	jr	t9
  410664:	27bd0020 	addiu	sp,sp,32
  410668:	24a20020 	addiu	v0,a1,32
  41066c:	3c1c0045 	lui	gp,0x45
  410670:	9043000c 	lbu	v1,12(v0)
  410674:	24040001 	li	a0,1
  410678:	1064000d 	beq	v1,a0,4106b0 <libxt_CONNMARK_init@@Base+0xb0>
  41067c:	279c6160 	addiu	gp,gp,24928
  410680:	10600007 	beqz	v1,4106a0 <libxt_CONNMARK_init@@Base+0xa0>
  410684:	3c040043 	lui	a0,0x43
  410688:	24040002 	li	a0,2
[31m  41068c:	8f9983f4 	lw	t9,printf[0m
  410690:	14640012 	bne	v1,a0,4106dc <libxt_CONNMARK_init@@Base+0xdc>
  410694:	3c040043 	lui	a0,0x43
  410698:	1000000c 	b	4106cc <libxt_CONNMARK_init@@Base+0xcc>
  41069c:	00000000 	nop
  4106a0:	8ca50020 	lw	a1,32(a1)
  4106a4:	8c460004 	lw	a2,4(v0)
  4106a8:	10000005 	b	4106c0 <libxt_CONNMARK_init@@Base+0xc0>
  4106ac:	2484f4a4 	addiu	a0,a0,-2908
  4106b0:	3c040043 	lui	a0,0x43
  4106b4:	8c460004 	lw	a2,4(v0)
  4106b8:	2484f4bc 	addiu	a0,a0,-2884
  4106bc:	8c450008 	lw	a1,8(v0)
[31m  4106c0:	8f9983f4 	lw	t9,printf[0m
  4106c4:	03200008 	jr	t9
  4106c8:	00000000 	nop
  4106cc:	8c460004 	lw	a2,4(v0)
  4106d0:	8c450008 	lw	a1,8(v0)
  4106d4:	1000fffb 	b	4106c4 <libxt_CONNMARK_init@@Base+0xc4>
  4106d8:	2484f4e8 	addiu	a0,a0,-2840
  4106dc:	3c040043 	lui	a0,0x43
  4106e0:	2484f514 	addiu	a0,a0,-2796
  4106e4:	03200008 	jr	t9
  4106e8:	00000000 	nop
  4106ec:	24a20020 	addiu	v0,a1,32
  4106f0:	3c1c0045 	lui	gp,0x45
  4106f4:	9043000c 	lbu	v1,12(v0)
  4106f8:	24040001 	li	a0,1
  4106fc:	1064001e 	beq	v1,a0,410778 <libxt_CONNMARK_init@@Base+0x178>
  410700:	279c6160 	addiu	gp,gp,24928
  410704:	10600005 	beqz	v1,41071c <libxt_CONNMARK_init@@Base+0x11c>
  410708:	24040002 	li	a0,2
  41070c:	14640042 	bne	v1,a0,410818 <libxt_CONNMARK_init@@Base+0x218>
  410710:	3c040043 	lui	a0,0x43
  410714:	1000002c 	b	4107c8 <libxt_CONNMARK_init@@Base+0x1c8>
  410718:	2403ffff 	li	v1,-1
  41071c:	8ca50020 	lw	a1,32(a1)
  410720:	8c460004 	lw	a2,4(v0)
  410724:	14a00005 	bnez	a1,41073c <libxt_CONNMARK_init@@Base+0x13c>
  410728:	3c040043 	lui	a0,0x43
  41072c:	00062827 	nor	a1,zero,a2
[31m  410730:	8f9983f4 	lw	t9,printf[0m
  410734:	10000005 	b	41074c <libxt_CONNMARK_init@@Base+0x14c>
  410738:	2484f534 	addiu	a0,a0,-2764
  41073c:	14a60005 	bne	a1,a2,410754 <libxt_CONNMARK_init@@Base+0x154>
  410740:	3c040043 	lui	a0,0x43
[31m  410744:	8f9983f4 	lw	t9,printf[0m
  410748:	2484f548 	addiu	a0,a0,-2744
  41074c:	03200008 	jr	t9
  410750:	00000000 	nop
[31m  410754:	8f9983f4 	lw	t9,printf[0m
  410758:	14c00004 	bnez	a2,41076c <libxt_CONNMARK_init@@Base+0x16c>
  41075c:	00000000 	nop
  410760:	3c040043 	lui	a0,0x43
  410764:	1000fff9 	b	41074c <libxt_CONNMARK_init@@Base+0x14c>
  410768:	2484f55c 	addiu	a0,a0,-2724
  41076c:	3c040043 	lui	a0,0x43
  410770:	10000027 	b	410810 <libxt_CONNMARK_init@@Base+0x210>
  410774:	2484f570 	addiu	a0,a0,-2704
  410778:	8c450008 	lw	a1,8(v0)
  41077c:	2403ffff 	li	v1,-1
  410780:	14a30007 	bne	a1,v1,4107a0 <libxt_CONNMARK_init@@Base+0x1a0>
  410784:	00000000 	nop
  410788:	8c430004 	lw	v1,4(v0)
  41078c:	14650004 	bne	v1,a1,4107a0 <libxt_CONNMARK_init@@Base+0x1a0>
  410790:	3c040043 	lui	a0,0x43
[31m  410794:	8f9983f4 	lw	t9,printf[0m
  410798:	10000021 	b	410820 <libxt_CONNMARK_init@@Base+0x220>
  41079c:	2484f58c 	addiu	a0,a0,-2676
  4107a0:	8c460004 	lw	a2,4(v0)
[31m  4107a4:	8f9983f4 	lw	t9,printf[0m
  4107a8:	14a60004 	bne	a1,a2,4107bc <libxt_CONNMARK_init@@Base+0x1bc>
  4107ac:	00000000 	nop
  4107b0:	3c040043 	lui	a0,0x43
  4107b4:	1000ffe5 	b	41074c <libxt_CONNMARK_init@@Base+0x14c>
  4107b8:	2484f59c 	addiu	a0,a0,-2660
  4107bc:	3c040043 	lui	a0,0x43
  4107c0:	10000013 	b	410810 <libxt_CONNMARK_init@@Base+0x210>
  4107c4:	2484f5b8 	addiu	a0,a0,-2632
  4107c8:	8c450004 	lw	a1,4(v0)
  4107cc:	14a30007 	bne	a1,v1,4107ec <libxt_CONNMARK_init@@Base+0x1ec>
  4107d0:	00000000 	nop
  4107d4:	8c430008 	lw	v1,8(v0)
  4107d8:	14650004 	bne	v1,a1,4107ec <libxt_CONNMARK_init@@Base+0x1ec>
  4107dc:	3c040043 	lui	a0,0x43
[31m  4107e0:	8f9983f4 	lw	t9,printf[0m
  4107e4:	1000000e 	b	410820 <libxt_CONNMARK_init@@Base+0x220>
  4107e8:	2484f5e0 	addiu	a0,a0,-2592
  4107ec:	8c460008 	lw	a2,8(v0)
[31m  4107f0:	8f9983f4 	lw	t9,printf[0m
  4107f4:	14a60004 	bne	a1,a2,410808 <libxt_CONNMARK_init@@Base+0x208>
  4107f8:	00000000 	nop
  4107fc:	3c040043 	lui	a0,0x43
  410800:	1000ffd2 	b	41074c <libxt_CONNMARK_init@@Base+0x14c>
  410804:	2484f5f4 	addiu	a0,a0,-2572
  410808:	3c040043 	lui	a0,0x43
  41080c:	2484f610 	addiu	a0,a0,-2544
  410810:	03200008 	jr	t9
  410814:	00000000 	nop
[31m  410818:	8f9983f4 	lw	t9,printf[0m
  41081c:	2484f514 	addiu	a0,a0,-2796
  410820:	03200008 	jr	t9
--
  410d90:	2484f734 	addiu	a0,a0,-2252
  410d94:	8f998370 	lw	t9,-31888(gp)
  410d98:	03200008 	jr	t9
  410d9c:	00000000 	nop
  410da0:	3c1c0045 	lui	gp,0x45
  410da4:	3c040043 	lui	a0,0x43
  410da8:	279c6160 	addiu	gp,gp,24928
  410dac:	2484f9f8 	addiu	a0,a0,-1544
  410db0:	8f998370 	lw	t9,-31888(gp)
  410db4:	03200008 	jr	t9
  410db8:	00000000 	nop
  410dbc:	27bdffd8 	addiu	sp,sp,-40
  410dc0:	afbf0024 	sw	ra,36(sp)
  410dc4:	afb00020 	sw	s0,32(sp)
  410dc8:	3c1c0045 	lui	gp,0x45
  410dcc:	279c6160 	addiu	gp,gp,24928
  410dd0:	afbc0010 	sw	gp,16(sp)
  410dd4:	24030001 	li	v1,1
  410dd8:	24b00020 	addiu	s0,a1,32
  410ddc:	92020008 	lbu	v0,8(s0)
  410de0:	10430022 	beq	v0,v1,410e6c <libxt_CONNMARK_init@@Base+0x86c>
  410de4:	3c040043 	lui	a0,0x43
  410de8:	10400007 	beqz	v0,410e08 <libxt_CONNMARK_init@@Base+0x808>
  410dec:	3c040043 	lui	a0,0x43
  410df0:	24030002 	li	v1,2
[31m  410df4:	8f9983f4 	lw	t9,printf[0m
  410df8:	1443002d 	bne	v0,v1,410eb0 <libxt_CONNMARK_init@@Base+0x8b0>
  410dfc:	3c040043 	lui	a0,0x43
  410e00:	1000001c 	b	410e74 <libxt_CONNMARK_init@@Base+0x874>
  410e04:	2484fb04 	addiu	a0,a0,-1276
[31m  410e08:	8f9983f4 	lw	t9,printf[0m
  410e0c:	2484fad0 	addiu	a0,a0,-1328
  410e10:	0320f809 	jalr	t9
  410e14:	afa50018 	sw	a1,24(sp)
  410e18:	3c040043 	lui	a0,0x43
  410e1c:	8fbc0010 	lw	gp,16(sp)
  410e20:	8fa50018 	lw	a1,24(sp)
[31m  410e24:	8f9983f4 	lw	t9,printf[0m
  410e28:	8ca50020 	lw	a1,32(a1)
  410e2c:	0320f809 	jalr	t9
  410e30:	2484fadc 	addiu	a0,a0,-1316
  410e34:	2402ffff 	li	v0,-1
  410e38:	8e060004 	lw	a2,4(s0)
  410e3c:	8fbc0010 	lw	gp,16(sp)
  410e40:	10c20007 	beq	a2,v0,410e60 <libxt_CONNMARK_init@@Base+0x860>
  410e44:	3c050043 	lui	a1,0x43
[31m  410e48:	8f9983f4 	lw	t9,printf[0m
  410e4c:	3c040043 	lui	a0,0x43
  410e50:	2484fae4 	addiu	a0,a0,-1308
  410e54:	0320f809 	jalr	t9
  410e58:	24a5dcac 	addiu	a1,a1,-9044
  410e5c:	8fbc0010 	lw	gp,16(sp)
  410e60:	8f998414 	lw	t9,-31724(gp)
  410e64:	10000014 	b	410eb8 <libxt_CONNMARK_init@@Base+0x8b8>
  410e68:	24040020 	li	a0,32
[31m  410e6c:	8f9983f4 	lw	t9,printf[0m
  410e70:	2484faec 	addiu	a0,a0,-1300
  410e74:	0320f809 	jalr	t9
  410e78:	00000000 	nop
  410e7c:	2402ffff 	li	v0,-1
  410e80:	8e060004 	lw	a2,4(s0)
  410e84:	8fbc0010 	lw	gp,16(sp)
  410e88:	10c2000f 	beq	a2,v0,410ec8 <libxt_CONNMARK_init@@Base+0x8c8>
  410e8c:	3c040043 	lui	a0,0x43
[31m  410e90:	8f9983f4 	lw	t9,printf[0m
  410e94:	3c050043 	lui	a1,0x43
  410e98:	2484fae4 	addiu	a0,a0,-1308
--
  410eac:	27bd0028 	addiu	sp,sp,40
  410eb0:	3c040043 	lui	a0,0x43
  410eb4:	2484fb14 	addiu	a0,a0,-1260
  410eb8:	8fbf0024 	lw	ra,36(sp)
  410ebc:	8fb00020 	lw	s0,32(sp)
  410ec0:	03200008 	jr	t9
  410ec4:	27bd0028 	addiu	sp,sp,40
  410ec8:	8fbf0024 	lw	ra,36(sp)
  410ecc:	8fb00020 	lw	s0,32(sp)
  410ed0:	03e00008 	jr	ra
  410ed4:	27bd0028 	addiu	sp,sp,40
  410ed8:	27bdffd8 	addiu	sp,sp,-40
  410edc:	afbf0024 	sw	ra,36(sp)
  410ee0:	afb00020 	sw	s0,32(sp)
  410ee4:	3c1c0045 	lui	gp,0x45
  410ee8:	279c6160 	addiu	gp,gp,24928
  410eec:	afbc0010 	sw	gp,16(sp)
  410ef0:	24030001 	li	v1,1
  410ef4:	24b00020 	addiu	s0,a1,32
  410ef8:	92020008 	lbu	v0,8(s0)
  410efc:	1043001e 	beq	v0,v1,410f78 <libxt_CONNMARK_init@@Base+0x978>
  410f00:	3c040043 	lui	a0,0x43
  410f04:	10400007 	beqz	v0,410f24 <libxt_CONNMARK_init@@Base+0x924>
  410f08:	3c040043 	lui	a0,0x43
  410f0c:	24030002 	li	v1,2
[31m  410f10:	8f9983f4 	lw	t9,printf[0m
  410f14:	14430039 	bne	v0,v1,410ffc <libxt_CONNMARK_init@@Base+0x9fc>
  410f18:	3c040043 	lui	a0,0x43
  410f1c:	10000028 	b	410fc0 <libxt_CONNMARK_init@@Base+0x9c0>
  410f20:	00000000 	nop
[31m  410f24:	8f9983f4 	lw	t9,printf[0m
  410f28:	2484fb34 	addiu	a0,a0,-1228
  410f2c:	0320f809 	jalr	t9
  410f30:	afa50018 	sw	a1,24(sp)
  410f34:	3c040043 	lui	a0,0x43
  410f38:	8fbc0010 	lw	gp,16(sp)
  410f3c:	8fa50018 	lw	a1,24(sp)
[31m  410f40:	8f9983f4 	lw	t9,printf[0m
  410f44:	8ca50020 	lw	a1,32(a1)
  410f48:	0320f809 	jalr	t9
  410f4c:	2484fadc 	addiu	a0,a0,-1316
  410f50:	2402ffff 	li	v0,-1
  410f54:	8e060004 	lw	a2,4(s0)
  410f58:	8fbc0010 	lw	gp,16(sp)
  410f5c:	10c20015 	beq	a2,v0,410fb4 <libxt_CONNMARK_init@@Base+0x9b4>
  410f60:	3c050043 	lui	a1,0x43
  410f64:	3c040043 	lui	a0,0x43
[31m  410f68:	8f9983f4 	lw	t9,printf[0m
  410f6c:	2484fae4 	addiu	a0,a0,-1308
  410f70:	1000000d 	b	410fa8 <libxt_CONNMARK_init@@Base+0x9a8>
  410f74:	24a5dcac 	addiu	a1,a1,-9044
[31m  410f78:	8f9983f4 	lw	t9,printf[0m
  410f7c:	0320f809 	jalr	t9
  410f80:	2484f58c 	addiu	a0,a0,-2676
  410f84:	2402ffff 	li	v0,-1
  410f88:	8e060004 	lw	a2,4(s0)
  410f8c:	8fbc0010 	lw	gp,16(sp)
  410f90:	10c20008 	beq	a2,v0,410fb4 <libxt_CONNMARK_init@@Base+0x9b4>
  410f94:	3c050043 	lui	a1,0x43
  410f98:	3c040043 	lui	a0,0x43
[31m  410f9c:	8f9983f4 	lw	t9,printf[0m
  410fa0:	2484fae4 	addiu	a0,a0,-1308
  410fa4:	24a5fb44 	addiu	a1,a1,-1212
  410fa8:	0320f809 	jalr	t9
  410fac:	00000000 	nop
  410fb0:	8fbc0010 	lw	gp,16(sp)
  410fb4:	8f998414 	lw	t9,-31724(gp)
  410fb8:	10000012 	b	411004 <libxt_CONNMARK_init@@Base+0xa04>
  410fbc:	24040020 	li	a0,32
  410fc0:	0320f809 	jalr	t9
  410fc4:	2484f5e0 	addiu	a0,a0,-2592
  410fc8:	2402ffff 	li	v0,-1
  410fcc:	8e060004 	lw	a2,4(s0)
  410fd0:	8fbc0010 	lw	gp,16(sp)
  410fd4:	10c2000f 	beq	a2,v0,411014 <libxt_CONNMARK_init@@Base+0xa14>
  410fd8:	3c040043 	lui	a0,0x43
[31m  410fdc:	8f9983f4 	lw	t9,printf[0m
  410fe0:	3c050043 	lui	a1,0x43
  410fe4:	2484fae4 	addiu	a0,a0,-1308
--
  41133c:	3c040045 	lui	a0,0x45
  411340:	8f9980c0 	lw	t9,-32576(gp)
  411344:	0320f809 	jalr	t9
  411348:	2484c4f0 	addiu	a0,a0,-15120
  41134c:	3c040045 	lui	a0,0x45
  411350:	8fbc0010 	lw	gp,16(sp)
  411354:	2484c538 	addiu	a0,a0,-15048
  411358:	8fbf001c 	lw	ra,28(sp)
  41135c:	8f9980c0 	lw	t9,-32576(gp)
  411360:	03200008 	jr	t9
  411364:	27bd0020 	addiu	sp,sp,32
  411368:	27bdffe0 	addiu	sp,sp,-32
  41136c:	afbf001c 	sw	ra,28(sp)
  411370:	3c1c0045 	lui	gp,0x45
  411374:	279c6160 	addiu	gp,gp,24928
  411378:	afbc0010 	sw	gp,16(sp)
  41137c:	24020001 	li	v0,1
  411380:	90860000 	lbu	a2,0(a0)
  411384:	10c20005 	beq	a2,v0,41139c <libxt_CONNSECMARK_init@@Base+0x74>
  411388:	24020002 	li	v0,2
  41138c:	14c2000c 	bne	a2,v0,4113c0 <libxt_CONNSECMARK_init@@Base+0x98>
  411390:	3c050043 	lui	a1,0x43
  411394:	10000005 	b	4113ac <libxt_CONNSECMARK_init@@Base+0x84>
  411398:	3c040043 	lui	a0,0x43
  41139c:	3c040043 	lui	a0,0x43
[31m  4113a0:	8f9983f4 	lw	t9,printf[0m
  4113a4:	10000003 	b	4113b4 <libxt_CONNSECMARK_init@@Base+0x8c>
  4113a8:	2484fd68 	addiu	a0,a0,-664
[31m  4113ac:	8f9983f4 	lw	t9,printf[0m
  4113b0:	2484fd70 	addiu	a0,a0,-656
  4113b4:	8fbf001c 	lw	ra,28(sp)
  4113b8:	03200008 	jr	t9
  4113bc:	27bd0020 	addiu	sp,sp,32
  4113c0:	8f828080 	lw	v0,-32640(gp)
  4113c4:	24a5fd7c 	addiu	a1,a1,-644
  4113c8:	8c420000 	lw	v0,0(v0)
  4113cc:	8c590014 	lw	t9,20(v0)
  4113d0:	0320f809 	jalr	t9
  4113d4:	24040001 	li	a0,1
  4113d8:	27bdffd8 	addiu	sp,sp,-40
  4113dc:	afbf0024 	sw	ra,36(sp)
  4113e0:	3c1c0045 	lui	gp,0x45
  4113e4:	279c6160 	addiu	gp,gp,24928
  4113e8:	afbc0010 	sw	gp,16(sp)
  4113ec:	3c040043 	lui	a0,0x43
[31m  4113f0:	8f9983f4 	lw	t9,printf[0m
  4113f4:	2484fda4 	addiu	a0,a0,-604
  4113f8:	0320f809 	jalr	t9
  4113fc:	afa50018 	sw	a1,24(sp)
  411400:	8fa50018 	lw	a1,24(sp)
  411404:	8fbc0010 	lw	gp,16(sp)
  411408:	8fbf0024 	lw	ra,36(sp)
  41140c:	24a40020 	addiu	a0,a1,32
  411410:	081044da 	j	411368 <libxt_CONNSECMARK_init@@Base+0x40>
  411414:	27bd0028 	addiu	sp,sp,40
  411418:	27bdffd8 	addiu	sp,sp,-40
  41141c:	afbf0024 	sw	ra,36(sp)
  411420:	3c1c0045 	lui	gp,0x45
  411424:	279c6160 	addiu	gp,gp,24928
  411428:	afbc0010 	sw	gp,16(sp)
  41142c:	3c040043 	lui	a0,0x43
[31m  411430:	8f9983f4 	lw	t9,printf[0m
  411434:	2484fda8 	addiu	a0,a0,-600
  411438:	0320f809 	jalr	t9
--
  4114dc:	0320f809 	jalr	t9
  4114e0:	2484c580 	addiu	a0,a0,-14976
  4114e4:	3c040045 	lui	a0,0x45
  4114e8:	8fbc0010 	lw	gp,16(sp)
  4114ec:	8f998148 	lw	t9,-32440(gp)
  4114f0:	0320f809 	jalr	t9
  4114f4:	2484c5c4 	addiu	a0,a0,-14908
  4114f8:	3c040045 	lui	a0,0x45
  4114fc:	8fbc0010 	lw	gp,16(sp)
  411500:	2484c608 	addiu	a0,a0,-14840
  411504:	8fbf001c 	lw	ra,28(sp)
  411508:	8f998148 	lw	t9,-32440(gp)
  41150c:	03200008 	jr	t9
  411510:	27bd0020 	addiu	sp,sp,32
  411514:	27bdffe0 	addiu	sp,sp,-32
  411518:	afbf001c 	sw	ra,28(sp)
  41151c:	afb00018 	sw	s0,24(sp)
  411520:	3c1c0045 	lui	gp,0x45
  411524:	279c6160 	addiu	gp,gp,24928
  411528:	afbc0010 	sw	gp,16(sp)
  41152c:	3c020043 	lui	v0,0x43
  411530:	30830001 	andi	v1,a0,0x1
  411534:	24453f34 	addiu	a1,v0,16180
  411538:	10600008 	beqz	v1,41155c <libxt_conntrack_init@@Base+0x9c>
  41153c:	00808021 	move	s0,a0
[31m  411540:	8f9983f4 	lw	t9,printf[0m
  411544:	3c040043 	lui	a0,0x43
  411548:	0320f809 	jalr	t9
  41154c:	2484feac 	addiu	a0,a0,-340
  411550:	3c050043 	lui	a1,0x43
  411554:	8fbc0010 	lw	gp,16(sp)
  411558:	24a5feb8 	addiu	a1,a1,-328
  41155c:	32020008 	andi	v0,s0,0x8
  411560:	10400009 	beqz	v0,411588 <libxt_conntrack_init@@Base+0xc8>
  411564:	32020004 	andi	v0,s0,0x4
[31m  411568:	8f9983f4 	lw	t9,printf[0m
  41156c:	3c040043 	lui	a0,0x43
  411570:	0320f809 	jalr	t9
  411574:	2484febc 	addiu	a0,a0,-324
  411578:	3c050043 	lui	a1,0x43
  41157c:	8fbc0010 	lw	gp,16(sp)
  411580:	24a5feb8 	addiu	a1,a1,-328
  411584:	32020004 	andi	v0,s0,0x4
  411588:	10400009 	beqz	v0,4115b0 <libxt_conntrack_init@@Base+0xf0>
  41158c:	32020002 	andi	v0,s0,0x2
[31m  411590:	8f9983f4 	lw	t9,printf[0m
  411594:	3c040043 	lui	a0,0x43
  411598:	0320f809 	jalr	t9
  41159c:	2484fec4 	addiu	a0,a0,-316
  4115a0:	3c050043 	lui	a1,0x43
  4115a4:	8fbc0010 	lw	gp,16(sp)
  4115a8:	24a5feb8 	addiu	a1,a1,-328
  4115ac:	32020002 	andi	v0,s0,0x2
  4115b0:	10400009 	beqz	v0,4115d8 <libxt_conntrack_init@@Base+0x118>
  4115b4:	32020100 	andi	v0,s0,0x100
[31m  4115b8:	8f9983f4 	lw	t9,printf[0m
  4115bc:	3c040043 	lui	a0,0x43
  4115c0:	0320f809 	jalr	t9
  4115c4:	2484fed0 	addiu	a0,a0,-304
  4115c8:	3c050043 	lui	a1,0x43
  4115cc:	8fbc0010 	lw	gp,16(sp)
  4115d0:	24a5feb8 	addiu	a1,a1,-328
  4115d4:	32020100 	andi	v0,s0,0x100
  4115d8:	10400009 	beqz	v0,411600 <libxt_conntrack_init@@Base+0x140>
  4115dc:	32020040 	andi	v0,s0,0x40
[31m  4115e0:	8f9983f4 	lw	t9,printf[0m
  4115e4:	3c040043 	lui	a0,0x43
  4115e8:	0320f809 	jalr	t9
  4115ec:	2484fee0 	addiu	a0,a0,-288
  4115f0:	3c050043 	lui	a1,0x43
  4115f4:	8fbc0010 	lw	gp,16(sp)
  4115f8:	24a5feb8 	addiu	a1,a1,-328
  4115fc:	32020040 	andi	v0,s0,0x40
  411600:	10400008 	beqz	v0,411624 <libxt_conntrack_init@@Base+0x164>
  411604:	00000000 	nop
[31m  411608:	8f9983f4 	lw	t9,printf[0m
  41160c:	3c040043 	lui	a0,0x43
  411610:	0320f809 	jalr	t9
  411614:	2484feec 	addiu	a0,a0,-276
  411618:	3c050043 	lui	a1,0x43
  41161c:	8fbc0010 	lw	gp,16(sp)
  411620:	24a5feb8 	addiu	a1,a1,-328
  411624:	32100080 	andi	s0,s0,0x80
  411628:	12000005 	beqz	s0,411640 <libxt_conntrack_init@@Base+0x180>
  41162c:	3c040043 	lui	a0,0x43
[31m  411630:	8f9983f4 	lw	t9,printf[0m
  411634:	0320f809 	jalr	t9
  411638:	2484fef4 	addiu	a0,a0,-268
  41163c:	8fbc0010 	lw	gp,16(sp)
  411640:	8f998414 	lw	t9,-31724(gp)
  411644:	24040020 	li	a0,32
  411648:	8fbf001c 	lw	ra,28(sp)
  41164c:	8fb00018 	lw	s0,24(sp)
  411650:	03200008 	jr	t9
  411654:	27bd0020 	addiu	sp,sp,32
  411658:	27bdffe0 	addiu	sp,sp,-32
  41165c:	afbf001c 	sw	ra,28(sp)
  411660:	afb00018 	sw	s0,24(sp)
  411664:	3c1c0045 	lui	gp,0x45
  411668:	279c6160 	addiu	gp,gp,24928
  41166c:	afbc0010 	sw	gp,16(sp)
  411670:	3c020043 	lui	v0,0x43
  411674:	30830001 	andi	v1,a0,0x1
  411678:	24453f34 	addiu	a1,v0,16180
  41167c:	10600008 	beqz	v1,4116a0 <libxt_conntrack_init@@Base+0x1e0>
  411680:	00808021 	move	s0,a0
[31m  411684:	8f9983f4 	lw	t9,printf[0m
  411688:	3c040043 	lui	a0,0x43
  41168c:	0320f809 	jalr	t9
  411690:	2484fefc 	addiu	a0,a0,-260
  411694:	3c050043 	lui	a1,0x43
  411698:	8fbc0010 	lw	gp,16(sp)
  41169c:	24a5feb8 	addiu	a1,a1,-328
  4116a0:	32020002 	andi	v0,s0,0x2
  4116a4:	10400009 	beqz	v0,4116cc <libxt_conntrack_init@@Base+0x20c>
  4116a8:	32020004 	andi	v0,s0,0x4
[31m  4116ac:	8f9983f4 	lw	t9,printf[0m
  4116b0:	3c040043 	lui	a0,0x43
  4116b4:	0320f809 	jalr	t9
  4116b8:	2484ff08 	addiu	a0,a0,-248
  4116bc:	3c050043 	lui	a1,0x43
  4116c0:	8fbc0010 	lw	gp,16(sp)
  4116c4:	24a5feb8 	addiu	a1,a1,-328
  4116c8:	32020004 	andi	v0,s0,0x4
  4116cc:	10400009 	beqz	v0,4116f4 <libxt_conntrack_init@@Base+0x234>
  4116d0:	32020008 	andi	v0,s0,0x8
[31m  4116d4:	8f9983f4 	lw	t9,printf[0m
  4116d8:	3c040043 	lui	a0,0x43
  4116dc:	0320f809 	jalr	t9
  4116e0:	2484ff18 	addiu	a0,a0,-232
  4116e4:	3c050043 	lui	a1,0x43
  4116e8:	8fbc0010 	lw	gp,16(sp)
  4116ec:	24a5feb8 	addiu	a1,a1,-328
  4116f0:	32020008 	andi	v0,s0,0x8
  4116f4:	10400004 	beqz	v0,411708 <libxt_conntrack_init@@Base+0x248>
  4116f8:	3c040043 	lui	a0,0x43
[31m  4116fc:	8f9983f4 	lw	t9,printf[0m
  411700:	10000005 	b	411718 <libxt_conntrack_init@@Base+0x258>
  411704:	2484ff24 	addiu	a0,a0,-220
  411708:	16000006 	bnez	s0,411724 <libxt_conntrack_init@@Base+0x264>
  41170c:	3c040043 	lui	a0,0x43
[31m  411710:	8f9983f4 	lw	t9,printf[0m
  411714:	2484ff30 	addiu	a0,a0,-208
  411718:	0320f809 	jalr	t9
--
  411774:	10000018 	b	4117d8 <libxt_conntrack_init@@Base+0x318>
  411778:	00000000 	nop
  41177c:	8f998318 	lw	t9,-31976(gp)
  411780:	10000020 	b	411804 <libxt_conntrack_init@@Base+0x344>
  411784:	00000000 	nop
  411788:	8f99812c 	lw	t9,-32468(gp)
  41178c:	1000001d 	b	411804 <libxt_conntrack_init@@Base+0x344>
  411790:	00000000 	nop
  411794:	2403000a 	li	v1,10
  411798:	14c30024 	bne	a2,v1,41182c <libxt_conntrack_init@@Base+0x36c>
  41179c:	00000000 	nop
  4117a0:	14e00013 	bnez	a3,4117f0 <libxt_conntrack_init@@Base+0x330>
  4117a4:	00000000 	nop
  4117a8:	8c830000 	lw	v1,0(a0)
  4117ac:	14600013 	bnez	v1,4117fc <libxt_conntrack_init@@Base+0x33c>
  4117b0:	00000000 	nop
  4117b4:	8c830004 	lw	v1,4(a0)
  4117b8:	14600010 	bnez	v1,4117fc <libxt_conntrack_init@@Base+0x33c>
  4117bc:	00000000 	nop
  4117c0:	8c830008 	lw	v1,8(a0)
  4117c4:	1460000d 	bnez	v1,4117fc <libxt_conntrack_init@@Base+0x33c>
  4117c8:	00000000 	nop
  4117cc:	8c83000c 	lw	v1,12(a0)
  4117d0:	1460000a 	bnez	v1,4117fc <libxt_conntrack_init@@Base+0x33c>
  4117d4:	00000000 	nop
[31m  4117d8:	8f9983f4 	lw	t9,printf[0m
  4117dc:	3c040043 	lui	a0,0x43
  4117e0:	8fbf001c 	lw	ra,28(sp)
  4117e4:	2484ff38 	addiu	a0,a0,-200
  4117e8:	03200008 	jr	t9
  4117ec:	27bd0020 	addiu	sp,sp,32
  4117f0:	8f99833c 	lw	t9,-31940(gp)
  4117f4:	10000003 	b	411804 <libxt_conntrack_init@@Base+0x344>
  4117f8:	00000000 	nop
  4117fc:	8f998220 	lw	t9,-32224(gp)
  411800:	00402021 	move	a0,v0
  411804:	0320f809 	jalr	t9
  411808:	00000000 	nop
  41180c:	3c040043 	lui	a0,0x43
  411810:	8fbc0010 	lw	gp,16(sp)
  411814:	2484ca28 	addiu	a0,a0,-13784
  411818:	00402821 	move	a1,v0
  41181c:	8fbf001c 	lw	ra,28(sp)
[31m  411820:	8f9983f4 	lw	t9,printf[0m
  411824:	03200008 	jr	t9
  411828:	27bd0020 	addiu	sp,sp,32
  41182c:	8fbf001c 	lw	ra,28(sp)
  411830:	03e00008 	jr	ra
  411834:	27bd0020 	addiu	sp,sp,32
  411838:	27bdffd0 	addiu	sp,sp,-48
  41183c:	afbf002c 	sw	ra,44(sp)
  411840:	afb30028 	sw	s3,40(sp)
  411844:	afb20024 	sw	s2,36(sp)
  411848:	afb10020 	sw	s1,32(sp)
  41184c:	afb0001c 	sw	s0,28(sp)
  411850:	3c1c0045 	lui	gp,0x45
  411854:	279c6160 	addiu	gp,gp,24928
  411858:	afbc0010 	sw	gp,16(sp)
  41185c:	94820092 	lhu	v0,146(a0)
  411860:	00808021 	move	s0,a0
  411864:	00a08821 	move	s1,a1
  411868:	30420001 	andi	v0,v0,0x1
  41186c:	00c09821 	move	s3,a2
  411870:	10400013 	beqz	v0,4118c0 <libxt_conntrack_init@@Base+0x400>
  411874:	30f200ff 	andi	s2,a3,0xff
  411878:	94820094 	lhu	v0,148(a0)
  41187c:	30420001 	andi	v0,v0,0x1
  411880:	10400006 	beqz	v0,41189c <libxt_conntrack_init@@Base+0x3dc>
  411884:	00000000 	nop
[31m  411888:	8f9983f4 	lw	t9,printf[0m
  41188c:	3c040043 	lui	a0,0x43
  411890:	0320f809 	jalr	t9
  411894:	2484c8c4 	addiu	a0,a0,-14140
  411898:	8fbc0010 	lw	gp,16(sp)
[31m  41189c:	8f9983f4 	lw	t9,printf[0m
  4118a0:	3c040043 	lui	a0,0x43
  4118a4:	02202821 	move	a1,s1
  4118a8:	0320f809 	jalr	t9
  4118ac:	2484ff44 	addiu	a0,a0,-188
  4118b0:	92040096 	lbu	a0,150(s0)
  4118b4:	0c104545 	jal	411514 <libxt_conntrack_init@@Base+0x54>
  4118b8:	00000000 	nop
  4118bc:	8fbc0010 	lw	gp,16(sp)
  4118c0:	96020092 	lhu	v0,146(s0)
  4118c4:	30420002 	andi	v0,v0,0x2
  4118c8:	10400011 	beqz	v0,411910 <libxt_conntrack_init@@Base+0x450>
  4118cc:	00000000 	nop
  4118d0:	96020094 	lhu	v0,148(s0)
  4118d4:	30420002 	andi	v0,v0,0x2
  4118d8:	10400006 	beqz	v0,4118f4 <libxt_conntrack_init@@Base+0x434>
  4118dc:	00000000 	nop
[31m  4118e0:	8f9983f4 	lw	t9,printf[0m
  4118e4:	3c040043 	lui	a0,0x43
  4118e8:	0320f809 	jalr	t9
  4118ec:	2484c8c4 	addiu	a0,a0,-14140
  4118f0:	8fbc0010 	lw	gp,16(sp)
[31m  4118f4:	8f9983f4 	lw	t9,printf[0m
  4118f8:	3c040043 	lui	a0,0x43
  4118fc:	02202821 	move	a1,s1
  411900:	96060088 	lhu	a2,136(s0)
  411904:	0320f809 	jalr	t9
  411908:	2484ff50 	addiu	a0,a0,-176
  41190c:	8fbc0010 	lw	gp,16(sp)
  411910:	96020092 	lhu	v0,146(s0)
  411914:	30420004 	andi	v0,v0,0x4
  411918:	10400015 	beqz	v0,411970 <libxt_conntrack_init@@Base+0x4b0>
  41191c:	00000000 	nop
  411920:	96020094 	lhu	v0,148(s0)
  411924:	30420004 	andi	v0,v0,0x4
  411928:	10400006 	beqz	v0,411944 <libxt_conntrack_init@@Base+0x484>
  41192c:	00000000 	nop
[31m  411930:	8f9983f4 	lw	t9,printf[0m
  411934:	3c040043 	lui	a0,0x43
  411938:	0320f809 	jalr	t9
  41193c:	2484c8c4 	addiu	a0,a0,-14140
  411940:	8fbc0010 	lw	gp,16(sp)
[31m  411944:	8f9983f4 	lw	t9,printf[0m
  411948:	3c040043 	lui	a0,0x43
  41194c:	02202821 	move	a1,s1
  411950:	0320f809 	jalr	t9
  411954:	2484ff60 	addiu	a0,a0,-160
  411958:	02002021 	move	a0,s0
  41195c:	26050010 	addiu	a1,s0,16
  411960:	02603021 	move	a2,s3
  411964:	0c1045cf 	jal	41173c <libxt_conntrack_init@@Base+0x27c>
  411968:	02403821 	move	a3,s2
  41196c:	8fbc0010 	lw	gp,16(sp)
  411970:	96020092 	lhu	v0,146(s0)
  411974:	30420008 	andi	v0,v0,0x8
  411978:	10400015 	beqz	v0,4119d0 <libxt_conntrack_init@@Base+0x510>
  41197c:	00000000 	nop
  411980:	96020094 	lhu	v0,148(s0)
  411984:	30420008 	andi	v0,v0,0x8
  411988:	10400006 	beqz	v0,4119a4 <libxt_conntrack_init@@Base+0x4e4>
  41198c:	00000000 	nop
[31m  411990:	8f9983f4 	lw	t9,printf[0m
  411994:	3c040043 	lui	a0,0x43
  411998:	0320f809 	jalr	t9
  41199c:	2484c8c4 	addiu	a0,a0,-14140
  4119a0:	8fbc0010 	lw	gp,16(sp)
[31m  4119a4:	8f9983f4 	lw	t9,printf[0m
  4119a8:	3c040043 	lui	a0,0x43
  4119ac:	02202821 	move	a1,s1
  4119b0:	0320f809 	jalr	t9
  4119b4:	2484ff70 	addiu	a0,a0,-144
  4119b8:	26040020 	addiu	a0,s0,32
  4119bc:	02603021 	move	a2,s3
  4119c0:	26050030 	addiu	a1,s0,48
  4119c4:	0c1045cf 	jal	41173c <libxt_conntrack_init@@Base+0x27c>
  4119c8:	02403821 	move	a3,s2
  4119cc:	8fbc0010 	lw	gp,16(sp)
  4119d0:	96020092 	lhu	v0,146(s0)
  4119d4:	30420010 	andi	v0,v0,0x10
  4119d8:	10400015 	beqz	v0,411a30 <libxt_conntrack_init@@Base+0x570>
  4119dc:	00000000 	nop
  4119e0:	96020094 	lhu	v0,148(s0)
  4119e4:	30420010 	andi	v0,v0,0x10
  4119e8:	10400006 	beqz	v0,411a04 <libxt_conntrack_init@@Base+0x544>
  4119ec:	00000000 	nop
[31m  4119f0:	8f9983f4 	lw	t9,printf[0m
  4119f4:	3c040043 	lui	a0,0x43
  4119f8:	0320f809 	jalr	t9
  4119fc:	2484c8c4 	addiu	a0,a0,-14140
  411a00:	8fbc0010 	lw	gp,16(sp)
[31m  411a04:	8f9983f4 	lw	t9,printf[0m
  411a08:	3c040043 	lui	a0,0x43
  411a0c:	02202821 	move	a1,s1
  411a10:	0320f809 	jalr	t9
  411a14:	2484ff80 	addiu	a0,a0,-128
  411a18:	26040040 	addiu	a0,s0,64
  411a1c:	02603021 	move	a2,s3
  411a20:	26050050 	addiu	a1,s0,80
  411a24:	0c1045cf 	jal	41173c <libxt_conntrack_init@@Base+0x27c>
  411a28:	02403821 	move	a3,s2
  411a2c:	8fbc0010 	lw	gp,16(sp)
  411a30:	96020092 	lhu	v0,146(s0)
  411a34:	30420020 	andi	v0,v0,0x20
  411a38:	10400015 	beqz	v0,411a90 <libxt_conntrack_init@@Base+0x5d0>
  411a3c:	00000000 	nop
  411a40:	96020094 	lhu	v0,148(s0)
  411a44:	30420020 	andi	v0,v0,0x20
  411a48:	10400006 	beqz	v0,411a64 <libxt_conntrack_init@@Base+0x5a4>
  411a4c:	00000000 	nop
[31m  411a50:	8f9983f4 	lw	t9,printf[0m
  411a54:	3c040043 	lui	a0,0x43
  411a58:	0320f809 	jalr	t9
  411a5c:	2484c8c4 	addiu	a0,a0,-14140
  411a60:	8fbc0010 	lw	gp,16(sp)
[31m  411a64:	8f9983f4 	lw	t9,printf[0m
  411a68:	3c040043 	lui	a0,0x43
  411a6c:	02202821 	move	a1,s1
  411a70:	0320f809 	jalr	t9
  411a74:	2484ff90 	addiu	a0,a0,-112
  411a78:	02603021 	move	a2,s3
  411a7c:	26040060 	addiu	a0,s0,96
  411a80:	02403821 	move	a3,s2
  411a84:	0c1045cf 	jal	41173c <libxt_conntrack_init@@Base+0x27c>
  411a88:	26050070 	addiu	a1,s0,112
  411a8c:	8fbc0010 	lw	gp,16(sp)
  411a90:	96020092 	lhu	v0,146(s0)
  411a94:	30420100 	andi	v0,v0,0x100
  411a98:	10400011 	beqz	v0,411ae0 <libxt_conntrack_init@@Base+0x620>
  411a9c:	00000000 	nop
  411aa0:	96020094 	lhu	v0,148(s0)
  411aa4:	30420100 	andi	v0,v0,0x100
  411aa8:	10400006 	beqz	v0,411ac4 <libxt_conntrack_init@@Base+0x604>
  411aac:	00000000 	nop
[31m  411ab0:	8f9983f4 	lw	t9,printf[0m
  411ab4:	3c040043 	lui	a0,0x43
  411ab8:	0320f809 	jalr	t9
  411abc:	2484c8c4 	addiu	a0,a0,-14140
  411ac0:	8fbc0010 	lw	gp,16(sp)
[31m  411ac4:	8f9983f4 	lw	t9,printf[0m
  411ac8:	3c040043 	lui	a0,0x43
  411acc:	02202821 	move	a1,s1
  411ad0:	9606008a 	lhu	a2,138(s0)
  411ad4:	0320f809 	jalr	t9
  411ad8:	2484ffa0 	addiu	a0,a0,-96
  411adc:	8fbc0010 	lw	gp,16(sp)
  411ae0:	96020092 	lhu	v0,146(s0)
  411ae4:	30420200 	andi	v0,v0,0x200
  411ae8:	10400011 	beqz	v0,411b30 <libxt_conntrack_init@@Base+0x670>
  411aec:	00000000 	nop
  411af0:	96020094 	lhu	v0,148(s0)
  411af4:	30420200 	andi	v0,v0,0x200
  411af8:	10400006 	beqz	v0,411b14 <libxt_conntrack_init@@Base+0x654>
  411afc:	00000000 	nop
[31m  411b00:	8f9983f4 	lw	t9,printf[0m
  411b04:	3c040043 	lui	a0,0x43
  411b08:	0320f809 	jalr	t9
  411b0c:	2484c8c4 	addiu	a0,a0,-14140
  411b10:	8fbc0010 	lw	gp,16(sp)
[31m  411b14:	8f9983f4 	lw	t9,printf[0m
  411b18:	3c040043 	lui	a0,0x43
  411b1c:	02202821 	move	a1,s1
  411b20:	9606008c 	lhu	a2,140(s0)
  411b24:	0320f809 	jalr	t9
  411b28:	2484ffb4 	addiu	a0,a0,-76
  411b2c:	8fbc0010 	lw	gp,16(sp)
  411b30:	96020092 	lhu	v0,146(s0)
  411b34:	30420400 	andi	v0,v0,0x400
  411b38:	10400011 	beqz	v0,411b80 <libxt_conntrack_init@@Base+0x6c0>
  411b3c:	00000000 	nop
  411b40:	96020094 	lhu	v0,148(s0)
  411b44:	30420400 	andi	v0,v0,0x400
  411b48:	10400006 	beqz	v0,411b64 <libxt_conntrack_init@@Base+0x6a4>
  411b4c:	00000000 	nop
[31m  411b50:	8f9983f4 	lw	t9,printf[0m
  411b54:	3c040043 	lui	a0,0x43
  411b58:	0320f809 	jalr	t9
  411b5c:	2484c8c4 	addiu	a0,a0,-14140
  411b60:	8fbc0010 	lw	gp,16(sp)
[31m  411b64:	8f9983f4 	lw	t9,printf[0m
  411b68:	3c040043 	lui	a0,0x43
  411b6c:	02202821 	move	a1,s1
  411b70:	9606008e 	lhu	a2,142(s0)
  411b74:	0320f809 	jalr	t9
  411b78:	2484ffc8 	addiu	a0,a0,-56
  411b7c:	8fbc0010 	lw	gp,16(sp)
  411b80:	96020092 	lhu	v0,146(s0)
  411b84:	30420800 	andi	v0,v0,0x800
  411b88:	10400011 	beqz	v0,411bd0 <libxt_conntrack_init@@Base+0x710>
  411b8c:	00000000 	nop
  411b90:	96020094 	lhu	v0,148(s0)
  411b94:	30420800 	andi	v0,v0,0x800
  411b98:	10400006 	beqz	v0,411bb4 <libxt_conntrack_init@@Base+0x6f4>
  411b9c:	00000000 	nop
[31m  411ba0:	8f9983f4 	lw	t9,printf[0m
  411ba4:	3c040043 	lui	a0,0x43
  411ba8:	0320f809 	jalr	t9
  411bac:	2484c8c4 	addiu	a0,a0,-14140
  411bb0:	8fbc0010 	lw	gp,16(sp)
[31m  411bb4:	8f9983f4 	lw	t9,printf[0m
  411bb8:	3c040043 	lui	a0,0x43
  411bbc:	02202821 	move	a1,s1
  411bc0:	96060090 	lhu	a2,144(s0)
  411bc4:	0320f809 	jalr	t9
  411bc8:	2484ffdc 	addiu	a0,a0,-36
  411bcc:	8fbc0010 	lw	gp,16(sp)
  411bd0:	96020092 	lhu	v0,146(s0)
  411bd4:	30420040 	andi	v0,v0,0x40
  411bd8:	10400013 	beqz	v0,411c28 <libxt_conntrack_init@@Base+0x768>
  411bdc:	00000000 	nop
  411be0:	96020094 	lhu	v0,148(s0)
  411be4:	30420040 	andi	v0,v0,0x40
  411be8:	10400006 	beqz	v0,411c04 <libxt_conntrack_init@@Base+0x744>
  411bec:	00000000 	nop
[31m  411bf0:	8f9983f4 	lw	t9,printf[0m
  411bf4:	3c040043 	lui	a0,0x43
  411bf8:	0320f809 	jalr	t9
  411bfc:	2484c8c4 	addiu	a0,a0,-14140
  411c00:	8fbc0010 	lw	gp,16(sp)
[31m  411c04:	8f9983f4 	lw	t9,printf[0m
  411c08:	3c040043 	lui	a0,0x43
  411c0c:	02202821 	move	a1,s1
  411c10:	0320f809 	jalr	t9
  411c14:	2484fff0 	addiu	a0,a0,-16
  411c18:	92040097 	lbu	a0,151(s0)
  411c1c:	0c104596 	jal	411658 <libxt_conntrack_init@@Base+0x198>
  411c20:	00000000 	nop
  411c24:	8fbc0010 	lw	gp,16(sp)
  411c28:	96020092 	lhu	v0,146(s0)
  411c2c:	30420080 	andi	v0,v0,0x80
  411c30:	1040001f 	beqz	v0,411cb0 <libxt_conntrack_init@@Base+0x7f0>
  411c34:	00000000 	nop
  411c38:	96020094 	lhu	v0,148(s0)
  411c3c:	30420080 	andi	v0,v0,0x80
  411c40:	10400006 	beqz	v0,411c5c <libxt_conntrack_init@@Base+0x79c>
  411c44:	00000000 	nop
[31m  411c48:	8f9983f4 	lw	t9,printf[0m
  411c4c:	3c040043 	lui	a0,0x43
  411c50:	0320f809 	jalr	t9
  411c54:	2484c8c4 	addiu	a0,a0,-14140
  411c58:	8fbc0010 	lw	gp,16(sp)
[31m  411c5c:	8f9983f4 	lw	t9,printf[0m
  411c60:	3c040043 	lui	a0,0x43
  411c64:	02202821 	move	a1,s1
  411c68:	0320f809 	jalr	t9
  411c6c:	2484fffc 	addiu	a0,a0,-4
  411c70:	8fbc0010 	lw	gp,16(sp)
  411c74:	8e060084 	lw	a2,132(s0)
  411c78:	8e050080 	lw	a1,128(s0)
[31m  411c7c:	8f9983f4 	lw	t9,printf[0m
  411c80:	14c50007 	bne	a2,a1,411ca0 <libxt_conntrack_init@@Base+0x7e0>
  411c84:	00000000 	nop
  411c88:	3c040043 	lui	a0,0x43
  411c8c:	00c02821 	move	a1,a2
  411c90:	0320f809 	jalr	t9
  411c94:	2484391c 	addiu	a0,a0,14620
  411c98:	10000004 	b	411cac <libxt_conntrack_init@@Base+0x7ec>
  411c9c:	00000000 	nop
  411ca0:	3c040043 	lui	a0,0x43
  411ca4:	0320f809 	jalr	t9
  411ca8:	24840704 	addiu	a0,a0,1796
  411cac:	8fbc0010 	lw	gp,16(sp)
  411cb0:	96020092 	lhu	v0,146(s0)
  411cb4:	30421000 	andi	v0,v0,0x1000
  411cb8:	10400013 	beqz	v0,411d08 <libxt_conntrack_init@@Base+0x848>
  411cbc:	00000000 	nop
  411cc0:	96020094 	lhu	v0,148(s0)
[31m  411cc4:	8f9983f4 	lw	t9,printf[0m
  411cc8:	30421000 	andi	v0,v0,0x1000
  411ccc:	10400004 	beqz	v0,411ce0 <libxt_conntrack_init@@Base+0x820>
--
  413518:	8fb20028 	lw	s2,40(sp)
  41351c:	8fb10024 	lw	s1,36(sp)
  413520:	8fb00020 	lw	s0,32(sp)
  413524:	03e00008 	jr	ra
  413528:	27bd0038 	addiu	sp,sp,56
  41352c:	3c1c0045 	lui	gp,0x45
  413530:	3c040043 	lui	a0,0x43
  413534:	279c6160 	addiu	gp,gp,24928
  413538:	24840264 	addiu	a0,a0,612
  41353c:	8f998370 	lw	t9,-31888(gp)
  413540:	03200008 	jr	t9
  413544:	00000000 	nop
  413548:	27bdefe0 	addiu	sp,sp,-4128
  41354c:	afbf101c 	sw	ra,4124(sp)
  413550:	afb01018 	sw	s0,4120(sp)
  413554:	3c1c0045 	lui	gp,0x45
  413558:	279c6160 	addiu	gp,gp,24928
  41355c:	afbc0010 	sw	gp,16(sp)
  413560:	8ca20000 	lw	v0,0(a1)
  413564:	00a08021 	move	s0,a1
  413568:	14400008 	bnez	v0,41358c <libxt_conntrack_init@@Base+0x20cc>
  41356c:	00801821 	move	v1,a0
  413570:	14c00008 	bnez	a2,413594 <libxt_conntrack_init@@Base+0x20d4>
  413574:	3c050043 	lui	a1,0x43
  413578:	3c040043 	lui	a0,0x43
[31m  41357c:	8f9983f4 	lw	t9,printf[0m
  413580:	2484ca28 	addiu	a0,a0,-13784
  413584:	1000001d 	b	4135fc <libxt_conntrack_init@@Base+0x213c>
--
  413594:	8f998318 	lw	t9,-31976(gp)
  413598:	10000002 	b	4135a4 <libxt_conntrack_init@@Base+0x20e4>
  41359c:	00602021 	move	a0,v1
  4135a0:	8f99812c 	lw	t9,-32468(gp)
  4135a4:	0320f809 	jalr	t9
  4135a8:	00000000 	nop
  4135ac:	27a40018 	addiu	a0,sp,24
  4135b0:	8fbc0010 	lw	gp,16(sp)
  4135b4:	8f99840c 	lw	t9,-31732(gp)
  4135b8:	0320f809 	jalr	t9
  4135bc:	00402821 	move	a1,v0
  4135c0:	02002021 	move	a0,s0
  4135c4:	8fbc0010 	lw	gp,16(sp)
  4135c8:	8f998160 	lw	t9,-32416(gp)
  4135cc:	0320f809 	jalr	t9
  4135d0:	27b00018 	addiu	s0,sp,24
  4135d4:	02002021 	move	a0,s0
  4135d8:	8fbc0010 	lw	gp,16(sp)
  4135dc:	8f998290 	lw	t9,-32112(gp)
  4135e0:	0320f809 	jalr	t9
  4135e4:	00402821 	move	a1,v0
  4135e8:	3c040043 	lui	a0,0x43
  4135ec:	02002821 	move	a1,s0
  4135f0:	8fbc0010 	lw	gp,16(sp)
  4135f4:	2484ca28 	addiu	a0,a0,-13784
[31m  4135f8:	8f9983f4 	lw	t9,printf[0m
  4135fc:	0320f809 	jalr	t9
  413600:	00000000 	nop
  413604:	8fbf101c 	lw	ra,4124(sp)
  413608:	8fb01018 	lw	s0,4120(sp)
  41360c:	03e00008 	jr	ra
  413610:	27bd1020 	addiu	sp,sp,4128
  413614:	27bdffd0 	addiu	sp,sp,-48
  413618:	afbf002c 	sw	ra,44(sp)
  41361c:	afb30028 	sw	s3,40(sp)
  413620:	afb20024 	sw	s2,36(sp)
  413624:	afb10020 	sw	s1,32(sp)
  413628:	afb0001c 	sw	s0,28(sp)
  41362c:	3c1c0045 	lui	gp,0x45
  413630:	279c6160 	addiu	gp,gp,24928
  413634:	afbc0010 	sw	gp,16(sp)
  413638:	24b00020 	addiu	s0,a1,32
  41363c:	00a09021 	move	s2,a1
  413640:	92020040 	lbu	v0,64(s0)
  413644:	00c08821 	move	s1,a2
  413648:	30420001 	andi	v0,v0,0x1
  41364c:	10400013 	beqz	v0,41369c <libxt_conntrack_init@@Base+0x21dc>
  413650:	00e09821 	move	s3,a3
  413654:	92020041 	lbu	v0,65(s0)
  413658:	30420001 	andi	v0,v0,0x1
  41365c:	10400006 	beqz	v0,413678 <libxt_conntrack_init@@Base+0x21b8>
  413660:	00000000 	nop
[31m  413664:	8f9983f4 	lw	t9,printf[0m
  413668:	3c040043 	lui	a0,0x43
  41366c:	0320f809 	jalr	t9
  413670:	2484c8c4 	addiu	a0,a0,-14140
  413674:	8fbc0010 	lw	gp,16(sp)
[31m  413678:	8f9983f4 	lw	t9,printf[0m
  41367c:	3c040043 	lui	a0,0x43
  413680:	02602821 	move	a1,s3
  413684:	0320f809 	jalr	t9
  413688:	2484ff44 	addiu	a0,a0,-188
  41368c:	8e440020 	lw	a0,32(s2)
  413690:	0c104545 	jal	411514 <libxt_conntrack_init@@Base+0x54>
  413694:	00000000 	nop
  413698:	8fbc0010 	lw	gp,16(sp)
  41369c:	92020040 	lbu	v0,64(s0)
  4136a0:	30420002 	andi	v0,v0,0x2
  4136a4:	10400016 	beqz	v0,413700 <libxt_conntrack_init@@Base+0x2240>
  4136a8:	00000000 	nop
  4136ac:	92020041 	lbu	v0,65(s0)
  4136b0:	30420002 	andi	v0,v0,0x2
  4136b4:	10400006 	beqz	v0,4136d0 <libxt_conntrack_init@@Base+0x2210>
  4136b8:	00000000 	nop
[31m  4136bc:	8f9983f4 	lw	t9,printf[0m
  4136c0:	3c040043 	lui	a0,0x43
  4136c4:	0320f809 	jalr	t9
  4136c8:	2484c8c4 	addiu	a0,a0,-14140
  4136cc:	8fbc0010 	lw	gp,16(sp)
[31m  4136d0:	8f9983f4 	lw	t9,printf[0m
  4136d4:	3c040043 	lui	a0,0x43
  4136d8:	02602821 	move	a1,s3
  4136dc:	0320f809 	jalr	t9
  4136e0:	24840600 	addiu	a0,a0,1536
  4136e4:	3c040043 	lui	a0,0x43
  4136e8:	8fbc0010 	lw	gp,16(sp)
  4136ec:	96050016 	lhu	a1,22(s0)
[31m  4136f0:	8f9983f4 	lw	t9,printf[0m
  4136f4:	0320f809 	jalr	t9
  4136f8:	2484391c 	addiu	a0,a0,14620
  4136fc:	8fbc0010 	lw	gp,16(sp)
  413700:	92020040 	lbu	v0,64(s0)
  413704:	30420004 	andi	v0,v0,0x4
  413708:	10400014 	beqz	v0,41375c <libxt_conntrack_init@@Base+0x229c>
  41370c:	00000000 	nop
  413710:	92020041 	lbu	v0,65(s0)
  413714:	30420004 	andi	v0,v0,0x4
  413718:	10400006 	beqz	v0,413734 <libxt_conntrack_init@@Base+0x2274>
  41371c:	00000000 	nop
[31m  413720:	8f9983f4 	lw	t9,printf[0m
  413724:	3c040043 	lui	a0,0x43
  413728:	0320f809 	jalr	t9
  41372c:	2484c8c4 	addiu	a0,a0,-14140
  413730:	8fbc0010 	lw	gp,16(sp)
[31m  413734:	8f9983f4 	lw	t9,printf[0m
  413738:	3c040043 	lui	a0,0x43
  41373c:	02602821 	move	a1,s3
  413740:	0320f809 	jalr	t9
  413744:	2484ff60 	addiu	a0,a0,-160
  413748:	26040008 	addiu	a0,s0,8
  41374c:	02203021 	move	a2,s1
  413750:	0c104d52 	jal	413548 <libxt_conntrack_init@@Base+0x2088>
  413754:	26050028 	addiu	a1,s0,40
  413758:	8fbc0010 	lw	gp,16(sp)
  41375c:	92020040 	lbu	v0,64(s0)
  413760:	30420008 	andi	v0,v0,0x8
  413764:	10400014 	beqz	v0,4137b8 <libxt_conntrack_init@@Base+0x22f8>
  413768:	00000000 	nop
  41376c:	92020041 	lbu	v0,65(s0)
  413770:	30420008 	andi	v0,v0,0x8
  413774:	10400006 	beqz	v0,413790 <libxt_conntrack_init@@Base+0x22d0>
  413778:	00000000 	nop
[31m  41377c:	8f9983f4 	lw	t9,printf[0m
  413780:	3c040043 	lui	a0,0x43
  413784:	0320f809 	jalr	t9
  413788:	2484c8c4 	addiu	a0,a0,-14140
  41378c:	8fbc0010 	lw	gp,16(sp)
[31m  413790:	8f9983f4 	lw	t9,printf[0m
  413794:	3c040043 	lui	a0,0x43
  413798:	02602821 	move	a1,s3
  41379c:	0320f809 	jalr	t9
  4137a0:	2484ff70 	addiu	a0,a0,-144
  4137a4:	26040010 	addiu	a0,s0,16
  4137a8:	02203021 	move	a2,s1
  4137ac:	0c104d52 	jal	413548 <libxt_conntrack_init@@Base+0x2088>
  4137b0:	26050030 	addiu	a1,s0,48
  4137b4:	8fbc0010 	lw	gp,16(sp)
  4137b8:	92020040 	lbu	v0,64(s0)
  4137bc:	30420010 	andi	v0,v0,0x10
  4137c0:	10400014 	beqz	v0,413814 <libxt_conntrack_init@@Base+0x2354>
  4137c4:	00000000 	nop
  4137c8:	92020041 	lbu	v0,65(s0)
  4137cc:	30420010 	andi	v0,v0,0x10
  4137d0:	10400006 	beqz	v0,4137ec <libxt_conntrack_init@@Base+0x232c>
  4137d4:	00000000 	nop
[31m  4137d8:	8f9983f4 	lw	t9,printf[0m
  4137dc:	3c040043 	lui	a0,0x43
  4137e0:	0320f809 	jalr	t9
  4137e4:	2484c8c4 	addiu	a0,a0,-14140
  4137e8:	8fbc0010 	lw	gp,16(sp)
[31m  4137ec:	8f9983f4 	lw	t9,printf[0m
  4137f0:	3c040043 	lui	a0,0x43
  4137f4:	02602821 	move	a1,s3
  4137f8:	0320f809 	jalr	t9
  4137fc:	2484ff80 	addiu	a0,a0,-128
  413800:	26040018 	addiu	a0,s0,24
  413804:	02203021 	move	a2,s1
  413808:	0c104d52 	jal	413548 <libxt_conntrack_init@@Base+0x2088>
  41380c:	2605002c 	addiu	a1,s0,44
  413810:	8fbc0010 	lw	gp,16(sp)
  413814:	92020040 	lbu	v0,64(s0)
  413818:	30420020 	andi	v0,v0,0x20
  41381c:	10400014 	beqz	v0,413870 <libxt_conntrack_init@@Base+0x23b0>
  413820:	00000000 	nop
  413824:	92020041 	lbu	v0,65(s0)
  413828:	30420020 	andi	v0,v0,0x20
  41382c:	10400006 	beqz	v0,413848 <libxt_conntrack_init@@Base+0x2388>
  413830:	00000000 	nop
[31m  413834:	8f9983f4 	lw	t9,printf[0m
  413838:	3c040043 	lui	a0,0x43
  41383c:	0320f809 	jalr	t9
  413840:	2484c8c4 	addiu	a0,a0,-14140
  413844:	8fbc0010 	lw	gp,16(sp)
[31m  413848:	8f9983f4 	lw	t9,printf[0m
  41384c:	3c040043 	lui	a0,0x43
  413850:	02602821 	move	a1,s3
  413854:	0320f809 	jalr	t9
  413858:	2484ff90 	addiu	a0,a0,-112
  41385c:	02203021 	move	a2,s1
  413860:	26040020 	addiu	a0,s0,32
  413864:	0c104d52 	jal	413548 <libxt_conntrack_init@@Base+0x2088>
  413868:	26050034 	addiu	a1,s0,52
  41386c:	8fbc0010 	lw	gp,16(sp)
  413870:	92020040 	lbu	v0,64(s0)
  413874:	30420040 	andi	v0,v0,0x40
  413878:	10400013 	beqz	v0,4138c8 <libxt_conntrack_init@@Base+0x2408>
  41387c:	00000000 	nop
  413880:	92020041 	lbu	v0,65(s0)
  413884:	30420040 	andi	v0,v0,0x40
  413888:	10400006 	beqz	v0,4138a4 <libxt_conntrack_init@@Base+0x23e4>
  41388c:	00000000 	nop
[31m  413890:	8f9983f4 	lw	t9,printf[0m
  413894:	3c040043 	lui	a0,0x43
  413898:	0320f809 	jalr	t9
  41389c:	2484c8c4 	addiu	a0,a0,-14140
  4138a0:	8fbc0010 	lw	gp,16(sp)
[31m  4138a4:	8f9983f4 	lw	t9,printf[0m
  4138a8:	3c040043 	lui	a0,0x43
  4138ac:	02602821 	move	a1,s3
  4138b0:	0320f809 	jalr	t9
  4138b4:	2484fff0 	addiu	a0,a0,-16
  4138b8:	8e040004 	lw	a0,4(s0)
  4138bc:	0c104596 	jal	411658 <libxt_conntrack_init@@Base+0x198>
  4138c0:	00000000 	nop
  4138c4:	8fbc0010 	lw	gp,16(sp)
  4138c8:	82020040 	lb	v0,64(s0)
  4138cc:	0441001d 	bgez	v0,413944 <libxt_conntrack_init@@Base+0x2484>
  4138d0:	00000000 	nop
  4138d4:	82020041 	lb	v0,65(s0)
  4138d8:	04410006 	bgez	v0,4138f4 <libxt_conntrack_init@@Base+0x2434>
  4138dc:	00000000 	nop
[31m  4138e0:	8f9983f4 	lw	t9,printf[0m
  4138e4:	3c040043 	lui	a0,0x43
  4138e8:	0320f809 	jalr	t9
  4138ec:	2484c8c4 	addiu	a0,a0,-14140
  4138f0:	8fbc0010 	lw	gp,16(sp)
[31m  4138f4:	8f9983f4 	lw	t9,printf[0m
  4138f8:	3c040043 	lui	a0,0x43
  4138fc:	02602821 	move	a1,s3
  413900:	0320f809 	jalr	t9
  413904:	2484fffc 	addiu	a0,a0,-4
  413908:	8fbc0010 	lw	gp,16(sp)
  41390c:	8e050038 	lw	a1,56(s0)
  413910:	8e06003c 	lw	a2,60(s0)
[31m  413914:	8f9983f4 	lw	t9,printf[0m
  413918:	14c50007 	bne	a2,a1,413938 <libxt_conntrack_init@@Base+0x2478>
  41391c:	00000000 	nop
--
  4139a8:	8f998148 	lw	t9,-32440(gp)
  4139ac:	0320f809 	jalr	t9
  4139b0:	2484c650 	addiu	a0,a0,-14768
  4139b4:	3c040045 	lui	a0,0x45
  4139b8:	8fbc0010 	lw	gp,16(sp)
  4139bc:	2484c694 	addiu	a0,a0,-14700
  4139c0:	8fbf001c 	lw	ra,28(sp)
  4139c4:	8f998148 	lw	t9,-32440(gp)
  4139c8:	03200008 	jr	t9
  4139cc:	27bd0020 	addiu	sp,sp,32
  4139d0:	27bdffc8 	addiu	sp,sp,-56
  4139d4:	afbf0034 	sw	ra,52(sp)
  4139d8:	afb60030 	sw	s6,48(sp)
  4139dc:	afb5002c 	sw	s5,44(sp)
  4139e0:	afb40028 	sw	s4,40(sp)
  4139e4:	afb30024 	sw	s3,36(sp)
  4139e8:	afb20020 	sw	s2,32(sp)
  4139ec:	afb1001c 	sw	s1,28(sp)
  4139f0:	afb00018 	sw	s0,24(sp)
  4139f4:	3c1c0045 	lui	gp,0x45
  4139f8:	279c6160 	addiu	gp,gp,24928
  4139fc:	afbc0010 	sw	gp,16(sp)
  413a00:	00c0b021 	move	s6,a2
  413a04:	10a00006 	beqz	a1,413a20 <libxt_dccp_init@@Base+0x90>
  413a08:	3091ffff 	andi	s1,a0,0xffff
[31m  413a0c:	8f9983f4 	lw	t9,printf[0m
  413a10:	3c040043 	lui	a0,0x43
  413a14:	0320f809 	jalr	t9
  413a18:	2484c8c4 	addiu	a0,a0,-14140
  413a1c:	8fbc0010 	lw	gp,16(sp)
  413a20:	3c150045 	lui	s5,0x45
  413a24:	3c140044 	lui	s4,0x44
  413a28:	3c130043 	lui	s3,0x43
  413a2c:	26b5a55c 	addiu	s5,s5,-23204
  413a30:	26948b80 	addiu	s4,s4,-29824
  413a34:	26732d78 	addiu	s3,s3,11640
  413a38:	00001021 	move	v0,zero
  413a3c:	1000001a 	b	413aa8 <libxt_dccp_init@@Base+0x118>
  413a40:	24120001 	li	s2,1
  413a44:	02111807 	srav	v1,s1,s0
  413a48:	30630001 	andi	v1,v1,0x1
  413a4c:	1060fffd 	beqz	v1,413a44 <libxt_dccp_init@@Base+0xb4>
  413a50:	26100001 	addiu	s0,s0,1
  413a54:	10400005 	beqz	v0,413a6c <libxt_dccp_init@@Base+0xdc>
  413a58:	2610ffff 	addiu	s0,s0,-1
  413a5c:	8f998414 	lw	t9,-31724(gp)
  413a60:	0320f809 	jalr	t9
  413a64:	2404002c 	li	a0,44
  413a68:	8fbc0010 	lw	gp,16(sp)
[31m  413a6c:	8f9983f4 	lw	t9,printf[0m
  413a70:	12c00004 	beqz	s6,413a84 <libxt_dccp_init@@Base+0xf4>
  413a74:	00101080 	sll	v0,s0,0x2
--
  413ab4:	8fb60030 	lw	s6,48(sp)
  413ab8:	8fb5002c 	lw	s5,44(sp)
  413abc:	8fb40028 	lw	s4,40(sp)
  413ac0:	8fb30024 	lw	s3,36(sp)
  413ac4:	8fb20020 	lw	s2,32(sp)
  413ac8:	8fb1001c 	lw	s1,28(sp)
  413acc:	8fb00018 	lw	s0,24(sp)
  413ad0:	03e00008 	jr	ra
  413ad4:	27bd0038 	addiu	sp,sp,56
  413ad8:	27bdffd8 	addiu	sp,sp,-40
  413adc:	afbf0024 	sw	ra,36(sp)
  413ae0:	afb10020 	sw	s1,32(sp)
  413ae4:	afb0001c 	sw	s0,28(sp)
  413ae8:	3c1c0045 	lui	gp,0x45
  413aec:	279c6160 	addiu	gp,gp,24928
  413af0:	afbc0010 	sw	gp,16(sp)
  413af4:	24b00020 	addiu	s0,a1,32
  413af8:	96020008 	lhu	v0,8(s0)
  413afc:	30420001 	andi	v0,v0,0x1
  413b00:	10400018 	beqz	v0,413b64 <libxt_dccp_init@@Base+0x1d4>
  413b04:	00a08821 	move	s1,a1
  413b08:	9602000a 	lhu	v0,10(s0)
  413b0c:	30420001 	andi	v0,v0,0x1
  413b10:	10400006 	beqz	v0,413b2c <libxt_dccp_init@@Base+0x19c>
  413b14:	00000000 	nop
[31m  413b18:	8f9983f4 	lw	t9,printf[0m
  413b1c:	3c040043 	lui	a0,0x43
  413b20:	0320f809 	jalr	t9
  413b24:	2484c8c4 	addiu	a0,a0,-14140
  413b28:	8fbc0010 	lw	gp,16(sp)
  413b2c:	96050004 	lhu	a1,4(s0)
  413b30:	96060006 	lhu	a2,6(s0)
[31m  413b34:	8f9983f4 	lw	t9,printf[0m
  413b38:	10a60006 	beq	a1,a2,413b54 <libxt_dccp_init@@Base+0x1c4>
  413b3c:	00000000 	nop
  413b40:	3c040043 	lui	a0,0x43
  413b44:	0320f809 	jalr	t9
  413b48:	248406e0 	addiu	a0,a0,1760
  413b4c:	10000004 	b	413b60 <libxt_dccp_init@@Base+0x1d0>
  413b50:	00000000 	nop
  413b54:	3c040043 	lui	a0,0x43
  413b58:	0320f809 	jalr	t9
  413b5c:	248406f0 	addiu	a0,a0,1776
  413b60:	8fbc0010 	lw	gp,16(sp)
  413b64:	96020008 	lhu	v0,8(s0)
  413b68:	30420002 	andi	v0,v0,0x2
  413b6c:	10400018 	beqz	v0,413bd0 <libxt_dccp_init@@Base+0x240>
  413b70:	00000000 	nop
  413b74:	9602000a 	lhu	v0,10(s0)
  413b78:	30420002 	andi	v0,v0,0x2
  413b7c:	10400006 	beqz	v0,413b98 <libxt_dccp_init@@Base+0x208>
  413b80:	00000000 	nop
[31m  413b84:	8f9983f4 	lw	t9,printf[0m
  413b88:	3c040043 	lui	a0,0x43
  413b8c:	0320f809 	jalr	t9
  413b90:	2484c8c4 	addiu	a0,a0,-14140
  413b94:	8fbc0010 	lw	gp,16(sp)
  413b98:	96250020 	lhu	a1,32(s1)
  413b9c:	96060002 	lhu	a2,2(s0)
[31m  413ba0:	8f9983f4 	lw	t9,printf[0m
  413ba4:	10a60006 	beq	a1,a2,413bc0 <libxt_dccp_init@@Base+0x230>
  413ba8:	00000000 	nop
  413bac:	3c040043 	lui	a0,0x43
  413bb0:	0320f809 	jalr	t9
  413bb4:	248406fc 	addiu	a0,a0,1788
  413bb8:	10000004 	b	413bcc <libxt_dccp_init@@Base+0x23c>
  413bbc:	00000000 	nop
  413bc0:	3c040043 	lui	a0,0x43
  413bc4:	0320f809 	jalr	t9
  413bc8:	2484070c 	addiu	a0,a0,1804
  413bcc:	8fbc0010 	lw	gp,16(sp)
  413bd0:	96020008 	lhu	v0,8(s0)
  413bd4:	30420004 	andi	v0,v0,0x4
  413bd8:	1040000a 	beqz	v0,413c04 <libxt_dccp_init@@Base+0x274>
  413bdc:	3c040043 	lui	a0,0x43
[31m  413be0:	8f9983f4 	lw	t9,printf[0m
  413be4:	0320f809 	jalr	t9
  413be8:	24840718 	addiu	a0,a0,1816
  413bec:	00003021 	move	a2,zero
  413bf0:	9605000a 	lhu	a1,10(s0)
  413bf4:	9604000c 	lhu	a0,12(s0)
  413bf8:	0c104e74 	jal	4139d0 <libxt_dccp_init@@Base+0x40>
  413bfc:	30a50004 	andi	a1,a1,0x4
  413c00:	8fbc0010 	lw	gp,16(sp)
  413c04:	96020008 	lhu	v0,8(s0)
  413c08:	30420008 	andi	v0,v0,0x8
  413c0c:	10400012 	beqz	v0,413c58 <libxt_dccp_init@@Base+0x2c8>
  413c10:	00000000 	nop
  413c14:	9602000c 	lhu	v0,12(s0)
  413c18:	30420008 	andi	v0,v0,0x8
  413c1c:	14400003 	bnez	v0,413c2c <libxt_dccp_init@@Base+0x29c>
  413c20:	3c050043 	lui	a1,0x43
  413c24:	10000003 	b	413c34 <libxt_dccp_init@@Base+0x2a4>
  413c28:	24a53f34 	addiu	a1,a1,16180
  413c2c:	3c050043 	lui	a1,0x43
  413c30:	24a5c8c4 	addiu	a1,a1,-14140
  413c34:	9206000e 	lbu	a2,14(s0)
  413c38:	3c040043 	lui	a0,0x43
[31m  413c3c:	8f9983f4 	lw	t9,printf[0m
  413c40:	24840728 	addiu	a0,a0,1832
  413c44:	8fbf0024 	lw	ra,36(sp)
--
  413c5c:	8fb10020 	lw	s1,32(sp)
  413c60:	8fb0001c 	lw	s0,28(sp)
  413c64:	03e00008 	jr	ra
  413c68:	27bd0028 	addiu	sp,sp,40
  413c6c:	27bdffe0 	addiu	sp,sp,-32
  413c70:	afbf001c 	sw	ra,28(sp)
  413c74:	afb00018 	sw	s0,24(sp)
  413c78:	3c1c0045 	lui	gp,0x45
  413c7c:	279c6160 	addiu	gp,gp,24928
  413c80:	afbc0010 	sw	gp,16(sp)
  413c84:	14a0000c 	bnez	a1,413cb8 <libxt_dccp_init@@Base+0x328>
  413c88:	3090ffff 	andi	s0,a0,0xffff
  413c8c:	8f998198 	lw	t9,-32360(gp)
  413c90:	3c050043 	lui	a1,0x43
  413c94:	02002021 	move	a0,s0
  413c98:	0320f809 	jalr	t9
  413c9c:	24a5073c 	addiu	a1,a1,1852
  413ca0:	8fbc0010 	lw	gp,16(sp)
  413ca4:	10400005 	beqz	v0,413cbc <libxt_dccp_init@@Base+0x32c>
  413ca8:	3c040043 	lui	a0,0x43
  413cac:	8c450000 	lw	a1,0(v0)
  413cb0:	14a00006 	bnez	a1,413ccc <libxt_dccp_init@@Base+0x33c>
  413cb4:	00000000 	nop
  413cb8:	3c040043 	lui	a0,0x43
  413cbc:	02002821 	move	a1,s0
[31m  413cc0:	8f9983f4 	lw	t9,printf[0m
  413cc4:	10000004 	b	413cd8 <libxt_dccp_init@@Base+0x348>
  413cc8:	24842d78 	addiu	a0,a0,11640
  413ccc:	3c040044 	lui	a0,0x44
[31m  413cd0:	8f9983f4 	lw	t9,printf[0m
  413cd4:	24848b80 	addiu	a0,a0,-29824
  413cd8:	8fbf001c 	lw	ra,28(sp)
--
  413ce4:	27bd0020 	addiu	sp,sp,32
  413ce8:	27bdffd0 	addiu	sp,sp,-48
  413cec:	afbf002c 	sw	ra,44(sp)
  413cf0:	afb30028 	sw	s3,40(sp)
  413cf4:	afb20024 	sw	s2,36(sp)
  413cf8:	afb10020 	sw	s1,32(sp)
  413cfc:	afb0001c 	sw	s0,28(sp)
  413d00:	3c1c0045 	lui	gp,0x45
  413d04:	279c6160 	addiu	gp,gp,24928
  413d08:	afbc0010 	sw	gp,16(sp)
  413d0c:	8fb10040 	lw	s1,64(sp)
  413d10:	30b0ffff 	andi	s0,a1,0xffff
  413d14:	14e00004 	bnez	a3,413d28 <libxt_dccp_init@@Base+0x398>
  413d18:	30d2ffff 	andi	s2,a2,0xffff
  413d1c:	3c130043 	lui	s3,0x43
  413d20:	10000003 	b	413d30 <libxt_dccp_init@@Base+0x3a0>
  413d24:	26733f34 	addiu	s3,s3,16180
  413d28:	3c130043 	lui	s3,0x43
  413d2c:	26731db0 	addiu	s3,s3,7600
  413d30:	16000005 	bnez	s0,413d48 <libxt_dccp_init@@Base+0x3b8>
  413d34:	3402ffff 	li	v0,0xffff
  413d38:	16420003 	bne	s2,v0,413d48 <libxt_dccp_init@@Base+0x3b8>
  413d3c:	00000000 	nop
  413d40:	10e00028 	beqz	a3,413de4 <libxt_dccp_init@@Base+0x454>
  413d44:	00000000 	nop
[31m  413d48:	8f9983f4 	lw	t9,printf[0m
  413d4c:	00802821 	move	a1,a0
  413d50:	3c040044 	lui	a0,0x44
  413d54:	0320f809 	jalr	t9
  413d58:	24848b80 	addiu	a0,a0,-29824
  413d5c:	8fbc0010 	lw	gp,16(sp)
[31m  413d60:	8f9983f4 	lw	t9,printf[0m
  413d64:	16120007 	bne	s0,s2,413d84 <libxt_dccp_init@@Base+0x3f4>
  413d68:	00000000 	nop
--
  413dc0:	8fbc0010 	lw	gp,16(sp)
  413dc4:	8fbf002c 	lw	ra,44(sp)
  413dc8:	8f998414 	lw	t9,-31724(gp)
  413dcc:	8fb30028 	lw	s3,40(sp)
  413dd0:	8fb20024 	lw	s2,36(sp)
  413dd4:	8fb10020 	lw	s1,32(sp)
  413dd8:	8fb0001c 	lw	s0,28(sp)
  413ddc:	03200008 	jr	t9
  413de0:	27bd0030 	addiu	sp,sp,48
  413de4:	8fbf002c 	lw	ra,44(sp)
  413de8:	8fb30028 	lw	s3,40(sp)
  413dec:	8fb20024 	lw	s2,36(sp)
  413df0:	8fb10020 	lw	s1,32(sp)
  413df4:	8fb0001c 	lw	s0,28(sp)
  413df8:	03e00008 	jr	ra
  413dfc:	27bd0030 	addiu	sp,sp,48
  413e00:	27bdffd0 	addiu	sp,sp,-48
  413e04:	afbf002c 	sw	ra,44(sp)
  413e08:	afb20028 	sw	s2,40(sp)
  413e0c:	afb10024 	sw	s1,36(sp)
  413e10:	afb00020 	sw	s0,32(sp)
  413e14:	3c1c0045 	lui	gp,0x45
  413e18:	279c6160 	addiu	gp,gp,24928
  413e1c:	afbc0018 	sw	gp,24(sp)
  413e20:	3c040043 	lui	a0,0x43
[31m  413e24:	8f9983f4 	lw	t9,printf[0m
  413e28:	24b00020 	addiu	s0,a1,32
  413e2c:	00a09021 	move	s2,a1
--
  413ea8:	10400006 	beqz	v0,413ec4 <libxt_dccp_init@@Base+0x534>
  413eac:	02203021 	move	a2,s1
  413eb0:	9605000a 	lhu	a1,10(s0)
  413eb4:	9604000c 	lhu	a0,12(s0)
  413eb8:	0c104e74 	jal	4139d0 <libxt_dccp_init@@Base+0x40>
  413ebc:	30a50004 	andi	a1,a1,0x4
  413ec0:	8fbc0018 	lw	gp,24(sp)
  413ec4:	96020008 	lhu	v0,8(s0)
  413ec8:	30420008 	andi	v0,v0,0x8
  413ecc:	10400018 	beqz	v0,413f30 <libxt_dccp_init@@Base+0x5a0>
  413ed0:	00000000 	nop
  413ed4:	9602000a 	lhu	v0,10(s0)
  413ed8:	9206000e 	lbu	a2,14(s0)
  413edc:	14c00005 	bnez	a2,413ef4 <libxt_dccp_init@@Base+0x564>
  413ee0:	30420008 	andi	v0,v0,0x8
  413ee4:	14400007 	bnez	v0,413f04 <libxt_dccp_init@@Base+0x574>
  413ee8:	00000000 	nop
  413eec:	10000010 	b	413f30 <libxt_dccp_init@@Base+0x5a0>
  413ef0:	00000000 	nop
  413ef4:	14400003 	bnez	v0,413f04 <libxt_dccp_init@@Base+0x574>
  413ef8:	3c050043 	lui	a1,0x43
  413efc:	10000003 	b	413f0c <libxt_dccp_init@@Base+0x57c>
  413f00:	24a53f34 	addiu	a1,a1,16180
  413f04:	3c050043 	lui	a1,0x43
  413f08:	24a51db0 	addiu	a1,a1,7600
[31m  413f0c:	8f9983f4 	lw	t9,printf[0m
  413f10:	3c040043 	lui	a0,0x43
  413f14:	8fbf002c 	lw	ra,44(sp)
--
  4144fc:	279c6160 	addiu	gp,gp,24928
  414500:	afbc0010 	sw	gp,16(sp)
  414504:	3c040045 	lui	a0,0x45
  414508:	8f998148 	lw	t9,-32440(gp)
  41450c:	0320f809 	jalr	t9
  414510:	2484c6e0 	addiu	a0,a0,-14624
  414514:	3c040045 	lui	a0,0x45
  414518:	8fbc0010 	lw	gp,16(sp)
  41451c:	2484c724 	addiu	a0,a0,-14556
  414520:	8fbf001c 	lw	ra,28(sp)
  414524:	8f998148 	lw	t9,-32440(gp)
  414528:	03200008 	jr	t9
  41452c:	27bd0020 	addiu	sp,sp,32
  414530:	90a30021 	lbu	v1,33(a1)
  414534:	3c1c0045 	lui	gp,0x45
  414538:	00a01021 	move	v0,a1
  41453c:	14600004 	bnez	v1,414550 <libxt_dscp_init@@Base+0x60>
  414540:	279c6160 	addiu	gp,gp,24928
  414544:	3c050043 	lui	a1,0x43
  414548:	10000003 	b	414558 <libxt_dscp_init@@Base+0x68>
  41454c:	24a53f34 	addiu	a1,a1,16180
  414550:	3c050043 	lui	a1,0x43
  414554:	24a5c8c4 	addiu	a1,a1,-14140
  414558:	90460020 	lbu	a2,32(v0)
  41455c:	3c040043 	lui	a0,0x43
[31m  414560:	8f9983f4 	lw	t9,printf[0m
  414564:	248409d0 	addiu	a0,a0,2512
  414568:	03200008 	jr	t9
  41456c:	00000000 	nop
  414570:	90a30021 	lbu	v1,33(a1)
  414574:	3c1c0045 	lui	gp,0x45
  414578:	00a01021 	move	v0,a1
  41457c:	14600004 	bnez	v1,414590 <libxt_dscp_init@@Base+0xa0>
  414580:	279c6160 	addiu	gp,gp,24928
  414584:	3c050043 	lui	a1,0x43
  414588:	10000003 	b	414598 <libxt_dscp_init@@Base+0xa8>
  41458c:	24a53f34 	addiu	a1,a1,16180
  414590:	3c050043 	lui	a1,0x43
  414594:	24a51db0 	addiu	a1,a1,7600
  414598:	90460020 	lbu	a2,32(v0)
  41459c:	3c040043 	lui	a0,0x43
[31m  4145a0:	8f9983f4 	lw	t9,printf[0m
  4145a4:	248409e4 	addiu	a0,a0,2532
  4145a8:	03200008 	jr	t9
--
  414848:	03e00008 	jr	ra
  41484c:	27bd0020 	addiu	sp,sp,32

00414850 <libxt_DSCP_init@@Base>:
  414850:	27bdffe0 	addiu	sp,sp,-32
  414854:	afbf001c 	sw	ra,28(sp)
  414858:	3c1c0045 	lui	gp,0x45
  41485c:	279c6160 	addiu	gp,gp,24928
  414860:	afbc0010 	sw	gp,16(sp)
  414864:	3c040045 	lui	a0,0x45
  414868:	8f9980c0 	lw	t9,-32576(gp)
  41486c:	0320f809 	jalr	t9
  414870:	2484c770 	addiu	a0,a0,-14480
  414874:	3c040045 	lui	a0,0x45
  414878:	8fbc0010 	lw	gp,16(sp)
  41487c:	2484c7b8 	addiu	a0,a0,-14408
  414880:	8fbf001c 	lw	ra,28(sp)
  414884:	8f9980c0 	lw	t9,-32576(gp)
  414888:	03200008 	jr	t9
  41488c:	27bd0020 	addiu	sp,sp,32
  414890:	3c1c0045 	lui	gp,0x45
  414894:	3c040043 	lui	a0,0x43
  414898:	279c6160 	addiu	gp,gp,24928
  41489c:	24840c90 	addiu	a0,a0,3216
  4148a0:	90a50020 	lbu	a1,32(a1)
[31m  4148a4:	8f9983f4 	lw	t9,printf[0m
  4148a8:	03200008 	jr	t9
  4148ac:	00000000 	nop
  4148b0:	27bdffd8 	addiu	sp,sp,-40
  4148b4:	afbf0024 	sw	ra,36(sp)
  4148b8:	3c1c0045 	lui	gp,0x45
  4148bc:	279c6160 	addiu	gp,gp,24928
  4148c0:	afbc0010 	sw	gp,16(sp)
  4148c4:	3c040043 	lui	a0,0x43
[31m  4148c8:	8f9983f4 	lw	t9,printf[0m
  4148cc:	24840ca4 	addiu	a0,a0,3236
  4148d0:	0320f809 	jalr	t9
  4148d4:	afa50018 	sw	a1,24(sp)
  4148d8:	3c040043 	lui	a0,0x43
  4148dc:	8fbc0010 	lw	gp,16(sp)
  4148e0:	248472d0 	addiu	a0,a0,29392
  4148e4:	8fa50018 	lw	a1,24(sp)
[31m  4148e8:	8f9983f4 	lw	t9,printf[0m
  4148ec:	90a50020 	lbu	a1,32(a1)
  4148f0:	8fbf0024 	lw	ra,36(sp)
--
  414b14:	03200008 	jr	t9
  414b18:	27bd0020 	addiu	sp,sp,32
  414b1c:	27bdffd8 	addiu	sp,sp,-40
  414b20:	afbf0024 	sw	ra,36(sp)
  414b24:	afb10020 	sw	s1,32(sp)
  414b28:	afb0001c 	sw	s0,28(sp)
  414b2c:	3c1c0045 	lui	gp,0x45
  414b30:	279c6160 	addiu	gp,gp,24928
  414b34:	afbc0010 	sw	gp,16(sp)
  414b38:	8ca20020 	lw	v0,32(a1)
  414b3c:	00a08821 	move	s1,a1
  414b40:	14400005 	bnez	v0,414b58 <libxt_esp_init@@Base+0x7c>
  414b44:	24b00020 	addiu	s0,a1,32
  414b48:	8e030004 	lw	v1,4(s0)
  414b4c:	2402ffff 	li	v0,-1
  414b50:	10620020 	beq	v1,v0,414bd4 <libxt_esp_init@@Base+0xf8>
  414b54:	00000000 	nop
  414b58:	92020008 	lbu	v0,8(s0)
  414b5c:	30420001 	andi	v0,v0,0x1
  414b60:	14400003 	bnez	v0,414b70 <libxt_esp_init@@Base+0x94>
  414b64:	3c050043 	lui	a1,0x43
  414b68:	10000003 	b	414b78 <libxt_esp_init@@Base+0x9c>
  414b6c:	24a53f34 	addiu	a1,a1,16180
  414b70:	3c050043 	lui	a1,0x43
  414b74:	24a5c8c4 	addiu	a1,a1,-14140
[31m  414b78:	8f9983f4 	lw	t9,printf[0m
  414b7c:	3c040043 	lui	a0,0x43
  414b80:	0320f809 	jalr	t9
  414b84:	24840ec8 	addiu	a0,a0,3784
  414b88:	8fbc0010 	lw	gp,16(sp)
  414b8c:	8e250020 	lw	a1,32(s1)
  414b90:	8e060004 	lw	a2,4(s0)
[31m  414b94:	8f9983f4 	lw	t9,printf[0m
  414b98:	10a60007 	beq	a1,a2,414bb8 <libxt_esp_init@@Base+0xdc>
  414b9c:	3c040043 	lui	a0,0x43
  414ba0:	8fbf0024 	lw	ra,36(sp)
  414ba4:	24840704 	addiu	a0,a0,1796
  414ba8:	8fb10020 	lw	s1,32(sp)
  414bac:	8fb0001c 	lw	s0,28(sp)
  414bb0:	03200008 	jr	t9
  414bb4:	27bd0028 	addiu	sp,sp,40
  414bb8:	3c040043 	lui	a0,0x43
  414bbc:	8fbf0024 	lw	ra,36(sp)
  414bc0:	2484391c 	addiu	a0,a0,14620
  414bc4:	8fb10020 	lw	s1,32(sp)
  414bc8:	8fb0001c 	lw	s0,28(sp)
  414bcc:	03200008 	jr	t9
  414bd0:	27bd0028 	addiu	sp,sp,40
  414bd4:	8fbf0024 	lw	ra,36(sp)
  414bd8:	8fb10020 	lw	s1,32(sp)
  414bdc:	8fb0001c 	lw	s0,28(sp)
  414be0:	03e00008 	jr	ra
  414be4:	27bd0028 	addiu	sp,sp,40
  414be8:	27bdffd0 	addiu	sp,sp,-48
  414bec:	afbf002c 	sw	ra,44(sp)
  414bf0:	afb00028 	sw	s0,40(sp)
  414bf4:	3c1c0045 	lui	gp,0x45
  414bf8:	279c6160 	addiu	gp,gp,24928
  414bfc:	afbc0018 	sw	gp,24(sp)
  414c00:	3c040043 	lui	a0,0x43
[31m  414c04:	8f9983f4 	lw	t9,printf[0m
  414c08:	24b00020 	addiu	s0,a1,32
  414c0c:	afa50020 	sw	a1,32(sp)
  414c10:	0320f809 	jalr	t9
  414c14:	24840ed4 	addiu	a0,a0,3796
  414c18:	92030008 	lbu	v1,8(s0)
  414c1c:	8fa50020 	lw	a1,32(sp)
  414c20:	30630001 	andi	v1,v1,0x1
  414c24:	8fbc0018 	lw	gp,24(sp)
  414c28:	8ca70020 	lw	a3,32(a1)
  414c2c:	8e020004 	lw	v0,4(s0)
  414c30:	14600003 	bnez	v1,414c40 <libxt_esp_init@@Base+0x164>
  414c34:	3c060043 	lui	a2,0x43
  414c38:	10000003 	b	414c48 <libxt_esp_init@@Base+0x16c>
  414c3c:	24c63f34 	addiu	a2,a2,16180
  414c40:	3c060043 	lui	a2,0x43
  414c44:	24c61db0 	addiu	a2,a2,7600
  414c48:	14e00007 	bnez	a3,414c68 <libxt_esp_init@@Base+0x18c>
  414c4c:	2404ffff 	li	a0,-1
  414c50:	14440005 	bne	v0,a0,414c68 <libxt_esp_init@@Base+0x18c>
  414c54:	00000000 	nop
  414c58:	1460000d 	bnez	v1,414c90 <libxt_esp_init@@Base+0x1b4>
  414c5c:	3c040043 	lui	a0,0x43
  414c60:	10000012 	b	414cac <libxt_esp_init@@Base+0x1d0>
  414c64:	00000000 	nop
  414c68:	14e20009 	bne	a3,v0,414c90 <libxt_esp_init@@Base+0x1b4>
  414c6c:	3c040043 	lui	a0,0x43
[31m  414c70:	8f9983f4 	lw	t9,printf[0m
  414c74:	3c040043 	lui	a0,0x43
  414c78:	3c050043 	lui	a1,0x43
  414c7c:	24840edc 	addiu	a0,a0,3804
  414c80:	0320f809 	jalr	t9
  414c84:	24a50ee8 	addiu	a1,a1,3816
  414c88:	10000007 	b	414ca8 <libxt_esp_init@@Base+0x1cc>
  414c8c:	00000000 	nop
  414c90:	3c050043 	lui	a1,0x43
[31m  414c94:	8f9983f4 	lw	t9,printf[0m
  414c98:	24840eec 	addiu	a0,a0,3820
  414c9c:	afa20010 	sw	v0,16(sp)
  414ca0:	0320f809 	jalr	t9
  414ca4:	24a50ee8 	addiu	a1,a1,3816
  414ca8:	8fbc0018 	lw	gp,24(sp)
  414cac:	92050008 	lbu	a1,8(s0)
  414cb0:	30a500fe 	andi	a1,a1,0xfe
  414cb4:	10a00007 	beqz	a1,414cd4 <libxt_esp_init@@Base+0x1f8>
  414cb8:	3c040043 	lui	a0,0x43
[31m  414cbc:	8f9983f4 	lw	t9,printf[0m
  414cc0:	8fbf002c 	lw	ra,44(sp)
  414cc4:	24840efc 	addiu	a0,a0,3836
--
  41517c:	00c2001b 	divu	zero,a2,v0
  415180:	14400002 	bnez	v0,41518c <libxt_hashlimit_init@@Base+0xa4>
  415184:	00000000 	nop
  415188:	0007000d 	break	0x7
  41518c:	00003010 	mfhi	a2
  415190:	00003812 	mflo	a3
  415194:	00e6302b 	sltu	a2,a3,a2
  415198:	14c00004 	bnez	a2,4151ac <libxt_hashlimit_init@@Base+0xc4>
  41519c:	00000000 	nop
  4151a0:	24630001 	addiu	v1,v1,1
  4151a4:	1465fff1 	bne	v1,a1,41516c <libxt_hashlimit_init@@Base+0x84>
  4151a8:	00000000 	nop
  4151ac:	2463ffff 	addiu	v1,v1,-1
  4151b0:	3c040045 	lui	a0,0x45
  4151b4:	2484a7d8 	addiu	a0,a0,-22568
  4151b8:	000318c0 	sll	v1,v1,0x3
  4151bc:	00831821 	addu	v1,a0,v1
  4151c0:	3c040043 	lui	a0,0x43
  4151c4:	8c650004 	lw	a1,4(v1)
  4151c8:	248410a8 	addiu	a0,a0,4264
  4151cc:	8c660000 	lw	a2,0(v1)
  4151d0:	00a2001b 	divu	zero,a1,v0
  4151d4:	14400002 	bnez	v0,4151e0 <libxt_hashlimit_init@@Base+0xf8>
  4151d8:	00000000 	nop
  4151dc:	0007000d 	break	0x7
[31m  4151e0:	8f9983f4 	lw	t9,printf[0m
  4151e4:	00002812 	mflo	a1
  4151e8:	03200008 	jr	t9
  4151ec:	00000000 	nop
  4151f0:	3c1c0045 	lui	gp,0x45
  4151f4:	3c040043 	lui	a0,0x43
  4151f8:	279c6160 	addiu	gp,gp,24928
  4151fc:	24050005 	li	a1,5
[31m  415200:	8f9983f4 	lw	t9,printf[0m
  415204:	248410b0 	addiu	a0,a0,4272
  415208:	03200008 	jr	t9
  41520c:	00000000 	nop
  415210:	3c1c0045 	lui	gp,0x45
  415214:	3c040043 	lui	a0,0x43
  415218:	279c6160 	addiu	gp,gp,24928
  41521c:	24050005 	li	a1,5
[31m  415220:	8f9983f4 	lw	t9,printf[0m
  415224:	24841498 	addiu	a0,a0,5272
  415228:	03200008 	jr	t9
--
  415490:	afbc0010 	sw	gp,16(sp)
  415494:	8c830010 	lw	v1,16(a0)
  415498:	00808021 	move	s0,a0
  41549c:	8f8283f0 	lw	v0,-31760(gp)
  4154a0:	30630010 	andi	v1,v1,0x10
  4154a4:	8f99808c 	lw	t9,-32628(gp)
  4154a8:	10600005 	beqz	v1,4154c0 <libxt_hashlimit_init@@Base+0x3d8>
  4154ac:	00a08821 	move	s1,a1
  4154b0:	3c040043 	lui	a0,0x43
  4154b4:	8c450000 	lw	a1,0(v0)
  4154b8:	10000004 	b	4154cc <libxt_hashlimit_init@@Base+0x3e4>
  4154bc:	24841758 	addiu	a0,a0,5976
  4154c0:	3c040043 	lui	a0,0x43
  4154c4:	8c450000 	lw	a1,0(v0)
  4154c8:	2484176c 	addiu	a0,a0,5996
  4154cc:	0320f809 	jalr	t9
  4154d0:	00000000 	nop
  4154d4:	8e040014 	lw	a0,20(s0)
  4154d8:	0c105454 	jal	415150 <libxt_hashlimit_init@@Base+0x68>
  4154dc:	00000000 	nop
  4154e0:	24020005 	li	v0,5
  4154e4:	8e050018 	lw	a1,24(s0)
  4154e8:	8fbc0010 	lw	gp,16(sp)
  4154ec:	10a20006 	beq	a1,v0,415508 <libxt_hashlimit_init@@Base+0x420>
  4154f0:	00000000 	nop
[31m  4154f4:	8f9983f4 	lw	t9,printf[0m
  4154f8:	3c040043 	lui	a0,0x43
  4154fc:	0320f809 	jalr	t9
  415500:	24841780 	addiu	a0,a0,6016
  415504:	8fbc0010 	lw	gp,16(sp)
  415508:	8e020010 	lw	v0,16(s0)
  41550c:	3042000f 	andi	v0,v0,0xf
  415510:	1040000b 	beqz	v0,415540 <libxt_hashlimit_init@@Base+0x458>
  415514:	00000000 	nop
  415518:	8f8283f0 	lw	v0,-31760(gp)
  41551c:	3c040043 	lui	a0,0x43
  415520:	8f99808c 	lw	t9,-32628(gp)
  415524:	8c450000 	lw	a1,0(v0)
  415528:	0320f809 	jalr	t9
  41552c:	24841798 	addiu	a0,a0,6040
  415530:	8e040010 	lw	a0,16(s0)
  415534:	0c10548c 	jal	415230 <libxt_hashlimit_init@@Base+0x148>
  415538:	2405002c 	li	a1,44
  41553c:	8fbc0010 	lw	gp,16(sp)
[31m  415540:	8f9983f4 	lw	t9,printf[0m
  415544:	3c040043 	lui	a0,0x43
  415548:	02002821 	move	a1,s0
  41554c:	0320f809 	jalr	t9
  415550:	248417ac 	addiu	a0,a0,6060
  415554:	8e05001c 	lw	a1,28(s0)
  415558:	8fbc0010 	lw	gp,16(sp)
  41555c:	10a00006 	beqz	a1,415578 <libxt_hashlimit_init@@Base+0x490>
  415560:	00000000 	nop
[31m  415564:	8f9983f4 	lw	t9,printf[0m
  415568:	3c040043 	lui	a0,0x43
  41556c:	0320f809 	jalr	t9
  415570:	248417c4 	addiu	a0,a0,6084
  415574:	8fbc0010 	lw	gp,16(sp)
  415578:	8e050020 	lw	a1,32(s0)
  41557c:	10a00006 	beqz	a1,415598 <libxt_hashlimit_init@@Base+0x4b0>
  415580:	00000000 	nop
[31m  415584:	8f9983f4 	lw	t9,printf[0m
  415588:	3c040043 	lui	a0,0x43
  41558c:	0320f809 	jalr	t9
  415590:	248417e0 	addiu	a0,a0,6112
  415594:	8fbc0010 	lw	gp,16(sp)
  415598:	8e050024 	lw	a1,36(s0)
  41559c:	240203e8 	li	v0,1000
  4155a0:	10a20006 	beq	a1,v0,4155bc <libxt_hashlimit_init@@Base+0x4d4>
  4155a4:	00000000 	nop
[31m  4155a8:	8f9983f4 	lw	t9,printf[0m
  4155ac:	3c040043 	lui	a0,0x43
  4155b0:	0320f809 	jalr	t9
  4155b4:	248417fc 	addiu	a0,a0,6140
  4155b8:	8fbc0010 	lw	gp,16(sp)
  4155bc:	8e050028 	lw	a1,40(s0)
  4155c0:	24022710 	li	v0,10000
  4155c4:	10a20006 	beq	a1,v0,4155e0 <libxt_hashlimit_init@@Base+0x4f8>
  4155c8:	00000000 	nop
[31m  4155cc:	8f9983f4 	lw	t9,printf[0m
  4155d0:	3c040043 	lui	a0,0x43
  4155d4:	0320f809 	jalr	t9
  4155d8:	24841820 	addiu	a0,a0,6176
  4155dc:	8fbc0010 	lw	gp,16(sp)
  4155e0:	9205002c 	lbu	a1,44(s0)
  4155e4:	10b10005 	beq	a1,s1,4155fc <libxt_hashlimit_init@@Base+0x514>
  4155e8:	3c040043 	lui	a0,0x43
[31m  4155ec:	8f9983f4 	lw	t9,printf[0m
  4155f0:	0320f809 	jalr	t9
  4155f4:	24841840 	addiu	a0,a0,6208
  4155f8:	8fbc0010 	lw	gp,16(sp)
  4155fc:	9205002d 	lbu	a1,45(s0)
  415600:	10b10008 	beq	a1,s1,415624 <libxt_hashlimit_init@@Base+0x53c>
  415604:	3c040043 	lui	a0,0x43
[31m  415608:	8f9983f4 	lw	t9,printf[0m
  41560c:	8fbf0024 	lw	ra,36(sp)
  415610:	24841858 	addiu	a0,a0,6232
--
  415668:	3c1c0045 	lui	gp,0x45
  41566c:	279c6160 	addiu	gp,gp,24928
  415670:	afbc0010 	sw	gp,16(sp)
  415674:	8c830010 	lw	v1,16(a0)
  415678:	00808021 	move	s0,a0
  41567c:	8f8283f0 	lw	v0,-31760(gp)
  415680:	30630010 	andi	v1,v1,0x10
  415684:	8f99808c 	lw	t9,-32628(gp)
  415688:	10600005 	beqz	v1,4156a0 <libxt_hashlimit_init@@Base+0x5b8>
  41568c:	00a08821 	move	s1,a1
  415690:	3c040043 	lui	a0,0x43
  415694:	8c450000 	lw	a1,0(v0)
  415698:	10000004 	b	4156ac <libxt_hashlimit_init@@Base+0x5c4>
  41569c:	24841870 	addiu	a0,a0,6256
  4156a0:	3c040043 	lui	a0,0x43
  4156a4:	8c450000 	lw	a1,0(v0)
  4156a8:	24841880 	addiu	a0,a0,6272
  4156ac:	0320f809 	jalr	t9
  4156b0:	00000000 	nop
  4156b4:	8e040014 	lw	a0,20(s0)
  4156b8:	0c105454 	jal	415150 <libxt_hashlimit_init@@Base+0x68>
  4156bc:	00000000 	nop
  4156c0:	3c040043 	lui	a0,0x43
  4156c4:	8fbc0010 	lw	gp,16(sp)
  4156c8:	8e050018 	lw	a1,24(s0)
[31m  4156cc:	8f9983f4 	lw	t9,printf[0m
  4156d0:	0320f809 	jalr	t9
  4156d4:	2484200c 	addiu	a0,a0,8204
  4156d8:	8e020010 	lw	v0,16(s0)
  4156dc:	8fbc0010 	lw	gp,16(sp)
  4156e0:	3042000f 	andi	v0,v0,0xf
  4156e4:	1040000a 	beqz	v0,415710 <libxt_hashlimit_init@@Base+0x628>
  4156e8:	3c040043 	lui	a0,0x43
  4156ec:	8f8283f0 	lw	v0,-31760(gp)
  4156f0:	8f99808c 	lw	t9,-32628(gp)
  4156f4:	8c450000 	lw	a1,0(v0)
  4156f8:	0320f809 	jalr	t9
  4156fc:	2484efdc 	addiu	a0,a0,-4132
  415700:	8e040010 	lw	a0,16(s0)
  415704:	0c10548c 	jal	415230 <libxt_hashlimit_init@@Base+0x148>
  415708:	2405002d 	li	a1,45
  41570c:	8fbc0010 	lw	gp,16(sp)
  415710:	8e05001c 	lw	a1,28(s0)
  415714:	10a00006 	beqz	a1,415730 <libxt_hashlimit_init@@Base+0x648>
  415718:	00000000 	nop
[31m  41571c:	8f9983f4 	lw	t9,printf[0m
  415720:	3c040043 	lui	a0,0x43
  415724:	0320f809 	jalr	t9
  415728:	248417d0 	addiu	a0,a0,6096
  41572c:	8fbc0010 	lw	gp,16(sp)
  415730:	8e050020 	lw	a1,32(s0)
  415734:	10a00006 	beqz	a1,415750 <libxt_hashlimit_init@@Base+0x668>
  415738:	00000000 	nop
[31m  41573c:	8f9983f4 	lw	t9,printf[0m
  415740:	3c040043 	lui	a0,0x43
  415744:	0320f809 	jalr	t9
  415748:	248417ec 	addiu	a0,a0,6124
  41574c:	8fbc0010 	lw	gp,16(sp)
  415750:	8e050024 	lw	a1,36(s0)
  415754:	240203e8 	li	v0,1000
  415758:	10a20006 	beq	a1,v0,415774 <libxt_hashlimit_init@@Base+0x68c>
  41575c:	00000000 	nop
[31m  415760:	8f9983f4 	lw	t9,printf[0m
  415764:	3c040043 	lui	a0,0x43
  415768:	0320f809 	jalr	t9
  41576c:	24841808 	addiu	a0,a0,6152
  415770:	8fbc0010 	lw	gp,16(sp)
  415774:	8e050028 	lw	a1,40(s0)
  415778:	24022710 	li	v0,10000
  41577c:	10a20006 	beq	a1,v0,415798 <libxt_hashlimit_init@@Base+0x6b0>
  415780:	00000000 	nop
[31m  415784:	8f9983f4 	lw	t9,printf[0m
  415788:	3c040043 	lui	a0,0x43
  41578c:	0320f809 	jalr	t9
  415790:	2484182c 	addiu	a0,a0,6188
  415794:	8fbc0010 	lw	gp,16(sp)
  415798:	9205002c 	lbu	a1,44(s0)
  41579c:	10b10005 	beq	a1,s1,4157b4 <libxt_hashlimit_init@@Base+0x6cc>
  4157a0:	3c040043 	lui	a0,0x43
[31m  4157a4:	8f9983f4 	lw	t9,printf[0m
  4157a8:	0320f809 	jalr	t9
  4157ac:	2484184c 	addiu	a0,a0,6220
  4157b0:	8fbc0010 	lw	gp,16(sp)
  4157b4:	9205002d 	lbu	a1,45(s0)
  4157b8:	10b10008 	beq	a1,s1,4157dc <libxt_hashlimit_init@@Base+0x6f4>
  4157bc:	3c040043 	lui	a0,0x43
[31m  4157c0:	8f9983f4 	lw	t9,printf[0m
  4157c4:	8fbf0024 	lw	ra,36(sp)
  4157c8:	24841864 	addiu	a0,a0,6244
--
  415800:	24a40020 	addiu	a0,a1,32
  415804:	24050020 	li	a1,32
  415808:	08105596 	j	415658 <libxt_hashlimit_init@@Base+0x570>
  41580c:	00000000 	nop
  415810:	27bdffe0 	addiu	sp,sp,-32
  415814:	afbf001c 	sw	ra,28(sp)
  415818:	afb00018 	sw	s0,24(sp)
  41581c:	3c1c0045 	lui	gp,0x45
  415820:	279c6160 	addiu	gp,gp,24928
  415824:	afbc0010 	sw	gp,16(sp)
  415828:	3c040043 	lui	a0,0x43
  41582c:	8f8283f0 	lw	v0,-31760(gp)
  415830:	24b00020 	addiu	s0,a1,32
  415834:	8f99808c 	lw	t9,-32628(gp)
  415838:	8c450000 	lw	a1,0(v0)
  41583c:	0320f809 	jalr	t9
  415840:	24841890 	addiu	a0,a0,6288
  415844:	8e040014 	lw	a0,20(s0)
  415848:	0c105454 	jal	415150 <libxt_hashlimit_init@@Base+0x68>
  41584c:	00000000 	nop
  415850:	24020005 	li	v0,5
  415854:	8e050018 	lw	a1,24(s0)
  415858:	8fbc0010 	lw	gp,16(sp)
  41585c:	10a20006 	beq	a1,v0,415878 <libxt_hashlimit_init@@Base+0x790>
  415860:	00000000 	nop
[31m  415864:	8f9983f4 	lw	t9,printf[0m
  415868:	3c040043 	lui	a0,0x43
  41586c:	0320f809 	jalr	t9
  415870:	24841780 	addiu	a0,a0,6016
  415874:	8fbc0010 	lw	gp,16(sp)
  415878:	8f8283f0 	lw	v0,-31760(gp)
  41587c:	3c040043 	lui	a0,0x43
  415880:	8f99808c 	lw	t9,-32628(gp)
  415884:	8c450000 	lw	a1,0(v0)
  415888:	0320f809 	jalr	t9
  41588c:	24841798 	addiu	a0,a0,6040
  415890:	8e040010 	lw	a0,16(s0)
  415894:	0c10548c 	jal	415230 <libxt_hashlimit_init@@Base+0x148>
  415898:	2405002c 	li	a1,44
  41589c:	3c040043 	lui	a0,0x43
  4158a0:	02002821 	move	a1,s0
  4158a4:	8fbc0010 	lw	gp,16(sp)
[31m  4158a8:	8f9983f4 	lw	t9,printf[0m
  4158ac:	0320f809 	jalr	t9
  4158b0:	248417ac 	addiu	a0,a0,6060
  4158b4:	8e05001c 	lw	a1,28(s0)
  4158b8:	8fbc0010 	lw	gp,16(sp)
  4158bc:	10a00006 	beqz	a1,4158d8 <libxt_hashlimit_init@@Base+0x7f0>
  4158c0:	00000000 	nop
[31m  4158c4:	8f9983f4 	lw	t9,printf[0m
  4158c8:	3c040043 	lui	a0,0x43
  4158cc:	0320f809 	jalr	t9
  4158d0:	248417c4 	addiu	a0,a0,6084
  4158d4:	8fbc0010 	lw	gp,16(sp)
  4158d8:	8e050020 	lw	a1,32(s0)
  4158dc:	10a00006 	beqz	a1,4158f8 <libxt_hashlimit_init@@Base+0x810>
  4158e0:	00000000 	nop
[31m  4158e4:	8f9983f4 	lw	t9,printf[0m
  4158e8:	3c040043 	lui	a0,0x43
  4158ec:	0320f809 	jalr	t9
  4158f0:	248417e0 	addiu	a0,a0,6112
  4158f4:	8fbc0010 	lw	gp,16(sp)
  4158f8:	8e050024 	lw	a1,36(s0)
  4158fc:	240203e8 	li	v0,1000
  415900:	10a20005 	beq	a1,v0,415918 <libxt_hashlimit_init@@Base+0x830>
  415904:	3c040043 	lui	a0,0x43
[31m  415908:	8f9983f4 	lw	t9,printf[0m
  41590c:	0320f809 	jalr	t9
  415910:	248417fc 	addiu	a0,a0,6140
  415914:	8fbc0010 	lw	gp,16(sp)
  415918:	8e050028 	lw	a1,40(s0)
  41591c:	24022710 	li	v0,10000
  415920:	10a20007 	beq	a1,v0,415940 <libxt_hashlimit_init@@Base+0x858>
  415924:	3c040043 	lui	a0,0x43
[31m  415928:	8f9983f4 	lw	t9,printf[0m
  41592c:	8fbf001c 	lw	ra,28(sp)
  415930:	24841820 	addiu	a0,a0,6176
--
  41593c:	27bd0020 	addiu	sp,sp,32
  415940:	8fbf001c 	lw	ra,28(sp)
  415944:	8fb00018 	lw	s0,24(sp)
  415948:	03e00008 	jr	ra
  41594c:	27bd0020 	addiu	sp,sp,32
  415950:	27bdffd8 	addiu	sp,sp,-40
  415954:	afbf0024 	sw	ra,36(sp)
  415958:	afb10020 	sw	s1,32(sp)
  41595c:	afb0001c 	sw	s0,28(sp)
  415960:	3c1c0045 	lui	gp,0x45
  415964:	279c6160 	addiu	gp,gp,24928
  415968:	afbc0010 	sw	gp,16(sp)
  41596c:	3c040043 	lui	a0,0x43
  415970:	8f9183f0 	lw	s1,-31760(gp)
  415974:	24b00020 	addiu	s0,a1,32
  415978:	8f99808c 	lw	t9,-32628(gp)
  41597c:	8e250000 	lw	a1,0(s1)
  415980:	0320f809 	jalr	t9
  415984:	248418a0 	addiu	a0,a0,6304
  415988:	8e040014 	lw	a0,20(s0)
  41598c:	0c105454 	jal	415150 <libxt_hashlimit_init@@Base+0x68>
  415990:	00000000 	nop
  415994:	3c040043 	lui	a0,0x43
  415998:	8fbc0010 	lw	gp,16(sp)
  41599c:	8e050018 	lw	a1,24(s0)
[31m  4159a0:	8f9983f4 	lw	t9,printf[0m
  4159a4:	0320f809 	jalr	t9
  4159a8:	2484200c 	addiu	a0,a0,8204
  4159ac:	3c040043 	lui	a0,0x43
  4159b0:	8fbc0010 	lw	gp,16(sp)
  4159b4:	8e250000 	lw	a1,0(s1)
  4159b8:	8f99808c 	lw	t9,-32628(gp)
  4159bc:	0320f809 	jalr	t9
  4159c0:	2484efdc 	addiu	a0,a0,-4132
  4159c4:	8e040010 	lw	a0,16(s0)
  4159c8:	0c10548c 	jal	415230 <libxt_hashlimit_init@@Base+0x148>
  4159cc:	2405002d 	li	a1,45
  4159d0:	8e05001c 	lw	a1,28(s0)
  4159d4:	8fbc0010 	lw	gp,16(sp)
  4159d8:	10a00006 	beqz	a1,4159f4 <libxt_hashlimit_init@@Base+0x90c>
  4159dc:	00000000 	nop
[31m  4159e0:	8f9983f4 	lw	t9,printf[0m
  4159e4:	3c040043 	lui	a0,0x43
  4159e8:	0320f809 	jalr	t9
  4159ec:	248417d0 	addiu	a0,a0,6096
  4159f0:	8fbc0010 	lw	gp,16(sp)
  4159f4:	8e050020 	lw	a1,32(s0)
  4159f8:	10a00006 	beqz	a1,415a14 <libxt_hashlimit_init@@Base+0x92c>
  4159fc:	00000000 	nop
[31m  415a00:	8f9983f4 	lw	t9,printf[0m
  415a04:	3c040043 	lui	a0,0x43
  415a08:	0320f809 	jalr	t9
  415a0c:	248417ec 	addiu	a0,a0,6124
  415a10:	8fbc0010 	lw	gp,16(sp)
  415a14:	8e050024 	lw	a1,36(s0)
  415a18:	240203e8 	li	v0,1000
  415a1c:	10a20005 	beq	a1,v0,415a34 <libxt_hashlimit_init@@Base+0x94c>
  415a20:	3c040043 	lui	a0,0x43
[31m  415a24:	8f9983f4 	lw	t9,printf[0m
  415a28:	0320f809 	jalr	t9
  415a2c:	24841808 	addiu	a0,a0,6152
  415a30:	8fbc0010 	lw	gp,16(sp)
  415a34:	8e050028 	lw	a1,40(s0)
  415a38:	24022710 	li	v0,10000
  415a3c:	10a20008 	beq	a1,v0,415a60 <libxt_hashlimit_init@@Base+0x978>
  415a40:	3c040043 	lui	a0,0x43
[31m  415a44:	8f9983f4 	lw	t9,printf[0m
  415a48:	8fbf0024 	lw	ra,36(sp)
  415a4c:	2484182c 	addiu	a0,a0,6188
--
  416ac4:	afbf001c 	sw	ra,28(sp)
  416ac8:	3c1c0045 	lui	gp,0x45
  416acc:	279c6160 	addiu	gp,gp,24928
  416ad0:	afbc0010 	sw	gp,16(sp)
  416ad4:	3c040045 	lui	a0,0x45
  416ad8:	8f998148 	lw	t9,-32440(gp)
  416adc:	0320f809 	jalr	t9
  416ae0:	2484c9a0 	addiu	a0,a0,-13920
  416ae4:	3c040045 	lui	a0,0x45
  416ae8:	8fbc0010 	lw	gp,16(sp)
  416aec:	2484c9e4 	addiu	a0,a0,-13852
  416af0:	8fbf001c 	lw	ra,28(sp)
  416af4:	8f998148 	lw	t9,-32440(gp)
  416af8:	03200008 	jr	t9
  416afc:	27bd0020 	addiu	sp,sp,32
  416b00:	8ca20020 	lw	v0,32(a1)
  416b04:	3c1c0045 	lui	gp,0x45
  416b08:	279c6160 	addiu	gp,gp,24928
  416b0c:	14400004 	bnez	v0,416b20 <libxt_helper_init@@Base+0x60>
  416b10:	24a60020 	addiu	a2,a1,32
  416b14:	3c050043 	lui	a1,0x43
  416b18:	10000003 	b	416b28 <libxt_helper_init@@Base+0x68>
  416b1c:	24a53f34 	addiu	a1,a1,16180
  416b20:	3c050043 	lui	a1,0x43
  416b24:	24a5c8c4 	addiu	a1,a1,-14140
[31m  416b28:	8f9983f4 	lw	t9,printf[0m
  416b2c:	3c040043 	lui	a0,0x43
  416b30:	24c60004 	addiu	a2,a2,4
  416b34:	24841bcc 	addiu	a0,a0,7116
  416b38:	03200008 	jr	t9
  416b3c:	00000000 	nop
  416b40:	27bdffe0 	addiu	sp,sp,-32
  416b44:	afbf001c 	sw	ra,28(sp)
  416b48:	afb00018 	sw	s0,24(sp)
  416b4c:	3c1c0045 	lui	gp,0x45
  416b50:	279c6160 	addiu	gp,gp,24928
  416b54:	afbc0010 	sw	gp,16(sp)
  416b58:	8ca20020 	lw	v0,32(a1)
  416b5c:	14400004 	bnez	v0,416b70 <libxt_helper_init@@Base+0xb0>
  416b60:	24b00020 	addiu	s0,a1,32
  416b64:	3c050043 	lui	a1,0x43
  416b68:	10000003 	b	416b78 <libxt_helper_init@@Base+0xb8>
  416b6c:	24a53f34 	addiu	a1,a1,16180
  416b70:	3c050043 	lui	a1,0x43
  416b74:	24a5c8c4 	addiu	a1,a1,-14140
[31m  416b78:	8f9983f4 	lw	t9,printf[0m
  416b7c:	3c040043 	lui	a0,0x43
  416b80:	0320f809 	jalr	t9
--
  416d14:	2484ca74 	addiu	a0,a0,-13708
  416d18:	3c040045 	lui	a0,0x45
  416d1c:	8fbc0010 	lw	gp,16(sp)
  416d20:	2484cab8 	addiu	a0,a0,-13640
  416d24:	8fbf001c 	lw	ra,28(sp)
  416d28:	8f998148 	lw	t9,-32440(gp)
  416d2c:	03200008 	jr	t9
  416d30:	27bd0020 	addiu	sp,sp,32
  416d34:	27bdffc8 	addiu	sp,sp,-56
  416d38:	afbf0034 	sw	ra,52(sp)
  416d3c:	3c1c0045 	lui	gp,0x45
  416d40:	279c6160 	addiu	gp,gp,24928
  416d44:	afbc0028 	sw	gp,40(sp)
  416d48:	00804021 	move	t0,a0
  416d4c:	24820004 	addiu	v0,a0,4
  416d50:	3c040043 	lui	a0,0x43
  416d54:	91090004 	lbu	t1,4(t0)
  416d58:	24841cb4 	addiu	a0,a0,7348
  416d5c:	90430003 	lbu	v1,3(v0)
  416d60:	91050000 	lbu	a1,0(t0)
  416d64:	91060001 	lbu	a2,1(t0)
  416d68:	91070002 	lbu	a3,2(t0)
  416d6c:	910a0003 	lbu	t2,3(t0)
  416d70:	90480001 	lbu	t0,1(v0)
  416d74:	90420002 	lbu	v0,2(v0)
[31m  416d78:	8f9983f4 	lw	t9,printf[0m
  416d7c:	afaa0010 	sw	t2,16(sp)
  416d80:	afa90014 	sw	t1,20(sp)
  416d84:	afa80018 	sw	t0,24(sp)
  416d88:	afa2001c 	sw	v0,28(sp)
  416d8c:	0320f809 	jalr	t9
  416d90:	afa30020 	sw	v1,32(sp)
  416d94:	8fbf0034 	lw	ra,52(sp)
  416d98:	03e00008 	jr	ra
  416d9c:	27bd0038 	addiu	sp,sp,56
  416da0:	27bdffe0 	addiu	sp,sp,-32
  416da4:	afbf001c 	sw	ra,28(sp)
  416da8:	afb00018 	sw	s0,24(sp)
  416dac:	3c1c0045 	lui	gp,0x45
  416db0:	279c6160 	addiu	gp,gp,24928
  416db4:	afbc0010 	sw	gp,16(sp)
  416db8:	24b00020 	addiu	s0,a1,32
  416dbc:	92020010 	lbu	v0,16(s0)
  416dc0:	30420001 	andi	v0,v0,0x1
  416dc4:	10400010 	beqz	v0,416e08 <libxt_iprange_init@@Base+0x128>
  416dc8:	00000000 	nop
[31m  416dcc:	8f9983f4 	lw	t9,printf[0m
  416dd0:	3c040043 	lui	a0,0x43
  416dd4:	0320f809 	jalr	t9
  416dd8:	24841cd0 	addiu	a0,a0,7376
  416ddc:	92020010 	lbu	v0,16(s0)
  416de0:	8fbc0010 	lw	gp,16(sp)
  416de4:	30420010 	andi	v0,v0,0x10
  416de8:	10400004 	beqz	v0,416dfc <libxt_iprange_init@@Base+0x11c>
  416dec:	3c040043 	lui	a0,0x43
[31m  416df0:	8f9983f4 	lw	t9,printf[0m
  416df4:	0320f809 	jalr	t9
  416df8:	2484c8c4 	addiu	a0,a0,-14140
  416dfc:	0c105b4d 	jal	416d34 <libxt_iprange_init@@Base+0x54>
  416e00:	02002021 	move	a0,s0
  416e04:	8fbc0010 	lw	gp,16(sp)
  416e08:	92020010 	lbu	v0,16(s0)
  416e0c:	30420002 	andi	v0,v0,0x2
  416e10:	10400012 	beqz	v0,416e5c <libxt_iprange_init@@Base+0x17c>
  416e14:	3c040043 	lui	a0,0x43
[31m  416e18:	8f9983f4 	lw	t9,printf[0m
  416e1c:	0320f809 	jalr	t9
  416e20:	24841ce4 	addiu	a0,a0,7396
  416e24:	92020010 	lbu	v0,16(s0)
  416e28:	8fbc0010 	lw	gp,16(sp)
  416e2c:	30420020 	andi	v0,v0,0x20
  416e30:	10400005 	beqz	v0,416e48 <libxt_iprange_init@@Base+0x168>
  416e34:	3c040043 	lui	a0,0x43
[31m  416e38:	8f9983f4 	lw	t9,printf[0m
  416e3c:	0320f809 	jalr	t9
  416e40:	2484c8c4 	addiu	a0,a0,-14140
  416e44:	8fbc0010 	lw	gp,16(sp)
  416e48:	26040008 	addiu	a0,s0,8
  416e4c:	8fbf001c 	lw	ra,28(sp)
  416e50:	8fb00018 	lw	s0,24(sp)
  416e54:	08105b4d 	j	416d34 <libxt_iprange_init@@Base+0x54>
  416e58:	27bd0020 	addiu	sp,sp,32
  416e5c:	8fbf001c 	lw	ra,28(sp)
  416e60:	8fb00018 	lw	s0,24(sp)
  416e64:	03e00008 	jr	ra
  416e68:	27bd0020 	addiu	sp,sp,32
  416e6c:	27bdffe0 	addiu	sp,sp,-32
  416e70:	afbf001c 	sw	ra,28(sp)
  416e74:	afb00018 	sw	s0,24(sp)
  416e78:	3c1c0045 	lui	gp,0x45
  416e7c:	279c6160 	addiu	gp,gp,24928
  416e80:	afbc0010 	sw	gp,16(sp)
  416e84:	24b00020 	addiu	s0,a1,32
  416e88:	92020040 	lbu	v0,64(s0)
  416e8c:	30430001 	andi	v1,v0,0x1
  416e90:	1060001f 	beqz	v1,416f10 <libxt_iprange_init@@Base+0x230>
  416e94:	30430002 	andi	v1,v0,0x2
  416e98:	30420010 	andi	v0,v0,0x10
  416e9c:	10400006 	beqz	v0,416eb8 <libxt_iprange_init@@Base+0x1d8>
  416ea0:	00000000 	nop
[31m  416ea4:	8f9983f4 	lw	t9,printf[0m
  416ea8:	3c040043 	lui	a0,0x43
  416eac:	0320f809 	jalr	t9
  416eb0:	2484c8c4 	addiu	a0,a0,-14140
  416eb4:	8fbc0010 	lw	gp,16(sp)
  416eb8:	8f99833c 	lw	t9,-31940(gp)
  416ebc:	0320f809 	jalr	t9
  416ec0:	02002021 	move	a0,s0
  416ec4:	3c040043 	lui	a0,0x43
  416ec8:	8fbc0010 	lw	gp,16(sp)
  416ecc:	00402821 	move	a1,v0
[31m  416ed0:	8f9983f4 	lw	t9,printf[0m
  416ed4:	0320f809 	jalr	t9
  416ed8:	24841cfc 	addiu	a0,a0,7420
  416edc:	8fbc0010 	lw	gp,16(sp)
  416ee0:	8f99833c 	lw	t9,-31940(gp)
  416ee4:	0320f809 	jalr	t9
  416ee8:	26040010 	addiu	a0,s0,16
  416eec:	3c040043 	lui	a0,0x43
  416ef0:	8fbc0010 	lw	gp,16(sp)
  416ef4:	24841d0c 	addiu	a0,a0,7436
[31m  416ef8:	8f9983f4 	lw	t9,printf[0m
  416efc:	0320f809 	jalr	t9
  416f00:	00402821 	move	a1,v0
  416f04:	8fbc0010 	lw	gp,16(sp)
  416f08:	92020040 	lbu	v0,64(s0)
  416f0c:	30430002 	andi	v1,v0,0x2
  416f10:	1060001e 	beqz	v1,416f8c <libxt_iprange_init@@Base+0x2ac>
  416f14:	30420020 	andi	v0,v0,0x20
  416f18:	10400006 	beqz	v0,416f34 <libxt_iprange_init@@Base+0x254>
  416f1c:	00000000 	nop
[31m  416f20:	8f9983f4 	lw	t9,printf[0m
  416f24:	3c040043 	lui	a0,0x43
  416f28:	0320f809 	jalr	t9
  416f2c:	2484c8c4 	addiu	a0,a0,-14140
  416f30:	8fbc0010 	lw	gp,16(sp)
  416f34:	8f99833c 	lw	t9,-31940(gp)
  416f38:	0320f809 	jalr	t9
  416f3c:	26040020 	addiu	a0,s0,32
  416f40:	3c040043 	lui	a0,0x43
  416f44:	8fbc0010 	lw	gp,16(sp)
  416f48:	00402821 	move	a1,v0
[31m  416f4c:	8f9983f4 	lw	t9,printf[0m
  416f50:	0320f809 	jalr	t9
  416f54:	24841d14 	addiu	a0,a0,7444
  416f58:	8fbc0010 	lw	gp,16(sp)
  416f5c:	8f99833c 	lw	t9,-31940(gp)
  416f60:	0320f809 	jalr	t9
  416f64:	26040030 	addiu	a0,s0,48
  416f68:	3c040043 	lui	a0,0x43
  416f6c:	8fbc0010 	lw	gp,16(sp)
  416f70:	24841d0c 	addiu	a0,a0,7436
  416f74:	00402821 	move	a1,v0
  416f78:	8fbf001c 	lw	ra,28(sp)
[31m  416f7c:	8f9983f4 	lw	t9,printf[0m
  416f80:	8fb00018 	lw	s0,24(sp)
  416f84:	03200008 	jr	t9
  416f88:	27bd0020 	addiu	sp,sp,32
  416f8c:	8fbf001c 	lw	ra,28(sp)
  416f90:	8fb00018 	lw	s0,24(sp)
  416f94:	03e00008 	jr	ra
  416f98:	27bd0020 	addiu	sp,sp,32
  416f9c:	27bdffe0 	addiu	sp,sp,-32
  416fa0:	afbf001c 	sw	ra,28(sp)
  416fa4:	afb00018 	sw	s0,24(sp)
  416fa8:	3c1c0045 	lui	gp,0x45
  416fac:	279c6160 	addiu	gp,gp,24928
  416fb0:	afbc0010 	sw	gp,16(sp)
  416fb4:	24b00020 	addiu	s0,a1,32
  416fb8:	92020040 	lbu	v0,64(s0)
  416fbc:	30420001 	andi	v0,v0,0x1
  416fc0:	10400022 	beqz	v0,41704c <libxt_iprange_init@@Base+0x36c>
  416fc4:	3c040043 	lui	a0,0x43
[31m  416fc8:	8f9983f4 	lw	t9,printf[0m
  416fcc:	0320f809 	jalr	t9
  416fd0:	24841cd0 	addiu	a0,a0,7376
  416fd4:	92020040 	lbu	v0,64(s0)
  416fd8:	8fbc0010 	lw	gp,16(sp)
  416fdc:	30420010 	andi	v0,v0,0x10
  416fe0:	10400006 	beqz	v0,416ffc <libxt_iprange_init@@Base+0x31c>
  416fe4:	00000000 	nop
[31m  416fe8:	8f9983f4 	lw	t9,printf[0m
  416fec:	3c040043 	lui	a0,0x43
  416ff0:	0320f809 	jalr	t9
  416ff4:	2484c8c4 	addiu	a0,a0,-14140
  416ff8:	8fbc0010 	lw	gp,16(sp)
  416ffc:	8f99833c 	lw	t9,-31940(gp)
  417000:	0320f809 	jalr	t9
  417004:	02002021 	move	a0,s0
  417008:	3c040044 	lui	a0,0x44
  41700c:	8fbc0010 	lw	gp,16(sp)
  417010:	00402821 	move	a1,v0
[31m  417014:	8f9983f4 	lw	t9,printf[0m
  417018:	0320f809 	jalr	t9
  41701c:	24848b80 	addiu	a0,a0,-29824
  417020:	8fbc0010 	lw	gp,16(sp)
  417024:	8f99833c 	lw	t9,-31940(gp)
  417028:	0320f809 	jalr	t9
  41702c:	26040010 	addiu	a0,s0,16
  417030:	3c040043 	lui	a0,0x43
  417034:	8fbc0010 	lw	gp,16(sp)
  417038:	24841d0c 	addiu	a0,a0,7436
[31m  41703c:	8f9983f4 	lw	t9,printf[0m
  417040:	0320f809 	jalr	t9
  417044:	00402821 	move	a1,v0
  417048:	8fbc0010 	lw	gp,16(sp)
  41704c:	92020040 	lbu	v0,64(s0)
  417050:	30420002 	andi	v0,v0,0x2
  417054:	10400024 	beqz	v0,4170e8 <libxt_iprange_init@@Base+0x408>
  417058:	3c040043 	lui	a0,0x43
[31m  41705c:	8f9983f4 	lw	t9,printf[0m
  417060:	0320f809 	jalr	t9
  417064:	24841ce4 	addiu	a0,a0,7396
  417068:	92020040 	lbu	v0,64(s0)
  41706c:	8fbc0010 	lw	gp,16(sp)
  417070:	30420020 	andi	v0,v0,0x20
  417074:	10400006 	beqz	v0,417090 <libxt_iprange_init@@Base+0x3b0>
  417078:	00000000 	nop
[31m  41707c:	8f9983f4 	lw	t9,printf[0m
  417080:	3c040043 	lui	a0,0x43
  417084:	0320f809 	jalr	t9
  417088:	2484c8c4 	addiu	a0,a0,-14140
  41708c:	8fbc0010 	lw	gp,16(sp)
  417090:	8f99833c 	lw	t9,-31940(gp)
  417094:	0320f809 	jalr	t9
  417098:	26040020 	addiu	a0,s0,32
  41709c:	3c040044 	lui	a0,0x44
  4170a0:	8fbc0010 	lw	gp,16(sp)
  4170a4:	00402821 	move	a1,v0
[31m  4170a8:	8f9983f4 	lw	t9,printf[0m
  4170ac:	0320f809 	jalr	t9
  4170b0:	24848b80 	addiu	a0,a0,-29824
  4170b4:	8fbc0010 	lw	gp,16(sp)
  4170b8:	8f99833c 	lw	t9,-31940(gp)
  4170bc:	0320f809 	jalr	t9
  4170c0:	26040030 	addiu	a0,s0,48
  4170c4:	3c040043 	lui	a0,0x43
  4170c8:	8fbc0010 	lw	gp,16(sp)
  4170cc:	24841d0c 	addiu	a0,a0,7436
  4170d0:	00402821 	move	a1,v0
  4170d4:	8fbf001c 	lw	ra,28(sp)
[31m  4170d8:	8f9983f4 	lw	t9,printf[0m
  4170dc:	8fb00018 	lw	s0,24(sp)
  4170e0:	03200008 	jr	t9
--
  4173a8:	24020001 	li	v0,1
  4173ac:	34630002 	ori	v1,v1,0x2
  4173b0:	ae230000 	sw	v1,0(s1)
  4173b4:	8fbf0034 	lw	ra,52(sp)
  4173b8:	8fb40030 	lw	s4,48(sp)
  4173bc:	8fb3002c 	lw	s3,44(sp)
  4173c0:	8fb20028 	lw	s2,40(sp)
  4173c4:	8fb10024 	lw	s1,36(sp)
  4173c8:	8fb00020 	lw	s0,32(sp)
  4173cc:	03e00008 	jr	ra
  4173d0:	27bd0038 	addiu	sp,sp,56
  4173d4:	27bdffe0 	addiu	sp,sp,-32
  4173d8:	afbf001c 	sw	ra,28(sp)
  4173dc:	afb00018 	sw	s0,24(sp)
  4173e0:	3c1c0045 	lui	gp,0x45
  4173e4:	279c6160 	addiu	gp,gp,24928
  4173e8:	afbc0010 	sw	gp,16(sp)
  4173ec:	24b00020 	addiu	s0,a1,32
  4173f0:	92020040 	lbu	v0,64(s0)
  4173f4:	30430001 	andi	v1,v0,0x1
  4173f8:	1060001f 	beqz	v1,417478 <libxt_iprange_init@@Base+0x798>
  4173fc:	30430002 	andi	v1,v0,0x2
  417400:	30420010 	andi	v0,v0,0x10
  417404:	10400006 	beqz	v0,417420 <libxt_iprange_init@@Base+0x740>
  417408:	00000000 	nop
[31m  41740c:	8f9983f4 	lw	t9,printf[0m
  417410:	3c040043 	lui	a0,0x43
  417414:	0320f809 	jalr	t9
  417418:	2484c8c4 	addiu	a0,a0,-14140
  41741c:	8fbc0010 	lw	gp,16(sp)
  417420:	8f998318 	lw	t9,-31976(gp)
  417424:	0320f809 	jalr	t9
  417428:	02002021 	move	a0,s0
  41742c:	3c040043 	lui	a0,0x43
  417430:	8fbc0010 	lw	gp,16(sp)
  417434:	00402821 	move	a1,v0
[31m  417438:	8f9983f4 	lw	t9,printf[0m
  41743c:	0320f809 	jalr	t9
  417440:	24841cfc 	addiu	a0,a0,7420
  417444:	8fbc0010 	lw	gp,16(sp)
  417448:	8f998318 	lw	t9,-31976(gp)
  41744c:	0320f809 	jalr	t9
  417450:	26040010 	addiu	a0,s0,16
  417454:	3c040043 	lui	a0,0x43
  417458:	8fbc0010 	lw	gp,16(sp)
  41745c:	24841d0c 	addiu	a0,a0,7436
[31m  417460:	8f9983f4 	lw	t9,printf[0m
  417464:	0320f809 	jalr	t9
  417468:	00402821 	move	a1,v0
  41746c:	8fbc0010 	lw	gp,16(sp)
  417470:	92020040 	lbu	v0,64(s0)
  417474:	30430002 	andi	v1,v0,0x2
  417478:	1060001e 	beqz	v1,4174f4 <libxt_iprange_init@@Base+0x814>
  41747c:	30420020 	andi	v0,v0,0x20
  417480:	10400006 	beqz	v0,41749c <libxt_iprange_init@@Base+0x7bc>
  417484:	00000000 	nop
[31m  417488:	8f9983f4 	lw	t9,printf[0m
  41748c:	3c040043 	lui	a0,0x43
  417490:	0320f809 	jalr	t9
  417494:	2484c8c4 	addiu	a0,a0,-14140
  417498:	8fbc0010 	lw	gp,16(sp)
  41749c:	8f998318 	lw	t9,-31976(gp)
  4174a0:	0320f809 	jalr	t9
  4174a4:	26040020 	addiu	a0,s0,32
  4174a8:	3c040043 	lui	a0,0x43
  4174ac:	8fbc0010 	lw	gp,16(sp)
  4174b0:	00402821 	move	a1,v0
[31m  4174b4:	8f9983f4 	lw	t9,printf[0m
  4174b8:	0320f809 	jalr	t9
  4174bc:	24841d14 	addiu	a0,a0,7444
  4174c0:	8fbc0010 	lw	gp,16(sp)
  4174c4:	8f998318 	lw	t9,-31976(gp)
  4174c8:	0320f809 	jalr	t9
  4174cc:	26040030 	addiu	a0,s0,48
  4174d0:	3c040043 	lui	a0,0x43
  4174d4:	8fbc0010 	lw	gp,16(sp)
  4174d8:	24841d0c 	addiu	a0,a0,7436
  4174dc:	00402821 	move	a1,v0
  4174e0:	8fbf001c 	lw	ra,28(sp)
[31m  4174e4:	8f9983f4 	lw	t9,printf[0m
  4174e8:	8fb00018 	lw	s0,24(sp)
  4174ec:	03200008 	jr	t9
  4174f0:	27bd0020 	addiu	sp,sp,32
  4174f4:	8fbf001c 	lw	ra,28(sp)
  4174f8:	8fb00018 	lw	s0,24(sp)
  4174fc:	03e00008 	jr	ra
  417500:	27bd0020 	addiu	sp,sp,32
  417504:	27bdffe0 	addiu	sp,sp,-32
  417508:	afbf001c 	sw	ra,28(sp)
  41750c:	afb00018 	sw	s0,24(sp)
  417510:	3c1c0045 	lui	gp,0x45
  417514:	279c6160 	addiu	gp,gp,24928
  417518:	afbc0010 	sw	gp,16(sp)
  41751c:	24b00020 	addiu	s0,a1,32
  417520:	92020040 	lbu	v0,64(s0)
  417524:	30420001 	andi	v0,v0,0x1
  417528:	10400022 	beqz	v0,4175b4 <libxt_iprange_init@@Base+0x8d4>
  41752c:	3c040043 	lui	a0,0x43
[31m  417530:	8f9983f4 	lw	t9,printf[0m
  417534:	0320f809 	jalr	t9
  417538:	24841cd0 	addiu	a0,a0,7376
  41753c:	92020040 	lbu	v0,64(s0)
  417540:	8fbc0010 	lw	gp,16(sp)
  417544:	30420010 	andi	v0,v0,0x10
  417548:	10400006 	beqz	v0,417564 <libxt_iprange_init@@Base+0x884>
  41754c:	00000000 	nop
[31m  417550:	8f9983f4 	lw	t9,printf[0m
  417554:	3c040043 	lui	a0,0x43
  417558:	0320f809 	jalr	t9
  41755c:	2484c8c4 	addiu	a0,a0,-14140
  417560:	8fbc0010 	lw	gp,16(sp)
  417564:	8f998318 	lw	t9,-31976(gp)
  417568:	0320f809 	jalr	t9
  41756c:	02002021 	move	a0,s0
  417570:	3c040044 	lui	a0,0x44
  417574:	8fbc0010 	lw	gp,16(sp)
  417578:	00402821 	move	a1,v0
[31m  41757c:	8f9983f4 	lw	t9,printf[0m
  417580:	0320f809 	jalr	t9
  417584:	24848b80 	addiu	a0,a0,-29824
  417588:	8fbc0010 	lw	gp,16(sp)
  41758c:	8f998318 	lw	t9,-31976(gp)
  417590:	0320f809 	jalr	t9
  417594:	26040010 	addiu	a0,s0,16
  417598:	3c040043 	lui	a0,0x43
  41759c:	8fbc0010 	lw	gp,16(sp)
  4175a0:	24841d0c 	addiu	a0,a0,7436
[31m  4175a4:	8f9983f4 	lw	t9,printf[0m
  4175a8:	0320f809 	jalr	t9
  4175ac:	00402821 	move	a1,v0
  4175b0:	8fbc0010 	lw	gp,16(sp)
  4175b4:	92020040 	lbu	v0,64(s0)
  4175b8:	30420002 	andi	v0,v0,0x2
  4175bc:	10400024 	beqz	v0,417650 <libxt_iprange_init@@Base+0x970>
  4175c0:	3c040043 	lui	a0,0x43
[31m  4175c4:	8f9983f4 	lw	t9,printf[0m
  4175c8:	0320f809 	jalr	t9
  4175cc:	24841ce4 	addiu	a0,a0,7396
  4175d0:	92020040 	lbu	v0,64(s0)
  4175d4:	8fbc0010 	lw	gp,16(sp)
  4175d8:	30420020 	andi	v0,v0,0x20
  4175dc:	10400006 	beqz	v0,4175f8 <libxt_iprange_init@@Base+0x918>
  4175e0:	00000000 	nop
[31m  4175e4:	8f9983f4 	lw	t9,printf[0m
  4175e8:	3c040043 	lui	a0,0x43
  4175ec:	0320f809 	jalr	t9
  4175f0:	2484c8c4 	addiu	a0,a0,-14140
  4175f4:	8fbc0010 	lw	gp,16(sp)
  4175f8:	8f998318 	lw	t9,-31976(gp)
  4175fc:	0320f809 	jalr	t9
  417600:	26040020 	addiu	a0,s0,32
  417604:	3c040044 	lui	a0,0x44
  417608:	8fbc0010 	lw	gp,16(sp)
  41760c:	00402821 	move	a1,v0
[31m  417610:	8f9983f4 	lw	t9,printf[0m
  417614:	0320f809 	jalr	t9
  417618:	24848b80 	addiu	a0,a0,-29824
  41761c:	8fbc0010 	lw	gp,16(sp)
  417620:	8f998318 	lw	t9,-31976(gp)
  417624:	0320f809 	jalr	t9
  417628:	26040030 	addiu	a0,s0,48
  41762c:	3c040043 	lui	a0,0x43
  417630:	8fbc0010 	lw	gp,16(sp)
  417634:	24841d0c 	addiu	a0,a0,7436
  417638:	00402821 	move	a1,v0
  41763c:	8fbf001c 	lw	ra,28(sp)
[31m  417640:	8f9983f4 	lw	t9,printf[0m
  417644:	8fb00018 	lw	s0,24(sp)
  417648:	03200008 	jr	t9
--
  4179a8:	8c590014 	lw	t9,20(v0)
  4179ac:	0320f809 	jalr	t9
  4179b0:	24040002 	li	a0,2
  4179b4:	8c420000 	lw	v0,0(v0)
  4179b8:	ae020004 	sw	v0,4(s0)
  4179bc:	8fbf002c 	lw	ra,44(sp)
  4179c0:	8fb20028 	lw	s2,40(sp)
  4179c4:	8fb10024 	lw	s1,36(sp)
  4179c8:	8fb00020 	lw	s0,32(sp)
  4179cc:	03e00008 	jr	ra
  4179d0:	27bd0030 	addiu	sp,sp,48
  4179d4:	27bdffe0 	addiu	sp,sp,-32
  4179d8:	afbf001c 	sw	ra,28(sp)
  4179dc:	afb00018 	sw	s0,24(sp)
  4179e0:	3c1c0045 	lui	gp,0x45
  4179e4:	279c6160 	addiu	gp,gp,24928
  4179e8:	afbc0010 	sw	gp,16(sp)
  4179ec:	24b00020 	addiu	s0,a1,32
  4179f0:	92020010 	lbu	v0,16(s0)
  4179f4:	30430001 	andi	v1,v0,0x1
  4179f8:	1060002b 	beqz	v1,417aa8 <libxt_iprange_init@@Base+0xdc8>
  4179fc:	30430002 	andi	v1,v0,0x2
  417a00:	30420010 	andi	v0,v0,0x10
  417a04:	10400006 	beqz	v0,417a20 <libxt_iprange_init@@Base+0xd40>
  417a08:	00000000 	nop
[31m  417a0c:	8f9983f4 	lw	t9,printf[0m
  417a10:	3c040043 	lui	a0,0x43
  417a14:	0320f809 	jalr	t9
  417a18:	2484c8c4 	addiu	a0,a0,-14140
  417a1c:	8fbc0010 	lw	gp,16(sp)
[31m  417a20:	8f9983f4 	lw	t9,printf[0m
  417a24:	3c040043 	lui	a0,0x43
  417a28:	0320f809 	jalr	t9
--
  417a54:	8ca20034 	lw	v0,52(a1)
  417a58:	1040000d 	beqz	v0,417a90 <libxt_iprange_init@@Base+0xdb0>
  417a5c:	00000000 	nop
  417a60:	8ca20010 	lw	v0,16(a1)
  417a64:	8ca3001c 	lw	v1,28(a1)
  417a68:	0043182b 	sltu	v1,v0,v1
  417a6c:	10600005 	beqz	v1,417a84 <libxt_iprange_init@@Base+0xda4>
  417a70:	24430001 	addiu	v1,v0,1
  417a74:	24040020 	li	a0,32
  417a78:	a0440000 	sb	a0,0(v0)
  417a7c:	10000008 	b	417aa0 <libxt_iprange_init@@Base+0xdc0>
  417a80:	aca30010 	sw	v1,16(a1)
  417a84:	8f998044 	lw	t9,-32700(gp)
  417a88:	10000002 	b	417a94 <libxt_iprange_init@@Base+0xdb4>
  417a8c:	00000000 	nop
  417a90:	8f998118 	lw	t9,-32488(gp)
  417a94:	0320f809 	jalr	t9
  417a98:	24040020 	li	a0,32
  417a9c:	8fbc0010 	lw	gp,16(sp)
  417aa0:	92020010 	lbu	v0,16(s0)
  417aa4:	30430002 	andi	v1,v0,0x2
  417aa8:	10600012 	beqz	v1,417af4 <libxt_iprange_init@@Base+0xe14>
  417aac:	30420020 	andi	v0,v0,0x20
  417ab0:	10400006 	beqz	v0,417acc <libxt_iprange_init@@Base+0xdec>
  417ab4:	00000000 	nop
[31m  417ab8:	8f9983f4 	lw	t9,printf[0m
  417abc:	3c040043 	lui	a0,0x43
  417ac0:	0320f809 	jalr	t9
  417ac4:	2484c8c4 	addiu	a0,a0,-14140
  417ac8:	8fbc0010 	lw	gp,16(sp)
[31m  417acc:	8f9983f4 	lw	t9,printf[0m
  417ad0:	3c040043 	lui	a0,0x43
  417ad4:	0320f809 	jalr	t9
--

00417cc0 <libxt_length_init@@Base>:
  417cc0:	3c1c0045 	lui	gp,0x45
  417cc4:	3c040045 	lui	a0,0x45
  417cc8:	279c6160 	addiu	gp,gp,24928
  417ccc:	2484cb00 	addiu	a0,a0,-13568
  417cd0:	8f998148 	lw	t9,-32440(gp)
  417cd4:	03200008 	jr	t9
  417cd8:	00000000 	nop
  417cdc:	27bdffd8 	addiu	sp,sp,-40
  417ce0:	afbf0024 	sw	ra,36(sp)
  417ce4:	afb10020 	sw	s1,32(sp)
  417ce8:	afb0001c 	sw	s0,28(sp)
  417cec:	3c1c0045 	lui	gp,0x45
  417cf0:	279c6160 	addiu	gp,gp,24928
  417cf4:	afbc0010 	sw	gp,16(sp)
  417cf8:	24b00020 	addiu	s0,a1,32
  417cfc:	92020004 	lbu	v0,4(s0)
  417d00:	14400004 	bnez	v0,417d14 <libxt_length_init@@Base+0x54>
  417d04:	00a08821 	move	s1,a1
  417d08:	3c050043 	lui	a1,0x43
  417d0c:	10000003 	b	417d1c <libxt_length_init@@Base+0x5c>
  417d10:	24a53f34 	addiu	a1,a1,16180
  417d14:	3c050043 	lui	a1,0x43
  417d18:	24a5c8c4 	addiu	a1,a1,-14140
[31m  417d1c:	8f9983f4 	lw	t9,printf[0m
  417d20:	3c040043 	lui	a0,0x43
  417d24:	0320f809 	jalr	t9
  417d28:	24841ec0 	addiu	a0,a0,7872
  417d2c:	8fbc0010 	lw	gp,16(sp)
  417d30:	96250020 	lhu	a1,32(s1)
  417d34:	96060002 	lhu	a2,2(s0)
[31m  417d38:	8f9983f4 	lw	t9,printf[0m
  417d3c:	14a60008 	bne	a1,a2,417d60 <libxt_length_init@@Base+0xa0>
  417d40:	3c040043 	lui	a0,0x43
--
  417d54:	8fb0001c 	lw	s0,28(sp)
  417d58:	03200008 	jr	t9
  417d5c:	27bd0028 	addiu	sp,sp,40
  417d60:	8fbf0024 	lw	ra,36(sp)
  417d64:	24840704 	addiu	a0,a0,1796
  417d68:	8fb10020 	lw	s1,32(sp)
  417d6c:	8fb0001c 	lw	s0,28(sp)
  417d70:	03200008 	jr	t9
  417d74:	27bd0028 	addiu	sp,sp,40
  417d78:	27bdffd8 	addiu	sp,sp,-40
  417d7c:	afbf0024 	sw	ra,36(sp)
  417d80:	afb10020 	sw	s1,32(sp)
  417d84:	afb0001c 	sw	s0,28(sp)
  417d88:	3c1c0045 	lui	gp,0x45
  417d8c:	279c6160 	addiu	gp,gp,24928
  417d90:	afbc0010 	sw	gp,16(sp)
  417d94:	24b00020 	addiu	s0,a1,32
  417d98:	92020004 	lbu	v0,4(s0)
  417d9c:	14400004 	bnez	v0,417db0 <libxt_length_init@@Base+0xf0>
  417da0:	00a08821 	move	s1,a1
  417da4:	3c050043 	lui	a1,0x43
  417da8:	10000003 	b	417db8 <libxt_length_init@@Base+0xf8>
  417dac:	24a53f34 	addiu	a1,a1,16180
  417db0:	3c050043 	lui	a1,0x43
  417db4:	24a51db0 	addiu	a1,a1,7600
[31m  417db8:	8f9983f4 	lw	t9,printf[0m
  417dbc:	3c040043 	lui	a0,0x43
  417dc0:	0320f809 	jalr	t9
  417dc4:	24841ecc 	addiu	a0,a0,7884
  417dc8:	8fbc0010 	lw	gp,16(sp)
  417dcc:	96250020 	lhu	a1,32(s1)
  417dd0:	96060002 	lhu	a2,2(s0)
[31m  417dd4:	8f9983f4 	lw	t9,printf[0m
  417dd8:	14a60008 	bne	a1,a2,417dfc <libxt_length_init@@Base+0x13c>
  417ddc:	3c040043 	lui	a0,0x43
--
  4180a8:	00c2001b 	divu	zero,a2,v0
  4180ac:	14400002 	bnez	v0,4180b8 <libxt_limit_init@@Base+0x58>
  4180b0:	00000000 	nop
  4180b4:	0007000d 	break	0x7
  4180b8:	00003010 	mfhi	a2
  4180bc:	00003812 	mflo	a3
  4180c0:	00e6302b 	sltu	a2,a3,a2
  4180c4:	14c00004 	bnez	a2,4180d8 <libxt_limit_init@@Base+0x78>
  4180c8:	00000000 	nop
  4180cc:	24630001 	addiu	v1,v1,1
  4180d0:	1465fff1 	bne	v1,a1,418098 <libxt_limit_init@@Base+0x38>
  4180d4:	00000000 	nop
  4180d8:	2463ffff 	addiu	v1,v1,-1
  4180dc:	3c040045 	lui	a0,0x45
  4180e0:	2484a9c8 	addiu	a0,a0,-22072
  4180e4:	000318c0 	sll	v1,v1,0x3
  4180e8:	00831821 	addu	v1,a0,v1
  4180ec:	3c040043 	lui	a0,0x43
  4180f0:	8c650004 	lw	a1,4(v1)
  4180f4:	248410a8 	addiu	a0,a0,4264
  4180f8:	8c660000 	lw	a2,0(v1)
  4180fc:	00a2001b 	divu	zero,a1,v0
  418100:	14400002 	bnez	v0,41810c <libxt_limit_init@@Base+0xac>
  418104:	00000000 	nop
  418108:	0007000d 	break	0x7
[31m  41810c:	8f9983f4 	lw	t9,printf[0m
  418110:	00002812 	mflo	a1
  418114:	03200008 	jr	t9
  418118:	00000000 	nop
  41811c:	27bdffd8 	addiu	sp,sp,-40
  418120:	afbf0024 	sw	ra,36(sp)
  418124:	afb00020 	sw	s0,32(sp)
  418128:	3c1c0045 	lui	gp,0x45
  41812c:	279c6160 	addiu	gp,gp,24928
  418130:	afbc0010 	sw	gp,16(sp)
  418134:	3c040043 	lui	a0,0x43
[31m  418138:	8f9983f4 	lw	t9,printf[0m
  41813c:	24841ff8 	addiu	a0,a0,8184
  418140:	afa50018 	sw	a1,24(sp)
  418144:	0320f809 	jalr	t9
  418148:	24b00020 	addiu	s0,a1,32
  41814c:	8fa50018 	lw	a1,24(sp)
  418150:	8ca40020 	lw	a0,32(a1)
  418154:	0c10601f 	jal	41807c <libxt_limit_init@@Base+0x1c>
  418158:	00000000 	nop
  41815c:	24020005 	li	v0,5
  418160:	8e050004 	lw	a1,4(s0)
  418164:	8fbc0010 	lw	gp,16(sp)
  418168:	10a20007 	beq	a1,v0,418188 <libxt_limit_init@@Base+0x128>
  41816c:	3c040043 	lui	a0,0x43
[31m  418170:	8f9983f4 	lw	t9,printf[0m
  418174:	8fbf0024 	lw	ra,36(sp)
  418178:	24842004 	addiu	a0,a0,8196
  41817c:	8fb00020 	lw	s0,32(sp)
  418180:	03200008 	jr	t9
  418184:	27bd0028 	addiu	sp,sp,40
  418188:	8fbf0024 	lw	ra,36(sp)
  41818c:	8fb00020 	lw	s0,32(sp)
  418190:	03e00008 	jr	ra
  418194:	27bd0028 	addiu	sp,sp,40
  418198:	27bdffd8 	addiu	sp,sp,-40
  41819c:	afbf0024 	sw	ra,36(sp)
  4181a0:	afb00020 	sw	s0,32(sp)
  4181a4:	3c1c0045 	lui	gp,0x45
  4181a8:	279c6160 	addiu	gp,gp,24928
  4181ac:	afbc0010 	sw	gp,16(sp)
  4181b0:	3c040043 	lui	a0,0x43
[31m  4181b4:	8f9983f4 	lw	t9,printf[0m
  4181b8:	248418a0 	addiu	a0,a0,6304
  4181bc:	afa50018 	sw	a1,24(sp)
  4181c0:	0320f809 	jalr	t9
  4181c4:	24b00020 	addiu	s0,a1,32
  4181c8:	8fa50018 	lw	a1,24(sp)
  4181cc:	8ca40020 	lw	a0,32(a1)
  4181d0:	0c10601f 	jal	41807c <libxt_limit_init@@Base+0x1c>
  4181d4:	00000000 	nop
  4181d8:	3c040043 	lui	a0,0x43
  4181dc:	8fbc0010 	lw	gp,16(sp)
  4181e0:	2484200c 	addiu	a0,a0,8204
  4181e4:	8e050004 	lw	a1,4(s0)
[31m  4181e8:	8f9983f4 	lw	t9,printf[0m
  4181ec:	8fbf0024 	lw	ra,36(sp)
  4181f0:	8fb00020 	lw	s0,32(sp)
  4181f4:	03200008 	jr	t9
  4181f8:	27bd0028 	addiu	sp,sp,40
  4181fc:	3c1c0045 	lui	gp,0x45
  418200:	3c040043 	lui	a0,0x43
  418204:	279c6160 	addiu	gp,gp,24928
  418208:	24050005 	li	a1,5
[31m  41820c:	8f9983f4 	lw	t9,printf[0m
  418210:	24842018 	addiu	a0,a0,8216
  418214:	03200008 	jr	t9
--
  4185a4:	afbf001c 	sw	ra,28(sp)
  4185a8:	3c1c0045 	lui	gp,0x45
  4185ac:	279c6160 	addiu	gp,gp,24928
  4185b0:	afbc0010 	sw	gp,16(sp)
  4185b4:	3c040045 	lui	a0,0x45
  4185b8:	8f998148 	lw	t9,-32440(gp)
  4185bc:	0320f809 	jalr	t9
  4185c0:	2484cba0 	addiu	a0,a0,-13408
  4185c4:	3c040045 	lui	a0,0x45
  4185c8:	8fbc0010 	lw	gp,16(sp)
  4185cc:	2484cbe4 	addiu	a0,a0,-13340
  4185d0:	8fbf001c 	lw	ra,28(sp)
  4185d4:	8f998148 	lw	t9,-32440(gp)
  4185d8:	03200008 	jr	t9
  4185dc:	27bd0020 	addiu	sp,sp,32
  4185e0:	27bdffd0 	addiu	sp,sp,-48
  4185e4:	afbf002c 	sw	ra,44(sp)
  4185e8:	afb30028 	sw	s3,40(sp)
  4185ec:	afb20024 	sw	s2,36(sp)
  4185f0:	afb10020 	sw	s1,32(sp)
  4185f4:	afb0001c 	sw	s0,28(sp)
  4185f8:	3c1c0045 	lui	gp,0x45
  4185fc:	279c6160 	addiu	gp,gp,24928
  418600:	afbc0010 	sw	gp,16(sp)
  418604:	3c120043 	lui	s2,0x43
[31m  418608:	8f9983f4 	lw	t9,printf[0m
  41860c:	00808821 	move	s1,a0
  418610:	24100001 	li	s0,1
  418614:	90850000 	lbu	a1,0(a0)
  418618:	3c040043 	lui	a0,0x43
  41861c:	2484216c 	addiu	a0,a0,8556
  418620:	0320f809 	jalr	t9
  418624:	24130006 	li	s3,6
  418628:	26522174 	addiu	s2,s2,8564
  41862c:	8fbc0010 	lw	gp,16(sp)
  418630:	02301021 	addu	v0,s1,s0
  418634:	02402021 	move	a0,s2
[31m  418638:	8f9983f4 	lw	t9,printf[0m
  41863c:	90450000 	lbu	a1,0(v0)
  418640:	0320f809 	jalr	t9
  418644:	26100001 	addiu	s0,s0,1
  418648:	8fbc0010 	lw	gp,16(sp)
  41864c:	1613fff9 	bne	s0,s3,418634 <libxt_mac_init@@Base+0x94>
  418650:	02301021 	addu	v0,s1,s0
  418654:	8f998414 	lw	t9,-31724(gp)
  418658:	24040020 	li	a0,32
  41865c:	8fbf002c 	lw	ra,44(sp)
  418660:	8fb30028 	lw	s3,40(sp)
  418664:	8fb20024 	lw	s2,36(sp)
  418668:	8fb10020 	lw	s1,32(sp)
  41866c:	8fb0001c 	lw	s0,28(sp)
  418670:	03200008 	jr	t9
  418674:	27bd0030 	addiu	sp,sp,48
  418678:	27bdffe0 	addiu	sp,sp,-32
  41867c:	afbf001c 	sw	ra,28(sp)
  418680:	afb00018 	sw	s0,24(sp)
  418684:	3c1c0045 	lui	gp,0x45
  418688:	279c6160 	addiu	gp,gp,24928
  41868c:	afbc0010 	sw	gp,16(sp)
  418690:	24b00020 	addiu	s0,a1,32
  418694:	8e020008 	lw	v0,8(s0)
  418698:	10400006 	beqz	v0,4186b4 <libxt_mac_init@@Base+0x114>
  41869c:	00000000 	nop
[31m  4186a0:	8f9983f4 	lw	t9,printf[0m
  4186a4:	3c040043 	lui	a0,0x43
  4186a8:	0320f809 	jalr	t9
  4186ac:	2484c8c4 	addiu	a0,a0,-14140
  4186b0:	8fbc0010 	lw	gp,16(sp)
[31m  4186b4:	8f9983f4 	lw	t9,printf[0m
  4186b8:	3c040043 	lui	a0,0x43
  4186bc:	0320f809 	jalr	t9
  4186c0:	2484217c 	addiu	a0,a0,8572
  4186c4:	02002021 	move	a0,s0
  4186c8:	8fbc0010 	lw	gp,16(sp)
  4186cc:	8fbf001c 	lw	ra,28(sp)
  4186d0:	8fb00018 	lw	s0,24(sp)
  4186d4:	08106178 	j	4185e0 <libxt_mac_init@@Base+0x40>
  4186d8:	27bd0020 	addiu	sp,sp,32
  4186dc:	27bdffe0 	addiu	sp,sp,-32
  4186e0:	afbf001c 	sw	ra,28(sp)
  4186e4:	afb00018 	sw	s0,24(sp)
  4186e8:	3c1c0045 	lui	gp,0x45
  4186ec:	279c6160 	addiu	gp,gp,24928
  4186f0:	afbc0010 	sw	gp,16(sp)
  4186f4:	3c040043 	lui	a0,0x43
[31m  4186f8:	8f9983f4 	lw	t9,printf[0m
  4186fc:	24b00020 	addiu	s0,a1,32
  418700:	0320f809 	jalr	t9
  418704:	2484218c 	addiu	a0,a0,8588
  418708:	8e020008 	lw	v0,8(s0)
  41870c:	8fbc0010 	lw	gp,16(sp)
  418710:	10400005 	beqz	v0,418728 <libxt_mac_init@@Base+0x188>
  418714:	3c040043 	lui	a0,0x43
[31m  418718:	8f9983f4 	lw	t9,printf[0m
  41871c:	0320f809 	jalr	t9
  418720:	2484c8c4 	addiu	a0,a0,-14140
--
  418904:	8fbf001c 	lw	ra,28(sp)
  418908:	03e00008 	jr	ra
  41890c:	27bd0020 	addiu	sp,sp,32

00418910 <libxt_mark_init@@Base>:
  418910:	27bdffe0 	addiu	sp,sp,-32
  418914:	afbf001c 	sw	ra,28(sp)
  418918:	3c1c0045 	lui	gp,0x45
  41891c:	279c6160 	addiu	gp,gp,24928
  418920:	afbc0010 	sw	gp,16(sp)
  418924:	3c040045 	lui	a0,0x45
  418928:	8f998148 	lw	t9,-32440(gp)
  41892c:	0320f809 	jalr	t9
  418930:	2484cc30 	addiu	a0,a0,-13264
  418934:	3c040045 	lui	a0,0x45
  418938:	8fbc0010 	lw	gp,16(sp)
  41893c:	2484cc74 	addiu	a0,a0,-13196
  418940:	8fbf001c 	lw	ra,28(sp)
  418944:	8f998148 	lw	t9,-32440(gp)
  418948:	03200008 	jr	t9
  41894c:	27bd0020 	addiu	sp,sp,32
  418950:	3c1c0045 	lui	gp,0x45
  418954:	00a03021 	move	a2,a1
  418958:	2402ffff 	li	v0,-1
  41895c:	279c6160 	addiu	gp,gp,24928
[31m  418960:	8f9983f4 	lw	t9,printf[0m
  418964:	10c20005 	beq	a2,v0,41897c <libxt_mark_init@@Base+0x6c>
  418968:	00802821 	move	a1,a0
  41896c:	3c040043 	lui	a0,0x43
  418970:	2484f4b0 	addiu	a0,a0,-2896
  418974:	03200008 	jr	t9
  418978:	00000000 	nop
  41897c:	3c040043 	lui	a0,0x43
  418980:	2484f554 	addiu	a0,a0,-2732
  418984:	03200008 	jr	t9
  418988:	00000000 	nop
  41898c:	27bdffd8 	addiu	sp,sp,-40
  418990:	afbf0024 	sw	ra,36(sp)
  418994:	afb10020 	sw	s1,32(sp)
  418998:	afb0001c 	sw	s0,28(sp)
  41899c:	3c1c0045 	lui	gp,0x45
  4189a0:	279c6160 	addiu	gp,gp,24928
  4189a4:	afbc0010 	sw	gp,16(sp)
  4189a8:	24b00020 	addiu	s0,a1,32
  4189ac:	92020008 	lbu	v0,8(s0)
  4189b0:	10400006 	beqz	v0,4189cc <libxt_mark_init@@Base+0xbc>
  4189b4:	00a08821 	move	s1,a1
[31m  4189b8:	8f9983f4 	lw	t9,printf[0m
  4189bc:	3c040043 	lui	a0,0x43
  4189c0:	0320f809 	jalr	t9
  4189c4:	2484c8c4 	addiu	a0,a0,-14140
  4189c8:	8fbc0010 	lw	gp,16(sp)
[31m  4189cc:	8f9983f4 	lw	t9,printf[0m
  4189d0:	3c040043 	lui	a0,0x43
  4189d4:	0320f809 	jalr	t9
  4189d8:	2484f3d0 	addiu	a0,a0,-3120
  4189dc:	8e240020 	lw	a0,32(s1)
  4189e0:	8e050004 	lw	a1,4(s0)
  4189e4:	8fbc0010 	lw	gp,16(sp)
  4189e8:	8fbf0024 	lw	ra,36(sp)
  4189ec:	8fb10020 	lw	s1,32(sp)
  4189f0:	8fb0001c 	lw	s0,28(sp)
  4189f4:	08106254 	j	418950 <libxt_mark_init@@Base+0x40>
  4189f8:	27bd0028 	addiu	sp,sp,40
  4189fc:	27bdffd8 	addiu	sp,sp,-40
  418a00:	afbf0024 	sw	ra,36(sp)
  418a04:	afb10020 	sw	s1,32(sp)
  418a08:	afb0001c 	sw	s0,28(sp)
  418a0c:	3c1c0045 	lui	gp,0x45
  418a10:	279c6160 	addiu	gp,gp,24928
  418a14:	afbc0010 	sw	gp,16(sp)
  418a18:	24b00020 	addiu	s0,a1,32
  418a1c:	92020008 	lbu	v0,8(s0)
  418a20:	10400006 	beqz	v0,418a3c <libxt_mark_init@@Base+0x12c>
  418a24:	00a08821 	move	s1,a1
[31m  418a28:	8f9983f4 	lw	t9,printf[0m
  418a2c:	3c040043 	lui	a0,0x43
  418a30:	0320f809 	jalr	t9
  418a34:	2484c8c4 	addiu	a0,a0,-14140
  418a38:	8fbc0010 	lw	gp,16(sp)
[31m  418a3c:	8f9983f4 	lw	t9,printf[0m
  418a40:	3c040043 	lui	a0,0x43
  418a44:	0320f809 	jalr	t9
  418a48:	2484f3d0 	addiu	a0,a0,-3120
  418a4c:	8e240020 	lw	a0,32(s1)
  418a50:	8e050004 	lw	a1,4(s0)
  418a54:	8fbc0010 	lw	gp,16(sp)
  418a58:	8fbf0024 	lw	ra,36(sp)
  418a5c:	8fb10020 	lw	s1,32(sp)
  418a60:	8fb0001c 	lw	s0,28(sp)
  418a64:	08106254 	j	418950 <libxt_mark_init@@Base+0x40>
  418a68:	27bd0028 	addiu	sp,sp,40
  418a6c:	27bdffd8 	addiu	sp,sp,-40
  418a70:	afbf0024 	sw	ra,36(sp)
  418a74:	afb10020 	sw	s1,32(sp)
  418a78:	afb0001c 	sw	s0,28(sp)
  418a7c:	3c1c0045 	lui	gp,0x45
  418a80:	279c6160 	addiu	gp,gp,24928
  418a84:	afbc0010 	sw	gp,16(sp)
  418a88:	3c040043 	lui	a0,0x43
[31m  418a8c:	8f9983f4 	lw	t9,printf[0m
  418a90:	24b00020 	addiu	s0,a1,32
  418a94:	00a08821 	move	s1,a1
  418a98:	0320f809 	jalr	t9
  418a9c:	2484f3dc 	addiu	a0,a0,-3108
  418aa0:	92020008 	lbu	v0,8(s0)
  418aa4:	8fbc0010 	lw	gp,16(sp)
  418aa8:	10400005 	beqz	v0,418ac0 <libxt_mark_init@@Base+0x1b0>
  418aac:	00000000 	nop
  418ab0:	8f998414 	lw	t9,-31724(gp)
  418ab4:	0320f809 	jalr	t9
  418ab8:	24040021 	li	a0,33
  418abc:	8fbc0010 	lw	gp,16(sp)
  418ac0:	8e240020 	lw	a0,32(s1)
  418ac4:	8e050004 	lw	a1,4(s0)
  418ac8:	8fbf0024 	lw	ra,36(sp)
  418acc:	8fb10020 	lw	s1,32(sp)
  418ad0:	8fb0001c 	lw	s0,28(sp)
  418ad4:	08106254 	j	418950 <libxt_mark_init@@Base+0x40>
  418ad8:	27bd0028 	addiu	sp,sp,40
  418adc:	27bdffd8 	addiu	sp,sp,-40
  418ae0:	afbf0024 	sw	ra,36(sp)
  418ae4:	afb10020 	sw	s1,32(sp)
  418ae8:	afb0001c 	sw	s0,28(sp)
  418aec:	3c1c0045 	lui	gp,0x45
  418af0:	279c6160 	addiu	gp,gp,24928
  418af4:	afbc0010 	sw	gp,16(sp)
  418af8:	3c040043 	lui	a0,0x43
[31m  418afc:	8f9983f4 	lw	t9,printf[0m
  418b00:	24b00020 	addiu	s0,a1,32
  418b04:	00a08821 	move	s1,a1
--
  418ee8:	8f9980c0 	lw	t9,-32576(gp)
  418eec:	0320f809 	jalr	t9
  418ef0:	2484ccc0 	addiu	a0,a0,-13120
  418ef4:	3c040045 	lui	a0,0x45
  418ef8:	8fbc0010 	lw	gp,16(sp)
  418efc:	8f9980c0 	lw	t9,-32576(gp)
  418f00:	0320f809 	jalr	t9
  418f04:	2484cd08 	addiu	a0,a0,-13048
  418f08:	3c040045 	lui	a0,0x45
  418f0c:	8fbc0010 	lw	gp,16(sp)
  418f10:	8f9980c0 	lw	t9,-32576(gp)
  418f14:	0320f809 	jalr	t9
  418f18:	2484cd50 	addiu	a0,a0,-12976
  418f1c:	3c040045 	lui	a0,0x45
  418f20:	8fbc0010 	lw	gp,16(sp)
  418f24:	2484cd98 	addiu	a0,a0,-12904
  418f28:	8fbf001c 	lw	ra,28(sp)
  418f2c:	8f9980c0 	lw	t9,-32576(gp)
  418f30:	03200008 	jr	t9
  418f34:	27bd0020 	addiu	sp,sp,32
  418f38:	3c1c0045 	lui	gp,0x45
  418f3c:	3c040043 	lui	a0,0x43
  418f40:	279c6160 	addiu	gp,gp,24928
  418f44:	2484f4a4 	addiu	a0,a0,-2908
  418f48:	8ca60024 	lw	a2,36(a1)
[31m  418f4c:	8f9983f4 	lw	t9,printf[0m
  418f50:	8ca50020 	lw	a1,32(a1)
  418f54:	03200008 	jr	t9
  418f58:	00000000 	nop
  418f5c:	00a01021 	move	v0,a1
  418f60:	8ca50020 	lw	a1,32(a1)
  418f64:	3c1c0045 	lui	gp,0x45
  418f68:	8c460024 	lw	a2,36(v0)
  418f6c:	14a00006 	bnez	a1,418f88 <libxt_MARK_init@@Base+0xb8>
  418f70:	279c6160 	addiu	gp,gp,24928
  418f74:	3c040043 	lui	a0,0x43
  418f78:	00062827 	nor	a1,zero,a2
[31m  418f7c:	8f9983f4 	lw	t9,printf[0m
  418f80:	10000005 	b	418f98 <libxt_MARK_init@@Base+0xc8>
  418f84:	2484f538 	addiu	a0,a0,-2760
  418f88:	14a60005 	bne	a1,a2,418fa0 <libxt_MARK_init@@Base+0xd0>
  418f8c:	3c040043 	lui	a0,0x43
[31m  418f90:	8f9983f4 	lw	t9,printf[0m
  418f94:	2484f54c 	addiu	a0,a0,-2740
  418f98:	03200008 	jr	t9
  418f9c:	00000000 	nop
[31m  418fa0:	8f9983f4 	lw	t9,printf[0m
  418fa4:	14c00003 	bnez	a2,418fb4 <libxt_MARK_init@@Base+0xe4>
  418fa8:	3c040043 	lui	a0,0x43
  418fac:	1000fffa 	b	418f98 <libxt_MARK_init@@Base+0xc8>
  418fb0:	2484f560 	addiu	a0,a0,-2720
  418fb4:	3c040043 	lui	a0,0x43
  418fb8:	2484f574 	addiu	a0,a0,-2700
  418fbc:	03200008 	jr	t9
  418fc0:	00000000 	nop
  418fc4:	27bdffe0 	addiu	sp,sp,-32
  418fc8:	afbf001c 	sw	ra,28(sp)
  418fcc:	afb00018 	sw	s0,24(sp)
  418fd0:	3c1c0045 	lui	gp,0x45
  418fd4:	279c6160 	addiu	gp,gp,24928
  418fd8:	afbc0010 	sw	gp,16(sp)
  418fdc:	24030001 	li	v1,1
  418fe0:	90a20024 	lbu	v0,36(a1)
  418fe4:	1043000b 	beq	v0,v1,419014 <libxt_MARK_init@@Base+0x144>
  418fe8:	00a08021 	move	s0,a1
  418fec:	10400006 	beqz	v0,419008 <libxt_MARK_init@@Base+0x138>
  418ff0:	3c040043 	lui	a0,0x43
  418ff4:	24030002 	li	v1,2
  418ff8:	1443000e 	bne	v0,v1,419034 <libxt_MARK_init@@Base+0x164>
  418ffc:	3c040043 	lui	a0,0x43
  419000:	10000008 	b	419024 <libxt_MARK_init@@Base+0x154>
  419004:	2484233c 	addiu	a0,a0,9020
[31m  419008:	8f9983f4 	lw	t9,printf[0m
  41900c:	10000006 	b	419028 <libxt_MARK_init@@Base+0x158>
  419010:	2484fad0 	addiu	a0,a0,-1328
  419014:	3c040043 	lui	a0,0x43
[31m  419018:	8f9983f4 	lw	t9,printf[0m
  41901c:	10000002 	b	419028 <libxt_MARK_init@@Base+0x158>
  419020:	24842330 	addiu	a0,a0,9008
[31m  419024:	8f9983f4 	lw	t9,printf[0m
  419028:	0320f809 	jalr	t9
  41902c:	00000000 	nop
  419030:	8fbc0010 	lw	gp,16(sp)
  419034:	8e050020 	lw	a1,32(s0)
  419038:	3c040043 	lui	a0,0x43
[31m  41903c:	8f9983f4 	lw	t9,printf[0m
  419040:	24842348 	addiu	a0,a0,9032
  419044:	8fbf001c 	lw	ra,28(sp)
  419048:	8fb00018 	lw	s0,24(sp)
  41904c:	03200008 	jr	t9
  419050:	27bd0020 	addiu	sp,sp,32
  419054:	27bdffe0 	addiu	sp,sp,-32
  419058:	afbf001c 	sw	ra,28(sp)
  41905c:	afb00018 	sw	s0,24(sp)
  419060:	3c1c0045 	lui	gp,0x45
  419064:	279c6160 	addiu	gp,gp,24928
  419068:	afbc0010 	sw	gp,16(sp)
  41906c:	24030001 	li	v1,1
  419070:	90a20024 	lbu	v0,36(a1)
  419074:	1043000b 	beq	v0,v1,4190a4 <libxt_MARK_init@@Base+0x1d4>
  419078:	00a08021 	move	s0,a1
  41907c:	10400006 	beqz	v0,419098 <libxt_MARK_init@@Base+0x1c8>
  419080:	3c040043 	lui	a0,0x43
  419084:	24030002 	li	v1,2
  419088:	1443000e 	bne	v0,v1,4190c4 <libxt_MARK_init@@Base+0x1f4>
  41908c:	3c040043 	lui	a0,0x43
  419090:	10000008 	b	4190b4 <libxt_MARK_init@@Base+0x1e4>
  419094:	2484235c 	addiu	a0,a0,9052
[31m  419098:	8f9983f4 	lw	t9,printf[0m
  41909c:	10000006 	b	4190b8 <libxt_MARK_init@@Base+0x1e8>
  4190a0:	2484fb38 	addiu	a0,a0,-1224
  4190a4:	3c040043 	lui	a0,0x43
[31m  4190a8:	8f9983f4 	lw	t9,printf[0m
  4190ac:	10000002 	b	4190b8 <libxt_MARK_init@@Base+0x1e8>
  4190b0:	24842350 	addiu	a0,a0,9040
[31m  4190b4:	8f9983f4 	lw	t9,printf[0m
  4190b8:	0320f809 	jalr	t9
  4190bc:	00000000 	nop
  4190c0:	8fbc0010 	lw	gp,16(sp)
  4190c4:	8e050020 	lw	a1,32(s0)
  4190c8:	3c040043 	lui	a0,0x43
[31m  4190cc:	8f9983f4 	lw	t9,printf[0m
  4190d0:	24842348 	addiu	a0,a0,9032
  4190d4:	8fbf001c 	lw	ra,28(sp)
  4190d8:	8fb00018 	lw	s0,24(sp)
  4190dc:	03200008 	jr	t9
  4190e0:	27bd0020 	addiu	sp,sp,32
  4190e4:	27bdffd8 	addiu	sp,sp,-40
  4190e8:	afbf0024 	sw	ra,36(sp)
  4190ec:	3c1c0045 	lui	gp,0x45
  4190f0:	279c6160 	addiu	gp,gp,24928
  4190f4:	afbc0010 	sw	gp,16(sp)
  4190f8:	3c040043 	lui	a0,0x43
[31m  4190fc:	8f9983f4 	lw	t9,printf[0m
  419100:	2484fad0 	addiu	a0,a0,-1328
  419104:	0320f809 	jalr	t9
  419108:	afa50018 	sw	a1,24(sp)
  41910c:	3c040043 	lui	a0,0x43
  419110:	8fbc0010 	lw	gp,16(sp)
  419114:	24842348 	addiu	a0,a0,9032
  419118:	8fa50018 	lw	a1,24(sp)
[31m  41911c:	8f9983f4 	lw	t9,printf[0m
  419120:	8ca50020 	lw	a1,32(a1)
  419124:	8fbf0024 	lw	ra,36(sp)
  419128:	03200008 	jr	t9
  41912c:	27bd0028 	addiu	sp,sp,40
  419130:	27bdffd8 	addiu	sp,sp,-40
  419134:	afbf0024 	sw	ra,36(sp)
  419138:	3c1c0045 	lui	gp,0x45
  41913c:	279c6160 	addiu	gp,gp,24928
  419140:	afbc0010 	sw	gp,16(sp)
  419144:	3c040043 	lui	a0,0x43
[31m  419148:	8f9983f4 	lw	t9,printf[0m
  41914c:	2484fb38 	addiu	a0,a0,-1224
  419150:	0320f809 	jalr	t9
  419154:	afa50018 	sw	a1,24(sp)
  419158:	3c040043 	lui	a0,0x43
  41915c:	8fbc0010 	lw	gp,16(sp)
  419160:	24842348 	addiu	a0,a0,9032
  419164:	8fa50018 	lw	a1,24(sp)
[31m  419168:	8f9983f4 	lw	t9,printf[0m
  41916c:	8ca50020 	lw	a1,32(a1)
  419170:	8fbf0024 	lw	ra,36(sp)
--
  41997c:	14a2000c 	bne	a1,v0,4199b0 <libxt_multiport_init@@Base+0xf8>
  419980:	3c050043 	lui	a1,0x43
  419984:	1000000b 	b	4199b4 <libxt_multiport_init@@Base+0xfc>
  419988:	24a5e25c 	addiu	a1,a1,-7588
  41998c:	3c050043 	lui	a1,0x43
  419990:	10000008 	b	4199b4 <libxt_multiport_init@@Base+0xfc>
  419994:	24a5e24c 	addiu	a1,a1,-7604
  419998:	3c050043 	lui	a1,0x43
  41999c:	10000005 	b	4199b4 <libxt_multiport_init@@Base+0xfc>
  4199a0:	24a5e250 	addiu	a1,a1,-7600
  4199a4:	3c050043 	lui	a1,0x43
  4199a8:	10000002 	b	4199b4 <libxt_multiport_init@@Base+0xfc>
  4199ac:	24a5073c 	addiu	a1,a1,1852
  4199b0:	00002821 	move	a1,zero
  4199b4:	8f998198 	lw	t9,-32360(gp)
  4199b8:	0320f809 	jalr	t9
  4199bc:	02002021 	move	a0,s0
  4199c0:	8fbc0010 	lw	gp,16(sp)
  4199c4:	10400004 	beqz	v0,4199d8 <libxt_multiport_init@@Base+0x120>
  4199c8:	00000000 	nop
  4199cc:	8c450000 	lw	a1,0(v0)
  4199d0:	14a00006 	bnez	a1,4199ec <libxt_multiport_init@@Base+0x134>
  4199d4:	00000000 	nop
  4199d8:	3c040043 	lui	a0,0x43
  4199dc:	02002821 	move	a1,s0
[31m  4199e0:	8f9983f4 	lw	t9,printf[0m
  4199e4:	10000004 	b	4199f8 <libxt_multiport_init@@Base+0x140>
  4199e8:	24842d78 	addiu	a0,a0,11640
  4199ec:	3c040044 	lui	a0,0x44
[31m  4199f0:	8f9983f4 	lw	t9,printf[0m
  4199f4:	24848b80 	addiu	a0,a0,-29824
  4199f8:	8fbf001c 	lw	ra,28(sp)
  4199fc:	8fb00018 	lw	s0,24(sp)
  419a00:	03200008 	jr	t9
  419a04:	27bd0020 	addiu	sp,sp,32
  419a08:	27bdffc8 	addiu	sp,sp,-56
  419a0c:	afbf0034 	sw	ra,52(sp)
  419a10:	afb50030 	sw	s5,48(sp)
  419a14:	afb4002c 	sw	s4,44(sp)
  419a18:	afb30028 	sw	s3,40(sp)
  419a1c:	afb20024 	sw	s2,36(sp)
  419a20:	afb10020 	sw	s1,32(sp)
  419a24:	afb0001c 	sw	s0,28(sp)
  419a28:	3c1c0045 	lui	gp,0x45
  419a2c:	279c6160 	addiu	gp,gp,24928
  419a30:	afbc0010 	sw	gp,16(sp)
  419a34:	24910020 	addiu	s1,a0,32
  419a38:	00808021 	move	s0,a0
  419a3c:	9222002f 	lbu	v0,47(s1)
  419a40:	10400006 	beqz	v0,419a5c <libxt_multiport_init@@Base+0x1a4>
  419a44:	30b2ffff 	andi	s2,a1,0xffff
[31m  419a48:	8f9983f4 	lw	t9,printf[0m
  419a4c:	3c040043 	lui	a0,0x43
  419a50:	0320f809 	jalr	t9
  419a54:	2484c8c4 	addiu	a0,a0,-14140
  419a58:	8fbc0010 	lw	gp,16(sp)
  419a5c:	92020020 	lbu	v0,32(s0)
  419a60:	24030001 	li	v1,1
  419a64:	1043000b 	beq	v0,v1,419a94 <libxt_multiport_init@@Base+0x1dc>
  419a68:	00000000 	nop
  419a6c:	10400005 	beqz	v0,419a84 <libxt_multiport_init@@Base+0x1cc>
  419a70:	24030002 	li	v1,2
  419a74:	1443000f 	bne	v0,v1,419ab4 <libxt_multiport_init@@Base+0x1fc>
  419a78:	3c040043 	lui	a0,0x43
  419a7c:	10000009 	b	419aa4 <libxt_multiport_init@@Base+0x1ec>
  419a80:	248426b4 	addiu	a0,a0,9908
  419a84:	3c040043 	lui	a0,0x43
[31m  419a88:	8f9983f4 	lw	t9,printf[0m
  419a8c:	10000006 	b	419aa8 <libxt_multiport_init@@Base+0x1f0>
  419a90:	2484269c 	addiu	a0,a0,9884
  419a94:	3c040043 	lui	a0,0x43
[31m  419a98:	8f9983f4 	lw	t9,printf[0m
  419a9c:	10000002 	b	419aa8 <libxt_multiport_init@@Base+0x1f0>
  419aa0:	248426a8 	addiu	a0,a0,9896
[31m  419aa4:	8f9983f4 	lw	t9,printf[0m
  419aa8:	0320f809 	jalr	t9
  419aac:	00000000 	nop
--
  419ae4:	24060001 	li	a2,1
  419ae8:	02221021 	addu	v0,s1,v0
  419aec:	94440002 	lhu	a0,2(v0)
  419af0:	0c106648 	jal	419920 <libxt_multiport_init@@Base+0x68>
  419af4:	02402821 	move	a1,s2
  419af8:	02301021 	addu	v0,s1,s0
  419afc:	90420020 	lbu	v0,32(v0)
  419b00:	8fbc0010 	lw	gp,16(sp)
  419b04:	1040000b 	beqz	v0,419b34 <libxt_multiport_init@@Base+0x27c>
  419b08:	2404003a 	li	a0,58
  419b0c:	8f998414 	lw	t9,-31724(gp)
  419b10:	0320f809 	jalr	t9
  419b14:	26100001 	addiu	s0,s0,1
  419b18:	00101040 	sll	v0,s0,0x1
  419b1c:	24060001 	li	a2,1
  419b20:	02221021 	addu	v0,s1,v0
  419b24:	94440002 	lhu	a0,2(v0)
  419b28:	0c106648 	jal	419920 <libxt_multiport_init@@Base+0x68>
  419b2c:	02402821 	move	a1,s2
  419b30:	8fbc0010 	lw	gp,16(sp)
  419b34:	26100001 	addiu	s0,s0,1
  419b38:	92220001 	lbu	v0,1(s1)
  419b3c:	02802821 	move	a1,s4
  419b40:	02b0280b 	0x2b0280b
  419b44:	0202102b 	sltu	v0,s0,v0
[31m  419b48:	8f9983f4 	lw	t9,printf[0m
  419b4c:	1440ffe2 	bnez	v0,419ad8 <libxt_multiport_init@@Base+0x220>
  419b50:	02602021 	move	a0,s3
--
  419b74:	8fb0001c 	lw	s0,28(sp)
  419b78:	03200008 	jr	t9
  419b7c:	27bd0038 	addiu	sp,sp,56
  419b80:	94820080 	lhu	v0,128(a0)
  419b84:	00a02021 	move	a0,a1
  419b88:	00402821 	move	a1,v0
  419b8c:	08106682 	j	419a08 <libxt_multiport_init@@Base+0x150>
  419b90:	00000000 	nop
  419b94:	94820050 	lhu	v0,80(a0)
  419b98:	00a02021 	move	a0,a1
  419b9c:	00402821 	move	a1,v0
  419ba0:	08106682 	j	419a08 <libxt_multiport_init@@Base+0x150>
  419ba4:	00000000 	nop
  419ba8:	27bdffc8 	addiu	sp,sp,-56
  419bac:	afbf0034 	sw	ra,52(sp)
  419bb0:	afb60030 	sw	s6,48(sp)
  419bb4:	afb5002c 	sw	s5,44(sp)
  419bb8:	afb40028 	sw	s4,40(sp)
  419bbc:	afb30024 	sw	s3,36(sp)
  419bc0:	afb20020 	sw	s2,32(sp)
  419bc4:	afb1001c 	sw	s1,28(sp)
  419bc8:	afb00018 	sw	s0,24(sp)
  419bcc:	3c1c0045 	lui	gp,0x45
  419bd0:	279c6160 	addiu	gp,gp,24928
  419bd4:	afbc0010 	sw	gp,16(sp)
[31m  419bd8:	8f9983f4 	lw	t9,printf[0m
  419bdc:	00808021 	move	s0,a0
  419be0:	3c040043 	lui	a0,0x43
  419be4:	248426c0 	addiu	a0,a0,9920
  419be8:	00a09821 	move	s3,a1
  419bec:	26110020 	addiu	s1,s0,32
  419bf0:	0320f809 	jalr	t9
  419bf4:	30d2ffff 	andi	s2,a2,0xffff
  419bf8:	24030001 	li	v1,1
  419bfc:	92020020 	lbu	v0,32(s0)
  419c00:	8fbc0010 	lw	gp,16(sp)
  419c04:	1043000c 	beq	v0,v1,419c38 <libxt_multiport_init@@Base+0x380>
  419c08:	3c040043 	lui	a0,0x43
  419c0c:	10400007 	beqz	v0,419c2c <libxt_multiport_init@@Base+0x374>
  419c10:	3c040043 	lui	a0,0x43
  419c14:	24030002 	li	v1,2
[31m  419c18:	8f9983f4 	lw	t9,printf[0m
  419c1c:	14430009 	bne	v0,v1,419c44 <libxt_multiport_init@@Base+0x38c>
  419c20:	3c040043 	lui	a0,0x43
  419c24:	10000009 	b	419c4c <libxt_multiport_init@@Base+0x394>
  419c28:	248426dc 	addiu	a0,a0,9948
[31m  419c2c:	8f9983f4 	lw	t9,printf[0m
  419c30:	10000006 	b	419c4c <libxt_multiport_init@@Base+0x394>
  419c34:	248426cc 	addiu	a0,a0,9932
[31m  419c38:	8f9983f4 	lw	t9,printf[0m
  419c3c:	10000003 	b	419c4c <libxt_multiport_init@@Base+0x394>
  419c40:	248426d4 	addiu	a0,a0,9940
  419c44:	3c040043 	lui	a0,0x43
  419c48:	248426e4 	addiu	a0,a0,9956
  419c4c:	0320f809 	jalr	t9
  419c50:	00000000 	nop
  419c54:	9222002f 	lbu	v0,47(s1)
  419c58:	8fbc0010 	lw	gp,16(sp)
  419c5c:	10400005 	beqz	v0,419c74 <libxt_multiport_init@@Base+0x3bc>
  419c60:	3c040043 	lui	a0,0x43
[31m  419c64:	8f9983f4 	lw	t9,printf[0m
  419c68:	0320f809 	jalr	t9
  419c6c:	2484c8c4 	addiu	a0,a0,-14140
--
  419ca4:	02221021 	addu	v0,s1,v0
  419ca8:	02402821 	move	a1,s2
  419cac:	94440002 	lhu	a0,2(v0)
  419cb0:	0c106648 	jal	419920 <libxt_multiport_init@@Base+0x68>
  419cb4:	02603021 	move	a2,s3
  419cb8:	02301021 	addu	v0,s1,s0
  419cbc:	90420020 	lbu	v0,32(v0)
  419cc0:	8fbc0010 	lw	gp,16(sp)
  419cc4:	1040000b 	beqz	v0,419cf4 <libxt_multiport_init@@Base+0x43c>
  419cc8:	2404003a 	li	a0,58
  419ccc:	8f998414 	lw	t9,-31724(gp)
  419cd0:	0320f809 	jalr	t9
  419cd4:	26100001 	addiu	s0,s0,1
  419cd8:	00101040 	sll	v0,s0,0x1
  419cdc:	02221021 	addu	v0,s1,v0
  419ce0:	02402821 	move	a1,s2
  419ce4:	94440002 	lhu	a0,2(v0)
  419ce8:	0c106648 	jal	419920 <libxt_multiport_init@@Base+0x68>
  419cec:	02603021 	move	a2,s3
  419cf0:	8fbc0010 	lw	gp,16(sp)
  419cf4:	26100001 	addiu	s0,s0,1
  419cf8:	92220001 	lbu	v0,1(s1)
  419cfc:	02a02821 	move	a1,s5
  419d00:	02d0280b 	0x2d0280b
  419d04:	0202102b 	sltu	v0,s0,v0
[31m  419d08:	8f9983f4 	lw	t9,printf[0m
  419d0c:	1440ffe2 	bnez	v0,419c98 <libxt_multiport_init@@Base+0x3e0>
  419d10:	02802021 	move	a0,s4
--
  419d70:	00000000 	nop
  419d74:	27bdffc8 	addiu	sp,sp,-56
  419d78:	afbf0034 	sw	ra,52(sp)
  419d7c:	afb60030 	sw	s6,48(sp)
  419d80:	afb5002c 	sw	s5,44(sp)
  419d84:	afb40028 	sw	s4,40(sp)
  419d88:	afb30024 	sw	s3,36(sp)
  419d8c:	afb20020 	sw	s2,32(sp)
  419d90:	afb1001c 	sw	s1,28(sp)
  419d94:	afb00018 	sw	s0,24(sp)
  419d98:	3c1c0045 	lui	gp,0x45
  419d9c:	279c6160 	addiu	gp,gp,24928
  419da0:	afbc0010 	sw	gp,16(sp)
  419da4:	24030001 	li	v1,1
  419da8:	90820020 	lbu	v0,32(a0)
  419dac:	30b6ffff 	andi	s6,a1,0xffff
  419db0:	1043000b 	beq	v0,v1,419de0 <libxt_multiport_init@@Base+0x528>
  419db4:	24920020 	addiu	s2,a0,32
  419db8:	10400006 	beqz	v0,419dd4 <libxt_multiport_init@@Base+0x51c>
  419dbc:	3c040043 	lui	a0,0x43
  419dc0:	24030002 	li	v1,2
  419dc4:	1443000e 	bne	v0,v1,419e00 <libxt_multiport_init@@Base+0x548>
  419dc8:	3c040043 	lui	a0,0x43
  419dcc:	10000008 	b	419df0 <libxt_multiport_init@@Base+0x538>
  419dd0:	248426b4 	addiu	a0,a0,9908
[31m  419dd4:	8f9983f4 	lw	t9,printf[0m
  419dd8:	10000006 	b	419df4 <libxt_multiport_init@@Base+0x53c>
  419ddc:	2484269c 	addiu	a0,a0,9884
  419de0:	3c040043 	lui	a0,0x43
[31m  419de4:	8f9983f4 	lw	t9,printf[0m
  419de8:	10000002 	b	419df4 <libxt_multiport_init@@Base+0x53c>
  419dec:	248426a8 	addiu	a0,a0,9896
[31m  419df0:	8f9983f4 	lw	t9,printf[0m
  419df4:	0320f809 	jalr	t9
  419df8:	00000000 	nop
  419dfc:	8fbc0010 	lw	gp,16(sp)
  419e00:	3c150043 	lui	s5,0x43
  419e04:	3c140043 	lui	s4,0x43
  419e08:	32d600ff 	andi	s6,s6,0xff
  419e0c:	3c130044 	lui	s3,0x44
  419e10:	26b5feb8 	addiu	s5,s5,-328
  419e14:	02408821 	move	s1,s2
  419e18:	26943f34 	addiu	s4,s4,16180
  419e1c:	26738b80 	addiu	s3,s3,-29824
  419e20:	10000009 	b	419e48 <libxt_multiport_init@@Base+0x590>
  419e24:	00008021 	move	s0,zero
  419e28:	0320f809 	jalr	t9
  419e2c:	00000000 	nop
  419e30:	02c02821 	move	a1,s6
  419e34:	24060001 	li	a2,1
  419e38:	96240002 	lhu	a0,2(s1)
  419e3c:	0c106648 	jal	419920 <libxt_multiport_init@@Base+0x68>
  419e40:	26310002 	addiu	s1,s1,2
  419e44:	8fbc0010 	lw	gp,16(sp)
  419e48:	92420001 	lbu	v0,1(s2)
  419e4c:	02802821 	move	a1,s4
  419e50:	02b0280b 	0x2b0280b
  419e54:	02602021 	move	a0,s3
  419e58:	0202102b 	sltu	v0,s0,v0
[31m  419e5c:	8f9983f4 	lw	t9,printf[0m
  419e60:	1440fff1 	bnez	v0,419e28 <libxt_multiport_init@@Base+0x570>
  419e64:	26100001 	addiu	s0,s0,1
--
  419e90:	03200008 	jr	t9
  419e94:	27bd0038 	addiu	sp,sp,56
  419e98:	94820080 	lhu	v0,128(a0)
  419e9c:	00a02021 	move	a0,a1
  419ea0:	00402821 	move	a1,v0
  419ea4:	0810675d 	j	419d74 <libxt_multiport_init@@Base+0x4bc>
  419ea8:	00000000 	nop
  419eac:	94820050 	lhu	v0,80(a0)
  419eb0:	00a02021 	move	a0,a1
  419eb4:	00402821 	move	a1,v0
  419eb8:	0810675d 	j	419d74 <libxt_multiport_init@@Base+0x4bc>
  419ebc:	00000000 	nop
  419ec0:	27bdffc0 	addiu	sp,sp,-64
  419ec4:	afbf003c 	sw	ra,60(sp)
  419ec8:	afb70038 	sw	s7,56(sp)
  419ecc:	afb60034 	sw	s6,52(sp)
  419ed0:	afb50030 	sw	s5,48(sp)
  419ed4:	afb4002c 	sw	s4,44(sp)
  419ed8:	afb30028 	sw	s3,40(sp)
  419edc:	afb20024 	sw	s2,36(sp)
  419ee0:	afb10020 	sw	s1,32(sp)
  419ee4:	afb0001c 	sw	s0,28(sp)
  419ee8:	3c1c0045 	lui	gp,0x45
  419eec:	279c6160 	addiu	gp,gp,24928
  419ef0:	afbc0010 	sw	gp,16(sp)
[31m  419ef4:	8f9983f4 	lw	t9,printf[0m
  419ef8:	00808021 	move	s0,a0
  419efc:	3c040043 	lui	a0,0x43
  419f00:	248426c0 	addiu	a0,a0,9920
  419f04:	00a09821 	move	s3,a1
  419f08:	26120020 	addiu	s2,s0,32
  419f0c:	0320f809 	jalr	t9
  419f10:	30d7ffff 	andi	s7,a2,0xffff
  419f14:	24030001 	li	v1,1
  419f18:	92020020 	lbu	v0,32(s0)
  419f1c:	8fbc0010 	lw	gp,16(sp)
  419f20:	10430017 	beq	v0,v1,419f80 <libxt_multiport_init@@Base+0x6c8>
  419f24:	3c040043 	lui	a0,0x43
  419f28:	10400007 	beqz	v0,419f48 <libxt_multiport_init@@Base+0x690>
  419f2c:	3c040043 	lui	a0,0x43
  419f30:	24030002 	li	v1,2
[31m  419f34:	8f9983f4 	lw	t9,printf[0m
  419f38:	14430016 	bne	v0,v1,419f94 <libxt_multiport_init@@Base+0x6dc>
  419f3c:	00000000 	nop
  419f40:	10000012 	b	419f8c <libxt_multiport_init@@Base+0x6d4>
  419f44:	3c040043 	lui	a0,0x43
[31m  419f48:	8f9983f4 	lw	t9,printf[0m
  419f4c:	248426cc 	addiu	a0,a0,9932
  419f50:	3c160043 	lui	s6,0x43
  419f54:	3c150043 	lui	s5,0x43
  419f58:	32f700ff 	andi	s7,s7,0xff
  419f5c:	3c140044 	lui	s4,0x44
  419f60:	26d6feb8 	addiu	s6,s6,-328
  419f64:	0320f809 	jalr	t9
  419f68:	02408821 	move	s1,s2
  419f6c:	26b53f34 	addiu	s5,s5,16180
  419f70:	8fbc0010 	lw	gp,16(sp)
  419f74:	26948b80 	addiu	s4,s4,-29824
  419f78:	10000011 	b	419fc0 <libxt_multiport_init@@Base+0x708>
  419f7c:	00008021 	move	s0,zero
[31m  419f80:	8f9983f4 	lw	t9,printf[0m
  419f84:	1000fff2 	b	419f50 <libxt_multiport_init@@Base+0x698>
  419f88:	248426d4 	addiu	a0,a0,9940
  419f8c:	1000fff0 	b	419f50 <libxt_multiport_init@@Base+0x698>
  419f90:	248426dc 	addiu	a0,a0,9948
  419f94:	3c040043 	lui	a0,0x43
  419f98:	1000ffed 	b	419f50 <libxt_multiport_init@@Base+0x698>
  419f9c:	248426e4 	addiu	a0,a0,9956
  419fa0:	0320f809 	jalr	t9
  419fa4:	00000000 	nop
  419fa8:	02e02821 	move	a1,s7
  419fac:	96240002 	lhu	a0,2(s1)
  419fb0:	02603021 	move	a2,s3
  419fb4:	0c106648 	jal	419920 <libxt_multiport_init@@Base+0x68>
  419fb8:	26310002 	addiu	s1,s1,2
  419fbc:	8fbc0010 	lw	gp,16(sp)
  419fc0:	92420001 	lbu	v0,1(s2)
  419fc4:	02a02821 	move	a1,s5
  419fc8:	02d0280b 	0x2d0280b
  419fcc:	02802021 	move	a0,s4
  419fd0:	0202102b 	sltu	v0,s0,v0
[31m  419fd4:	8f9983f4 	lw	t9,printf[0m
  419fd8:	1440fff1 	bnez	v0,419fa0 <libxt_multiport_init@@Base+0x6e8>
  419fdc:	26100001 	addiu	s0,s0,1
--
  41a84c:	3c1c0045 	lui	gp,0x45
  41a850:	279c6160 	addiu	gp,gp,24928
  41a854:	afbc0010 	sw	gp,16(sp)
  41a858:	3c040045 	lui	a0,0x45
  41a85c:	8f9980c0 	lw	t9,-32576(gp)
  41a860:	0320f809 	jalr	t9
  41a864:	2484cef0 	addiu	a0,a0,-12560
  41a868:	3c040045 	lui	a0,0x45
  41a86c:	8fbc0010 	lw	gp,16(sp)
  41a870:	2484cf38 	addiu	a0,a0,-12488
  41a874:	8fbf001c 	lw	ra,28(sp)
  41a878:	8f9980c0 	lw	t9,-32576(gp)
  41a87c:	03200008 	jr	t9
  41a880:	27bd0020 	addiu	sp,sp,32
  41a884:	27bdffd8 	addiu	sp,sp,-40
  41a888:	afbf0024 	sw	ra,36(sp)
  41a88c:	afb10020 	sw	s1,32(sp)
  41a890:	afb0001c 	sw	s0,28(sp)
  41a894:	3c1c0045 	lui	gp,0x45
  41a898:	279c6160 	addiu	gp,gp,24928
  41a89c:	afbc0010 	sw	gp,16(sp)
  41a8a0:	8082000c 	lb	v0,12(a0)
  41a8a4:	00808021 	move	s0,a0
  41a8a8:	1040000a 	beqz	v0,41a8d4 <libxt_NFLOG_init@@Base+0x90>
  41a8ac:	00a08821 	move	s1,a1
[31m  41a8b0:	8f9983f4 	lw	t9,printf[0m
  41a8b4:	3c040043 	lui	a0,0x43
  41a8b8:	0320f809 	jalr	t9
  41a8bc:	24842a18 	addiu	a0,a0,10776
  41a8c0:	8fbc0010 	lw	gp,16(sp)
  41a8c4:	8f9980ac 	lw	t9,-32596(gp)
  41a8c8:	0320f809 	jalr	t9
  41a8cc:	2604000c 	addiu	a0,s0,12
  41a8d0:	8fbc0010 	lw	gp,16(sp)
  41a8d4:	96060004 	lhu	a2,4(s0)
  41a8d8:	10c00006 	beqz	a2,41a8f4 <libxt_NFLOG_init@@Base+0xb0>
  41a8dc:	02202821 	move	a1,s1
[31m  41a8e0:	8f9983f4 	lw	t9,printf[0m
  41a8e4:	3c040043 	lui	a0,0x43
  41a8e8:	0320f809 	jalr	t9
  41a8ec:	24842a28 	addiu	a0,a0,10792
  41a8f0:	8fbc0010 	lw	gp,16(sp)
  41a8f4:	8e060000 	lw	a2,0(s0)
  41a8f8:	10c00006 	beqz	a2,41a914 <libxt_NFLOG_init@@Base+0xd0>
  41a8fc:	02202821 	move	a1,s1
[31m  41a900:	8f9983f4 	lw	t9,printf[0m
  41a904:	3c040043 	lui	a0,0x43
  41a908:	0320f809 	jalr	t9
  41a90c:	24842a3c 	addiu	a0,a0,10812
  41a910:	8fbc0010 	lw	gp,16(sp)
  41a914:	96060006 	lhu	a2,6(s0)
  41a918:	24020001 	li	v0,1
  41a91c:	10c20009 	beq	a2,v0,41a944 <libxt_NFLOG_init@@Base+0x100>
  41a920:	02202821 	move	a1,s1
[31m  41a924:	8f9983f4 	lw	t9,printf[0m
  41a928:	3c040043 	lui	a0,0x43
  41a92c:	8fbf0024 	lw	ra,36(sp)
--
  41ac50:	00000000 	nop
	...

0041ac60 <libxt_NFQUEUE_init@@Base>:
  41ac60:	27bdffe0 	addiu	sp,sp,-32
  41ac64:	afbf001c 	sw	ra,28(sp)
  41ac68:	3c1c0045 	lui	gp,0x45
  41ac6c:	279c6160 	addiu	gp,gp,24928
  41ac70:	afbc0010 	sw	gp,16(sp)
  41ac74:	3c040045 	lui	a0,0x45
  41ac78:	8f9980c0 	lw	t9,-32576(gp)
  41ac7c:	0320f809 	jalr	t9
  41ac80:	2484cf80 	addiu	a0,a0,-12416
  41ac84:	3c040045 	lui	a0,0x45
  41ac88:	8fbc0010 	lw	gp,16(sp)
  41ac8c:	2484cfc8 	addiu	a0,a0,-12344
  41ac90:	8fbf001c 	lw	ra,28(sp)
  41ac94:	8f9980c0 	lw	t9,-32576(gp)
  41ac98:	03200008 	jr	t9
  41ac9c:	27bd0020 	addiu	sp,sp,32
  41aca0:	3c1c0045 	lui	gp,0x45
  41aca4:	3c040043 	lui	a0,0x43
  41aca8:	279c6160 	addiu	gp,gp,24928
  41acac:	24842d5c 	addiu	a0,a0,11612
  41acb0:	94a50020 	lhu	a1,32(a1)
[31m  41acb4:	8f9983f4 	lw	t9,printf[0m
  41acb8:	03200008 	jr	t9
  41acbc:	00000000 	nop
  41acc0:	3c1c0045 	lui	gp,0x45
  41acc4:	3c040043 	lui	a0,0x43
  41acc8:	279c6160 	addiu	gp,gp,24928
  41accc:	24842d6c 	addiu	a0,a0,11628
  41acd0:	94a50020 	lhu	a1,32(a1)
[31m  41acd4:	8f9983f4 	lw	t9,printf[0m
  41acd8:	03200008 	jr	t9
  41acdc:	00000000 	nop
--
  41aec0:	8fbc0010 	lw	gp,16(sp)
  41aec4:	2484d16c 	addiu	a0,a0,-11924
  41aec8:	8fbf001c 	lw	ra,28(sp)
  41aecc:	8f998148 	lw	t9,-32440(gp)
  41aed0:	03200008 	jr	t9
  41aed4:	27bd0020 	addiu	sp,sp,32
  41aed8:	27bdffc8 	addiu	sp,sp,-56
  41aedc:	afbf0034 	sw	ra,52(sp)
  41aee0:	afb30030 	sw	s3,48(sp)
  41aee4:	afb2002c 	sw	s2,44(sp)
  41aee8:	afb10028 	sw	s1,40(sp)
  41aeec:	afb00024 	sw	s0,36(sp)
  41aef0:	3c1c0045 	lui	gp,0x45
  41aef4:	279c6160 	addiu	gp,gp,24928
  41aef8:	afbc0010 	sw	gp,16(sp)
  41aefc:	90820010 	lbu	v0,16(a0)
  41af00:	30d100ff 	andi	s1,a2,0xff
  41af04:	00808021 	move	s0,a0
  41af08:	02221024 	and	v0,s1,v0
  41af0c:	10400054 	beqz	v0,41b060 <libxt_owner_init@@Base+0x1f0>
  41af10:	30f300ff 	andi	s3,a3,0xff
  41af14:	90820011 	lbu	v0,17(a0)
  41af18:	02221024 	and	v0,s1,v0
  41af1c:	10400009 	beqz	v0,41af44 <libxt_owner_init@@Base+0xd4>
  41af20:	3c120043 	lui	s2,0x43
[31m  41af24:	8f9983f4 	lw	t9,printf[0m
  41af28:	3c040043 	lui	a0,0x43
  41af2c:	afa50018 	sw	a1,24(sp)
  41af30:	0320f809 	jalr	t9
  41af34:	2484c8c4 	addiu	a0,a0,-14140
  41af38:	8fbc0010 	lw	gp,16(sp)
  41af3c:	8fa50018 	lw	a1,24(sp)
  41af40:	3c120043 	lui	s2,0x43
[31m  41af44:	8f9983f4 	lw	t9,printf[0m
  41af48:	2652ca28 	addiu	s2,s2,-13784
  41af4c:	0320f809 	jalr	t9
--
  41af70:	00000000 	nop
  41af74:	10000013 	b	41afc4 <libxt_owner_init@@Base+0x154>
  41af78:	00000000 	nop
  41af7c:	8e040000 	lw	a0,0(s0)
  41af80:	8e060004 	lw	a2,4(s0)
  41af84:	14860013 	bne	a0,a2,41afd4 <libxt_owner_init@@Base+0x164>
  41af88:	00802821 	move	a1,a0
  41af8c:	1660000a 	bnez	s3,41afb8 <libxt_owner_init@@Base+0x148>
  41af90:	00000000 	nop
  41af94:	8f998170 	lw	t9,-32400(gp)
  41af98:	0320f809 	jalr	t9
  41af9c:	00000000 	nop
  41afa0:	8fbc0010 	lw	gp,16(sp)
  41afa4:	10400004 	beqz	v0,41afb8 <libxt_owner_init@@Base+0x148>
  41afa8:	00000000 	nop
  41afac:	8c450000 	lw	a1,0(v0)
  41afb0:	14a0001d 	bnez	a1,41b028 <libxt_owner_init@@Base+0x1b8>
  41afb4:	00000000 	nop
  41afb8:	8e050000 	lw	a1,0(s0)
  41afbc:	1000001f 	b	41b03c <libxt_owner_init@@Base+0x1cc>
  41afc0:	3c040043 	lui	a0,0x43
  41afc4:	8e040008 	lw	a0,8(s0)
  41afc8:	8e06000c 	lw	a2,12(s0)
  41afcc:	1086000b 	beq	a0,a2,41affc <libxt_owner_init@@Base+0x18c>
  41afd0:	00802821 	move	a1,a0
[31m  41afd4:	8f9983f4 	lw	t9,printf[0m
  41afd8:	3c040043 	lui	a0,0x43
  41afdc:	8fbf0034 	lw	ra,52(sp)
  41afe0:	24842ed8 	addiu	a0,a0,11992
  41afe4:	8fb30030 	lw	s3,48(sp)
  41afe8:	8fb2002c 	lw	s2,44(sp)
  41afec:	8fb10028 	lw	s1,40(sp)
  41aff0:	8fb00024 	lw	s0,36(sp)
  41aff4:	03200008 	jr	t9
  41aff8:	27bd0038 	addiu	sp,sp,56
  41affc:	1660000d 	bnez	s3,41b034 <libxt_owner_init@@Base+0x1c4>
  41b000:	00000000 	nop
  41b004:	8f9983b8 	lw	t9,-31816(gp)
  41b008:	0320f809 	jalr	t9
  41b00c:	00000000 	nop
  41b010:	8fbc0010 	lw	gp,16(sp)
  41b014:	10400007 	beqz	v0,41b034 <libxt_owner_init@@Base+0x1c4>
  41b018:	00000000 	nop
  41b01c:	8c450000 	lw	a1,0(v0)
  41b020:	10a00004 	beqz	a1,41b034 <libxt_owner_init@@Base+0x1c4>
  41b024:	00000000 	nop
[31m  41b028:	8f9983f4 	lw	t9,printf[0m
  41b02c:	10000005 	b	41b044 <libxt_owner_init@@Base+0x1d4>
  41b030:	02402021 	move	a0,s2
  41b034:	8e050008 	lw	a1,8(s0)
  41b038:	3c040043 	lui	a0,0x43
[31m  41b03c:	8f9983f4 	lw	t9,printf[0m
  41b040:	2484391c 	addiu	a0,a0,14620
  41b044:	8fbf0034 	lw	ra,52(sp)
--
  41b138:	24a52f2c 	addiu	a1,a1,12076
  41b13c:	8fb10020 	lw	s1,32(sp)
  41b140:	24060002 	li	a2,2
  41b144:	8fb0001c 	lw	s0,28(sp)
  41b148:	08106bb6 	j	41aed8 <libxt_owner_init@@Base+0x68>
  41b14c:	27bd0028 	addiu	sp,sp,40
  41b150:	27bdffc8 	addiu	sp,sp,-56
  41b154:	afbf0034 	sw	ra,52(sp)
  41b158:	afb30030 	sw	s3,48(sp)
  41b15c:	afb2002c 	sw	s2,44(sp)
  41b160:	afb10028 	sw	s1,40(sp)
  41b164:	afb00024 	sw	s0,36(sp)
  41b168:	3c1c0045 	lui	gp,0x45
  41b16c:	279c6160 	addiu	gp,gp,24928
  41b170:	afbc0010 	sw	gp,16(sp)
  41b174:	90820010 	lbu	v0,16(a0)
  41b178:	30d100ff 	andi	s1,a2,0xff
  41b17c:	00808021 	move	s0,a0
  41b180:	02221024 	and	v0,s1,v0
  41b184:	10400052 	beqz	v0,41b2d0 <libxt_owner_init@@Base+0x460>
  41b188:	30f300ff 	andi	s3,a3,0xff
  41b18c:	90820011 	lbu	v0,17(a0)
  41b190:	02221024 	and	v0,s1,v0
  41b194:	10400009 	beqz	v0,41b1bc <libxt_owner_init@@Base+0x34c>
  41b198:	3c120043 	lui	s2,0x43
[31m  41b19c:	8f9983f4 	lw	t9,printf[0m
  41b1a0:	3c040043 	lui	a0,0x43
  41b1a4:	afa50018 	sw	a1,24(sp)
  41b1a8:	0320f809 	jalr	t9
  41b1ac:	2484c8c4 	addiu	a0,a0,-14140
  41b1b0:	8fbc0010 	lw	gp,16(sp)
  41b1b4:	8fa50018 	lw	a1,24(sp)
  41b1b8:	3c120043 	lui	s2,0x43
[31m  41b1bc:	8f9983f4 	lw	t9,printf[0m
  41b1c0:	2652ca28 	addiu	s2,s2,-13784
  41b1c4:	0320f809 	jalr	t9
--
  41b220:	8f998170 	lw	t9,-32400(gp)
  41b224:	8e040000 	lw	a0,0(s0)
  41b228:	0320f809 	jalr	t9
  41b22c:	00000000 	nop
  41b230:	8fbc0010 	lw	gp,16(sp)
  41b234:	10400004 	beqz	v0,41b248 <libxt_owner_init@@Base+0x3d8>
  41b238:	00000000 	nop
  41b23c:	8c450000 	lw	a1,0(v0)
  41b240:	14a00010 	bnez	a1,41b284 <libxt_owner_init@@Base+0x414>
  41b244:	00000000 	nop
  41b248:	8e050000 	lw	a1,0(s0)
  41b24c:	10000017 	b	41b2ac <libxt_owner_init@@Base+0x43c>
  41b250:	3c040043 	lui	a0,0x43
  41b254:	1660000e 	bnez	s3,41b290 <libxt_owner_init@@Base+0x420>
  41b258:	00000000 	nop
  41b25c:	8f9983b8 	lw	t9,-31816(gp)
  41b260:	8e040004 	lw	a0,4(s0)
  41b264:	0320f809 	jalr	t9
  41b268:	00000000 	nop
  41b26c:	8fbc0010 	lw	gp,16(sp)
  41b270:	10400007 	beqz	v0,41b290 <libxt_owner_init@@Base+0x420>
  41b274:	00000000 	nop
  41b278:	8c450000 	lw	a1,0(v0)
  41b27c:	10a00004 	beqz	a1,41b290 <libxt_owner_init@@Base+0x420>
  41b280:	00000000 	nop
[31m  41b284:	8f9983f4 	lw	t9,printf[0m
  41b288:	1000000a 	b	41b2b4 <libxt_owner_init@@Base+0x444>
  41b28c:	02402021 	move	a0,s2
  41b290:	8e050004 	lw	a1,4(s0)
  41b294:	10000005 	b	41b2ac <libxt_owner_init@@Base+0x43c>
  41b298:	3c040043 	lui	a0,0x43
  41b29c:	8e050008 	lw	a1,8(s0)
  41b2a0:	10000002 	b	41b2ac <libxt_owner_init@@Base+0x43c>
  41b2a4:	3c040043 	lui	a0,0x43
  41b2a8:	8e05000c 	lw	a1,12(s0)
[31m  41b2ac:	8f9983f4 	lw	t9,printf[0m
  41b2b0:	2484391c 	addiu	a0,a0,14620
  41b2b4:	8fbf0034 	lw	ra,52(sp)
--
  41b3d8:	24a52f64 	addiu	a1,a1,12132
  41b3dc:	8fb10020 	lw	s1,32(sp)
  41b3e0:	24060008 	li	a2,8
  41b3e4:	8fb0001c 	lw	s0,28(sp)
  41b3e8:	08106c54 	j	41b150 <libxt_owner_init@@Base+0x2e0>
  41b3ec:	27bd0028 	addiu	sp,sp,40
  41b3f0:	27bdffc8 	addiu	sp,sp,-56
  41b3f4:	afbf0034 	sw	ra,52(sp)
  41b3f8:	afb30030 	sw	s3,48(sp)
  41b3fc:	afb2002c 	sw	s2,44(sp)
  41b400:	afb10028 	sw	s1,40(sp)
  41b404:	afb00024 	sw	s0,36(sp)
  41b408:	3c1c0045 	lui	gp,0x45
  41b40c:	279c6160 	addiu	gp,gp,24928
  41b410:	afbc0010 	sw	gp,16(sp)
  41b414:	90820020 	lbu	v0,32(a0)
  41b418:	30d100ff 	andi	s1,a2,0xff
  41b41c:	00808021 	move	s0,a0
  41b420:	02221024 	and	v0,s1,v0
  41b424:	1040005a 	beqz	v0,41b590 <libxt_owner_init@@Base+0x720>
  41b428:	30f300ff 	andi	s3,a3,0xff
  41b42c:	90820021 	lbu	v0,33(a0)
  41b430:	02221024 	and	v0,s1,v0
  41b434:	10400009 	beqz	v0,41b45c <libxt_owner_init@@Base+0x5ec>
  41b438:	3c120043 	lui	s2,0x43
[31m  41b43c:	8f9983f4 	lw	t9,printf[0m
  41b440:	3c040043 	lui	a0,0x43
  41b444:	afa50018 	sw	a1,24(sp)
  41b448:	0320f809 	jalr	t9
  41b44c:	2484c8c4 	addiu	a0,a0,-14140
  41b450:	8fbc0010 	lw	gp,16(sp)
  41b454:	8fa50018 	lw	a1,24(sp)
  41b458:	3c120043 	lui	s2,0x43
[31m  41b45c:	8f9983f4 	lw	t9,printf[0m
  41b460:	2652ca28 	addiu	s2,s2,-13784
  41b464:	0320f809 	jalr	t9
--
  41b478:	2631ffff 	addiu	s1,s1,-1
  41b47c:	323100ff 	andi	s1,s1,0xff
  41b480:	2e220010 	sltiu	v0,s1,16
  41b484:	10400042 	beqz	v0,41b590 <libxt_owner_init@@Base+0x720>
  41b488:	3c020043 	lui	v0,0x43
  41b48c:	00118880 	sll	s1,s1,0x2
  41b490:	24423320 	addiu	v0,v0,13088
  41b494:	00518821 	addu	s1,v0,s1
  41b498:	8e220000 	lw	v0,0(s1)
  41b49c:	00400008 	jr	v0
  41b4a0:	00000000 	nop
  41b4a4:	1660000b 	bnez	s3,41b4d4 <libxt_owner_init@@Base+0x664>
  41b4a8:	00000000 	nop
  41b4ac:	8f998170 	lw	t9,-32400(gp)
  41b4b0:	8e040000 	lw	a0,0(s0)
  41b4b4:	0320f809 	jalr	t9
  41b4b8:	00000000 	nop
  41b4bc:	8fbc0010 	lw	gp,16(sp)
  41b4c0:	10400004 	beqz	v0,41b4d4 <libxt_owner_init@@Base+0x664>
  41b4c4:	00000000 	nop
  41b4c8:	8c450000 	lw	a1,0(v0)
  41b4cc:	14a00018 	bnez	a1,41b530 <libxt_owner_init@@Base+0x6c0>
  41b4d0:	00000000 	nop
  41b4d4:	8e050000 	lw	a1,0(s0)
  41b4d8:	3c040043 	lui	a0,0x43
[31m  41b4dc:	8f9983f4 	lw	t9,printf[0m
  41b4e0:	2484391c 	addiu	a0,a0,14620
  41b4e4:	8fbf0034 	lw	ra,52(sp)
  41b4e8:	8fb30030 	lw	s3,48(sp)
  41b4ec:	8fb2002c 	lw	s2,44(sp)
  41b4f0:	8fb10028 	lw	s1,40(sp)
  41b4f4:	8fb00024 	lw	s0,36(sp)
  41b4f8:	03200008 	jr	t9
  41b4fc:	27bd0038 	addiu	sp,sp,56
  41b500:	1660000e 	bnez	s3,41b53c <libxt_owner_init@@Base+0x6cc>
  41b504:	00000000 	nop
  41b508:	8f9983b8 	lw	t9,-31816(gp)
  41b50c:	8e040004 	lw	a0,4(s0)
  41b510:	0320f809 	jalr	t9
  41b514:	00000000 	nop
  41b518:	8fbc0010 	lw	gp,16(sp)
  41b51c:	10400007 	beqz	v0,41b53c <libxt_owner_init@@Base+0x6cc>
  41b520:	00000000 	nop
  41b524:	8c450000 	lw	a1,0(v0)
  41b528:	10a00004 	beqz	a1,41b53c <libxt_owner_init@@Base+0x6cc>
  41b52c:	00000000 	nop
[31m  41b530:	8f9983f4 	lw	t9,printf[0m
  41b534:	1000ffeb 	b	41b4e4 <libxt_owner_init@@Base+0x674>
  41b538:	02402021 	move	a0,s2
  41b53c:	8e050004 	lw	a1,4(s0)
  41b540:	1000ffe6 	b	41b4dc <libxt_owner_init@@Base+0x66c>
  41b544:	3c040043 	lui	a0,0x43
  41b548:	8e050008 	lw	a1,8(s0)
  41b54c:	1000ffe3 	b	41b4dc <libxt_owner_init@@Base+0x66c>
  41b550:	3c040043 	lui	a0,0x43
  41b554:	8e05000c 	lw	a1,12(s0)
  41b558:	1000ffe0 	b	41b4dc <libxt_owner_init@@Base+0x66c>
  41b55c:	3c040043 	lui	a0,0x43
  41b560:	26060010 	addiu	a2,s0,16
  41b564:	3c040043 	lui	a0,0x43
[31m  41b568:	8f9983f4 	lw	t9,printf[0m
  41b56c:	24842f74 	addiu	a0,a0,12148
  41b570:	8fbf0034 	lw	ra,52(sp)
--
  41c2a8:	8fbc0010 	lw	gp,16(sp)
  41c2ac:	2484d1f4 	addiu	a0,a0,-11788
  41c2b0:	8fbf001c 	lw	ra,28(sp)
  41c2b4:	8f998148 	lw	t9,-32440(gp)
  41c2b8:	03200008 	jr	t9
  41c2bc:	27bd0020 	addiu	sp,sp,32
  41c2c0:	27bdffe0 	addiu	sp,sp,-32
  41c2c4:	afbf001c 	sw	ra,28(sp)
  41c2c8:	afb00018 	sw	s0,24(sp)
  41c2cc:	3c1c0045 	lui	gp,0x45
  41c2d0:	279c6160 	addiu	gp,gp,24928
  41c2d4:	afbc0010 	sw	gp,16(sp)
  41c2d8:	24b00020 	addiu	s0,a1,32
  41c2dc:	92020041 	lbu	v0,65(s0)
  41c2e0:	30420008 	andi	v0,v0,0x8
  41c2e4:	1040000e 	beqz	v0,41c320 <libxt_physdev_init@@Base+0xa0>
  41c2e8:	00000000 	nop
  41c2ec:	92020040 	lbu	v0,64(s0)
  41c2f0:	30420008 	andi	v0,v0,0x8
  41c2f4:	14400003 	bnez	v0,41c304 <libxt_physdev_init@@Base+0x84>
  41c2f8:	3c050043 	lui	a1,0x43
  41c2fc:	10000003 	b	41c30c <libxt_physdev_init@@Base+0x8c>
  41c300:	24a53f34 	addiu	a1,a1,16180
  41c304:	3c050043 	lui	a1,0x43
  41c308:	24a5c8c4 	addiu	a1,a1,-14140
[31m  41c30c:	8f9983f4 	lw	t9,printf[0m
  41c310:	3c040043 	lui	a0,0x43
  41c314:	0320f809 	jalr	t9
  41c318:	24843388 	addiu	a0,a0,13192
  41c31c:	8fbc0010 	lw	gp,16(sp)
  41c320:	92020041 	lbu	v0,65(s0)
  41c324:	30420001 	andi	v0,v0,0x1
  41c328:	1040000f 	beqz	v0,41c368 <libxt_physdev_init@@Base+0xe8>
  41c32c:	00000000 	nop
  41c330:	92020040 	lbu	v0,64(s0)
  41c334:	30420001 	andi	v0,v0,0x1
  41c338:	14400003 	bnez	v0,41c348 <libxt_physdev_init@@Base+0xc8>
  41c33c:	3c050043 	lui	a1,0x43
  41c340:	10000003 	b	41c350 <libxt_physdev_init@@Base+0xd0>
  41c344:	24a53f34 	addiu	a1,a1,16180
  41c348:	3c050043 	lui	a1,0x43
  41c34c:	24a5c8c4 	addiu	a1,a1,-14140
[31m  41c350:	8f9983f4 	lw	t9,printf[0m
  41c354:	3c040043 	lui	a0,0x43
  41c358:	02003021 	move	a2,s0
  41c35c:	0320f809 	jalr	t9
  41c360:	2484339c 	addiu	a0,a0,13212
  41c364:	8fbc0010 	lw	gp,16(sp)
  41c368:	92020041 	lbu	v0,65(s0)
  41c36c:	30420010 	andi	v0,v0,0x10
  41c370:	1040000e 	beqz	v0,41c3ac <libxt_physdev_init@@Base+0x12c>
  41c374:	00000000 	nop
  41c378:	92020040 	lbu	v0,64(s0)
  41c37c:	30420010 	andi	v0,v0,0x10
  41c380:	14400003 	bnez	v0,41c390 <libxt_physdev_init@@Base+0x110>
  41c384:	3c050043 	lui	a1,0x43
  41c388:	10000003 	b	41c398 <libxt_physdev_init@@Base+0x118>
  41c38c:	24a53f34 	addiu	a1,a1,16180
  41c390:	3c050043 	lui	a1,0x43
  41c394:	24a5c8c4 	addiu	a1,a1,-14140
[31m  41c398:	8f9983f4 	lw	t9,printf[0m
  41c39c:	3c040043 	lui	a0,0x43
  41c3a0:	0320f809 	jalr	t9
  41c3a4:	248433b0 	addiu	a0,a0,13232
  41c3a8:	8fbc0010 	lw	gp,16(sp)
  41c3ac:	92020041 	lbu	v0,65(s0)
  41c3b0:	30420002 	andi	v0,v0,0x2
  41c3b4:	1040000f 	beqz	v0,41c3f4 <libxt_physdev_init@@Base+0x174>
  41c3b8:	00000000 	nop
  41c3bc:	92020040 	lbu	v0,64(s0)
  41c3c0:	30420002 	andi	v0,v0,0x2
  41c3c4:	14400003 	bnez	v0,41c3d4 <libxt_physdev_init@@Base+0x154>
  41c3c8:	3c050043 	lui	a1,0x43
  41c3cc:	10000003 	b	41c3dc <libxt_physdev_init@@Base+0x15c>
  41c3d0:	24a53f34 	addiu	a1,a1,16180
  41c3d4:	3c050043 	lui	a1,0x43
  41c3d8:	24a5c8c4 	addiu	a1,a1,-14140
[31m  41c3dc:	8f9983f4 	lw	t9,printf[0m
  41c3e0:	3c040043 	lui	a0,0x43
  41c3e4:	248433c4 	addiu	a0,a0,13252
  41c3e8:	0320f809 	jalr	t9
  41c3ec:	26060020 	addiu	a2,s0,32
  41c3f0:	8fbc0010 	lw	gp,16(sp)
  41c3f4:	92020041 	lbu	v0,65(s0)
  41c3f8:	30420004 	andi	v0,v0,0x4
  41c3fc:	10400010 	beqz	v0,41c440 <libxt_physdev_init@@Base+0x1c0>
  41c400:	00000000 	nop
  41c404:	92020040 	lbu	v0,64(s0)
  41c408:	30420004 	andi	v0,v0,0x4
  41c40c:	14400003 	bnez	v0,41c41c <libxt_physdev_init@@Base+0x19c>
  41c410:	3c050043 	lui	a1,0x43
  41c414:	10000003 	b	41c424 <libxt_physdev_init@@Base+0x1a4>
  41c418:	24a53f34 	addiu	a1,a1,16180
  41c41c:	3c050043 	lui	a1,0x43
  41c420:	24a5c8c4 	addiu	a1,a1,-14140
[31m  41c424:	8f9983f4 	lw	t9,printf[0m
  41c428:	3c040043 	lui	a0,0x43
  41c42c:	8fbf001c 	lw	ra,28(sp)
  41c430:	248433d8 	addiu	a0,a0,13272
  41c434:	8fb00018 	lw	s0,24(sp)
  41c438:	03200008 	jr	t9
  41c43c:	27bd0020 	addiu	sp,sp,32
  41c440:	8fbf001c 	lw	ra,28(sp)
  41c444:	8fb00018 	lw	s0,24(sp)
  41c448:	03e00008 	jr	ra
  41c44c:	27bd0020 	addiu	sp,sp,32
  41c450:	27bdffe0 	addiu	sp,sp,-32
  41c454:	afbf001c 	sw	ra,28(sp)
  41c458:	afb00018 	sw	s0,24(sp)
  41c45c:	3c1c0045 	lui	gp,0x45
  41c460:	279c6160 	addiu	gp,gp,24928
  41c464:	afbc0010 	sw	gp,16(sp)
  41c468:	3c040043 	lui	a0,0x43
[31m  41c46c:	8f9983f4 	lw	t9,printf[0m
  41c470:	24b00020 	addiu	s0,a1,32
  41c474:	0320f809 	jalr	t9
  41c478:	248433f0 	addiu	a0,a0,13296
  41c47c:	92020041 	lbu	v0,65(s0)
  41c480:	8fbc0010 	lw	gp,16(sp)
  41c484:	30420008 	andi	v0,v0,0x8
  41c488:	1040000e 	beqz	v0,41c4c4 <libxt_physdev_init@@Base+0x244>
  41c48c:	00000000 	nop
  41c490:	92020040 	lbu	v0,64(s0)
  41c494:	30420008 	andi	v0,v0,0x8
  41c498:	14400003 	bnez	v0,41c4a8 <libxt_physdev_init@@Base+0x228>
  41c49c:	3c050043 	lui	a1,0x43
  41c4a0:	10000003 	b	41c4b0 <libxt_physdev_init@@Base+0x230>
  41c4a4:	24a53f34 	addiu	a1,a1,16180
  41c4a8:	3c050043 	lui	a1,0x43
  41c4ac:	24a53400 	addiu	a1,a1,13312
[31m  41c4b0:	8f9983f4 	lw	t9,printf[0m
  41c4b4:	3c040043 	lui	a0,0x43
  41c4b8:	0320f809 	jalr	t9
  41c4bc:	24843404 	addiu	a0,a0,13316
  41c4c0:	8fbc0010 	lw	gp,16(sp)
  41c4c4:	92020041 	lbu	v0,65(s0)
  41c4c8:	30420001 	andi	v0,v0,0x1
  41c4cc:	1040000f 	beqz	v0,41c50c <libxt_physdev_init@@Base+0x28c>
  41c4d0:	00000000 	nop
  41c4d4:	92020040 	lbu	v0,64(s0)
  41c4d8:	30420001 	andi	v0,v0,0x1
  41c4dc:	14400003 	bnez	v0,41c4ec <libxt_physdev_init@@Base+0x26c>
  41c4e0:	3c050043 	lui	a1,0x43
  41c4e4:	10000003 	b	41c4f4 <libxt_physdev_init@@Base+0x274>
  41c4e8:	24a53f34 	addiu	a1,a1,16180
  41c4ec:	3c050043 	lui	a1,0x43
  41c4f0:	24a53400 	addiu	a1,a1,13312
[31m  41c4f4:	8f9983f4 	lw	t9,printf[0m
  41c4f8:	3c040043 	lui	a0,0x43
  41c4fc:	02003021 	move	a2,s0
  41c500:	0320f809 	jalr	t9
  41c504:	24843418 	addiu	a0,a0,13336
  41c508:	8fbc0010 	lw	gp,16(sp)
  41c50c:	92020041 	lbu	v0,65(s0)
  41c510:	30420010 	andi	v0,v0,0x10
  41c514:	1040000e 	beqz	v0,41c550 <libxt_physdev_init@@Base+0x2d0>
  41c518:	00000000 	nop
  41c51c:	92020040 	lbu	v0,64(s0)
  41c520:	30420010 	andi	v0,v0,0x10
  41c524:	14400003 	bnez	v0,41c534 <libxt_physdev_init@@Base+0x2b4>
  41c528:	3c050043 	lui	a1,0x43
  41c52c:	10000003 	b	41c53c <libxt_physdev_init@@Base+0x2bc>
  41c530:	24a53f34 	addiu	a1,a1,16180
  41c534:	3c050043 	lui	a1,0x43
  41c538:	24a53400 	addiu	a1,a1,13312
[31m  41c53c:	8f9983f4 	lw	t9,printf[0m
  41c540:	3c040043 	lui	a0,0x43
  41c544:	0320f809 	jalr	t9
  41c548:	2484342c 	addiu	a0,a0,13356
  41c54c:	8fbc0010 	lw	gp,16(sp)
  41c550:	92020041 	lbu	v0,65(s0)
  41c554:	30420002 	andi	v0,v0,0x2
  41c558:	1040000f 	beqz	v0,41c598 <libxt_physdev_init@@Base+0x318>
  41c55c:	00000000 	nop
  41c560:	92020040 	lbu	v0,64(s0)
  41c564:	30420002 	andi	v0,v0,0x2
  41c568:	14400003 	bnez	v0,41c578 <libxt_physdev_init@@Base+0x2f8>
  41c56c:	3c050043 	lui	a1,0x43
  41c570:	10000003 	b	41c580 <libxt_physdev_init@@Base+0x300>
  41c574:	24a53f34 	addiu	a1,a1,16180
  41c578:	3c050043 	lui	a1,0x43
  41c57c:	24a53400 	addiu	a1,a1,13312
[31m  41c580:	8f9983f4 	lw	t9,printf[0m
  41c584:	3c040043 	lui	a0,0x43
  41c588:	24843440 	addiu	a0,a0,13376
  41c58c:	0320f809 	jalr	t9
  41c590:	26060020 	addiu	a2,s0,32
  41c594:	8fbc0010 	lw	gp,16(sp)
  41c598:	92020041 	lbu	v0,65(s0)
  41c59c:	30420004 	andi	v0,v0,0x4
  41c5a0:	1040000e 	beqz	v0,41c5dc <libxt_physdev_init@@Base+0x35c>
  41c5a4:	00000000 	nop
  41c5a8:	92020040 	lbu	v0,64(s0)
  41c5ac:	30420004 	andi	v0,v0,0x4
  41c5b0:	14400003 	bnez	v0,41c5c0 <libxt_physdev_init@@Base+0x340>
  41c5b4:	3c050043 	lui	a1,0x43
  41c5b8:	10000003 	b	41c5c8 <libxt_physdev_init@@Base+0x348>
  41c5bc:	24a53f34 	addiu	a1,a1,16180
  41c5c0:	3c050043 	lui	a1,0x43
  41c5c4:	24a53400 	addiu	a1,a1,13312
[31m  41c5c8:	8f9983f4 	lw	t9,printf[0m
  41c5cc:	3c040043 	lui	a0,0x43
  41c5d0:	0320f809 	jalr	t9
--
  41c90c:	27bd0020 	addiu	sp,sp,32

0041c910 <libxt_pkttype_init@@Base>:
  41c910:	3c1c0045 	lui	gp,0x45
  41c914:	3c040045 	lui	a0,0x45
  41c918:	279c6160 	addiu	gp,gp,24928
  41c91c:	2484d240 	addiu	a0,a0,-11712
  41c920:	8f998148 	lw	t9,-32440(gp)
  41c924:	03200008 	jr	t9
  41c928:	00000000 	nop
  41c92c:	3c1c0045 	lui	gp,0x45
  41c930:	3c030045 	lui	v1,0x45
  41c934:	8c850000 	lw	a1,0(a0)
  41c938:	279c6160 	addiu	gp,gp,24928
  41c93c:	2463ad1c 	addiu	v1,v1,-21220
  41c940:	00001021 	move	v0,zero
  41c944:	24040006 	li	a0,6
  41c948:	90660000 	lbu	a2,0(v1)
  41c94c:	14c5000c 	bne	a2,a1,41c980 <libxt_pkttype_init@@Base+0x70>
  41c950:	2463000c 	addiu	v1,v1,12
  41c954:	2403000c 	li	v1,12
  41c958:	3c040043 	lui	a0,0x43
  41c95c:	00430018 	mult	v0,v1
  41c960:	3c030045 	lui	v1,0x45
  41c964:	2463ad18 	addiu	v1,v1,-21224
[31m  41c968:	8f9983f4 	lw	t9,printf[0m
  41c96c:	00001012 	mflo	v0
  41c970:	00431021 	addu	v0,v0,v1
  41c974:	8c450000 	lw	a1,0(v0)
  41c978:	10000007 	b	41c998 <libxt_pkttype_init@@Base+0x88>
  41c97c:	2484ca28 	addiu	a0,a0,-13784
  41c980:	24420001 	addiu	v0,v0,1
  41c984:	1444fff0 	bne	v0,a0,41c948 <libxt_pkttype_init@@Base+0x38>
  41c988:	00000000 	nop
  41c98c:	3c040044 	lui	a0,0x44
[31m  41c990:	8f9983f4 	lw	t9,printf[0m
  41c994:	24849090 	addiu	a0,a0,-28528
  41c998:	03200008 	jr	t9
  41c99c:	00000000 	nop
  41c9a0:	27bdffe0 	addiu	sp,sp,-32
  41c9a4:	afbf001c 	sw	ra,28(sp)
  41c9a8:	afb00018 	sw	s0,24(sp)
  41c9ac:	3c1c0045 	lui	gp,0x45
  41c9b0:	279c6160 	addiu	gp,gp,24928
  41c9b4:	afbc0010 	sw	gp,16(sp)
  41c9b8:	24b00020 	addiu	s0,a1,32
  41c9bc:	8e020004 	lw	v0,4(s0)
  41c9c0:	14400003 	bnez	v0,41c9d0 <libxt_pkttype_init@@Base+0xc0>
  41c9c4:	3c050043 	lui	a1,0x43
  41c9c8:	10000003 	b	41c9d8 <libxt_pkttype_init@@Base+0xc8>
  41c9cc:	24a53f34 	addiu	a1,a1,16180
  41c9d0:	3c050043 	lui	a1,0x43
  41c9d4:	24a5c8c4 	addiu	a1,a1,-14140
[31m  41c9d8:	8f9983f4 	lw	t9,printf[0m
  41c9dc:	3c040043 	lui	a0,0x43
  41c9e0:	0320f809 	jalr	t9
  41c9e4:	24843680 	addiu	a0,a0,13952
  41c9e8:	02002021 	move	a0,s0
  41c9ec:	8fbc0010 	lw	gp,16(sp)
  41c9f0:	8fbf001c 	lw	ra,28(sp)
  41c9f4:	8fb00018 	lw	s0,24(sp)
  41c9f8:	0810724b 	j	41c92c <libxt_pkttype_init@@Base+0x1c>
  41c9fc:	27bd0020 	addiu	sp,sp,32
  41ca00:	27bdffe0 	addiu	sp,sp,-32
  41ca04:	afbf001c 	sw	ra,28(sp)
  41ca08:	afb00018 	sw	s0,24(sp)
  41ca0c:	3c1c0045 	lui	gp,0x45
  41ca10:	279c6160 	addiu	gp,gp,24928
  41ca14:	afbc0010 	sw	gp,16(sp)
  41ca18:	24b00020 	addiu	s0,a1,32
  41ca1c:	8e020004 	lw	v0,4(s0)
  41ca20:	14400003 	bnez	v0,41ca30 <libxt_pkttype_init@@Base+0x120>
  41ca24:	3c050043 	lui	a1,0x43
  41ca28:	10000003 	b	41ca38 <libxt_pkttype_init@@Base+0x128>
  41ca2c:	24a53f34 	addiu	a1,a1,16180
  41ca30:	3c050043 	lui	a1,0x43
  41ca34:	24a51db0 	addiu	a1,a1,7600
[31m  41ca38:	8f9983f4 	lw	t9,printf[0m
  41ca3c:	3c040043 	lui	a0,0x43
  41ca40:	0320f809 	jalr	t9
--
  41cbbc:	afb10020 	sw	s1,32(sp)
  41cbc0:	afb0001c 	sw	s0,28(sp)
  41cbc4:	3c1c0045 	lui	gp,0x45
  41cbc8:	279c6160 	addiu	gp,gp,24928
  41cbcc:	afbc0010 	sw	gp,16(sp)
  41cbd0:	3c040043 	lui	a0,0x43
  41cbd4:	8f998370 	lw	t9,-31888(gp)
  41cbd8:	248436b8 	addiu	a0,a0,14008
  41cbdc:	3c100045 	lui	s0,0x45
  41cbe0:	0320f809 	jalr	t9
  41cbe4:	3c120045 	lui	s2,0x45
  41cbe8:	3c040043 	lui	a0,0x43
  41cbec:	8fbc0010 	lw	gp,16(sp)
  41cbf0:	24843700 	addiu	a0,a0,14080
  41cbf4:	3c110043 	lui	s1,0x43
  41cbf8:	24130001 	li	s3,1
  41cbfc:	8f998370 	lw	t9,-31888(gp)
  41cc00:	2610ad1d 	addiu	s0,s0,-21219
  41cc04:	2652ad65 	addiu	s2,s2,-21147
  41cc08:	0320f809 	jalr	t9
  41cc0c:	26313714 	addiu	s1,s1,14100
  41cc10:	8fbc0010 	lw	gp,16(sp)
  41cc14:	92020000 	lbu	v0,0(s0)
  41cc18:	14530007 	bne	v0,s3,41cc38 <libxt_pkttype_init@@Base+0x328>
  41cc1c:	00000000 	nop
[31m  41cc20:	8f9983f4 	lw	t9,printf[0m
  41cc24:	8e05fffb 	lw	a1,-5(s0)
  41cc28:	8e060003 	lw	a2,3(s0)
--
  41cdc4:	27bdffe0 	addiu	sp,sp,-32
  41cdc8:	afbf001c 	sw	ra,28(sp)
  41cdcc:	3c1c0045 	lui	gp,0x45
  41cdd0:	279c6160 	addiu	gp,gp,24928
  41cdd4:	afbc0010 	sw	gp,16(sp)
  41cdd8:	3c040045 	lui	a0,0x45
  41cddc:	8f998148 	lw	t9,-32440(gp)
  41cde0:	0320f809 	jalr	t9
  41cde4:	2484d290 	addiu	a0,a0,-11632
  41cde8:	3c040045 	lui	a0,0x45
  41cdec:	8fbc0010 	lw	gp,16(sp)
  41cdf0:	2484d2d4 	addiu	a0,a0,-11564
  41cdf4:	8fbf001c 	lw	ra,28(sp)
  41cdf8:	8f998148 	lw	t9,-32440(gp)
  41cdfc:	03200008 	jr	t9
  41ce00:	27bd0020 	addiu	sp,sp,32
  41ce04:	27bdffd8 	addiu	sp,sp,-40
  41ce08:	afbf0024 	sw	ra,36(sp)
  41ce0c:	afb10020 	sw	s1,32(sp)
  41ce10:	afb0001c 	sw	s0,28(sp)
  41ce14:	3c1c0045 	lui	gp,0x45
  41ce18:	279c6160 	addiu	gp,gp,24928
  41ce1c:	afbc0010 	sw	gp,16(sp)
  41ce20:	94a20130 	lhu	v0,304(a1)
  41ce24:	00a08821 	move	s1,a1
[31m  41ce28:	8f9983f4 	lw	t9,printf[0m
  41ce2c:	30420001 	andi	v0,v0,0x1
  41ce30:	10400005 	beqz	v0,41ce48 <libxt_policy_init@@Base+0x84>
  41ce34:	00808021 	move	s0,a0
  41ce38:	00802821 	move	a1,a0
  41ce3c:	3c040043 	lui	a0,0x43
  41ce40:	10000004 	b	41ce54 <libxt_policy_init@@Base+0x90>
  41ce44:	248438d4 	addiu	a0,a0,14548
  41ce48:	00802821 	move	a1,a0
  41ce4c:	3c040043 	lui	a0,0x43
  41ce50:	248438e0 	addiu	a0,a0,14560
  41ce54:	0320f809 	jalr	t9
  41ce58:	00000000 	nop
  41ce5c:	96220130 	lhu	v0,304(s1)
  41ce60:	8fbc0010 	lw	gp,16(sp)
  41ce64:	30420004 	andi	v0,v0,0x4
[31m  41ce68:	8f9983f4 	lw	t9,printf[0m
  41ce6c:	10400004 	beqz	v0,41ce80 <libxt_policy_init@@Base+0xbc>
  41ce70:	3c040043 	lui	a0,0x43
  41ce74:	02002821 	move	a1,s0
  41ce78:	10000004 	b	41ce8c <libxt_policy_init@@Base+0xc8>
  41ce7c:	248438ec 	addiu	a0,a0,14572
  41ce80:	3c040043 	lui	a0,0x43
  41ce84:	02002821 	move	a1,s0
  41ce88:	248438f8 	addiu	a0,a0,14584
  41ce8c:	0320f809 	jalr	t9
  41ce90:	00000000 	nop
  41ce94:	96220130 	lhu	v0,304(s1)
  41ce98:	8fbc0010 	lw	gp,16(sp)
  41ce9c:	30420008 	andi	v0,v0,0x8
  41cea0:	10400009 	beqz	v0,41cec8 <libxt_policy_init@@Base+0x104>
  41cea4:	02002821 	move	a1,s0
[31m  41cea8:	8f9983f4 	lw	t9,printf[0m
  41ceac:	3c040043 	lui	a0,0x43
  41ceb0:	8fbf0024 	lw	ra,36(sp)
--
  41cec8:	8fbf0024 	lw	ra,36(sp)
  41cecc:	8fb10020 	lw	s1,32(sp)
  41ced0:	8fb0001c 	lw	s0,28(sp)
  41ced4:	03e00008 	jr	ra
  41ced8:	27bd0028 	addiu	sp,sp,40
  41cedc:	27bdffc8 	addiu	sp,sp,-56
  41cee0:	afbf0034 	sw	ra,52(sp)
  41cee4:	afb40030 	sw	s4,48(sp)
  41cee8:	afb3002c 	sw	s3,44(sp)
  41ceec:	afb20028 	sw	s2,40(sp)
  41cef0:	afb10024 	sw	s1,36(sp)
  41cef4:	afb00020 	sw	s0,32(sp)
  41cef8:	3c1c0045 	lui	gp,0x45
  41cefc:	279c6160 	addiu	gp,gp,24928
  41cf00:	afbc0010 	sw	gp,16(sp)
  41cf04:	8ca20048 	lw	v0,72(a1)
  41cf08:	00a08021 	move	s0,a1
  41cf0c:	00808821 	move	s1,a0
  41cf10:	30430400 	andi	v1,v0,0x400
  41cf14:	30d300ff 	andi	s3,a2,0xff
  41cf18:	10600010 	beqz	v1,41cf5c <libxt_policy_init@@Base+0x198>
  41cf1c:	30f200ff 	andi	s2,a3,0xff
  41cf20:	30420004 	andi	v0,v0,0x4
  41cf24:	10400006 	beqz	v0,41cf40 <libxt_policy_init@@Base+0x17c>
  41cf28:	00000000 	nop
[31m  41cf2c:	8f9983f4 	lw	t9,printf[0m
  41cf30:	3c040043 	lui	a0,0x43
  41cf34:	0320f809 	jalr	t9
  41cf38:	2484c8c4 	addiu	a0,a0,-14140
  41cf3c:	8fbc0010 	lw	gp,16(sp)
[31m  41cf40:	8f9983f4 	lw	t9,printf[0m
  41cf44:	3c040043 	lui	a0,0x43
  41cf48:	02202821 	move	a1,s1
  41cf4c:	8e060044 	lw	a2,68(s0)
  41cf50:	0320f809 	jalr	t9
  41cf54:	24843914 	addiu	a0,a0,14612
  41cf58:	8fbc0010 	lw	gp,16(sp)
  41cf5c:	8e020048 	lw	v0,72(s0)
  41cf60:	30430800 	andi	v1,v0,0x800
  41cf64:	10600012 	beqz	v1,41cfb0 <libxt_policy_init@@Base+0x1ec>
  41cf68:	30432000 	andi	v1,v0,0x2000
  41cf6c:	30420008 	andi	v0,v0,0x8
  41cf70:	10400006 	beqz	v0,41cf8c <libxt_policy_init@@Base+0x1c8>
  41cf74:	00000000 	nop
[31m  41cf78:	8f9983f4 	lw	t9,printf[0m
  41cf7c:	3c040043 	lui	a0,0x43
  41cf80:	0320f809 	jalr	t9
  41cf84:	2484c8c4 	addiu	a0,a0,-14140
  41cf88:	8fbc0010 	lw	gp,16(sp)
[31m  41cf8c:	8f9983f4 	lw	t9,printf[0m
  41cf90:	3c040043 	lui	a0,0x43
  41cf94:	02202821 	move	a1,s1
  41cf98:	8e060040 	lw	a2,64(s0)
  41cf9c:	0320f809 	jalr	t9
  41cfa0:	24843920 	addiu	a0,a0,14624
  41cfa4:	8fbc0010 	lw	gp,16(sp)
  41cfa8:	8e020048 	lw	v0,72(s0)
  41cfac:	30432000 	andi	v1,v0,0x2000
  41cfb0:	10600021 	beqz	v1,41d038 <libxt_policy_init@@Base+0x274>
  41cfb4:	30420020 	andi	v0,v0,0x20
  41cfb8:	10400005 	beqz	v0,41cfd0 <libxt_policy_init@@Base+0x20c>
  41cfbc:	3c040043 	lui	a0,0x43
[31m  41cfc0:	8f9983f4 	lw	t9,printf[0m
  41cfc4:	0320f809 	jalr	t9
  41cfc8:	2484c8c4 	addiu	a0,a0,-14140
  41cfcc:	8fbc0010 	lw	gp,16(sp)
[31m  41cfd0:	8f9983f4 	lw	t9,printf[0m
  41cfd4:	3c040043 	lui	a0,0x43
  41cfd8:	02202821 	move	a1,s1
  41cfdc:	92140048 	lbu	s4,72(s0)
  41cfe0:	0320f809 	jalr	t9
  41cfe4:	2484392c 	addiu	a0,a0,14636
  41cfe8:	8fbc0010 	lw	gp,16(sp)
  41cfec:	1660000c 	bnez	s3,41d020 <libxt_policy_init@@Base+0x25c>
  41cff0:	3c040043 	lui	a0,0x43
  41cff4:	8f9983ac 	lw	t9,-31828(gp)
  41cff8:	0320f809 	jalr	t9
  41cffc:	02802021 	move	a0,s4
  41d000:	8fbc0010 	lw	gp,16(sp)
  41d004:	10400005 	beqz	v0,41d01c <libxt_policy_init@@Base+0x258>
  41d008:	3c040043 	lui	a0,0x43
  41d00c:	8c450000 	lw	a1,0(v0)
[31m  41d010:	8f9983f4 	lw	t9,printf[0m
  41d014:	10000005 	b	41d02c <libxt_policy_init@@Base+0x268>
  41d018:	2484ca28 	addiu	a0,a0,-13784
  41d01c:	3c040043 	lui	a0,0x43
  41d020:	02802821 	move	a1,s4
[31m  41d024:	8f9983f4 	lw	t9,printf[0m
  41d028:	2484391c 	addiu	a0,a0,14620
  41d02c:	0320f809 	jalr	t9
  41d030:	00000000 	nop
  41d034:	8fbc0010 	lw	gp,16(sp)
  41d038:	8e020048 	lw	v0,72(s0)
  41d03c:	30431000 	andi	v1,v0,0x1000
  41d040:	10600022 	beqz	v1,41d0cc <libxt_policy_init@@Base+0x308>
  41d044:	30434000 	andi	v1,v0,0x4000
  41d048:	30420010 	andi	v0,v0,0x10
  41d04c:	10400006 	beqz	v0,41d068 <libxt_policy_init@@Base+0x2a4>
  41d050:	00000000 	nop
[31m  41d054:	8f9983f4 	lw	t9,printf[0m
  41d058:	3c040043 	lui	a0,0x43
  41d05c:	0320f809 	jalr	t9
  41d060:	2484c8c4 	addiu	a0,a0,-14140
  41d064:	8fbc0010 	lw	gp,16(sp)
[31m  41d068:	8f9983f4 	lw	t9,printf[0m
  41d06c:	3c040043 	lui	a0,0x43
  41d070:	02202821 	move	a1,s1
  41d074:	92130049 	lbu	s3,73(s0)
  41d078:	0320f809 	jalr	t9
  41d07c:	24843938 	addiu	a0,a0,14648
  41d080:	8fbc0010 	lw	gp,16(sp)
  41d084:	12600006 	beqz	s3,41d0a0 <libxt_policy_init@@Base+0x2dc>
  41d088:	24020001 	li	v0,1
[31m  41d08c:	8f9983f4 	lw	t9,printf[0m
  41d090:	16620007 	bne	s3,v0,41d0b0 <libxt_policy_init@@Base+0x2ec>
  41d094:	3c040043 	lui	a0,0x43
  41d098:	10000007 	b	41d0b8 <libxt_policy_init@@Base+0x2f4>
  41d09c:	2484394c 	addiu	a0,a0,14668
  41d0a0:	3c040043 	lui	a0,0x43
[31m  41d0a4:	8f9983f4 	lw	t9,printf[0m
  41d0a8:	10000003 	b	41d0b8 <libxt_policy_init@@Base+0x2f4>
  41d0ac:	24843940 	addiu	a0,a0,14656
  41d0b0:	3c040043 	lui	a0,0x43
  41d0b4:	24843954 	addiu	a0,a0,14676
  41d0b8:	0320f809 	jalr	t9
  41d0bc:	00000000 	nop
  41d0c0:	8fbc0010 	lw	gp,16(sp)
  41d0c4:	8e020048 	lw	v0,72(s0)
  41d0c8:	30434000 	andi	v1,v0,0x4000
  41d0cc:	10600024 	beqz	v1,41d160 <libxt_policy_init@@Base+0x39c>
  41d0d0:	30420040 	andi	v0,v0,0x40
  41d0d4:	10400007 	beqz	v0,41d0f4 <libxt_policy_init@@Base+0x330>
  41d0d8:	2402000a 	li	v0,10
[31m  41d0dc:	8f9983f4 	lw	t9,printf[0m
  41d0e0:	3c040043 	lui	a0,0x43
  41d0e4:	0320f809 	jalr	t9
--
  41d0ec:	8fbc0010 	lw	gp,16(sp)
  41d0f0:	2402000a 	li	v0,10
  41d0f4:	26040020 	addiu	a0,s0,32
  41d0f8:	26140030 	addiu	s4,s0,48
  41d0fc:	16420008 	bne	s2,v0,41d120 <libxt_policy_init@@Base+0x35c>
  41d100:	3c130043 	lui	s3,0x43
  41d104:	8f99833c 	lw	t9,-31940(gp)
  41d108:	0320f809 	jalr	t9
  41d10c:	00000000 	nop
  41d110:	8fbc0010 	lw	gp,16(sp)
  41d114:	8f9983fc 	lw	t9,-31748(gp)
  41d118:	10000007 	b	41d138 <libxt_policy_init@@Base+0x374>
  41d11c:	02802021 	move	a0,s4
  41d120:	8f998318 	lw	t9,-31976(gp)
  41d124:	0320f809 	jalr	t9
  41d128:	00000000 	nop
  41d12c:	02802021 	move	a0,s4
  41d130:	8fbc0010 	lw	gp,16(sp)
  41d134:	8f998160 	lw	t9,-32416(gp)
  41d138:	0320f809 	jalr	t9
  41d13c:	afa20018 	sw	v0,24(sp)
  41d140:	2664395c 	addiu	a0,s3,14684
  41d144:	02202821 	move	a1,s1
  41d148:	8fbc0010 	lw	gp,16(sp)
  41d14c:	8fa60018 	lw	a2,24(sp)
[31m  41d150:	8f9983f4 	lw	t9,printf[0m
  41d154:	0320f809 	jalr	t9
  41d158:	00403821 	move	a3,v0
  41d15c:	8fbc0010 	lw	gp,16(sp)
  41d160:	8e020048 	lw	v0,72(s0)
  41d164:	30438000 	andi	v1,v0,0x8000
  41d168:	10600029 	beqz	v1,41d210 <libxt_policy_init@@Base+0x44c>
  41d16c:	30420080 	andi	v0,v0,0x80
  41d170:	10400007 	beqz	v0,41d190 <libxt_policy_init@@Base+0x3cc>
  41d174:	2402000a 	li	v0,10
[31m  41d178:	8f9983f4 	lw	t9,printf[0m
  41d17c:	3c040043 	lui	a0,0x43
  41d180:	0320f809 	jalr	t9
--
  41d188:	8fbc0010 	lw	gp,16(sp)
  41d18c:	2402000a 	li	v0,10
  41d190:	26140010 	addiu	s4,s0,16
  41d194:	16420008 	bne	s2,v0,41d1b8 <libxt_policy_init@@Base+0x3f4>
  41d198:	3c130043 	lui	s3,0x43
  41d19c:	8f99833c 	lw	t9,-31940(gp)
  41d1a0:	0320f809 	jalr	t9
  41d1a4:	02002021 	move	a0,s0
  41d1a8:	8fbc0010 	lw	gp,16(sp)
  41d1ac:	8f9983fc 	lw	t9,-31748(gp)
  41d1b0:	10000007 	b	41d1d0 <libxt_policy_init@@Base+0x40c>
  41d1b4:	02802021 	move	a0,s4
  41d1b8:	8f998318 	lw	t9,-31976(gp)
  41d1bc:	0320f809 	jalr	t9
  41d1c0:	02002021 	move	a0,s0
  41d1c4:	02802021 	move	a0,s4
  41d1c8:	8fbc0010 	lw	gp,16(sp)
  41d1cc:	8f998160 	lw	t9,-32416(gp)
  41d1d0:	0320f809 	jalr	t9
  41d1d4:	afa20018 	sw	v0,24(sp)
  41d1d8:	26643970 	addiu	a0,s3,14704
  41d1dc:	02202821 	move	a1,s1
  41d1e0:	8fbc0010 	lw	gp,16(sp)
  41d1e4:	00403821 	move	a3,v0
  41d1e8:	8fa60018 	lw	a2,24(sp)
[31m  41d1ec:	8f9983f4 	lw	t9,printf[0m
  41d1f0:	8fbf0034 	lw	ra,52(sp)
  41d1f4:	8fb40030 	lw	s4,48(sp)
--
  41d240:	afb20020 	sw	s2,32(sp)
  41d244:	afb1001c 	sw	s1,28(sp)
  41d248:	afb00018 	sw	s0,24(sp)
  41d24c:	3c1c0045 	lui	gp,0x45
  41d250:	279c6160 	addiu	gp,gp,24928
  41d254:	afbc0010 	sw	gp,16(sp)
  41d258:	3c140043 	lui	s4,0x43
  41d25c:	24b10020 	addiu	s1,a1,32
  41d260:	2684fda4 	addiu	a0,s4,-604
  41d264:	02202821 	move	a1,s1
  41d268:	3c130043 	lui	s3,0x43
  41d26c:	00008021 	move	s0,zero
  41d270:	0080a021 	move	s4,a0
  41d274:	26733984 	addiu	s3,s3,14724
  41d278:	0c107381 	jal	41ce04 <libxt_policy_init@@Base+0x40>
  41d27c:	2412004c 	li	s2,76
  41d280:	1000000c 	b	41d2b4 <libxt_policy_init@@Base+0x4f0>
  41d284:	02120018 	mult	s0,s2
  41d288:	0c1073b7 	jal	41cedc <libxt_policy_init@@Base+0x118>
  41d28c:	00000000 	nop
  41d290:	96220132 	lhu	v0,306(s1)
  41d294:	8fbc0010 	lw	gp,16(sp)
  41d298:	0202102b 	sltu	v0,s0,v0
  41d29c:	10400005 	beqz	v0,41d2b4 <libxt_policy_init@@Base+0x4f0>
  41d2a0:	02120018 	mult	s0,s2
[31m  41d2a4:	8f9983f4 	lw	t9,printf[0m
  41d2a8:	0320f809 	jalr	t9
  41d2ac:	02602021 	move	a0,s3
--
  41d2c4:	2407000a 	li	a3,10
  41d2c8:	26100001 	addiu	s0,s0,1
  41d2cc:	00002812 	mflo	a1
  41d2d0:	1440ffed 	bnez	v0,41d288 <libxt_policy_init@@Base+0x4c4>
  41d2d4:	02252821 	addu	a1,s1,a1
  41d2d8:	8fbf002c 	lw	ra,44(sp)
  41d2dc:	8fb40028 	lw	s4,40(sp)
  41d2e0:	8fb30024 	lw	s3,36(sp)
  41d2e4:	8fb20020 	lw	s2,32(sp)
  41d2e8:	8fb1001c 	lw	s1,28(sp)
  41d2ec:	8fb00018 	lw	s0,24(sp)
  41d2f0:	03e00008 	jr	ra
  41d2f4:	27bd0030 	addiu	sp,sp,48
  41d2f8:	27bdffc8 	addiu	sp,sp,-56
  41d2fc:	afbf0034 	sw	ra,52(sp)
  41d300:	afb50030 	sw	s5,48(sp)
  41d304:	afb4002c 	sw	s4,44(sp)
  41d308:	afb30028 	sw	s3,40(sp)
  41d30c:	afb20024 	sw	s2,36(sp)
  41d310:	afb10020 	sw	s1,32(sp)
  41d314:	afb0001c 	sw	s0,28(sp)
  41d318:	3c1c0045 	lui	gp,0x45
  41d31c:	279c6160 	addiu	gp,gp,24928
  41d320:	afbc0010 	sw	gp,16(sp)
  41d324:	3c040043 	lui	a0,0x43
[31m  41d328:	8f9983f4 	lw	t9,printf[0m
  41d32c:	24b10020 	addiu	s1,a1,32
  41d330:	0006a82b 	sltu	s5,zero,a2
--
  41d340:	3c140043 	lui	s4,0x43
  41d344:	02202821 	move	a1,s1
  41d348:	26643f34 	addiu	a0,s3,16180
  41d34c:	0c107381 	jal	41ce04 <libxt_policy_init@@Base+0x40>
  41d350:	00008021 	move	s0,zero
  41d354:	2694399c 	addiu	s4,s4,14748
  41d358:	8fbc0010 	lw	gp,16(sp)
  41d35c:	26733f34 	addiu	s3,s3,16180
  41d360:	1000000e 	b	41d39c <libxt_policy_init@@Base+0x5d8>
  41d364:	2412004c 	li	s2,76
  41d368:	14600004 	bnez	v1,41d37c <libxt_policy_init@@Base+0x5b8>
  41d36c:	02120018 	mult	s0,s2
  41d370:	0320f809 	jalr	t9
  41d374:	00000000 	nop
  41d378:	02120018 	mult	s0,s2
  41d37c:	02602021 	move	a0,s3
  41d380:	2407000a 	li	a3,10
  41d384:	02a03021 	move	a2,s5
  41d388:	26100001 	addiu	s0,s0,1
  41d38c:	00002812 	mflo	a1
  41d390:	0c1073b7 	jal	41cedc <libxt_policy_init@@Base+0x118>
  41d394:	02252821 	addu	a1,s1,a1
  41d398:	8fbc0010 	lw	gp,16(sp)
  41d39c:	96220132 	lhu	v0,306(s1)
  41d3a0:	02002821 	move	a1,s0
[31m  41d3a4:	8f9983f4 	lw	t9,printf[0m
  41d3a8:	2c430002 	sltiu	v1,v0,2
  41d3ac:	0202102b 	sltu	v0,s0,v0
--
  41d3ec:	afb20020 	sw	s2,32(sp)
  41d3f0:	afb1001c 	sw	s1,28(sp)
  41d3f4:	afb00018 	sw	s0,24(sp)
  41d3f8:	3c1c0045 	lui	gp,0x45
  41d3fc:	279c6160 	addiu	gp,gp,24928
  41d400:	afbc0010 	sw	gp,16(sp)
  41d404:	3c140043 	lui	s4,0x43
  41d408:	24b10020 	addiu	s1,a1,32
  41d40c:	2684fda4 	addiu	a0,s4,-604
  41d410:	02202821 	move	a1,s1
  41d414:	3c130043 	lui	s3,0x43
  41d418:	00008021 	move	s0,zero
  41d41c:	0080a021 	move	s4,a0
  41d420:	26733984 	addiu	s3,s3,14724
  41d424:	0c107381 	jal	41ce04 <libxt_policy_init@@Base+0x40>
  41d428:	2412004c 	li	s2,76
  41d42c:	1000000c 	b	41d460 <libxt_policy_init@@Base+0x69c>
  41d430:	02120018 	mult	s0,s2
  41d434:	0c1073b7 	jal	41cedc <libxt_policy_init@@Base+0x118>
  41d438:	00000000 	nop
  41d43c:	96220132 	lhu	v0,306(s1)
  41d440:	8fbc0010 	lw	gp,16(sp)
  41d444:	0202102b 	sltu	v0,s0,v0
  41d448:	10400005 	beqz	v0,41d460 <libxt_policy_init@@Base+0x69c>
  41d44c:	02120018 	mult	s0,s2
[31m  41d450:	8f9983f4 	lw	t9,printf[0m
  41d454:	0320f809 	jalr	t9
  41d458:	02602021 	move	a0,s3
--
  41d470:	24070002 	li	a3,2
  41d474:	26100001 	addiu	s0,s0,1
  41d478:	00002812 	mflo	a1
  41d47c:	1440ffed 	bnez	v0,41d434 <libxt_policy_init@@Base+0x670>
  41d480:	02252821 	addu	a1,s1,a1
  41d484:	8fbf002c 	lw	ra,44(sp)
  41d488:	8fb40028 	lw	s4,40(sp)
  41d48c:	8fb30024 	lw	s3,36(sp)
  41d490:	8fb20020 	lw	s2,32(sp)
  41d494:	8fb1001c 	lw	s1,28(sp)
  41d498:	8fb00018 	lw	s0,24(sp)
  41d49c:	03e00008 	jr	ra
  41d4a0:	27bd0030 	addiu	sp,sp,48
  41d4a4:	27bdffc8 	addiu	sp,sp,-56
  41d4a8:	afbf0034 	sw	ra,52(sp)
  41d4ac:	afb50030 	sw	s5,48(sp)
  41d4b0:	afb4002c 	sw	s4,44(sp)
  41d4b4:	afb30028 	sw	s3,40(sp)
  41d4b8:	afb20024 	sw	s2,36(sp)
  41d4bc:	afb10020 	sw	s1,32(sp)
  41d4c0:	afb0001c 	sw	s0,28(sp)
  41d4c4:	3c1c0045 	lui	gp,0x45
  41d4c8:	279c6160 	addiu	gp,gp,24928
  41d4cc:	afbc0010 	sw	gp,16(sp)
  41d4d0:	3c040043 	lui	a0,0x43
[31m  41d4d4:	8f9983f4 	lw	t9,printf[0m
  41d4d8:	24b10020 	addiu	s1,a1,32
  41d4dc:	0006a82b 	sltu	s5,zero,a2
--
  41d4ec:	3c140043 	lui	s4,0x43
  41d4f0:	02202821 	move	a1,s1
  41d4f4:	26643f34 	addiu	a0,s3,16180
  41d4f8:	0c107381 	jal	41ce04 <libxt_policy_init@@Base+0x40>
  41d4fc:	00008021 	move	s0,zero
  41d500:	2694399c 	addiu	s4,s4,14748
  41d504:	8fbc0010 	lw	gp,16(sp)
  41d508:	26733f34 	addiu	s3,s3,16180
  41d50c:	1000000e 	b	41d548 <libxt_policy_init@@Base+0x784>
  41d510:	2412004c 	li	s2,76
  41d514:	14600004 	bnez	v1,41d528 <libxt_policy_init@@Base+0x764>
  41d518:	02120018 	mult	s0,s2
  41d51c:	0320f809 	jalr	t9
  41d520:	00000000 	nop
  41d524:	02120018 	mult	s0,s2
  41d528:	02602021 	move	a0,s3
  41d52c:	24070002 	li	a3,2
  41d530:	02a03021 	move	a2,s5
  41d534:	26100001 	addiu	s0,s0,1
  41d538:	00002812 	mflo	a1
  41d53c:	0c1073b7 	jal	41cedc <libxt_policy_init@@Base+0x118>
  41d540:	02252821 	addu	a1,s1,a1
  41d544:	8fbc0010 	lw	gp,16(sp)
  41d548:	96220132 	lhu	v0,306(s1)
  41d54c:	02002821 	move	a1,s0
[31m  41d550:	8f9983f4 	lw	t9,printf[0m
  41d554:	2c430002 	sltiu	v1,v0,2
  41d558:	0202102b 	sltu	v0,s0,v0
--
  41dd20:	08107562 	j	41d588 <libxt_policy_init@@Base+0x7c4>
  41dd24:	00000000 	nop
  41dd28:	3c1c0045 	lui	gp,0x45
  41dd2c:	3c040043 	lui	a0,0x43
  41dd30:	279c6160 	addiu	gp,gp,24928
  41dd34:	24843c98 	addiu	a0,a0,15512
  41dd38:	8f998370 	lw	t9,-31888(gp)
  41dd3c:	03200008 	jr	t9
  41dd40:	00000000 	nop
	...

0041dd50 <libxt_quota_init@@Base>:
  41dd50:	3c1c0045 	lui	gp,0x45
  41dd54:	3c040045 	lui	a0,0x45
  41dd58:	279c6160 	addiu	gp,gp,24928
  41dd5c:	2484d320 	addiu	a0,a0,-11488
  41dd60:	8f998148 	lw	t9,-32440(gp)
  41dd64:	03200008 	jr	t9
  41dd68:	00000000 	nop
  41dd6c:	3c1c0045 	lui	gp,0x45
  41dd70:	3c040043 	lui	a0,0x43
  41dd74:	279c6160 	addiu	gp,gp,24928
  41dd78:	24843ee4 	addiu	a0,a0,16100
  41dd7c:	8ca7002c 	lw	a3,44(a1)
  41dd80:	8ca60028 	lw	a2,40(a1)
[31m  41dd84:	8f9983f4 	lw	t9,printf[0m
  41dd88:	03200008 	jr	t9
  41dd8c:	00000000 	nop
  41dd90:	3c1c0045 	lui	gp,0x45
  41dd94:	3c040043 	lui	a0,0x43
  41dd98:	279c6160 	addiu	gp,gp,24928
  41dd9c:	24843ef4 	addiu	a0,a0,16116
  41dda0:	8ca7002c 	lw	a3,44(a1)
  41dda4:	8ca60028 	lw	a2,40(a1)
[31m  41dda8:	8f9983f4 	lw	t9,printf[0m
  41ddac:	03200008 	jr	t9
  41ddb0:	00000000 	nop
--
  41def0:	30640004 	andi	a0,v1,0x4
  41def4:	14800002 	bnez	a0,41df00 <libxt_quota_init@@Base+0x1b0>
  41def8:	34630002 	ori	v1,v1,0x2
  41defc:	a4430020 	sh	v1,32(v0)
  41df00:	8fbf001c 	lw	ra,28(sp)
  41df04:	03e00008 	jr	ra
  41df08:	27bd0020 	addiu	sp,sp,32

0041df0c <libxt_rateest_init@@Base>:
  41df0c:	3c1c0045 	lui	gp,0x45
  41df10:	3c040045 	lui	a0,0x45
  41df14:	279c6160 	addiu	gp,gp,24928
  41df18:	2484d370 	addiu	a0,a0,-11408
  41df1c:	8f998148 	lw	t9,-32440(gp)
  41df20:	03200008 	jr	t9
  41df24:	00000000 	nop
  41df28:	27bdffd8 	addiu	sp,sp,-40
  41df2c:	afbf0024 	sw	ra,36(sp)
  41df30:	afb10020 	sw	s1,32(sp)
  41df34:	afb0001c 	sw	s0,28(sp)
  41df38:	3c1c0045 	lui	gp,0x45
  41df3c:	279c6160 	addiu	gp,gp,24928
  41df40:	afbc0010 	sw	gp,16(sp)
  41df44:	10a00009 	beqz	a1,41df6c <libxt_rateest_init@@Base+0x60>
  41df48:	00802821 	move	a1,a0
[31m  41df4c:	8f9983f4 	lw	t9,printf[0m
  41df50:	3c040043 	lui	a0,0x43
  41df54:	8fbf0024 	lw	ra,36(sp)
--
  41df88:	8f9981b8 	lw	t9,-32328(gp)
  41df8c:	8c864600 	lw	a2,17920(a0)
  41df90:	0320f809 	jalr	t9
  41df94:	00402021 	move	a0,v0
  41df98:	8fbc0010 	lw	gp,16(sp)
  41df9c:	00408021 	move	s0,v0
  41dfa0:	3c020043 	lui	v0,0x43
  41dfa4:	8c47460c 	lw	a3,17932(v0)
  41dfa8:	00602821 	move	a1,v1
  41dfac:	8f9983c0 	lw	t9,-31808(gp)
  41dfb0:	02002021 	move	a0,s0
  41dfb4:	8c464608 	lw	a2,17928(v0)
  41dfb8:	0320f809 	jalr	t9
  41dfbc:	00608821 	move	s1,v1
  41dfc0:	8fbc0010 	lw	gp,16(sp)
  41dfc4:	0440000c 	bltz	v0,41dff8 <libxt_rateest_init@@Base+0xec>
  41dfc8:	3c030043 	lui	v1,0x43
  41dfcc:	8f9983ec 	lw	t9,-31764(gp)
  41dfd0:	02002021 	move	a0,s0
  41dfd4:	8c674614 	lw	a3,17940(v1)
  41dfd8:	8c664610 	lw	a2,17936(v1)
  41dfdc:	0320f809 	jalr	t9
  41dfe0:	02202821 	move	a1,s1
  41dfe4:	3c040043 	lui	a0,0x43
  41dfe8:	8fbc0010 	lw	gp,16(sp)
[31m  41dfec:	8f9983f4 	lw	t9,printf[0m
  41dff0:	10000014 	b	41e044 <libxt_rateest_init@@Base+0x138>
  41dff4:	24843fa4 	addiu	a0,a0,16292
  41dff8:	8f9983c0 	lw	t9,-31808(gp)
  41dffc:	02002021 	move	a0,s0
  41e000:	8c674614 	lw	a3,17940(v1)
  41e004:	8c664610 	lw	a2,17936(v1)
  41e008:	0320f809 	jalr	t9
  41e00c:	02202821 	move	a1,s1
  41e010:	8fbc0010 	lw	gp,16(sp)
  41e014:	0440000e 	bltz	v0,41e050 <libxt_rateest_init@@Base+0x144>
  41e018:	3c020043 	lui	v0,0x43
  41e01c:	02002021 	move	a0,s0
  41e020:	8f9983ec 	lw	t9,-31764(gp)
  41e024:	8c47461c 	lw	a3,17948(v0)
  41e028:	8c464618 	lw	a2,17944(v0)
  41e02c:	0320f809 	jalr	t9
  41e030:	02202821 	move	a1,s1
  41e034:	3c040043 	lui	a0,0x43
  41e038:	8fbc0010 	lw	gp,16(sp)
  41e03c:	24843fb0 	addiu	a0,a0,16304
[31m  41e040:	8f9983f4 	lw	t9,printf[0m
  41e044:	00603821 	move	a3,v1
  41e048:	10000006 	b	41e064 <libxt_rateest_init@@Base+0x158>
  41e04c:	00403021 	move	a2,v0
  41e050:	3c040043 	lui	a0,0x43
  41e054:	02003021 	move	a2,s0
[31m  41e058:	8f9983f4 	lw	t9,printf[0m
  41e05c:	24843fbc 	addiu	a0,a0,16316
  41e060:	02203821 	move	a3,s1
  41e064:	8fbf0024 	lw	ra,36(sp)
  41e068:	8fb10020 	lw	s1,32(sp)
  41e06c:	8fb0001c 	lw	s0,28(sp)
  41e070:	03200008 	jr	t9
  41e074:	27bd0028 	addiu	sp,sp,40
  41e078:	27bdffd8 	addiu	sp,sp,-40
  41e07c:	afbf0024 	sw	ra,36(sp)
  41e080:	afb00020 	sw	s0,32(sp)
  41e084:	3c1c0045 	lui	gp,0x45
  41e088:	279c6160 	addiu	gp,gp,24928
  41e08c:	afbc0010 	sw	gp,16(sp)
  41e090:	94820020 	lhu	v0,32(a0)
  41e094:	30420001 	andi	v0,v0,0x1
  41e098:	10400008 	beqz	v0,41e0bc <libxt_rateest_init@@Base+0x1b0>
  41e09c:	00808021 	move	s0,a0
[31m  41e0a0:	8f9983f4 	lw	t9,printf[0m
  41e0a4:	3c040043 	lui	a0,0x43
  41e0a8:	afa50018 	sw	a1,24(sp)
  41e0ac:	0320f809 	jalr	t9
  41e0b0:	2484c8c4 	addiu	a0,a0,-14140
  41e0b4:	8fbc0010 	lw	gp,16(sp)
  41e0b8:	8fa50018 	lw	a1,24(sp)
  41e0bc:	96020022 	lhu	v0,34(s0)
  41e0c0:	24030002 	li	v1,2
  41e0c4:	10430008 	beq	v0,v1,41e0e8 <libxt_rateest_init@@Base+0x1dc>
  41e0c8:	24030003 	li	v1,3
  41e0cc:	1043000a 	beq	v0,v1,41e0f8 <libxt_rateest_init@@Base+0x1ec>
  41e0d0:	24030001 	li	v1,1
  41e0d4:	1443000f 	bne	v0,v1,41e114 <libxt_rateest_init@@Base+0x208>
  41e0d8:	3c040043 	lui	a0,0x43
[31m  41e0dc:	8f9983f4 	lw	t9,printf[0m
  41e0e0:	10000008 	b	41e104 <libxt_rateest_init@@Base+0x1f8>
  41e0e4:	24843fc8 	addiu	a0,a0,16328
  41e0e8:	3c040043 	lui	a0,0x43
[31m  41e0ec:	8f9983f4 	lw	t9,printf[0m
  41e0f0:	10000004 	b	41e104 <libxt_rateest_init@@Base+0x1f8>
  41e0f4:	24843fd0 	addiu	a0,a0,16336
  41e0f8:	3c040043 	lui	a0,0x43
[31m  41e0fc:	8f9983f4 	lw	t9,printf[0m
  41e100:	24843fd8 	addiu	a0,a0,16344
  41e104:	8fbf0024 	lw	ra,36(sp)
  41e108:	8fb00020 	lw	s0,32(sp)
  41e10c:	03200008 	jr	t9
  41e110:	27bd0028 	addiu	sp,sp,40
  41e114:	8f9980d0 	lw	t9,-32560(gp)
  41e118:	0320f809 	jalr	t9
  41e11c:	24040001 	li	a0,1
  41e120:	27bdffe0 	addiu	sp,sp,-32
  41e124:	afbf001c 	sw	ra,28(sp)
  41e128:	afb00018 	sw	s0,24(sp)
  41e12c:	3c1c0045 	lui	gp,0x45
  41e130:	279c6160 	addiu	gp,gp,24928
  41e134:	afbc0010 	sw	gp,16(sp)
  41e138:	24b00020 	addiu	s0,a1,32
  41e13c:	96020020 	lhu	v0,32(s0)
[31m  41e140:	8f9983f4 	lw	t9,printf[0m
  41e144:	30420004 	andi	v0,v0,0x4
  41e148:	10400020 	beqz	v0,41e1cc <libxt_rateest_init@@Base+0x2c0>
  41e14c:	02002821 	move	a1,s0
  41e150:	3c040043 	lui	a0,0x43
  41e154:	0320f809 	jalr	t9
  41e158:	24843fe0 	addiu	a0,a0,16352
  41e15c:	96020020 	lhu	v0,32(s0)
  41e160:	8fbc0010 	lw	gp,16(sp)
  41e164:	30420010 	andi	v0,v0,0x10
  41e168:	10400006 	beqz	v0,41e184 <libxt_rateest_init@@Base+0x278>
  41e16c:	00000000 	nop
[31m  41e170:	8f9983f4 	lw	t9,printf[0m
  41e174:	3c040043 	lui	a0,0x43
  41e178:	0320f809 	jalr	t9
  41e17c:	24843ff0 	addiu	a0,a0,16368
  41e180:	8fbc0010 	lw	gp,16(sp)
  41e184:	96020020 	lhu	v0,32(s0)
  41e188:	30420020 	andi	v0,v0,0x20
  41e18c:	10400005 	beqz	v0,41e1a4 <libxt_rateest_init@@Base+0x298>
  41e190:	00000000 	nop
[31m  41e194:	8f9983f4 	lw	t9,printf[0m
  41e198:	3c040043 	lui	a0,0x43
  41e19c:	0320f809 	jalr	t9
  41e1a0:	24844000 	addiu	a0,a0,16384
  41e1a4:	3c050043 	lui	a1,0x43
  41e1a8:	02002021 	move	a0,s0
  41e1ac:	0c10781e 	jal	41e078 <libxt_rateest_init@@Base+0x16c>
  41e1b0:	24a54010 	addiu	a1,a1,16400
  41e1b4:	3c040043 	lui	a0,0x43
  41e1b8:	8fbc0010 	lw	gp,16(sp)
  41e1bc:	2484401c 	addiu	a0,a0,16412
[31m  41e1c0:	8f9983f4 	lw	t9,printf[0m
  41e1c4:	10000024 	b	41e258 <libxt_rateest_init@@Base+0x34c>
  41e1c8:	26050010 	addiu	a1,s0,16
  41e1cc:	3c040043 	lui	a0,0x43
  41e1d0:	0320f809 	jalr	t9
  41e1d4:	2484402c 	addiu	a0,a0,16428
  41e1d8:	96020020 	lhu	v0,32(s0)
  41e1dc:	8fbc0010 	lw	gp,16(sp)
  41e1e0:	30420010 	andi	v0,v0,0x10
  41e1e4:	1040000c 	beqz	v0,41e218 <libxt_rateest_init@@Base+0x30c>
  41e1e8:	3c040043 	lui	a0,0x43
[31m  41e1ec:	8f9983f4 	lw	t9,printf[0m
  41e1f0:	0320f809 	jalr	t9
  41e1f4:	24843ff0 	addiu	a0,a0,16368
  41e1f8:	3c050043 	lui	a1,0x43
  41e1fc:	02002021 	move	a0,s0
  41e200:	0c10781e 	jal	41e078 <libxt_rateest_init@@Base+0x16c>
  41e204:	24a54010 	addiu	a1,a1,16400
  41e208:	8e04002c 	lw	a0,44(s0)
  41e20c:	0c1077ca 	jal	41df28 <libxt_rateest_init@@Base+0x1c>
  41e210:	00002821 	move	a1,zero
  41e214:	8fbc0010 	lw	gp,16(sp)
  41e218:	96020020 	lhu	v0,32(s0)
  41e21c:	30420020 	andi	v0,v0,0x20
  41e220:	10400011 	beqz	v0,41e268 <libxt_rateest_init@@Base+0x35c>
  41e224:	3c040043 	lui	a0,0x43
[31m  41e228:	8f9983f4 	lw	t9,printf[0m
  41e22c:	0320f809 	jalr	t9
  41e230:	24844000 	addiu	a0,a0,16384
  41e234:	3c050043 	lui	a1,0x43
  41e238:	02002021 	move	a0,s0
  41e23c:	0c10781e 	jal	41e078 <libxt_rateest_init@@Base+0x16c>
  41e240:	24a54010 	addiu	a1,a1,16400
  41e244:	3c040043 	lui	a0,0x43
  41e248:	8fbc0010 	lw	gp,16(sp)
  41e24c:	2484391c 	addiu	a0,a0,14620
  41e250:	8e050030 	lw	a1,48(s0)
[31m  41e254:	8f9983f4 	lw	t9,printf[0m
  41e258:	8fbf001c 	lw	ra,28(sp)
  41e25c:	8fb00018 	lw	s0,24(sp)
  41e260:	03200008 	jr	t9
  41e264:	27bd0020 	addiu	sp,sp,32
  41e268:	8fbf001c 	lw	ra,28(sp)
  41e26c:	8fb00018 	lw	s0,24(sp)
  41e270:	03e00008 	jr	ra
  41e274:	27bd0020 	addiu	sp,sp,32
  41e278:	27bdffd8 	addiu	sp,sp,-40
  41e27c:	afbf0024 	sw	ra,36(sp)
  41e280:	afb20020 	sw	s2,32(sp)
  41e284:	afb1001c 	sw	s1,28(sp)
  41e288:	afb00018 	sw	s0,24(sp)
  41e28c:	3c1c0045 	lui	gp,0x45
  41e290:	279c6160 	addiu	gp,gp,24928
  41e294:	afbc0010 	sw	gp,16(sp)
  41e298:	3c040043 	lui	a0,0x43
[31m  41e29c:	8f9983f4 	lw	t9,printf[0m
  41e2a0:	2484403c 	addiu	a0,a0,16444
  41e2a4:	00c08821 	move	s1,a2
  41e2a8:	24b00020 	addiu	s0,a1,32
  41e2ac:	0320f809 	jalr	t9
  41e2b0:	3c120043 	lui	s2,0x43
  41e2b4:	2652ca28 	addiu	s2,s2,-13784
  41e2b8:	02002821 	move	a1,s0
  41e2bc:	8fbc0010 	lw	gp,16(sp)
[31m  41e2c0:	8f9983f4 	lw	t9,printf[0m
  41e2c4:	0320f809 	jalr	t9
  41e2c8:	02402021 	move	a0,s2
  41e2cc:	96020020 	lhu	v0,32(s0)
  41e2d0:	8fbc0010 	lw	gp,16(sp)
  41e2d4:	30420008 	andi	v0,v0,0x8
  41e2d8:	10400006 	beqz	v0,41e2f4 <libxt_rateest_init@@Base+0x3e8>
  41e2dc:	00000000 	nop
[31m  41e2e0:	8f9983f4 	lw	t9,printf[0m
  41e2e4:	3c040043 	lui	a0,0x43
  41e2e8:	0320f809 	jalr	t9
  41e2ec:	2484404c 	addiu	a0,a0,16460
  41e2f0:	8fbc0010 	lw	gp,16(sp)
  41e2f4:	96020020 	lhu	v0,32(s0)
  41e2f8:	30420010 	andi	v0,v0,0x10
  41e2fc:	10400018 	beqz	v0,41e360 <libxt_rateest_init@@Base+0x454>
  41e300:	3c040043 	lui	a0,0x43
[31m  41e304:	8f9983f4 	lw	t9,printf[0m
  41e308:	0320f809 	jalr	t9
  41e30c:	24844054 	addiu	a0,a0,16468
  41e310:	96020020 	lhu	v0,32(s0)
  41e314:	8fbc0010 	lw	gp,16(sp)
  41e318:	30420008 	andi	v0,v0,0x8
  41e31c:	10400005 	beqz	v0,41e334 <libxt_rateest_init@@Base+0x428>
  41e320:	00000000 	nop
  41e324:	8e040024 	lw	a0,36(s0)
  41e328:	0c1077ca 	jal	41df28 <libxt_rateest_init@@Base+0x1c>
  41e32c:	02202821 	move	a1,s1
  41e330:	8fbc0010 	lw	gp,16(sp)
  41e334:	96020020 	lhu	v0,32(s0)
  41e338:	30420002 	andi	v0,v0,0x2
  41e33c:	10400008 	beqz	v0,41e360 <libxt_rateest_init@@Base+0x454>
  41e340:	02002021 	move	a0,s0
  41e344:	3c050043 	lui	a1,0x43
  41e348:	0c10781e 	jal	41e078 <libxt_rateest_init@@Base+0x16c>
  41e34c:	24a53f34 	addiu	a1,a1,16180
  41e350:	8e04002c 	lw	a0,44(s0)
  41e354:	0c1077ca 	jal	41df28 <libxt_rateest_init@@Base+0x1c>
  41e358:	02202821 	move	a1,s1
  41e35c:	8fbc0010 	lw	gp,16(sp)
  41e360:	96020020 	lhu	v0,32(s0)
  41e364:	30420020 	andi	v0,v0,0x20
  41e368:	1040001c 	beqz	v0,41e3dc <libxt_rateest_init@@Base+0x4d0>
  41e36c:	00000000 	nop
[31m  41e370:	8f9983f4 	lw	t9,printf[0m
  41e374:	3c040043 	lui	a0,0x43
  41e378:	0320f809 	jalr	t9
  41e37c:	2484405c 	addiu	a0,a0,16476
  41e380:	96020020 	lhu	v0,32(s0)
  41e384:	8fbc0010 	lw	gp,16(sp)
  41e388:	30420008 	andi	v0,v0,0x8
  41e38c:	10400006 	beqz	v0,41e3a8 <libxt_rateest_init@@Base+0x49c>
  41e390:	00000000 	nop
[31m  41e394:	8f9983f4 	lw	t9,printf[0m
  41e398:	3c040043 	lui	a0,0x43
  41e39c:	8e050028 	lw	a1,40(s0)
  41e3a0:	0320f809 	jalr	t9
  41e3a4:	2484391c 	addiu	a0,a0,14620
  41e3a8:	96020020 	lhu	v0,32(s0)
  41e3ac:	30420002 	andi	v0,v0,0x2
  41e3b0:	1040000a 	beqz	v0,41e3dc <libxt_rateest_init@@Base+0x4d0>
  41e3b4:	3c050043 	lui	a1,0x43
  41e3b8:	02002021 	move	a0,s0
  41e3bc:	0c10781e 	jal	41e078 <libxt_rateest_init@@Base+0x16c>
  41e3c0:	24a53f34 	addiu	a1,a1,16180
  41e3c4:	3c040043 	lui	a0,0x43
  41e3c8:	8fbc0010 	lw	gp,16(sp)
  41e3cc:	8e050030 	lw	a1,48(s0)
[31m  41e3d0:	8f9983f4 	lw	t9,printf[0m
  41e3d4:	0320f809 	jalr	t9
  41e3d8:	2484391c 	addiu	a0,a0,14620
  41e3dc:	96020020 	lhu	v0,32(s0)
  41e3e0:	30420004 	andi	v0,v0,0x4
  41e3e4:	10400038 	beqz	v0,41e4c8 <libxt_rateest_init@@Base+0x5bc>
  41e3e8:	3c050043 	lui	a1,0x43
  41e3ec:	02002021 	move	a0,s0
  41e3f0:	0c10781e 	jal	41e078 <libxt_rateest_init@@Base+0x16c>
  41e3f4:	24a53f34 	addiu	a1,a1,16180
  41e3f8:	02402021 	move	a0,s2
  41e3fc:	8fbc0010 	lw	gp,16(sp)
[31m  41e400:	8f9983f4 	lw	t9,printf[0m
  41e404:	0320f809 	jalr	t9
  41e408:	26050010 	addiu	a1,s0,16
  41e40c:	96020020 	lhu	v0,32(s0)
  41e410:	8fbc0010 	lw	gp,16(sp)
  41e414:	30420008 	andi	v0,v0,0x8
  41e418:	10400006 	beqz	v0,41e434 <libxt_rateest_init@@Base+0x528>
  41e41c:	00000000 	nop
[31m  41e420:	8f9983f4 	lw	t9,printf[0m
  41e424:	3c040043 	lui	a0,0x43
  41e428:	0320f809 	jalr	t9
  41e42c:	2484404c 	addiu	a0,a0,16460
  41e430:	8fbc0010 	lw	gp,16(sp)
  41e434:	96020020 	lhu	v0,32(s0)
  41e438:	30420010 	andi	v0,v0,0x10
  41e43c:	1040000d 	beqz	v0,41e474 <libxt_rateest_init@@Base+0x568>
  41e440:	3c040043 	lui	a0,0x43
[31m  41e444:	8f9983f4 	lw	t9,printf[0m
  41e448:	0320f809 	jalr	t9
  41e44c:	24844054 	addiu	a0,a0,16468
  41e450:	96020020 	lhu	v0,32(s0)
  41e454:	8fbc0010 	lw	gp,16(sp)
  41e458:	30420008 	andi	v0,v0,0x8
  41e45c:	10400005 	beqz	v0,41e474 <libxt_rateest_init@@Base+0x568>
  41e460:	00000000 	nop
  41e464:	8e04002c 	lw	a0,44(s0)
  41e468:	0c1077ca 	jal	41df28 <libxt_rateest_init@@Base+0x1c>
  41e46c:	02202821 	move	a1,s1
  41e470:	8fbc0010 	lw	gp,16(sp)
  41e474:	96020020 	lhu	v0,32(s0)
  41e478:	30420020 	andi	v0,v0,0x20
  41e47c:	10400012 	beqz	v0,41e4c8 <libxt_rateest_init@@Base+0x5bc>
  41e480:	3c040043 	lui	a0,0x43
[31m  41e484:	8f9983f4 	lw	t9,printf[0m
  41e488:	0320f809 	jalr	t9
  41e48c:	2484405c 	addiu	a0,a0,16476
  41e490:	96020020 	lhu	v0,32(s0)
  41e494:	8fbc0010 	lw	gp,16(sp)
  41e498:	30420008 	andi	v0,v0,0x8
  41e49c:	1040000a 	beqz	v0,41e4c8 <libxt_rateest_init@@Base+0x5bc>
  41e4a0:	3c040043 	lui	a0,0x43
  41e4a4:	8e050030 	lw	a1,48(s0)
[31m  41e4a8:	8f9983f4 	lw	t9,printf[0m
  41e4ac:	2484391c 	addiu	a0,a0,14620
  41e4b0:	8fbf0024 	lw	ra,36(sp)
--
  41ec1c:	279c6160 	addiu	gp,gp,24928
  41ec20:	afbc0010 	sw	gp,16(sp)
  41ec24:	3c110043 	lui	s1,0x43
  41ec28:	8f9982e0 	lw	t9,-32032(gp)
  41ec2c:	0320f809 	jalr	t9
  41ec30:	00809021 	move	s2,a0
  41ec34:	8fbc0010 	lw	gp,16(sp)
  41ec38:	00408021 	move	s0,v0
  41ec3c:	8e274614 	lw	a3,17940(s1)
  41ec40:	02002021 	move	a0,s0
  41ec44:	8f9983c0 	lw	t9,-31808(gp)
  41ec48:	00602821 	move	a1,v1
  41ec4c:	8e264610 	lw	a2,17936(s1)
  41ec50:	0320f809 	jalr	t9
  41ec54:	00609821 	move	s3,v1
  41ec58:	8fbc0010 	lw	gp,16(sp)
  41ec5c:	0440000b 	bltz	v0,41ec8c <libxt_RATEEST_init@@Base+0xa8>
  41ec60:	02002021 	move	a0,s0
  41ec64:	8f9983ec 	lw	t9,-31764(gp)
  41ec68:	8e274614 	lw	a3,17940(s1)
  41ec6c:	8e264610 	lw	a2,17936(s1)
  41ec70:	0320f809 	jalr	t9
  41ec74:	02602821 	move	a1,s3
  41ec78:	3c040043 	lui	a0,0x43
  41ec7c:	8fbc0010 	lw	gp,16(sp)
[31m  41ec80:	8f9983f4 	lw	t9,printf[0m
  41ec84:	10000014 	b	41ecd8 <libxt_RATEEST_init@@Base+0xf4>
  41ec88:	24844628 	addiu	a0,a0,17960
  41ec8c:	3c110043 	lui	s1,0x43
  41ec90:	8f9983c0 	lw	t9,-31808(gp)
  41ec94:	8e27461c 	lw	a3,17948(s1)
  41ec98:	8e264618 	lw	a2,17944(s1)
  41ec9c:	0320f809 	jalr	t9
  41eca0:	02602821 	move	a1,s3
  41eca4:	8fbc0010 	lw	gp,16(sp)
  41eca8:	04400014 	bltz	v0,41ecfc <libxt_RATEEST_init@@Base+0x118>
  41ecac:	3c040043 	lui	a0,0x43
  41ecb0:	8f9983ec 	lw	t9,-31764(gp)
  41ecb4:	02002021 	move	a0,s0
  41ecb8:	8e27461c 	lw	a3,17948(s1)
  41ecbc:	8e264618 	lw	a2,17944(s1)
  41ecc0:	0320f809 	jalr	t9
  41ecc4:	02602821 	move	a1,s3
  41ecc8:	3c040043 	lui	a0,0x43
  41eccc:	8fbc0010 	lw	gp,16(sp)
  41ecd0:	24844630 	addiu	a0,a0,17968
[31m  41ecd4:	8f9983f4 	lw	t9,printf[0m
  41ecd8:	8fbf002c 	lw	ra,44(sp)
  41ecdc:	00603821 	move	a3,v1
  41ece0:	8fb30028 	lw	s3,40(sp)
  41ece4:	00403021 	move	a2,v0
  41ece8:	8fb20024 	lw	s2,36(sp)
  41ecec:	8fb10020 	lw	s1,32(sp)
  41ecf0:	8fb0001c 	lw	s0,28(sp)
  41ecf4:	03200008 	jr	t9
  41ecf8:	27bd0030 	addiu	sp,sp,48
  41ecfc:	02402821 	move	a1,s2
[31m  41ed00:	8f9983f4 	lw	t9,printf[0m
  41ed04:	8fbf002c 	lw	ra,44(sp)
  41ed08:	24844638 	addiu	a0,a0,17976
  41ed0c:	8fb30028 	lw	s3,40(sp)
  41ed10:	8fb20024 	lw	s2,36(sp)
  41ed14:	8fb10020 	lw	s1,32(sp)
  41ed18:	8fb0001c 	lw	s0,28(sp)
  41ed1c:	03200008 	jr	t9
  41ed20:	27bd0030 	addiu	sp,sp,48
  41ed24:	27bdffd8 	addiu	sp,sp,-40
  41ed28:	afbf0024 	sw	ra,36(sp)
  41ed2c:	afb20020 	sw	s2,32(sp)
  41ed30:	afb1001c 	sw	s1,28(sp)
  41ed34:	afb00018 	sw	s0,24(sp)
  41ed38:	3c1c0045 	lui	gp,0x45
  41ed3c:	279c6160 	addiu	gp,gp,24928
  41ed40:	afbc0010 	sw	gp,16(sp)
  41ed44:	3c02000f 	lui	v0,0xf
  41ed48:	24860020 	addiu	a2,a0,32
  41ed4c:	34424240 	ori	v0,v0,0x4240
  41ed50:	3c040043 	lui	a0,0x43
  41ed54:	80c30010 	lb	v1,16(a2)
  41ed58:	24844640 	addiu	a0,a0,17984
  41ed5c:	00a08021 	move	s0,a1
[31m  41ed60:	8f9983f4 	lw	t9,printf[0m
  41ed64:	24630002 	addiu	v1,v1,2
  41ed68:	00621004 	sllv	v0,v0,v1
  41ed6c:	90d20011 	lbu	s2,17(a2)
  41ed70:	24430003 	addiu	v1,v0,3
  41ed74:	28510000 	slti	s1,v0,0
  41ed78:	0071100b 	0x71100b
  41ed7c:	0320f809 	jalr	t9
  41ed80:	00028883 	sra	s1,v0,0x2
  41ed84:	3c040043 	lui	a0,0x43
  41ed88:	8fbc0010 	lw	gp,16(sp)
  41ed8c:	02002821 	move	a1,s0
  41ed90:	2484464c 	addiu	a0,a0,17996
[31m  41ed94:	8f9983f4 	lw	t9,printf[0m
  41ed98:	0320f809 	jalr	t9
  41ed9c:	02519004 	sllv	s2,s1,s2
  41eda0:	0c107b00 	jal	41ec00 <libxt_RATEEST_init@@Base+0x1c>
  41eda4:	02202021 	move	a0,s1
  41eda8:	3c040043 	lui	a0,0x43
  41edac:	02002821 	move	a1,s0
  41edb0:	8fbc0010 	lw	gp,16(sp)
[31m  41edb4:	8f9983f4 	lw	t9,printf[0m
  41edb8:	0320f809 	jalr	t9
  41edbc:	24844658 	addiu	a0,a0,18008
--
  41f448:	3c1c0045 	lui	gp,0x45
  41f44c:	279c6160 	addiu	gp,gp,24928
  41f450:	afbc0010 	sw	gp,16(sp)
  41f454:	3c040045 	lui	a0,0x45
  41f458:	8f998148 	lw	t9,-32440(gp)
  41f45c:	0320f809 	jalr	t9
  41f460:	2484d410 	addiu	a0,a0,-11248
  41f464:	3c040045 	lui	a0,0x45
  41f468:	8fbc0010 	lw	gp,16(sp)
  41f46c:	2484d454 	addiu	a0,a0,-11180
  41f470:	8fbf001c 	lw	ra,28(sp)
  41f474:	8f998148 	lw	t9,-32440(gp)
  41f478:	03200008 	jr	t9
  41f47c:	27bd0020 	addiu	sp,sp,32
  41f480:	27bdffd8 	addiu	sp,sp,-40
  41f484:	afbf0024 	sw	ra,36(sp)
  41f488:	afb10020 	sw	s1,32(sp)
  41f48c:	afb0001c 	sw	s0,28(sp)
  41f490:	3c1c0045 	lui	gp,0x45
  41f494:	279c6160 	addiu	gp,gp,24928
  41f498:	afbc0010 	sw	gp,16(sp)
  41f49c:	24b00020 	addiu	s0,a1,32
  41f4a0:	92020009 	lbu	v0,9(s0)
  41f4a4:	10400006 	beqz	v0,41f4c0 <libxt_recent_init@@Base+0x80>
  41f4a8:	00a08821 	move	s1,a1
[31m  41f4ac:	8f9983f4 	lw	t9,printf[0m
  41f4b0:	3c040043 	lui	a0,0x43
  41f4b4:	0320f809 	jalr	t9
  41f4b8:	2484c8c4 	addiu	a0,a0,-14140
  41f4bc:	8fbc0010 	lw	gp,16(sp)
  41f4c0:	92020008 	lbu	v0,8(s0)
  41f4c4:	30420002 	andi	v0,v0,0x2
  41f4c8:	10400006 	beqz	v0,41f4e4 <libxt_recent_init@@Base+0xa4>
  41f4cc:	00000000 	nop
[31m  41f4d0:	8f9983f4 	lw	t9,printf[0m
  41f4d4:	3c040043 	lui	a0,0x43
  41f4d8:	0320f809 	jalr	t9
  41f4dc:	248449ac 	addiu	a0,a0,18860
  41f4e0:	8fbc0010 	lw	gp,16(sp)
  41f4e4:	92020008 	lbu	v0,8(s0)
  41f4e8:	30420001 	andi	v0,v0,0x1
  41f4ec:	10400006 	beqz	v0,41f508 <libxt_recent_init@@Base+0xc8>
  41f4f0:	00000000 	nop
[31m  41f4f4:	8f9983f4 	lw	t9,printf[0m
  41f4f8:	3c040043 	lui	a0,0x43
  41f4fc:	0320f809 	jalr	t9
  41f500:	248449b4 	addiu	a0,a0,18868
  41f504:	8fbc0010 	lw	gp,16(sp)
  41f508:	92020008 	lbu	v0,8(s0)
  41f50c:	30420004 	andi	v0,v0,0x4
  41f510:	10400006 	beqz	v0,41f52c <libxt_recent_init@@Base+0xec>
  41f514:	00000000 	nop
[31m  41f518:	8f9983f4 	lw	t9,printf[0m
  41f51c:	3c040043 	lui	a0,0x43
  41f520:	0320f809 	jalr	t9
  41f524:	248449c0 	addiu	a0,a0,18880
  41f528:	8fbc0010 	lw	gp,16(sp)
  41f52c:	92020008 	lbu	v0,8(s0)
  41f530:	30420008 	andi	v0,v0,0x8
  41f534:	10400006 	beqz	v0,41f550 <libxt_recent_init@@Base+0x110>
  41f538:	00000000 	nop
[31m  41f53c:	8f9983f4 	lw	t9,printf[0m
  41f540:	3c040043 	lui	a0,0x43
  41f544:	0320f809 	jalr	t9
  41f548:	248449cc 	addiu	a0,a0,18892
  41f54c:	8fbc0010 	lw	gp,16(sp)
  41f550:	8e250020 	lw	a1,32(s1)
  41f554:	10a00006 	beqz	a1,41f570 <libxt_recent_init@@Base+0x130>
  41f558:	00000000 	nop
[31m  41f55c:	8f9983f4 	lw	t9,printf[0m
  41f560:	3c040043 	lui	a0,0x43
  41f564:	0320f809 	jalr	t9
  41f568:	248449d8 	addiu	a0,a0,18904
  41f56c:	8fbc0010 	lw	gp,16(sp)
  41f570:	8e050004 	lw	a1,4(s0)
  41f574:	10a00006 	beqz	a1,41f590 <libxt_recent_init@@Base+0x150>
  41f578:	00000000 	nop
[31m  41f57c:	8f9983f4 	lw	t9,printf[0m
  41f580:	3c040043 	lui	a0,0x43
  41f584:	0320f809 	jalr	t9
  41f588:	248449e8 	addiu	a0,a0,18920
  41f58c:	8fbc0010 	lw	gp,16(sp)
  41f590:	92020008 	lbu	v0,8(s0)
  41f594:	30420010 	andi	v0,v0,0x10
  41f598:	10400005 	beqz	v0,41f5b0 <libxt_recent_init@@Base+0x170>
  41f59c:	3c040043 	lui	a0,0x43
[31m  41f5a0:	8f9983f4 	lw	t9,printf[0m
  41f5a4:	0320f809 	jalr	t9
  41f5a8:	248449f8 	addiu	a0,a0,18936
  41f5ac:	8fbc0010 	lw	gp,16(sp)
[31m  41f5b0:	8f9983f4 	lw	t9,printf[0m
  41f5b4:	3c040043 	lui	a0,0x43
  41f5b8:	24844a00 	addiu	a0,a0,18944
  41f5bc:	0320f809 	jalr	t9
  41f5c0:	2605000a 	addiu	a1,s0,10
  41f5c4:	920200d2 	lbu	v0,210(s0)
  41f5c8:	8fbc0010 	lw	gp,16(sp)
  41f5cc:	14400005 	bnez	v0,41f5e4 <libxt_recent_init@@Base+0x1a4>
  41f5d0:	3c040043 	lui	a0,0x43
[31m  41f5d4:	8f9983f4 	lw	t9,printf[0m
  41f5d8:	0320f809 	jalr	t9
  41f5dc:	24844a0c 	addiu	a0,a0,18956
  41f5e0:	8fbc0010 	lw	gp,16(sp)
  41f5e4:	920300d2 	lbu	v1,210(s0)
  41f5e8:	24020001 	li	v0,1
  41f5ec:	14620008 	bne	v1,v0,41f610 <libxt_recent_init@@Base+0x1d0>
  41f5f0:	3c040043 	lui	a0,0x43
[31m  41f5f4:	8f9983f4 	lw	t9,printf[0m
  41f5f8:	8fbf0024 	lw	ra,36(sp)
  41f5fc:	24844a18 	addiu	a0,a0,18968
--
  41f640:	24b00020 	addiu	s0,a1,32
  41f644:	92020009 	lbu	v0,9(s0)
  41f648:	10400016 	beqz	v0,41f6a4 <libxt_recent_init@@Base+0x264>
  41f64c:	00a08821 	move	s1,a1
  41f650:	8f8283f0 	lw	v0,-31760(gp)
  41f654:	8c450000 	lw	a1,0(v0)
  41f658:	8ca20034 	lw	v0,52(a1)
  41f65c:	1040000d 	beqz	v0,41f694 <libxt_recent_init@@Base+0x254>
  41f660:	00000000 	nop
  41f664:	8ca20010 	lw	v0,16(a1)
  41f668:	8ca3001c 	lw	v1,28(a1)
  41f66c:	0043182b 	sltu	v1,v0,v1
  41f670:	10600005 	beqz	v1,41f688 <libxt_recent_init@@Base+0x248>
  41f674:	24430001 	addiu	v1,v0,1
  41f678:	24040021 	li	a0,33
  41f67c:	a0440000 	sb	a0,0(v0)
  41f680:	10000008 	b	41f6a4 <libxt_recent_init@@Base+0x264>
  41f684:	aca30010 	sw	v1,16(a1)
  41f688:	8f998044 	lw	t9,-32700(gp)
  41f68c:	10000002 	b	41f698 <libxt_recent_init@@Base+0x258>
  41f690:	00000000 	nop
  41f694:	8f998118 	lw	t9,-32488(gp)
  41f698:	0320f809 	jalr	t9
  41f69c:	24040021 	li	a0,33
  41f6a0:	8fbc0010 	lw	gp,16(sp)
[31m  41f6a4:	8f9983f4 	lw	t9,printf[0m
  41f6a8:	3c040043 	lui	a0,0x43
  41f6ac:	0320f809 	jalr	t9
  41f6b0:	24844a24 	addiu	a0,a0,18980
  41f6b4:	92020008 	lbu	v0,8(s0)
  41f6b8:	8fbc0010 	lw	gp,16(sp)
  41f6bc:	30420002 	andi	v0,v0,0x2
  41f6c0:	10400006 	beqz	v0,41f6dc <libxt_recent_init@@Base+0x29c>
  41f6c4:	00000000 	nop
[31m  41f6c8:	8f9983f4 	lw	t9,printf[0m
  41f6cc:	3c040043 	lui	a0,0x43
  41f6d0:	0320f809 	jalr	t9
  41f6d4:	24844a30 	addiu	a0,a0,18992
  41f6d8:	8fbc0010 	lw	gp,16(sp)
  41f6dc:	92020008 	lbu	v0,8(s0)
  41f6e0:	30420001 	andi	v0,v0,0x1
  41f6e4:	10400006 	beqz	v0,41f700 <libxt_recent_init@@Base+0x2c0>
  41f6e8:	00000000 	nop
[31m  41f6ec:	8f9983f4 	lw	t9,printf[0m
  41f6f0:	3c040043 	lui	a0,0x43
  41f6f4:	0320f809 	jalr	t9
  41f6f8:	24844a38 	addiu	a0,a0,19000
  41f6fc:	8fbc0010 	lw	gp,16(sp)
  41f700:	92020008 	lbu	v0,8(s0)
  41f704:	30420004 	andi	v0,v0,0x4
  41f708:	10400006 	beqz	v0,41f724 <libxt_recent_init@@Base+0x2e4>
  41f70c:	00000000 	nop
[31m  41f710:	8f9983f4 	lw	t9,printf[0m
  41f714:	3c040043 	lui	a0,0x43
  41f718:	0320f809 	jalr	t9
  41f71c:	24844a40 	addiu	a0,a0,19008
  41f720:	8fbc0010 	lw	gp,16(sp)
  41f724:	92020008 	lbu	v0,8(s0)
  41f728:	30420008 	andi	v0,v0,0x8
  41f72c:	10400006 	beqz	v0,41f748 <libxt_recent_init@@Base+0x308>
  41f730:	00000000 	nop
[31m  41f734:	8f9983f4 	lw	t9,printf[0m
  41f738:	3c040043 	lui	a0,0x43
  41f73c:	0320f809 	jalr	t9
  41f740:	24844a48 	addiu	a0,a0,19016
  41f744:	8fbc0010 	lw	gp,16(sp)
  41f748:	8e250020 	lw	a1,32(s1)
  41f74c:	10a00006 	beqz	a1,41f768 <libxt_recent_init@@Base+0x328>
  41f750:	00000000 	nop
[31m  41f754:	8f9983f4 	lw	t9,printf[0m
  41f758:	3c040043 	lui	a0,0x43
  41f75c:	0320f809 	jalr	t9
  41f760:	24844a50 	addiu	a0,a0,19024
  41f764:	8fbc0010 	lw	gp,16(sp)
  41f768:	8e050004 	lw	a1,4(s0)
  41f76c:	10a00006 	beqz	a1,41f788 <libxt_recent_init@@Base+0x348>
  41f770:	00000000 	nop
[31m  41f774:	8f9983f4 	lw	t9,printf[0m
  41f778:	3c040043 	lui	a0,0x43
  41f77c:	0320f809 	jalr	t9
  41f780:	24844a60 	addiu	a0,a0,19040
  41f784:	8fbc0010 	lw	gp,16(sp)
  41f788:	92020008 	lbu	v0,8(s0)
  41f78c:	30420010 	andi	v0,v0,0x10
  41f790:	10400005 	beqz	v0,41f7a8 <libxt_recent_init@@Base+0x368>
  41f794:	3c040043 	lui	a0,0x43
[31m  41f798:	8f9983f4 	lw	t9,printf[0m
  41f79c:	0320f809 	jalr	t9
  41f7a0:	24844a70 	addiu	a0,a0,19056
  41f7a4:	8fbc0010 	lw	gp,16(sp)
[31m  41f7a8:	8f9983f4 	lw	t9,printf[0m
  41f7ac:	3c040043 	lui	a0,0x43
  41f7b0:	24844a7c 	addiu	a0,a0,19068
  41f7b4:	0320f809 	jalr	t9
  41f7b8:	2605000a 	addiu	a1,s0,10
  41f7bc:	920200d2 	lbu	v0,210(s0)
  41f7c0:	8fbc0010 	lw	gp,16(sp)
  41f7c4:	14400005 	bnez	v0,41f7dc <libxt_recent_init@@Base+0x39c>
  41f7c8:	3c040043 	lui	a0,0x43
[31m  41f7cc:	8f9983f4 	lw	t9,printf[0m
  41f7d0:	0320f809 	jalr	t9
  41f7d4:	24844a88 	addiu	a0,a0,19080
  41f7d8:	8fbc0010 	lw	gp,16(sp)
  41f7dc:	920300d2 	lbu	v1,210(s0)
  41f7e0:	24020001 	li	v0,1
  41f7e4:	14620008 	bne	v1,v0,41f808 <libxt_recent_init@@Base+0x3c8>
  41f7e8:	3c040043 	lui	a0,0x43
[31m  41f7ec:	8f9983f4 	lw	t9,printf[0m
  41f7f0:	8fbf0024 	lw	ra,36(sp)
  41f7f4:	24844a98 	addiu	a0,a0,19096
--
  41fb88:	afb7004c 	sw	s7,76(sp)
  41fb8c:	afb60048 	sw	s6,72(sp)
  41fb90:	afb50044 	sw	s5,68(sp)
  41fb94:	afb40040 	sw	s4,64(sp)
  41fb98:	afb3003c 	sw	s3,60(sp)
  41fb9c:	afb20038 	sw	s2,56(sp)
  41fba0:	afb10034 	sw	s1,52(sp)
  41fba4:	afb00030 	sw	s0,48(sp)
  41fba8:	3c1c0045 	lui	gp,0x45
  41fbac:	279c6160 	addiu	gp,gp,24928
  41fbb0:	afbc0010 	sw	gp,16(sp)
  41fbb4:	8c820108 	lw	v0,264(a0)
  41fbb8:	afa50028 	sw	a1,40(sp)
  41fbbc:	8c830118 	lw	v1,280(a0)
  41fbc0:	afa30020 	sw	v1,32(sp)
  41fbc4:	24030002 	li	v1,2
  41fbc8:	1043000b 	beq	v0,v1,41fbf8 <libxt_sctp_init@@Base+0xd8>
  41fbcc:	00808821 	move	s1,a0
  41fbd0:	24030004 	li	v1,4
  41fbd4:	1043000c 	beq	v0,v1,41fc08 <libxt_sctp_init@@Base+0xe8>
  41fbd8:	00000000 	nop
  41fbdc:	24030001 	li	v1,1
  41fbe0:	14430012 	bne	v0,v1,41fc2c <libxt_sctp_init@@Base+0x10c>
  41fbe4:	00000000 	nop
  41fbe8:	3c040043 	lui	a0,0x43
[31m  41fbec:	8f9983f4 	lw	t9,printf[0m
  41fbf0:	10000008 	b	41fc14 <libxt_sctp_init@@Base+0xf4>
  41fbf4:	24845408 	addiu	a0,a0,21512
  41fbf8:	3c040043 	lui	a0,0x43
[31m  41fbfc:	8f9983f4 	lw	t9,printf[0m
  41fc00:	10000004 	b	41fc14 <libxt_sctp_init@@Base+0xf4>
  41fc04:	24845410 	addiu	a0,a0,21520
  41fc08:	3c040043 	lui	a0,0x43
[31m  41fc0c:	8f9983f4 	lw	t9,printf[0m
  41fc10:	24845418 	addiu	a0,a0,21528
  41fc14:	0320f809 	jalr	t9
--
  41fc9c:	26f78b80 	addiu	s7,s7,-29824
  41fca0:	00001021 	move	v0,zero
  41fca4:	00008021 	move	s0,zero
  41fca8:	24160001 	li	s6,1
  41fcac:	24150007 	li	s5,7
  41fcb0:	24140008 	li	s4,8
  41fcb4:	00101942 	srl	v1,s0,0x5
  41fcb8:	24630002 	addiu	v1,v1,2
  41fcbc:	02162004 	sllv	a0,s6,s0
  41fcc0:	00031880 	sll	v1,v1,0x2
  41fcc4:	02231821 	addu	v1,s1,v1
  41fcc8:	8c630000 	lw	v1,0(v1)
  41fccc:	00831824 	and	v1,a0,v1
  41fcd0:	10600056 	beqz	v1,41fe2c <libxt_sctp_init@@Base+0x30c>
  41fcd4:	00000000 	nop
  41fcd8:	10400005 	beqz	v0,41fcf0 <libxt_sctp_init@@Base+0x1d0>
  41fcdc:	00000000 	nop
  41fce0:	8f998414 	lw	t9,-31724(gp)
  41fce4:	0320f809 	jalr	t9
  41fce8:	2404002c 	li	a0,44
  41fcec:	8fbc0010 	lw	gp,16(sp)
  41fcf0:	8fa40028 	lw	a0,40(sp)
  41fcf4:	3c130045 	lui	s3,0x45
  41fcf8:	10800012 	beqz	a0,41fd44 <libxt_sctp_init@@Base+0x224>
  41fcfc:	2673b154 	addiu	s3,s3,-20140
[31m  41fd00:	8f9983f4 	lw	t9,printf[0m
  41fd04:	3c040043 	lui	a0,0x43
  41fd08:	02002821 	move	a1,s0
  41fd0c:	0320f809 	jalr	t9
  41fd10:	24845434 	addiu	a0,a0,21556
  41fd14:	8fbc0010 	lw	gp,16(sp)
  41fd18:	02201821 	move	v1,s1
  41fd1c:	1000003e 	b	41fe18 <libxt_sctp_init@@Base+0x2f8>
  41fd20:	afa00018 	sw	zero,24(sp)
  41fd24:	8e620000 	lw	v0,0(s3)
  41fd28:	14500006 	bne	v0,s0,41fd44 <libxt_sctp_init@@Base+0x224>
  41fd2c:	2673000c 	addiu	s3,s3,12
[31m  41fd30:	8f9983f4 	lw	t9,printf[0m
  41fd34:	8e45fff8 	lw	a1,-8(s2)
  41fd38:	0320f809 	jalr	t9
--
  41fdec:	0320f809 	jalr	t9
  41fdf0:	afa3002c 	sw	v1,44(sp)
  41fdf4:	8fbc0010 	lw	gp,16(sp)
  41fdf8:	8fa3002c 	lw	v1,44(sp)
  41fdfc:	26730001 	addiu	s3,s3,1
  41fe00:	1674ffe3 	bne	s3,s4,41fd90 <libxt_sctp_init@@Base+0x270>
  41fe04:	00000000 	nop
  41fe08:	8fa20018 	lw	v0,24(sp)
  41fe0c:	24630003 	addiu	v1,v1,3
  41fe10:	24420001 	addiu	v0,v0,1
  41fe14:	afa20018 	sw	v0,24(sp)
  41fe18:	8fa40018 	lw	a0,24(sp)
  41fe1c:	8fa50020 	lw	a1,32(sp)
  41fe20:	0085102a 	slt	v0,a0,a1
  41fe24:	1440ffcb 	bnez	v0,41fd54 <libxt_sctp_init@@Base+0x234>
  41fe28:	24020001 	li	v0,1
  41fe2c:	26100001 	addiu	s0,s0,1
  41fe30:	24030100 	li	v1,256
  41fe34:	1603ff9f 	bne	s0,v1,41fcb4 <libxt_sctp_init@@Base+0x194>
  41fe38:	2652000c 	addiu	s2,s2,12
  41fe3c:	10400015 	beqz	v0,41fe94 <libxt_sctp_init@@Base+0x374>
  41fe40:	24040020 	li	a0,32
  41fe44:	8f998414 	lw	t9,-31724(gp)
  41fe48:	10000006 	b	41fe64 <libxt_sctp_init@@Base+0x344>
  41fe4c:	00000000 	nop
[31m  41fe50:	8f9983f4 	lw	t9,printf[0m
  41fe54:	10000003 	b	41fe64 <libxt_sctp_init@@Base+0x344>
  41fe58:	2484543c 	addiu	a0,a0,21564
[31m  41fe5c:	8f9983f4 	lw	t9,printf[0m
  41fe60:	24845444 	addiu	a0,a0,21572
  41fe64:	8fbf0054 	lw	ra,84(sp)
--
  41fea0:	8fb60048 	lw	s6,72(sp)
  41fea4:	8fb50044 	lw	s5,68(sp)
  41fea8:	8fb40040 	lw	s4,64(sp)
  41feac:	8fb3003c 	lw	s3,60(sp)
  41feb0:	8fb20038 	lw	s2,56(sp)
  41feb4:	8fb10034 	lw	s1,52(sp)
  41feb8:	8fb00030 	lw	s0,48(sp)
  41febc:	03e00008 	jr	ra
  41fec0:	27bd0058 	addiu	sp,sp,88
  41fec4:	27bdffd8 	addiu	sp,sp,-40
  41fec8:	afbf0024 	sw	ra,36(sp)
  41fecc:	afb10020 	sw	s1,32(sp)
  41fed0:	afb0001c 	sw	s0,28(sp)
  41fed4:	3c1c0045 	lui	gp,0x45
  41fed8:	279c6160 	addiu	gp,gp,24928
  41fedc:	afbc0010 	sw	gp,16(sp)
  41fee0:	24b00020 	addiu	s0,a1,32
  41fee4:	8e02011c 	lw	v0,284(s0)
  41fee8:	30420001 	andi	v0,v0,0x1
  41feec:	10400018 	beqz	v0,41ff50 <libxt_sctp_init@@Base+0x430>
  41fef0:	00a08821 	move	s1,a1
  41fef4:	8e020120 	lw	v0,288(s0)
  41fef8:	30420001 	andi	v0,v0,0x1
  41fefc:	10400006 	beqz	v0,41ff18 <libxt_sctp_init@@Base+0x3f8>
  41ff00:	00000000 	nop
[31m  41ff04:	8f9983f4 	lw	t9,printf[0m
  41ff08:	3c040043 	lui	a0,0x43
  41ff0c:	0320f809 	jalr	t9
  41ff10:	2484c8c4 	addiu	a0,a0,-14140
  41ff14:	8fbc0010 	lw	gp,16(sp)
  41ff18:	96050004 	lhu	a1,4(s0)
  41ff1c:	96060006 	lhu	a2,6(s0)
[31m  41ff20:	8f9983f4 	lw	t9,printf[0m
  41ff24:	10a60006 	beq	a1,a2,41ff40 <libxt_sctp_init@@Base+0x420>
  41ff28:	00000000 	nop
  41ff2c:	3c040043 	lui	a0,0x43
  41ff30:	0320f809 	jalr	t9
  41ff34:	248406e0 	addiu	a0,a0,1760
  41ff38:	10000004 	b	41ff4c <libxt_sctp_init@@Base+0x42c>
  41ff3c:	00000000 	nop
  41ff40:	3c040043 	lui	a0,0x43
  41ff44:	0320f809 	jalr	t9
  41ff48:	248406f0 	addiu	a0,a0,1776
  41ff4c:	8fbc0010 	lw	gp,16(sp)
  41ff50:	8e02011c 	lw	v0,284(s0)
  41ff54:	30420002 	andi	v0,v0,0x2
  41ff58:	10400018 	beqz	v0,41ffbc <libxt_sctp_init@@Base+0x49c>
  41ff5c:	00000000 	nop
  41ff60:	8e020120 	lw	v0,288(s0)
  41ff64:	30420002 	andi	v0,v0,0x2
  41ff68:	10400006 	beqz	v0,41ff84 <libxt_sctp_init@@Base+0x464>
  41ff6c:	00000000 	nop
[31m  41ff70:	8f9983f4 	lw	t9,printf[0m
  41ff74:	3c040043 	lui	a0,0x43
  41ff78:	0320f809 	jalr	t9
  41ff7c:	2484c8c4 	addiu	a0,a0,-14140
  41ff80:	8fbc0010 	lw	gp,16(sp)
  41ff84:	96250020 	lhu	a1,32(s1)
  41ff88:	96060002 	lhu	a2,2(s0)
[31m  41ff8c:	8f9983f4 	lw	t9,printf[0m
  41ff90:	10a60006 	beq	a1,a2,41ffac <libxt_sctp_init@@Base+0x48c>
  41ff94:	00000000 	nop
  41ff98:	3c040043 	lui	a0,0x43
  41ff9c:	0320f809 	jalr	t9
  41ffa0:	248406fc 	addiu	a0,a0,1788
  41ffa4:	10000004 	b	41ffb8 <libxt_sctp_init@@Base+0x498>
  41ffa8:	00000000 	nop
  41ffac:	3c040043 	lui	a0,0x43
  41ffb0:	0320f809 	jalr	t9
  41ffb4:	2484070c 	addiu	a0,a0,1804
  41ffb8:	8fbc0010 	lw	gp,16(sp)
  41ffbc:	8e02011c 	lw	v0,284(s0)
  41ffc0:	30420004 	andi	v0,v0,0x4
  41ffc4:	10400016 	beqz	v0,420020 <libxt_sctp_init@@Base+0x500>
  41ffc8:	00000000 	nop
  41ffcc:	8e020120 	lw	v0,288(s0)
  41ffd0:	30420004 	andi	v0,v0,0x4
  41ffd4:	10400006 	beqz	v0,41fff0 <libxt_sctp_init@@Base+0x4d0>
  41ffd8:	00000000 	nop
[31m  41ffdc:	8f9983f4 	lw	t9,printf[0m
  41ffe0:	3c040043 	lui	a0,0x43
  41ffe4:	0320f809 	jalr	t9
  41ffe8:	2484c8c4 	addiu	a0,a0,-14140
  41ffec:	8fbc0010 	lw	gp,16(sp)
[31m  41fff0:	8f9983f4 	lw	t9,printf[0m
  41fff4:	3c040043 	lui	a0,0x43
  41fff8:	0320f809 	jalr	t9
--
  420024:	8fb10020 	lw	s1,32(sp)
  420028:	8fb0001c 	lw	s0,28(sp)
  42002c:	03e00008 	jr	ra
  420030:	27bd0028 	addiu	sp,sp,40
  420034:	27bdffe0 	addiu	sp,sp,-32
  420038:	afbf001c 	sw	ra,28(sp)
  42003c:	afb00018 	sw	s0,24(sp)
  420040:	3c1c0045 	lui	gp,0x45
  420044:	279c6160 	addiu	gp,gp,24928
  420048:	afbc0010 	sw	gp,16(sp)
  42004c:	14a0000c 	bnez	a1,420080 <libxt_sctp_init@@Base+0x560>
  420050:	3090ffff 	andi	s0,a0,0xffff
  420054:	8f998198 	lw	t9,-32360(gp)
  420058:	3c050043 	lui	a1,0x43
  42005c:	02002021 	move	a0,s0
  420060:	0320f809 	jalr	t9
  420064:	24a5e250 	addiu	a1,a1,-7600
  420068:	8fbc0010 	lw	gp,16(sp)
  42006c:	10400005 	beqz	v0,420084 <libxt_sctp_init@@Base+0x564>
  420070:	3c040043 	lui	a0,0x43
  420074:	8c450000 	lw	a1,0(v0)
  420078:	14a00006 	bnez	a1,420094 <libxt_sctp_init@@Base+0x574>
  42007c:	00000000 	nop
  420080:	3c040043 	lui	a0,0x43
  420084:	02002821 	move	a1,s0
[31m  420088:	8f9983f4 	lw	t9,printf[0m
  42008c:	10000004 	b	4200a0 <libxt_sctp_init@@Base+0x580>
  420090:	24842d78 	addiu	a0,a0,11640
  420094:	3c040044 	lui	a0,0x44
[31m  420098:	8f9983f4 	lw	t9,printf[0m
  42009c:	24848b80 	addiu	a0,a0,-29824
  4200a0:	8fbf001c 	lw	ra,28(sp)
--
  4200ac:	27bd0020 	addiu	sp,sp,32
  4200b0:	27bdffd0 	addiu	sp,sp,-48
  4200b4:	afbf002c 	sw	ra,44(sp)
  4200b8:	afb30028 	sw	s3,40(sp)
  4200bc:	afb20024 	sw	s2,36(sp)
  4200c0:	afb10020 	sw	s1,32(sp)
  4200c4:	afb0001c 	sw	s0,28(sp)
  4200c8:	3c1c0045 	lui	gp,0x45
  4200cc:	279c6160 	addiu	gp,gp,24928
  4200d0:	afbc0010 	sw	gp,16(sp)
  4200d4:	8fb10040 	lw	s1,64(sp)
  4200d8:	30b0ffff 	andi	s0,a1,0xffff
  4200dc:	14e00004 	bnez	a3,4200f0 <libxt_sctp_init@@Base+0x5d0>
  4200e0:	30d2ffff 	andi	s2,a2,0xffff
  4200e4:	3c130043 	lui	s3,0x43
  4200e8:	10000003 	b	4200f8 <libxt_sctp_init@@Base+0x5d8>
  4200ec:	26733f34 	addiu	s3,s3,16180
  4200f0:	3c130043 	lui	s3,0x43
  4200f4:	26731db0 	addiu	s3,s3,7600
  4200f8:	16000005 	bnez	s0,420110 <libxt_sctp_init@@Base+0x5f0>
  4200fc:	3402ffff 	li	v0,0xffff
  420100:	16420003 	bne	s2,v0,420110 <libxt_sctp_init@@Base+0x5f0>
  420104:	00000000 	nop
  420108:	10e00028 	beqz	a3,4201ac <libxt_sctp_init@@Base+0x68c>
  42010c:	00000000 	nop
[31m  420110:	8f9983f4 	lw	t9,printf[0m
  420114:	00802821 	move	a1,a0
  420118:	3c040044 	lui	a0,0x44
  42011c:	0320f809 	jalr	t9
  420120:	24848b80 	addiu	a0,a0,-29824
  420124:	8fbc0010 	lw	gp,16(sp)
[31m  420128:	8f9983f4 	lw	t9,printf[0m
  42012c:	16120007 	bne	s0,s2,42014c <libxt_sctp_init@@Base+0x62c>
  420130:	00000000 	nop
--
  420188:	8fbc0010 	lw	gp,16(sp)
  42018c:	8fbf002c 	lw	ra,44(sp)
  420190:	8f998414 	lw	t9,-31724(gp)
  420194:	8fb30028 	lw	s3,40(sp)
  420198:	8fb20024 	lw	s2,36(sp)
  42019c:	8fb10020 	lw	s1,32(sp)
  4201a0:	8fb0001c 	lw	s0,28(sp)
  4201a4:	03200008 	jr	t9
  4201a8:	27bd0030 	addiu	sp,sp,48
  4201ac:	8fbf002c 	lw	ra,44(sp)
  4201b0:	8fb30028 	lw	s3,40(sp)
  4201b4:	8fb20024 	lw	s2,36(sp)
  4201b8:	8fb10020 	lw	s1,32(sp)
  4201bc:	8fb0001c 	lw	s0,28(sp)
  4201c0:	03e00008 	jr	ra
  4201c4:	27bd0030 	addiu	sp,sp,48
  4201c8:	27bdffd0 	addiu	sp,sp,-48
  4201cc:	afbf002c 	sw	ra,44(sp)
  4201d0:	afb20028 	sw	s2,40(sp)
  4201d4:	afb10024 	sw	s1,36(sp)
  4201d8:	afb00020 	sw	s0,32(sp)
  4201dc:	3c1c0045 	lui	gp,0x45
  4201e0:	279c6160 	addiu	gp,gp,24928
  4201e4:	afbc0018 	sw	gp,24(sp)
  4201e8:	3c040043 	lui	a0,0x43
[31m  4201ec:	8f9983f4 	lw	t9,printf[0m
  4201f0:	24b00020 	addiu	s0,a1,32
  4201f4:	00a09021 	move	s2,a1
--
  420224:	96060006 	lhu	a2,6(s0)
  420228:	30e70001 	andi	a3,a3,0x1
  42022c:	0c10802c 	jal	4200b0 <libxt_sctp_init@@Base+0x590>
  420230:	afb10010 	sw	s1,16(sp)
  420234:	8fbc0018 	lw	gp,24(sp)
  420238:	8e02011c 	lw	v0,284(s0)
  42023c:	30420002 	andi	v0,v0,0x2
  420240:	10400009 	beqz	v0,420268 <libxt_sctp_init@@Base+0x748>
  420244:	3c040043 	lui	a0,0x43
  420248:	8e070120 	lw	a3,288(s0)
  42024c:	96450020 	lhu	a1,32(s2)
  420250:	24840754 	addiu	a0,a0,1876
  420254:	96060002 	lhu	a2,2(s0)
  420258:	30e70002 	andi	a3,a3,0x2
  42025c:	0c10802c 	jal	4200b0 <libxt_sctp_init@@Base+0x590>
  420260:	afb10010 	sw	s1,16(sp)
  420264:	8fbc0018 	lw	gp,24(sp)
  420268:	8e02011c 	lw	v0,284(s0)
  42026c:	30420004 	andi	v0,v0,0x4
  420270:	10400011 	beqz	v0,4202b8 <libxt_sctp_init@@Base+0x798>
  420274:	00000000 	nop
  420278:	8e020120 	lw	v0,288(s0)
  42027c:	30420004 	andi	v0,v0,0x4
  420280:	10400005 	beqz	v0,420298 <libxt_sctp_init@@Base+0x778>
  420284:	3c040043 	lui	a0,0x43
[31m  420288:	8f9983f4 	lw	t9,printf[0m
  42028c:	0320f809 	jalr	t9
  420290:	2484c8c4 	addiu	a0,a0,-14140
--
  420aec:	0320f809 	jalr	t9
  420af0:	24040002 	li	a0,2
  420af4:	8fbf001c 	lw	ra,28(sp)
  420af8:	03e00008 	jr	ra
  420afc:	27bd0020 	addiu	sp,sp,32

00420b00 <libxt_SECMARK_init@@Base>:
  420b00:	3c1c0045 	lui	gp,0x45
  420b04:	3c040045 	lui	a0,0x45
  420b08:	279c6160 	addiu	gp,gp,24928
  420b0c:	2484d530 	addiu	a0,a0,-10960
  420b10:	8f9980c0 	lw	t9,-32576(gp)
  420b14:	03200008 	jr	t9
  420b18:	00000000 	nop
  420b1c:	27bdffe0 	addiu	sp,sp,-32
  420b20:	afbf001c 	sw	ra,28(sp)
  420b24:	3c1c0045 	lui	gp,0x45
  420b28:	279c6160 	addiu	gp,gp,24928
  420b2c:	afbc0010 	sw	gp,16(sp)
  420b30:	24020001 	li	v0,1
  420b34:	90860000 	lbu	a2,0(a0)
  420b38:	14c20008 	bne	a2,v0,420b5c <libxt_SECMARK_init@@Base+0x5c>
  420b3c:	3c050043 	lui	a1,0x43
  420b40:	24850008 	addiu	a1,a0,8
  420b44:	3c040043 	lui	a0,0x43
[31m  420b48:	8f9983f4 	lw	t9,printf[0m
  420b4c:	248456c4 	addiu	a0,a0,22212
  420b50:	8fbf001c 	lw	ra,28(sp)
  420b54:	03200008 	jr	t9
  420b58:	27bd0020 	addiu	sp,sp,32
  420b5c:	8f828080 	lw	v0,-32640(gp)
  420b60:	24a5fd80 	addiu	a1,a1,-640
  420b64:	8c420000 	lw	v0,0(v0)
  420b68:	8c590014 	lw	t9,20(v0)
  420b6c:	0320f809 	jalr	t9
  420b70:	24040001 	li	a0,1
  420b74:	27bdffd8 	addiu	sp,sp,-40
  420b78:	afbf0024 	sw	ra,36(sp)
  420b7c:	3c1c0045 	lui	gp,0x45
  420b80:	279c6160 	addiu	gp,gp,24928
  420b84:	afbc0010 	sw	gp,16(sp)
  420b88:	3c040043 	lui	a0,0x43
[31m  420b8c:	8f9983f4 	lw	t9,printf[0m
  420b90:	2484fda4 	addiu	a0,a0,-604
  420b94:	0320f809 	jalr	t9
  420b98:	afa50018 	sw	a1,24(sp)
  420b9c:	8fa50018 	lw	a1,24(sp)
  420ba0:	8fbc0010 	lw	gp,16(sp)
  420ba4:	8fbf0024 	lw	ra,36(sp)
  420ba8:	24a40020 	addiu	a0,a1,32
  420bac:	081082c7 	j	420b1c <libxt_SECMARK_init@@Base+0x1c>
  420bb0:	27bd0028 	addiu	sp,sp,40
  420bb4:	27bdffd8 	addiu	sp,sp,-40
  420bb8:	afbf0024 	sw	ra,36(sp)
  420bbc:	3c1c0045 	lui	gp,0x45
  420bc0:	279c6160 	addiu	gp,gp,24928
  420bc4:	afbc0010 	sw	gp,16(sp)
  420bc8:	3c040043 	lui	a0,0x43
[31m  420bcc:	8f9983f4 	lw	t9,printf[0m
  420bd0:	2484fdac 	addiu	a0,a0,-596
  420bd4:	0320f809 	jalr	t9
--
  420cd0:	27bd0030 	addiu	sp,sp,48
  420cd4:	3c1c0045 	lui	gp,0x45
  420cd8:	3c040043 	lui	a0,0x43
  420cdc:	279c6160 	addiu	gp,gp,24928
  420ce0:	24845748 	addiu	a0,a0,22344
  420ce4:	8f998370 	lw	t9,-31888(gp)
  420ce8:	03200008 	jr	t9
  420cec:	00000000 	nop
  420cf0:	03e00008 	jr	ra
  420cf4:	00001021 	move	v0,zero
  420cf8:	03e00008 	jr	ra
  420cfc:	00000000 	nop

00420d00 <libxt_socket_init@@Base>:
  420d00:	3c1c0045 	lui	gp,0x45
  420d04:	3c040045 	lui	a0,0x45
  420d08:	279c6160 	addiu	gp,gp,24928
  420d0c:	2484d580 	addiu	a0,a0,-10880
  420d10:	8f998148 	lw	t9,-32440(gp)
  420d14:	03200008 	jr	t9
  420d18:	00000000 	nop
  420d1c:	3c1c0045 	lui	gp,0x45
  420d20:	3c040043 	lui	a0,0x43
  420d24:	279c6160 	addiu	gp,gp,24928
  420d28:	3c050043 	lui	a1,0x43
[31m  420d2c:	8f9983f4 	lw	t9,printf[0m
  420d30:	248457b0 	addiu	a0,a0,22448
  420d34:	24a5df24 	addiu	a1,a1,-8412
--
  420dc8:	3c1c0045 	lui	gp,0x45
  420dcc:	279c6160 	addiu	gp,gp,24928
  420dd0:	afbc0010 	sw	gp,16(sp)
  420dd4:	3c040045 	lui	a0,0x45
  420dd8:	8f998148 	lw	t9,-32440(gp)
  420ddc:	0320f809 	jalr	t9
  420de0:	2484d620 	addiu	a0,a0,-10720
  420de4:	3c040045 	lui	a0,0x45
  420de8:	8fbc0010 	lw	gp,16(sp)
  420dec:	2484d664 	addiu	a0,a0,-10652
  420df0:	8fbf001c 	lw	ra,28(sp)
  420df4:	8f998148 	lw	t9,-32440(gp)
  420df8:	03200008 	jr	t9
  420dfc:	27bd0020 	addiu	sp,sp,32
  420e00:	27bdffe0 	addiu	sp,sp,-32
  420e04:	afbf001c 	sw	ra,28(sp)
  420e08:	afb00018 	sw	s0,24(sp)
  420e0c:	3c1c0045 	lui	gp,0x45
  420e10:	279c6160 	addiu	gp,gp,24928
  420e14:	afbc0010 	sw	gp,16(sp)
  420e18:	3c020043 	lui	v0,0x43
  420e1c:	30830001 	andi	v1,a0,0x1
  420e20:	24453f34 	addiu	a1,v0,16180
  420e24:	10600008 	beqz	v1,420e48 <libxt_state_init@@Base+0x88>
  420e28:	00808021 	move	s0,a0
[31m  420e2c:	8f9983f4 	lw	t9,printf[0m
  420e30:	3c040043 	lui	a0,0x43
  420e34:	0320f809 	jalr	t9
  420e38:	2484feac 	addiu	a0,a0,-340
  420e3c:	3c050043 	lui	a1,0x43
  420e40:	8fbc0010 	lw	gp,16(sp)
  420e44:	24a5feb8 	addiu	a1,a1,-328
  420e48:	32020008 	andi	v0,s0,0x8
  420e4c:	10400009 	beqz	v0,420e74 <libxt_state_init@@Base+0xb4>
  420e50:	32020004 	andi	v0,s0,0x4
[31m  420e54:	8f9983f4 	lw	t9,printf[0m
  420e58:	3c040043 	lui	a0,0x43
  420e5c:	0320f809 	jalr	t9
  420e60:	2484febc 	addiu	a0,a0,-324
  420e64:	3c050043 	lui	a1,0x43
  420e68:	8fbc0010 	lw	gp,16(sp)
  420e6c:	24a5feb8 	addiu	a1,a1,-328
  420e70:	32020004 	andi	v0,s0,0x4
  420e74:	10400009 	beqz	v0,420e9c <libxt_state_init@@Base+0xdc>
  420e78:	32020002 	andi	v0,s0,0x2
[31m  420e7c:	8f9983f4 	lw	t9,printf[0m
  420e80:	3c040043 	lui	a0,0x43
  420e84:	0320f809 	jalr	t9
  420e88:	2484fec4 	addiu	a0,a0,-316
  420e8c:	3c050043 	lui	a1,0x43
  420e90:	8fbc0010 	lw	gp,16(sp)
  420e94:	24a5feb8 	addiu	a1,a1,-328
  420e98:	32020002 	andi	v0,s0,0x2
  420e9c:	10400008 	beqz	v0,420ec0 <libxt_state_init@@Base+0x100>
  420ea0:	00000000 	nop
[31m  420ea4:	8f9983f4 	lw	t9,printf[0m
  420ea8:	3c040043 	lui	a0,0x43
  420eac:	0320f809 	jalr	t9
  420eb0:	2484fed0 	addiu	a0,a0,-304
  420eb4:	3c050043 	lui	a1,0x43
  420eb8:	8fbc0010 	lw	gp,16(sp)
  420ebc:	24a5feb8 	addiu	a1,a1,-328
  420ec0:	32100040 	andi	s0,s0,0x40
  420ec4:	12000005 	beqz	s0,420edc <libxt_state_init@@Base+0x11c>
  420ec8:	3c040043 	lui	a0,0x43
[31m  420ecc:	8f9983f4 	lw	t9,printf[0m
  420ed0:	0320f809 	jalr	t9
  420ed4:	2484fee0 	addiu	a0,a0,-288
  420ed8:	8fbc0010 	lw	gp,16(sp)
  420edc:	8f998414 	lw	t9,-31724(gp)
  420ee0:	24040020 	li	a0,32
  420ee4:	8fbf001c 	lw	ra,28(sp)
  420ee8:	8fb00018 	lw	s0,24(sp)
  420eec:	03200008 	jr	t9
  420ef0:	27bd0020 	addiu	sp,sp,32
  420ef4:	27bdffd8 	addiu	sp,sp,-40
  420ef8:	afbf0024 	sw	ra,36(sp)
  420efc:	3c1c0045 	lui	gp,0x45
  420f00:	279c6160 	addiu	gp,gp,24928
  420f04:	afbc0010 	sw	gp,16(sp)
  420f08:	3c040043 	lui	a0,0x43
[31m  420f0c:	8f9983f4 	lw	t9,printf[0m
  420f10:	24845838 	addiu	a0,a0,22584
  420f14:	0320f809 	jalr	t9
  420f18:	afa50018 	sw	a1,24(sp)
  420f1c:	8fa50018 	lw	a1,24(sp)
  420f20:	8fbc0010 	lw	gp,16(sp)
  420f24:	8ca40020 	lw	a0,32(a1)
  420f28:	8fbf0024 	lw	ra,36(sp)
  420f2c:	08108380 	j	420e00 <libxt_state_init@@Base+0x40>
  420f30:	27bd0028 	addiu	sp,sp,40
  420f34:	27bdffd8 	addiu	sp,sp,-40
  420f38:	afbf0024 	sw	ra,36(sp)
  420f3c:	3c1c0045 	lui	gp,0x45
  420f40:	279c6160 	addiu	gp,gp,24928
  420f44:	afbc0010 	sw	gp,16(sp)
  420f48:	3c040043 	lui	a0,0x43
[31m  420f4c:	8f9983f4 	lw	t9,printf[0m
  420f50:	2484ff48 	addiu	a0,a0,-184
  420f54:	0320f809 	jalr	t9
--
  42135c:	ac43000c 	sw	v1,12(v0)
  421360:	8fbf001c 	lw	ra,28(sp)
  421364:	03e00008 	jr	ra
  421368:	27bd0020 	addiu	sp,sp,32

0042136c <libxt_statistic_init@@Base>:
  42136c:	3c1c0045 	lui	gp,0x45
  421370:	3c040045 	lui	a0,0x45
  421374:	279c6160 	addiu	gp,gp,24928
  421378:	2484d6b0 	addiu	a0,a0,-10576
  42137c:	8f998148 	lw	t9,-32440(gp)
  421380:	03200008 	jr	t9
  421384:	00000000 	nop
  421388:	27bdffd0 	addiu	sp,sp,-48
  42138c:	afbf002c 	sw	ra,44(sp)
  421390:	afb10028 	sw	s1,40(sp)
  421394:	afb00024 	sw	s0,36(sp)
  421398:	3c1c0045 	lui	gp,0x45
  42139c:	279c6160 	addiu	gp,gp,24928
  4213a0:	afbc0018 	sw	gp,24(sp)
  4213a4:	94820002 	lhu	v0,2(a0)
  4213a8:	00808821 	move	s1,a0
  4213ac:	30420001 	andi	v0,v0,0x1
  4213b0:	10400006 	beqz	v0,4213cc <libxt_statistic_init@@Base+0x60>
  4213b4:	00a08021 	move	s0,a1
[31m  4213b8:	8f9983f4 	lw	t9,printf[0m
  4213bc:	3c040043 	lui	a0,0x43
  4213c0:	0320f809 	jalr	t9
--
  4213cc:	96220000 	lhu	v0,0(s1)
  4213d0:	10400005 	beqz	v0,4213e8 <libxt_statistic_init@@Base+0x7c>
  4213d4:	24030001 	li	v1,1
  4213d8:	1443002c 	bne	v0,v1,42148c <libxt_statistic_init@@Base+0x120>
  4213dc:	3c040043 	lui	a0,0x43
  4213e0:	10000018 	b	421444 <libxt_statistic_init@@Base+0xd8>
  4213e4:	02003021 	move	a2,s0
  4213e8:	8f9982e0 	lw	t9,-32032(gp)
  4213ec:	8e240004 	lw	a0,4(s1)
  4213f0:	0320f809 	jalr	t9
  4213f4:	00000000 	nop
  4213f8:	3c040043 	lui	a0,0x43
  4213fc:	8fbc0018 	lw	gp,24(sp)
  421400:	00602821 	move	a1,v1
  421404:	8c875c64 	lw	a3,23652(a0)
  421408:	8f9981b8 	lw	t9,-32328(gp)
  42140c:	8c865c60 	lw	a2,23648(a0)
  421410:	0320f809 	jalr	t9
  421414:	00402021 	move	a0,v0
  421418:	3c040043 	lui	a0,0x43
  42141c:	02002821 	move	a1,s0
  421420:	8fbc0018 	lw	gp,24(sp)
  421424:	24845a24 	addiu	a0,a0,23076
  421428:	02003021 	move	a2,s0
  42142c:	afa30014 	sw	v1,20(sp)
[31m  421430:	8f9983f4 	lw	t9,printf[0m
  421434:	0320f809 	jalr	t9
  421438:	afa20010 	sw	v0,16(sp)
  42143c:	10000013 	b	42148c <libxt_statistic_init@@Base+0x120>
  421440:	00000000 	nop
  421444:	8e270004 	lw	a3,4(s1)
[31m  421448:	8f9983f4 	lw	t9,printf[0m
  42144c:	02002821 	move	a1,s0
  421450:	24845a44 	addiu	a0,a0,23108
  421454:	0320f809 	jalr	t9
  421458:	24e70001 	addiu	a3,a3,1
  42145c:	8e260008 	lw	a2,8(s1)
  421460:	8fbc0018 	lw	gp,24(sp)
  421464:	10c00009 	beqz	a2,42148c <libxt_statistic_init@@Base+0x120>
  421468:	02002821 	move	a1,s0
[31m  42146c:	8f9983f4 	lw	t9,printf[0m
  421470:	3c040043 	lui	a0,0x43
  421474:	8fbf002c 	lw	ra,44(sp)
  421478:	24845a5c 	addiu	a0,a0,23132
  42147c:	8fb10028 	lw	s1,40(sp)
  421480:	8fb00024 	lw	s0,36(sp)
  421484:	03200008 	jr	t9
  421488:	27bd0030 	addiu	sp,sp,48
  42148c:	8fbf002c 	lw	ra,44(sp)
  421490:	8fb10028 	lw	s1,40(sp)
  421494:	8fb00024 	lw	s0,36(sp)
  421498:	03e00008 	jr	ra
  42149c:	27bd0030 	addiu	sp,sp,48
  4214a0:	24a40020 	addiu	a0,a1,32
  4214a4:	3c050043 	lui	a1,0x43
  4214a8:	24a5fda4 	addiu	a1,a1,-604
  4214ac:	081084e2 	j	421388 <libxt_statistic_init@@Base+0x1c>
  4214b0:	00000000 	nop
  4214b4:	27bdffd8 	addiu	sp,sp,-40
  4214b8:	afbf0024 	sw	ra,36(sp)
  4214bc:	3c1c0045 	lui	gp,0x45
  4214c0:	279c6160 	addiu	gp,gp,24928
  4214c4:	afbc0010 	sw	gp,16(sp)
  4214c8:	3c040043 	lui	a0,0x43
[31m  4214cc:	8f9983f4 	lw	t9,printf[0m
  4214d0:	24845a6c 	addiu	a0,a0,23148
  4214d4:	0320f809 	jalr	t9
--
  4218bc:	3c1c0045 	lui	gp,0x45
  4218c0:	279c6160 	addiu	gp,gp,24928
  4218c4:	afbc0010 	sw	gp,16(sp)
  4218c8:	3c040045 	lui	a0,0x45
  4218cc:	8f998148 	lw	t9,-32440(gp)
  4218d0:	0320f809 	jalr	t9
  4218d4:	2484d700 	addiu	a0,a0,-10496
  4218d8:	3c040045 	lui	a0,0x45
  4218dc:	8fbc0010 	lw	gp,16(sp)
  4218e0:	2484d744 	addiu	a0,a0,-10428
  4218e4:	8fbf001c 	lw	ra,28(sp)
  4218e8:	8f998148 	lw	t9,-32440(gp)
  4218ec:	03200008 	jr	t9
  4218f0:	27bd0020 	addiu	sp,sp,32
  4218f4:	27bdffd0 	addiu	sp,sp,-48
  4218f8:	afbf002c 	sw	ra,44(sp)
  4218fc:	afb40028 	sw	s4,40(sp)
  421900:	afb30024 	sw	s3,36(sp)
  421904:	afb20020 	sw	s2,32(sp)
  421908:	afb1001c 	sw	s1,28(sp)
  42190c:	afb00018 	sw	s0,24(sp)
  421910:	3c1c0045 	lui	gp,0x45
  421914:	279c6160 	addiu	gp,gp,24928
  421918:	afbc0010 	sw	gp,16(sp)
  42191c:	3c120043 	lui	s2,0x43
[31m  421920:	8f9983f4 	lw	t9,printf[0m
  421924:	0080a021 	move	s4,a0
  421928:	3c040043 	lui	a0,0x43
  42192c:	24845cd4 	addiu	a0,a0,23764
  421930:	3c110043 	lui	s1,0x43
  421934:	30b3ffff 	andi	s3,a1,0xffff
  421938:	00008021 	move	s0,zero
  42193c:	0320f809 	jalr	t9
  421940:	26525cdc 	addiu	s2,s2,23772
  421944:	8fbc0010 	lw	gp,16(sp)
  421948:	1000000b 	b	421978 <libxt_string_init@@Base+0xc4>
  42194c:	26315cd8 	addiu	s1,s1,23768
  421950:	90620000 	lbu	v0,0(v1)
[31m  421954:	8f9983f4 	lw	t9,printf[0m
  421958:	2c430010 	sltiu	v1,v0,16
  42195c:	14600003 	bnez	v1,42196c <libxt_string_init@@Base+0xb8>
  421960:	00402821 	move	a1,v0
  421964:	00402821 	move	a1,v0
  421968:	02402021 	move	a0,s2
  42196c:	0320f809 	jalr	t9
  421970:	26100001 	addiu	s0,s0,1
  421974:	8fbc0010 	lw	gp,16(sp)
  421978:	0213102b 	sltu	v0,s0,s3
  42197c:	02901821 	addu	v1,s4,s0
  421980:	1440fff3 	bnez	v0,421950 <libxt_string_init@@Base+0x9c>
  421984:	02202021 	move	a0,s1
[31m  421988:	8f9983f4 	lw	t9,printf[0m
  42198c:	3c040043 	lui	a0,0x43
  421990:	8fbf002c 	lw	ra,44(sp)
--
  4219d0:	279c6160 	addiu	gp,gp,24928
  4219d4:	afbc0010 	sw	gp,16(sp)
  4219d8:	00008821 	move	s1,zero
  4219dc:	00808021 	move	s0,a0
  4219e0:	8f998414 	lw	t9,-31724(gp)
  4219e4:	24040022 	li	a0,34
  4219e8:	30b3ffff 	andi	s3,a1,0xffff
  4219ec:	1000000b 	b	421a1c <libxt_string_init@@Base+0x168>
  4219f0:	24120022 	li	s2,34
  4219f4:	82020000 	lb	v0,0(s0)
  4219f8:	14520005 	bne	v0,s2,421a10 <libxt_string_init@@Base+0x15c>
  4219fc:	00000000 	nop
  421a00:	8f998414 	lw	t9,-31724(gp)
  421a04:	0320f809 	jalr	t9
  421a08:	2404005c 	li	a0,92
  421a0c:	8fbc0010 	lw	gp,16(sp)
  421a10:	8f998414 	lw	t9,-31724(gp)
  421a14:	92040000 	lbu	a0,0(s0)
  421a18:	26100001 	addiu	s0,s0,1
  421a1c:	0320f809 	jalr	t9
  421a20:	00000000 	nop
  421a24:	0233102b 	sltu	v0,s1,s3
  421a28:	8fbc0010 	lw	gp,16(sp)
  421a2c:	1440fff1 	bnez	v0,4219f4 <libxt_string_init@@Base+0x140>
  421a30:	26310001 	addiu	s1,s1,1
[31m  421a34:	8f9983f4 	lw	t9,printf[0m
  421a38:	3c040044 	lui	a0,0x44
  421a3c:	8fbf002c 	lw	ra,44(sp)
--
  421aa8:	8ca50000 	lw	a1,0(a1)
  421aac:	10000008 	b	421ad0 <libxt_string_init@@Base+0x21c>
  421ab0:	00001021 	move	v0,zero
  421ab4:	80e60014 	lb	a2,20(a3)
  421ab8:	00063040 	sll	a2,a2,0x1
  421abc:	00a63021 	addu	a2,a1,a2
  421ac0:	94c60000 	lhu	a2,0(a2)
  421ac4:	30c60040 	andi	a2,a2,0x40
  421ac8:	10c0000a 	beqz	a2,421af4 <libxt_string_init@@Base+0x240>
  421acc:	00000000 	nop
  421ad0:	0044302b 	sltu	a2,v0,a0
  421ad4:	02023821 	addu	a3,s0,v0
  421ad8:	14c0fff6 	bnez	a2,421ab4 <libxt_string_init@@Base+0x200>
  421adc:	24420001 	addiu	v0,v0,1
  421ae0:	02042021 	addu	a0,s0,a0
  421ae4:	2402005c 	li	v0,92
  421ae8:	80840013 	lb	a0,19(a0)
  421aec:	1482003e 	bne	a0,v0,421be8 <libxt_string_init@@Base+0x334>
  421af0:	00000000 	nop
  421af4:	14600003 	bnez	v1,421b04 <libxt_string_init@@Base+0x250>
  421af8:	3c050043 	lui	a1,0x43
  421afc:	10000003 	b	421b0c <libxt_string_init@@Base+0x258>
  421b00:	24a53f34 	addiu	a1,a1,16180
  421b04:	3c050043 	lui	a1,0x43
  421b08:	24a5c8c4 	addiu	a1,a1,-14140
[31m  421b0c:	8f9983f4 	lw	t9,printf[0m
  421b10:	3c040043 	lui	a0,0x43
  421b14:	0320f809 	jalr	t9
  421b18:	24845ce4 	addiu	a0,a0,23780
  421b1c:	92050094 	lbu	a1,148(s0)
  421b20:	0c10863d 	jal	4218f4 <libxt_string_init@@Base+0x40>
  421b24:	26040014 	addiu	a0,s0,20
  421b28:	1000000a 	b	421b54 <libxt_string_init@@Base+0x2a0>
  421b2c:	00000000 	nop
  421b30:	3c050043 	lui	a1,0x43
  421b34:	24a53f34 	addiu	a1,a1,16180
[31m  421b38:	8f9983f4 	lw	t9,printf[0m
  421b3c:	3c040043 	lui	a0,0x43
  421b40:	0320f809 	jalr	t9
  421b44:	24845cf4 	addiu	a0,a0,23796
  421b48:	92050094 	lbu	a1,148(s0)
  421b4c:	0c10866d 	jal	4219b4 <libxt_string_init@@Base+0x100>
  421b50:	26040014 	addiu	a0,s0,20
  421b54:	8fbc0010 	lw	gp,16(sp)
  421b58:	3c040043 	lui	a0,0x43
  421b5c:	26050004 	addiu	a1,s0,4
[31m  421b60:	8f9983f4 	lw	t9,printf[0m
  421b64:	0320f809 	jalr	t9
  421b68:	24845d00 	addiu	a0,a0,23808
  421b6c:	96250020 	lhu	a1,32(s1)
  421b70:	8fbc0010 	lw	gp,16(sp)
  421b74:	10a00006 	beqz	a1,421b90 <libxt_string_init@@Base+0x2dc>
  421b78:	00000000 	nop
[31m  421b7c:	8f9983f4 	lw	t9,printf[0m
  421b80:	3c040043 	lui	a0,0x43
  421b84:	0320f809 	jalr	t9
  421b88:	24845d0c 	addiu	a0,a0,23820
  421b8c:	8fbc0010 	lw	gp,16(sp)
  421b90:	96050002 	lhu	a1,2(s0)
  421b94:	10a00006 	beqz	a1,421bb0 <libxt_string_init@@Base+0x2fc>
  421b98:	00000000 	nop
[31m  421b9c:	8f9983f4 	lw	t9,printf[0m
  421ba0:	3c040043 	lui	a0,0x43
  421ba4:	0320f809 	jalr	t9
  421ba8:	24845d18 	addiu	a0,a0,23832
  421bac:	8fbc0010 	lw	gp,16(sp)
  421bb0:	12400011 	beqz	s2,421bf8 <libxt_string_init@@Base+0x344>
  421bb4:	00000000 	nop
  421bb8:	92020095 	lbu	v0,149(s0)
  421bbc:	30420002 	andi	v0,v0,0x2
  421bc0:	1040000d 	beqz	v0,421bf8 <libxt_string_init@@Base+0x344>
  421bc4:	3c040043 	lui	a0,0x43
[31m  421bc8:	8f9983f4 	lw	t9,printf[0m
  421bcc:	8fbf0024 	lw	ra,36(sp)
  421bd0:	24845d24 	addiu	a0,a0,23844
--
  421c5c:	8ca50000 	lw	a1,0(a1)
  421c60:	10000008 	b	421c84 <libxt_string_init@@Base+0x3d0>
  421c64:	00001021 	move	v0,zero
  421c68:	80e60014 	lb	a2,20(a3)
  421c6c:	00063040 	sll	a2,a2,0x1
  421c70:	00a63021 	addu	a2,a1,a2
  421c74:	94c60000 	lhu	a2,0(a2)
  421c78:	30c60040 	andi	a2,a2,0x40
  421c7c:	10c0000a 	beqz	a2,421ca8 <libxt_string_init@@Base+0x3f4>
  421c80:	00000000 	nop
  421c84:	0044302b 	sltu	a2,v0,a0
  421c88:	02023821 	addu	a3,s0,v0
  421c8c:	14c0fff6 	bnez	a2,421c68 <libxt_string_init@@Base+0x3b4>
  421c90:	24420001 	addiu	v0,v0,1
  421c94:	02042021 	addu	a0,s0,a0
  421c98:	2402005c 	li	v0,92
  421c9c:	80840013 	lb	a0,19(a0)
  421ca0:	1482003e 	bne	a0,v0,421d9c <libxt_string_init@@Base+0x4e8>
  421ca4:	00000000 	nop
  421ca8:	14600003 	bnez	v1,421cb8 <libxt_string_init@@Base+0x404>
  421cac:	3c050043 	lui	a1,0x43
  421cb0:	10000003 	b	421cc0 <libxt_string_init@@Base+0x40c>
  421cb4:	24a53f34 	addiu	a1,a1,16180
  421cb8:	3c050043 	lui	a1,0x43
  421cbc:	24a51db0 	addiu	a1,a1,7600
[31m  421cc0:	8f9983f4 	lw	t9,printf[0m
  421cc4:	3c040043 	lui	a0,0x43
  421cc8:	0320f809 	jalr	t9
  421ccc:	24845d30 	addiu	a0,a0,23856
  421cd0:	92050094 	lbu	a1,148(s0)
  421cd4:	0c10863d 	jal	4218f4 <libxt_string_init@@Base+0x40>
  421cd8:	26040014 	addiu	a0,s0,20
  421cdc:	1000000a 	b	421d08 <libxt_string_init@@Base+0x454>
  421ce0:	00000000 	nop
  421ce4:	3c050043 	lui	a1,0x43
  421ce8:	24a53f34 	addiu	a1,a1,16180
[31m  421cec:	8f9983f4 	lw	t9,printf[0m
  421cf0:	3c040043 	lui	a0,0x43
  421cf4:	0320f809 	jalr	t9
  421cf8:	24845d30 	addiu	a0,a0,23856
  421cfc:	92050094 	lbu	a1,148(s0)
  421d00:	0c10866d 	jal	4219b4 <libxt_string_init@@Base+0x100>
  421d04:	26040014 	addiu	a0,s0,20
  421d08:	8fbc0010 	lw	gp,16(sp)
  421d0c:	3c040043 	lui	a0,0x43
  421d10:	26050004 	addiu	a1,s0,4
[31m  421d14:	8f9983f4 	lw	t9,printf[0m
  421d18:	0320f809 	jalr	t9
  421d1c:	24845d40 	addiu	a0,a0,23872
  421d20:	96250020 	lhu	a1,32(s1)
  421d24:	8fbc0010 	lw	gp,16(sp)
  421d28:	10a00006 	beqz	a1,421d44 <libxt_string_init@@Base+0x490>
  421d2c:	00000000 	nop
[31m  421d30:	8f9983f4 	lw	t9,printf[0m
  421d34:	3c040043 	lui	a0,0x43
  421d38:	0320f809 	jalr	t9
  421d3c:	24845d50 	addiu	a0,a0,23888
  421d40:	8fbc0010 	lw	gp,16(sp)
  421d44:	96050002 	lhu	a1,2(s0)
  421d48:	10a00006 	beqz	a1,421d64 <libxt_string_init@@Base+0x4b0>
  421d4c:	00000000 	nop
[31m  421d50:	8f9983f4 	lw	t9,printf[0m
  421d54:	3c040043 	lui	a0,0x43
  421d58:	0320f809 	jalr	t9
  421d5c:	24845d5c 	addiu	a0,a0,23900
  421d60:	8fbc0010 	lw	gp,16(sp)
  421d64:	12400011 	beqz	s2,421dac <libxt_string_init@@Base+0x4f8>
  421d68:	00000000 	nop
  421d6c:	92020095 	lbu	v0,149(s0)
  421d70:	30420002 	andi	v0,v0,0x2
  421d74:	1040000d 	beqz	v0,421dac <libxt_string_init@@Base+0x4f8>
  421d78:	3c040043 	lui	a0,0x43
[31m  421d7c:	8f9983f4 	lw	t9,printf[0m
  421d80:	8fbf0024 	lw	ra,36(sp)
  421d84:	24845d64 	addiu	a0,a0,23908
--
  4223d0:	afb0001c 	sw	s0,28(sp)
  4223d4:	3c1c0045 	lui	gp,0x45
  4223d8:	279c6160 	addiu	gp,gp,24928
  4223dc:	afbc0010 	sw	gp,16(sp)
  4223e0:	3c140045 	lui	s4,0x45
  4223e4:	3c130045 	lui	s3,0x45
  4223e8:	3c120044 	lui	s2,0x44
  4223ec:	309000ff 	andi	s0,a0,0xff
  4223f0:	2694b380 	addiu	s4,s4,-19584
  4223f4:	2673b37c 	addiu	s3,s3,-19588
  4223f8:	26528b80 	addiu	s2,s2,-29824
  4223fc:	10000016 	b	422458 <libxt_tcp_init@@Base+0xe4>
  422400:	00001021 	move	v0,zero
  422404:	26b50001 	addiu	s5,s5,1
  422408:	8c710000 	lw	s1,0(v1)
  42240c:	02112024 	and	a0,s0,s1
  422410:	1080fffc 	beqz	a0,422404 <libxt_tcp_init@@Base+0x90>
  422414:	24630008 	addiu	v1,v1,8
  422418:	10400005 	beqz	v0,422430 <libxt_tcp_init@@Base+0xbc>
  42241c:	00000000 	nop
  422420:	8f998414 	lw	t9,-31724(gp)
  422424:	0320f809 	jalr	t9
  422428:	2404002c 	li	a0,44
  42242c:	8fbc0010 	lw	gp,16(sp)
  422430:	0015a8c0 	sll	s5,s5,0x3
[31m  422434:	8f9983f4 	lw	t9,printf[0m
  422438:	02b3a821 	addu	s5,s5,s3
  42243c:	02402021 	move	a0,s2
  422440:	8ea50000 	lw	a1,0(s5)
  422444:	00118827 	nor	s1,zero,s1
  422448:	0320f809 	jalr	t9
  42244c:	02118024 	and	s0,s0,s1
  422450:	24020001 	li	v0,1
  422454:	8fbc0010 	lw	gp,16(sp)
  422458:	12000003 	beqz	s0,422468 <libxt_tcp_init@@Base+0xf4>
  42245c:	02801821 	move	v1,s4
  422460:	1000ffe9 	b	422408 <libxt_tcp_init@@Base+0x94>
  422464:	0000a821 	move	s5,zero
  422468:	1440000c 	bnez	v0,42249c <libxt_tcp_init@@Base+0x128>
  42246c:	3c040043 	lui	a0,0x43
[31m  422470:	8f9983f4 	lw	t9,printf[0m
  422474:	8fbf0034 	lw	ra,52(sp)
  422478:	24840084 	addiu	a0,a0,132
--
  4224a0:	8fb50030 	lw	s5,48(sp)
  4224a4:	8fb4002c 	lw	s4,44(sp)
  4224a8:	8fb30028 	lw	s3,40(sp)
  4224ac:	8fb20024 	lw	s2,36(sp)
  4224b0:	8fb10020 	lw	s1,32(sp)
  4224b4:	8fb0001c 	lw	s0,28(sp)
  4224b8:	03e00008 	jr	ra
  4224bc:	27bd0038 	addiu	sp,sp,56
  4224c0:	27bdffd8 	addiu	sp,sp,-40
  4224c4:	afbf0024 	sw	ra,36(sp)
  4224c8:	afb00020 	sw	s0,32(sp)
  4224cc:	3c1c0045 	lui	gp,0x45
  4224d0:	279c6160 	addiu	gp,gp,24928
  4224d4:	afbc0010 	sw	gp,16(sp)
  4224d8:	94a20020 	lhu	v0,32(a1)
  4224dc:	14400005 	bnez	v0,4224f4 <libxt_tcp_init@@Base+0x180>
  4224e0:	24b00020 	addiu	s0,a1,32
  4224e4:	96030002 	lhu	v1,2(s0)
  4224e8:	3402ffff 	li	v0,0xffff
  4224ec:	1062001a 	beq	v1,v0,422558 <libxt_tcp_init@@Base+0x1e4>
  4224f0:	00000000 	nop
  4224f4:	9202000b 	lbu	v0,11(s0)
  4224f8:	30420001 	andi	v0,v0,0x1
  4224fc:	10400008 	beqz	v0,422520 <libxt_tcp_init@@Base+0x1ac>
  422500:	00000000 	nop
[31m  422504:	8f9983f4 	lw	t9,printf[0m
  422508:	3c040043 	lui	a0,0x43
  42250c:	afa50018 	sw	a1,24(sp)
  422510:	0320f809 	jalr	t9
  422514:	2484c8c4 	addiu	a0,a0,-14140
  422518:	8fbc0010 	lw	gp,16(sp)
  42251c:	8fa50018 	lw	a1,24(sp)
  422520:	94a50020 	lhu	a1,32(a1)
  422524:	96060002 	lhu	a2,2(s0)
[31m  422528:	8f9983f4 	lw	t9,printf[0m
  42252c:	10a60006 	beq	a1,a2,422548 <libxt_tcp_init@@Base+0x1d4>
  422530:	00000000 	nop
  422534:	3c040043 	lui	a0,0x43
  422538:	0320f809 	jalr	t9
  42253c:	248406e0 	addiu	a0,a0,1760
  422540:	10000004 	b	422554 <libxt_tcp_init@@Base+0x1e0>
  422544:	00000000 	nop
  422548:	3c040043 	lui	a0,0x43
  42254c:	0320f809 	jalr	t9
  422550:	248406f0 	addiu	a0,a0,1776
  422554:	8fbc0010 	lw	gp,16(sp)
  422558:	96020004 	lhu	v0,4(s0)
  42255c:	14400004 	bnez	v0,422570 <libxt_tcp_init@@Base+0x1fc>
  422560:	3402ffff 	li	v0,0xffff
  422564:	96030006 	lhu	v1,6(s0)
  422568:	10620018 	beq	v1,v0,4225cc <libxt_tcp_init@@Base+0x258>
  42256c:	00000000 	nop
  422570:	9202000b 	lbu	v0,11(s0)
  422574:	30420002 	andi	v0,v0,0x2
  422578:	10400006 	beqz	v0,422594 <libxt_tcp_init@@Base+0x220>
  42257c:	00000000 	nop
[31m  422580:	8f9983f4 	lw	t9,printf[0m
  422584:	3c040043 	lui	a0,0x43
  422588:	0320f809 	jalr	t9
  42258c:	2484c8c4 	addiu	a0,a0,-14140
  422590:	8fbc0010 	lw	gp,16(sp)
  422594:	96050004 	lhu	a1,4(s0)
  422598:	96060006 	lhu	a2,6(s0)
[31m  42259c:	8f9983f4 	lw	t9,printf[0m
  4225a0:	10a60006 	beq	a1,a2,4225bc <libxt_tcp_init@@Base+0x248>
  4225a4:	00000000 	nop
  4225a8:	3c040043 	lui	a0,0x43
  4225ac:	0320f809 	jalr	t9
  4225b0:	248406fc 	addiu	a0,a0,1788
  4225b4:	10000004 	b	4225c8 <libxt_tcp_init@@Base+0x254>
  4225b8:	00000000 	nop
  4225bc:	3c040043 	lui	a0,0x43
  4225c0:	0320f809 	jalr	t9
  4225c4:	2484070c 	addiu	a0,a0,1804
  4225c8:	8fbc0010 	lw	gp,16(sp)
  4225cc:	92020008 	lbu	v0,8(s0)
  4225d0:	14400005 	bnez	v0,4225e8 <libxt_tcp_init@@Base+0x274>
  4225d4:	00000000 	nop
  4225d8:	9202000b 	lbu	v0,11(s0)
  4225dc:	30420008 	andi	v0,v0,0x8
  4225e0:	10400010 	beqz	v0,422624 <libxt_tcp_init@@Base+0x2b0>
  4225e4:	00000000 	nop
  4225e8:	9202000b 	lbu	v0,11(s0)
  4225ec:	30420008 	andi	v0,v0,0x8
  4225f0:	10400006 	beqz	v0,42260c <libxt_tcp_init@@Base+0x298>
  4225f4:	00000000 	nop
[31m  4225f8:	8f9983f4 	lw	t9,printf[0m
  4225fc:	3c040043 	lui	a0,0x43
  422600:	0320f809 	jalr	t9
  422604:	2484c8c4 	addiu	a0,a0,-14140
  422608:	8fbc0010 	lw	gp,16(sp)
[31m  42260c:	8f9983f4 	lw	t9,printf[0m
  422610:	3c040043 	lui	a0,0x43
  422614:	92050008 	lbu	a1,8(s0)
  422618:	0320f809 	jalr	t9
  42261c:	248460d0 	addiu	a0,a0,24784
  422620:	8fbc0010 	lw	gp,16(sp)
  422624:	92020009 	lbu	v0,9(s0)
  422628:	14400005 	bnez	v0,422640 <libxt_tcp_init@@Base+0x2cc>
  42262c:	00000000 	nop
  422630:	9202000b 	lbu	v0,11(s0)
  422634:	30420004 	andi	v0,v0,0x4
  422638:	10400023 	beqz	v0,4226c8 <libxt_tcp_init@@Base+0x354>
  42263c:	00000000 	nop
  422640:	9202000b 	lbu	v0,11(s0)
  422644:	30420004 	andi	v0,v0,0x4
  422648:	10400006 	beqz	v0,422664 <libxt_tcp_init@@Base+0x2f0>
  42264c:	00000000 	nop
[31m  422650:	8f9983f4 	lw	t9,printf[0m
  422654:	3c040043 	lui	a0,0x43
  422658:	0320f809 	jalr	t9
  42265c:	2484c8c4 	addiu	a0,a0,-14140
  422660:	8fbc0010 	lw	gp,16(sp)
[31m  422664:	8f9983f4 	lw	t9,printf[0m
  422668:	3c040043 	lui	a0,0x43
  42266c:	0320f809 	jalr	t9
--
  4226c8:	8fbf0024 	lw	ra,36(sp)
  4226cc:	8fb00020 	lw	s0,32(sp)
  4226d0:	03e00008 	jr	ra
  4226d4:	27bd0028 	addiu	sp,sp,40
  4226d8:	27bdffe0 	addiu	sp,sp,-32
  4226dc:	afbf001c 	sw	ra,28(sp)
  4226e0:	afb00018 	sw	s0,24(sp)
  4226e4:	3c1c0045 	lui	gp,0x45
  4226e8:	279c6160 	addiu	gp,gp,24928
  4226ec:	afbc0010 	sw	gp,16(sp)
  4226f0:	14a0000c 	bnez	a1,422724 <libxt_tcp_init@@Base+0x3b0>
  4226f4:	3090ffff 	andi	s0,a0,0xffff
  4226f8:	8f998198 	lw	t9,-32360(gp)
  4226fc:	3c050043 	lui	a1,0x43
  422700:	02002021 	move	a0,s0
  422704:	0320f809 	jalr	t9
  422708:	24a5e24c 	addiu	a1,a1,-7604
  42270c:	8fbc0010 	lw	gp,16(sp)
  422710:	10400005 	beqz	v0,422728 <libxt_tcp_init@@Base+0x3b4>
  422714:	3c040043 	lui	a0,0x43
  422718:	8c450000 	lw	a1,0(v0)
  42271c:	14a00006 	bnez	a1,422738 <libxt_tcp_init@@Base+0x3c4>
  422720:	00000000 	nop
  422724:	3c040043 	lui	a0,0x43
  422728:	02002821 	move	a1,s0
[31m  42272c:	8f9983f4 	lw	t9,printf[0m
  422730:	10000004 	b	422744 <libxt_tcp_init@@Base+0x3d0>
  422734:	24842d78 	addiu	a0,a0,11640
  422738:	3c040044 	lui	a0,0x44
[31m  42273c:	8f9983f4 	lw	t9,printf[0m
  422740:	24848b80 	addiu	a0,a0,-29824
  422744:	8fbf001c 	lw	ra,28(sp)
--
  422750:	27bd0020 	addiu	sp,sp,32
  422754:	27bdffd0 	addiu	sp,sp,-48
  422758:	afbf002c 	sw	ra,44(sp)
  42275c:	afb30028 	sw	s3,40(sp)
  422760:	afb20024 	sw	s2,36(sp)
  422764:	afb10020 	sw	s1,32(sp)
  422768:	afb0001c 	sw	s0,28(sp)
  42276c:	3c1c0045 	lui	gp,0x45
  422770:	279c6160 	addiu	gp,gp,24928
  422774:	afbc0010 	sw	gp,16(sp)
  422778:	8fb10040 	lw	s1,64(sp)
  42277c:	30b0ffff 	andi	s0,a1,0xffff
  422780:	14e00004 	bnez	a3,422794 <libxt_tcp_init@@Base+0x420>
  422784:	30d2ffff 	andi	s2,a2,0xffff
  422788:	3c130043 	lui	s3,0x43
  42278c:	10000003 	b	42279c <libxt_tcp_init@@Base+0x428>
  422790:	26733f34 	addiu	s3,s3,16180
  422794:	3c130043 	lui	s3,0x43
  422798:	26731db0 	addiu	s3,s3,7600
  42279c:	16000005 	bnez	s0,4227b4 <libxt_tcp_init@@Base+0x440>
  4227a0:	3402ffff 	li	v0,0xffff
  4227a4:	16420003 	bne	s2,v0,4227b4 <libxt_tcp_init@@Base+0x440>
  4227a8:	00000000 	nop
  4227ac:	10e00028 	beqz	a3,422850 <libxt_tcp_init@@Base+0x4dc>
  4227b0:	00000000 	nop
[31m  4227b4:	8f9983f4 	lw	t9,printf[0m
  4227b8:	00802821 	move	a1,a0
  4227bc:	3c040044 	lui	a0,0x44
  4227c0:	0320f809 	jalr	t9
  4227c4:	24848b80 	addiu	a0,a0,-29824
  4227c8:	8fbc0010 	lw	gp,16(sp)
[31m  4227cc:	8f9983f4 	lw	t9,printf[0m
  4227d0:	16120007 	bne	s0,s2,4227f0 <libxt_tcp_init@@Base+0x47c>
  4227d4:	00000000 	nop
--
  422830:	8fbf002c 	lw	ra,44(sp)
  422834:	8f998414 	lw	t9,-31724(gp)
  422838:	8fb30028 	lw	s3,40(sp)
  42283c:	8fb20024 	lw	s2,36(sp)
  422840:	8fb10020 	lw	s1,32(sp)
  422844:	8fb0001c 	lw	s0,28(sp)
  422848:	03200008 	jr	t9
  42284c:	27bd0030 	addiu	sp,sp,48
  422850:	8fbf002c 	lw	ra,44(sp)
  422854:	8fb30028 	lw	s3,40(sp)
  422858:	8fb20024 	lw	s2,36(sp)
  42285c:	8fb10020 	lw	s1,32(sp)
  422860:	8fb0001c 	lw	s0,28(sp)
  422864:	03e00008 	jr	ra
  422868:	27bd0030 	addiu	sp,sp,48
  42286c:	27bdffc0 	addiu	sp,sp,-64
  422870:	afbf003c 	sw	ra,60(sp)
  422874:	afb30038 	sw	s3,56(sp)
  422878:	afb20034 	sw	s2,52(sp)
  42287c:	afb10030 	sw	s1,48(sp)
  422880:	afb0002c 	sw	s0,44(sp)
  422884:	3c1c0045 	lui	gp,0x45
  422888:	279c6160 	addiu	gp,gp,24928
  42288c:	afbc0018 	sw	gp,24(sp)
  422890:	3c040043 	lui	a0,0x43
[31m  422894:	8f9983f4 	lw	t9,printf[0m
  422898:	248460f4 	addiu	a0,a0,24820
  42289c:	00c08821 	move	s1,a2
--
  4228c8:	0c1089d5 	jal	422754 <libxt_tcp_init@@Base+0x3e0>
  4228cc:	afb10010 	sw	s1,16(sp)
  4228d0:	3c040043 	lui	a0,0x43
  4228d4:	9207000b 	lbu	a3,11(s0)
  4228d8:	24840754 	addiu	a0,a0,1876
  4228dc:	96060006 	lhu	a2,6(s0)
  4228e0:	96050004 	lhu	a1,4(s0)
  4228e4:	30e70002 	andi	a3,a3,0x2
  4228e8:	0c1089d5 	jal	422754 <libxt_tcp_init@@Base+0x3e0>
  4228ec:	afb10010 	sw	s1,16(sp)
  4228f0:	9202000b 	lbu	v0,11(s0)
  4228f4:	92060008 	lbu	a2,8(s0)
  4228f8:	8fbc0018 	lw	gp,24(sp)
  4228fc:	14c00005 	bnez	a2,422914 <libxt_tcp_init@@Base+0x5a0>
  422900:	30420008 	andi	v0,v0,0x8
  422904:	14400008 	bnez	v0,422928 <libxt_tcp_init@@Base+0x5b4>
  422908:	3c050043 	lui	a1,0x43
  42290c:	1000000c 	b	422940 <libxt_tcp_init@@Base+0x5cc>
  422910:	00000000 	nop
  422914:	14400003 	bnez	v0,422924 <libxt_tcp_init@@Base+0x5b0>
  422918:	3c050043 	lui	a1,0x43
  42291c:	10000003 	b	42292c <libxt_tcp_init@@Base+0x5b8>
  422920:	24a53f34 	addiu	a1,a1,16180
  422924:	3c050043 	lui	a1,0x43
  422928:	24a51db0 	addiu	a1,a1,7600
[31m  42292c:	8f9983f4 	lw	t9,printf[0m
  422930:	3c040043 	lui	a0,0x43
  422934:	0320f809 	jalr	t9
  422938:	24840758 	addiu	a0,a0,1880
  42293c:	8fbc0018 	lw	gp,24(sp)
  422940:	9202000b 	lbu	v0,11(s0)
  422944:	92120009 	lbu	s2,9(s0)
  422948:	9213000a 	lbu	s3,10(s0)
  42294c:	16400005 	bnez	s2,422964 <libxt_tcp_init@@Base+0x5f0>
  422950:	30420004 	andi	v0,v0,0x4
  422954:	14400008 	bnez	v0,422978 <libxt_tcp_init@@Base+0x604>
  422958:	3c050043 	lui	a1,0x43
  42295c:	10000022 	b	4229e8 <libxt_tcp_init@@Base+0x674>
  422960:	00000000 	nop
  422964:	14400003 	bnez	v0,422974 <libxt_tcp_init@@Base+0x600>
  422968:	3c050043 	lui	a1,0x43
  42296c:	10000003 	b	42297c <libxt_tcp_init@@Base+0x608>
  422970:	24a53f34 	addiu	a1,a1,16180
  422974:	3c050043 	lui	a1,0x43
  422978:	24a51db0 	addiu	a1,a1,7600
[31m  42297c:	8f9983f4 	lw	t9,printf[0m
  422980:	3c040043 	lui	a0,0x43
  422984:	0320f809 	jalr	t9
  422988:	248460fc 	addiu	a0,a0,24828
  42298c:	8fbc0018 	lw	gp,24(sp)
  422990:	12200008 	beqz	s1,4229b4 <libxt_tcp_init@@Base+0x640>
  422994:	3c040043 	lui	a0,0x43
[31m  422998:	8f9983f4 	lw	t9,printf[0m
  42299c:	02402821 	move	a1,s2
  4229a0:	24846108 	addiu	a0,a0,24840
  4229a4:	0320f809 	jalr	t9
  4229a8:	02603021 	move	a2,s3
  4229ac:	1000000d 	b	4229e4 <libxt_tcp_init@@Base+0x670>
  4229b0:	00000000 	nop
  4229b4:	0c1088ed 	jal	4223b4 <libxt_tcp_init@@Base+0x40>
  4229b8:	02402021 	move	a0,s2
  4229bc:	8fbc0018 	lw	gp,24(sp)
  4229c0:	8f998414 	lw	t9,-31724(gp)
  4229c4:	0320f809 	jalr	t9
  4229c8:	2404002f 	li	a0,47
  4229cc:	0c1088ed 	jal	4223b4 <libxt_tcp_init@@Base+0x40>
  4229d0:	02602021 	move	a0,s3
  4229d4:	8fbc0018 	lw	gp,24(sp)
  4229d8:	8f998414 	lw	t9,-31724(gp)
  4229dc:	0320f809 	jalr	t9
  4229e0:	24040020 	li	a0,32
  4229e4:	8fbc0018 	lw	gp,24(sp)
  4229e8:	9205000b 	lbu	a1,11(s0)
  4229ec:	30a500f0 	andi	a1,a1,0xf0
  4229f0:	10a0000a 	beqz	a1,422a1c <libxt_tcp_init@@Base+0x6a8>
  4229f4:	3c040043 	lui	a0,0x43
[31m  4229f8:	8f9983f4 	lw	t9,printf[0m
  4229fc:	8fbf003c 	lw	ra,60(sp)
  422a00:	24840efc 	addiu	a0,a0,3836
--
  42308c:	0320f809 	jalr	t9
  423090:	2484d820 	addiu	a0,a0,-10208
  423094:	3c040045 	lui	a0,0x45
  423098:	8fbc0010 	lw	gp,16(sp)
  42309c:	2484d864 	addiu	a0,a0,-10140
  4230a0:	8fbf001c 	lw	ra,28(sp)
  4230a4:	8f998148 	lw	t9,-32440(gp)
  4230a8:	03200008 	jr	t9
  4230ac:	27bd0020 	addiu	sp,sp,32
  4230b0:	27bdffd8 	addiu	sp,sp,-40
  4230b4:	afbf0024 	sw	ra,36(sp)
  4230b8:	afb10020 	sw	s1,32(sp)
  4230bc:	afb0001c 	sw	s0,28(sp)
  4230c0:	3c1c0045 	lui	gp,0x45
  4230c4:	279c6160 	addiu	gp,gp,24928
  4230c8:	afbc0010 	sw	gp,16(sp)
  4230cc:	24b00020 	addiu	s0,a1,32
  4230d0:	92020004 	lbu	v0,4(s0)
  4230d4:	14400004 	bnez	v0,4230e8 <libxt_tcpmss_init@@Base+0x78>
  4230d8:	00a08821 	move	s1,a1
  4230dc:	3c050043 	lui	a1,0x43
  4230e0:	10000003 	b	4230f0 <libxt_tcpmss_init@@Base+0x80>
  4230e4:	24a53f34 	addiu	a1,a1,16180
  4230e8:	3c050043 	lui	a1,0x43
  4230ec:	24a5c8c4 	addiu	a1,a1,-14140
[31m  4230f0:	8f9983f4 	lw	t9,printf[0m
  4230f4:	3c040043 	lui	a0,0x43
  4230f8:	0320f809 	jalr	t9
  4230fc:	248463e8 	addiu	a0,a0,25576
  423100:	8fbc0010 	lw	gp,16(sp)
  423104:	96250020 	lhu	a1,32(s1)
  423108:	96060002 	lhu	a2,2(s0)
[31m  42310c:	8f9983f4 	lw	t9,printf[0m
  423110:	14a60008 	bne	a1,a2,423134 <libxt_tcpmss_init@@Base+0xc4>
  423114:	3c040043 	lui	a0,0x43
--
  423128:	8fb0001c 	lw	s0,28(sp)
  42312c:	03200008 	jr	t9
  423130:	27bd0028 	addiu	sp,sp,40
  423134:	8fbf0024 	lw	ra,36(sp)
  423138:	24840704 	addiu	a0,a0,1796
  42313c:	8fb10020 	lw	s1,32(sp)
  423140:	8fb0001c 	lw	s0,28(sp)
  423144:	03200008 	jr	t9
  423148:	27bd0028 	addiu	sp,sp,40
  42314c:	27bdffd8 	addiu	sp,sp,-40
  423150:	afbf0024 	sw	ra,36(sp)
  423154:	afb10020 	sw	s1,32(sp)
  423158:	afb0001c 	sw	s0,28(sp)
  42315c:	3c1c0045 	lui	gp,0x45
  423160:	279c6160 	addiu	gp,gp,24928
  423164:	afbc0010 	sw	gp,16(sp)
  423168:	24b00020 	addiu	s0,a1,32
  42316c:	92020004 	lbu	v0,4(s0)
  423170:	14400004 	bnez	v0,423184 <libxt_tcpmss_init@@Base+0x114>
  423174:	00a08821 	move	s1,a1
  423178:	3c050043 	lui	a1,0x43
  42317c:	10000003 	b	42318c <libxt_tcpmss_init@@Base+0x11c>
  423180:	24a53f34 	addiu	a1,a1,16180
  423184:	3c050043 	lui	a1,0x43
  423188:	24a51db0 	addiu	a1,a1,7600
[31m  42318c:	8f9983f4 	lw	t9,printf[0m
  423190:	3c040043 	lui	a0,0x43
  423194:	0320f809 	jalr	t9
  423198:	248463f4 	addiu	a0,a0,25588
  42319c:	8fbc0010 	lw	gp,16(sp)
  4231a0:	96250020 	lhu	a1,32(s1)
  4231a4:	96060002 	lhu	a2,2(s0)
[31m  4231a8:	8f9983f4 	lw	t9,printf[0m
  4231ac:	14a60008 	bne	a1,a2,4231d0 <libxt_tcpmss_init@@Base+0x160>
  4231b0:	3c040043 	lui	a0,0x43
--
  423590:	afa20010 	sw	v0,16(sp)
  423594:	8fa20044 	lw	v0,68(sp)
  423598:	afa20014 	sw	v0,20(sp)
  42359c:	2402003c 	li	v0,60
  4235a0:	0c108d20 	jal	423480 <libxt_TCPMSS_init@@Base+0x40>
  4235a4:	afa20018 	sw	v0,24(sp)
  4235a8:	8fbf002c 	lw	ra,44(sp)
  4235ac:	03e00008 	jr	ra
  4235b0:	27bd0030 	addiu	sp,sp,48
  4235b4:	27bdffd0 	addiu	sp,sp,-48
  4235b8:	afbf002c 	sw	ra,44(sp)
  4235bc:	8fa20040 	lw	v0,64(sp)
  4235c0:	afa20010 	sw	v0,16(sp)
  4235c4:	8fa20044 	lw	v0,68(sp)
  4235c8:	afa20014 	sw	v0,20(sp)
  4235cc:	24020028 	li	v0,40
  4235d0:	0c108d20 	jal	423480 <libxt_TCPMSS_init@@Base+0x40>
  4235d4:	afa20018 	sw	v0,24(sp)
  4235d8:	8fbf002c 	lw	ra,44(sp)
  4235dc:	03e00008 	jr	ra
  4235e0:	27bd0030 	addiu	sp,sp,48
  4235e4:	3c1c0045 	lui	gp,0x45
  4235e8:	3c040043 	lui	a0,0x43
  4235ec:	279c6160 	addiu	gp,gp,24928
  4235f0:	2405003c 	li	a1,60
[31m  4235f4:	8f9983f4 	lw	t9,printf[0m
  4235f8:	24846534 	addiu	a0,a0,25908
  4235fc:	03200008 	jr	t9
  423600:	00000000 	nop
  423604:	3c1c0045 	lui	gp,0x45
  423608:	3c040043 	lui	a0,0x43
  42360c:	279c6160 	addiu	gp,gp,24928
  423610:	24050028 	li	a1,40
[31m  423614:	8f9983f4 	lw	t9,printf[0m
  423618:	24846534 	addiu	a0,a0,25908
  42361c:	03200008 	jr	t9
  423620:	00000000 	nop
  423624:	3c1c0045 	lui	gp,0x45
  423628:	3402ffff 	li	v0,0xffff
  42362c:	94a50020 	lhu	a1,32(a1)
  423630:	279c6160 	addiu	gp,gp,24928
[31m  423634:	8f9983f4 	lw	t9,printf[0m
  423638:	14a20005 	bne	a1,v0,423650 <libxt_TCPMSS_init@@Base+0x210>
  42363c:	3c040043 	lui	a0,0x43
  423640:	3c040043 	lui	a0,0x43
  423644:	24846600 	addiu	a0,a0,26112
  423648:	03200008 	jr	t9
  42364c:	00000000 	nop
  423650:	24846618 	addiu	a0,a0,26136
  423654:	03200008 	jr	t9
  423658:	00000000 	nop
  42365c:	3c1c0045 	lui	gp,0x45
  423660:	3402ffff 	li	v0,0xffff
  423664:	94a50020 	lhu	a1,32(a1)
  423668:	279c6160 	addiu	gp,gp,24928
[31m  42366c:	8f9983f4 	lw	t9,printf[0m
  423670:	14a20005 	bne	a1,v0,423688 <libxt_TCPMSS_init@@Base+0x248>
  423674:	3c040043 	lui	a0,0x43
--
  423784:	02c31821 	addu	v1,s6,v1
  423788:	8c630000 	lw	v1,0(v1)
  42378c:	02031806 	srlv	v1,v1,s0
  423790:	30630001 	andi	v1,v1,0x1
  423794:	10600020 	beqz	v1,423818 <libxt_TCPOPTSTRIP_init@@Base+0x138>
  423798:	00000000 	nop
  42379c:	14400005 	bnez	v0,4237b4 <libxt_TCPOPTSTRIP_init@@Base+0xd4>
  4237a0:	00000000 	nop
  4237a4:	8f998414 	lw	t9,-31724(gp)
  4237a8:	0320f809 	jalr	t9
  4237ac:	2404002c 	li	a0,44
  4237b0:	8fbc0010 	lw	gp,16(sp)
  4237b4:	16a00012 	bnez	s5,423800 <libxt_TCPOPTSTRIP_init@@Base+0x120>
  4237b8:	02601021 	move	v0,s3
  4237bc:	10000005 	b	4237d4 <libxt_TCPOPTSTRIP_init@@Base+0xf4>
  4237c0:	00002821 	move	a1,zero
  4237c4:	8c440008 	lw	a0,8(v0)
  4237c8:	2442000c 	addiu	v0,v0,12
  4237cc:	00902026 	xor	a0,a0,s0
  4237d0:	0064280a 	0x64280a
  4237d4:	8c430000 	lw	v1,0(v0)
  4237d8:	1460fffa 	bnez	v1,4237c4 <libxt_TCPOPTSTRIP_init@@Base+0xe4>
  4237dc:	00000000 	nop
  4237e0:	10a00007 	beqz	a1,423800 <libxt_TCPOPTSTRIP_init@@Base+0x120>
  4237e4:	00000000 	nop
[31m  4237e8:	8f9983f4 	lw	t9,printf[0m
  4237ec:	0320f809 	jalr	t9
  4237f0:	02402021 	move	a0,s2
  4237f4:	8fbc0010 	lw	gp,16(sp)
  4237f8:	10000007 	b	423818 <libxt_TCPOPTSTRIP_init@@Base+0x138>
  4237fc:	00001021 	move	v0,zero
[31m  423800:	8f9983f4 	lw	t9,printf[0m
  423804:	02802021 	move	a0,s4
  423808:	0320f809 	jalr	t9
  42380c:	02002821 	move	a1,s0
  423810:	00001021 	move	v0,zero
  423814:	8fbc0010 	lw	gp,16(sp)
  423818:	26100001 	addiu	s0,s0,1
  42381c:	1611ffd8 	bne	s0,s1,423780 <libxt_TCPOPTSTRIP_init@@Base+0xa0>
  423820:	00101942 	srl	v1,s0,0x5
  423824:	8fbf0034 	lw	ra,52(sp)
  423828:	8fb60030 	lw	s6,48(sp)
  42382c:	8fb5002c 	lw	s5,44(sp)
  423830:	8fb40028 	lw	s4,40(sp)
  423834:	8fb30024 	lw	s3,36(sp)
  423838:	8fb20020 	lw	s2,32(sp)
  42383c:	8fb1001c 	lw	s1,28(sp)
  423840:	8fb00018 	lw	s0,24(sp)
  423844:	03e00008 	jr	ra
  423848:	27bd0038 	addiu	sp,sp,56
  42384c:	27bdffd8 	addiu	sp,sp,-40
  423850:	afbf0024 	sw	ra,36(sp)
  423854:	3c1c0045 	lui	gp,0x45
  423858:	279c6160 	addiu	gp,gp,24928
  42385c:	afbc0010 	sw	gp,16(sp)
  423860:	3c040043 	lui	a0,0x43
[31m  423864:	8f9983f4 	lw	t9,printf[0m
  423868:	248466a4 	addiu	a0,a0,26276
  42386c:	0320f809 	jalr	t9
  423870:	afa50018 	sw	a1,24(sp)
  423874:	8fa50018 	lw	a1,24(sp)
  423878:	8fbc0010 	lw	gp,16(sp)
  42387c:	8fbf0024 	lw	ra,36(sp)
  423880:	24a40020 	addiu	a0,a1,32
  423884:	24050001 	li	a1,1
  423888:	08108dc8 	j	423720 <libxt_TCPOPTSTRIP_init@@Base+0x40>
  42388c:	27bd0028 	addiu	sp,sp,40
  423890:	27bdffd8 	addiu	sp,sp,-40
  423894:	afbf0024 	sw	ra,36(sp)
  423898:	3c1c0045 	lui	gp,0x45
  42389c:	279c6160 	addiu	gp,gp,24928
  4238a0:	afbc0010 	sw	gp,16(sp)
  4238a4:	3c040043 	lui	a0,0x43
[31m  4238a8:	8f9983f4 	lw	t9,printf[0m
  4238ac:	248466b8 	addiu	a0,a0,26296
  4238b0:	afa50018 	sw	a1,24(sp)
--
  423afc:	24060020 	li	a2,32
  423b00:	03200008 	jr	t9
  423b04:	00000000 	nop
  423b08:	27bdffd8 	addiu	sp,sp,-40
  423b0c:	afbf0024 	sw	ra,36(sp)
  423b10:	afb10020 	sw	s1,32(sp)
  423b14:	afb0001c 	sw	s0,28(sp)
  423b18:	3c1c0045 	lui	gp,0x45
  423b1c:	279c6160 	addiu	gp,gp,24928
  423b20:	afbc0010 	sw	gp,16(sp)
  423b24:	3c040043 	lui	a0,0x43
  423b28:	8f998370 	lw	t9,-31888(gp)
  423b2c:	24846758 	addiu	a0,a0,26456
  423b30:	3c100045 	lui	s0,0x45
  423b34:	0320f809 	jalr	t9
  423b38:	3c110043 	lui	s1,0x43
  423b3c:	2610b48c 	addiu	s0,s0,-19316
  423b40:	8fbc0010 	lw	gp,16(sp)
  423b44:	10000005 	b	423b5c <libxt_TCPOPTSTRIP_init@@Base+0x47c>
  423b48:	26316844 	addiu	s1,s1,26692
  423b4c:	8e060004 	lw	a2,4(s0)
  423b50:	0320f809 	jalr	t9
  423b54:	2610000c 	addiu	s0,s0,12
  423b58:	8fbc0010 	lw	gp,16(sp)
  423b5c:	8e050000 	lw	a1,0(s0)
[31m  423b60:	8f9983f4 	lw	t9,printf[0m
  423b64:	14a0fff9 	bnez	a1,423b4c <libxt_TCPOPTSTRIP_init@@Base+0x46c>
  423b68:	02202021 	move	a0,s1
--
  423c58:	3c1e0044 	lui	s8,0x44
  423c5c:	30a500ff 	andi	a1,a1,0xff
  423c60:	3c170043 	lui	s7,0x43
  423c64:	27de8050 	addiu	s8,s8,-32688
  423c68:	afa40018 	sw	a0,24(sp)
  423c6c:	26f73ed0 	addiu	s7,s7,16080
  423c70:	afa5001c 	sw	a1,28(sp)
  423c74:	00001021 	move	v0,zero
  423c78:	24100001 	li	s0,1
  423c7c:	24130001 	li	s3,1
  423c80:	2412000a 	li	s2,10
  423c84:	24160002 	li	s6,2
  423c88:	24150003 	li	s5,3
  423c8c:	24140020 	li	s4,32
  423c90:	8fa40018 	lw	a0,24(sp)
  423c94:	02131804 	sllv	v1,s3,s0
  423c98:	00641824 	and	v1,v1,a0
  423c9c:	1060002d 	beqz	v1,423d54 <libxt_time_init@@Base+0x150>
  423ca0:	00000000 	nop
  423ca4:	10400005 	beqz	v0,423cbc <libxt_time_init@@Base+0xb8>
  423ca8:	24510001 	addiu	s1,v0,1
  423cac:	8f998414 	lw	t9,-31724(gp)
  423cb0:	0320f809 	jalr	t9
  423cb4:	2404002c 	li	a0,44
  423cb8:	8fbc0010 	lw	gp,16(sp)
[31m  423cbc:	8f9983f4 	lw	t9,printf[0m
  423cc0:	3c040043 	lui	a0,0x43
  423cc4:	02002821 	move	a1,s0
  423cc8:	0320f809 	jalr	t9
  423ccc:	24842d78 	addiu	a0,a0,11640
  423cd0:	8fa3001c 	lw	v1,28(sp)
  423cd4:	8fbc0010 	lw	gp,16(sp)
  423cd8:	1060001e 	beqz	v1,423d54 <libxt_time_init@@Base+0x150>
  423cdc:	02201021 	move	v0,s1
  423ce0:	0212001b 	divu	zero,s0,s2
  423ce4:	16400002 	bnez	s2,423cf0 <libxt_time_init@@Base+0xec>
  423ce8:	00000000 	nop
  423cec:	0007000d 	break	0x7
  423cf0:	00001010 	mfhi	v0
  423cf4:	10560008 	beq	v0,s6,423d18 <libxt_time_init@@Base+0x114>
  423cf8:	00000000 	nop
  423cfc:	1055000e 	beq	v0,s5,423d38 <libxt_time_init@@Base+0x134>
  423d00:	3c040043 	lui	a0,0x43
[31m  423d04:	8f9983f4 	lw	t9,printf[0m
  423d08:	1453000e 	bne	v0,s3,423d44 <libxt_time_init@@Base+0x140>
  423d0c:	02e02021 	move	a0,s7
  423d10:	10000004 	b	423d24 <libxt_time_init@@Base+0x120>
  423d14:	00000000 	nop
  423d18:	3c040043 	lui	a0,0x43
[31m  423d1c:	8f9983f4 	lw	t9,printf[0m
  423d20:	2484d9c4 	addiu	a0,a0,-9788
  423d24:	0320f809 	jalr	t9
  423d28:	26100001 	addiu	s0,s0,1
  423d2c:	8fbc0010 	lw	gp,16(sp)
  423d30:	10000009 	b	423d58 <libxt_time_init@@Base+0x154>
  423d34:	02201021 	move	v0,s1
[31m  423d38:	8f9983f4 	lw	t9,printf[0m
  423d3c:	1000fff9 	b	423d24 <libxt_time_init@@Base+0x120>
  423d40:	24846914 	addiu	a0,a0,26900
--
  423d94:	27bdffc0 	addiu	sp,sp,-64
  423d98:	afbf003c 	sw	ra,60(sp)
  423d9c:	afb70038 	sw	s7,56(sp)
  423da0:	afb60034 	sw	s6,52(sp)
  423da4:	afb50030 	sw	s5,48(sp)
  423da8:	afb4002c 	sw	s4,44(sp)
  423dac:	afb30028 	sw	s3,40(sp)
  423db0:	afb20024 	sw	s2,36(sp)
  423db4:	afb10020 	sw	s1,32(sp)
  423db8:	afb0001c 	sw	s0,28(sp)
  423dbc:	3c1c0045 	lui	gp,0x45
  423dc0:	279c6160 	addiu	gp,gp,24928
  423dc4:	afbc0010 	sw	gp,16(sp)
  423dc8:	3c120045 	lui	s2,0x45
  423dcc:	3c160044 	lui	s6,0x44
  423dd0:	3c150043 	lui	s5,0x43
  423dd4:	0080b821 	move	s7,a0
  423dd8:	2652b504 	addiu	s2,s2,-19196
  423ddc:	26d68b80 	addiu	s6,s6,-29824
  423de0:	26b56918 	addiu	s5,s5,26904
  423de4:	00008821 	move	s1,zero
  423de8:	24100001 	li	s0,1
  423dec:	24140001 	li	s4,1
  423df0:	24130008 	li	s3,8
  423df4:	02141004 	sllv	v0,s4,s0
[31m  423df8:	8f9983f4 	lw	t9,printf[0m
  423dfc:	00571024 	and	v0,v0,s7
  423e00:	10400008 	beqz	v0,423e24 <libxt_time_init@@Base+0x220>
--
  423e40:	8fb60034 	lw	s6,52(sp)
  423e44:	8fb50030 	lw	s5,48(sp)
  423e48:	8fb4002c 	lw	s4,44(sp)
  423e4c:	8fb30028 	lw	s3,40(sp)
  423e50:	8fb20024 	lw	s2,36(sp)
  423e54:	8fb10020 	lw	s1,32(sp)
  423e58:	8fb0001c 	lw	s0,28(sp)
  423e5c:	03200008 	jr	t9
  423e60:	27bd0040 	addiu	sp,sp,64
  423e64:	27bdffc8 	addiu	sp,sp,-56
  423e68:	afbf0034 	sw	ra,52(sp)
  423e6c:	3c1c0045 	lui	gp,0x45
  423e70:	279c6160 	addiu	gp,gp,24928
  423e74:	afbc0020 	sw	gp,32(sp)
  423e78:	10800027 	beqz	a0,423f18 <libxt_time_init@@Base+0x314>
  423e7c:	afa40038 	sw	a0,56(sp)
  423e80:	3c037fff 	lui	v1,0x7fff
  423e84:	3463ffff 	ori	v1,v1,0xffff
  423e88:	10830023 	beq	a0,v1,423f18 <libxt_time_init@@Base+0x314>
  423e8c:	27a40038 	addiu	a0,sp,56
  423e90:	8f9981d0 	lw	t9,-32304(gp)
  423e94:	0320f809 	jalr	t9
  423e98:	afa50028 	sw	a1,40(sp)
  423e9c:	8fbc0020 	lw	gp,32(sp)
  423ea0:	8fa50028 	lw	a1,40(sp)
[31m  423ea4:	8f9983f4 	lw	t9,printf[0m
  423ea8:	8c460014 	lw	a2,20(v0)
  423eac:	8c430010 	lw	v1,16(v0)
--
  423f34:	afb20030 	sw	s2,48(sp)
  423f38:	afb1002c 	sw	s1,44(sp)
  423f3c:	afb00028 	sw	s0,40(sp)
  423f40:	3c1c0045 	lui	gp,0x45
  423f44:	279c6160 	addiu	gp,gp,24928
  423f48:	afbc0010 	sw	gp,16(sp)
  423f4c:	24b00020 	addiu	s0,a1,32
  423f50:	8e040008 	lw	a0,8(s0)
  423f54:	14800006 	bnez	a0,423f70 <libxt_time_init@@Base+0x36c>
  423f58:	00a08821 	move	s1,a1
  423f5c:	3c020001 	lui	v0,0x1
  423f60:	8e03000c 	lw	v1,12(s0)
  423f64:	3442517f 	ori	v0,v0,0x517f
  423f68:	1062001e 	beq	v1,v0,423fe4 <libxt_time_init@@Base+0x3e0>
  423f6c:	00000000 	nop
  423f70:	27b3001c 	addiu	s3,sp,28
  423f74:	27b20020 	addiu	s2,sp,32
  423f78:	27b40018 	addiu	s4,sp,24
  423f7c:	02603021 	move	a2,s3
  423f80:	02802821 	move	a1,s4
  423f84:	0c108ef0 	jal	423bc0 <libxt_TCPOPTSTRIP_init@@Base+0x4e0>
  423f88:	02403821 	move	a3,s2
  423f8c:	3c040043 	lui	a0,0x43
  423f90:	8fbc0010 	lw	gp,16(sp)
  423f94:	8fa50018 	lw	a1,24(sp)
[31m  423f98:	8f9983f4 	lw	t9,printf[0m
  423f9c:	8fa6001c 	lw	a2,28(sp)
  423fa0:	8fa70020 	lw	a3,32(sp)
  423fa4:	0320f809 	jalr	t9
  423fa8:	24846960 	addiu	a0,a0,26976
  423fac:	02802821 	move	a1,s4
  423fb0:	8e04000c 	lw	a0,12(s0)
  423fb4:	02603021 	move	a2,s3
  423fb8:	0c108ef0 	jal	423bc0 <libxt_TCPOPTSTRIP_init@@Base+0x4e0>
  423fbc:	02403821 	move	a3,s2
  423fc0:	3c040043 	lui	a0,0x43
  423fc4:	8fbc0010 	lw	gp,16(sp)
  423fc8:	8fa50018 	lw	a1,24(sp)
[31m  423fcc:	8f9983f4 	lw	t9,printf[0m
  423fd0:	8fa6001c 	lw	a2,28(sp)
  423fd4:	8fa70020 	lw	a3,32(sp)
  423fd8:	0320f809 	jalr	t9
  423fdc:	2484697c 	addiu	a0,a0,27004
  423fe0:	8fbc0010 	lw	gp,16(sp)
  423fe4:	8e030010 	lw	v1,16(s0)
  423fe8:	2402fffe 	li	v0,-2
  423fec:	10620008 	beq	v1,v0,424010 <libxt_time_init@@Base+0x40c>
  423ff0:	3c040043 	lui	a0,0x43
[31m  423ff4:	8f9983f4 	lw	t9,printf[0m
  423ff8:	0320f809 	jalr	t9
  423ffc:	24846998 	addiu	a0,a0,27032
  424000:	8e040010 	lw	a0,16(s0)
  424004:	0c108f08 	jal	423c20 <libxt_time_init@@Base+0x1c>
  424008:	00002821 	move	a1,zero
  42400c:	8fbc0010 	lw	gp,16(sp)
  424010:	92030014 	lbu	v1,20(s0)
  424014:	240200fe 	li	v0,254
  424018:	1062000b 	beq	v1,v0,424048 <libxt_time_init@@Base+0x444>
  42401c:	3c040043 	lui	a0,0x43
[31m  424020:	8f9983f4 	lw	t9,printf[0m
  424024:	0320f809 	jalr	t9
  424028:	248469a8 	addiu	a0,a0,27048
  42402c:	92040014 	lbu	a0,20(s0)
  424030:	0c108f65 	jal	423d94 <libxt_time_init@@Base+0x190>
  424034:	00000000 	nop
  424038:	8fbc0010 	lw	gp,16(sp)
  42403c:	8f998414 	lw	t9,-31724(gp)
  424040:	0320f809 	jalr	t9
  424044:	24040020 	li	a0,32
  424048:	8e240020 	lw	a0,32(s1)
  42404c:	3c050043 	lui	a1,0x43
  424050:	0c108f99 	jal	423e64 <libxt_time_init@@Base+0x260>
  424054:	24a56dc0 	addiu	a1,a1,28096
  424058:	3c050043 	lui	a1,0x43
  42405c:	8e040004 	lw	a0,4(s0)
  424060:	0c108f99 	jal	423e64 <libxt_time_init@@Base+0x260>
  424064:	24a56e0c 	addiu	a1,a1,28172
  424068:	92020015 	lbu	v0,21(s0)
  42406c:	8fbc0010 	lw	gp,16(sp)
  424070:	30420001 	andi	v0,v0,0x1
  424074:	14400005 	bnez	v0,42408c <libxt_time_init@@Base+0x488>
  424078:	00000000 	nop
[31m  42407c:	8f9983f4 	lw	t9,printf[0m
  424080:	3c040043 	lui	a0,0x43
  424084:	0320f809 	jalr	t9
  424088:	248469b4 	addiu	a0,a0,27060
  42408c:	8fbf003c 	lw	ra,60(sp)
  424090:	8fb40038 	lw	s4,56(sp)
  424094:	8fb30034 	lw	s3,52(sp)
  424098:	8fb20030 	lw	s2,48(sp)
  42409c:	8fb1002c 	lw	s1,44(sp)
  4240a0:	8fb00028 	lw	s0,40(sp)
  4240a4:	03e00008 	jr	ra
  4240a8:	27bd0040 	addiu	sp,sp,64
  4240ac:	27bdffc0 	addiu	sp,sp,-64
  4240b0:	afbf003c 	sw	ra,60(sp)
  4240b4:	afb40038 	sw	s4,56(sp)
  4240b8:	afb30034 	sw	s3,52(sp)
  4240bc:	afb20030 	sw	s2,48(sp)
  4240c0:	afb1002c 	sw	s1,44(sp)
  4240c4:	afb00028 	sw	s0,40(sp)
  4240c8:	3c1c0045 	lui	gp,0x45
  4240cc:	279c6160 	addiu	gp,gp,24928
  4240d0:	afbc0010 	sw	gp,16(sp)
  4240d4:	3c040043 	lui	a0,0x43
[31m  4240d8:	8f9983f4 	lw	t9,printf[0m
  4240dc:	248469bc 	addiu	a0,a0,27068
  4240e0:	00a08821 	move	s1,a1
  4240e4:	0320f809 	jalr	t9
  4240e8:	24b00020 	addiu	s0,a1,32
  4240ec:	8e040008 	lw	a0,8(s0)
  4240f0:	8fbc0010 	lw	gp,16(sp)
  4240f4:	14800005 	bnez	a0,42410c <libxt_time_init@@Base+0x508>
  4240f8:	3c020001 	lui	v0,0x1
  4240fc:	8e03000c 	lw	v1,12(s0)
  424100:	3442517f 	ori	v0,v0,0x517f
  424104:	1062001e 	beq	v1,v0,424180 <libxt_time_init@@Base+0x57c>
  424108:	00000000 	nop
  42410c:	27b3001c 	addiu	s3,sp,28
  424110:	27b20020 	addiu	s2,sp,32
  424114:	27b40018 	addiu	s4,sp,24
  424118:	02603021 	move	a2,s3
  42411c:	02802821 	move	a1,s4
  424120:	0c108ef0 	jal	423bc0 <libxt_TCPOPTSTRIP_init@@Base+0x4e0>
  424124:	02403821 	move	a3,s2
  424128:	3c040043 	lui	a0,0x43
  42412c:	8fbc0010 	lw	gp,16(sp)
  424130:	8fa50018 	lw	a1,24(sp)
[31m  424134:	8f9983f4 	lw	t9,printf[0m
  424138:	8fa6001c 	lw	a2,28(sp)
  42413c:	8fa70020 	lw	a3,32(sp)
  424140:	0320f809 	jalr	t9
  424144:	248469c4 	addiu	a0,a0,27076
  424148:	02802821 	move	a1,s4
  42414c:	8e04000c 	lw	a0,12(s0)
  424150:	02603021 	move	a2,s3
  424154:	0c108ef0 	jal	423bc0 <libxt_TCPOPTSTRIP_init@@Base+0x4e0>
  424158:	02403821 	move	a3,s2
  42415c:	3c040043 	lui	a0,0x43
  424160:	8fbc0010 	lw	gp,16(sp)
  424164:	8fa50018 	lw	a1,24(sp)
[31m  424168:	8f9983f4 	lw	t9,printf[0m
  42416c:	8fa6001c 	lw	a2,28(sp)
  424170:	8fa70020 	lw	a3,32(sp)
  424174:	0320f809 	jalr	t9
  424178:	248469dc 	addiu	a0,a0,27100
  42417c:	8fbc0010 	lw	gp,16(sp)
  424180:	92030014 	lbu	v1,20(s0)
  424184:	240200fe 	li	v0,254
  424188:	10620008 	beq	v1,v0,4241ac <libxt_time_init@@Base+0x5a8>
  42418c:	3c040043 	lui	a0,0x43
[31m  424190:	8f9983f4 	lw	t9,printf[0m
  424194:	0320f809 	jalr	t9
  424198:	248469f0 	addiu	a0,a0,27120
  42419c:	92040014 	lbu	a0,20(s0)
  4241a0:	0c108f65 	jal	423d94 <libxt_time_init@@Base+0x190>
  4241a4:	00000000 	nop
  4241a8:	8fbc0010 	lw	gp,16(sp)
  4241ac:	8e030010 	lw	v1,16(s0)
  4241b0:	2402fffe 	li	v0,-2
  4241b4:	10620008 	beq	v1,v0,4241d8 <libxt_time_init@@Base+0x5d4>
  4241b8:	3c040043 	lui	a0,0x43
[31m  4241bc:	8f9983f4 	lw	t9,printf[0m
  4241c0:	0320f809 	jalr	t9
  4241c4:	248469f0 	addiu	a0,a0,27120
  4241c8:	8e040010 	lw	a0,16(s0)
  4241cc:	0c108f08 	jal	423c20 <libxt_time_init@@Base+0x1c>
  4241d0:	24050001 	li	a1,1
  4241d4:	8fbc0010 	lw	gp,16(sp)
  4241d8:	8e220020 	lw	v0,32(s1)
  4241dc:	1040000a 	beqz	v0,424208 <libxt_time_init@@Base+0x604>
  4241e0:	3c027fff 	lui	v0,0x7fff
[31m  4241e4:	8f9983f4 	lw	t9,printf[0m
  4241e8:	3c040043 	lui	a0,0x43
  4241ec:	0320f809 	jalr	t9
  4241f0:	248469f4 	addiu	a0,a0,27124
  4241f4:	8e240020 	lw	a0,32(s1)
  4241f8:	0c108f99 	jal	423e64 <libxt_time_init@@Base+0x260>
  4241fc:	00002821 	move	a1,zero
  424200:	8fbc0010 	lw	gp,16(sp)
  424204:	3c027fff 	lui	v0,0x7fff
  424208:	8e030004 	lw	v1,4(s0)
  42420c:	3442ffff 	ori	v0,v0,0xffff
  424210:	10620008 	beq	v1,v0,424234 <libxt_time_init@@Base+0x630>
  424214:	3c040043 	lui	a0,0x43
[31m  424218:	8f9983f4 	lw	t9,printf[0m
  42421c:	0320f809 	jalr	t9
  424220:	24846a04 	addiu	a0,a0,27140
  424224:	8e040004 	lw	a0,4(s0)
  424228:	0c108f99 	jal	423e64 <libxt_time_init@@Base+0x260>
  42422c:	00002821 	move	a1,zero
  424230:	8fbc0010 	lw	gp,16(sp)
  424234:	92020015 	lbu	v0,21(s0)
  424238:	30420001 	andi	v0,v0,0x1
  42423c:	14400005 	bnez	v0,424254 <libxt_time_init@@Base+0x650>
  424240:	00000000 	nop
[31m  424244:	8f9983f4 	lw	t9,printf[0m
  424248:	3c040043 	lui	a0,0x43
  42424c:	0320f809 	jalr	t9
--
  424c1c:	0320f809 	jalr	t9
  424c20:	2484da20 	addiu	a0,a0,-9696
  424c24:	3c040045 	lui	a0,0x45
  424c28:	8fbc0010 	lw	gp,16(sp)
  424c2c:	8f998148 	lw	t9,-32440(gp)
  424c30:	0320f809 	jalr	t9
  424c34:	2484da64 	addiu	a0,a0,-9628
  424c38:	3c040045 	lui	a0,0x45
  424c3c:	8fbc0010 	lw	gp,16(sp)
  424c40:	2484daa8 	addiu	a0,a0,-9560
  424c44:	8fbf001c 	lw	ra,28(sp)
  424c48:	8f998148 	lw	t9,-32440(gp)
  424c4c:	03200008 	jr	t9
  424c50:	27bd0020 	addiu	sp,sp,32
  424c54:	27bdffd8 	addiu	sp,sp,-40
  424c58:	afbf0024 	sw	ra,36(sp)
  424c5c:	afb10020 	sw	s1,32(sp)
  424c60:	afb0001c 	sw	s0,28(sp)
  424c64:	3c1c0045 	lui	gp,0x45
  424c68:	279c6160 	addiu	gp,gp,24928
  424c6c:	afbc0010 	sw	gp,16(sp)
  424c70:	24b10020 	addiu	s1,a1,32
  424c74:	92220002 	lbu	v0,2(s1)
  424c78:	10400006 	beqz	v0,424c94 <libxt_tos_init@@Base+0x94>
  424c7c:	00a08021 	move	s0,a1
[31m  424c80:	8f9983f4 	lw	t9,printf[0m
  424c84:	3c040043 	lui	a0,0x43
  424c88:	0320f809 	jalr	t9
  424c8c:	2484c8c4 	addiu	a0,a0,-14140
  424c90:	8fbc0010 	lw	gp,16(sp)
  424c94:	92250001 	lbu	a1,1(s1)
  424c98:	3c040043 	lui	a0,0x43
  424c9c:	92060020 	lbu	a2,32(s0)
  424ca0:	24847034 	addiu	a0,a0,28724
[31m  424ca4:	8f9983f4 	lw	t9,printf[0m
  424ca8:	8fbf0024 	lw	ra,36(sp)
  424cac:	8fb10020 	lw	s1,32(sp)
  424cb0:	8fb0001c 	lw	s0,28(sp)
  424cb4:	03200008 	jr	t9
  424cb8:	27bd0028 	addiu	sp,sp,40
  424cbc:	27bdffd8 	addiu	sp,sp,-40
  424cc0:	afbf0024 	sw	ra,36(sp)
  424cc4:	3c1c0045 	lui	gp,0x45
  424cc8:	279c6160 	addiu	gp,gp,24928
  424ccc:	afbc0010 	sw	gp,16(sp)
  424cd0:	90a20021 	lbu	v0,33(a1)
  424cd4:	10400007 	beqz	v0,424cf4 <libxt_tos_init@@Base+0xf4>
  424cd8:	3c040043 	lui	a0,0x43
[31m  424cdc:	8f9983f4 	lw	t9,printf[0m
  424ce0:	afa50018 	sw	a1,24(sp)
  424ce4:	0320f809 	jalr	t9
  424ce8:	2484c8c4 	addiu	a0,a0,-14140
  424cec:	8fbc0010 	lw	gp,16(sp)
  424cf0:	8fa50018 	lw	a1,24(sp)
  424cf4:	90a50020 	lbu	a1,32(a1)
  424cf8:	3c040043 	lui	a0,0x43
[31m  424cfc:	8f9983f4 	lw	t9,printf[0m
  424d00:	2484704c 	addiu	a0,a0,28748
  424d04:	8fbf0024 	lw	ra,36(sp)
  424d08:	03200008 	jr	t9
  424d0c:	27bd0028 	addiu	sp,sp,40
  424d10:	27bdffd8 	addiu	sp,sp,-40
  424d14:	afbf0024 	sw	ra,36(sp)
  424d18:	afb20020 	sw	s2,32(sp)
  424d1c:	afb1001c 	sw	s1,28(sp)
  424d20:	afb00018 	sw	s0,24(sp)
  424d24:	3c1c0045 	lui	gp,0x45
  424d28:	279c6160 	addiu	gp,gp,24928
  424d2c:	afbc0010 	sw	gp,16(sp)
  424d30:	3c040043 	lui	a0,0x43
[31m  424d34:	8f9983f4 	lw	t9,printf[0m
  424d38:	24b10020 	addiu	s1,a1,32
  424d3c:	00a08021 	move	s0,a1
  424d40:	2484705c 	addiu	a0,a0,28764
  424d44:	0320f809 	jalr	t9
  424d48:	00c09021 	move	s2,a2
  424d4c:	92220002 	lbu	v0,2(s1)
  424d50:	8fbc0010 	lw	gp,16(sp)
  424d54:	10400005 	beqz	v0,424d6c <libxt_tos_init@@Base+0x16c>
  424d58:	00000000 	nop
  424d5c:	8f998414 	lw	t9,-31724(gp)
  424d60:	0320f809 	jalr	t9
  424d64:	24040021 	li	a0,33
  424d68:	8fbc0010 	lw	gp,16(sp)
  424d6c:	16400014 	bnez	s2,424dc0 <libxt_tos_init@@Base+0x1c0>
  424d70:	2402003f 	li	v0,63
  424d74:	92040020 	lbu	a0,32(s0)
  424d78:	92230001 	lbu	v1,1(s1)
  424d7c:	14820011 	bne	a0,v0,424dc4 <libxt_tos_init@@Base+0x1c4>
  424d80:	3c040043 	lui	a0,0x43
  424d84:	3c020045 	lui	v0,0x45
  424d88:	1000000a 	b	424db4 <libxt_tos_init@@Base+0x1b4>
  424d8c:	2442b5b0 	addiu	v0,v0,-19024
  424d90:	90440000 	lbu	a0,0(v0)
  424d94:	14830007 	bne	a0,v1,424db4 <libxt_tos_init@@Base+0x1b4>
  424d98:	24420008 	addiu	v0,v0,8
  424d9c:	3c040043 	lui	a0,0x43
  424da0:	3c050043 	lui	a1,0x43
[31m  424da4:	8f9983f4 	lw	t9,printf[0m
  424da8:	24847068 	addiu	a0,a0,28776
  424dac:	10000009 	b	424dd4 <libxt_tos_init@@Base+0x1d4>
  424db0:	24a53f34 	addiu	a1,a1,16180
  424db4:	8c460004 	lw	a2,4(v0)
  424db8:	14c0fff5 	bnez	a2,424d90 <libxt_tos_init@@Base+0x190>
  424dbc:	00000000 	nop
  424dc0:	3c040043 	lui	a0,0x43
  424dc4:	92250001 	lbu	a1,1(s1)
  424dc8:	248472ac 	addiu	a0,a0,29356
  424dcc:	92060020 	lbu	a2,32(s0)
[31m  424dd0:	8f9983f4 	lw	t9,printf[0m
  424dd4:	8fbf0024 	lw	ra,36(sp)
  424dd8:	8fb20020 	lw	s2,32(sp)
  424ddc:	8fb1001c 	lw	s1,28(sp)
  424de0:	8fb00018 	lw	s0,24(sp)
  424de4:	03200008 	jr	t9
  424de8:	27bd0028 	addiu	sp,sp,40
  424dec:	27bdffd8 	addiu	sp,sp,-40
  424df0:	afbf0024 	sw	ra,36(sp)
  424df4:	afb20020 	sw	s2,32(sp)
  424df8:	afb1001c 	sw	s1,28(sp)
  424dfc:	afb00018 	sw	s0,24(sp)
  424e00:	3c1c0045 	lui	gp,0x45
  424e04:	279c6160 	addiu	gp,gp,24928
  424e08:	afbc0010 	sw	gp,16(sp)
  424e0c:	3c040043 	lui	a0,0x43
[31m  424e10:	8f9983f4 	lw	t9,printf[0m
  424e14:	24b10020 	addiu	s1,a1,32
  424e18:	00a08021 	move	s0,a1
  424e1c:	2484705c 	addiu	a0,a0,28764
  424e20:	0320f809 	jalr	t9
  424e24:	00c09021 	move	s2,a2
  424e28:	92220001 	lbu	v0,1(s1)
  424e2c:	8fbc0010 	lw	gp,16(sp)
  424e30:	10400005 	beqz	v0,424e48 <libxt_tos_init@@Base+0x248>
  424e34:	00000000 	nop
  424e38:	8f998414 	lw	t9,-31724(gp)
  424e3c:	0320f809 	jalr	t9
  424e40:	24040021 	li	a0,33
  424e44:	8fbc0010 	lw	gp,16(sp)
  424e48:	16400015 	bnez	s2,424ea0 <libxt_tos_init@@Base+0x2a0>
  424e4c:	3c020045 	lui	v0,0x45
  424e50:	92030020 	lbu	v1,32(s0)
  424e54:	1000000f 	b	424e94 <libxt_tos_init@@Base+0x294>
  424e58:	2442b5b0 	addiu	v0,v0,-19024
  424e5c:	90440000 	lbu	a0,0(v0)
  424e60:	1483000c 	bne	a0,v1,424e94 <libxt_tos_init@@Base+0x294>
  424e64:	24420008 	addiu	v0,v0,8
[31m  424e68:	8f9983f4 	lw	t9,printf[0m
  424e6c:	3c040043 	lui	a0,0x43
  424e70:	3c050043 	lui	a1,0x43
  424e74:	24847068 	addiu	a0,a0,28776
  424e78:	8fbf0024 	lw	ra,36(sp)
  424e7c:	24a53f34 	addiu	a1,a1,16180
  424e80:	8fb20020 	lw	s2,32(sp)
  424e84:	8fb1001c 	lw	s1,28(sp)
  424e88:	8fb00018 	lw	s0,24(sp)
  424e8c:	03200008 	jr	t9
  424e90:	27bd0028 	addiu	sp,sp,40
  424e94:	8c460004 	lw	a2,4(v0)
  424e98:	14c0fff0 	bnez	a2,424e5c <libxt_tos_init@@Base+0x25c>
  424e9c:	00000000 	nop
  424ea0:	92050020 	lbu	a1,32(s0)
  424ea4:	3c040043 	lui	a0,0x43
[31m  424ea8:	8f9983f4 	lw	t9,printf[0m
  424eac:	248472d0 	addiu	a0,a0,29392
  424eb0:	8fbf0024 	lw	ra,36(sp)
--
  425250:	03e00008 	jr	ra
  425254:	27bd0040 	addiu	sp,sp,64
  425258:	27bdffd8 	addiu	sp,sp,-40
  42525c:	afbf0024 	sw	ra,36(sp)
  425260:	afb10020 	sw	s1,32(sp)
  425264:	afb0001c 	sw	s0,28(sp)
  425268:	3c1c0045 	lui	gp,0x45
  42526c:	279c6160 	addiu	gp,gp,24928
  425270:	afbc0010 	sw	gp,16(sp)
  425274:	3c040043 	lui	a0,0x43
  425278:	8f998370 	lw	t9,-31888(gp)
  42527c:	248470f8 	addiu	a0,a0,28920
  425280:	3c100045 	lui	s0,0x45
  425284:	0320f809 	jalr	t9
  425288:	3c110043 	lui	s1,0x43
  42528c:	2610b5b0 	addiu	s0,s0,-19024
  425290:	8fbc0010 	lw	gp,16(sp)
  425294:	10000006 	b	4252b0 <libxt_tos_init@@Base+0x6b0>
  425298:	263171d4 	addiu	s1,s1,29140
  42529c:	92050000 	lbu	a1,0(s0)
  4252a0:	26100008 	addiu	s0,s0,8
  4252a4:	0320f809 	jalr	t9
  4252a8:	00a03021 	move	a2,a1
  4252ac:	8fbc0010 	lw	gp,16(sp)
  4252b0:	8e070004 	lw	a3,4(s0)
[31m  4252b4:	8f9983f4 	lw	t9,printf[0m
  4252b8:	14e0fff8 	bnez	a3,42529c <libxt_tos_init@@Base+0x69c>
  4252bc:	02202021 	move	a0,s1
--
  425324:	afbf001c 	sw	ra,28(sp)
  425328:	3c1c0045 	lui	gp,0x45
  42532c:	279c6160 	addiu	gp,gp,24928
  425330:	afbc0010 	sw	gp,16(sp)
  425334:	3c040045 	lui	a0,0x45
  425338:	8f9980c0 	lw	t9,-32576(gp)
  42533c:	0320f809 	jalr	t9
  425340:	2484daf0 	addiu	a0,a0,-9488
  425344:	3c040045 	lui	a0,0x45
  425348:	8fbc0010 	lw	gp,16(sp)
  42534c:	8f9980c0 	lw	t9,-32576(gp)
  425350:	0320f809 	jalr	t9
  425354:	2484db38 	addiu	a0,a0,-9416
  425358:	3c040045 	lui	a0,0x45
  42535c:	8fbc0010 	lw	gp,16(sp)
  425360:	2484db80 	addiu	a0,a0,-9344
  425364:	8fbf001c 	lw	ra,28(sp)
  425368:	8f9980c0 	lw	t9,-32576(gp)
  42536c:	03200008 	jr	t9
  425370:	27bd0020 	addiu	sp,sp,32
  425374:	3c1c0045 	lui	gp,0x45
  425378:	3c040043 	lui	a0,0x43
  42537c:	279c6160 	addiu	gp,gp,24928
  425380:	24847288 	addiu	a0,a0,29320
  425384:	90a60021 	lbu	a2,33(a1)
[31m  425388:	8f9983f4 	lw	t9,printf[0m
  42538c:	90a50020 	lbu	a1,32(a1)
  425390:	03200008 	jr	t9
  425394:	00000000 	nop
  425398:	3c1c0045 	lui	gp,0x45
  42539c:	90a20021 	lbu	v0,33(a1)
  4253a0:	90a50020 	lbu	a1,32(a1)
  4253a4:	10c00004 	beqz	a2,4253b8 <libxt_TOS_init@@Base+0x98>
  4253a8:	279c6160 	addiu	gp,gp,24928
[31m  4253ac:	8f9983f4 	lw	t9,printf[0m
  4253b0:	10000026 	b	42544c <libxt_TOS_init@@Base+0x12c>
  4253b4:	3c040043 	lui	a0,0x43
  4253b8:	2403003f 	li	v1,63
  4253bc:	14430010 	bne	v0,v1,425400 <libxt_TOS_init@@Base+0xe0>
  4253c0:	00000000 	nop
  4253c4:	3c030045 	lui	v1,0x45
  4253c8:	1000000a 	b	4253f4 <libxt_TOS_init@@Base+0xd4>
  4253cc:	2463b600 	addiu	v1,v1,-18944
  4253d0:	90640000 	lbu	a0,0(v1)
  4253d4:	14850007 	bne	a0,a1,4253f4 <libxt_TOS_init@@Base+0xd4>
  4253d8:	24630008 	addiu	v1,v1,8
  4253dc:	3c040043 	lui	a0,0x43
  4253e0:	3c050043 	lui	a1,0x43
[31m  4253e4:	8f9983f4 	lw	t9,printf[0m
  4253e8:	24847068 	addiu	a0,a0,28776
  4253ec:	10000019 	b	425454 <libxt_TOS_init@@Base+0x134>
  4253f0:	24a572bc 	addiu	a1,a1,29372
  4253f4:	8c660004 	lw	a2,4(v1)
  4253f8:	14c0fff5 	bnez	a2,4253d0 <libxt_TOS_init@@Base+0xb0>
  4253fc:	00000000 	nop
  425400:	14a00006 	bnez	a1,42541c <libxt_TOS_init@@Base+0xfc>
  425404:	3c040043 	lui	a0,0x43
  425408:	00021027 	nor	v0,zero,v0
[31m  42540c:	8f9983f4 	lw	t9,printf[0m
  425410:	248472c8 	addiu	a0,a0,29384
  425414:	1000000b 	b	425444 <libxt_TOS_init@@Base+0x124>
  425418:	304500ff 	andi	a1,v0,0xff
  42541c:	14a20004 	bne	a1,v0,425430 <libxt_TOS_init@@Base+0x110>
  425420:	3c040043 	lui	a0,0x43
[31m  425424:	8f9983f4 	lw	t9,printf[0m
  425428:	10000006 	b	425444 <libxt_TOS_init@@Base+0x124>
  42542c:	248472d8 	addiu	a0,a0,29400
[31m  425430:	8f9983f4 	lw	t9,printf[0m
  425434:	14400005 	bnez	v0,42544c <libxt_TOS_init@@Base+0x12c>
  425438:	3c040043 	lui	a0,0x43
  42543c:	3c040043 	lui	a0,0x43
  425440:	248472e8 	addiu	a0,a0,29416
  425444:	03200008 	jr	t9
  425448:	00000000 	nop
  42544c:	00403021 	move	a2,v0
  425450:	248472a4 	addiu	a0,a0,29348
  425454:	03200008 	jr	t9
  425458:	00000000 	nop
  42545c:	3c1c0045 	lui	gp,0x45
  425460:	3c040043 	lui	a0,0x43
  425464:	279c6160 	addiu	gp,gp,24928
  425468:	248472f8 	addiu	a0,a0,29432
  42546c:	90a50020 	lbu	a1,32(a1)
[31m  425470:	8f9983f4 	lw	t9,printf[0m
  425474:	03200008 	jr	t9
  425478:	00000000 	nop
  42547c:	27bdffd8 	addiu	sp,sp,-40
  425480:	afbf0024 	sw	ra,36(sp)
  425484:	3c1c0045 	lui	gp,0x45
  425488:	279c6160 	addiu	gp,gp,24928
  42548c:	afbc0010 	sw	gp,16(sp)
  425490:	3c040043 	lui	a0,0x43
[31m  425494:	8f9983f4 	lw	t9,printf[0m
  425498:	248472bc 	addiu	a0,a0,29372
  42549c:	0320f809 	jalr	t9
  4254a0:	afa50018 	sw	a1,24(sp)
  4254a4:	3c040043 	lui	a0,0x43
  4254a8:	8fbc0010 	lw	gp,16(sp)
  4254ac:	248472d0 	addiu	a0,a0,29392
  4254b0:	8fa50018 	lw	a1,24(sp)
[31m  4254b4:	8f9983f4 	lw	t9,printf[0m
  4254b8:	90a50020 	lbu	a1,32(a1)
  4254bc:	8fbf0024 	lw	ra,36(sp)
--
  425a1c:	8c420000 	lw	v0,0(v0)
  425a20:	8c590014 	lw	t9,20(v0)
  425a24:	0320f809 	jalr	t9
  425a28:	24040002 	li	a0,2
  425a2c:	93a30018 	lbu	v1,24(sp)
  425a30:	a2830020 	sb	v1,32(s4)
  425a34:	8e030000 	lw	v1,0(s0)
  425a38:	34630001 	ori	v1,v1,0x1
  425a3c:	ae030000 	sw	v1,0(s0)
  425a40:	8fbf0034 	lw	ra,52(sp)
  425a44:	8fb40030 	lw	s4,48(sp)
  425a48:	8fb3002c 	lw	s3,44(sp)
  425a4c:	8fb20028 	lw	s2,40(sp)
  425a50:	8fb10024 	lw	s1,36(sp)
  425a54:	8fb00020 	lw	s0,32(sp)
  425a58:	03e00008 	jr	ra
  425a5c:	27bd0038 	addiu	sp,sp,56
  425a60:	27bdffd8 	addiu	sp,sp,-40
  425a64:	afbf0024 	sw	ra,36(sp)
  425a68:	afb10020 	sw	s1,32(sp)
  425a6c:	afb0001c 	sw	s0,28(sp)
  425a70:	3c1c0045 	lui	gp,0x45
  425a74:	279c6160 	addiu	gp,gp,24928
  425a78:	afbc0010 	sw	gp,16(sp)
  425a7c:	3c040043 	lui	a0,0x43
[31m  425a80:	8f9983f4 	lw	t9,printf[0m
  425a84:	3c050043 	lui	a1,0x43
  425a88:	24847390 	addiu	a0,a0,29584
  425a8c:	24a5df24 	addiu	a1,a1,-8412
  425a90:	3c100045 	lui	s0,0x45
  425a94:	0320f809 	jalr	t9
  425a98:	3c110043 	lui	s1,0x43
  425a9c:	2610b600 	addiu	s0,s0,-18944
  425aa0:	8fbc0010 	lw	gp,16(sp)
  425aa4:	10000006 	b	425ac0 <libxt_TOS_init@@Base+0x7a0>
  425aa8:	263174fc 	addiu	s1,s1,29948
  425aac:	92050000 	lbu	a1,0(s0)
  425ab0:	26100008 	addiu	s0,s0,8
  425ab4:	0320f809 	jalr	t9
  425ab8:	00a03021 	move	a2,a1
  425abc:	8fbc0010 	lw	gp,16(sp)
  425ac0:	8e070004 	lw	a3,4(s0)
[31m  425ac4:	8f9983f4 	lw	t9,printf[0m
  425ac8:	14e0fff8 	bnez	a3,425aac <libxt_TOS_init@@Base+0x78c>
  425acc:	02202021 	move	a0,s1
--
  425ae8:	03200008 	jr	t9
  425aec:	27bd0028 	addiu	sp,sp,40
  425af0:	27bdffd8 	addiu	sp,sp,-40
  425af4:	afbf0024 	sw	ra,36(sp)
  425af8:	afb10020 	sw	s1,32(sp)
  425afc:	afb0001c 	sw	s0,28(sp)
  425b00:	3c1c0045 	lui	gp,0x45
  425b04:	279c6160 	addiu	gp,gp,24928
  425b08:	afbc0010 	sw	gp,16(sp)
  425b0c:	3c040043 	lui	a0,0x43
  425b10:	8f998370 	lw	t9,-31888(gp)
  425b14:	248475e4 	addiu	a0,a0,30180
  425b18:	3c100045 	lui	s0,0x45
  425b1c:	0320f809 	jalr	t9
  425b20:	3c110043 	lui	s1,0x43
  425b24:	2610b600 	addiu	s0,s0,-18944
  425b28:	8fbc0010 	lw	gp,16(sp)
  425b2c:	10000006 	b	425b48 <libxt_TOS_init@@Base+0x828>
  425b30:	26317500 	addiu	s1,s1,29952
  425b34:	92050000 	lbu	a1,0(s0)
  425b38:	26100008 	addiu	s0,s0,8
  425b3c:	0320f809 	jalr	t9
  425b40:	00a03021 	move	a2,a1
  425b44:	8fbc0010 	lw	gp,16(sp)
  425b48:	8e070004 	lw	a3,4(s0)
[31m  425b4c:	8f9983f4 	lw	t9,printf[0m
  425b50:	14e0fff8 	bnez	a3,425b34 <libxt_TOS_init@@Base+0x814>
  425b54:	02202021 	move	a0,s1
--
  425bac:	8c590014 	lw	t9,20(v0)
  425bb0:	0320f809 	jalr	t9
  425bb4:	24040002 	li	a0,2
  425bb8:	8fbf001c 	lw	ra,28(sp)
  425bbc:	03e00008 	jr	ra
  425bc0:	27bd0020 	addiu	sp,sp,32

00425bc4 <libxt_TPROXY_init@@Base>:
  425bc4:	3c1c0045 	lui	gp,0x45
  425bc8:	3c040045 	lui	a0,0x45
  425bcc:	279c6160 	addiu	gp,gp,24928
  425bd0:	2484dbd0 	addiu	a0,a0,-9264
  425bd4:	8f9980c0 	lw	t9,-32576(gp)
  425bd8:	03200008 	jr	t9
  425bdc:	00000000 	nop
  425be0:	27bdffd8 	addiu	sp,sp,-40
  425be4:	afbf0024 	sw	ra,36(sp)
  425be8:	afb10020 	sw	s1,32(sp)
  425bec:	afb0001c 	sw	s0,28(sp)
  425bf0:	3c1c0045 	lui	gp,0x45
  425bf4:	279c6160 	addiu	gp,gp,24928
  425bf8:	afbc0010 	sw	gp,16(sp)
  425bfc:	3c040043 	lui	a0,0x43
  425c00:	24b10020 	addiu	s1,a1,32
  425c04:	00a08021 	move	s0,a1
[31m  425c08:	8f9983f4 	lw	t9,printf[0m
  425c0c:	9625000c 	lhu	a1,12(s1)
  425c10:	0320f809 	jalr	t9
  425c14:	24847704 	addiu	a0,a0,30468
  425c18:	8fbc0010 	lw	gp,16(sp)
  425c1c:	8f998318 	lw	t9,-31976(gp)
  425c20:	0320f809 	jalr	t9
  425c24:	26040028 	addiu	a0,s0,40
  425c28:	3c040043 	lui	a0,0x43
  425c2c:	8fbc0010 	lw	gp,16(sp)
  425c30:	24847714 	addiu	a0,a0,30484
[31m  425c34:	8f9983f4 	lw	t9,printf[0m
  425c38:	0320f809 	jalr	t9
  425c3c:	00402821 	move	a1,v0
  425c40:	3c040043 	lui	a0,0x43
  425c44:	8fbc0010 	lw	gp,16(sp)
  425c48:	24847720 	addiu	a0,a0,30496
  425c4c:	8e250004 	lw	a1,4(s1)
  425c50:	8e060020 	lw	a2,32(s0)
[31m  425c54:	8f9983f4 	lw	t9,printf[0m
  425c58:	8fbf0024 	lw	ra,36(sp)
  425c5c:	8fb10020 	lw	s1,32(sp)
  425c60:	8fb0001c 	lw	s0,28(sp)
  425c64:	03200008 	jr	t9
  425c68:	27bd0028 	addiu	sp,sp,40
  425c6c:	27bdffd0 	addiu	sp,sp,-48
  425c70:	afbf002c 	sw	ra,44(sp)
  425c74:	afb10028 	sw	s1,40(sp)
  425c78:	afb00024 	sw	s0,36(sp)
  425c7c:	3c1c0045 	lui	gp,0x45
  425c80:	279c6160 	addiu	gp,gp,24928
  425c84:	afbc0018 	sw	gp,24(sp)
  425c88:	8f998318 	lw	t9,-31976(gp)
  425c8c:	24a40028 	addiu	a0,a1,40
  425c90:	00a08021 	move	s0,a1
  425c94:	0320f809 	jalr	t9
  425c98:	24b10020 	addiu	s1,a1,32
  425c9c:	3c040043 	lui	a0,0x43
  425ca0:	8fbc0018 	lw	gp,24(sp)
  425ca4:	00402821 	move	a1,v0
  425ca8:	2484773c 	addiu	a0,a0,30524
  425cac:	8e020020 	lw	v0,32(s0)
  425cb0:	8e270004 	lw	a3,4(s1)
  425cb4:	9626000c 	lhu	a2,12(s1)
[31m  425cb8:	8f9983f4 	lw	t9,printf[0m
  425cbc:	0320f809 	jalr	t9
  425cc0:	afa20010 	sw	v0,16(sp)
--
  42605c:	27bdffc0 	addiu	sp,sp,-64
  426060:	afbf003c 	sw	ra,60(sp)
  426064:	afbe0038 	sw	s8,56(sp)
  426068:	afb70034 	sw	s7,52(sp)
  42606c:	afb60030 	sw	s6,48(sp)
  426070:	afb5002c 	sw	s5,44(sp)
  426074:	afb40028 	sw	s4,40(sp)
  426078:	afb30024 	sw	s3,36(sp)
  42607c:	afb20020 	sw	s2,32(sp)
  426080:	afb1001c 	sw	s1,28(sp)
  426084:	afb00018 	sw	s0,24(sp)
  426088:	3c1c0045 	lui	gp,0x45
  42608c:	279c6160 	addiu	gp,gp,24928
  426090:	afbc0010 	sw	gp,16(sp)
  426094:	3c150043 	lui	s5,0x43
  426098:	00809021 	move	s2,a0
  42609c:	26b5775c 	addiu	s5,s5,30556
  4260a0:	00008021 	move	s0,zero
  4260a4:	00808821 	move	s1,a0
  4260a8:	241600b4 	li	s6,180
  4260ac:	241e0002 	li	s8,2
  4260b0:	1000005b 	b	426220 <libxt_u32_init@@Base+0x1e0>
  4260b4:	24170003 	li	s7,3
  4260b8:	12000005 	beqz	s0,4260d0 <libxt_u32_init@@Base+0x90>
  4260bc:	3c040043 	lui	a0,0x43
[31m  4260c0:	8f9983f4 	lw	t9,printf[0m
  4260c4:	0320f809 	jalr	t9
  4260c8:	248478b8 	addiu	a0,a0,30904
  4260cc:	8fbc0010 	lw	gp,16(sp)
[31m  4260d0:	8f9983f4 	lw	t9,printf[0m
  4260d4:	02a02021 	move	a0,s5
  4260d8:	8e250000 	lw	a1,0(s1)
  4260dc:	0320f809 	jalr	t9
  4260e0:	24140001 	li	s4,1
  4260e4:	02160018 	mult	s0,s6
  4260e8:	8fbc0010 	lw	gp,16(sp)
  4260ec:	00009812 	mflo	s3
  4260f0:	26730008 	addiu	s3,s3,8
  4260f4:	10000020 	b	426178 <libxt_u32_init@@Base+0x138>
  4260f8:	02539821 	addu	s3,s2,s3
  4260fc:	92620004 	lbu	v0,4(s3)
  426100:	1043000c 	beq	v0,v1,426134 <libxt_u32_init@@Base+0xf4>
  426104:	3c040043 	lui	a0,0x43
  426108:	10400007 	beqz	v0,426128 <libxt_u32_init@@Base+0xe8>
  42610c:	00000000 	nop
  426110:	105e000b 	beq	v0,s8,426140 <libxt_u32_init@@Base+0x100>
  426114:	3c040043 	lui	a0,0x43
  426118:	14570010 	bne	v0,s7,42615c <libxt_u32_init@@Base+0x11c>
  42611c:	24040040 	li	a0,64
  426120:	1000000a 	b	42614c <libxt_u32_init@@Base+0x10c>
  426124:	00000000 	nop
  426128:	8f998414 	lw	t9,-31724(gp)
  42612c:	10000008 	b	426150 <libxt_u32_init@@Base+0x110>
  426130:	24040026 	li	a0,38
[31m  426134:	8f9983f4 	lw	t9,printf[0m
  426138:	10000005 	b	426150 <libxt_u32_init@@Base+0x110>
  42613c:	248478bc 	addiu	a0,a0,30908
[31m  426140:	8f9983f4 	lw	t9,printf[0m
  426144:	10000002 	b	426150 <libxt_u32_init@@Base+0x110>
  426148:	248478c0 	addiu	a0,a0,30912
  42614c:	8f998414 	lw	t9,-31724(gp)
  426150:	0320f809 	jalr	t9
  426154:	00000000 	nop
  426158:	8fbc0010 	lw	gp,16(sp)
[31m  42615c:	8f9983f4 	lw	t9,printf[0m
  426160:	02a02021 	move	a0,s5
  426164:	26940001 	addiu	s4,s4,1
--
  426174:	8fbc0010 	lw	gp,16(sp)
  426178:	922200b0 	lbu	v0,176(s1)
  42617c:	0282102b 	sltu	v0,s4,v0
  426180:	1440ffde 	bnez	v0,4260fc <libxt_u32_init@@Base+0xbc>
  426184:	24030001 	li	v1,1
  426188:	8f998414 	lw	t9,-31724(gp)
  42618c:	2404003d 	li	a0,61
  426190:	0320f809 	jalr	t9
  426194:	0000a021 	move	s4,zero
  426198:	02160018 	mult	s0,s6
  42619c:	8fbc0010 	lw	gp,16(sp)
  4261a0:	00009812 	mflo	s3
  4261a4:	26730058 	addiu	s3,s3,88
  4261a8:	10000017 	b	426208 <libxt_u32_init@@Base+0x1c8>
  4261ac:	02539821 	addu	s3,s2,s3
  4261b0:	12800005 	beqz	s4,4261c8 <libxt_u32_init@@Base+0x188>
  4261b4:	00000000 	nop
  4261b8:	8f998414 	lw	t9,-31724(gp)
  4261bc:	0320f809 	jalr	t9
  4261c0:	2404002c 	li	a0,44
  4261c4:	8fbc0010 	lw	gp,16(sp)
  4261c8:	8e620000 	lw	v0,0(s3)
  4261cc:	3c040043 	lui	a0,0x43
  4261d0:	8e660004 	lw	a2,4(s3)
  4261d4:	248478c4 	addiu	a0,a0,30916
[31m  4261d8:	8f9983f4 	lw	t9,printf[0m
  4261dc:	14460005 	bne	v0,a2,4261f4 <libxt_u32_init@@Base+0x1b4>
  4261e0:	00402821 	move	a1,v0
--
  426228:	1440ffa3 	bnez	v0,4260b8 <libxt_u32_init@@Base+0x78>
  42622c:	24040020 	li	a0,32
  426230:	8f998414 	lw	t9,-31724(gp)
  426234:	8fbf003c 	lw	ra,60(sp)
  426238:	8fbe0038 	lw	s8,56(sp)
  42623c:	8fb70034 	lw	s7,52(sp)
  426240:	8fb60030 	lw	s6,48(sp)
  426244:	8fb5002c 	lw	s5,44(sp)
  426248:	8fb40028 	lw	s4,40(sp)
  42624c:	8fb30024 	lw	s3,36(sp)
  426250:	8fb20020 	lw	s2,32(sp)
  426254:	8fb1001c 	lw	s1,28(sp)
  426258:	8fb00018 	lw	s0,24(sp)
  42625c:	03200008 	jr	t9
  426260:	27bd0040 	addiu	sp,sp,64
  426264:	27bdffe0 	addiu	sp,sp,-32
  426268:	afbf001c 	sw	ra,28(sp)
  42626c:	afb00018 	sw	s0,24(sp)
  426270:	3c1c0045 	lui	gp,0x45
  426274:	279c6160 	addiu	gp,gp,24928
  426278:	afbc0010 	sw	gp,16(sp)
  42627c:	24b00020 	addiu	s0,a1,32
  426280:	920207bd 	lbu	v0,1981(s0)
  426284:	10400006 	beqz	v0,4262a0 <libxt_u32_init@@Base+0x260>
  426288:	00000000 	nop
[31m  42628c:	8f9983f4 	lw	t9,printf[0m
  426290:	3c040043 	lui	a0,0x43
  426294:	0320f809 	jalr	t9
  426298:	2484c8c4 	addiu	a0,a0,-14140
  42629c:	8fbc0010 	lw	gp,16(sp)
[31m  4262a0:	8f9983f4 	lw	t9,printf[0m
  4262a4:	3c040043 	lui	a0,0x43
  4262a8:	0320f809 	jalr	t9
  4262ac:	248478d0 	addiu	a0,a0,30928
  4262b0:	02002021 	move	a0,s0
  4262b4:	8fbc0010 	lw	gp,16(sp)
  4262b8:	8fbf001c 	lw	ra,28(sp)
  4262bc:	8fb00018 	lw	s0,24(sp)
  4262c0:	08109817 	j	42605c <libxt_u32_init@@Base+0x1c>
  4262c4:	27bd0020 	addiu	sp,sp,32
  4262c8:	27bdffe0 	addiu	sp,sp,-32
  4262cc:	afbf001c 	sw	ra,28(sp)
  4262d0:	afb00018 	sw	s0,24(sp)
  4262d4:	3c1c0045 	lui	gp,0x45
  4262d8:	279c6160 	addiu	gp,gp,24928
  4262dc:	afbc0010 	sw	gp,16(sp)
  4262e0:	3c040043 	lui	a0,0x43
[31m  4262e4:	8f9983f4 	lw	t9,printf[0m
  4262e8:	24b00020 	addiu	s0,a1,32
  4262ec:	0320f809 	jalr	t9
  4262f0:	248478d8 	addiu	a0,a0,30936
  4262f4:	920207bd 	lbu	v0,1981(s0)
  4262f8:	8fbc0010 	lw	gp,16(sp)
  4262fc:	10400005 	beqz	v0,426314 <libxt_u32_init@@Base+0x2d4>
  426300:	3c040043 	lui	a0,0x43
[31m  426304:	8f9983f4 	lw	t9,printf[0m
  426308:	0320f809 	jalr	t9
  42630c:	2484c8c4 	addiu	a0,a0,-14140
--
  426854:	2484dcc0 	addiu	a0,a0,-9024
  426858:	3c040045 	lui	a0,0x45
  42685c:	8fbc0010 	lw	gp,16(sp)
  426860:	2484dd04 	addiu	a0,a0,-8956
  426864:	8fbf001c 	lw	ra,28(sp)
  426868:	8f998148 	lw	t9,-32440(gp)
  42686c:	03200008 	jr	t9
  426870:	27bd0020 	addiu	sp,sp,32
  426874:	27bdffd8 	addiu	sp,sp,-40
  426878:	afbf0024 	sw	ra,36(sp)
  42687c:	afb00020 	sw	s0,32(sp)
  426880:	3c1c0045 	lui	gp,0x45
  426884:	279c6160 	addiu	gp,gp,24928
  426888:	afbc0010 	sw	gp,16(sp)
  42688c:	94a20020 	lhu	v0,32(a1)
  426890:	14400005 	bnez	v0,4268a8 <libxt_udp_init@@Base+0x74>
  426894:	24b00020 	addiu	s0,a1,32
  426898:	96030002 	lhu	v1,2(s0)
  42689c:	3402ffff 	li	v0,0xffff
  4268a0:	1062001a 	beq	v1,v0,42690c <libxt_udp_init@@Base+0xd8>
  4268a4:	00000000 	nop
  4268a8:	92020008 	lbu	v0,8(s0)
  4268ac:	30420001 	andi	v0,v0,0x1
  4268b0:	10400008 	beqz	v0,4268d4 <libxt_udp_init@@Base+0xa0>
  4268b4:	00000000 	nop
[31m  4268b8:	8f9983f4 	lw	t9,printf[0m
  4268bc:	3c040043 	lui	a0,0x43
  4268c0:	afa50018 	sw	a1,24(sp)
  4268c4:	0320f809 	jalr	t9
  4268c8:	2484c8c4 	addiu	a0,a0,-14140
  4268cc:	8fbc0010 	lw	gp,16(sp)
  4268d0:	8fa50018 	lw	a1,24(sp)
  4268d4:	94a50020 	lhu	a1,32(a1)
  4268d8:	96060002 	lhu	a2,2(s0)
[31m  4268dc:	8f9983f4 	lw	t9,printf[0m
  4268e0:	10a60006 	beq	a1,a2,4268fc <libxt_udp_init@@Base+0xc8>
  4268e4:	00000000 	nop
  4268e8:	3c040043 	lui	a0,0x43
  4268ec:	0320f809 	jalr	t9
  4268f0:	248406e0 	addiu	a0,a0,1760
  4268f4:	10000004 	b	426908 <libxt_udp_init@@Base+0xd4>
  4268f8:	00000000 	nop
  4268fc:	3c040043 	lui	a0,0x43
  426900:	0320f809 	jalr	t9
  426904:	248406f0 	addiu	a0,a0,1776
  426908:	8fbc0010 	lw	gp,16(sp)
  42690c:	96020004 	lhu	v0,4(s0)
  426910:	14400004 	bnez	v0,426924 <libxt_udp_init@@Base+0xf0>
  426914:	3402ffff 	li	v0,0xffff
  426918:	96030006 	lhu	v1,6(s0)
  42691c:	10620019 	beq	v1,v0,426984 <libxt_udp_init@@Base+0x150>
  426920:	00000000 	nop
  426924:	92020008 	lbu	v0,8(s0)
  426928:	30420002 	andi	v0,v0,0x2
  42692c:	10400005 	beqz	v0,426944 <libxt_udp_init@@Base+0x110>
  426930:	3c040043 	lui	a0,0x43
[31m  426934:	8f9983f4 	lw	t9,printf[0m
  426938:	0320f809 	jalr	t9
  42693c:	2484c8c4 	addiu	a0,a0,-14140
  426940:	8fbc0010 	lw	gp,16(sp)
  426944:	96060006 	lhu	a2,6(s0)
  426948:	96050004 	lhu	a1,4(s0)
[31m  42694c:	8f9983f4 	lw	t9,printf[0m
  426950:	10a60006 	beq	a1,a2,42696c <libxt_udp_init@@Base+0x138>
  426954:	3c040043 	lui	a0,0x43
--
  426984:	8fbf0024 	lw	ra,36(sp)
  426988:	8fb00020 	lw	s0,32(sp)
  42698c:	03e00008 	jr	ra
  426990:	27bd0028 	addiu	sp,sp,40
  426994:	27bdffe0 	addiu	sp,sp,-32
  426998:	afbf001c 	sw	ra,28(sp)
  42699c:	afb00018 	sw	s0,24(sp)
  4269a0:	3c1c0045 	lui	gp,0x45
  4269a4:	279c6160 	addiu	gp,gp,24928
  4269a8:	afbc0010 	sw	gp,16(sp)
  4269ac:	14a0000c 	bnez	a1,4269e0 <libxt_udp_init@@Base+0x1ac>
  4269b0:	3090ffff 	andi	s0,a0,0xffff
  4269b4:	8f998198 	lw	t9,-32360(gp)
  4269b8:	3c050043 	lui	a1,0x43
  4269bc:	02002021 	move	a0,s0
  4269c0:	0320f809 	jalr	t9
  4269c4:	24a5e258 	addiu	a1,a1,-7592
  4269c8:	8fbc0010 	lw	gp,16(sp)
  4269cc:	10400005 	beqz	v0,4269e4 <libxt_udp_init@@Base+0x1b0>
  4269d0:	3c040043 	lui	a0,0x43
  4269d4:	8c450000 	lw	a1,0(v0)
  4269d8:	14a00006 	bnez	a1,4269f4 <libxt_udp_init@@Base+0x1c0>
  4269dc:	00000000 	nop
  4269e0:	3c040043 	lui	a0,0x43
  4269e4:	02002821 	move	a1,s0
[31m  4269e8:	8f9983f4 	lw	t9,printf[0m
  4269ec:	10000004 	b	426a00 <libxt_udp_init@@Base+0x1cc>
  4269f0:	24842d78 	addiu	a0,a0,11640
  4269f4:	3c040044 	lui	a0,0x44
[31m  4269f8:	8f9983f4 	lw	t9,printf[0m
  4269fc:	24848b80 	addiu	a0,a0,-29824
  426a00:	8fbf001c 	lw	ra,28(sp)
--
  426a0c:	27bd0020 	addiu	sp,sp,32
  426a10:	27bdffd0 	addiu	sp,sp,-48
  426a14:	afbf002c 	sw	ra,44(sp)
  426a18:	afb30028 	sw	s3,40(sp)
  426a1c:	afb20024 	sw	s2,36(sp)
  426a20:	afb10020 	sw	s1,32(sp)
  426a24:	afb0001c 	sw	s0,28(sp)
  426a28:	3c1c0045 	lui	gp,0x45
  426a2c:	279c6160 	addiu	gp,gp,24928
  426a30:	afbc0010 	sw	gp,16(sp)
  426a34:	8fb10040 	lw	s1,64(sp)
  426a38:	30b0ffff 	andi	s0,a1,0xffff
  426a3c:	14e00004 	bnez	a3,426a50 <libxt_udp_init@@Base+0x21c>
  426a40:	30d2ffff 	andi	s2,a2,0xffff
  426a44:	3c130043 	lui	s3,0x43
  426a48:	10000003 	b	426a58 <libxt_udp_init@@Base+0x224>
  426a4c:	26733f34 	addiu	s3,s3,16180
  426a50:	3c130043 	lui	s3,0x43
  426a54:	26731db0 	addiu	s3,s3,7600
  426a58:	16000005 	bnez	s0,426a70 <libxt_udp_init@@Base+0x23c>
  426a5c:	3402ffff 	li	v0,0xffff
  426a60:	16420003 	bne	s2,v0,426a70 <libxt_udp_init@@Base+0x23c>
  426a64:	00000000 	nop
  426a68:	10e00028 	beqz	a3,426b0c <libxt_udp_init@@Base+0x2d8>
  426a6c:	00000000 	nop
[31m  426a70:	8f9983f4 	lw	t9,printf[0m
  426a74:	00802821 	move	a1,a0
  426a78:	3c040044 	lui	a0,0x44
  426a7c:	0320f809 	jalr	t9
  426a80:	24848b80 	addiu	a0,a0,-29824
  426a84:	8fbc0010 	lw	gp,16(sp)
[31m  426a88:	8f9983f4 	lw	t9,printf[0m
  426a8c:	16120007 	bne	s0,s2,426aac <libxt_udp_init@@Base+0x278>
  426a90:	00000000 	nop
--
  426ae4:	24040020 	li	a0,32
  426ae8:	8fbc0010 	lw	gp,16(sp)
  426aec:	8fbf002c 	lw	ra,44(sp)
  426af0:	8f998414 	lw	t9,-31724(gp)
  426af4:	8fb30028 	lw	s3,40(sp)
  426af8:	8fb20024 	lw	s2,36(sp)
  426afc:	8fb10020 	lw	s1,32(sp)
  426b00:	8fb0001c 	lw	s0,28(sp)
  426b04:	03200008 	jr	t9
  426b08:	27bd0030 	addiu	sp,sp,48
  426b0c:	8fbf002c 	lw	ra,44(sp)
  426b10:	8fb30028 	lw	s3,40(sp)
  426b14:	8fb20024 	lw	s2,36(sp)
  426b18:	8fb10020 	lw	s1,32(sp)
  426b1c:	8fb0001c 	lw	s0,28(sp)
  426b20:	03e00008 	jr	ra
  426b24:	27bd0030 	addiu	sp,sp,48
  426b28:	27bdffc8 	addiu	sp,sp,-56
  426b2c:	afbf0034 	sw	ra,52(sp)
  426b30:	afb10030 	sw	s1,48(sp)
  426b34:	afb0002c 	sw	s0,44(sp)
  426b38:	3c1c0045 	lui	gp,0x45
  426b3c:	279c6160 	addiu	gp,gp,24928
  426b40:	afbc0018 	sw	gp,24(sp)
  426b44:	3c040043 	lui	a0,0x43
[31m  426b48:	8f9983f4 	lw	t9,printf[0m
  426b4c:	24847c0c 	addiu	a0,a0,31756
  426b50:	00c08821 	move	s1,a2
  426b54:	afa50020 	sw	a1,32(sp)
  426b58:	0320f809 	jalr	t9
  426b5c:	24b00020 	addiu	s0,a1,32
  426b60:	3c040043 	lui	a0,0x43
  426b64:	8fa50020 	lw	a1,32(sp)
  426b68:	24840750 	addiu	a0,a0,1872
  426b6c:	92070008 	lbu	a3,8(s0)
  426b70:	94a50020 	lhu	a1,32(a1)
  426b74:	96060002 	lhu	a2,2(s0)
  426b78:	30e70001 	andi	a3,a3,0x1
  426b7c:	0c109a84 	jal	426a10 <libxt_udp_init@@Base+0x1dc>
  426b80:	afb10010 	sw	s1,16(sp)
  426b84:	3c040043 	lui	a0,0x43
  426b88:	92070008 	lbu	a3,8(s0)
  426b8c:	24840754 	addiu	a0,a0,1876
  426b90:	96050004 	lhu	a1,4(s0)
  426b94:	96060006 	lhu	a2,6(s0)
  426b98:	30e70002 	andi	a3,a3,0x2
  426b9c:	0c109a84 	jal	426a10 <libxt_udp_init@@Base+0x1dc>
  426ba0:	afb10010 	sw	s1,16(sp)
  426ba4:	92050008 	lbu	a1,8(s0)
  426ba8:	8fbc0018 	lw	gp,24(sp)
  426bac:	30a500fc 	andi	a1,a1,0xfc
  426bb0:	10a00008 	beqz	a1,426bd4 <libxt_udp_init@@Base+0x3a0>
  426bb4:	3c040043 	lui	a0,0x43
[31m  426bb8:	8f9983f4 	lw	t9,printf[0m
  426bbc:	8fbf0034 	lw	ra,52(sp)
  426bc0:	24840efc 	addiu	a0,a0,3836
--
  426edc:	03200008 	jr	t9
  426ee0:	00000000 	nop
  426ee4:	27bdffd8 	addiu	sp,sp,-40
  426ee8:	afbf0024 	sw	ra,36(sp)
  426eec:	afb10020 	sw	s1,32(sp)
  426ef0:	afb0001c 	sw	s0,28(sp)
  426ef4:	3c1c0045 	lui	gp,0x45
  426ef8:	279c6160 	addiu	gp,gp,24928
  426efc:	afbc0010 	sw	gp,16(sp)
  426f00:	8ca20020 	lw	v0,32(a1)
  426f04:	00a08821 	move	s1,a1
  426f08:	14400005 	bnez	v0,426f20 <libip6t_ah_init@@Base+0x58>
  426f0c:	24b00020 	addiu	s0,a1,32
  426f10:	8e030004 	lw	v1,4(s0)
  426f14:	2402ffff 	li	v0,-1
  426f18:	1062001c 	beq	v1,v0,426f8c <libip6t_ah_init@@Base+0xc4>
  426f1c:	00000000 	nop
  426f20:	9202000d 	lbu	v0,13(s0)
  426f24:	30420001 	andi	v0,v0,0x1
  426f28:	14400003 	bnez	v0,426f38 <libip6t_ah_init@@Base+0x70>
  426f2c:	3c050043 	lui	a1,0x43
  426f30:	10000003 	b	426f40 <libip6t_ah_init@@Base+0x78>
  426f34:	24a53f34 	addiu	a1,a1,16180
  426f38:	3c050043 	lui	a1,0x43
  426f3c:	24a5c8c4 	addiu	a1,a1,-14140
[31m  426f40:	8f9983f4 	lw	t9,printf[0m
  426f44:	3c040043 	lui	a0,0x43
  426f48:	0320f809 	jalr	t9
  426f4c:	24847cbc 	addiu	a0,a0,31932
  426f50:	8fbc0010 	lw	gp,16(sp)
  426f54:	8e250020 	lw	a1,32(s1)
  426f58:	8e060004 	lw	a2,4(s0)
[31m  426f5c:	8f9983f4 	lw	t9,printf[0m
  426f60:	10a60006 	beq	a1,a2,426f7c <libip6t_ah_init@@Base+0xb4>
  426f64:	00000000 	nop
  426f68:	3c040043 	lui	a0,0x43
  426f6c:	0320f809 	jalr	t9
  426f70:	24840704 	addiu	a0,a0,1796
  426f74:	10000004 	b	426f88 <libip6t_ah_init@@Base+0xc0>
  426f78:	00000000 	nop
  426f7c:	3c040043 	lui	a0,0x43
  426f80:	0320f809 	jalr	t9
  426f84:	2484391c 	addiu	a0,a0,14620
  426f88:	8fbc0010 	lw	gp,16(sp)
  426f8c:	8e060008 	lw	a2,8(s0)
  426f90:	14c00005 	bnez	a2,426fa8 <libip6t_ah_init@@Base+0xe0>
  426f94:	00000000 	nop
  426f98:	9202000d 	lbu	v0,13(s0)
  426f9c:	30420002 	andi	v0,v0,0x2
  426fa0:	1040000e 	beqz	v0,426fdc <libip6t_ah_init@@Base+0x114>
  426fa4:	00000000 	nop
  426fa8:	9202000d 	lbu	v0,13(s0)
  426fac:	30420002 	andi	v0,v0,0x2
  426fb0:	14400003 	bnez	v0,426fc0 <libip6t_ah_init@@Base+0xf8>
  426fb4:	3c050043 	lui	a1,0x43
  426fb8:	10000003 	b	426fc8 <libip6t_ah_init@@Base+0x100>
  426fbc:	24a53f34 	addiu	a1,a1,16180
  426fc0:	3c050043 	lui	a1,0x43
  426fc4:	24a5c8c4 	addiu	a1,a1,-14140
[31m  426fc8:	8f9983f4 	lw	t9,printf[0m
  426fcc:	3c040043 	lui	a0,0x43
  426fd0:	0320f809 	jalr	t9
  426fd4:	24847cc8 	addiu	a0,a0,31944
  426fd8:	8fbc0010 	lw	gp,16(sp)
  426fdc:	9202000c 	lbu	v0,12(s0)
  426fe0:	10400008 	beqz	v0,427004 <libip6t_ah_init@@Base+0x13c>
  426fe4:	3c040043 	lui	a0,0x43
[31m  426fe8:	8f9983f4 	lw	t9,printf[0m
  426fec:	8fbf0024 	lw	ra,36(sp)
  426ff0:	24847cd8 	addiu	a0,a0,31960
  426ff4:	8fb10020 	lw	s1,32(sp)
  426ff8:	8fb0001c 	lw	s0,28(sp)
  426ffc:	03200008 	jr	t9
  427000:	27bd0028 	addiu	sp,sp,40
  427004:	8fbf0024 	lw	ra,36(sp)
  427008:	8fb10020 	lw	s1,32(sp)
  42700c:	8fb0001c 	lw	s0,28(sp)
  427010:	03e00008 	jr	ra
  427014:	27bd0028 	addiu	sp,sp,40
  427018:	27bdffd0 	addiu	sp,sp,-48
  42701c:	afbf002c 	sw	ra,44(sp)
  427020:	afb00028 	sw	s0,40(sp)
  427024:	3c1c0045 	lui	gp,0x45
  427028:	279c6160 	addiu	gp,gp,24928
  42702c:	afbc0018 	sw	gp,24(sp)
  427030:	3c040043 	lui	a0,0x43
[31m  427034:	8f9983f4 	lw	t9,printf[0m
  427038:	24b00020 	addiu	s0,a1,32
  42703c:	afa50020 	sw	a1,32(sp)
  427040:	0320f809 	jalr	t9
  427044:	24847ce4 	addiu	a0,a0,31972
  427048:	9203000d 	lbu	v1,13(s0)
  42704c:	8fa50020 	lw	a1,32(sp)
  427050:	30630001 	andi	v1,v1,0x1
  427054:	8fbc0018 	lw	gp,24(sp)
  427058:	8ca70020 	lw	a3,32(a1)
  42705c:	8e020004 	lw	v0,4(s0)
  427060:	14600003 	bnez	v1,427070 <libip6t_ah_init@@Base+0x1a8>
  427064:	3c060043 	lui	a2,0x43
  427068:	10000003 	b	427078 <libip6t_ah_init@@Base+0x1b0>
  42706c:	24c63f34 	addiu	a2,a2,16180
  427070:	3c060043 	lui	a2,0x43
  427074:	24c61db0 	addiu	a2,a2,7600
  427078:	14e00007 	bnez	a3,427098 <libip6t_ah_init@@Base+0x1d0>
  42707c:	2404ffff 	li	a0,-1
  427080:	14440005 	bne	v0,a0,427098 <libip6t_ah_init@@Base+0x1d0>
  427084:	00000000 	nop
  427088:	1460000d 	bnez	v1,4270c0 <libip6t_ah_init@@Base+0x1f8>
  42708c:	3c040043 	lui	a0,0x43
  427090:	10000012 	b	4270dc <libip6t_ah_init@@Base+0x214>
  427094:	00000000 	nop
  427098:	14e20009 	bne	a3,v0,4270c0 <libip6t_ah_init@@Base+0x1f8>
  42709c:	3c040043 	lui	a0,0x43
[31m  4270a0:	8f9983f4 	lw	t9,printf[0m
  4270a4:	3c040043 	lui	a0,0x43
  4270a8:	3c050043 	lui	a1,0x43
  4270ac:	24840edc 	addiu	a0,a0,3804
  4270b0:	0320f809 	jalr	t9
  4270b4:	24a50ee8 	addiu	a1,a1,3816
  4270b8:	10000007 	b	4270d8 <libip6t_ah_init@@Base+0x210>
  4270bc:	00000000 	nop
  4270c0:	3c050043 	lui	a1,0x43
[31m  4270c4:	8f9983f4 	lw	t9,printf[0m
  4270c8:	24840eec 	addiu	a0,a0,3820
  4270cc:	afa20010 	sw	v0,16(sp)
  4270d0:	0320f809 	jalr	t9
  4270d4:	24a50ee8 	addiu	a1,a1,3816
  4270d8:	8fbc0018 	lw	gp,24(sp)
  4270dc:	9202000d 	lbu	v0,13(s0)
  4270e0:	8e070008 	lw	a3,8(s0)
  4270e4:	30420002 	andi	v0,v0,0x2
  4270e8:	14400003 	bnez	v0,4270f8 <libip6t_ah_init@@Base+0x230>
  4270ec:	3c060043 	lui	a2,0x43
  4270f0:	10000003 	b	427100 <libip6t_ah_init@@Base+0x238>
  4270f4:	24c63f34 	addiu	a2,a2,16180
  4270f8:	3c060043 	lui	a2,0x43
  4270fc:	24c61db0 	addiu	a2,a2,7600
  427100:	14e00003 	bnez	a3,427110 <libip6t_ah_init@@Base+0x248>
  427104:	00000000 	nop
  427108:	10400008 	beqz	v0,42712c <libip6t_ah_init@@Base+0x264>
  42710c:	00000000 	nop
[31m  427110:	8f9983f4 	lw	t9,printf[0m
  427114:	3c040043 	lui	a0,0x43
  427118:	3c050044 	lui	a1,0x44
  42711c:	24840edc 	addiu	a0,a0,3804
  427120:	0320f809 	jalr	t9
  427124:	24a5804c 	addiu	a1,a1,-32692
  427128:	8fbc0018 	lw	gp,24(sp)
  42712c:	9202000c 	lbu	v0,12(s0)
  427130:	10400005 	beqz	v0,427148 <libip6t_ah_init@@Base+0x280>
  427134:	3c040043 	lui	a0,0x43
[31m  427138:	8f9983f4 	lw	t9,printf[0m
  42713c:	0320f809 	jalr	t9
  427140:	24847ce8 	addiu	a0,a0,31976
  427144:	8fbc0018 	lw	gp,24(sp)
  427148:	9205000d 	lbu	a1,13(s0)
  42714c:	30a500fc 	andi	a1,a1,0xfc
  427150:	10a00007 	beqz	a1,427170 <libip6t_ah_init@@Base+0x2a8>
  427154:	3c040043 	lui	a0,0x43
[31m  427158:	8f9983f4 	lw	t9,printf[0m
  42715c:	8fbf002c 	lw	ra,44(sp)
  427160:	24840efc 	addiu	a0,a0,3836
--
  4274e4:	279c6160 	addiu	gp,gp,24928
  4274e8:	24847db0 	addiu	a0,a0,32176
  4274ec:	8f998370 	lw	t9,-31888(gp)
  4274f0:	03200008 	jr	t9
  4274f4:	00000000 	nop
	...
  427500:	24820020 	addiu	v0,a0,32
  427504:	ac800020 	sw	zero,32(a0)
  427508:	a0400026 	sb	zero,38(v0)
  42750c:	a0400004 	sb	zero,4(v0)
  427510:	03e00008 	jr	ra
  427514:	a0400005 	sb	zero,5(v0)

00427518 <libip6t_dst_init@@Base>:
  427518:	3c1c0045 	lui	gp,0x45
  42751c:	3c040045 	lui	a0,0x45
  427520:	279c6160 	addiu	gp,gp,24928
  427524:	2484dda0 	addiu	a0,a0,-8800
  427528:	8f998148 	lw	t9,-32440(gp)
  42752c:	03200008 	jr	t9
  427530:	00000000 	nop
  427534:	3c1c0045 	lui	gp,0x45
  427538:	3c040043 	lui	a0,0x43
  42753c:	279c6160 	addiu	gp,gp,24928
  427540:	24050010 	li	a1,16
[31m  427544:	8f9983f4 	lw	t9,printf[0m
  427548:	24847e84 	addiu	a0,a0,32388
  42754c:	03200008 	jr	t9
--
  427570:	afb30024 	sw	s3,36(sp)
  427574:	afb20020 	sw	s2,32(sp)
  427578:	afb1001c 	sw	s1,28(sp)
  42757c:	afb00018 	sw	s0,24(sp)
  427580:	3c1c0045 	lui	gp,0x45
  427584:	279c6160 	addiu	gp,gp,24928
  427588:	afbc0010 	sw	gp,16(sp)
  42758c:	3c1e0043 	lui	s8,0x43
  427590:	3c170043 	lui	s7,0x43
  427594:	00809021 	move	s2,a0
  427598:	27dee470 	addiu	s8,s8,-7056
  42759c:	00a08821 	move	s1,a1
  4275a0:	26f77f44 	addiu	s7,s7,32580
  4275a4:	00008021 	move	s0,zero
  4275a8:	241600ff 	li	s6,255
  4275ac:	2495ffff 	addiu	s5,a0,-1
  4275b0:	2414002c 	li	s4,44
  4275b4:	10000015 	b	42760c <libip6t_dst_init@@Base+0xf4>
  4275b8:	24130020 	li	s3,32
  4275bc:	96250000 	lhu	a1,0(s1)
  4275c0:	0320f809 	jalr	t9
  4275c4:	00052a02 	srl	a1,a1,0x8
  4275c8:	02e02021 	move	a0,s7
  4275cc:	8fbc0010 	lw	gp,16(sp)
  4275d0:	92250001 	lbu	a1,1(s1)
[31m  4275d4:	8f9983f4 	lw	t9,printf[0m
  4275d8:	10b60004 	beq	a1,s6,4275ec <libip6t_dst_init@@Base+0xd4>
  4275dc:	26310002 	addiu	s1,s1,2
  4275e0:	0320f809 	jalr	t9
  4275e4:	00000000 	nop
  4275e8:	8fbc0010 	lw	gp,16(sp)
  4275ec:	02152026 	xor	a0,s0,s5
  4275f0:	8f998414 	lw	t9,-31724(gp)
  4275f4:	26100001 	addiu	s0,s0,1
  4275f8:	02601021 	move	v0,s3
  4275fc:	0284100b 	0x284100b
  427600:	0320f809 	jalr	t9
  427604:	00402021 	move	a0,v0
  427608:	8fbc0010 	lw	gp,16(sp)
  42760c:	0212102b 	sltu	v0,s0,s2
[31m  427610:	8f9983f4 	lw	t9,printf[0m
  427614:	1440ffe9 	bnez	v0,4275bc <libip6t_dst_init@@Base+0xa4>
  427618:	03c02021 	move	a0,s8
--
  427634:	8fb30024 	lw	s3,36(sp)
  427638:	8fb20020 	lw	s2,32(sp)
  42763c:	8fb1001c 	lw	s1,28(sp)
  427640:	8fb00018 	lw	s0,24(sp)
  427644:	03e00008 	jr	ra
  427648:	27bd0040 	addiu	sp,sp,64
  42764c:	27bdffe0 	addiu	sp,sp,-32
  427650:	afbf001c 	sw	ra,28(sp)
  427654:	afb00018 	sw	s0,24(sp)
  427658:	3c1c0045 	lui	gp,0x45
  42765c:	279c6160 	addiu	gp,gp,24928
  427660:	afbc0010 	sw	gp,16(sp)
  427664:	24b00020 	addiu	s0,a1,32
  427668:	92030004 	lbu	v1,4(s0)
  42766c:	30630001 	andi	v1,v1,0x1
  427670:	1060000f 	beqz	v1,4276b0 <libip6t_dst_init@@Base+0x198>
  427674:	00a01021 	move	v0,a1
  427678:	92030005 	lbu	v1,5(s0)
  42767c:	30630001 	andi	v1,v1,0x1
  427680:	14600003 	bnez	v1,427690 <libip6t_dst_init@@Base+0x178>
  427684:	3c050043 	lui	a1,0x43
  427688:	10000003 	b	427698 <libip6t_dst_init@@Base+0x180>
  42768c:	24a53f34 	addiu	a1,a1,16180
  427690:	3c050043 	lui	a1,0x43
  427694:	24a5c8c4 	addiu	a1,a1,-14140
[31m  427698:	8f9983f4 	lw	t9,printf[0m
  42769c:	3c040043 	lui	a0,0x43
  4276a0:	8c460020 	lw	a2,32(v0)
  4276a4:	0320f809 	jalr	t9
  4276a8:	24847f48 	addiu	a0,a0,32584
  4276ac:	8fbc0010 	lw	gp,16(sp)
  4276b0:	92020004 	lbu	v0,4(s0)
  4276b4:	30420002 	andi	v0,v0,0x2
  4276b8:	10400004 	beqz	v0,4276cc <libip6t_dst_init@@Base+0x1b4>
  4276bc:	3c040043 	lui	a0,0x43
[31m  4276c0:	8f9983f4 	lw	t9,printf[0m
  4276c4:	0320f809 	jalr	t9
  4276c8:	24847f58 	addiu	a0,a0,32600
  4276cc:	92040026 	lbu	a0,38(s0)
  4276d0:	0c109d55 	jal	427554 <libip6t_dst_init@@Base+0x3c>
  4276d4:	26050006 	addiu	a1,s0,6
  4276d8:	92020004 	lbu	v0,4(s0)
  4276dc:	8fbc0010 	lw	gp,16(sp)
  4276e0:	30420004 	andi	v0,v0,0x4
  4276e4:	10400007 	beqz	v0,427704 <libip6t_dst_init@@Base+0x1ec>
  4276e8:	3c040043 	lui	a0,0x43
[31m  4276ec:	8f9983f4 	lw	t9,printf[0m
  4276f0:	8fbf001c 	lw	ra,28(sp)
  4276f4:	24847f64 	addiu	a0,a0,32612
  4276f8:	8fb00018 	lw	s0,24(sp)
  4276fc:	03200008 	jr	t9
  427700:	27bd0020 	addiu	sp,sp,32
  427704:	8fbf001c 	lw	ra,28(sp)
  427708:	8fb00018 	lw	s0,24(sp)
  42770c:	03e00008 	jr	ra
  427710:	27bd0020 	addiu	sp,sp,32
  427714:	27bdffd8 	addiu	sp,sp,-40
  427718:	afbf0024 	sw	ra,36(sp)
  42771c:	afb10020 	sw	s1,32(sp)
  427720:	afb0001c 	sw	s0,28(sp)
  427724:	3c1c0045 	lui	gp,0x45
  427728:	279c6160 	addiu	gp,gp,24928
  42772c:	afbc0010 	sw	gp,16(sp)
  427730:	3c040043 	lui	a0,0x43
[31m  427734:	8f9983f4 	lw	t9,printf[0m
  427738:	24b00020 	addiu	s0,a1,32
  42773c:	00a08821 	move	s1,a1
  427740:	0320f809 	jalr	t9
  427744:	2484ff78 	addiu	a0,a0,-136
  427748:	92020004 	lbu	v0,4(s0)
  42774c:	8fbc0010 	lw	gp,16(sp)
  427750:	30420001 	andi	v0,v0,0x1
  427754:	1040000f 	beqz	v0,427794 <libip6t_dst_init@@Base+0x27c>
  427758:	00000000 	nop
  42775c:	92020005 	lbu	v0,5(s0)
  427760:	30420001 	andi	v0,v0,0x1
  427764:	14400003 	bnez	v0,427774 <libip6t_dst_init@@Base+0x25c>
  427768:	3c050043 	lui	a1,0x43
  42776c:	10000003 	b	42777c <libip6t_dst_init@@Base+0x264>
  427770:	24a53f34 	addiu	a1,a1,16180
  427774:	3c050043 	lui	a1,0x43
  427778:	24a51db0 	addiu	a1,a1,7600
[31m  42777c:	8f9983f4 	lw	t9,printf[0m
  427780:	3c040043 	lui	a0,0x43
  427784:	8e260020 	lw	a2,32(s1)
  427788:	0320f809 	jalr	t9
  42778c:	24847f78 	addiu	a0,a0,32632
  427790:	8fbc0010 	lw	gp,16(sp)
  427794:	92020004 	lbu	v0,4(s0)
  427798:	30420002 	andi	v0,v0,0x2
  42779c:	10400004 	beqz	v0,4277b0 <libip6t_dst_init@@Base+0x298>
  4277a0:	3c040043 	lui	a0,0x43
[31m  4277a4:	8f9983f4 	lw	t9,printf[0m
  4277a8:	0320f809 	jalr	t9
  4277ac:	24847f88 	addiu	a0,a0,32648
  4277b0:	92040026 	lbu	a0,38(s0)
  4277b4:	0c109d55 	jal	427554 <libip6t_dst_init@@Base+0x3c>
  4277b8:	26050006 	addiu	a1,s0,6
  4277bc:	92020004 	lbu	v0,4(s0)
  4277c0:	8fbc0010 	lw	gp,16(sp)
  4277c4:	30420004 	andi	v0,v0,0x4
  4277c8:	10400005 	beqz	v0,4277e0 <libip6t_dst_init@@Base+0x2c8>
  4277cc:	3c040043 	lui	a0,0x43
[31m  4277d0:	8f9983f4 	lw	t9,printf[0m
  4277d4:	0320f809 	jalr	t9
  4277d8:	24847f90 	addiu	a0,a0,32656
  4277dc:	8fbc0010 	lw	gp,16(sp)
  4277e0:	92050005 	lbu	a1,5(s0)
  4277e4:	30a500fe 	andi	a1,a1,0xfe
  4277e8:	10a00008 	beqz	a1,42780c <libip6t_dst_init@@Base+0x2f4>
  4277ec:	3c040043 	lui	a0,0x43
[31m  4277f0:	8f9983f4 	lw	t9,printf[0m
  4277f4:	8fbf0024 	lw	ra,36(sp)
  4277f8:	24840efc 	addiu	a0,a0,3836
--
  427cb4:	03200008 	jr	t9
  427cb8:	00000000 	nop
  427cbc:	27bdffd8 	addiu	sp,sp,-40
  427cc0:	afbf0024 	sw	ra,36(sp)
  427cc4:	afb10020 	sw	s1,32(sp)
  427cc8:	afb0001c 	sw	s0,28(sp)
  427ccc:	3c1c0045 	lui	gp,0x45
  427cd0:	279c6160 	addiu	gp,gp,24928
  427cd4:	afbc0010 	sw	gp,16(sp)
  427cd8:	8ca20020 	lw	v0,32(a1)
  427cdc:	00a08821 	move	s1,a1
  427ce0:	14400005 	bnez	v0,427cf8 <libip6t_frag_init@@Base+0x58>
  427ce4:	24b00020 	addiu	s0,a1,32
  427ce8:	8e030004 	lw	v1,4(s0)
  427cec:	2402ffff 	li	v0,-1
  427cf0:	1062001c 	beq	v1,v0,427d64 <libip6t_frag_init@@Base+0xc4>
  427cf4:	00000000 	nop
  427cf8:	9202000d 	lbu	v0,13(s0)
  427cfc:	30420001 	andi	v0,v0,0x1
  427d00:	14400003 	bnez	v0,427d10 <libip6t_frag_init@@Base+0x70>
  427d04:	3c050043 	lui	a1,0x43
  427d08:	10000003 	b	427d18 <libip6t_frag_init@@Base+0x78>
  427d0c:	24a53f34 	addiu	a1,a1,16180
  427d10:	3c050043 	lui	a1,0x43
  427d14:	24a5c8c4 	addiu	a1,a1,-14140
[31m  427d18:	8f9983f4 	lw	t9,printf[0m
  427d1c:	3c040044 	lui	a0,0x44
  427d20:	0320f809 	jalr	t9
  427d24:	24848160 	addiu	a0,a0,-32416
  427d28:	8fbc0010 	lw	gp,16(sp)
  427d2c:	8e250020 	lw	a1,32(s1)
  427d30:	8e060004 	lw	a2,4(s0)
[31m  427d34:	8f9983f4 	lw	t9,printf[0m
  427d38:	10a60006 	beq	a1,a2,427d54 <libip6t_frag_init@@Base+0xb4>
  427d3c:	00000000 	nop
  427d40:	3c040043 	lui	a0,0x43
  427d44:	0320f809 	jalr	t9
  427d48:	24840704 	addiu	a0,a0,1796
  427d4c:	10000004 	b	427d60 <libip6t_frag_init@@Base+0xc0>
  427d50:	00000000 	nop
  427d54:	3c040043 	lui	a0,0x43
  427d58:	0320f809 	jalr	t9
  427d5c:	2484391c 	addiu	a0,a0,14620
  427d60:	8fbc0010 	lw	gp,16(sp)
  427d64:	9202000c 	lbu	v0,12(s0)
  427d68:	30420002 	andi	v0,v0,0x2
  427d6c:	1040000f 	beqz	v0,427dac <libip6t_frag_init@@Base+0x10c>
  427d70:	00000000 	nop
  427d74:	9202000d 	lbu	v0,13(s0)
  427d78:	30420002 	andi	v0,v0,0x2
  427d7c:	14400003 	bnez	v0,427d8c <libip6t_frag_init@@Base+0xec>
  427d80:	3c050043 	lui	a1,0x43
  427d84:	10000003 	b	427d94 <libip6t_frag_init@@Base+0xf4>
  427d88:	24a53f34 	addiu	a1,a1,16180
  427d8c:	3c050043 	lui	a1,0x43
  427d90:	24a5c8c4 	addiu	a1,a1,-14140
[31m  427d94:	8f9983f4 	lw	t9,printf[0m
  427d98:	3c040044 	lui	a0,0x44
  427d9c:	8e060008 	lw	a2,8(s0)
  427da0:	0320f809 	jalr	t9
  427da4:	2484816c 	addiu	a0,a0,-32404
  427da8:	8fbc0010 	lw	gp,16(sp)
  427dac:	9202000c 	lbu	v0,12(s0)
  427db0:	30420004 	andi	v0,v0,0x4
  427db4:	10400006 	beqz	v0,427dd0 <libip6t_frag_init@@Base+0x130>
  427db8:	00000000 	nop
[31m  427dbc:	8f9983f4 	lw	t9,printf[0m
  427dc0:	3c040044 	lui	a0,0x44
  427dc4:	0320f809 	jalr	t9
  427dc8:	2484817c 	addiu	a0,a0,-32388
  427dcc:	8fbc0010 	lw	gp,16(sp)
  427dd0:	9202000c 	lbu	v0,12(s0)
  427dd4:	30420008 	andi	v0,v0,0x8
  427dd8:	10400006 	beqz	v0,427df4 <libip6t_frag_init@@Base+0x154>
  427ddc:	00000000 	nop
[31m  427de0:	8f9983f4 	lw	t9,printf[0m
  427de4:	3c040044 	lui	a0,0x44
  427de8:	0320f809 	jalr	t9
  427dec:	24848188 	addiu	a0,a0,-32376
  427df0:	8fbc0010 	lw	gp,16(sp)
  427df4:	9202000c 	lbu	v0,12(s0)
  427df8:	30420010 	andi	v0,v0,0x10
  427dfc:	10400005 	beqz	v0,427e14 <libip6t_frag_init@@Base+0x174>
  427e00:	3c040044 	lui	a0,0x44
[31m  427e04:	8f9983f4 	lw	t9,printf[0m
  427e08:	0320f809 	jalr	t9
  427e0c:	24848198 	addiu	a0,a0,-32360
  427e10:	8fbc0010 	lw	gp,16(sp)
  427e14:	9202000c 	lbu	v0,12(s0)
  427e18:	30420020 	andi	v0,v0,0x20
  427e1c:	10400008 	beqz	v0,427e40 <libip6t_frag_init@@Base+0x1a0>
  427e20:	3c040044 	lui	a0,0x44
[31m  427e24:	8f9983f4 	lw	t9,printf[0m
  427e28:	8fbf0024 	lw	ra,36(sp)
  427e2c:	248481a4 	addiu	a0,a0,-32348
  427e30:	8fb10020 	lw	s1,32(sp)
  427e34:	8fb0001c 	lw	s0,28(sp)
  427e38:	03200008 	jr	t9
  427e3c:	27bd0028 	addiu	sp,sp,40
  427e40:	8fbf0024 	lw	ra,36(sp)
  427e44:	8fb10020 	lw	s1,32(sp)
  427e48:	8fb0001c 	lw	s0,28(sp)
  427e4c:	03e00008 	jr	ra
  427e50:	27bd0028 	addiu	sp,sp,40
  427e54:	27bdffd0 	addiu	sp,sp,-48
  427e58:	afbf002c 	sw	ra,44(sp)
  427e5c:	afb10028 	sw	s1,40(sp)
  427e60:	afb00024 	sw	s0,36(sp)
  427e64:	3c1c0045 	lui	gp,0x45
  427e68:	279c6160 	addiu	gp,gp,24928
  427e6c:	afbc0010 	sw	gp,16(sp)
  427e70:	3c040044 	lui	a0,0x44
[31m  427e74:	8f9983f4 	lw	t9,printf[0m
  427e78:	24b00020 	addiu	s0,a1,32
  427e7c:	afa50018 	sw	a1,24(sp)
  427e80:	0320f809 	jalr	t9
  427e84:	248481b0 	addiu	a0,a0,-32336
  427e88:	9202000d 	lbu	v0,13(s0)
  427e8c:	8fa50018 	lw	a1,24(sp)
  427e90:	30420001 	andi	v0,v0,0x1
  427e94:	8fbc0010 	lw	gp,16(sp)
  427e98:	8ca60020 	lw	a2,32(a1)
  427e9c:	8e070004 	lw	a3,4(s0)
  427ea0:	14400003 	bnez	v0,427eb0 <libip6t_frag_init@@Base+0x210>
  427ea4:	3c110043 	lui	s1,0x43
  427ea8:	10000003 	b	427eb8 <libip6t_frag_init@@Base+0x218>
  427eac:	26313f34 	addiu	s1,s1,16180
  427eb0:	3c110043 	lui	s1,0x43
  427eb4:	26311db0 	addiu	s1,s1,7600
  427eb8:	14c00005 	bnez	a2,427ed0 <libip6t_frag_init@@Base+0x230>
  427ebc:	2403ffff 	li	v1,-1
  427ec0:	14e30003 	bne	a3,v1,427ed0 <libip6t_frag_init@@Base+0x230>
  427ec4:	00000000 	nop
  427ec8:	10400018 	beqz	v0,427f2c <libip6t_frag_init@@Base+0x28c>
  427ecc:	00000000 	nop
[31m  427ed0:	8f9983f4 	lw	t9,printf[0m
  427ed4:	3c040044 	lui	a0,0x44
  427ed8:	3c050044 	lui	a1,0x44
  427edc:	24848b80 	addiu	a0,a0,-29824
  427ee0:	afa6001c 	sw	a2,28(sp)
  427ee4:	24a58444 	addiu	a1,a1,-31676
  427ee8:	0320f809 	jalr	t9
  427eec:	afa70018 	sw	a3,24(sp)
  427ef0:	8fbc0010 	lw	gp,16(sp)
  427ef4:	8fa6001c 	lw	a2,28(sp)
  427ef8:	8fa70018 	lw	a3,24(sp)
[31m  427efc:	8f9983f4 	lw	t9,printf[0m
  427f00:	14c70006 	bne	a2,a3,427f1c <libip6t_frag_init@@Base+0x27c>
  427f04:	02202821 	move	a1,s1
  427f08:	3c040044 	lui	a0,0x44
  427f0c:	0320f809 	jalr	t9
  427f10:	248481b8 	addiu	a0,a0,-32328
  427f14:	10000004 	b	427f28 <libip6t_frag_init@@Base+0x288>
  427f18:	00000000 	nop
  427f1c:	3c040044 	lui	a0,0x44
  427f20:	0320f809 	jalr	t9
  427f24:	248481c0 	addiu	a0,a0,-32320
  427f28:	8fbc0010 	lw	gp,16(sp)
  427f2c:	9202000c 	lbu	v0,12(s0)
  427f30:	30420002 	andi	v0,v0,0x2
  427f34:	1040000f 	beqz	v0,427f74 <libip6t_frag_init@@Base+0x2d4>
  427f38:	00000000 	nop
  427f3c:	9202000d 	lbu	v0,13(s0)
  427f40:	30420002 	andi	v0,v0,0x2
  427f44:	14400003 	bnez	v0,427f54 <libip6t_frag_init@@Base+0x2b4>
  427f48:	3c050043 	lui	a1,0x43
  427f4c:	10000003 	b	427f5c <libip6t_frag_init@@Base+0x2bc>
  427f50:	24a53f34 	addiu	a1,a1,16180
  427f54:	3c050043 	lui	a1,0x43
  427f58:	24a51db0 	addiu	a1,a1,7600
[31m  427f5c:	8f9983f4 	lw	t9,printf[0m
  427f60:	3c040043 	lui	a0,0x43
  427f64:	8e060008 	lw	a2,8(s0)
  427f68:	0320f809 	jalr	t9
  427f6c:	24847f78 	addiu	a0,a0,32632
  427f70:	8fbc0010 	lw	gp,16(sp)
  427f74:	9202000c 	lbu	v0,12(s0)
  427f78:	30420004 	andi	v0,v0,0x4
  427f7c:	10400006 	beqz	v0,427f98 <libip6t_frag_init@@Base+0x2f8>
  427f80:	00000000 	nop
[31m  427f84:	8f9983f4 	lw	t9,printf[0m
  427f88:	3c040043 	lui	a0,0x43
  427f8c:	0320f809 	jalr	t9
  427f90:	24847ce8 	addiu	a0,a0,31976
  427f94:	8fbc0010 	lw	gp,16(sp)
  427f98:	9202000c 	lbu	v0,12(s0)
  427f9c:	30420008 	andi	v0,v0,0x8
  427fa0:	10400006 	beqz	v0,427fbc <libip6t_frag_init@@Base+0x31c>
  427fa4:	00000000 	nop
[31m  427fa8:	8f9983f4 	lw	t9,printf[0m
  427fac:	3c040044 	lui	a0,0x44
  427fb0:	0320f809 	jalr	t9
  427fb4:	248481cc 	addiu	a0,a0,-32308
  427fb8:	8fbc0010 	lw	gp,16(sp)
  427fbc:	9202000c 	lbu	v0,12(s0)
  427fc0:	30420010 	andi	v0,v0,0x10
  427fc4:	10400006 	beqz	v0,427fe0 <libip6t_frag_init@@Base+0x340>
  427fc8:	00000000 	nop
[31m  427fcc:	8f9983f4 	lw	t9,printf[0m
  427fd0:	3c040044 	lui	a0,0x44
  427fd4:	0320f809 	jalr	t9
  427fd8:	248481d4 	addiu	a0,a0,-32300
  427fdc:	8fbc0010 	lw	gp,16(sp)
  427fe0:	9202000c 	lbu	v0,12(s0)
  427fe4:	30420020 	andi	v0,v0,0x20
  427fe8:	10400005 	beqz	v0,428000 <libip6t_frag_init@@Base+0x360>
  427fec:	3c040044 	lui	a0,0x44
[31m  427ff0:	8f9983f4 	lw	t9,printf[0m
  427ff4:	0320f809 	jalr	t9
  427ff8:	248481dc 	addiu	a0,a0,-32292
  427ffc:	8fbc0010 	lw	gp,16(sp)
  428000:	9205000d 	lbu	a1,13(s0)
  428004:	30a500fc 	andi	a1,a1,0xfc
  428008:	10a00008 	beqz	a1,42802c <libip6t_frag_init@@Base+0x38c>
  42800c:	3c040043 	lui	a0,0x43
[31m  428010:	8f9983f4 	lw	t9,printf[0m
  428014:	8fbf002c 	lw	ra,44(sp)
  428018:	24840efc 	addiu	a0,a0,3836
--
  428448:	3c040044 	lui	a0,0x44
  42844c:	279c6160 	addiu	gp,gp,24928
  428450:	248482cc 	addiu	a0,a0,-32052
  428454:	8f998370 	lw	t9,-31888(gp)
  428458:	03200008 	jr	t9
  42845c:	00000000 	nop
  428460:	24820020 	addiu	v0,a0,32
  428464:	ac800020 	sw	zero,32(a0)
  428468:	a0400026 	sb	zero,38(v0)
  42846c:	a0400004 	sb	zero,4(v0)
  428470:	03e00008 	jr	ra
  428474:	a0400005 	sb	zero,5(v0)

00428478 <libip6t_hbh_init@@Base>:
  428478:	3c1c0045 	lui	gp,0x45
  42847c:	3c040045 	lui	a0,0x45
  428480:	279c6160 	addiu	gp,gp,24928
  428484:	2484de90 	addiu	a0,a0,-8560
  428488:	8f998148 	lw	t9,-32440(gp)
  42848c:	03200008 	jr	t9
  428490:	00000000 	nop
  428494:	3c1c0045 	lui	gp,0x45
  428498:	3c040044 	lui	a0,0x44
  42849c:	279c6160 	addiu	gp,gp,24928
  4284a0:	24050010 	li	a1,16
[31m  4284a4:	8f9983f4 	lw	t9,printf[0m
  4284a8:	248484a0 	addiu	a0,a0,-31584
  4284ac:	03200008 	jr	t9
--
  4284d0:	afb30024 	sw	s3,36(sp)
  4284d4:	afb20020 	sw	s2,32(sp)
  4284d8:	afb1001c 	sw	s1,28(sp)
  4284dc:	afb00018 	sw	s0,24(sp)
  4284e0:	3c1c0045 	lui	gp,0x45
  4284e4:	279c6160 	addiu	gp,gp,24928
  4284e8:	afbc0010 	sw	gp,16(sp)
  4284ec:	3c1e0043 	lui	s8,0x43
  4284f0:	3c170043 	lui	s7,0x43
  4284f4:	00809021 	move	s2,a0
  4284f8:	27dee470 	addiu	s8,s8,-7056
  4284fc:	00a08821 	move	s1,a1
  428500:	26f77f44 	addiu	s7,s7,32580
  428504:	00008021 	move	s0,zero
  428508:	241600ff 	li	s6,255
  42850c:	2495ffff 	addiu	s5,a0,-1
  428510:	2414002c 	li	s4,44
  428514:	10000015 	b	42856c <libip6t_hbh_init@@Base+0xf4>
  428518:	24130020 	li	s3,32
  42851c:	96250000 	lhu	a1,0(s1)
  428520:	0320f809 	jalr	t9
  428524:	00052a02 	srl	a1,a1,0x8
  428528:	02e02021 	move	a0,s7
  42852c:	8fbc0010 	lw	gp,16(sp)
  428530:	92250001 	lbu	a1,1(s1)
[31m  428534:	8f9983f4 	lw	t9,printf[0m
  428538:	10b60004 	beq	a1,s6,42854c <libip6t_hbh_init@@Base+0xd4>
  42853c:	26310002 	addiu	s1,s1,2
  428540:	0320f809 	jalr	t9
  428544:	00000000 	nop
  428548:	8fbc0010 	lw	gp,16(sp)
  42854c:	02152026 	xor	a0,s0,s5
  428550:	8f998414 	lw	t9,-31724(gp)
  428554:	26100001 	addiu	s0,s0,1
  428558:	02601021 	move	v0,s3
  42855c:	0284100b 	0x284100b
  428560:	0320f809 	jalr	t9
  428564:	00402021 	move	a0,v0
  428568:	8fbc0010 	lw	gp,16(sp)
  42856c:	0212102b 	sltu	v0,s0,s2
[31m  428570:	8f9983f4 	lw	t9,printf[0m
  428574:	1440ffe9 	bnez	v0,42851c <libip6t_hbh_init@@Base+0xa4>
  428578:	03c02021 	move	a0,s8
--
  428594:	8fb30024 	lw	s3,36(sp)
  428598:	8fb20020 	lw	s2,32(sp)
  42859c:	8fb1001c 	lw	s1,28(sp)
  4285a0:	8fb00018 	lw	s0,24(sp)
  4285a4:	03e00008 	jr	ra
  4285a8:	27bd0040 	addiu	sp,sp,64
  4285ac:	27bdffe0 	addiu	sp,sp,-32
  4285b0:	afbf001c 	sw	ra,28(sp)
  4285b4:	afb00018 	sw	s0,24(sp)
  4285b8:	3c1c0045 	lui	gp,0x45
  4285bc:	279c6160 	addiu	gp,gp,24928
  4285c0:	afbc0010 	sw	gp,16(sp)
  4285c4:	24b00020 	addiu	s0,a1,32
  4285c8:	92030004 	lbu	v1,4(s0)
  4285cc:	30630001 	andi	v1,v1,0x1
  4285d0:	1060000f 	beqz	v1,428610 <libip6t_hbh_init@@Base+0x198>
  4285d4:	00a01021 	move	v0,a1
  4285d8:	92030005 	lbu	v1,5(s0)
  4285dc:	30630001 	andi	v1,v1,0x1
  4285e0:	14600003 	bnez	v1,4285f0 <libip6t_hbh_init@@Base+0x178>
  4285e4:	3c050043 	lui	a1,0x43
  4285e8:	10000003 	b	4285f8 <libip6t_hbh_init@@Base+0x180>
  4285ec:	24a53f34 	addiu	a1,a1,16180
  4285f0:	3c050043 	lui	a1,0x43
  4285f4:	24a5c8c4 	addiu	a1,a1,-14140
[31m  4285f8:	8f9983f4 	lw	t9,printf[0m
  4285fc:	3c040044 	lui	a0,0x44
  428600:	8c460020 	lw	a2,32(v0)
  428604:	0320f809 	jalr	t9
  428608:	24848560 	addiu	a0,a0,-31392
  42860c:	8fbc0010 	lw	gp,16(sp)
  428610:	92020004 	lbu	v0,4(s0)
  428614:	30420002 	andi	v0,v0,0x2
  428618:	10400004 	beqz	v0,42862c <libip6t_hbh_init@@Base+0x1b4>
  42861c:	3c040044 	lui	a0,0x44
[31m  428620:	8f9983f4 	lw	t9,printf[0m
  428624:	0320f809 	jalr	t9
  428628:	24848570 	addiu	a0,a0,-31376
  42862c:	92040026 	lbu	a0,38(s0)
  428630:	0c10a12d 	jal	4284b4 <libip6t_hbh_init@@Base+0x3c>
  428634:	26050006 	addiu	a1,s0,6
  428638:	92020004 	lbu	v0,4(s0)
  42863c:	8fbc0010 	lw	gp,16(sp)
  428640:	30420004 	andi	v0,v0,0x4
  428644:	10400007 	beqz	v0,428664 <libip6t_hbh_init@@Base+0x1ec>
  428648:	3c040044 	lui	a0,0x44
[31m  42864c:	8f9983f4 	lw	t9,printf[0m
  428650:	8fbf001c 	lw	ra,28(sp)
  428654:	2484857c 	addiu	a0,a0,-31364
  428658:	8fb00018 	lw	s0,24(sp)
  42865c:	03200008 	jr	t9
  428660:	27bd0020 	addiu	sp,sp,32
  428664:	8fbf001c 	lw	ra,28(sp)
  428668:	8fb00018 	lw	s0,24(sp)
  42866c:	03e00008 	jr	ra
  428670:	27bd0020 	addiu	sp,sp,32
  428674:	27bdffd8 	addiu	sp,sp,-40
  428678:	afbf0024 	sw	ra,36(sp)
  42867c:	afb10020 	sw	s1,32(sp)
  428680:	afb0001c 	sw	s0,28(sp)
  428684:	3c1c0045 	lui	gp,0x45
  428688:	279c6160 	addiu	gp,gp,24928
  42868c:	afbc0010 	sw	gp,16(sp)
  428690:	3c040044 	lui	a0,0x44
[31m  428694:	8f9983f4 	lw	t9,printf[0m
  428698:	24b00020 	addiu	s0,a1,32
  42869c:	00a08821 	move	s1,a1
  4286a0:	0320f809 	jalr	t9
  4286a4:	24848590 	addiu	a0,a0,-31344
  4286a8:	92020004 	lbu	v0,4(s0)
  4286ac:	8fbc0010 	lw	gp,16(sp)
  4286b0:	30420001 	andi	v0,v0,0x1
  4286b4:	1040001d 	beqz	v0,42872c <libip6t_hbh_init@@Base+0x2b4>
  4286b8:	00000000 	nop
[31m  4286bc:	8f9983f4 	lw	t9,printf[0m
  4286c0:	3c040044 	lui	a0,0x44
  4286c4:	0320f809 	jalr	t9
  4286c8:	2484804c 	addiu	a0,a0,-32692
  4286cc:	92020005 	lbu	v0,5(s0)
  4286d0:	8fbc0010 	lw	gp,16(sp)
  4286d4:	30420001 	andi	v0,v0,0x1
  4286d8:	14400003 	bnez	v0,4286e8 <libip6t_hbh_init@@Base+0x270>
  4286dc:	3c050043 	lui	a1,0x43
  4286e0:	10000003 	b	4286f0 <libip6t_hbh_init@@Base+0x278>
  4286e4:	24a53f34 	addiu	a1,a1,16180
  4286e8:	3c050043 	lui	a1,0x43
  4286ec:	24a51db0 	addiu	a1,a1,7600
[31m  4286f0:	8f9983f4 	lw	t9,printf[0m
  4286f4:	3c040043 	lui	a0,0x43
  4286f8:	0320f809 	jalr	t9
  4286fc:	24840744 	addiu	a0,a0,1860
  428700:	3c040043 	lui	a0,0x43
  428704:	8fbc0010 	lw	gp,16(sp)
  428708:	8e250020 	lw	a1,32(s1)
[31m  42870c:	8f9983f4 	lw	t9,printf[0m
  428710:	0320f809 	jalr	t9
  428714:	24842d78 	addiu	a0,a0,11640
  428718:	8fbc0010 	lw	gp,16(sp)
  42871c:	8f998414 	lw	t9,-31724(gp)
  428720:	0320f809 	jalr	t9
  428724:	24040020 	li	a0,32
  428728:	8fbc0010 	lw	gp,16(sp)
  42872c:	92020004 	lbu	v0,4(s0)
  428730:	30420002 	andi	v0,v0,0x2
  428734:	10400004 	beqz	v0,428748 <libip6t_hbh_init@@Base+0x2d0>
  428738:	3c040043 	lui	a0,0x43
[31m  42873c:	8f9983f4 	lw	t9,printf[0m
  428740:	0320f809 	jalr	t9
  428744:	24847f88 	addiu	a0,a0,32648
  428748:	92040026 	lbu	a0,38(s0)
  42874c:	0c10a12d 	jal	4284b4 <libip6t_hbh_init@@Base+0x3c>
  428750:	26050006 	addiu	a1,s0,6
  428754:	92020004 	lbu	v0,4(s0)
  428758:	8fbc0010 	lw	gp,16(sp)
  42875c:	30420004 	andi	v0,v0,0x4
  428760:	10400005 	beqz	v0,428778 <libip6t_hbh_init@@Base+0x300>
  428764:	3c040043 	lui	a0,0x43
[31m  428768:	8f9983f4 	lw	t9,printf[0m
  42876c:	0320f809 	jalr	t9
  428770:	24847f90 	addiu	a0,a0,32656
  428774:	8fbc0010 	lw	gp,16(sp)
  428778:	92050005 	lbu	a1,5(s0)
  42877c:	30a500fe 	andi	a1,a1,0xfe
  428780:	10a00008 	beqz	a1,4287a4 <libip6t_hbh_init@@Base+0x32c>
  428784:	3c040043 	lui	a0,0x43
[31m  428788:	8f9983f4 	lw	t9,printf[0m
  42878c:	8fbf0024 	lw	ra,36(sp)
  428790:	24840efc 	addiu	a0,a0,3836
--
  428c08:	8c590014 	lw	t9,20(v0)
  428c0c:	0320f809 	jalr	t9
  428c10:	24040002 	li	a0,2
  428c14:	8fbf001c 	lw	ra,28(sp)
  428c18:	03e00008 	jr	ra
  428c1c:	27bd0020 	addiu	sp,sp,32

00428c20 <libip6t_hl_init@@Base>:
  428c20:	3c1c0045 	lui	gp,0x45
  428c24:	3c040045 	lui	a0,0x45
  428c28:	279c6160 	addiu	gp,gp,24928
  428c2c:	2484dee0 	addiu	a0,a0,-8480
  428c30:	8f998148 	lw	t9,-32440(gp)
  428c34:	03200008 	jr	t9
  428c38:	00000000 	nop
  428c3c:	90a30020 	lbu	v1,32(a1)
  428c40:	3c020045 	lui	v0,0x45
  428c44:	3c1c0045 	lui	gp,0x45
  428c48:	2442b880 	addiu	v0,v0,-18304
  428c4c:	00031880 	sll	v1,v1,0x2
  428c50:	279c6160 	addiu	gp,gp,24928
  428c54:	3c040044 	lui	a0,0x44
  428c58:	00621021 	addu	v0,v1,v0
  428c5c:	24848720 	addiu	a0,a0,-30944
  428c60:	90a60021 	lbu	a2,33(a1)
[31m  428c64:	8f9983f4 	lw	t9,printf[0m
  428c68:	8c450000 	lw	a1,0(v0)
  428c6c:	03200008 	jr	t9
  428c70:	00000000 	nop
  428c74:	90a30020 	lbu	v1,32(a1)
  428c78:	3c020045 	lui	v0,0x45
  428c7c:	3c1c0045 	lui	gp,0x45
  428c80:	2442b890 	addiu	v0,v0,-18288
  428c84:	00031880 	sll	v1,v1,0x2
  428c88:	279c6160 	addiu	gp,gp,24928
  428c8c:	3c040044 	lui	a0,0x44
  428c90:	00621021 	addu	v0,v1,v0
  428c94:	24848714 	addiu	a0,a0,-30956
  428c98:	90a60021 	lbu	a2,33(a1)
[31m  428c9c:	8f9983f4 	lw	t9,printf[0m
  428ca0:	8c450000 	lw	a1,0(v0)
  428ca4:	03200008 	jr	t9
--
00428e64 <libip6t_HL_init@@Base>:
  428e64:	3c1c0045 	lui	gp,0x45
  428e68:	3c040045 	lui	a0,0x45
  428e6c:	279c6160 	addiu	gp,gp,24928
  428e70:	2484df30 	addiu	a0,a0,-8400
  428e74:	8f9980c0 	lw	t9,-32576(gp)
  428e78:	03200008 	jr	t9
  428e7c:	00000000 	nop
  428e80:	27bdffe0 	addiu	sp,sp,-32
  428e84:	afbf001c 	sw	ra,28(sp)
  428e88:	afb00018 	sw	s0,24(sp)
  428e8c:	3c1c0045 	lui	gp,0x45
  428e90:	279c6160 	addiu	gp,gp,24928
  428e94:	afbc0010 	sw	gp,16(sp)
  428e98:	24030001 	li	v1,1
  428e9c:	90a20020 	lbu	v0,32(a1)
  428ea0:	1043000e 	beq	v0,v1,428edc <libip6t_HL_init@@Base+0x78>
  428ea4:	24b00020 	addiu	s0,a1,32
  428ea8:	10400006 	beqz	v0,428ec4 <libip6t_HL_init@@Base+0x60>
  428eac:	3c040044 	lui	a0,0x44
  428eb0:	24030002 	li	v1,2
  428eb4:	1443000f 	bne	v0,v1,428ef4 <libip6t_HL_init@@Base+0x90>
  428eb8:	3c040044 	lui	a0,0x44
  428ebc:	10000004 	b	428ed0 <libip6t_HL_init@@Base+0x6c>
  428ec0:	00000000 	nop
[31m  428ec4:	8f9983f4 	lw	t9,printf[0m
  428ec8:	10000007 	b	428ee8 <libip6t_HL_init@@Base+0x84>
  428ecc:	2484885c 	addiu	a0,a0,-30628
[31m  428ed0:	8f9983f4 	lw	t9,printf[0m
  428ed4:	10000004 	b	428ee8 <libip6t_HL_init@@Base+0x84>
  428ed8:	24848868 	addiu	a0,a0,-30616
  428edc:	3c040044 	lui	a0,0x44
[31m  428ee0:	8f9983f4 	lw	t9,printf[0m
  428ee4:	24848874 	addiu	a0,a0,-30604
  428ee8:	0320f809 	jalr	t9
  428eec:	00000000 	nop
  428ef0:	8fbc0010 	lw	gp,16(sp)
  428ef4:	92050001 	lbu	a1,1(s0)
  428ef8:	3c040043 	lui	a0,0x43
[31m  428efc:	8f9983f4 	lw	t9,printf[0m
  428f00:	2484391c 	addiu	a0,a0,14620
  428f04:	8fbf001c 	lw	ra,28(sp)
  428f08:	8fb00018 	lw	s0,24(sp)
  428f0c:	03200008 	jr	t9
  428f10:	27bd0020 	addiu	sp,sp,32
  428f14:	27bdffd8 	addiu	sp,sp,-40
  428f18:	afbf0024 	sw	ra,36(sp)
  428f1c:	afb00020 	sw	s0,32(sp)
  428f20:	3c1c0045 	lui	gp,0x45
  428f24:	279c6160 	addiu	gp,gp,24928
  428f28:	afbc0010 	sw	gp,16(sp)
  428f2c:	3c040044 	lui	a0,0x44
[31m  428f30:	8f9983f4 	lw	t9,printf[0m
  428f34:	24848880 	addiu	a0,a0,-30592
  428f38:	afa50018 	sw	a1,24(sp)
  428f3c:	0320f809 	jalr	t9
  428f40:	24b00020 	addiu	s0,a1,32
  428f44:	24030001 	li	v1,1
  428f48:	8fa50018 	lw	a1,24(sp)
  428f4c:	8fbc0010 	lw	gp,16(sp)
  428f50:	90a20020 	lbu	v0,32(a1)
  428f54:	1043000e 	beq	v0,v1,428f90 <libip6t_HL_init@@Base+0x12c>
  428f58:	3c040044 	lui	a0,0x44
  428f5c:	10400006 	beqz	v0,428f78 <libip6t_HL_init@@Base+0x114>
  428f60:	3c040044 	lui	a0,0x44
  428f64:	24030002 	li	v1,2
  428f68:	1443000e 	bne	v0,v1,428fa4 <libip6t_HL_init@@Base+0x140>
  428f6c:	3c040044 	lui	a0,0x44
  428f70:	10000004 	b	428f84 <libip6t_HL_init@@Base+0x120>
  428f74:	00000000 	nop
[31m  428f78:	8f9983f4 	lw	t9,printf[0m
  428f7c:	10000006 	b	428f98 <libip6t_HL_init@@Base+0x134>
  428f80:	24848884 	addiu	a0,a0,-30588
[31m  428f84:	8f9983f4 	lw	t9,printf[0m
  428f88:	10000003 	b	428f98 <libip6t_HL_init@@Base+0x134>
  428f8c:	2484888c 	addiu	a0,a0,-30580
[31m  428f90:	8f9983f4 	lw	t9,printf[0m
  428f94:	2484889c 	addiu	a0,a0,-30564
  428f98:	0320f809 	jalr	t9
  428f9c:	00000000 	nop
  428fa0:	8fbc0010 	lw	gp,16(sp)
  428fa4:	92050001 	lbu	a1,1(s0)
  428fa8:	3c040043 	lui	a0,0x43
[31m  428fac:	8f9983f4 	lw	t9,printf[0m
  428fb0:	2484391c 	addiu	a0,a0,14620
  428fb4:	8fbf0024 	lw	ra,36(sp)
--
  429188:	0320f809 	jalr	t9
  42918c:	24040002 	li	a0,2
  429190:	8fbf001c 	lw	ra,28(sp)
  429194:	03e00008 	jr	ra
  429198:	27bd0020 	addiu	sp,sp,32

0042919c <libip6t_icmp6_init@@Base>:
  42919c:	3c1c0045 	lui	gp,0x45
  4291a0:	3c040045 	lui	a0,0x45
  4291a4:	279c6160 	addiu	gp,gp,24928
  4291a8:	2484df80 	addiu	a0,a0,-8320
  4291ac:	8f998148 	lw	t9,-32440(gp)
  4291b0:	03200008 	jr	t9
  4291b4:	00000000 	nop
  4291b8:	27bdffd8 	addiu	sp,sp,-40
  4291bc:	afbf0024 	sw	ra,36(sp)
  4291c0:	afb00020 	sw	s0,32(sp)
  4291c4:	3c1c0045 	lui	gp,0x45
  4291c8:	279c6160 	addiu	gp,gp,24928
  4291cc:	afbc0010 	sw	gp,16(sp)
  4291d0:	24b00020 	addiu	s0,a1,32
  4291d4:	92020003 	lbu	v0,3(s0)
  4291d8:	30420001 	andi	v0,v0,0x1
  4291dc:	10400008 	beqz	v0,429200 <libip6t_icmp6_init@@Base+0x64>
  4291e0:	00000000 	nop
[31m  4291e4:	8f9983f4 	lw	t9,printf[0m
  4291e8:	3c040043 	lui	a0,0x43
  4291ec:	afa50018 	sw	a1,24(sp)
  4291f0:	0320f809 	jalr	t9
  4291f4:	2484c8c4 	addiu	a0,a0,-14140
  4291f8:	8fbc0010 	lw	gp,16(sp)
  4291fc:	8fa50018 	lw	a1,24(sp)
[31m  429200:	8f9983f4 	lw	t9,printf[0m
  429204:	3c040044 	lui	a0,0x44
  429208:	90a50020 	lbu	a1,32(a1)
  42920c:	0320f809 	jalr	t9
  429210:	24848a20 	addiu	a0,a0,-30176
  429214:	92050001 	lbu	a1,1(s0)
  429218:	8fbc0010 	lw	gp,16(sp)
  42921c:	14a00004 	bnez	a1,429230 <libip6t_icmp6_init@@Base+0x94>
  429220:	240200ff 	li	v0,255
  429224:	92030002 	lbu	v1,2(s0)
  429228:	10620006 	beq	v1,v0,429244 <libip6t_icmp6_init@@Base+0xa8>
  42922c:	00000000 	nop
[31m  429230:	8f9983f4 	lw	t9,printf[0m
  429234:	3c040044 	lui	a0,0x44
  429238:	0320f809 	jalr	t9
  42923c:	24848a34 	addiu	a0,a0,-30156
  429240:	8fbc0010 	lw	gp,16(sp)
  429244:	8f998414 	lw	t9,-31724(gp)
  429248:	24040020 	li	a0,32
  42924c:	8fbf0024 	lw	ra,36(sp)
  429250:	8fb00020 	lw	s0,32(sp)
  429254:	03200008 	jr	t9
  429258:	27bd0028 	addiu	sp,sp,40
  42925c:	27bdffd0 	addiu	sp,sp,-48
  429260:	afbf002c 	sw	ra,44(sp)
  429264:	afb20028 	sw	s2,40(sp)
  429268:	afb10024 	sw	s1,36(sp)
  42926c:	afb00020 	sw	s0,32(sp)
  429270:	3c1c0045 	lui	gp,0x45
  429274:	279c6160 	addiu	gp,gp,24928
  429278:	afbc0010 	sw	gp,16(sp)
  42927c:	3c040044 	lui	a0,0x44
[31m  429280:	8f9983f4 	lw	t9,printf[0m
  429284:	24b00020 	addiu	s0,a1,32
  429288:	afa5001c 	sw	a1,28(sp)
--
  4292d4:	00000000 	nop
  4292d8:	90870001 	lbu	a3,1(a0)
  4292dc:	14f10009 	bne	a3,s1,429304 <libip6t_icmp6_init@@Base+0x168>
  4292e0:	00000000 	nop
  4292e4:	90870002 	lbu	a3,2(a0)
  4292e8:	14f20007 	bne	a3,s2,429308 <libip6t_icmp6_init@@Base+0x16c>
  4292ec:	24630001 	addiu	v1,v1,1
  4292f0:	14400009 	bnez	v0,429318 <libip6t_icmp6_init@@Base+0x17c>
  4292f4:	2463ffff 	addiu	v1,v1,-1
  4292f8:	3c050043 	lui	a1,0x43
  4292fc:	10000008 	b	429320 <libip6t_icmp6_init@@Base+0x184>
  429300:	24a53f34 	addiu	a1,a1,16180
  429304:	24630001 	addiu	v1,v1,1
  429308:	1466fff0 	bne	v1,a2,4292cc <libip6t_icmp6_init@@Base+0x130>
  42930c:	24840008 	addiu	a0,a0,8
  429310:	1000000c 	b	429344 <libip6t_icmp6_init@@Base+0x1a8>
  429314:	00000000 	nop
  429318:	3c050043 	lui	a1,0x43
  42931c:	24a51db0 	addiu	a1,a1,7600
  429320:	3c020045 	lui	v0,0x45
  429324:	000318c0 	sll	v1,v1,0x3
  429328:	3c040043 	lui	a0,0x43
  42932c:	2442b930 	addiu	v0,v0,-18128
  429330:	00621021 	addu	v0,v1,v0
  429334:	8c460000 	lw	a2,0(v0)
[31m  429338:	8f9983f4 	lw	t9,printf[0m
  42933c:	10000022 	b	4293c8 <libip6t_icmp6_init@@Base+0x22c>
  429340:	24847068 	addiu	a0,a0,28776
  429344:	10400007 	beqz	v0,429364 <libip6t_icmp6_init@@Base+0x1c8>
  429348:	00000000 	nop
  42934c:	8f998414 	lw	t9,-31724(gp)
  429350:	24040021 	li	a0,33
  429354:	0320f809 	jalr	t9
  429358:	afa5001c 	sw	a1,28(sp)
  42935c:	8fbc0010 	lw	gp,16(sp)
  429360:	8fa5001c 	lw	a1,28(sp)
[31m  429364:	8f9983f4 	lw	t9,printf[0m
  429368:	3c040044 	lui	a0,0x44
  42936c:	0320f809 	jalr	t9
  429370:	24848a44 	addiu	a0,a0,-30140
  429374:	8fbc0010 	lw	gp,16(sp)
  429378:	16200008 	bnez	s1,42939c <libip6t_icmp6_init@@Base+0x200>
  42937c:	240200ff 	li	v0,255
  429380:	16420006 	bne	s2,v0,42939c <libip6t_icmp6_init@@Base+0x200>
  429384:	00000000 	nop
  429388:	8f998414 	lw	t9,-31724(gp)
  42938c:	0320f809 	jalr	t9
  429390:	24040020 	li	a0,32
  429394:	1000000e 	b	4293d0 <libip6t_icmp6_init@@Base+0x234>
  429398:	00000000 	nop
[31m  42939c:	8f9983f4 	lw	t9,printf[0m
  4293a0:	16320006 	bne	s1,s2,4293bc <libip6t_icmp6_init@@Base+0x220>
  4293a4:	02202821 	move	a1,s1
  4293a8:	3c040044 	lui	a0,0x44
  4293ac:	0320f809 	jalr	t9
  4293b0:	24848a4c 	addiu	a0,a0,-30132
  4293b4:	10000006 	b	4293d0 <libip6t_icmp6_init@@Base+0x234>
  4293b8:	00000000 	nop
  4293bc:	3c040044 	lui	a0,0x44
  4293c0:	24848a58 	addiu	a0,a0,-30120
  4293c4:	02403021 	move	a2,s2
  4293c8:	0320f809 	jalr	t9
  4293cc:	00000000 	nop
  4293d0:	92050003 	lbu	a1,3(s0)
  4293d4:	8fbc0010 	lw	gp,16(sp)
  4293d8:	30a500fe 	andi	a1,a1,0xfe
  4293dc:	10a00009 	beqz	a1,429404 <libip6t_icmp6_init@@Base+0x268>
  4293e0:	3c040043 	lui	a0,0x43
[31m  4293e4:	8f9983f4 	lw	t9,printf[0m
  4293e8:	8fbf002c 	lw	ra,44(sp)
  4293ec:	24840efc 	addiu	a0,a0,3836
--
  429754:	8fb0001c 	lw	s0,28(sp)
  429758:	03e00008 	jr	ra
  42975c:	27bd0030 	addiu	sp,sp,48
  429760:	27bdffc8 	addiu	sp,sp,-56
  429764:	afbf0034 	sw	ra,52(sp)
  429768:	afb50030 	sw	s5,48(sp)
  42976c:	afb4002c 	sw	s4,44(sp)
  429770:	afb30028 	sw	s3,40(sp)
  429774:	afb20024 	sw	s2,36(sp)
  429778:	afb10020 	sw	s1,32(sp)
  42977c:	afb0001c 	sw	s0,28(sp)
  429780:	3c1c0045 	lui	gp,0x45
  429784:	279c6160 	addiu	gp,gp,24928
  429788:	afbc0010 	sw	gp,16(sp)
  42978c:	3c040044 	lui	a0,0x44
  429790:	8f998370 	lw	t9,-31888(gp)
  429794:	24848af8 	addiu	a0,a0,-29960
  429798:	3c100045 	lui	s0,0x45
  42979c:	0320f809 	jalr	t9
  4297a0:	3c140044 	lui	s4,0x44
  4297a4:	3c040044 	lui	a0,0x44
  4297a8:	8fbc0010 	lw	gp,16(sp)
  4297ac:	24848b60 	addiu	a0,a0,-29856
  4297b0:	3c130044 	lui	s3,0x44
  4297b4:	3c120044 	lui	s2,0x44
[31m  4297b8:	8f9983f4 	lw	t9,printf[0m
  4297bc:	00008821 	move	s1,zero
  4297c0:	24150019 	li	s5,25
  4297c4:	0320f809 	jalr	t9
  4297c8:	2610b930 	addiu	s0,s0,-18128
  4297cc:	26948b84 	addiu	s4,s4,-29820
  4297d0:	8fbc0010 	lw	gp,16(sp)
  4297d4:	26738b7c 	addiu	s3,s3,-29828
  4297d8:	26528b74 	addiu	s2,s2,-29836
[31m  4297dc:	8f9983f4 	lw	t9,printf[0m
  4297e0:	1220000e 	beqz	s1,42981c <libip6t_icmp6_init@@Base+0x680>
  4297e4:	02802021 	move	a0,s4
--
  429964:	2404002c 	li	a0,44
  429968:	8fbc0010 	lw	gp,16(sp)
  42996c:	001ef040 	sll	s8,s8,0x1
  429970:	03d6f021 	addu	s8,s8,s6
  429974:	93de0000 	lbu	s8,0(s8)
  429978:	13c00007 	beqz	s8,429998 <libip6t_ipv6header_init@@Base+0xe4>
  42997c:	02a01821 	move	v1,s5
  429980:	8f9983ac 	lw	t9,-31828(gp)
  429984:	0320f809 	jalr	t9
  429988:	03c02021 	move	a0,s8
  42998c:	8fbc0010 	lw	gp,16(sp)
  429990:	14400007 	bnez	v0,4299b0 <libip6t_ipv6header_init@@Base+0xfc>
  429994:	02a01821 	move	v1,s5
  429998:	00001021 	move	v0,zero
  42999c:	90640000 	lbu	a0,0(v1)
  4299a0:	149e0006 	bne	a0,s8,4299bc <libip6t_ipv6header_init@@Base+0x108>
  4299a4:	24630008 	addiu	v1,v1,8
  4299a8:	000210c0 	sll	v0,v0,0x3
  4299ac:	00541021 	addu	v0,v0,s4
  4299b0:	8c450000 	lw	a1,0(v0)
  4299b4:	10000004 	b	4299c8 <libip6t_ipv6header_init@@Base+0x114>
  4299b8:	00000000 	nop
  4299bc:	24420001 	addiu	v0,v0,1
  4299c0:	1452fff6 	bne	v0,s2,42999c <libip6t_ipv6header_init@@Base+0xe8>
  4299c4:	00002821 	move	a1,zero
[31m  4299c8:	8f9983f4 	lw	t9,printf[0m
  4299cc:	02602021 	move	a0,s3
  4299d0:	0320f809 	jalr	t9
  4299d4:	00118827 	nor	s1,zero,s1
  4299d8:	02308024 	and	s0,s1,s0
  4299dc:	24020001 	li	v0,1
  4299e0:	8fbc0010 	lw	gp,16(sp)
  4299e4:	12000003 	beqz	s0,4299f4 <libip6t_ipv6header_init@@Base+0x140>
  4299e8:	02e01821 	move	v1,s7
  4299ec:	1000ffd5 	b	429944 <libip6t_ipv6header_init@@Base+0x90>
  4299f0:	0000f021 	move	s8,zero
  4299f4:	1440000f 	bnez	v0,429a34 <libip6t_ipv6header_init@@Base+0x180>
  4299f8:	3c040043 	lui	a0,0x43
[31m  4299fc:	8f9983f4 	lw	t9,printf[0m
  429a00:	8fbf003c 	lw	ra,60(sp)
  429a04:	24840084 	addiu	a0,a0,132
--
  429a40:	8fb60030 	lw	s6,48(sp)
  429a44:	8fb5002c 	lw	s5,44(sp)
  429a48:	8fb40028 	lw	s4,40(sp)
  429a4c:	8fb30024 	lw	s3,36(sp)
  429a50:	8fb20020 	lw	s2,32(sp)
  429a54:	8fb1001c 	lw	s1,28(sp)
  429a58:	8fb00018 	lw	s0,24(sp)
  429a5c:	03e00008 	jr	ra
  429a60:	27bd0040 	addiu	sp,sp,64
  429a64:	27bdffd8 	addiu	sp,sp,-40
  429a68:	afbf0024 	sw	ra,36(sp)
  429a6c:	afb10020 	sw	s1,32(sp)
  429a70:	afb0001c 	sw	s0,28(sp)
  429a74:	3c1c0045 	lui	gp,0x45
  429a78:	279c6160 	addiu	gp,gp,24928
  429a7c:	afbc0010 	sw	gp,16(sp)
  429a80:	24b00020 	addiu	s0,a1,32
  429a84:	92020001 	lbu	v0,1(s0)
  429a88:	14400004 	bnez	v0,429a9c <libip6t_ipv6header_init@@Base+0x1e8>
  429a8c:	00a08821 	move	s1,a1
  429a90:	3c050043 	lui	a1,0x43
  429a94:	10000003 	b	429aa4 <libip6t_ipv6header_init@@Base+0x1f0>
  429a98:	24a53f34 	addiu	a1,a1,16180
  429a9c:	3c050043 	lui	a1,0x43
  429aa0:	24a5c8c4 	addiu	a1,a1,-14140
[31m  429aa4:	8f9983f4 	lw	t9,printf[0m
  429aa8:	3c040044 	lui	a0,0x44
  429aac:	0320f809 	jalr	t9
  429ab0:	24848d90 	addiu	a0,a0,-29296
  429ab4:	92240020 	lbu	a0,32(s1)
  429ab8:	0c10a634 	jal	4298d0 <libip6t_ipv6header_init@@Base+0x1c>
  429abc:	00000000 	nop
  429ac0:	8fbc0010 	lw	gp,16(sp)
  429ac4:	8f998414 	lw	t9,-31724(gp)
  429ac8:	0320f809 	jalr	t9
  429acc:	24040020 	li	a0,32
  429ad0:	92020002 	lbu	v0,2(s0)
  429ad4:	8fbc0010 	lw	gp,16(sp)
  429ad8:	10400008 	beqz	v0,429afc <libip6t_ipv6header_init@@Base+0x248>
  429adc:	3c040044 	lui	a0,0x44
[31m  429ae0:	8f9983f4 	lw	t9,printf[0m
  429ae4:	8fbf0024 	lw	ra,36(sp)
  429ae8:	24848d9c 	addiu	a0,a0,-29284
  429aec:	8fb10020 	lw	s1,32(sp)
  429af0:	8fb0001c 	lw	s0,28(sp)
  429af4:	03200008 	jr	t9
  429af8:	27bd0028 	addiu	sp,sp,40
  429afc:	8fbf0024 	lw	ra,36(sp)
  429b00:	8fb10020 	lw	s1,32(sp)
  429b04:	8fb0001c 	lw	s0,28(sp)
  429b08:	03e00008 	jr	ra
  429b0c:	27bd0028 	addiu	sp,sp,40
  429b10:	27bdffd8 	addiu	sp,sp,-40
  429b14:	afbf0024 	sw	ra,36(sp)
  429b18:	afb20020 	sw	s2,32(sp)
  429b1c:	afb1001c 	sw	s1,28(sp)
  429b20:	afb00018 	sw	s0,24(sp)
  429b24:	3c1c0045 	lui	gp,0x45
  429b28:	279c6160 	addiu	gp,gp,24928
  429b2c:	afbc0010 	sw	gp,16(sp)
  429b30:	3c040044 	lui	a0,0x44
[31m  429b34:	8f9983f4 	lw	t9,printf[0m
  429b38:	00a08021 	move	s0,a1
  429b3c:	24848da4 	addiu	a0,a0,-29276
  429b40:	00c09021 	move	s2,a2
  429b44:	0320f809 	jalr	t9
  429b48:	24b10020 	addiu	s1,a1,32
  429b4c:	92020020 	lbu	v0,32(s0)
  429b50:	8fbc0010 	lw	gp,16(sp)
  429b54:	14400004 	bnez	v0,429b68 <libip6t_ipv6header_init@@Base+0x2b4>
  429b58:	00000000 	nop
  429b5c:	92220001 	lbu	v0,1(s1)
  429b60:	1040001d 	beqz	v0,429bd8 <libip6t_ipv6header_init@@Base+0x324>
  429b64:	00000000 	nop
  429b68:	92220001 	lbu	v0,1(s1)
  429b6c:	14400003 	bnez	v0,429b7c <libip6t_ipv6header_init@@Base+0x2c8>
  429b70:	3c050043 	lui	a1,0x43
  429b74:	10000003 	b	429b84 <libip6t_ipv6header_init@@Base+0x2d0>
  429b78:	24a53f34 	addiu	a1,a1,16180
  429b7c:	3c050043 	lui	a1,0x43
  429b80:	24a51db0 	addiu	a1,a1,7600
[31m  429b84:	8f9983f4 	lw	t9,printf[0m
  429b88:	3c040043 	lui	a0,0x43
  429b8c:	0320f809 	jalr	t9
  429b90:	248460fc 	addiu	a0,a0,24828
  429b94:	8fbc0010 	lw	gp,16(sp)
  429b98:	92040020 	lbu	a0,32(s0)
  429b9c:	12400007 	beqz	s2,429bbc <libip6t_ipv6header_init@@Base+0x308>
  429ba0:	00802821 	move	a1,a0
[31m  429ba4:	8f9983f4 	lw	t9,printf[0m
  429ba8:	3c040044 	lui	a0,0x44
  429bac:	0320f809 	jalr	t9
  429bb0:	24848db0 	addiu	a0,a0,-29264
  429bb4:	10000007 	b	429bd4 <libip6t_ipv6header_init@@Base+0x320>
  429bb8:	00000000 	nop
  429bbc:	0c10a634 	jal	4298d0 <libip6t_ipv6header_init@@Base+0x1c>
  429bc0:	00000000 	nop
  429bc4:	8fbc0010 	lw	gp,16(sp)
  429bc8:	8f998414 	lw	t9,-31724(gp)
  429bcc:	0320f809 	jalr	t9
  429bd0:	24040020 	li	a0,32
  429bd4:	8fbc0010 	lw	gp,16(sp)
  429bd8:	92220002 	lbu	v0,2(s1)
  429bdc:	10400009 	beqz	v0,429c04 <libip6t_ipv6header_init@@Base+0x350>
  429be0:	3c040044 	lui	a0,0x44
[31m  429be4:	8f9983f4 	lw	t9,printf[0m
  429be8:	8fbf0024 	lw	ra,36(sp)
  429bec:	24848db8 	addiu	a0,a0,-29256
--
  429ef0:	00000000 	nop
	...
  429f00:	24020004 	li	v0,4
  429f04:	03e00008 	jr	ra
  429f08:	a0820020 	sb	v0,32(a0)

00429f0c <libip6t_LOG_init@@Base>:
  429f0c:	3c1c0045 	lui	gp,0x45
  429f10:	3c040045 	lui	a0,0x45
  429f14:	279c6160 	addiu	gp,gp,24928
  429f18:	2484e020 	addiu	a0,a0,-8160
  429f1c:	8f9980c0 	lw	t9,-32576(gp)
  429f20:	03200008 	jr	t9
  429f24:	00000000 	nop
  429f28:	27bdffd8 	addiu	sp,sp,-40
  429f2c:	afbf0024 	sw	ra,36(sp)
  429f30:	afb10020 	sw	s1,32(sp)
  429f34:	afb0001c 	sw	s0,28(sp)
  429f38:	3c1c0045 	lui	gp,0x45
  429f3c:	279c6160 	addiu	gp,gp,24928
  429f40:	afbc0010 	sw	gp,16(sp)
  429f44:	24b00020 	addiu	s0,a1,32
  429f48:	92020002 	lbu	v0,2(s0)
  429f4c:	10400007 	beqz	v0,429f6c <libip6t_LOG_init@@Base+0x60>
  429f50:	00a08821 	move	s1,a1
[31m  429f54:	8f9983f4 	lw	t9,printf[0m
  429f58:	3c040044 	lui	a0,0x44
  429f5c:	24849070 	addiu	a0,a0,-28560
  429f60:	0320f809 	jalr	t9
  429f64:	24a50022 	addiu	a1,a1,34
  429f68:	8fbc0010 	lw	gp,16(sp)
  429f6c:	92250020 	lbu	a1,32(s1)
  429f70:	24020004 	li	v0,4
  429f74:	10a20006 	beq	a1,v0,429f90 <libip6t_LOG_init@@Base+0x84>
  429f78:	00000000 	nop
[31m  429f7c:	8f9983f4 	lw	t9,printf[0m
  429f80:	3c040044 	lui	a0,0x44
  429f84:	0320f809 	jalr	t9
  429f88:	24849084 	addiu	a0,a0,-28540
  429f8c:	8fbc0010 	lw	gp,16(sp)
  429f90:	92020001 	lbu	v0,1(s0)
  429f94:	30420001 	andi	v0,v0,0x1
  429f98:	10400006 	beqz	v0,429fb4 <libip6t_LOG_init@@Base+0xa8>
  429f9c:	00000000 	nop
[31m  429fa0:	8f9983f4 	lw	t9,printf[0m
  429fa4:	3c040044 	lui	a0,0x44
  429fa8:	0320f809 	jalr	t9
  429fac:	24849094 	addiu	a0,a0,-28524
  429fb0:	8fbc0010 	lw	gp,16(sp)
  429fb4:	92020001 	lbu	v0,1(s0)
  429fb8:	30420002 	andi	v0,v0,0x2
  429fbc:	10400006 	beqz	v0,429fd8 <libip6t_LOG_init@@Base+0xcc>
  429fc0:	00000000 	nop
[31m  429fc4:	8f9983f4 	lw	t9,printf[0m
  429fc8:	3c040044 	lui	a0,0x44
  429fcc:	0320f809 	jalr	t9
  429fd0:	248490a8 	addiu	a0,a0,-28504
  429fd4:	8fbc0010 	lw	gp,16(sp)
  429fd8:	92020001 	lbu	v0,1(s0)
  429fdc:	30420004 	andi	v0,v0,0x4
  429fe0:	10400005 	beqz	v0,429ff8 <libip6t_LOG_init@@Base+0xec>
  429fe4:	3c040044 	lui	a0,0x44
[31m  429fe8:	8f9983f4 	lw	t9,printf[0m
  429fec:	0320f809 	jalr	t9
  429ff0:	248490bc 	addiu	a0,a0,-28484
  429ff4:	8fbc0010 	lw	gp,16(sp)
  429ff8:	92020001 	lbu	v0,1(s0)
  429ffc:	30420008 	andi	v0,v0,0x8
  42a000:	10400008 	beqz	v0,42a024 <libip6t_LOG_init@@Base+0x118>
  42a004:	3c040044 	lui	a0,0x44
[31m  42a008:	8f9983f4 	lw	t9,printf[0m
  42a00c:	8fbf0024 	lw	ra,36(sp)
  42a010:	248490d0 	addiu	a0,a0,-28464
  42a014:	8fb10020 	lw	s1,32(sp)
  42a018:	8fb0001c 	lw	s0,28(sp)
  42a01c:	03200008 	jr	t9
  42a020:	27bd0028 	addiu	sp,sp,40
  42a024:	8fbf0024 	lw	ra,36(sp)
  42a028:	8fb10020 	lw	s1,32(sp)
  42a02c:	8fb0001c 	lw	s0,28(sp)
  42a030:	03e00008 	jr	ra
  42a034:	27bd0028 	addiu	sp,sp,40
  42a038:	27bdffd8 	addiu	sp,sp,-40
  42a03c:	afbf0024 	sw	ra,36(sp)
  42a040:	afb20020 	sw	s2,32(sp)
  42a044:	afb1001c 	sw	s1,28(sp)
  42a048:	afb00018 	sw	s0,24(sp)
  42a04c:	3c1c0045 	lui	gp,0x45
  42a050:	279c6160 	addiu	gp,gp,24928
  42a054:	afbc0010 	sw	gp,16(sp)
  42a058:	3c040044 	lui	a0,0x44
[31m  42a05c:	8f9983f4 	lw	t9,printf[0m
  42a060:	00a08821 	move	s1,a1
  42a064:	248490dc 	addiu	a0,a0,-28452
  42a068:	00c09021 	move	s2,a2
  42a06c:	0320f809 	jalr	t9
  42a070:	24b00020 	addiu	s0,a1,32
  42a074:	8fbc0010 	lw	gp,16(sp)
  42a078:	92260020 	lbu	a2,32(s1)
  42a07c:	12400008 	beqz	s2,42a0a0 <libip6t_LOG_init@@Base+0x194>
  42a080:	3c020045 	lui	v0,0x45
[31m  42a084:	8f9983f4 	lw	t9,printf[0m
  42a088:	3c040044 	lui	a0,0x44
  42a08c:	92050001 	lbu	a1,1(s0)
  42a090:	0320f809 	jalr	t9
  42a094:	248490e4 	addiu	a0,a0,-28444
  42a098:	1000004b 	b	42a1c8 <libip6t_LOG_init@@Base+0x2bc>
  42a09c:	00000000 	nop
  42a0a0:	00009021 	move	s2,zero
  42a0a4:	2442badc 	addiu	v0,v0,-17700
  42a0a8:	24030009 	li	v1,9
  42a0ac:	8c440000 	lw	a0,0(v0)
  42a0b0:	14c40010 	bne	a2,a0,42a0f4 <libip6t_LOG_init@@Base+0x1e8>
  42a0b4:	24420008 	addiu	v0,v0,8
  42a0b8:	3c020045 	lui	v0,0x45
  42a0bc:	001218c0 	sll	v1,s2,0x3
  42a0c0:	3c040044 	lui	a0,0x44
  42a0c4:	2442bad8 	addiu	v0,v0,-17704
  42a0c8:	00621021 	addu	v0,v1,v0
[31m  42a0cc:	8f9983f4 	lw	t9,printf[0m
  42a0d0:	8c450000 	lw	a1,0(v0)
  42a0d4:	0320f809 	jalr	t9
  42a0d8:	248490f8 	addiu	a0,a0,-28424
  42a0dc:	24020009 	li	v0,9
  42a0e0:	8fbc0010 	lw	gp,16(sp)
  42a0e4:	1642000c 	bne	s2,v0,42a118 <libip6t_LOG_init@@Base+0x20c>
  42a0e8:	00000000 	nop
  42a0ec:	10000004 	b	42a100 <libip6t_LOG_init@@Base+0x1f4>
  42a0f0:	00000000 	nop
  42a0f4:	26520001 	addiu	s2,s2,1
  42a0f8:	1643ffec 	bne	s2,v1,42a0ac <libip6t_LOG_init@@Base+0x1a0>
  42a0fc:	00000000 	nop
[31m  42a100:	8f9983f4 	lw	t9,printf[0m
  42a104:	3c040044 	lui	a0,0x44
  42a108:	92250020 	lbu	a1,32(s1)
  42a10c:	0320f809 	jalr	t9
  42a110:	24849104 	addiu	a0,a0,-28412
  42a114:	8fbc0010 	lw	gp,16(sp)
  42a118:	92020001 	lbu	v0,1(s0)
  42a11c:	30420001 	andi	v0,v0,0x1
  42a120:	10400006 	beqz	v0,42a13c <libip6t_LOG_init@@Base+0x230>
  42a124:	00000000 	nop
[31m  42a128:	8f9983f4 	lw	t9,printf[0m
  42a12c:	3c040044 	lui	a0,0x44
  42a130:	0320f809 	jalr	t9
  42a134:	24849118 	addiu	a0,a0,-28392
  42a138:	8fbc0010 	lw	gp,16(sp)
  42a13c:	92020001 	lbu	v0,1(s0)
  42a140:	30420002 	andi	v0,v0,0x2
  42a144:	10400006 	beqz	v0,42a160 <libip6t_LOG_init@@Base+0x254>
  42a148:	00000000 	nop
[31m  42a14c:	8f9983f4 	lw	t9,printf[0m
  42a150:	3c040044 	lui	a0,0x44
  42a154:	0320f809 	jalr	t9
  42a158:	24849128 	addiu	a0,a0,-28376
  42a15c:	8fbc0010 	lw	gp,16(sp)
  42a160:	92020001 	lbu	v0,1(s0)
  42a164:	30420004 	andi	v0,v0,0x4
  42a168:	10400006 	beqz	v0,42a184 <libip6t_LOG_init@@Base+0x278>
  42a16c:	00000000 	nop
[31m  42a170:	8f9983f4 	lw	t9,printf[0m
  42a174:	3c040044 	lui	a0,0x44
  42a178:	0320f809 	jalr	t9
  42a17c:	24849138 	addiu	a0,a0,-28360
  42a180:	8fbc0010 	lw	gp,16(sp)
  42a184:	92020001 	lbu	v0,1(s0)
  42a188:	30420008 	andi	v0,v0,0x8
  42a18c:	10400006 	beqz	v0,42a1a8 <libip6t_LOG_init@@Base+0x29c>
  42a190:	00000000 	nop
[31m  42a194:	8f9983f4 	lw	t9,printf[0m
  42a198:	3c040044 	lui	a0,0x44
  42a19c:	0320f809 	jalr	t9
  42a1a0:	24849144 	addiu	a0,a0,-28348
  42a1a4:	8fbc0010 	lw	gp,16(sp)
  42a1a8:	92020001 	lbu	v0,1(s0)
  42a1ac:	304200e0 	andi	v0,v0,0xe0
  42a1b0:	10400006 	beqz	v0,42a1cc <libip6t_LOG_init@@Base+0x2c0>
  42a1b4:	00000000 	nop
  42a1b8:	3c040044 	lui	a0,0x44
[31m  42a1bc:	8f9983f4 	lw	t9,printf[0m
  42a1c0:	0320f809 	jalr	t9
  42a1c4:	2484914c 	addiu	a0,a0,-28340
  42a1c8:	8fbc0010 	lw	gp,16(sp)
  42a1cc:	92020002 	lbu	v0,2(s0)
  42a1d0:	1040000a 	beqz	v0,42a1fc <libip6t_LOG_init@@Base+0x2f0>
  42a1d4:	26050002 	addiu	a1,s0,2
  42a1d8:	3c040044 	lui	a0,0x44
[31m  42a1dc:	8f9983f4 	lw	t9,printf[0m
  42a1e0:	2484915c 	addiu	a0,a0,-28324
  42a1e4:	8fbf0024 	lw	ra,36(sp)
--
0042a5ec <libip6t_mh_init@@Base>:
  42a5ec:	3c1c0045 	lui	gp,0x45
  42a5f0:	3c040045 	lui	a0,0x45
  42a5f4:	279c6160 	addiu	gp,gp,24928
  42a5f8:	2484e070 	addiu	a0,a0,-8080
  42a5fc:	8f998148 	lw	t9,-32440(gp)
  42a600:	03200008 	jr	t9
  42a604:	00000000 	nop
  42a608:	27bdffd8 	addiu	sp,sp,-40
  42a60c:	afbf0024 	sw	ra,36(sp)
  42a610:	afb00020 	sw	s0,32(sp)
  42a614:	3c1c0045 	lui	gp,0x45
  42a618:	279c6160 	addiu	gp,gp,24928
  42a61c:	afbc0010 	sw	gp,16(sp)
  42a620:	90a20020 	lbu	v0,32(a1)
  42a624:	14400005 	bnez	v0,42a63c <libip6t_mh_init@@Base+0x50>
  42a628:	24b00020 	addiu	s0,a1,32
  42a62c:	92030001 	lbu	v1,1(s0)
  42a630:	240200ff 	li	v0,255
  42a634:	1062001b 	beq	v1,v0,42a6a4 <libip6t_mh_init@@Base+0xb8>
  42a638:	00000000 	nop
  42a63c:	92020002 	lbu	v0,2(s0)
  42a640:	30420001 	andi	v0,v0,0x1
  42a644:	10400007 	beqz	v0,42a664 <libip6t_mh_init@@Base+0x78>
  42a648:	3c040043 	lui	a0,0x43
[31m  42a64c:	8f9983f4 	lw	t9,printf[0m
  42a650:	afa50018 	sw	a1,24(sp)
  42a654:	0320f809 	jalr	t9
  42a658:	2484c8c4 	addiu	a0,a0,-14140
  42a65c:	8fbc0010 	lw	gp,16(sp)
  42a660:	8fa50018 	lw	a1,24(sp)
  42a664:	90a50020 	lbu	a1,32(a1)
  42a668:	92060001 	lbu	a2,1(s0)
[31m  42a66c:	8f9983f4 	lw	t9,printf[0m
  42a670:	10a60006 	beq	a1,a2,42a68c <libip6t_mh_init@@Base+0xa0>
  42a674:	3c040044 	lui	a0,0x44
--
  42a6b4:	3c1c0045 	lui	gp,0x45
  42a6b8:	308400ff 	andi	a0,a0,0xff
  42a6bc:	14a00014 	bnez	a1,42a710 <libip6t_mh_init@@Base+0x124>
  42a6c0:	279c6160 	addiu	gp,gp,24928
  42a6c4:	3c030045 	lui	v1,0x45
  42a6c8:	00001021 	move	v0,zero
  42a6cc:	2463bb94 	addiu	v1,v1,-17516
  42a6d0:	24050010 	li	a1,16
  42a6d4:	90660000 	lbu	a2,0(v1)
  42a6d8:	14c4000a 	bne	a2,a0,42a704 <libip6t_mh_init@@Base+0x118>
  42a6dc:	24630008 	addiu	v1,v1,8
  42a6e0:	3c030045 	lui	v1,0x45
  42a6e4:	000210c0 	sll	v0,v0,0x3
  42a6e8:	2463bb90 	addiu	v1,v1,-17520
  42a6ec:	00431021 	addu	v0,v0,v1
  42a6f0:	8c450000 	lw	a1,0(v0)
  42a6f4:	14a0000b 	bnez	a1,42a724 <libip6t_mh_init@@Base+0x138>
  42a6f8:	00000000 	nop
  42a6fc:	10000005 	b	42a714 <libip6t_mh_init@@Base+0x128>
  42a700:	00802821 	move	a1,a0
  42a704:	24420001 	addiu	v0,v0,1
  42a708:	1445fff2 	bne	v0,a1,42a6d4 <libip6t_mh_init@@Base+0xe8>
  42a70c:	00000000 	nop
  42a710:	00802821 	move	a1,a0
  42a714:	3c040043 	lui	a0,0x43
[31m  42a718:	8f9983f4 	lw	t9,printf[0m
  42a71c:	10000004 	b	42a730 <libip6t_mh_init@@Base+0x144>
  42a720:	24842d78 	addiu	a0,a0,11640
  42a724:	3c040044 	lui	a0,0x44
[31m  42a728:	8f9983f4 	lw	t9,printf[0m
  42a72c:	24848b80 	addiu	a0,a0,-29824
  42a730:	03200008 	jr	t9
  42a734:	00000000 	nop
  42a738:	27bdffc8 	addiu	sp,sp,-56
  42a73c:	afbf0034 	sw	ra,52(sp)
  42a740:	afb30030 	sw	s3,48(sp)
  42a744:	afb2002c 	sw	s2,44(sp)
  42a748:	afb10028 	sw	s1,40(sp)
  42a74c:	afb00024 	sw	s0,36(sp)
  42a750:	3c1c0045 	lui	gp,0x45
  42a754:	279c6160 	addiu	gp,gp,24928
  42a758:	afbc0010 	sw	gp,16(sp)
  42a75c:	3c040044 	lui	a0,0x44
[31m  42a760:	8f9983f4 	lw	t9,printf[0m
  42a764:	24b00020 	addiu	s0,a1,32
  42a768:	00c09021 	move	s2,a2
  42a76c:	afa50018 	sw	a1,24(sp)
  42a770:	0320f809 	jalr	t9
  42a774:	24849528 	addiu	a0,a0,-27352
  42a778:	92020002 	lbu	v0,2(s0)
  42a77c:	8fa50018 	lw	a1,24(sp)
  42a780:	30420001 	andi	v0,v0,0x1
  42a784:	8fbc0010 	lw	gp,16(sp)
  42a788:	90b10020 	lbu	s1,32(a1)
  42a78c:	92130001 	lbu	s3,1(s0)
  42a790:	14400003 	bnez	v0,42a7a0 <libip6t_mh_init@@Base+0x1b4>
  42a794:	3c050043 	lui	a1,0x43
  42a798:	10000003 	b	42a7a8 <libip6t_mh_init@@Base+0x1bc>
  42a79c:	24a53f34 	addiu	a1,a1,16180
  42a7a0:	3c050043 	lui	a1,0x43
  42a7a4:	24a51db0 	addiu	a1,a1,7600
  42a7a8:	16200007 	bnez	s1,42a7c8 <libip6t_mh_init@@Base+0x1dc>
  42a7ac:	240300ff 	li	v1,255
  42a7b0:	16630005 	bne	s3,v1,42a7c8 <libip6t_mh_init@@Base+0x1dc>
  42a7b4:	00000000 	nop
  42a7b8:	1440000b 	bnez	v0,42a7e8 <libip6t_mh_init@@Base+0x1fc>
  42a7bc:	00000000 	nop
  42a7c0:	1000001c 	b	42a834 <libip6t_mh_init@@Base+0x248>
  42a7c4:	00000000 	nop
  42a7c8:	16330007 	bne	s1,s3,42a7e8 <libip6t_mh_init@@Base+0x1fc>
  42a7cc:	00000000 	nop
[31m  42a7d0:	8f9983f4 	lw	t9,printf[0m
  42a7d4:	3c040044 	lui	a0,0x44
  42a7d8:	0320f809 	jalr	t9
  42a7dc:	24848b80 	addiu	a0,a0,-29824
  42a7e0:	1000000d 	b	42a818 <libip6t_mh_init@@Base+0x22c>
  42a7e4:	02202021 	move	a0,s1
[31m  42a7e8:	8f9983f4 	lw	t9,printf[0m
  42a7ec:	3c040044 	lui	a0,0x44
  42a7f0:	0320f809 	jalr	t9
  42a7f4:	24848b80 	addiu	a0,a0,-29824
  42a7f8:	02202021 	move	a0,s1
  42a7fc:	0c10a9ad 	jal	42a6b4 <libip6t_mh_init@@Base+0xc8>
  42a800:	02402821 	move	a1,s2
  42a804:	8fbc0010 	lw	gp,16(sp)
  42a808:	8f998414 	lw	t9,-31724(gp)
  42a80c:	0320f809 	jalr	t9
  42a810:	2404003a 	li	a0,58
  42a814:	02602021 	move	a0,s3
  42a818:	0c10a9ad 	jal	42a6b4 <libip6t_mh_init@@Base+0xc8>
  42a81c:	02402821 	move	a1,s2
  42a820:	8fbc0010 	lw	gp,16(sp)
  42a824:	8f998414 	lw	t9,-31724(gp)
  42a828:	0320f809 	jalr	t9
  42a82c:	24040020 	li	a0,32
  42a830:	8fbc0010 	lw	gp,16(sp)
  42a834:	92050002 	lbu	a1,2(s0)
  42a838:	30a500fe 	andi	a1,a1,0xfe
  42a83c:	10a0000a 	beqz	a1,42a868 <libip6t_mh_init@@Base+0x27c>
  42a840:	3c040043 	lui	a0,0x43
[31m  42a844:	8f9983f4 	lw	t9,printf[0m
  42a848:	8fbf0034 	lw	ra,52(sp)
  42a84c:	24840efc 	addiu	a0,a0,3836
--
  42ab68:	8fb10020 	lw	s1,32(sp)
  42ab6c:	8fb0001c 	lw	s0,28(sp)
  42ab70:	03e00008 	jr	ra
  42ab74:	27bd0038 	addiu	sp,sp,56
  42ab78:	27bdffd0 	addiu	sp,sp,-48
  42ab7c:	afbf002c 	sw	ra,44(sp)
  42ab80:	afb40028 	sw	s4,40(sp)
  42ab84:	afb30024 	sw	s3,36(sp)
  42ab88:	afb20020 	sw	s2,32(sp)
  42ab8c:	afb1001c 	sw	s1,28(sp)
  42ab90:	afb00018 	sw	s0,24(sp)
  42ab94:	3c1c0045 	lui	gp,0x45
  42ab98:	279c6160 	addiu	gp,gp,24928
  42ab9c:	afbc0010 	sw	gp,16(sp)
  42aba0:	3c040044 	lui	a0,0x44
  42aba4:	8f998370 	lw	t9,-31888(gp)
  42aba8:	24849588 	addiu	a0,a0,-27256
  42abac:	3c100045 	lui	s0,0x45
  42abb0:	0320f809 	jalr	t9
  42abb4:	3c130044 	lui	s3,0x44
  42abb8:	3c040044 	lui	a0,0x44
  42abbc:	8fbc0010 	lw	gp,16(sp)
  42abc0:	248495c4 	addiu	a0,a0,-27196
  42abc4:	3c120044 	lui	s2,0x44
  42abc8:	00008821 	move	s1,zero
[31m  42abcc:	8f9983f4 	lw	t9,printf[0m
  42abd0:	24140010 	li	s4,16
  42abd4:	2610bb90 	addiu	s0,s0,-17520
  42abd8:	0320f809 	jalr	t9
  42abdc:	26738b84 	addiu	s3,s3,-29820
  42abe0:	26528b74 	addiu	s2,s2,-29836
  42abe4:	8fbc0010 	lw	gp,16(sp)
[31m  42abe8:	8f9983f4 	lw	t9,printf[0m
  42abec:	12200006 	beqz	s1,42ac08 <libip6t_mh_init@@Base+0x61c>
  42abf0:	02602021 	move	a0,s3
--
  42ac74:	00000000 	nop
  42ac78:	8ca20020 	lw	v0,32(a1)
  42ac7c:	3c1c0045 	lui	gp,0x45
  42ac80:	279c6160 	addiu	gp,gp,24928
  42ac84:	1040000d 	beqz	v0,42acbc <libip6t_REJECT_init@@Base+0x60>
  42ac88:	00001821 	move	v1,zero
  42ac8c:	24040001 	li	a0,1
  42ac90:	1044000a 	beq	v0,a0,42acbc <libip6t_REJECT_init@@Base+0x60>
  42ac94:	24030001 	li	v1,1
  42ac98:	24040003 	li	a0,3
  42ac9c:	10440007 	beq	v0,a0,42acbc <libip6t_REJECT_init@@Base+0x60>
  42aca0:	24030002 	li	v1,2
  42aca4:	24040004 	li	a0,4
  42aca8:	10440004 	beq	v0,a0,42acbc <libip6t_REJECT_init@@Base+0x60>
  42acac:	24030003 	li	v1,3
  42acb0:	38420006 	xori	v0,v0,0x6
  42acb4:	24030005 	li	v1,5
  42acb8:	0082180a 	0x82180a
  42acbc:	3c020045 	lui	v0,0x45
  42acc0:	00031900 	sll	v1,v1,0x4
  42acc4:	3c040044 	lui	a0,0x44
  42acc8:	2442bc30 	addiu	v0,v0,-17360
  42accc:	24849690 	addiu	a0,a0,-26992
  42acd0:	00621021 	addu	v0,v1,v0
  42acd4:	8c450000 	lw	a1,0(v0)
[31m  42acd8:	8f9983f4 	lw	t9,printf[0m
  42acdc:	03200008 	jr	t9
  42ace0:	00000000 	nop
  42ace4:	8ca20020 	lw	v0,32(a1)
  42ace8:	3c1c0045 	lui	gp,0x45
  42acec:	279c6160 	addiu	gp,gp,24928
  42acf0:	1040000d 	beqz	v0,42ad28 <libip6t_REJECT_init@@Base+0xcc>
  42acf4:	00001821 	move	v1,zero
  42acf8:	24040001 	li	a0,1
  42acfc:	1044000a 	beq	v0,a0,42ad28 <libip6t_REJECT_init@@Base+0xcc>
  42ad00:	24030001 	li	v1,1
  42ad04:	24040003 	li	a0,3
  42ad08:	10440007 	beq	v0,a0,42ad28 <libip6t_REJECT_init@@Base+0xcc>
  42ad0c:	24030002 	li	v1,2
  42ad10:	24040004 	li	a0,4
  42ad14:	10440004 	beq	v0,a0,42ad28 <libip6t_REJECT_init@@Base+0xcc>
  42ad18:	24030003 	li	v1,3
  42ad1c:	38420006 	xori	v0,v0,0x6
  42ad20:	24030005 	li	v1,5
  42ad24:	0082180a 	0x82180a
  42ad28:	3c020045 	lui	v0,0x45
  42ad2c:	00031900 	sll	v1,v1,0x4
  42ad30:	3c040044 	lui	a0,0x44
  42ad34:	2442bc30 	addiu	v0,v0,-17360
  42ad38:	248496a4 	addiu	a0,a0,-26972
  42ad3c:	00621021 	addu	v0,v1,v0
  42ad40:	8c450000 	lw	a1,0(v0)
[31m  42ad44:	8f9983f4 	lw	t9,printf[0m
  42ad48:	03200008 	jr	t9
  42ad4c:	00000000 	nop
--
  42aeb8:	afb30028 	sw	s3,40(sp)
  42aebc:	afb20024 	sw	s2,36(sp)
  42aec0:	afb10020 	sw	s1,32(sp)
  42aec4:	afb0001c 	sw	s0,28(sp)
  42aec8:	3c1c0045 	lui	gp,0x45
  42aecc:	279c6160 	addiu	gp,gp,24928
  42aed0:	afbc0010 	sw	gp,16(sp)
  42aed4:	3c040044 	lui	a0,0x44
  42aed8:	8f998370 	lw	t9,-31888(gp)
  42aedc:	248496f4 	addiu	a0,a0,-26892
  42aee0:	3c100045 	lui	s0,0x45
  42aee4:	0320f809 	jalr	t9
  42aee8:	3c130045 	lui	s3,0x45
  42aeec:	3c040044 	lui	a0,0x44
  42aef0:	8fbc0010 	lw	gp,16(sp)
  42aef4:	24849790 	addiu	a0,a0,-26736
  42aef8:	3c120044 	lui	s2,0x44
  42aefc:	3c110044 	lui	s1,0x44
  42af00:	8f998370 	lw	t9,-31888(gp)
  42af04:	2610bc30 	addiu	s0,s0,-17360
  42af08:	2673bc80 	addiu	s3,s3,-17280
  42af0c:	0320f809 	jalr	t9
  42af10:	265297a4 	addiu	s2,s2,-26716
  42af14:	263197b4 	addiu	s1,s1,-26700
  42af18:	8fbc0010 	lw	gp,16(sp)
[31m  42af1c:	8f9983f4 	lw	t9,printf[0m
  42af20:	8e050000 	lw	a1,0(s0)
  42af24:	8e06000c 	lw	a2,12(s0)
  42af28:	0320f809 	jalr	t9
  42af2c:	02402021 	move	a0,s2
  42af30:	02202021 	move	a0,s1
  42af34:	8fbc0010 	lw	gp,16(sp)
  42af38:	8e050004 	lw	a1,4(s0)
[31m  42af3c:	8f9983f4 	lw	t9,printf[0m
  42af40:	0320f809 	jalr	t9
  42af44:	26100010 	addiu	s0,s0,16
--
  42af70:	27bd0030 	addiu	sp,sp,48
	...
  42af80:	24820020 	addiu	v0,a0,32
  42af84:	2403ffff 	li	v1,-1
  42af88:	ac800020 	sw	zero,32(a0)
  42af8c:	ac430008 	sw	v1,8(v0)
  42af90:	a0400114 	sb	zero,276(v0)
  42af94:	ac400004 	sw	zero,4(v0)
  42af98:	ac40000c 	sw	zero,12(v0)
  42af9c:	a0400010 	sb	zero,16(v0)
  42afa0:	03e00008 	jr	ra
  42afa4:	a0400011 	sb	zero,17(v0)

0042afa8 <libip6t_rt_init@@Base>:
  42afa8:	3c1c0045 	lui	gp,0x45
  42afac:	3c040045 	lui	a0,0x45
  42afb0:	279c6160 	addiu	gp,gp,24928
  42afb4:	2484e110 	addiu	a0,a0,-7920
  42afb8:	8f998148 	lw	t9,-32440(gp)
  42afbc:	03200008 	jr	t9
  42afc0:	00000000 	nop
  42afc4:	3c1c0045 	lui	gp,0x45
  42afc8:	3c040044 	lui	a0,0x44
  42afcc:	279c6160 	addiu	gp,gp,24928
  42afd0:	24050010 	li	a1,16
[31m  42afd4:	8f9983f4 	lw	t9,printf[0m
  42afd8:	248498e8 	addiu	a0,a0,-26392
  42afdc:	03200008 	jr	t9
--
  42affc:	afb30028 	sw	s3,40(sp)
  42b000:	afb20024 	sw	s2,36(sp)
  42b004:	afb10020 	sw	s1,32(sp)
  42b008:	afb0001c 	sw	s0,28(sp)
  42b00c:	3c1c0045 	lui	gp,0x45
  42b010:	279c6160 	addiu	gp,gp,24928
  42b014:	afbc0010 	sw	gp,16(sp)
  42b018:	3c170045 	lui	s7,0x45
  42b01c:	3c160044 	lui	s6,0x44
  42b020:	00809021 	move	s2,a0
  42b024:	26f7ef20 	addiu	s7,s7,-4320
  42b028:	00a08821 	move	s1,a1
  42b02c:	26d69a7c 	addiu	s6,s6,-25988
  42b030:	00008021 	move	s0,zero
  42b034:	2495ffff 	addiu	s5,a0,-1
  42b038:	2414002c 	li	s4,44
  42b03c:	1000000e 	b	42b078 <libip6t_rt_init@@Base+0xd0>
  42b040:	24130020 	li	s3,32
  42b044:	0320f809 	jalr	t9
  42b048:	00000000 	nop
  42b04c:	02153026 	xor	a2,s0,s5
  42b050:	26100001 	addiu	s0,s0,1
  42b054:	8fbc0010 	lw	gp,16(sp)
  42b058:	00402821 	move	a1,v0
  42b05c:	02601021 	move	v0,s3
[31m  42b060:	8f9983f4 	lw	t9,printf[0m
  42b064:	0286100b 	0x286100b
  42b068:	02c02021 	move	a0,s6
--
  42b0ac:	8fb30028 	lw	s3,40(sp)
  42b0b0:	8fb20024 	lw	s2,36(sp)
  42b0b4:	8fb10020 	lw	s1,32(sp)
  42b0b8:	8fb0001c 	lw	s0,28(sp)
  42b0bc:	03e00008 	jr	ra
  42b0c0:	27bd0040 	addiu	sp,sp,64
  42b0c4:	27bdffe0 	addiu	sp,sp,-32
  42b0c8:	afbf001c 	sw	ra,28(sp)
  42b0cc:	afb00018 	sw	s0,24(sp)
  42b0d0:	3c1c0045 	lui	gp,0x45
  42b0d4:	279c6160 	addiu	gp,gp,24928
  42b0d8:	afbc0010 	sw	gp,16(sp)
  42b0dc:	24b00020 	addiu	s0,a1,32
  42b0e0:	92030010 	lbu	v1,16(s0)
  42b0e4:	30630001 	andi	v1,v1,0x1
  42b0e8:	1060000f 	beqz	v1,42b128 <libip6t_rt_init@@Base+0x180>
  42b0ec:	00a01021 	move	v0,a1
  42b0f0:	92030011 	lbu	v1,17(s0)
  42b0f4:	30630001 	andi	v1,v1,0x1
  42b0f8:	14600003 	bnez	v1,42b108 <libip6t_rt_init@@Base+0x160>
  42b0fc:	3c050043 	lui	a1,0x43
  42b100:	10000003 	b	42b110 <libip6t_rt_init@@Base+0x168>
  42b104:	24a53f34 	addiu	a1,a1,16180
  42b108:	3c050043 	lui	a1,0x43
  42b10c:	24a5c8c4 	addiu	a1,a1,-14140
[31m  42b110:	8f9983f4 	lw	t9,printf[0m
  42b114:	3c040044 	lui	a0,0x44
  42b118:	8c460020 	lw	a2,32(v0)
  42b11c:	0320f809 	jalr	t9
  42b120:	24849a84 	addiu	a0,a0,-25980
  42b124:	8fbc0010 	lw	gp,16(sp)
  42b128:	8e020004 	lw	v0,4(s0)
  42b12c:	14400004 	bnez	v0,42b140 <libip6t_rt_init@@Base+0x198>
  42b130:	2402ffff 	li	v0,-1
  42b134:	8e030008 	lw	v1,8(s0)
  42b138:	1062001c 	beq	v1,v0,42b1ac <libip6t_rt_init@@Base+0x204>
  42b13c:	00000000 	nop
  42b140:	92020011 	lbu	v0,17(s0)
  42b144:	30420002 	andi	v0,v0,0x2
  42b148:	14400003 	bnez	v0,42b158 <libip6t_rt_init@@Base+0x1b0>
  42b14c:	3c050043 	lui	a1,0x43
  42b150:	10000003 	b	42b160 <libip6t_rt_init@@Base+0x1b8>
  42b154:	24a53f34 	addiu	a1,a1,16180
  42b158:	3c050043 	lui	a1,0x43
  42b15c:	24a5c8c4 	addiu	a1,a1,-14140
[31m  42b160:	8f9983f4 	lw	t9,printf[0m
  42b164:	3c040044 	lui	a0,0x44
  42b168:	0320f809 	jalr	t9
  42b16c:	24849a94 	addiu	a0,a0,-25964
  42b170:	8fbc0010 	lw	gp,16(sp)
  42b174:	8e050004 	lw	a1,4(s0)
  42b178:	8e060008 	lw	a2,8(s0)
[31m  42b17c:	8f9983f4 	lw	t9,printf[0m
  42b180:	10a60006 	beq	a1,a2,42b19c <libip6t_rt_init@@Base+0x1f4>
  42b184:	00000000 	nop
  42b188:	3c040043 	lui	a0,0x43
  42b18c:	0320f809 	jalr	t9
  42b190:	24840704 	addiu	a0,a0,1796
  42b194:	10000004 	b	42b1a8 <libip6t_rt_init@@Base+0x200>
  42b198:	00000000 	nop
  42b19c:	3c040043 	lui	a0,0x43
  42b1a0:	0320f809 	jalr	t9
  42b1a4:	2484391c 	addiu	a0,a0,14620
  42b1a8:	8fbc0010 	lw	gp,16(sp)
  42b1ac:	92020010 	lbu	v0,16(s0)
  42b1b0:	30420004 	andi	v0,v0,0x4
  42b1b4:	1040000f 	beqz	v0,42b1f4 <libip6t_rt_init@@Base+0x24c>
  42b1b8:	00000000 	nop
  42b1bc:	92020011 	lbu	v0,17(s0)
  42b1c0:	30420004 	andi	v0,v0,0x4
  42b1c4:	14400003 	bnez	v0,42b1d4 <libip6t_rt_init@@Base+0x22c>
  42b1c8:	3c050043 	lui	a1,0x43
  42b1cc:	10000003 	b	42b1dc <libip6t_rt_init@@Base+0x234>
  42b1d0:	24a53f34 	addiu	a1,a1,16180
  42b1d4:	3c050043 	lui	a1,0x43
  42b1d8:	24a5c8c4 	addiu	a1,a1,-14140
[31m  42b1dc:	8f9983f4 	lw	t9,printf[0m
  42b1e0:	3c040044 	lui	a0,0x44
  42b1e4:	8e06000c 	lw	a2,12(s0)
  42b1e8:	0320f809 	jalr	t9
  42b1ec:	24849aa8 	addiu	a0,a0,-25944
  42b1f0:	8fbc0010 	lw	gp,16(sp)
  42b1f4:	92020010 	lbu	v0,16(s0)
  42b1f8:	30420008 	andi	v0,v0,0x8
  42b1fc:	10400006 	beqz	v0,42b218 <libip6t_rt_init@@Base+0x270>
  42b200:	00000000 	nop
[31m  42b204:	8f9983f4 	lw	t9,printf[0m
  42b208:	3c040044 	lui	a0,0x44
  42b20c:	0320f809 	jalr	t9
  42b210:	24849ab8 	addiu	a0,a0,-25928
  42b214:	8fbc0010 	lw	gp,16(sp)
  42b218:	92020010 	lbu	v0,16(s0)
  42b21c:	30420010 	andi	v0,v0,0x10
  42b220:	10400004 	beqz	v0,42b234 <libip6t_rt_init@@Base+0x28c>
  42b224:	3c040044 	lui	a0,0x44
[31m  42b228:	8f9983f4 	lw	t9,printf[0m
  42b22c:	0320f809 	jalr	t9
  42b230:	24849ac4 	addiu	a0,a0,-25916
  42b234:	92040114 	lbu	a0,276(s0)
  42b238:	0c10abf9 	jal	42afe4 <libip6t_rt_init@@Base+0x3c>
  42b23c:	26050014 	addiu	a1,s0,20
  42b240:	92020010 	lbu	v0,16(s0)
  42b244:	8fbc0010 	lw	gp,16(sp)
  42b248:	30420020 	andi	v0,v0,0x20
  42b24c:	10400007 	beqz	v0,42b26c <libip6t_rt_init@@Base+0x2c4>
  42b250:	3c040044 	lui	a0,0x44
[31m  42b254:	8f9983f4 	lw	t9,printf[0m
  42b258:	8fbf001c 	lw	ra,28(sp)
  42b25c:	24849ad4 	addiu	a0,a0,-25900
--
  42b894:	8fbf003c 	lw	ra,60(sp)
  42b898:	8fbe0038 	lw	s8,56(sp)
  42b89c:	8fb70034 	lw	s7,52(sp)
  42b8a0:	8fb60030 	lw	s6,48(sp)
  42b8a4:	8fb5002c 	lw	s5,44(sp)
  42b8a8:	8fb40028 	lw	s4,40(sp)
  42b8ac:	8fb30024 	lw	s3,36(sp)
  42b8b0:	8fb20020 	lw	s2,32(sp)
  42b8b4:	8fb1001c 	lw	s1,28(sp)
  42b8b8:	8fb00018 	lw	s0,24(sp)
  42b8bc:	03e00008 	jr	ra
  42b8c0:	27bd0040 	addiu	sp,sp,64
  42b8c4:	1000fef1 	b	42b48c <libip6t_rt_init@@Base+0x4e4>
  42b8c8:	24a580ac 	addiu	a1,a1,-32596
  42b8cc:	27bdffd0 	addiu	sp,sp,-48
  42b8d0:	afbf002c 	sw	ra,44(sp)
  42b8d4:	afb40028 	sw	s4,40(sp)
  42b8d8:	afb30024 	sw	s3,36(sp)
  42b8dc:	afb20020 	sw	s2,32(sp)
  42b8e0:	afb1001c 	sw	s1,28(sp)
  42b8e4:	afb00018 	sw	s0,24(sp)
  42b8e8:	3c1c0045 	lui	gp,0x45
  42b8ec:	279c6160 	addiu	gp,gp,24928
  42b8f0:	afbc0010 	sw	gp,16(sp)
  42b8f4:	3c040044 	lui	a0,0x44
[31m  42b8f8:	8f9983f4 	lw	t9,printf[0m
  42b8fc:	24b00020 	addiu	s0,a1,32
  42b900:	00a08821 	move	s1,a1
  42b904:	0320f809 	jalr	t9
  42b908:	24849cc4 	addiu	a0,a0,-25404
  42b90c:	92020010 	lbu	v0,16(s0)
  42b910:	8fbc0010 	lw	gp,16(sp)
  42b914:	30420001 	andi	v0,v0,0x1
  42b918:	1040000f 	beqz	v0,42b958 <libip6t_rt_init@@Base+0x9b0>
  42b91c:	00000000 	nop
  42b920:	92020011 	lbu	v0,17(s0)
  42b924:	30420001 	andi	v0,v0,0x1
  42b928:	14400003 	bnez	v0,42b938 <libip6t_rt_init@@Base+0x990>
  42b92c:	3c050043 	lui	a1,0x43
  42b930:	10000003 	b	42b940 <libip6t_rt_init@@Base+0x998>
  42b934:	24a53f34 	addiu	a1,a1,16180
  42b938:	3c050043 	lui	a1,0x43
  42b93c:	24a51db0 	addiu	a1,a1,7600
[31m  42b940:	8f9983f4 	lw	t9,printf[0m
  42b944:	3c040044 	lui	a0,0x44
  42b948:	8e260020 	lw	a2,32(s1)
  42b94c:	0320f809 	jalr	t9
  42b950:	24849cc8 	addiu	a0,a0,-25400
  42b954:	8fbc0010 	lw	gp,16(sp)
  42b958:	92020011 	lbu	v0,17(s0)
  42b95c:	8e110004 	lw	s1,4(s0)
  42b960:	30420002 	andi	v0,v0,0x2
  42b964:	8e120008 	lw	s2,8(s0)
  42b968:	14400003 	bnez	v0,42b978 <libip6t_rt_init@@Base+0x9d0>
  42b96c:	3c130043 	lui	s3,0x43
  42b970:	10000003 	b	42b980 <libip6t_rt_init@@Base+0x9d8>
  42b974:	26733f34 	addiu	s3,s3,16180
  42b978:	3c130043 	lui	s3,0x43
  42b97c:	26731db0 	addiu	s3,s3,7600
  42b980:	16200005 	bnez	s1,42b998 <libip6t_rt_init@@Base+0x9f0>
  42b984:	2403ffff 	li	v1,-1
  42b988:	16430003 	bne	s2,v1,42b998 <libip6t_rt_init@@Base+0x9f0>
  42b98c:	00000000 	nop
  42b990:	1040002c 	beqz	v0,42ba44 <libip6t_rt_init@@Base+0xa9c>
  42b994:	00000000 	nop
[31m  42b998:	8f9983f4 	lw	t9,printf[0m
  42b99c:	3c040044 	lui	a0,0x44
  42b9a0:	3c050044 	lui	a1,0x44
  42b9a4:	24848b80 	addiu	a0,a0,-29824
  42b9a8:	24a59b68 	addiu	a1,a1,-25752
  42b9ac:	0320f809 	jalr	t9
  42b9b0:	3c140043 	lui	s4,0x43
  42b9b4:	8fbc0010 	lw	gp,16(sp)
[31m  42b9b8:	8f9983f4 	lw	t9,printf[0m
  42b9bc:	16320009 	bne	s1,s2,42b9e4 <libip6t_rt_init@@Base+0xa3c>
  42b9c0:	02602821 	move	a1,s3
  42b9c4:	3c040043 	lui	a0,0x43
  42b9c8:	0320f809 	jalr	t9
  42b9cc:	24840744 	addiu	a0,a0,1860
  42b9d0:	26842d78 	addiu	a0,s4,11640
  42b9d4:	8fbc0010 	lw	gp,16(sp)
[31m  42b9d8:	8f9983f4 	lw	t9,printf[0m
  42b9dc:	10000012 	b	42ba28 <libip6t_rt_init@@Base+0xa80>
  42b9e0:	02202821 	move	a1,s1
  42b9e4:	3c040043 	lui	a0,0x43
  42b9e8:	26932d78 	addiu	s3,s4,11640
  42b9ec:	0320f809 	jalr	t9
  42b9f0:	24846100 	addiu	a0,a0,24832
  42b9f4:	02202821 	move	a1,s1
  42b9f8:	8fbc0010 	lw	gp,16(sp)
[31m  42b9fc:	8f9983f4 	lw	t9,printf[0m
  42ba00:	0320f809 	jalr	t9
  42ba04:	02602021 	move	a0,s3
  42ba08:	8fbc0010 	lw	gp,16(sp)
  42ba0c:	8f998414 	lw	t9,-31724(gp)
  42ba10:	0320f809 	jalr	t9
  42ba14:	2404003a 	li	a0,58
  42ba18:	02602021 	move	a0,s3
  42ba1c:	8fbc0010 	lw	gp,16(sp)
  42ba20:	02402821 	move	a1,s2
[31m  42ba24:	8f9983f4 	lw	t9,printf[0m
  42ba28:	0320f809 	jalr	t9
  42ba2c:	00000000 	nop
  42ba30:	8fbc0010 	lw	gp,16(sp)
  42ba34:	8f998414 	lw	t9,-31724(gp)
  42ba38:	0320f809 	jalr	t9
  42ba3c:	24040020 	li	a0,32
  42ba40:	8fbc0010 	lw	gp,16(sp)
  42ba44:	92020010 	lbu	v0,16(s0)
  42ba48:	30420004 	andi	v0,v0,0x4
  42ba4c:	1040001d 	beqz	v0,42bac4 <libip6t_rt_init@@Base+0xb1c>
  42ba50:	00000000 	nop
[31m  42ba54:	8f9983f4 	lw	t9,printf[0m
  42ba58:	3c040044 	lui	a0,0x44
  42ba5c:	0320f809 	jalr	t9
  42ba60:	2484804c 	addiu	a0,a0,-32692
  42ba64:	92020011 	lbu	v0,17(s0)
  42ba68:	8fbc0010 	lw	gp,16(sp)
  42ba6c:	30420004 	andi	v0,v0,0x4
  42ba70:	14400003 	bnez	v0,42ba80 <libip6t_rt_init@@Base+0xad8>
  42ba74:	3c050043 	lui	a1,0x43
  42ba78:	10000003 	b	42ba88 <libip6t_rt_init@@Base+0xae0>
  42ba7c:	24a53f34 	addiu	a1,a1,16180
  42ba80:	3c050043 	lui	a1,0x43
  42ba84:	24a51db0 	addiu	a1,a1,7600
[31m  42ba88:	8f9983f4 	lw	t9,printf[0m
  42ba8c:	3c040043 	lui	a0,0x43
  42ba90:	0320f809 	jalr	t9
  42ba94:	24840744 	addiu	a0,a0,1860
  42ba98:	3c040043 	lui	a0,0x43
  42ba9c:	8fbc0010 	lw	gp,16(sp)
  42baa0:	8e05000c 	lw	a1,12(s0)
[31m  42baa4:	8f9983f4 	lw	t9,printf[0m
  42baa8:	0320f809 	jalr	t9
  42baac:	24842d78 	addiu	a0,a0,11640
  42bab0:	8fbc0010 	lw	gp,16(sp)
  42bab4:	8f998414 	lw	t9,-31724(gp)
  42bab8:	0320f809 	jalr	t9
  42babc:	24040020 	li	a0,32
  42bac0:	8fbc0010 	lw	gp,16(sp)
  42bac4:	92020010 	lbu	v0,16(s0)
  42bac8:	30420008 	andi	v0,v0,0x8
  42bacc:	10400006 	beqz	v0,42bae8 <libip6t_rt_init@@Base+0xb40>
  42bad0:	00000000 	nop
[31m  42bad4:	8f9983f4 	lw	t9,printf[0m
  42bad8:	3c040043 	lui	a0,0x43
  42badc:	0320f809 	jalr	t9
  42bae0:	24847ce8 	addiu	a0,a0,31976
  42bae4:	8fbc0010 	lw	gp,16(sp)
  42bae8:	92020010 	lbu	v0,16(s0)
  42baec:	30420010 	andi	v0,v0,0x10
  42baf0:	10400004 	beqz	v0,42bb04 <libip6t_rt_init@@Base+0xb5c>
  42baf4:	3c040044 	lui	a0,0x44
[31m  42baf8:	8f9983f4 	lw	t9,printf[0m
  42bafc:	0320f809 	jalr	t9
  42bb00:	24849cd4 	addiu	a0,a0,-25388
  42bb04:	92040114 	lbu	a0,276(s0)
  42bb08:	0c10abf9 	jal	42afe4 <libip6t_rt_init@@Base+0x3c>
  42bb0c:	26050014 	addiu	a1,s0,20
  42bb10:	92020010 	lbu	v0,16(s0)
  42bb14:	8fbc0010 	lw	gp,16(sp)
  42bb18:	30420020 	andi	v0,v0,0x20
  42bb1c:	10400005 	beqz	v0,42bb34 <libip6t_rt_init@@Base+0xb8c>
  42bb20:	3c040044 	lui	a0,0x44
[31m  42bb24:	8f9983f4 	lw	t9,printf[0m
  42bb28:	0320f809 	jalr	t9
  42bb2c:	24849ce0 	addiu	a0,a0,-25376
  42bb30:	8fbc0010 	lw	gp,16(sp)
  42bb34:	92050011 	lbu	a1,17(s0)
  42bb38:	30a500f8 	andi	a1,a1,0xf8
  42bb3c:	10a0000b 	beqz	a1,42bb6c <libip6t_rt_init@@Base+0xbc4>
  42bb40:	3c040043 	lui	a0,0x43
[31m  42bb44:	8f9983f4 	lw	t9,printf[0m
  42bb48:	8fbf002c 	lw	ra,44(sp)
  42bb4c:	24840efc 	addiu	a0,a0,3836

[0m
[[0;33m*[0m] Function [0;33mprintf[0m used [0;33m738[0m times [0;33mip6tables[0m

