[[0;33m*[0m] Binary protection state of [0;33mhnap_push_service[0m
[REF] s12

  	RELRO          CANARY            NX           PIE       RPATH        RUNPATH      SYMBOLS      
  	[31mNo RELRO[0m       [31mNo Canary found[0m   [31mNX disabled[0m  [31mNo PIE[0m       [32mNo RPATH[0m     [32mNo RUNPATH[0m   [32mNo Symbols[0m

[0m
[[0;33m*[0m] Function [0;33msystem[0m tear down of [0;33mhnap_push_service[0m

  404070:	ac640000 	sw	a0,0(v1)
  404074:	3c040005 	lui	a0,0x5
  404078:	348444c0 	ori	a0,a0,0x44c0
  40407c:	009d2021 	addu	a0,a0,sp
  404080:	8c840000 	lw	a0,0(a0)
  404084:	24822a14 	addiu	v0,a0,10772
  404088:	3c040005 	lui	a0,0x5
  40408c:	348444c0 	ori	a0,a0,0x44c0
  404090:	009d2021 	addu	a0,a0,sp
  404094:	ac820000 	sw	v0,0(a0)
  404098:	8c640000 	lw	a0,0(v1)
  40409c:	3c030005 	lui	v1,0x5
  4040a0:	346344c8 	ori	v1,v1,0x44c8
  4040a4:	007d1821 	addu	v1,v1,sp
  4040a8:	8c630000 	lw	v1,0(v1)
  4040ac:	0083102a 	slt	v0,a0,v1
  4040b0:	1440fee3 	bnez	v0,403c40 <ReviewPolicyFromFile@@Base+0x1224>
  4040b4:	3c020005 	lui	v0,0x5
  4040b8:	3c040005 	lui	a0,0x5
  4040bc:	348444c4 	ori	a0,a0,0x44c4
  4040c0:	009d2021 	addu	a0,a0,sp
  4040c4:	8c840000 	lw	a0,0(a0)
  4040c8:	10800008 	beqz	a0,4040ec <ReviewPolicyFromFile@@Base+0x16d0>
  4040cc:	344244c4 	ori	v0,v0,0x44c4
  4040d0:	3c040041 	lui	a0,0x41
[31m  4040d4:	8f998188 	lw	t9,system[0m
  4040d8:	0320f809 	jalr	t9
  4040dc:	2484db6c 	addiu	a0,a0,-9364
  4040e0:	8fbc0010 	lw	gp,16(sp)
  4040e4:	1000000b 	b	404114 <ReviewPolicyFromFile@@Base+0x16f8>
  4040e8:	3c030005 	lui	v1,0x5
  4040ec:	005d1021 	addu	v0,v0,sp
  4040f0:	8c420000 	lw	v0,0(v0)
  4040f4:	14400007 	bnez	v0,404114 <ReviewPolicyFromFile@@Base+0x16f8>
  4040f8:	3c030005 	lui	v1,0x5
  4040fc:	3c040041 	lui	a0,0x41
[31m  404100:	8f998188 	lw	t9,system[0m
  404104:	0320f809 	jalr	t9
  404108:	2484dbb4 	addiu	a0,a0,-9292
  40410c:	8fbc0010 	lw	gp,16(sp)
  404110:	3c030005 	lui	v1,0x5
  404114:	346344cc 	ori	v1,v1,0x44cc
  404118:	007d1821 	addu	v1,v1,sp
  40411c:	8c630000 	lw	v1,0(v1)
  404120:	10600007 	beqz	v1,404140 <ReviewPolicyFromFile@@Base+0x1724>
  404124:	3c040041 	lui	a0,0x41
[31m  404128:	8f998188 	lw	t9,system[0m
  40412c:	0320f809 	jalr	t9
  404130:	2484dbfc 	addiu	a0,a0,-9220
  404134:	8fbc0010 	lw	gp,16(sp)
  404138:	1000000d 	b	404170 <ReviewPolicyFromFile@@Base+0x1754>
  40413c:	3c020005 	lui	v0,0x5
  404140:	3c040005 	lui	a0,0x5
  404144:	348444cc 	ori	a0,a0,0x44cc
  404148:	009d2021 	addu	a0,a0,sp
  40414c:	8c840000 	lw	a0,0(a0)
  404150:	14800007 	bnez	a0,404170 <ReviewPolicyFromFile@@Base+0x1754>
  404154:	3c020005 	lui	v0,0x5
  404158:	3c040041 	lui	a0,0x41
[31m  40415c:	8f998188 	lw	t9,system[0m
  404160:	0320f809 	jalr	t9
  404164:	2484dc48 	addiu	a0,a0,-9144
  404168:	8fbc0010 	lw	gp,16(sp)
  40416c:	3c020005 	lui	v0,0x5
  404170:	344244d0 	ori	v0,v0,0x44d0
  404174:	005d1021 	addu	v0,v0,sp
  404178:	8c420000 	lw	v0,0(v0)
  40417c:	10400007 	beqz	v0,40419c <ReviewPolicyFromFile@@Base+0x1780>
  404180:	3c030005 	lui	v1,0x5
  404184:	3c040041 	lui	a0,0x41
[31m  404188:	8f998188 	lw	t9,system[0m
  40418c:	0320f809 	jalr	t9
  404190:	2484dc94 	addiu	a0,a0,-9068
  404194:	1000000b 	b	4041c4 <ReviewPolicyFromFile@@Base+0x17a8>
  404198:	00001021 	move	v0,zero
  40419c:	346344d0 	ori	v1,v1,0x44d0
  4041a0:	007d1821 	addu	v1,v1,sp
  4041a4:	8c630000 	lw	v1,0(v1)
  4041a8:	14600006 	bnez	v1,4041c4 <ReviewPolicyFromFile@@Base+0x17a8>
  4041ac:	00001021 	move	v0,zero
  4041b0:	3c040041 	lui	a0,0x41
[31m  4041b4:	8f998188 	lw	t9,system[0m
  4041b8:	0320f809 	jalr	t9
  4041bc:	2484dce0 	addiu	a0,a0,-8992
--
  405e54:	8f998128 	lw	t9,-32472(gp)
  405e58:	0320f809 	jalr	t9
  405e5c:	24a5dd90 	addiu	a1,a1,-8816
  405e60:	8fbc0020 	lw	gp,32(sp)
  405e64:	36f04598 	ori	s0,s7,0x4598
  405e68:	02908021 	addu	s0,s4,s0
  405e6c:	8ec2ffb8 	lw	v0,-72(s6)
  405e70:	afa20010 	sw	v0,16(sp)
  405e74:	afb30014 	sw	s3,20(sp)
  405e78:	3c040005 	lui	a0,0x5
  405e7c:	348446ec 	ori	a0,a0,0x46ec
  405e80:	009d2021 	addu	a0,a0,sp
  405e84:	8c840000 	lw	a0,0(a0)
  405e88:	afa40018 	sw	a0,24(sp)
  405e8c:	02002021 	move	a0,s0
  405e90:	3c050041 	lui	a1,0x41
  405e94:	24a5ddcc 	addiu	a1,a1,-8756
  405e98:	3c020005 	lui	v0,0x5
  405e9c:	344246f0 	ori	v0,v0,0x46f0
  405ea0:	005d1021 	addu	v0,v0,sp
  405ea4:	8c470000 	lw	a3,0(v0)
  405ea8:	8f998084 	lw	t9,-32636(gp)
  405eac:	0320f809 	jalr	t9
  405eb0:	00003021 	move	a2,zero
  405eb4:	8fbc0020 	lw	gp,32(sp)
[31m  405eb8:	8f998188 	lw	t9,system[0m
  405ebc:	0320f809 	jalr	t9
  405ec0:	02002021 	move	a0,s0
--
  405f74:	8f998128 	lw	t9,-32472(gp)
  405f78:	0320f809 	jalr	t9
  405f7c:	24a5de24 	addiu	a1,a1,-8668
  405f80:	8fbc0020 	lw	gp,32(sp)
  405f84:	36f04598 	ori	s0,s7,0x4598
  405f88:	02908021 	addu	s0,s4,s0
  405f8c:	8ec2ffb8 	lw	v0,-72(s6)
  405f90:	afa20010 	sw	v0,16(sp)
  405f94:	afb30014 	sw	s3,20(sp)
  405f98:	3c040005 	lui	a0,0x5
  405f9c:	348446ec 	ori	a0,a0,0x46ec
  405fa0:	009d2021 	addu	a0,a0,sp
  405fa4:	8c840000 	lw	a0,0(a0)
  405fa8:	afa40018 	sw	a0,24(sp)
  405fac:	02002021 	move	a0,s0
  405fb0:	3c050041 	lui	a1,0x41
  405fb4:	24a5ddcc 	addiu	a1,a1,-8756
  405fb8:	3c020005 	lui	v0,0x5
  405fbc:	344246f0 	ori	v0,v0,0x46f0
  405fc0:	005d1021 	addu	v0,v0,sp
  405fc4:	8c470000 	lw	a3,0(v0)
  405fc8:	8f998084 	lw	t9,-32636(gp)
  405fcc:	0320f809 	jalr	t9
  405fd0:	24060001 	li	a2,1
  405fd4:	8fbc0020 	lw	gp,32(sp)
[31m  405fd8:	8f998188 	lw	t9,system[0m
  405fdc:	0320f809 	jalr	t9
  405fe0:	02002021 	move	a0,s0
--
  406094:	8f998128 	lw	t9,-32472(gp)
  406098:	0320f809 	jalr	t9
  40609c:	24a5de64 	addiu	a1,a1,-8604
  4060a0:	8fbc0020 	lw	gp,32(sp)
  4060a4:	36f04598 	ori	s0,s7,0x4598
  4060a8:	02908021 	addu	s0,s4,s0
  4060ac:	8ec2ffb8 	lw	v0,-72(s6)
  4060b0:	afa20010 	sw	v0,16(sp)
  4060b4:	afb30014 	sw	s3,20(sp)
  4060b8:	3c040005 	lui	a0,0x5
  4060bc:	348446ec 	ori	a0,a0,0x46ec
  4060c0:	009d2021 	addu	a0,a0,sp
  4060c4:	8c840000 	lw	a0,0(a0)
  4060c8:	afa40018 	sw	a0,24(sp)
  4060cc:	02002021 	move	a0,s0
  4060d0:	3c050041 	lui	a1,0x41
  4060d4:	24a5dea4 	addiu	a1,a1,-8540
  4060d8:	3c020005 	lui	v0,0x5
  4060dc:	344246f0 	ori	v0,v0,0x46f0
  4060e0:	005d1021 	addu	v0,v0,sp
  4060e4:	8c470000 	lw	a3,0(v0)
  4060e8:	8f998084 	lw	t9,-32636(gp)
  4060ec:	0320f809 	jalr	t9
  4060f0:	00003021 	move	a2,zero
  4060f4:	8fbc0020 	lw	gp,32(sp)
[31m  4060f8:	8f998188 	lw	t9,system[0m
  4060fc:	0320f809 	jalr	t9
  406100:	02002021 	move	a0,s0
--
  4061b4:	8f998128 	lw	t9,-32472(gp)
  4061b8:	0320f809 	jalr	t9
  4061bc:	24a5df00 	addiu	a1,a1,-8448
  4061c0:	8fbc0020 	lw	gp,32(sp)
  4061c4:	36f04598 	ori	s0,s7,0x4598
  4061c8:	02908021 	addu	s0,s4,s0
  4061cc:	8ec2ffb8 	lw	v0,-72(s6)
  4061d0:	afa20010 	sw	v0,16(sp)
  4061d4:	afb30014 	sw	s3,20(sp)
  4061d8:	3c040005 	lui	a0,0x5
  4061dc:	348446ec 	ori	a0,a0,0x46ec
  4061e0:	009d2021 	addu	a0,a0,sp
  4061e4:	8c840000 	lw	a0,0(a0)
  4061e8:	afa40018 	sw	a0,24(sp)
  4061ec:	02002021 	move	a0,s0
  4061f0:	3c050041 	lui	a1,0x41
  4061f4:	24a5dea4 	addiu	a1,a1,-8540
  4061f8:	3c020005 	lui	v0,0x5
  4061fc:	344246f0 	ori	v0,v0,0x46f0
  406200:	005d1021 	addu	v0,v0,sp
  406204:	8c470000 	lw	a3,0(v0)
  406208:	8f998084 	lw	t9,-32636(gp)
  40620c:	0320f809 	jalr	t9
  406210:	24060001 	li	a2,1
  406214:	8fbc0020 	lw	gp,32(sp)
[31m  406218:	8f998188 	lw	t9,system[0m
  40621c:	0320f809 	jalr	t9
  406220:	02002021 	move	a0,s0
--
  406344:	36e44598 	ori	a0,s7,0x4598
  406348:	3c040041 	lui	a0,0x41
  40634c:	8f99805c 	lw	t9,-32676(gp)
  406350:	0320f809 	jalr	t9
  406354:	2484d460 	addiu	a0,a0,-11168
  406358:	8fbc0020 	lw	gp,32(sp)
  40635c:	16020011 	bne	s0,v0,4063a4 <PushDCHEventNotifyCheck@@Base+0x1b84>
  406360:	3c020005 	lui	v0,0x5
  406364:	36e44598 	ori	a0,s7,0x4598
  406368:	344246ec 	ori	v0,v0,0x46ec
  40636c:	005d1021 	addu	v0,v0,sp
  406370:	8c420000 	lw	v0,0(v0)
  406374:	afa20010 	sw	v0,16(sp)
  406378:	02842021 	addu	a0,s4,a0
  40637c:	3c050041 	lui	a1,0x41
  406380:	24a5dfd4 	addiu	a1,a1,-8236
  406384:	3c030005 	lui	v1,0x5
  406388:	34634750 	ori	v1,v1,0x4750
  40638c:	007d1821 	addu	v1,v1,sp
  406390:	8c660000 	lw	a2,0(v1)
  406394:	8f998084 	lw	t9,-32636(gp)
  406398:	0320f809 	jalr	t9
  40639c:	02603821 	move	a3,s3
  4063a0:	8fbc0020 	lw	gp,32(sp)
  4063a4:	36e44598 	ori	a0,s7,0x4598
[31m  4063a8:	8f998188 	lw	t9,system[0m
  4063ac:	0320f809 	jalr	t9
  4063b0:	02842021 	addu	a0,s4,a0
--
  4064c8:	36e44598 	ori	a0,s7,0x4598
  4064cc:	3c040041 	lui	a0,0x41
  4064d0:	8f99805c 	lw	t9,-32676(gp)
  4064d4:	0320f809 	jalr	t9
  4064d8:	2484d460 	addiu	a0,a0,-11168
  4064dc:	8fbc0020 	lw	gp,32(sp)
  4064e0:	16020011 	bne	s0,v0,406528 <PushDCHEventNotifyCheck@@Base+0x1d08>
  4064e4:	3c030005 	lui	v1,0x5
  4064e8:	36e44598 	ori	a0,s7,0x4598
  4064ec:	346346ec 	ori	v1,v1,0x46ec
  4064f0:	007d1821 	addu	v1,v1,sp
  4064f4:	8c630000 	lw	v1,0(v1)
  4064f8:	afa30010 	sw	v1,16(sp)
  4064fc:	02842021 	addu	a0,s4,a0
  406500:	3c050041 	lui	a1,0x41
  406504:	24a5dfd4 	addiu	a1,a1,-8236
  406508:	3c020005 	lui	v0,0x5
  40650c:	34424750 	ori	v0,v0,0x4750
  406510:	005d1021 	addu	v0,v0,sp
  406514:	8c460000 	lw	a2,0(v0)
  406518:	8f998084 	lw	t9,-32636(gp)
  40651c:	0320f809 	jalr	t9
  406520:	02603821 	move	a3,s3
  406524:	8fbc0020 	lw	gp,32(sp)
  406528:	36e44598 	ori	a0,s7,0x4598
[31m  40652c:	8f998188 	lw	t9,system[0m
  406530:	0320f809 	jalr	t9
  406534:	02842021 	addu	a0,s4,a0
--
  4065d8:	8f998128 	lw	t9,-32472(gp)
  4065dc:	0320f809 	jalr	t9
  4065e0:	24a5e068 	addiu	a1,a1,-8088
  4065e4:	8fbc0020 	lw	gp,32(sp)
  4065e8:	36f04598 	ori	s0,s7,0x4598
  4065ec:	02908021 	addu	s0,s4,s0
  4065f0:	8ec2ffb8 	lw	v0,-72(s6)
  4065f4:	afa20010 	sw	v0,16(sp)
  4065f8:	afb30014 	sw	s3,20(sp)
  4065fc:	3c030005 	lui	v1,0x5
  406600:	346346ec 	ori	v1,v1,0x46ec
  406604:	007d1821 	addu	v1,v1,sp
  406608:	8c630000 	lw	v1,0(v1)
  40660c:	afa30018 	sw	v1,24(sp)
  406610:	02002021 	move	a0,s0
  406614:	3c050041 	lui	a1,0x41
  406618:	24a5ddcc 	addiu	a1,a1,-8756
  40661c:	3c020005 	lui	v0,0x5
  406620:	344246f0 	ori	v0,v0,0x46f0
  406624:	005d1021 	addu	v0,v0,sp
  406628:	8c470000 	lw	a3,0(v0)
  40662c:	8f998084 	lw	t9,-32636(gp)
  406630:	0320f809 	jalr	t9
  406634:	24060004 	li	a2,4
  406638:	8fbc0020 	lw	gp,32(sp)
[31m  40663c:	8f998188 	lw	t9,system[0m
  406640:	0320f809 	jalr	t9
  406644:	02002021 	move	a0,s0
--
  4066e8:	8f998128 	lw	t9,-32472(gp)
  4066ec:	0320f809 	jalr	t9
  4066f0:	24a5e0a8 	addiu	a1,a1,-8024
  4066f4:	8fbc0020 	lw	gp,32(sp)
  4066f8:	36f04598 	ori	s0,s7,0x4598
  4066fc:	02908021 	addu	s0,s4,s0
  406700:	8ec2ffb8 	lw	v0,-72(s6)
  406704:	afa20010 	sw	v0,16(sp)
  406708:	afb30014 	sw	s3,20(sp)
  40670c:	3c030005 	lui	v1,0x5
  406710:	346346ec 	ori	v1,v1,0x46ec
  406714:	007d1821 	addu	v1,v1,sp
  406718:	8c630000 	lw	v1,0(v1)
  40671c:	afa30018 	sw	v1,24(sp)
  406720:	02002021 	move	a0,s0
  406724:	3c050041 	lui	a1,0x41
  406728:	24a5dea4 	addiu	a1,a1,-8540
  40672c:	3c020005 	lui	v0,0x5
  406730:	344246f0 	ori	v0,v0,0x46f0
  406734:	005d1021 	addu	v0,v0,sp
  406738:	8c470000 	lw	a3,0(v0)
  40673c:	8f998084 	lw	t9,-32636(gp)
  406740:	0320f809 	jalr	t9
  406744:	24060004 	li	a2,4
  406748:	8fbc0020 	lw	gp,32(sp)
[31m  40674c:	8f998188 	lw	t9,system[0m
  406750:	0320f809 	jalr	t9
  406754:	02002021 	move	a0,s0
--
  4067dc:	009d2021 	addu	a0,a0,sp
  4067e0:	8c820000 	lw	v0,0(a0)
  4067e4:	02831821 	addu	v1,s4,v1
  4067e8:	8c470000 	lw	a3,0(v0)
  4067ec:	8c460004 	lw	a2,4(v0)
  4067f0:	8c450008 	lw	a1,8(v0)
  4067f4:	8c44000c 	lw	a0,12(v0)
  4067f8:	ac670000 	sw	a3,0(v1)
  4067fc:	ac660004 	sw	a2,4(v1)
  406800:	ac650008 	sw	a1,8(v1)
  406804:	ac64000c 	sw	a0,12(v1)
  406808:	24420010 	addiu	v0,v0,16
  40680c:	3c040005 	lui	a0,0x5
  406810:	34844714 	ori	a0,a0,0x4714
  406814:	009d2021 	addu	a0,a0,sp
  406818:	8c840000 	lw	a0,0(a0)
  40681c:	1444fff2 	bne	v0,a0,4067e8 <PushDCHEventNotifyCheck@@Base+0x1fc8>
  406820:	24630010 	addiu	v1,v1,16
  406824:	8c450000 	lw	a1,0(v0)
  406828:	8c440004 	lw	a0,4(v0)
  40682c:	ac650000 	sw	a1,0(v1)
  406830:	ac640004 	sw	a0,4(v1)
  406834:	94420008 	lhu	v0,8(v0)
  406838:	a4620008 	sh	v0,8(v1)
  40683c:	36e44598 	ori	a0,s7,0x4598
[31m  406840:	8f998188 	lw	t9,system[0m
  406844:	0320f809 	jalr	t9
  406848:	02842021 	addu	a0,s4,a0
--
  4068c0:	8fbc0020 	lw	gp,32(sp)
  4068c4:	36e34598 	ori	v1,s7,0x4598
  4068c8:	3c040005 	lui	a0,0x5
  4068cc:	34844710 	ori	a0,a0,0x4710
  4068d0:	009d2021 	addu	a0,a0,sp
  4068d4:	8c820000 	lw	v0,0(a0)
  4068d8:	02831821 	addu	v1,s4,v1
  4068dc:	8c470000 	lw	a3,0(v0)
  4068e0:	8c460004 	lw	a2,4(v0)
  4068e4:	8c450008 	lw	a1,8(v0)
  4068e8:	8c44000c 	lw	a0,12(v0)
  4068ec:	ac670000 	sw	a3,0(v1)
  4068f0:	ac660004 	sw	a2,4(v1)
  4068f4:	ac650008 	sw	a1,8(v1)
  4068f8:	ac64000c 	sw	a0,12(v1)
  4068fc:	24420010 	addiu	v0,v0,16
  406900:	3c040005 	lui	a0,0x5
  406904:	34844718 	ori	a0,a0,0x4718
  406908:	009d2021 	addu	a0,a0,sp
  40690c:	8c840000 	lw	a0,0(a0)
  406910:	1444fff2 	bne	v0,a0,4068dc <PushDCHEventNotifyCheck@@Base+0x20bc>
  406914:	24630010 	addiu	v1,v1,16
  406918:	90420000 	lbu	v0,0(v0)
  40691c:	a0620000 	sb	v0,0(v1)
  406920:	36e44598 	ori	a0,s7,0x4598
[31m  406924:	8f998188 	lw	t9,system[0m
  406928:	0320f809 	jalr	t9
  40692c:	02842021 	addu	a0,s4,a0
--
  409454:	afa20010 	sw	v0,16(sp)
  409458:	afb40014 	sw	s4,20(sp)
  40945c:	3c030005 	lui	v1,0x5
  409460:	34636e24 	ori	v1,v1,0x6e24
  409464:	007d1821 	addu	v1,v1,sp
  409468:	8c630000 	lw	v1,0(v1)
  40946c:	afa30018 	sw	v1,24(sp)
  409470:	3c020005 	lui	v0,0x5
  409474:	34426e10 	ori	v0,v0,0x6e10
  409478:	005d1021 	addu	v0,v0,sp
  40947c:	8c440000 	lw	a0,0(v0)
  409480:	3c050041 	lui	a1,0x41
  409484:	24a5ddcc 	addiu	a1,a1,-8756
  409488:	3c030005 	lui	v1,0x5
  40948c:	34636e28 	ori	v1,v1,0x6e28
  409490:	007d1821 	addu	v1,v1,sp
  409494:	8c670000 	lw	a3,0(v1)
  409498:	8f998084 	lw	t9,-32636(gp)
  40949c:	0320f809 	jalr	t9
  4094a0:	00003021 	move	a2,zero
  4094a4:	8fbc0020 	lw	gp,32(sp)
  4094a8:	3c020005 	lui	v0,0x5
  4094ac:	34426e10 	ori	v0,v0,0x6e10
  4094b0:	005d1021 	addu	v0,v0,sp
  4094b4:	8c440000 	lw	a0,0(v0)
[31m  4094b8:	8f998188 	lw	t9,system[0m
  4094bc:	0320f809 	jalr	t9
  4094c0:	26310001 	addiu	s1,s1,1
--
  409598:	afa20010 	sw	v0,16(sp)
  40959c:	afb40014 	sw	s4,20(sp)
  4095a0:	3c040005 	lui	a0,0x5
  4095a4:	34846e24 	ori	a0,a0,0x6e24
  4095a8:	009d2021 	addu	a0,a0,sp
  4095ac:	8c840000 	lw	a0,0(a0)
  4095b0:	afa40018 	sw	a0,24(sp)
  4095b4:	3c020005 	lui	v0,0x5
  4095b8:	34426e10 	ori	v0,v0,0x6e10
  4095bc:	005d1021 	addu	v0,v0,sp
  4095c0:	8c440000 	lw	a0,0(v0)
  4095c4:	3c050041 	lui	a1,0x41
  4095c8:	24a5ddcc 	addiu	a1,a1,-8756
  4095cc:	3c030005 	lui	v1,0x5
  4095d0:	34636e28 	ori	v1,v1,0x6e28
  4095d4:	007d1821 	addu	v1,v1,sp
  4095d8:	8c670000 	lw	a3,0(v1)
  4095dc:	8f998084 	lw	t9,-32636(gp)
  4095e0:	0320f809 	jalr	t9
  4095e4:	24060001 	li	a2,1
  4095e8:	8fbc0020 	lw	gp,32(sp)
  4095ec:	3c020005 	lui	v0,0x5
  4095f0:	34426e10 	ori	v0,v0,0x6e10
  4095f4:	005d1021 	addu	v0,v0,sp
  4095f8:	8c440000 	lw	a0,0(v0)
[31m  4095fc:	8f998188 	lw	t9,system[0m
  409600:	0320f809 	jalr	t9
  409604:	26310001 	addiu	s1,s1,1
--
  4096dc:	afa20010 	sw	v0,16(sp)
  4096e0:	afb40014 	sw	s4,20(sp)
  4096e4:	3c040005 	lui	a0,0x5
  4096e8:	34846e24 	ori	a0,a0,0x6e24
  4096ec:	009d2021 	addu	a0,a0,sp
  4096f0:	8c840000 	lw	a0,0(a0)
  4096f4:	afa40018 	sw	a0,24(sp)
  4096f8:	3c020005 	lui	v0,0x5
  4096fc:	34426e10 	ori	v0,v0,0x6e10
  409700:	005d1021 	addu	v0,v0,sp
  409704:	8c440000 	lw	a0,0(v0)
  409708:	3c050041 	lui	a1,0x41
  40970c:	24a5dea4 	addiu	a1,a1,-8540
  409710:	3c030005 	lui	v1,0x5
  409714:	34636e28 	ori	v1,v1,0x6e28
  409718:	007d1821 	addu	v1,v1,sp
  40971c:	8c670000 	lw	a3,0(v1)
  409720:	8f998084 	lw	t9,-32636(gp)
  409724:	0320f809 	jalr	t9
  409728:	00003021 	move	a2,zero
  40972c:	8fbc0020 	lw	gp,32(sp)
  409730:	3c020005 	lui	v0,0x5
  409734:	34426e10 	ori	v0,v0,0x6e10
  409738:	005d1021 	addu	v0,v0,sp
  40973c:	8c440000 	lw	a0,0(v0)
[31m  409740:	8f998188 	lw	t9,system[0m
  409744:	0320f809 	jalr	t9
  409748:	26310001 	addiu	s1,s1,1
--
  409820:	afa20010 	sw	v0,16(sp)
  409824:	afb40014 	sw	s4,20(sp)
  409828:	3c040005 	lui	a0,0x5
  40982c:	34846e24 	ori	a0,a0,0x6e24
  409830:	009d2021 	addu	a0,a0,sp
  409834:	8c840000 	lw	a0,0(a0)
  409838:	afa40018 	sw	a0,24(sp)
  40983c:	3c020005 	lui	v0,0x5
  409840:	34426e10 	ori	v0,v0,0x6e10
  409844:	005d1021 	addu	v0,v0,sp
  409848:	8c440000 	lw	a0,0(v0)
  40984c:	3c050041 	lui	a1,0x41
  409850:	24a5dea4 	addiu	a1,a1,-8540
  409854:	3c030005 	lui	v1,0x5
  409858:	34636e28 	ori	v1,v1,0x6e28
  40985c:	007d1821 	addu	v1,v1,sp
  409860:	8c670000 	lw	a3,0(v1)
  409864:	8f998084 	lw	t9,-32636(gp)
  409868:	0320f809 	jalr	t9
  40986c:	24060001 	li	a2,1
  409870:	8fbc0020 	lw	gp,32(sp)
  409874:	3c020005 	lui	v0,0x5
  409878:	34426e10 	ori	v0,v0,0x6e10
  40987c:	005d1021 	addu	v0,v0,sp
  409880:	8c440000 	lw	a0,0(v0)
[31m  409884:	8f998188 	lw	t9,system[0m
  409888:	0320f809 	jalr	t9
  40988c:	26310001 	addiu	s1,s1,1
--
  409964:	afa20010 	sw	v0,16(sp)
  409968:	afb40014 	sw	s4,20(sp)
  40996c:	3c040005 	lui	a0,0x5
  409970:	34846e24 	ori	a0,a0,0x6e24
  409974:	009d2021 	addu	a0,a0,sp
  409978:	8c840000 	lw	a0,0(a0)
  40997c:	afa40018 	sw	a0,24(sp)
  409980:	3c020005 	lui	v0,0x5
  409984:	34426e10 	ori	v0,v0,0x6e10
  409988:	005d1021 	addu	v0,v0,sp
  40998c:	8c440000 	lw	a0,0(v0)
  409990:	3c050041 	lui	a1,0x41
  409994:	24a5ddcc 	addiu	a1,a1,-8756
  409998:	3c030005 	lui	v1,0x5
  40999c:	34636e28 	ori	v1,v1,0x6e28
  4099a0:	007d1821 	addu	v1,v1,sp
  4099a4:	8c670000 	lw	a3,0(v1)
  4099a8:	8f998084 	lw	t9,-32636(gp)
  4099ac:	0320f809 	jalr	t9
  4099b0:	24060004 	li	a2,4
  4099b4:	8fbc0020 	lw	gp,32(sp)
  4099b8:	3c020005 	lui	v0,0x5
  4099bc:	34426e10 	ori	v0,v0,0x6e10
  4099c0:	005d1021 	addu	v0,v0,sp
  4099c4:	8c440000 	lw	a0,0(v0)
[31m  4099c8:	8f998188 	lw	t9,system[0m
  4099cc:	0320f809 	jalr	t9
  4099d0:	26310001 	addiu	s1,s1,1
--
  409a9c:	afa20010 	sw	v0,16(sp)
  409aa0:	afb40014 	sw	s4,20(sp)
  409aa4:	3c030005 	lui	v1,0x5
  409aa8:	34636e24 	ori	v1,v1,0x6e24
  409aac:	007d1821 	addu	v1,v1,sp
  409ab0:	8c630000 	lw	v1,0(v1)
  409ab4:	afa30018 	sw	v1,24(sp)
  409ab8:	3c020005 	lui	v0,0x5
  409abc:	34426e10 	ori	v0,v0,0x6e10
  409ac0:	005d1021 	addu	v0,v0,sp
  409ac4:	8c440000 	lw	a0,0(v0)
  409ac8:	3c050041 	lui	a1,0x41
  409acc:	24a5dea4 	addiu	a1,a1,-8540
  409ad0:	3c030005 	lui	v1,0x5
  409ad4:	34636e28 	ori	v1,v1,0x6e28
  409ad8:	007d1821 	addu	v1,v1,sp
  409adc:	8c670000 	lw	a3,0(v1)
  409ae0:	8f998084 	lw	t9,-32636(gp)
  409ae4:	0320f809 	jalr	t9
  409ae8:	24060004 	li	a2,4
  409aec:	8fbc0020 	lw	gp,32(sp)
  409af0:	3c020005 	lui	v0,0x5
  409af4:	34426e10 	ori	v0,v0,0x6e10
  409af8:	005d1021 	addu	v0,v0,sp
  409afc:	8c440000 	lw	a0,0(v0)
[31m  409b00:	8f998188 	lw	t9,system[0m
  409b04:	0320f809 	jalr	t9
  409b08:	26310001 	addiu	s1,s1,1
--
  409bb8:	8c470000 	lw	a3,0(v0)
  409bbc:	8c460004 	lw	a2,4(v0)
  409bc0:	8c450008 	lw	a1,8(v0)
  409bc4:	8c44000c 	lw	a0,12(v0)
  409bc8:	ac670000 	sw	a3,0(v1)
  409bcc:	ac660004 	sw	a2,4(v1)
  409bd0:	ac650008 	sw	a1,8(v1)
  409bd4:	ac64000c 	sw	a0,12(v1)
  409bd8:	24420010 	addiu	v0,v0,16
  409bdc:	3c040005 	lui	a0,0x5
  409be0:	34846e64 	ori	a0,a0,0x6e64
  409be4:	009d2021 	addu	a0,a0,sp
  409be8:	8c840000 	lw	a0,0(a0)
  409bec:	1444fff2 	bne	v0,a0,409bb8 <PushDCHEventNotifyCheck@@Base+0x5398>
  409bf0:	24630010 	addiu	v1,v1,16
  409bf4:	8c450000 	lw	a1,0(v0)
  409bf8:	8c440004 	lw	a0,4(v0)
  409bfc:	ac650000 	sw	a1,0(v1)
  409c00:	ac640004 	sw	a0,4(v1)
  409c04:	94420008 	lhu	v0,8(v0)
  409c08:	a4620008 	sh	v0,8(v1)
  409c0c:	3c020005 	lui	v0,0x5
  409c10:	34426e10 	ori	v0,v0,0x6e10
  409c14:	005d1021 	addu	v0,v0,sp
  409c18:	8c440000 	lw	a0,0(v0)
[31m  409c1c:	8f998188 	lw	t9,system[0m
  409c20:	0320f809 	jalr	t9
  409c24:	26310001 	addiu	s1,s1,1
--
  409cc4:	3c040005 	lui	a0,0x5
  409cc8:	34846e10 	ori	a0,a0,0x6e10
  409ccc:	009d2021 	addu	a0,a0,sp
  409cd0:	8c830000 	lw	v1,0(a0)
  409cd4:	8c470000 	lw	a3,0(v0)
  409cd8:	8c460004 	lw	a2,4(v0)
  409cdc:	8c450008 	lw	a1,8(v0)
  409ce0:	8c44000c 	lw	a0,12(v0)
  409ce4:	ac670000 	sw	a3,0(v1)
  409ce8:	ac660004 	sw	a2,4(v1)
  409cec:	ac650008 	sw	a1,8(v1)
  409cf0:	ac64000c 	sw	a0,12(v1)
  409cf4:	24420010 	addiu	v0,v0,16
  409cf8:	3c040005 	lui	a0,0x5
  409cfc:	34846e60 	ori	a0,a0,0x6e60
  409d00:	009d2021 	addu	a0,a0,sp
  409d04:	8c840000 	lw	a0,0(a0)
  409d08:	1444fff2 	bne	v0,a0,409cd4 <PushDCHEventNotifyCheck@@Base+0x54b4>
  409d0c:	24630010 	addiu	v1,v1,16
  409d10:	90420000 	lbu	v0,0(v0)
  409d14:	a0620000 	sb	v0,0(v1)
  409d18:	3c020005 	lui	v0,0x5
  409d1c:	34426e10 	ori	v0,v0,0x6e10
  409d20:	005d1021 	addu	v0,v0,sp
  409d24:	8c440000 	lw	a0,0(v0)
[31m  409d28:	8f998188 	lw	t9,system[0m
  409d2c:	0320f809 	jalr	t9
  409d30:	00000000 	nop
--
  40c04c:	a2000005 	sb	zero,5(s0)
  40c050:	00001021 	move	v0,zero
  40c054:	8fbf002c 	lw	ra,44(sp)
  40c058:	8fb20028 	lw	s2,40(sp)
  40c05c:	8fb10024 	lw	s1,36(sp)
  40c060:	8fb00020 	lw	s0,32(sp)
  40c064:	03e00008 	jr	ra
  40c068:	27bd0030 	addiu	sp,sp,48
  40c06c:	27bdffd8 	addiu	sp,sp,-40
  40c070:	afbf0024 	sw	ra,36(sp)
  40c074:	afb10020 	sw	s1,32(sp)
  40c078:	afb0001c 	sw	s0,28(sp)
  40c07c:	3c1c0042 	lui	gp,0x42
  40c080:	279c7430 	addiu	gp,gp,29744
  40c084:	afbc0010 	sw	gp,16(sp)
  40c088:	8f908080 	lw	s0,-32640(gp)
  40c08c:	8e040000 	lw	a0,0(s0)
  40c090:	3c050041 	lui	a1,0x41
  40c094:	24a5ef2c 	addiu	a1,a1,-4308
  40c098:	3c110041 	lui	s1,0x41
  40c09c:	8f998128 	lw	t9,-32472(gp)
  40c0a0:	0320f809 	jalr	t9
  40c0a4:	2626f234 	addiu	a2,s1,-3532
  40c0a8:	8fbc0010 	lw	gp,16(sp)
  40c0ac:	3c040041 	lui	a0,0x41
[31m  40c0b0:	8f998188 	lw	t9,system[0m
  40c0b4:	0320f809 	jalr	t9
  40c0b8:	2484ef4c 	addiu	a0,a0,-4276
  40c0bc:	8fbc0010 	lw	gp,16(sp)
  40c0c0:	3c040041 	lui	a0,0x41
[31m  40c0c4:	8f998188 	lw	t9,system[0m
  40c0c8:	0320f809 	jalr	t9
  40c0cc:	2484efbc 	addiu	a0,a0,-4164

[0m
[[0;33m*[0m] Function [0;33msystem[0m used [0;33m26[0m times [0;33mhnap_push_service[0m

