[[0;33m*[0m] Binary protection state of [0;33mntpclient[0m
[REF] s12

  	RELRO          CANARY            NX           PIE       RPATH        RUNPATH      SYMBOLS      
  	[31mNo RELRO[0m       [31mNo Canary found[0m   [31mNX disabled[0m  [31mNo PIE[0m       [32mNo RPATH[0m     [32mNo RUNPATH[0m   [32mNo Symbols[0m

[0m
[[0;33m*[0m] Function [0;33mprintf[0m tear down of [0;33mntpclient[0m

  4013c4:	8fbc0038 	lw	gp,56(sp)
  4013c8:	00408821 	move	s1,v0
  4013cc:	8e420018 	lw	v0,24(s2)
  4013d0:	06210008 	bgez	s1,4013f4 <_ftext@@Base+0x6c4>
  4013d4:	afa20180 	sw	v0,384(sp)
  4013d8:	3c040040 	lui	a0,0x40
  4013dc:	8f9980f0 	lw	t9,-32528(gp)
  4013e0:	0320f809 	jalr	t9
  4013e4:	2484447c 	addiu	a0,a0,17532
  4013e8:	8fbc0038 	lw	gp,56(sp)
  4013ec:	1000027f 	b	401dec <_ftext@@Base+0x10bc>
  4013f0:	00000000 	nop
  4013f4:	2622ffff 	addiu	v0,s1,-1
  4013f8:	2c420513 	sltiu	v0,v0,1299
  4013fc:	10400270 	beqz	v0,401dc0 <_ftext@@Base+0x1090>
  401400:	3c040040 	lui	a0,0x40
  401404:	27a400dc 	addiu	a0,sp,220
  401408:	0c10041a 	jal	401068 <_ftext@@Base+0x338>
  40140c:	27a500e0 	addiu	a1,sp,224
  401410:	8fbc0038 	lw	gp,56(sp)
  401414:	8ee25190 	lw	v0,20880(s7)
  401418:	1040001f 	beqz	v0,401498 <_ftext@@Base+0x768>
  40141c:	00000000 	nop
  401420:	3c040040 	lui	a0,0x40
  401424:	24844488 	addiu	a0,a0,17544
[31m  401428:	8f998118 	lw	t9,printf[0m
  40142c:	0320f809 	jalr	t9
  401430:	02202821 	move	a1,s1
  401434:	8fbc0038 	lw	gp,56(sp)
  401438:	97a500c0 	lhu	a1,192(sp)
  40143c:	24020002 	li	v0,2
  401440:	14a20010 	bne	a1,v0,401484 <_ftext@@Base+0x754>
  401444:	00000000 	nop
  401448:	97b100c2 	lhu	s1,194(sp)
  40144c:	8fa400c4 	lw	a0,196(sp)
  401450:	8f998078 	lw	t9,-32648(gp)
  401454:	0320f809 	jalr	t9
  401458:	00000000 	nop
  40145c:	8fbc0038 	lw	gp,56(sp)
  401460:	3c040040 	lui	a0,0x40
  401464:	248444a8 	addiu	a0,a0,17576
  401468:	02202821 	move	a1,s1
[31m  40146c:	8f998118 	lw	t9,printf[0m
  401470:	0320f809 	jalr	t9
  401474:	00403021 	move	a2,v0
  401478:	8fbc0038 	lw	gp,56(sp)
  40147c:	10000006 	b	401498 <_ftext@@Base+0x768>
  401480:	00000000 	nop
  401484:	3c040040 	lui	a0,0x40
[31m  401488:	8f998118 	lw	t9,printf[0m
  40148c:	0320f809 	jalr	t9
  401490:	248444c8 	addiu	a0,a0,17608
--
  40151c:	afa50180 	sw	a1,384(sp)
  401520:	8c450018 	lw	a1,24(v0)
  401524:	afa500e4 	sw	a1,228(sp)
  401528:	8c45001c 	lw	a1,28(v0)
  40152c:	afa500e8 	sw	a1,232(sp)
  401530:	8c450020 	lw	a1,32(v0)
  401534:	afa500ec 	sw	a1,236(sp)
  401538:	8c450024 	lw	a1,36(v0)
  40153c:	afa500f0 	sw	a1,240(sp)
  401540:	8c450028 	lw	a1,40(v0)
  401544:	afa500f4 	sw	a1,244(sp)
  401548:	8c42002c 	lw	v0,44(v0)
  40154c:	afa200f8 	sw	v0,248(sp)
  401550:	8ee25190 	lw	v0,20880(s7)
  401554:	10400097 	beqz	v0,4017b4 <_ftext@@Base+0xa84>
  401558:	00031a02 	srl	v1,v1,0x8
  40155c:	8fa201f0 	lw	v0,496(sp)
  401560:	afa20010 	sw	v0,16(sp)
  401564:	306300ff 	andi	v1,v1,0xff
  401568:	afa30014 	sw	v1,20(sp)
  40156c:	afa40018 	sw	a0,24(sp)
  401570:	3c040040 	lui	a0,0x40
  401574:	8fa501b8 	lw	a1,440(sp)
  401578:	8fa601e8 	lw	a2,488(sp)
  40157c:	8fa701ec 	lw	a3,492(sp)
[31m  401580:	8f998118 	lw	t9,printf[0m
  401584:	0320f809 	jalr	t9
  401588:	248444e4 	addiu	a0,a0,17636
--
  4015d8:	00000000 	nop
  4015dc:	8fbc0038 	lw	gp,56(sp)
  4015e0:	8f998080 	lw	t9,-32640(gp)
  4015e4:	00402021 	move	a0,v0
  4015e8:	3c020040 	lui	v0,0x40
  4015ec:	8c474ae4 	lw	a3,19172(v0)
  4015f0:	8c464ae0 	lw	a2,19168(v0)
  4015f4:	0320f809 	jalr	t9
  4015f8:	00602821 	move	a1,v1
  4015fc:	8fbc0038 	lw	gp,56(sp)
  401600:	afa30014 	sw	v1,20(sp)
  401604:	afa20010 	sw	v0,16(sp)
  401608:	00111602 	srl	v0,s1,0x18
  40160c:	afa20018 	sw	v0,24(sp)
  401610:	00111403 	sra	v0,s1,0x10
  401614:	304200ff 	andi	v0,v0,0xff
  401618:	afa2001c 	sw	v0,28(sp)
  40161c:	00111203 	sra	v0,s1,0x8
  401620:	304200ff 	andi	v0,v0,0xff
  401624:	afa20020 	sw	v0,32(sp)
  401628:	323100ff 	andi	s1,s1,0xff
  40162c:	afb10024 	sw	s1,36(sp)
  401630:	3c040040 	lui	a0,0x40
  401634:	8fa70194 	lw	a3,404(sp)
  401638:	8fa60190 	lw	a2,400(sp)
[31m  40163c:	8f998118 	lw	t9,printf[0m
  401640:	0320f809 	jalr	t9
  401644:	24844520 	addiu	a0,a0,17696
  401648:	8fbc0038 	lw	gp,56(sp)
  40164c:	8fa30180 	lw	v1,384(sp)
  401650:	00031302 	srl	v0,v1,0xc
  401654:	00033282 	srl	a2,v1,0xa
  401658:	34118000 	li	s1,0x8000
  40165c:	00d13021 	addu	a2,a2,s1
  401660:	00063402 	srl	a2,a2,0x10
  401664:	240302f7 	li	v1,759
  401668:	00c30018 	mult	a2,v1
  40166c:	00003012 	mflo	a2
  401670:	3c040040 	lui	a0,0x40
  401674:	24844550 	addiu	a0,a0,17744
  401678:	8fa501a0 	lw	a1,416(sp)
[31m  40167c:	8f998118 	lw	t9,printf[0m
  401680:	0320f809 	jalr	t9
  401684:	00463023 	subu	a2,v0,a2
  401688:	8fbc0038 	lw	gp,56(sp)
  40168c:	8e430004 	lw	v1,4(s2)
  401690:	00031302 	srl	v0,v1,0xc
  401694:	00033282 	srl	a2,v1,0xa
  401698:	00d13021 	addu	a2,a2,s1
  40169c:	00063402 	srl	a2,a2,0x10
  4016a0:	240302f7 	li	v1,759
  4016a4:	00c30018 	mult	a2,v1
  4016a8:	00003012 	mflo	a2
  4016ac:	3c040040 	lui	a0,0x40
  4016b0:	24844564 	addiu	a0,a0,17764
  4016b4:	8e450000 	lw	a1,0(s2)
[31m  4016b8:	8f998118 	lw	t9,printf[0m
  4016bc:	0320f809 	jalr	t9
  4016c0:	00463023 	subu	a2,v0,a2
  4016c4:	8fbc0038 	lw	gp,56(sp)
  4016c8:	8fa300e8 	lw	v1,232(sp)
  4016cc:	00031302 	srl	v0,v1,0xc
  4016d0:	00033282 	srl	a2,v1,0xa
  4016d4:	00d13021 	addu	a2,a2,s1
  4016d8:	00063402 	srl	a2,a2,0x10
  4016dc:	240302f7 	li	v1,759
  4016e0:	00c30018 	mult	a2,v1
  4016e4:	00003012 	mflo	a2
  4016e8:	3c040040 	lui	a0,0x40
  4016ec:	24844578 	addiu	a0,a0,17784
  4016f0:	8fa500e4 	lw	a1,228(sp)
[31m  4016f4:	8f998118 	lw	t9,printf[0m
  4016f8:	0320f809 	jalr	t9
  4016fc:	00463023 	subu	a2,v0,a2
  401700:	8fbc0038 	lw	gp,56(sp)
  401704:	8fa300f0 	lw	v1,240(sp)
  401708:	00031302 	srl	v0,v1,0xc
  40170c:	00033282 	srl	a2,v1,0xa
  401710:	00d13021 	addu	a2,a2,s1
  401714:	00063402 	srl	a2,a2,0x10
  401718:	240302f7 	li	v1,759
  40171c:	00c30018 	mult	a2,v1
  401720:	00003012 	mflo	a2
  401724:	3c040040 	lui	a0,0x40
  401728:	2484458c 	addiu	a0,a0,17804
  40172c:	8fa500ec 	lw	a1,236(sp)
[31m  401730:	8f998118 	lw	t9,printf[0m
  401734:	0320f809 	jalr	t9
  401738:	00463023 	subu	a2,v0,a2
  40173c:	8fbc0038 	lw	gp,56(sp)
  401740:	8fa300f8 	lw	v1,248(sp)
  401744:	00031302 	srl	v0,v1,0xc
  401748:	00033282 	srl	a2,v1,0xa
  40174c:	00d13021 	addu	a2,a2,s1
  401750:	00063402 	srl	a2,a2,0x10
  401754:	240302f7 	li	v1,759
  401758:	00c30018 	mult	a2,v1
  40175c:	00003012 	mflo	a2
  401760:	3c040040 	lui	a0,0x40
  401764:	248445a0 	addiu	a0,a0,17824
  401768:	8fa500f4 	lw	a1,244(sp)
[31m  40176c:	8f998118 	lw	t9,printf[0m
  401770:	0320f809 	jalr	t9
  401774:	00463023 	subu	a2,v0,a2
  401778:	8fbc0038 	lw	gp,56(sp)
  40177c:	8fa300e0 	lw	v1,224(sp)
  401780:	00031302 	srl	v0,v1,0xc
  401784:	00031a82 	srl	v1,v1,0xa
  401788:	00711821 	addu	v1,v1,s1
  40178c:	00033402 	srl	a2,v1,0x10
  401790:	240302f7 	li	v1,759
  401794:	00c30018 	mult	a2,v1
  401798:	00003012 	mflo	a2
  40179c:	3c040040 	lui	a0,0x40
  4017a0:	248445b4 	addiu	a0,a0,17844
  4017a4:	8fa500dc 	lw	a1,220(sp)
[31m  4017a8:	8f998118 	lw	t9,printf[0m
  4017ac:	0320f809 	jalr	t9
  4017b0:	00463023 	subu	a2,v0,a2
--
  401850:	8fbc0038 	lw	gp,56(sp)
  401854:	8f99804c 	lw	t9,-32692(gp)
  401858:	0320f809 	jalr	t9
  40185c:	24040001 	li	a0,1
  401860:	8fb10104 	lw	s1,260(sp)
  401864:	8ee25190 	lw	v0,20880(s7)
  401868:	1040002e 	beqz	v0,401924 <_ftext@@Base+0xbf4>
  40186c:	00000000 	nop
  401870:	8fa501a4 	lw	a1,420(sp)
  401874:	8fa401a0 	lw	a0,416(sp)
  401878:	afa50014 	sw	a1,20(sp)
  40187c:	afa40010 	sw	a0,16(sp)
  401880:	8f9980fc 	lw	t9,-32516(gp)
  401884:	8fa50184 	lw	a1,388(sp)
  401888:	8fa40180 	lw	a0,384(sp)
  40188c:	8fa701a4 	lw	a3,420(sp)
  401890:	8fa601a0 	lw	a2,416(sp)
  401894:	0320f809 	jalr	t9
  401898:	00000000 	nop
  40189c:	8fbc0038 	lw	gp,56(sp)
  4018a0:	afa3001c 	sw	v1,28(sp)
  4018a4:	afa20018 	sw	v0,24(sp)
  4018a8:	3c040040 	lui	a0,0x40
  4018ac:	8fa70184 	lw	a3,388(sp)
  4018b0:	8fa60180 	lw	a2,384(sp)
[31m  4018b4:	8f998118 	lw	t9,printf[0m
  4018b8:	0320f809 	jalr	t9
  4018bc:	248445c8 	addiu	a0,a0,17864
  4018c0:	8fbc0038 	lw	gp,56(sp)
  4018c4:	8f9980fc 	lw	t9,-32516(gp)
  4018c8:	8fa50194 	lw	a1,404(sp)
  4018cc:	8fa40190 	lw	a0,400(sp)
  4018d0:	8fa701ac 	lw	a3,428(sp)
  4018d4:	8fa601a8 	lw	a2,424(sp)
  4018d8:	0320f809 	jalr	t9
  4018dc:	00000000 	nop
  4018e0:	8fbc0038 	lw	gp,56(sp)
  4018e4:	8f998080 	lw	t9,-32640(gp)
  4018e8:	00402021 	move	a0,v0
  4018ec:	3c020040 	lui	v0,0x40
  4018f0:	8c474aec 	lw	a3,19180(v0)
  4018f4:	8c464ae8 	lw	a2,19176(v0)
  4018f8:	0320f809 	jalr	t9
  4018fc:	00602821 	move	a1,v1
  401900:	8fbc0038 	lw	gp,56(sp)
  401904:	afb10010 	sw	s1,16(sp)
  401908:	3c040040 	lui	a0,0x40
  40190c:	24844608 	addiu	a0,a0,17928
  401910:	00603821 	move	a3,v1
[31m  401914:	8f998118 	lw	t9,printf[0m
  401918:	0320f809 	jalr	t9
  40191c:	00403021 	move	a2,v0
--
  401a80:	000221c0 	sll	a0,v0,0x7
  401a84:	00831823 	subu	v1,a0,v1
  401a88:	00621021 	addu	v0,v1,v0
  401a8c:	000210c0 	sll	v0,v0,0x3
  401a90:	afa20100 	sw	v0,256(sp)
  401a94:	00002021 	move	a0,zero
  401a98:	8f9980e8 	lw	t9,-32536(gp)
  401a9c:	0320f809 	jalr	t9
  401aa0:	27a500fc 	addiu	a1,sp,252
  401aa4:	8fbc0038 	lw	gp,56(sp)
  401aa8:	04410008 	bgez	v0,401acc <_ftext@@Base+0xd9c>
  401aac:	3c040040 	lui	a0,0x40
  401ab0:	8f9980f0 	lw	t9,-32528(gp)
  401ab4:	0320f809 	jalr	t9
  401ab8:	248446c4 	addiu	a0,a0,18116
  401abc:	8fbc0038 	lw	gp,56(sp)
  401ac0:	8f99804c 	lw	t9,-32692(gp)
  401ac4:	0320f809 	jalr	t9
  401ac8:	24040001 	li	a0,1
  401acc:	8ee25190 	lw	v0,20880(s7)
  401ad0:	10400008 	beqz	v0,401af4 <_ftext@@Base+0xdc4>
  401ad4:	00000000 	nop
  401ad8:	3c040040 	lui	a0,0x40
  401adc:	8fa500fc 	lw	a1,252(sp)
  401ae0:	8fa60100 	lw	a2,256(sp)
[31m  401ae4:	8f998118 	lw	t9,printf[0m
  401ae8:	0320f809 	jalr	t9
  401aec:	248446d4 	addiu	a0,a0,18132
--
  401c80:	8fa601c0 	lw	a2,448(sp)
  401c84:	0320f809 	jalr	t9
  401c88:	00402021 	move	a0,v0
  401c8c:	8fbc0038 	lw	gp,56(sp)
  401c90:	afa30024 	sw	v1,36(sp)
  401c94:	afa20020 	sw	v0,32(sp)
  401c98:	8f998094 	lw	t9,-32620(gp)
  401c9c:	8fa401bc 	lw	a0,444(sp)
  401ca0:	0320f809 	jalr	t9
  401ca4:	00000000 	nop
  401ca8:	8fbc0038 	lw	gp,56(sp)
  401cac:	8f998080 	lw	t9,-32640(gp)
  401cb0:	00602821 	move	a1,v1
  401cb4:	8fa701cc 	lw	a3,460(sp)
  401cb8:	8fa601c8 	lw	a2,456(sp)
  401cbc:	0320f809 	jalr	t9
  401cc0:	00402021 	move	a0,v0
  401cc4:	8fbc0038 	lw	gp,56(sp)
  401cc8:	afa3002c 	sw	v1,44(sp)
  401ccc:	afa20028 	sw	v0,40(sp)
  401cd0:	afb10030 	sw	s1,48(sp)
  401cd4:	3c040040 	lui	a0,0x40
  401cd8:	8fa50198 	lw	a1,408(sp)
  401cdc:	8fa601b4 	lw	a2,436(sp)
  401ce0:	8fa701b8 	lw	a3,440(sp)
[31m  401ce4:	8f998118 	lw	t9,printf[0m
  401ce8:	0320f809 	jalr	t9
  401cec:	248446ec 	addiu	a0,a0,18156
--
  401d44:	8e420008 	lw	v0,8(s2)
  401d48:	1440002d 	bnez	v0,401e00 <_ftext@@Base+0x10d0>
  401d4c:	3c040040 	lui	a0,0x40
  401d50:	10000036 	b	401e2c <_ftext@@Base+0x10fc>
  401d54:	24020001 	li	v0,1
  401d58:	8fa301d0 	lw	v1,464(sp)
  401d5c:	8fa200dc 	lw	v0,220(sp)
  401d60:	3c05c22e 	lui	a1,0xc22e
  401d64:	34a54507 	ori	a1,a1,0x4507
  401d68:	00450019 	multu	v0,a1
  401d6c:	00002810 	mfhi	a1
  401d70:	00052c02 	srl	a1,a1,0x10
  401d74:	3c060001 	lui	a2,0x1
  401d78:	34c65180 	ori	a2,a2,0x5180
  401d7c:	00a60018 	mult	a1,a2
  401d80:	00003012 	mflo	a2
  401d84:	3c047d00 	lui	a0,0x7d00
  401d88:	34840091 	ori	a0,a0,0x91
  401d8c:	8fa700e0 	lw	a3,224(sp)
  401d90:	00e40019 	multu	a3,a0
  401d94:	00003810 	mfhi	a3
  401d98:	afa30010 	sw	v1,16(sp)
  401d9c:	3c040040 	lui	a0,0x40
  401da0:	24844720 	addiu	a0,a0,18208
  401da4:	00463023 	subu	a2,v0,a2
[31m  401da8:	8f998118 	lw	t9,printf[0m
  401dac:	0320f809 	jalr	t9
  401db0:	00073d42 	srl	a3,a3,0x15
  401db4:	8fbc0038 	lw	gp,56(sp)
  401db8:	1000fd19 	b	401220 <_ftext@@Base+0x4f0>
  401dbc:	02601021 	move	v0,s3
  401dc0:	24844744 	addiu	a0,a0,18244
[31m  401dc4:	8f998118 	lw	t9,printf[0m
  401dc8:	0320f809 	jalr	t9
  401dcc:	02202821 	move	a1,s1
--
  401f6c:	02821021 	addu	v0,s4,v0
  401f70:	8c420000 	lw	v0,0(v0)
  401f74:	00400008 	jr	v0
  401f78:	00000000 	nop
  401f7c:	8ea40000 	lw	a0,0(s5)
  401f80:	8f998044 	lw	t9,-32700(gp)
  401f84:	0320f809 	jalr	t9
  401f88:	00000000 	nop
  401f8c:	8fbc0038 	lw	gp,56(sp)
  401f90:	1000ffeb 	b	401f40 <main@@Base+0x9c>
  401f94:	afa20050 	sw	v0,80(sp)
  401f98:	8ec25190 	lw	v0,20880(s6)
  401f9c:	24420001 	addiu	v0,v0,1
  401fa0:	1000ffe7 	b	401f40 <main@@Base+0x9c>
  401fa4:	aec25190 	sw	v0,20880(s6)
  401fa8:	8ea40000 	lw	a0,0(s5)
  401fac:	8f998044 	lw	t9,-32700(gp)
  401fb0:	0320f809 	jalr	t9
  401fb4:	00000000 	nop
  401fb8:	8fbc0038 	lw	gp,56(sp)
  401fbc:	0040b821 	move	s7,v0
  401fc0:	8ec25190 	lw	v0,20880(s6)
  401fc4:	10400005 	beqz	v0,401fdc <main@@Base+0x138>
  401fc8:	00000000 	nop
  401fcc:	8fa40128 	lw	a0,296(sp)
[31m  401fd0:	8f998118 	lw	t9,printf[0m
  401fd4:	0320f809 	jalr	t9
  401fd8:	02e02821 	move	a1,s7
--
  402108:	8fb2007c 	lw	s2,124(sp)
  40210c:	8fa30148 	lw	v1,328(sp)
  402110:	02430018 	mult	s2,v1
  402114:	00009012 	mflo	s2
  402118:	8f9980b0 	lw	t9,-32592(gp)
  40211c:	8fa40088 	lw	a0,136(sp)
  402120:	8fa50090 	lw	a1,144(sp)
  402124:	0320f809 	jalr	t9
  402128:	00529021 	addu	s2,v0,s2
  40212c:	8fbc0038 	lw	gp,56(sp)
  402130:	8f998054 	lw	t9,-32684(gp)
  402134:	0320f809 	jalr	t9
  402138:	00402021 	move	a0,v0
  40213c:	8fbc0038 	lw	gp,56(sp)
  402140:	0040b821 	move	s7,v0
  402144:	8e225190 	lw	v0,20880(s1)
  402148:	1040000c 	beqz	v0,40217c <main@@Base+0x2d8>
  40214c:	0060f021 	move	s8,v1
  402150:	afa30014 	sw	v1,20(sp)
  402154:	afb70010 	sw	s7,16(sp)
  402158:	8fa20080 	lw	v0,128(sp)
  40215c:	afa20018 	sw	v0,24(sp)
  402160:	8fa40158 	lw	a0,344(sp)
  402164:	8fa7009c 	lw	a3,156(sp)
  402168:	8fa60098 	lw	a2,152(sp)
[31m  40216c:	8f998118 	lw	t9,printf[0m
  402170:	0320f809 	jalr	t9
  402174:	02402821 	move	a1,s2
--
  4021c0:	00603821 	move	a3,v1
  4021c4:	0320f809 	jalr	t9
  4021c8:	00403021 	move	a2,v0
  4021cc:	8fbc0038 	lw	gp,56(sp)
  4021d0:	8f998080 	lw	t9,-32640(gp)
  4021d4:	00602821 	move	a1,v1
  4021d8:	8fa70154 	lw	a3,340(sp)
  4021dc:	8fa60150 	lw	a2,336(sp)
  4021e0:	0320f809 	jalr	t9
  4021e4:	00402021 	move	a0,v0
  4021e8:	8fbc0038 	lw	gp,56(sp)
  4021ec:	8f99805c 	lw	t9,-32676(gp)
  4021f0:	02802821 	move	a1,s4
  4021f4:	02602021 	move	a0,s3
  4021f8:	00603821 	move	a3,v1
  4021fc:	0320f809 	jalr	t9
  402200:	00403021 	move	a2,v0
  402204:	8fbc0038 	lw	gp,56(sp)
  402208:	00409821 	move	s3,v0
  40220c:	8e225190 	lw	v0,20880(s1)
  402210:	10400008 	beqz	v0,402234 <main@@Base+0x390>
  402214:	0060a021 	move	s4,v1
  402218:	afb00010 	sw	s0,16(sp)
  40221c:	8fa4015c 	lw	a0,348(sp)
  402220:	02603021 	move	a2,s3
[31m  402224:	8f998118 	lw	t9,printf[0m
  402228:	0320f809 	jalr	t9
  40222c:	02803821 	move	a3,s4
--
  402444:	3c020041 	lui	v0,0x41
  402448:	8c465190 	lw	a2,20880(v0)
  40244c:	10c0001a 	beqz	a2,4024b8 <main@@Base+0x614>
  402450:	00000000 	nop
  402454:	afbe0010 	sw	s8,16(sp)
  402458:	8fa20054 	lw	v0,84(sp)
  40245c:	afa20014 	sw	v0,20(sp)
  402460:	8fa20048 	lw	v0,72(sp)
  402464:	afa20018 	sw	v0,24(sp)
  402468:	8fa40120 	lw	a0,288(sp)
  40246c:	afa4001c 	sw	a0,28(sp)
  402470:	8f82803c 	lw	v0,-32708(gp)
  402474:	8c430004 	lw	v1,4(v0)
  402478:	8c420000 	lw	v0,0(v0)
  40247c:	afa30024 	sw	v1,36(sp)
  402480:	afa20020 	sw	v0,32(sp)
  402484:	8fa2004c 	lw	v0,76(sp)
  402488:	afa20028 	sw	v0,40(sp)
  40248c:	8fa2005c 	lw	v0,92(sp)
  402490:	afa2002c 	sw	v0,44(sp)
  402494:	8fa20070 	lw	v0,112(sp)
  402498:	afa20030 	sw	v0,48(sp)
  40249c:	3c040040 	lui	a0,0x40
  4024a0:	8fa50050 	lw	a1,80(sp)
  4024a4:	8fa70058 	lw	a3,88(sp)
[31m  4024a8:	8f998118 	lw	t9,printf[0m
  4024ac:	0320f809 	jalr	t9
  4024b0:	2484485c 	addiu	a0,a0,18524
--
  402cc8:	0320f809 	jalr	t9
  402ccc:	00403021 	move	a2,v0
  402cd0:	8fbc0020 	lw	gp,32(sp)
  402cd4:	00409021 	move	s2,v0
  402cd8:	00609821 	move	s3,v1
  402cdc:	8f99807c 	lw	t9,-32644(gp)
  402ce0:	02402021 	move	a0,s2
  402ce4:	02602821 	move	a1,s3
  402ce8:	02003021 	move	a2,s0
  402cec:	0320f809 	jalr	t9
  402cf0:	02203821 	move	a3,s1
  402cf4:	8fbc0020 	lw	gp,32(sp)
  402cf8:	28430000 	slti	v1,v0,0
  402cfc:	0243800b 	0x243800b
  402d00:	8f8280c4 	lw	v0,-32572(gp)
  402d04:	8c420000 	lw	v0,0(v0)
  402d08:	1040000c 	beqz	v0,402d3c <main@@Base+0xe98>
  402d0c:	0263880b 	0x263880b
  402d10:	afb50014 	sw	s5,20(sp)
  402d14:	afb40010 	sw	s4,16(sp)
  402d18:	afb1001c 	sw	s1,28(sp)
  402d1c:	afb00018 	sw	s0,24(sp)
  402d20:	3c040040 	lui	a0,0x40
  402d24:	24844af8 	addiu	a0,a0,19192
  402d28:	02e03821 	move	a3,s7
[31m  402d2c:	8f998118 	lw	t9,printf[0m
  402d30:	0320f809 	jalr	t9
  402d34:	02c03021 	move	a2,s6
--
  402d88:	8fb20034 	lw	s2,52(sp)
  402d8c:	8fb10030 	lw	s1,48(sp)
  402d90:	8fb0002c 	lw	s0,44(sp)
  402d94:	03e00008 	jr	ra
  402d98:	27bd0050 	addiu	sp,sp,80
  402d9c:	27bdffc8 	addiu	sp,sp,-56
  402da0:	afbf0034 	sw	ra,52(sp)
  402da4:	afb30030 	sw	s3,48(sp)
  402da8:	afb2002c 	sw	s2,44(sp)
  402dac:	afb10028 	sw	s1,40(sp)
  402db0:	afb00024 	sw	s0,36(sp)
  402db4:	3c1c0042 	lui	gp,0x42
  402db8:	279cd040 	addiu	gp,gp,-12224
  402dbc:	afbc0018 	sw	gp,24(sp)
  402dc0:	8f8280c4 	lw	v0,-32572(gp)
  402dc4:	8c420000 	lw	v0,0(v0)
  402dc8:	1040000b 	beqz	v0,402df8 <main@@Base+0xf54>
  402dcc:	00808021 	move	s0,a0
  402dd0:	8c870004 	lw	a3,4(a0)
  402dd4:	8c860000 	lw	a2,0(a0)
  402dd8:	8c83000c 	lw	v1,12(a0)
  402ddc:	8c820008 	lw	v0,8(a0)
  402de0:	afa30014 	sw	v1,20(sp)
  402de4:	afa20010 	sw	v0,16(sp)
  402de8:	3c040040 	lui	a0,0x40
[31m  402dec:	8f998118 	lw	t9,printf[0m
  402df0:	0320f809 	jalr	t9
  402df4:	24844b10 	addiu	a0,a0,19216
--
  402e78:	ac535bdc 	sw	s3,23516(v0)
  402e7c:	ac525bd8 	sw	s2,23512(v0)
  402e80:	8f99807c 	lw	t9,-32644(gp)
  402e84:	02202821 	move	a1,s1
  402e88:	3c020041 	lui	v0,0x41
  402e8c:	8c475be4 	lw	a3,23524(v0)
  402e90:	8c465be0 	lw	a2,23520(v0)
  402e94:	0320f809 	jalr	t9
  402e98:	02002021 	move	a0,s0
  402e9c:	8fbc0018 	lw	gp,24(sp)
  402ea0:	04410003 	bgez	v0,402eb0 <main@@Base+0x100c>
  402ea4:	3c020041 	lui	v0,0x41
  402ea8:	ac515be4 	sw	s1,23524(v0)
  402eac:	ac505be0 	sw	s0,23520(v0)
  402eb0:	8f8280c4 	lw	v0,-32572(gp)
  402eb4:	8c420000 	lw	v0,0(v0)
  402eb8:	1040001a 	beqz	v0,402f24 <main@@Base+0x1080>
  402ebc:	3c020041 	lui	v0,0x41
  402ec0:	8c435bdc 	lw	v1,23516(v0)
  402ec4:	8c425bd8 	lw	v0,23512(v0)
  402ec8:	afa30014 	sw	v1,20(sp)
  402ecc:	afa20010 	sw	v0,16(sp)
  402ed0:	3c040040 	lui	a0,0x40
  402ed4:	24844b1c 	addiu	a0,a0,19228
  402ed8:	02603821 	move	a3,s3
[31m  402edc:	8f998118 	lw	t9,printf[0m
  402ee0:	0320f809 	jalr	t9
  402ee4:	02403021 	move	a2,s2
  402ee8:	8fbc0018 	lw	gp,24(sp)
  402eec:	8f8280c4 	lw	v0,-32572(gp)
  402ef0:	8c420000 	lw	v0,0(v0)
  402ef4:	1040000b 	beqz	v0,402f24 <main@@Base+0x1080>
  402ef8:	3c020041 	lui	v0,0x41
  402efc:	8c435be4 	lw	v1,23524(v0)
  402f00:	8c425be0 	lw	v0,23520(v0)
  402f04:	afa30014 	sw	v1,20(sp)
  402f08:	afa20010 	sw	v0,16(sp)
  402f0c:	3c040040 	lui	a0,0x40
  402f10:	24844b38 	addiu	a0,a0,19256
  402f14:	02203821 	move	a3,s1
[31m  402f18:	8f998118 	lw	t9,printf[0m
  402f1c:	0320f809 	jalr	t9
  402f20:	02003021 	move	a2,s0
--
  402f4c:	afb700ac 	sw	s7,172(sp)
  402f50:	afb600a8 	sw	s6,168(sp)
  402f54:	afb500a4 	sw	s5,164(sp)
  402f58:	afb400a0 	sw	s4,160(sp)
  402f5c:	afb3009c 	sw	s3,156(sp)
  402f60:	afb20098 	sw	s2,152(sp)
  402f64:	afb10094 	sw	s1,148(sp)
  402f68:	afb00090 	sw	s0,144(sp)
  402f6c:	3c1c0042 	lui	gp,0x42
  402f70:	279cd040 	addiu	gp,gp,-12224
  402f74:	afbc0028 	sw	gp,40(sp)
  402f78:	afa400b8 	sw	a0,184(sp)
  402f7c:	00e09821 	move	s3,a3
  402f80:	8fb500cc 	lw	s5,204(sp)
  402f84:	8fb400c8 	lw	s4,200(sp)
  402f88:	8f8280c4 	lw	v0,-32572(gp)
  402f8c:	8c420000 	lw	v0,0(v0)
  402f90:	1040000b 	beqz	v0,402fc0 <contemplate_data@@Base+0x80>
  402f94:	00c09021 	move	s2,a2
  402f98:	afb50014 	sw	s5,20(sp)
  402f9c:	afb40010 	sw	s4,16(sp)
  402fa0:	8fa200d0 	lw	v0,208(sp)
  402fa4:	afa20018 	sw	v0,24(sp)
  402fa8:	3c040040 	lui	a0,0x40
  402fac:	8fa500b8 	lw	a1,184(sp)
[31m  402fb0:	8f998118 	lw	t9,printf[0m
  402fb4:	0320f809 	jalr	t9
  402fb8:	24844b54 	addiu	a0,a0,19284
--
  40317c:	00602821 	move	a1,v1
  403180:	8e270004 	lw	a3,4(s1)
  403184:	8e260000 	lw	a2,0(s1)
  403188:	0320f809 	jalr	t9
  40318c:	00402021 	move	a0,v0
  403190:	8fbc0028 	lw	gp,40(sp)
  403194:	00403821 	move	a3,v0
  403198:	aec30024 	sw	v1,36(s6)
  40319c:	aec70020 	sw	a3,32(s6)
  4031a0:	8ee40000 	lw	a0,0(s7)
  4031a4:	10800013 	beqz	a0,4031f4 <contemplate_data@@Base+0x2b4>
  4031a8:	2611ffff 	addiu	s1,s0,-1
  4031ac:	8ec60000 	lw	a2,0(s6)
  4031b0:	afb40014 	sw	s4,20(sp)
  4031b4:	afb30010 	sw	s3,16(sp)
  4031b8:	00402821 	move	a1,v0
  4031bc:	afa3001c 	sw	v1,28(sp)
  4031c0:	afa50018 	sw	a1,24(sp)
  4031c4:	8ec3002c 	lw	v1,44(s6)
  4031c8:	8ec20028 	lw	v0,40(s6)
  4031cc:	afa30024 	sw	v1,36(sp)
  4031d0:	afa20020 	sw	v0,32(sp)
  4031d4:	8fa40078 	lw	a0,120(sp)
  4031d8:	02002821 	move	a1,s0
  4031dc:	8fa200b8 	lw	v0,184(sp)
[31m  4031e0:	8f998118 	lw	t9,printf[0m
  4031e4:	0320f809 	jalr	t9
  4031e8:	00c23023 	subu	a2,a2,v0
--
  4033bc:	8fa60040 	lw	a2,64(sp)
  4033c0:	0320f809 	jalr	t9
  4033c4:	02c02021 	move	a0,s6
  4033c8:	8fbc0028 	lw	gp,40(sp)
  4033cc:	0441000a 	bgez	v0,4033f8 <contemplate_data@@Base+0x4b8>
  4033d0:	00000000 	nop
  4033d4:	8fa20030 	lw	v0,48(sp)
  4033d8:	afa20040 	sw	v0,64(sp)
  4033dc:	8fa20034 	lw	v0,52(sp)
  4033e0:	afa20044 	sw	v0,68(sp)
  4033e4:	8fa20038 	lw	v0,56(sp)
  4033e8:	afa20048 	sw	v0,72(sp)
  4033ec:	8fa2003c 	lw	v0,60(sp)
  4033f0:	afa2004c 	sw	v0,76(sp)
  4033f4:	afa00088 	sw	zero,136(sp)
  4033f8:	8e820000 	lw	v0,0(s4)
  4033fc:	1040000c 	beqz	v0,403430 <contemplate_data@@Base+0x4f0>
  403400:	00000000 	nop
  403404:	8e070004 	lw	a3,4(s0)
  403408:	8e060000 	lw	a2,0(s0)
  40340c:	8e03000c 	lw	v1,12(s0)
  403410:	8e020008 	lw	v0,8(s0)
  403414:	afa30014 	sw	v1,20(sp)
  403418:	afa20010 	sw	v0,16(sp)
  40341c:	8fa40068 	lw	a0,104(sp)
[31m  403420:	8f998118 	lw	t9,printf[0m
  403424:	0320f809 	jalr	t9
  403428:	02a02821 	move	a1,s5
  40342c:	8fbc0028 	lw	gp,40(sp)
  403430:	8e050004 	lw	a1,4(s0)
  403434:	8e040000 	lw	a0,0(s0)
  403438:	afa50064 	sw	a1,100(sp)
  40343c:	afa40060 	sw	a0,96(sp)
  403440:	26b50001 	addiu	s5,s5,1
  403444:	8e2256b4 	lw	v0,22196(s1)
  403448:	12620003 	beq	s3,v0,403458 <contemplate_data@@Base+0x518>
  40344c:	26100010 	addiu	s0,s0,16
  403450:	1000ffb1 	b	403318 <contemplate_data@@Base+0x3d8>
  403454:	02609021 	move	s2,s3
  403458:	8f8280c4 	lw	v0,-32572(gp)
  40345c:	8c420000 	lw	v0,0(v0)
  403460:	1040000f 	beqz	v0,4034a0 <contemplate_data@@Base+0x560>
  403464:	3c020041 	lui	v0,0x41
  403468:	8fa50088 	lw	a1,136(sp)
  40346c:	14a0000c 	bnez	a1,4034a0 <contemplate_data@@Base+0x560>
  403470:	00000000 	nop
  403474:	8fa3004c 	lw	v1,76(sp)
  403478:	8fa20048 	lw	v0,72(sp)
  40347c:	afa30014 	sw	v1,20(sp)
  403480:	afa20010 	sw	v0,16(sp)
  403484:	3c040040 	lui	a0,0x40
  403488:	8fa70044 	lw	a3,68(sp)
  40348c:	8fa60040 	lw	a2,64(sp)
[31m  403490:	8f998118 	lw	t9,printf[0m
  403494:	0320f809 	jalr	t9
  403498:	24844ba4 	addiu	a0,a0,19364
--
  4035b4:	8fa60050 	lw	a2,80(sp)
  4035b8:	0320f809 	jalr	t9
  4035bc:	00000000 	nop
  4035c0:	8fbc0028 	lw	gp,40(sp)
  4035c4:	0441000a 	bgez	v0,4035f0 <contemplate_data@@Base+0x6b0>
  4035c8:	00000000 	nop
  4035cc:	8fa20030 	lw	v0,48(sp)
  4035d0:	afa20050 	sw	v0,80(sp)
  4035d4:	8fa20034 	lw	v0,52(sp)
  4035d8:	afa20054 	sw	v0,84(sp)
  4035dc:	8fa20038 	lw	v0,56(sp)
  4035e0:	afa20058 	sw	v0,88(sp)
  4035e4:	8fa2003c 	lw	v0,60(sp)
  4035e8:	afa2005c 	sw	v0,92(sp)
  4035ec:	afa00080 	sw	zero,128(sp)
  4035f0:	8ee20000 	lw	v0,0(s7)
  4035f4:	1040000c 	beqz	v0,403628 <contemplate_data@@Base+0x6e8>
  4035f8:	00000000 	nop
  4035fc:	8e070004 	lw	a3,4(s0)
  403600:	8e060000 	lw	a2,0(s0)
  403604:	8e03000c 	lw	v1,12(s0)
  403608:	8e020008 	lw	v0,8(s0)
  40360c:	afa30014 	sw	v1,20(sp)
  403610:	afa20010 	sw	v0,16(sp)
  403614:	8fa4008c 	lw	a0,140(sp)
[31m  403618:	8f998118 	lw	t9,printf[0m
  40361c:	0320f809 	jalr	t9
  403620:	02802821 	move	a1,s4
--
  403630:	afa5006c 	sw	a1,108(sp)
  403634:	afa40068 	sw	a0,104(sp)
  403638:	26940001 	addiu	s4,s4,1
  40363c:	8e2256b4 	lw	v0,22196(s1)
  403640:	12620003 	beq	s3,v0,403650 <contemplate_data@@Base+0x710>
  403644:	26100010 	addiu	s0,s0,16
  403648:	1000ffac 	b	4034fc <contemplate_data@@Base+0x5bc>
  40364c:	02609021 	move	s2,s3
  403650:	24130001 	li	s3,1
  403654:	8fa50080 	lw	a1,128(sp)
  403658:	8fa20088 	lw	v0,136(sp)
  40365c:	0045980a 	0x45980a
  403660:	8f8280c4 	lw	v0,-32572(gp)
  403664:	8c420000 	lw	v0,0(v0)
  403668:	1040000e 	beqz	v0,4036a4 <contemplate_data@@Base+0x764>
  40366c:	00000000 	nop
  403670:	14a0000c 	bnez	a1,4036a4 <contemplate_data@@Base+0x764>
  403674:	00000000 	nop
  403678:	8fa3005c 	lw	v1,92(sp)
  40367c:	8fa20058 	lw	v0,88(sp)
  403680:	afa30014 	sw	v1,20(sp)
  403684:	afa20010 	sw	v0,16(sp)
  403688:	3c040040 	lui	a0,0x40
  40368c:	8fa70054 	lw	a3,84(sp)
  403690:	8fa60050 	lw	a2,80(sp)
[31m  403694:	8f998118 	lw	t9,printf[0m
  403698:	0320f809 	jalr	t9
  40369c:	24844bd0 	addiu	a0,a0,19408
--
  4039ec:	afa00088 	sw	zero,136(sp)
  4039f0:	00008021 	move	s0,zero
  4039f4:	1000000f 	b	403a34 <contemplate_data@@Base+0xaf4>
  4039f8:	00008821 	move	s1,zero
  4039fc:	02028026 	xor	s0,s0,v0
  403a00:	1000000c 	b	403a34 <contemplate_data@@Base+0xaf4>
  403a04:	afa00088 	sw	zero,136(sp)
  403a08:	8f99809c 	lw	t9,-32612(gp)
  403a0c:	8c455be4 	lw	a1,23524(v0)
  403a10:	8c445be0 	lw	a0,23520(v0)
  403a14:	00003821 	move	a3,zero
  403a18:	0320f809 	jalr	t9
  403a1c:	00003021 	move	a2,zero
  403a20:	8fbc0028 	lw	gp,40(sp)
  403a24:	0002282b 	sltu	a1,zero,v0
  403a28:	afa50088 	sw	a1,136(sp)
  403a2c:	0002800b 	0x2800b
  403a30:	0002880b 	0x2880b
  403a34:	8f8280c4 	lw	v0,-32572(gp)
  403a38:	8c420000 	lw	v0,0(v0)
  403a3c:	10400008 	beqz	v0,403a60 <contemplate_data@@Base+0xb20>
  403a40:	00000000 	nop
  403a44:	3c040040 	lui	a0,0x40
  403a48:	24844c44 	addiu	a0,a0,19524
  403a4c:	02003021 	move	a2,s0
[31m  403a50:	8f998118 	lw	t9,printf[0m
  403a54:	0320f809 	jalr	t9
  403a58:	02203821 	move	a3,s1
--
  403da8:	8fbc0028 	lw	gp,40(sp)
  403dac:	8f99805c 	lw	t9,-32676(gp)
  403db0:	02e02821 	move	a1,s7
  403db4:	02c02021 	move	a0,s6
  403db8:	00603821 	move	a3,v1
  403dbc:	0320f809 	jalr	t9
  403dc0:	00403021 	move	a2,v0
  403dc4:	8fbc0028 	lw	gp,40(sp)
  403dc8:	8f998110 	lw	t9,-32496(gp)
  403dcc:	8e454d24 	lw	a1,19748(s2)
  403dd0:	8e444d20 	lw	a0,19744(s2)
  403dd4:	00603821 	move	a3,v1
  403dd8:	0320f809 	jalr	t9
  403ddc:	00403021 	move	a2,v0
  403de0:	8fbc0028 	lw	gp,40(sp)
  403de4:	00409021 	move	s2,v0
  403de8:	8f8280c4 	lw	v0,-32572(gp)
  403dec:	8c420000 	lw	v0,0(v0)
  403df0:	1040000a 	beqz	v0,403e1c <contemplate_data@@Base+0xedc>
  403df4:	00609821 	move	s3,v1
  403df8:	afa30014 	sw	v1,20(sp)
  403dfc:	afb20010 	sw	s2,16(sp)
  403e00:	3c040040 	lui	a0,0x40
  403e04:	24844c54 	addiu	a0,a0,19540
  403e08:	02803021 	move	a2,s4
[31m  403e0c:	8f998118 	lw	t9,printf[0m
  403e10:	0320f809 	jalr	t9
  403e14:	02a03821 	move	a3,s5
--
  403e84:	02402821 	move	a1,s2
  403e88:	8fbc0028 	lw	gp,40(sp)
  403e8c:	8f99805c 	lw	t9,-32676(gp)
  403e90:	00402021 	move	a0,v0
  403e94:	3c020040 	lui	v0,0x40
  403e98:	8c474aec 	lw	a3,19180(v0)
  403e9c:	8c464ae8 	lw	a2,19176(v0)
  403ea0:	0320f809 	jalr	t9
  403ea4:	00602821 	move	a1,v1
  403ea8:	8fbc0028 	lw	gp,40(sp)
  403eac:	8f998060 	lw	t9,-32672(gp)
  403eb0:	00602821 	move	a1,v1
  403eb4:	0320f809 	jalr	t9
  403eb8:	00402021 	move	a0,v0
  403ebc:	8fbc0028 	lw	gp,40(sp)
  403ec0:	00408021 	move	s0,v0
  403ec4:	8f8280c4 	lw	v0,-32572(gp)
  403ec8:	8c420000 	lw	v0,0(v0)
  403ecc:	1040000a 	beqz	v0,403ef8 <contemplate_data@@Base+0xfb8>
  403ed0:	02203021 	move	a2,s1
  403ed4:	afb00010 	sw	s0,16(sp)
  403ed8:	8fa50088 	lw	a1,136(sp)
  403edc:	afa50014 	sw	a1,20(sp)
  403ee0:	3c040040 	lui	a0,0x40
  403ee4:	24844c6c 	addiu	a0,a0,19564
[31m  403ee8:	8f998118 	lw	t9,printf[0m
  403eec:	0320f809 	jalr	t9
  403ef0:	02403821 	move	a3,s2
  403ef4:	8fbc0028 	lw	gp,40(sp)
  403ef8:	8fa200d0 	lw	v0,208(sp)
  403efc:	00508023 	subu	s0,v0,s0
  403f00:	8fa3004c 	lw	v1,76(sp)
  403f04:	8fa20048 	lw	v0,72(sp)
  403f08:	afa30014 	sw	v1,20(sp)
  403f0c:	afa20010 	sw	v0,16(sp)
  403f10:	3c040040 	lui	a0,0x40
  403f14:	8fa70044 	lw	a3,68(sp)
  403f18:	8fa60040 	lw	a2,64(sp)
[31m  403f1c:	8f998118 	lw	t9,printf[0m
  403f20:	0320f809 	jalr	t9
  403f24:	24844c90 	addiu	a0,a0,19600
  403f28:	8fbc0028 	lw	gp,40(sp)
  403f2c:	8fa3005c 	lw	v1,92(sp)
  403f30:	8fa20058 	lw	v0,88(sp)
  403f34:	afa30014 	sw	v1,20(sp)
  403f38:	afa20010 	sw	v0,16(sp)
  403f3c:	3c040040 	lui	a0,0x40
  403f40:	8fa70054 	lw	a3,84(sp)
  403f44:	8fa60050 	lw	a2,80(sp)
[31m  403f48:	8f998118 	lw	t9,printf[0m
  403f4c:	0320f809 	jalr	t9
  403f50:	24844ca8 	addiu	a0,a0,19624
  403f54:	8fbc0028 	lw	gp,40(sp)
  403f58:	afb00010 	sw	s0,16(sp)
  403f5c:	3c040040 	lui	a0,0x40
  403f60:	24844cbc 	addiu	a0,a0,19644
  403f64:	02203021 	move	a2,s1
[31m  403f68:	8f998118 	lw	t9,printf[0m
  403f6c:	0320f809 	jalr	t9
  403f70:	02403821 	move	a3,s2

[0m
[[0;33m*[0m] Function [0;33mprintf[0m used [0;33m37[0m times [0;33mntpclient[0m

