[[0;33m*[0m] Binary protection state of [0;33mparam.cgi[0m
[REF] s12

  	RELRO          CANARY            NX           PIE       RPATH        RUNPATH      SYMBOLS      
  	[31mNo RELRO[0m       [31mNo Canary found[0m   [31mNX disabled[0m  [31mNo PIE[0m       [32mNo RPATH[0m     [32mNo RUNPATH[0m   [32mNo Symbols[0m

[0m
[[0;33m*[0m] Function [0;33msystem[0m tear down of [0;33mparam.cgi[0m

  4014e8:	24c614e4 	addiu	a2,a2,5348
  4014ec:	8fbf001c 	lw	ra,28(sp)
  4014f0:	8fb00018 	lw	s0,24(sp)
  4014f4:	03e00008 	jr	ra
  4014f8:	27bd0020 	addiu	sp,sp,32
  4014fc:	27bdfba8 	addiu	sp,sp,-1112
  401500:	afbf0454 	sw	ra,1108(sp)
  401504:	afb40450 	sw	s4,1104(sp)
  401508:	afb3044c 	sw	s3,1100(sp)
  40150c:	afb20448 	sw	s2,1096(sp)
  401510:	afb10444 	sw	s1,1092(sp)
  401514:	afb00440 	sw	s0,1088(sp)
  401518:	3c1c0044 	lui	gp,0x44
  40151c:	279c9350 	addiu	gp,gp,-27824
  401520:	afbc0010 	sw	gp,16(sp)
  401524:	a3a00018 	sb	zero,24(sp)
  401528:	8f998060 	lw	t9,-32672(gp)
  40152c:	0320f809 	jalr	t9
  401530:	27a4001c 	addiu	a0,sp,28
  401534:	8fbc0010 	lw	gp,16(sp)
  401538:	3c020043 	lui	v0,0x43
  40153c:	8c4214f0 	lw	v0,5360(v0)
  401540:	104000fa 	beqz	v0,40192c <_ftext@@Base+0x8ec>
  401544:	3c040042 	lui	a0,0x42
  401548:	3c040042 	lui	a0,0x42
[31m  40154c:	8f99810c 	lw	t9,system[0m
  401550:	0320f809 	jalr	t9
  401554:	2484e374 	addiu	a0,a0,-7308
--
  4018c8:	8fbc0010 	lw	gp,16(sp)
  4018cc:	2624e3d8 	addiu	a0,s1,-7208
  4018d0:	3c110042 	lui	s1,0x42
  4018d4:	2625e460 	addiu	a1,s1,-7072
  4018d8:	8f998054 	lw	t9,-32684(gp)
  4018dc:	0320f809 	jalr	t9
  4018e0:	02003021 	move	a2,s0
  4018e4:	8fbc0010 	lw	gp,16(sp)
  4018e8:	2644e3b8 	addiu	a0,s2,-7240
  4018ec:	2625e460 	addiu	a1,s1,-7072
  4018f0:	02003021 	move	a2,s0
  4018f4:	8f99812c 	lw	t9,-32468(gp)
  4018f8:	0320f809 	jalr	t9
  4018fc:	24070001 	li	a3,1
  401900:	8fbc0010 	lw	gp,16(sp)
  401904:	27b002b0 	addiu	s0,sp,688
  401908:	8f9980b4 	lw	t9,-32588(gp)
  40190c:	0320f809 	jalr	t9
  401910:	02002021 	move	a0,s0
  401914:	8fbc0010 	lw	gp,16(sp)
  401918:	8f998130 	lw	t9,-32464(gp)
  40191c:	0320f809 	jalr	t9
  401920:	02002021 	move	a0,s0
  401924:	10000004 	b	401938 <_ftext@@Base+0x8f8>
  401928:	00000000 	nop
[31m  40192c:	8f99810c 	lw	t9,system[0m
  401930:	0320f809 	jalr	t9
  401934:	2484e470 	addiu	a0,a0,-7056
--
  404000:	8f998098 	lw	t9,-32616(gp)
  404004:	0320f809 	jalr	t9
  404008:	24a5e8bc 	addiu	a1,a1,-5956
  40400c:	8fbc0018 	lw	gp,24(sp)
  404010:	144028b5 	bnez	v0,40e2e8 <_ftext@@Base+0xd2a8>
  404014:	3c050042 	lui	a1,0x42
  404018:	02402021 	move	a0,s2
  40401c:	8f9980cc 	lw	t9,-32564(gp)
  404020:	0320f809 	jalr	t9
  404024:	24a5e400 	addiu	a1,a1,-7168
  404028:	8fbc0018 	lw	gp,24(sp)
  40402c:	14400017 	bnez	v0,40408c <_ftext@@Base+0x304c>
  404030:	3c050042 	lui	a1,0x42
  404034:	24020001 	li	v0,1
  404038:	a3a20024 	sb	v0,36(sp)
  40403c:	3c040042 	lui	a0,0x42
  404040:	2484e654 	addiu	a0,a0,-6572
  404044:	3c050042 	lui	a1,0x42
  404048:	24a5e8c4 	addiu	a1,a1,-5948
  40404c:	27a60024 	addiu	a2,sp,36
  404050:	8f99812c 	lw	t9,-32468(gp)
  404054:	0320f809 	jalr	t9
  404058:	24070001 	li	a3,1
  40405c:	8fbc0018 	lw	gp,24(sp)
  404060:	3c040042 	lui	a0,0x42
[31m  404064:	8f99810c 	lw	t9,system[0m
  404068:	0320f809 	jalr	t9
  40406c:	2484e8d4 	addiu	a0,a0,-5932
  404070:	8fbc0018 	lw	gp,24(sp)
  404074:	3c040042 	lui	a0,0x42
[31m  404078:	8f99810c 	lw	t9,system[0m
  40407c:	0320f809 	jalr	t9
  404080:	2484e914 	addiu	a0,a0,-5868
  404084:	10002898 	b	40e2e8 <_ftext@@Base+0xd2a8>
  404088:	00000000 	nop
  40408c:	02402021 	move	a0,s2
  404090:	8f9980cc 	lw	t9,-32564(gp)
  404094:	0320f809 	jalr	t9
  404098:	24a5e954 	addiu	a1,a1,-5804
  40409c:	8fbc0018 	lw	gp,24(sp)
  4040a0:	14400015 	bnez	v0,4040f8 <_ftext@@Base+0x30b8>
  4040a4:	3c050042 	lui	a1,0x42
  4040a8:	a3a00024 	sb	zero,36(sp)
  4040ac:	3c040042 	lui	a0,0x42
  4040b0:	2484e654 	addiu	a0,a0,-6572
  4040b4:	24a5e8c4 	addiu	a1,a1,-5948
  4040b8:	27a60024 	addiu	a2,sp,36
  4040bc:	8f99812c 	lw	t9,-32468(gp)
  4040c0:	0320f809 	jalr	t9
  4040c4:	24070001 	li	a3,1
  4040c8:	8fbc0018 	lw	gp,24(sp)
  4040cc:	3c040042 	lui	a0,0x42
[31m  4040d0:	8f99810c 	lw	t9,system[0m
  4040d4:	0320f809 	jalr	t9
  4040d8:	2484e958 	addiu	a0,a0,-5800
  4040dc:	8fbc0018 	lw	gp,24(sp)
  4040e0:	3c040042 	lui	a0,0x42
[31m  4040e4:	8f99810c 	lw	t9,system[0m
  4040e8:	0320f809 	jalr	t9
  4040ec:	2484e998 	addiu	a0,a0,-5736
--
  40e270:	ac4314e8 	sw	v1,5352(v0)
  40e274:	02402021 	move	a0,s2
  40e278:	8f9980cc 	lw	t9,-32564(gp)
  40e27c:	0320f809 	jalr	t9
  40e280:	24a5e4f0 	addiu	a1,a1,-6928
  40e284:	8fbc0018 	lw	gp,24(sp)
  40e288:	1440000d 	bnez	v0,40e2c0 <_ftext@@Base+0xd280>
  40e28c:	3c050042 	lui	a1,0x42
  40e290:	a3a00024 	sb	zero,36(sp)
  40e294:	3c040042 	lui	a0,0x42
  40e298:	2484f8b4 	addiu	a0,a0,-1868
  40e29c:	24a5f614 	addiu	a1,a1,-2540
  40e2a0:	27a60024 	addiu	a2,sp,36
  40e2a4:	8f99812c 	lw	t9,-32468(gp)
  40e2a8:	0320f809 	jalr	t9
  40e2ac:	24070001 	li	a3,1
  40e2b0:	24030001 	li	v1,1
  40e2b4:	3c020043 	lui	v0,0x43
  40e2b8:	1000000b 	b	40e2e8 <_ftext@@Base+0xd2a8>
  40e2bc:	ac4314e8 	sw	v1,5352(v0)
  40e2c0:	02602021 	move	a0,s3
  40e2c4:	0c100656 	jal	401958 <_ftext@@Base+0x918>
  40e2c8:	02202821 	move	a1,s1
  40e2cc:	10000006 	b	40e2e8 <_ftext@@Base+0xd2a8>
  40e2d0:	00000000 	nop
[31m  40e2d4:	8f99810c 	lw	t9,system[0m
  40e2d8:	0320f809 	jalr	t9
  40e2dc:	27a40074 	addiu	a0,sp,116
--
  41b43c:	2403ffff 	li	v1,-1
  41b440:	10430010 	beq	v0,v1,41b484 <_ftext@@Base+0x1a444>
  41b444:	00000000 	nop
  41b448:	8e030058 	lw	v1,88(s0)
  41b44c:	8e040060 	lw	a0,96(s0)
  41b450:	00732821 	addu	a1,v1,s3
  41b454:	8ca60004 	lw	a2,4(a1)
  41b458:	00022880 	sll	a1,v0,0x2
  41b45c:	00652821 	addu	a1,v1,a1
  41b460:	8ca70004 	lw	a3,4(a1)
  41b464:	24420080 	addiu	v0,v0,128
  41b468:	00021080 	sll	v0,v0,0x2
  41b46c:	00621821 	addu	v1,v1,v0
  41b470:	8c620004 	lw	v0,4(v1)
  41b474:	afa20010 	sw	v0,16(sp)
  41b478:	0c100bbd 	jal	402ef4 <_ftext@@Base+0x1eb4>
  41b47c:	02002821 	move	a1,s0
  41b480:	8fbc0018 	lw	gp,24(sp)
  41b484:	26310004 	addiu	s1,s1,4
  41b488:	1632ffe7 	bne	s1,s2,41b428 <_ftext@@Base+0x1a3e8>
  41b48c:	02002021 	move	a0,s0
  41b490:	3c020043 	lui	v0,0x43
  41b494:	8c4214e8 	lw	v0,5352(v0)
  41b498:	10400a22 	beqz	v0,41dd24 <_ftext@@Base+0x1cce4>
  41b49c:	3c040042 	lui	a0,0x42
[31m  41b4a0:	8f99810c 	lw	t9,system[0m
  41b4a4:	0320f809 	jalr	t9
  41b4a8:	248402ec 	addiu	a0,a0,748
  41b4ac:	8fbc0018 	lw	gp,24(sp)
  41b4b0:	3c040042 	lui	a0,0x42
[31m  41b4b4:	8f99810c 	lw	t9,system[0m
  41b4b8:	0320f809 	jalr	t9
  41b4bc:	24840330 	addiu	a0,a0,816
  41b4c0:	8fbc0018 	lw	gp,24(sp)
  41b4c4:	3c040042 	lui	a0,0x42
[31m  41b4c8:	8f99810c 	lw	t9,system[0m
  41b4cc:	0320f809 	jalr	t9
  41b4d0:	24840364 	addiu	a0,a0,868
--
  41bb58:	3c050042 	lui	a1,0x42
  41bb5c:	24a5039c 	addiu	a1,a1,924
  41bb60:	8f99804c 	lw	t9,-32692(gp)
  41bb64:	0320f809 	jalr	t9
  41bb68:	2406ffff 	li	a2,-1
  41bb6c:	8fbc0018 	lw	gp,24(sp)
  41bb70:	2403ffff 	li	v1,-1
  41bb74:	1043000b 	beq	v0,v1,41bba4 <_ftext@@Base+0x1ab64>
  41bb78:	24420080 	addiu	v0,v0,128
  41bb7c:	8e030058 	lw	v1,88(s0)
  41bb80:	00021080 	sll	v0,v0,0x2
  41bb84:	00621021 	addu	v0,v1,v0
  41bb88:	8c440004 	lw	a0,4(v0)
  41bb8c:	8f998064 	lw	t9,-32668(gp)
  41bb90:	0320f809 	jalr	t9
  41bb94:	00000000 	nop
  41bb98:	8fbc0018 	lw	gp,24(sp)
  41bb9c:	3c030043 	lui	v1,0x43
  41bba0:	ac6214f0 	sw	v0,5360(v1)
  41bba4:	3c020043 	lui	v0,0x43
  41bba8:	8c4314f0 	lw	v1,5360(v0)
  41bbac:	24020002 	li	v0,2
  41bbb0:	14620007 	bne	v1,v0,41bbd0 <_ftext@@Base+0x1ab90>
  41bbb4:	27b1022c 	addiu	s1,sp,556
  41bbb8:	3c040042 	lui	a0,0x42
[31m  41bbbc:	8f99810c 	lw	t9,system[0m
  41bbc0:	0320f809 	jalr	t9
  41bbc4:	248403a0 	addiu	a0,a0,928
--
  41bcf8:	2406ffff 	li	a2,-1
  41bcfc:	8fbc0018 	lw	gp,24(sp)
  41bd00:	2403ffff 	li	v1,-1
  41bd04:	10430011 	beq	v0,v1,41bd4c <_ftext@@Base+0x1ad0c>
  41bd08:	26850080 	addiu	a1,s4,128
  41bd0c:	8e030058 	lw	v1,88(s0)
  41bd10:	8e040060 	lw	a0,96(s0)
  41bd14:	00052880 	sll	a1,a1,0x2
  41bd18:	00652821 	addu	a1,v1,a1
  41bd1c:	8ca60004 	lw	a2,4(a1)
  41bd20:	00022880 	sll	a1,v0,0x2
  41bd24:	00652821 	addu	a1,v1,a1
  41bd28:	8ca70004 	lw	a3,4(a1)
  41bd2c:	24420080 	addiu	v0,v0,128
  41bd30:	00021080 	sll	v0,v0,0x2
  41bd34:	00621821 	addu	v1,v1,v0
  41bd38:	8c620004 	lw	v0,4(v1)
  41bd3c:	afa20010 	sw	v0,16(sp)
  41bd40:	0c100bbd 	jal	402ef4 <_ftext@@Base+0x1eb4>
  41bd44:	02002821 	move	a1,s0
  41bd48:	8fbc0018 	lw	gp,24(sp)
  41bd4c:	3c020043 	lui	v0,0x43
  41bd50:	8c4214e8 	lw	v0,5352(v0)
  41bd54:	104007f3 	beqz	v0,41dd24 <_ftext@@Base+0x1cce4>
  41bd58:	3c040042 	lui	a0,0x42
[31m  41bd5c:	8f99810c 	lw	t9,system[0m
  41bd60:	0320f809 	jalr	t9
  41bd64:	248403d8 	addiu	a0,a0,984
--
  41be18:	2406ffff 	li	a2,-1
  41be1c:	8fbc0018 	lw	gp,24(sp)
  41be20:	2403ffff 	li	v1,-1
  41be24:	10430011 	beq	v0,v1,41be6c <_ftext@@Base+0x1ae2c>
  41be28:	26850080 	addiu	a1,s4,128
  41be2c:	8e030058 	lw	v1,88(s0)
  41be30:	8e040060 	lw	a0,96(s0)
  41be34:	00052880 	sll	a1,a1,0x2
  41be38:	00652821 	addu	a1,v1,a1
  41be3c:	8ca60004 	lw	a2,4(a1)
  41be40:	00022880 	sll	a1,v0,0x2
  41be44:	00652821 	addu	a1,v1,a1
  41be48:	8ca70004 	lw	a3,4(a1)
  41be4c:	24420080 	addiu	v0,v0,128
  41be50:	00021080 	sll	v0,v0,0x2
  41be54:	00621821 	addu	v1,v1,v0
  41be58:	8c620004 	lw	v0,4(v1)
  41be5c:	afa20010 	sw	v0,16(sp)
  41be60:	0c100bbd 	jal	402ef4 <_ftext@@Base+0x1eb4>
  41be64:	02002821 	move	a1,s0
  41be68:	8fbc0018 	lw	gp,24(sp)
  41be6c:	3c020043 	lui	v0,0x43
  41be70:	8c4214e8 	lw	v0,5352(v0)
  41be74:	104007ab 	beqz	v0,41dd24 <_ftext@@Base+0x1cce4>
  41be78:	3c040042 	lui	a0,0x42
[31m  41be7c:	8f99810c 	lw	t9,system[0m
  41be80:	0320f809 	jalr	t9
  41be84:	24840420 	addiu	a0,a0,1056
--
  41bf38:	2406ffff 	li	a2,-1
  41bf3c:	8fbc0018 	lw	gp,24(sp)
  41bf40:	2403ffff 	li	v1,-1
  41bf44:	10430011 	beq	v0,v1,41bf8c <_ftext@@Base+0x1af4c>
  41bf48:	26850080 	addiu	a1,s4,128
  41bf4c:	8e030058 	lw	v1,88(s0)
  41bf50:	8e040060 	lw	a0,96(s0)
  41bf54:	00052880 	sll	a1,a1,0x2
  41bf58:	00652821 	addu	a1,v1,a1
  41bf5c:	8ca60004 	lw	a2,4(a1)
  41bf60:	00022880 	sll	a1,v0,0x2
  41bf64:	00652821 	addu	a1,v1,a1
  41bf68:	8ca70004 	lw	a3,4(a1)
  41bf6c:	24420080 	addiu	v0,v0,128
  41bf70:	00021080 	sll	v0,v0,0x2
  41bf74:	00621821 	addu	v1,v1,v0
  41bf78:	8c620004 	lw	v0,4(v1)
  41bf7c:	afa20010 	sw	v0,16(sp)
  41bf80:	0c100bbd 	jal	402ef4 <_ftext@@Base+0x1eb4>
  41bf84:	02002821 	move	a1,s0
  41bf88:	8fbc0018 	lw	gp,24(sp)
  41bf8c:	3c020043 	lui	v0,0x43
  41bf90:	8c4214e8 	lw	v0,5352(v0)
  41bf94:	10400763 	beqz	v0,41dd24 <_ftext@@Base+0x1cce4>
  41bf98:	3c040042 	lui	a0,0x42
[31m  41bf9c:	8f99810c 	lw	t9,system[0m
  41bfa0:	0320f809 	jalr	t9
  41bfa4:	24840458 	addiu	a0,a0,1112
--
  41c0f0:	8ca70004 	lw	a3,4(a1)
  41c0f4:	24420080 	addiu	v0,v0,128
  41c0f8:	00021080 	sll	v0,v0,0x2
  41c0fc:	00621821 	addu	v1,v1,v0
  41c100:	8c620004 	lw	v0,4(v1)
  41c104:	afa20010 	sw	v0,16(sp)
  41c108:	0c100bbd 	jal	402ef4 <_ftext@@Base+0x1eb4>
  41c10c:	02002821 	move	a1,s0
  41c110:	8fbc0018 	lw	gp,24(sp)
  41c114:	3c020043 	lui	v0,0x43
  41c118:	8c4214e8 	lw	v0,5352(v0)
  41c11c:	10400701 	beqz	v0,41dd24 <_ftext@@Base+0x1cce4>
  41c120:	3c040042 	lui	a0,0x42
  41c124:	afa00220 	sw	zero,544(sp)
  41c128:	2484e2c0 	addiu	a0,a0,-7488
  41c12c:	3c050042 	lui	a1,0x42
  41c130:	24a5e334 	addiu	a1,a1,-7372
  41c134:	8f998054 	lw	t9,-32684(gp)
  41c138:	0320f809 	jalr	t9
  41c13c:	27a60220 	addiu	a2,sp,544
  41c140:	8fbc0018 	lw	gp,24(sp)
  41c144:	8fa20220 	lw	v0,544(sp)
  41c148:	1440000c 	bnez	v0,41c17c <_ftext@@Base+0x1b13c>
  41c14c:	24030001 	li	v1,1
  41c150:	3c040042 	lui	a0,0x42
[31m  41c154:	8f99810c 	lw	t9,system[0m
  41c158:	0320f809 	jalr	t9
  41c15c:	24840490 	addiu	a0,a0,1168
  41c160:	8fbc0018 	lw	gp,24(sp)
  41c164:	3c040042 	lui	a0,0x42
[31m  41c168:	8f99810c 	lw	t9,system[0m
  41c16c:	0320f809 	jalr	t9
  41c170:	248404d4 	addiu	a0,a0,1236
  41c174:	100006eb 	b	41dd24 <_ftext@@Base+0x1cce4>
  41c178:	00000000 	nop
  41c17c:	14430007 	bne	v0,v1,41c19c <_ftext@@Base+0x1b15c>
  41c180:	24030002 	li	v1,2
  41c184:	3c040042 	lui	a0,0x42
[31m  41c188:	8f99810c 	lw	t9,system[0m
  41c18c:	0320f809 	jalr	t9
  41c190:	24840510 	addiu	a0,a0,1296
  41c194:	100006e3 	b	41dd24 <_ftext@@Base+0x1cce4>
  41c198:	00000000 	nop
  41c19c:	1443000c 	bne	v0,v1,41c1d0 <_ftext@@Base+0x1b190>
  41c1a0:	24030003 	li	v1,3
  41c1a4:	3c040042 	lui	a0,0x42
[31m  41c1a8:	8f99810c 	lw	t9,system[0m
  41c1ac:	0320f809 	jalr	t9
  41c1b0:	24840490 	addiu	a0,a0,1168
  41c1b4:	8fbc0018 	lw	gp,24(sp)
  41c1b8:	3c040042 	lui	a0,0x42
[31m  41c1bc:	8f99810c 	lw	t9,system[0m
  41c1c0:	0320f809 	jalr	t9
  41c1c4:	24840510 	addiu	a0,a0,1296
  41c1c8:	100006d6 	b	41dd24 <_ftext@@Base+0x1cce4>
  41c1cc:	00000000 	nop
  41c1d0:	1443000c 	bne	v0,v1,41c204 <_ftext@@Base+0x1b1c4>
  41c1d4:	24030004 	li	v1,4
  41c1d8:	3c040042 	lui	a0,0x42
[31m  41c1dc:	8f99810c 	lw	t9,system[0m
  41c1e0:	0320f809 	jalr	t9
  41c1e4:	24840490 	addiu	a0,a0,1168
  41c1e8:	8fbc0018 	lw	gp,24(sp)
  41c1ec:	3c040042 	lui	a0,0x42
[31m  41c1f0:	8f99810c 	lw	t9,system[0m
  41c1f4:	0320f809 	jalr	t9
  41c1f8:	2484054c 	addiu	a0,a0,1356
--
  41c210:	afa00228 	sw	zero,552(sp)
  41c214:	90420ec0 	lbu	v0,3776(v0)
  41c218:	a3a2029c 	sb	v0,668(sp)
  41c21c:	27a4029d 	addiu	a0,sp,669
  41c220:	00002821 	move	a1,zero
  41c224:	8f9980a8 	lw	t9,-32600(gp)
  41c228:	0320f809 	jalr	t9
  41c22c:	240600ff 	li	a2,255
  41c230:	8fbc0018 	lw	gp,24(sp)
  41c234:	3c110042 	lui	s1,0x42
  41c238:	2624e9e8 	addiu	a0,s1,-5656
  41c23c:	3c050042 	lui	a1,0x42
  41c240:	24a50588 	addiu	a1,a1,1416
  41c244:	8f998054 	lw	t9,-32684(gp)
  41c248:	0320f809 	jalr	t9
  41c24c:	27a60224 	addiu	a2,sp,548
  41c250:	8fbc0018 	lw	gp,24(sp)
  41c254:	2624e9e8 	addiu	a0,s1,-5656
  41c258:	3c050042 	lui	a1,0x42
  41c25c:	24a50594 	addiu	a1,a1,1428
  41c260:	8f998054 	lw	t9,-32684(gp)
  41c264:	0320f809 	jalr	t9
  41c268:	27a60228 	addiu	a2,sp,552
  41c26c:	8fbc0018 	lw	gp,24(sp)
  41c270:	3c040042 	lui	a0,0x42
[31m  41c274:	8f99810c 	lw	t9,system[0m
  41c278:	0320f809 	jalr	t9
  41c27c:	24840490 	addiu	a0,a0,1168
  41c280:	8fbc0018 	lw	gp,24(sp)
  41c284:	27b1029c 	addiu	s1,sp,668
  41c288:	02202021 	move	a0,s1
  41c28c:	3c050042 	lui	a1,0x42
  41c290:	8fa60224 	lw	a2,548(sp)
  41c294:	8fa70228 	lw	a3,552(sp)
  41c298:	8f998088 	lw	t9,-32632(gp)
  41c29c:	0320f809 	jalr	t9
  41c2a0:	24a505a0 	addiu	a1,a1,1440
  41c2a4:	8fbc0018 	lw	gp,24(sp)
[31m  41c2a8:	8f99810c 	lw	t9,system[0m
  41c2ac:	0320f809 	jalr	t9
  41c2b0:	02202021 	move	a0,s1
  41c2b4:	8fbc0018 	lw	gp,24(sp)
  41c2b8:	3c040042 	lui	a0,0x42
[31m  41c2bc:	8f99810c 	lw	t9,system[0m
  41c2c0:	0320f809 	jalr	t9
  41c2c4:	248405e0 	addiu	a0,a0,1504
  41c2c8:	8fbc0018 	lw	gp,24(sp)
[31m  41c2cc:	8f99810c 	lw	t9,system[0m
  41c2d0:	0320f809 	jalr	t9
  41c2d4:	02202021 	move	a0,s1
--
  41c370:	2403ffff 	li	v1,-1
  41c374:	10430010 	beq	v0,v1,41c3b8 <_ftext@@Base+0x1b378>
  41c378:	00000000 	nop
  41c37c:	8e030058 	lw	v1,88(s0)
  41c380:	8e040060 	lw	a0,96(s0)
  41c384:	00732821 	addu	a1,v1,s3
  41c388:	8ca60004 	lw	a2,4(a1)
  41c38c:	00022880 	sll	a1,v0,0x2
  41c390:	00652821 	addu	a1,v1,a1
  41c394:	8ca70004 	lw	a3,4(a1)
  41c398:	24420080 	addiu	v0,v0,128
  41c39c:	00021080 	sll	v0,v0,0x2
  41c3a0:	00621821 	addu	v1,v1,v0
  41c3a4:	8c620004 	lw	v0,4(v1)
  41c3a8:	afa20010 	sw	v0,16(sp)
  41c3ac:	0c100bbd 	jal	402ef4 <_ftext@@Base+0x1eb4>
  41c3b0:	02002821 	move	a1,s0
  41c3b4:	8fbc0018 	lw	gp,24(sp)
  41c3b8:	26310004 	addiu	s1,s1,4
  41c3bc:	1632ffe7 	bne	s1,s2,41c35c <_ftext@@Base+0x1b31c>
  41c3c0:	02002021 	move	a0,s0
  41c3c4:	3c020043 	lui	v0,0x43
  41c3c8:	8c4214e8 	lw	v0,5352(v0)
  41c3cc:	10400655 	beqz	v0,41dd24 <_ftext@@Base+0x1cce4>
  41c3d0:	3c040042 	lui	a0,0x42
[31m  41c3d4:	8f99810c 	lw	t9,system[0m
  41c3d8:	0320f809 	jalr	t9
  41c3dc:	2484061c 	addiu	a0,a0,1564
--
  41c45c:	0320f809 	jalr	t9
  41c460:	2406ffff 	li	a2,-1
  41c464:	8fbc0018 	lw	gp,24(sp)
  41c468:	2403ffff 	li	v1,-1
  41c46c:	10430010 	beq	v0,v1,41c4b0 <_ftext@@Base+0x1b470>
  41c470:	00000000 	nop
  41c474:	8e030058 	lw	v1,88(s0)
  41c478:	8e040060 	lw	a0,96(s0)
  41c47c:	00732821 	addu	a1,v1,s3
  41c480:	8ca60004 	lw	a2,4(a1)
  41c484:	00022880 	sll	a1,v0,0x2
  41c488:	00652821 	addu	a1,v1,a1
  41c48c:	8ca70004 	lw	a3,4(a1)
  41c490:	24420080 	addiu	v0,v0,128
  41c494:	00021080 	sll	v0,v0,0x2
  41c498:	00621821 	addu	v1,v1,v0
  41c49c:	8c620004 	lw	v0,4(v1)
  41c4a0:	afa20010 	sw	v0,16(sp)
  41c4a4:	0c100bbd 	jal	402ef4 <_ftext@@Base+0x1eb4>
  41c4a8:	02002821 	move	a1,s0
  41c4ac:	8fbc0018 	lw	gp,24(sp)
  41c4b0:	26310004 	addiu	s1,s1,4
  41c4b4:	1632ffe7 	bne	s1,s2,41c454 <_ftext@@Base+0x1b414>
  41c4b8:	02002021 	move	a0,s0
  41c4bc:	3c040042 	lui	a0,0x42
[31m  41c4c0:	8f99810c 	lw	t9,system[0m
  41c4c4:	0320f809 	jalr	t9
  41c4c8:	24840660 	addiu	a0,a0,1632
--
  41c560:	2403ffff 	li	v1,-1
  41c564:	10430010 	beq	v0,v1,41c5a8 <_ftext@@Base+0x1b568>
  41c568:	00000000 	nop
  41c56c:	8e030058 	lw	v1,88(s0)
  41c570:	8e040060 	lw	a0,96(s0)
  41c574:	00732821 	addu	a1,v1,s3
  41c578:	8ca60004 	lw	a2,4(a1)
  41c57c:	00022880 	sll	a1,v0,0x2
  41c580:	00652821 	addu	a1,v1,a1
  41c584:	8ca70004 	lw	a3,4(a1)
  41c588:	24420080 	addiu	v0,v0,128
  41c58c:	00021080 	sll	v0,v0,0x2
  41c590:	00621821 	addu	v1,v1,v0
  41c594:	8c620004 	lw	v0,4(v1)
  41c598:	afa20010 	sw	v0,16(sp)
  41c59c:	0c100bbd 	jal	402ef4 <_ftext@@Base+0x1eb4>
  41c5a0:	02002821 	move	a1,s0
  41c5a4:	8fbc0018 	lw	gp,24(sp)
  41c5a8:	26310004 	addiu	s1,s1,4
  41c5ac:	1632ffe7 	bne	s1,s2,41c54c <_ftext@@Base+0x1b50c>
  41c5b0:	02002021 	move	a0,s0
  41c5b4:	3c020043 	lui	v0,0x43
  41c5b8:	8c4214e8 	lw	v0,5352(v0)
  41c5bc:	104005d9 	beqz	v0,41dd24 <_ftext@@Base+0x1cce4>
  41c5c0:	3c040042 	lui	a0,0x42
[31m  41c5c4:	8f99810c 	lw	t9,system[0m
  41c5c8:	0320f809 	jalr	t9
  41c5cc:	248406a4 	addiu	a0,a0,1700
--
  41c664:	2403ffff 	li	v1,-1
  41c668:	10430010 	beq	v0,v1,41c6ac <_ftext@@Base+0x1b66c>
  41c66c:	00000000 	nop
  41c670:	8e030058 	lw	v1,88(s0)
  41c674:	8e040060 	lw	a0,96(s0)
  41c678:	00732821 	addu	a1,v1,s3
  41c67c:	8ca60004 	lw	a2,4(a1)
  41c680:	00022880 	sll	a1,v0,0x2
  41c684:	00652821 	addu	a1,v1,a1
  41c688:	8ca70004 	lw	a3,4(a1)
  41c68c:	24420080 	addiu	v0,v0,128
  41c690:	00021080 	sll	v0,v0,0x2
  41c694:	00621821 	addu	v1,v1,v0
  41c698:	8c620004 	lw	v0,4(v1)
  41c69c:	afa20010 	sw	v0,16(sp)
  41c6a0:	0c100bbd 	jal	402ef4 <_ftext@@Base+0x1eb4>
  41c6a4:	02002821 	move	a1,s0
  41c6a8:	8fbc0018 	lw	gp,24(sp)
  41c6ac:	26310004 	addiu	s1,s1,4
  41c6b0:	1632ffe7 	bne	s1,s2,41c650 <_ftext@@Base+0x1b610>
  41c6b4:	02002021 	move	a0,s0
  41c6b8:	3c020043 	lui	v0,0x43
  41c6bc:	8c4214e8 	lw	v0,5352(v0)
  41c6c0:	10400598 	beqz	v0,41dd24 <_ftext@@Base+0x1cce4>
  41c6c4:	3c040042 	lui	a0,0x42
[31m  41c6c8:	8f99810c 	lw	t9,system[0m
  41c6cc:	0320f809 	jalr	t9
  41c6d0:	248406e4 	addiu	a0,a0,1764
--
  41c874:	8ca60004 	lw	a2,4(a1)
  41c878:	00022880 	sll	a1,v0,0x2
  41c87c:	00652821 	addu	a1,v1,a1
  41c880:	8ca70004 	lw	a3,4(a1)
  41c884:	24420080 	addiu	v0,v0,128
  41c888:	00021080 	sll	v0,v0,0x2
  41c88c:	00621821 	addu	v1,v1,v0
  41c890:	8c620004 	lw	v0,4(v1)
  41c894:	afa20010 	sw	v0,16(sp)
  41c898:	0c100bbd 	jal	402ef4 <_ftext@@Base+0x1eb4>
  41c89c:	02002821 	move	a1,s0
  41c8a0:	8fbc0018 	lw	gp,24(sp)
  41c8a4:	3c040042 	lui	a0,0x42
  41c8a8:	2484ebfc 	addiu	a0,a0,-5124
  41c8ac:	3c050042 	lui	a1,0x42
  41c8b0:	24a5ec08 	addiu	a1,a1,-5112
  41c8b4:	8f998054 	lw	t9,-32684(gp)
  41c8b8:	0320f809 	jalr	t9
  41c8bc:	27a60228 	addiu	a2,sp,552
  41c8c0:	8fbc0018 	lw	gp,24(sp)
  41c8c4:	24020001 	li	v0,1
  41c8c8:	8fa30228 	lw	v1,552(sp)
  41c8cc:	14620007 	bne	v1,v0,41c8ec <_ftext@@Base+0x1b8ac>
  41c8d0:	3c040042 	lui	a0,0x42
  41c8d4:	3c040042 	lui	a0,0x42
[31m  41c8d8:	8f99810c 	lw	t9,system[0m
  41c8dc:	0320f809 	jalr	t9
  41c8e0:	24840728 	addiu	a0,a0,1832
  41c8e4:	1000050f 	b	41dd24 <_ftext@@Base+0x1cce4>
  41c8e8:	00000000 	nop
[31m  41c8ec:	8f99810c 	lw	t9,system[0m
  41c8f0:	0320f809 	jalr	t9
  41c8f4:	2484075c 	addiu	a0,a0,1884
--
  41c9d8:	8ca70004 	lw	a3,4(a1)
  41c9dc:	24420080 	addiu	v0,v0,128
  41c9e0:	00021080 	sll	v0,v0,0x2
  41c9e4:	00621821 	addu	v1,v1,v0
  41c9e8:	8c620004 	lw	v0,4(v1)
  41c9ec:	afa20010 	sw	v0,16(sp)
  41c9f0:	0c100bbd 	jal	402ef4 <_ftext@@Base+0x1eb4>
  41c9f4:	02002821 	move	a1,s0
  41c9f8:	8fbc0018 	lw	gp,24(sp)
  41c9fc:	3c020043 	lui	v0,0x43
  41ca00:	8c4214e8 	lw	v0,5352(v0)
  41ca04:	104004c7 	beqz	v0,41dd24 <_ftext@@Base+0x1cce4>
  41ca08:	3c040042 	lui	a0,0x42
  41ca0c:	afa00228 	sw	zero,552(sp)
  41ca10:	2484ebfc 	addiu	a0,a0,-5124
  41ca14:	3c050042 	lui	a1,0x42
  41ca18:	24a5ec08 	addiu	a1,a1,-5112
  41ca1c:	8f998054 	lw	t9,-32684(gp)
  41ca20:	0320f809 	jalr	t9
  41ca24:	27a60228 	addiu	a2,sp,552
  41ca28:	8fbc0018 	lw	gp,24(sp)
  41ca2c:	24020001 	li	v0,1
  41ca30:	8fa30228 	lw	v1,552(sp)
  41ca34:	146204bb 	bne	v1,v0,41dd24 <_ftext@@Base+0x1cce4>
  41ca38:	3c040042 	lui	a0,0x42
[31m  41ca3c:	8f99810c 	lw	t9,system[0m
  41ca40:	0320f809 	jalr	t9
  41ca44:	24840728 	addiu	a0,a0,1832
--
  41cab8:	2403ffff 	li	v1,-1
  41cabc:	10430010 	beq	v0,v1,41cb00 <_ftext@@Base+0x1bac0>
  41cac0:	00000000 	nop
  41cac4:	8e030058 	lw	v1,88(s0)
  41cac8:	8e040060 	lw	a0,96(s0)
  41cacc:	00732821 	addu	a1,v1,s3
  41cad0:	8ca60004 	lw	a2,4(a1)
  41cad4:	00022880 	sll	a1,v0,0x2
  41cad8:	00652821 	addu	a1,v1,a1
  41cadc:	8ca70004 	lw	a3,4(a1)
  41cae0:	24420080 	addiu	v0,v0,128
  41cae4:	00021080 	sll	v0,v0,0x2
  41cae8:	00621821 	addu	v1,v1,v0
  41caec:	8c620004 	lw	v0,4(v1)
  41caf0:	afa20010 	sw	v0,16(sp)
  41caf4:	0c100bbd 	jal	402ef4 <_ftext@@Base+0x1eb4>
  41caf8:	02002821 	move	a1,s0
  41cafc:	8fbc0018 	lw	gp,24(sp)
  41cb00:	26310004 	addiu	s1,s1,4
  41cb04:	1632ffe7 	bne	s1,s2,41caa4 <_ftext@@Base+0x1ba64>
  41cb08:	02002021 	move	a0,s0
  41cb0c:	3c020043 	lui	v0,0x43
  41cb10:	8c4214e8 	lw	v0,5352(v0)
  41cb14:	10400483 	beqz	v0,41dd24 <_ftext@@Base+0x1cce4>
  41cb18:	3c040042 	lui	a0,0x42
[31m  41cb1c:	8f99810c 	lw	t9,system[0m
  41cb20:	0320f809 	jalr	t9
  41cb24:	24840458 	addiu	a0,a0,1112
--
  41cbc8:	2403ffff 	li	v1,-1
  41cbcc:	10430010 	beq	v0,v1,41cc10 <_ftext@@Base+0x1bbd0>
  41cbd0:	00000000 	nop
  41cbd4:	8e030058 	lw	v1,88(s0)
  41cbd8:	8e040060 	lw	a0,96(s0)
  41cbdc:	00732821 	addu	a1,v1,s3
  41cbe0:	8ca60004 	lw	a2,4(a1)
  41cbe4:	00022880 	sll	a1,v0,0x2
  41cbe8:	00652821 	addu	a1,v1,a1
  41cbec:	8ca70004 	lw	a3,4(a1)
  41cbf0:	24420080 	addiu	v0,v0,128
  41cbf4:	00021080 	sll	v0,v0,0x2
  41cbf8:	00621821 	addu	v1,v1,v0
  41cbfc:	8c620004 	lw	v0,4(v1)
  41cc00:	afa20010 	sw	v0,16(sp)
  41cc04:	0c100bbd 	jal	402ef4 <_ftext@@Base+0x1eb4>
  41cc08:	02002821 	move	a1,s0
  41cc0c:	8fbc0018 	lw	gp,24(sp)
  41cc10:	26310004 	addiu	s1,s1,4
  41cc14:	1632ffe7 	bne	s1,s2,41cbb4 <_ftext@@Base+0x1bb74>
  41cc18:	02002021 	move	a0,s0
  41cc1c:	3c020043 	lui	v0,0x43
  41cc20:	8c4214e8 	lw	v0,5352(v0)
  41cc24:	1040043f 	beqz	v0,41dd24 <_ftext@@Base+0x1cce4>
  41cc28:	3c040042 	lui	a0,0x42
[31m  41cc2c:	8f99810c 	lw	t9,system[0m
  41cc30:	0320f809 	jalr	t9
  41cc34:	24840790 	addiu	a0,a0,1936
  41cc38:	8fbc0018 	lw	gp,24(sp)
  41cc3c:	3c040042 	lui	a0,0x42
[31m  41cc40:	8f99810c 	lw	t9,system[0m
  41cc44:	0320f809 	jalr	t9
  41cc48:	248407d4 	addiu	a0,a0,2004
--
  41ccc8:	2403ffff 	li	v1,-1
  41cccc:	10430010 	beq	v0,v1,41cd10 <_ftext@@Base+0x1bcd0>
  41ccd0:	00000000 	nop
  41ccd4:	8e030058 	lw	v1,88(s0)
  41ccd8:	8e040060 	lw	a0,96(s0)
  41ccdc:	00732821 	addu	a1,v1,s3
  41cce0:	8ca60004 	lw	a2,4(a1)
  41cce4:	00022880 	sll	a1,v0,0x2
  41cce8:	00652821 	addu	a1,v1,a1
  41ccec:	8ca70004 	lw	a3,4(a1)
  41ccf0:	24420080 	addiu	v0,v0,128
  41ccf4:	00021080 	sll	v0,v0,0x2
  41ccf8:	00621821 	addu	v1,v1,v0
  41ccfc:	8c620004 	lw	v0,4(v1)
  41cd00:	afa20010 	sw	v0,16(sp)
  41cd04:	0c100bbd 	jal	402ef4 <_ftext@@Base+0x1eb4>
  41cd08:	02002821 	move	a1,s0
  41cd0c:	8fbc0018 	lw	gp,24(sp)
  41cd10:	26310004 	addiu	s1,s1,4
  41cd14:	1632ffe7 	bne	s1,s2,41ccb4 <_ftext@@Base+0x1bc74>
  41cd18:	02002021 	move	a0,s0
  41cd1c:	3c020043 	lui	v0,0x43
  41cd20:	8c4214e8 	lw	v0,5352(v0)
  41cd24:	104003ff 	beqz	v0,41dd24 <_ftext@@Base+0x1cce4>
  41cd28:	3c040042 	lui	a0,0x42
[31m  41cd2c:	8f99810c 	lw	t9,system[0m
  41cd30:	0320f809 	jalr	t9
  41cd34:	2484081c 	addiu	a0,a0,2076
--
  41cdb4:	2403ffff 	li	v1,-1
  41cdb8:	10430010 	beq	v0,v1,41cdfc <_ftext@@Base+0x1bdbc>
  41cdbc:	00000000 	nop
  41cdc0:	8e030058 	lw	v1,88(s0)
  41cdc4:	8e040060 	lw	a0,96(s0)
  41cdc8:	00732821 	addu	a1,v1,s3
  41cdcc:	8ca60004 	lw	a2,4(a1)
  41cdd0:	00022880 	sll	a1,v0,0x2
  41cdd4:	00652821 	addu	a1,v1,a1
  41cdd8:	8ca70004 	lw	a3,4(a1)
  41cddc:	24420080 	addiu	v0,v0,128
  41cde0:	00021080 	sll	v0,v0,0x2
  41cde4:	00621821 	addu	v1,v1,v0
  41cde8:	8c620004 	lw	v0,4(v1)
  41cdec:	afa20010 	sw	v0,16(sp)
  41cdf0:	0c100bbd 	jal	402ef4 <_ftext@@Base+0x1eb4>
  41cdf4:	02002821 	move	a1,s0
  41cdf8:	8fbc0018 	lw	gp,24(sp)
  41cdfc:	26310004 	addiu	s1,s1,4
  41ce00:	1632ffe7 	bne	s1,s2,41cda0 <_ftext@@Base+0x1bd60>
  41ce04:	02002021 	move	a0,s0
  41ce08:	3c020043 	lui	v0,0x43
  41ce0c:	8c4214e8 	lw	v0,5352(v0)
  41ce10:	104003c4 	beqz	v0,41dd24 <_ftext@@Base+0x1cce4>
  41ce14:	3c040042 	lui	a0,0x42
[31m  41ce18:	8f99810c 	lw	t9,system[0m
  41ce1c:	0320f809 	jalr	t9
  41ce20:	24840868 	addiu	a0,a0,2152
  41ce24:	8fbc0018 	lw	gp,24(sp)
  41ce28:	3c040042 	lui	a0,0x42
[31m  41ce2c:	8f99810c 	lw	t9,system[0m
  41ce30:	0320f809 	jalr	t9
  41ce34:	248408a4 	addiu	a0,a0,2212
--
  41cea8:	2403ffff 	li	v1,-1
  41ceac:	10430010 	beq	v0,v1,41cef0 <_ftext@@Base+0x1beb0>
  41ceb0:	00000000 	nop
  41ceb4:	8e030058 	lw	v1,88(s0)
  41ceb8:	8e040060 	lw	a0,96(s0)
  41cebc:	00732821 	addu	a1,v1,s3
  41cec0:	8ca60004 	lw	a2,4(a1)
  41cec4:	00022880 	sll	a1,v0,0x2
  41cec8:	00652821 	addu	a1,v1,a1
  41cecc:	8ca70004 	lw	a3,4(a1)
  41ced0:	24420080 	addiu	v0,v0,128
  41ced4:	00021080 	sll	v0,v0,0x2
  41ced8:	00621821 	addu	v1,v1,v0
  41cedc:	8c620004 	lw	v0,4(v1)
  41cee0:	afa20010 	sw	v0,16(sp)
  41cee4:	0c100bbd 	jal	402ef4 <_ftext@@Base+0x1eb4>
  41cee8:	02002821 	move	a1,s0
  41ceec:	8fbc0018 	lw	gp,24(sp)
  41cef0:	26310004 	addiu	s1,s1,4
  41cef4:	1632ffe7 	bne	s1,s2,41ce94 <_ftext@@Base+0x1be54>
  41cef8:	02002021 	move	a0,s0
  41cefc:	3c020043 	lui	v0,0x43
  41cf00:	8c4214e8 	lw	v0,5352(v0)
  41cf04:	10400387 	beqz	v0,41dd24 <_ftext@@Base+0x1cce4>
  41cf08:	3c040042 	lui	a0,0x42
[31m  41cf0c:	8f99810c 	lw	t9,system[0m
  41cf10:	0320f809 	jalr	t9
  41cf14:	24840868 	addiu	a0,a0,2152
  41cf18:	8fbc0018 	lw	gp,24(sp)
  41cf1c:	3c040042 	lui	a0,0x42
[31m  41cf20:	8f99810c 	lw	t9,system[0m
  41cf24:	0320f809 	jalr	t9
  41cf28:	248408a4 	addiu	a0,a0,2212
--
  41cf9c:	2403ffff 	li	v1,-1
  41cfa0:	10430010 	beq	v0,v1,41cfe4 <_ftext@@Base+0x1bfa4>
  41cfa4:	00000000 	nop
  41cfa8:	8e030058 	lw	v1,88(s0)
  41cfac:	8e040060 	lw	a0,96(s0)
  41cfb0:	00732821 	addu	a1,v1,s3
  41cfb4:	8ca60004 	lw	a2,4(a1)
  41cfb8:	00022880 	sll	a1,v0,0x2
  41cfbc:	00652821 	addu	a1,v1,a1
  41cfc0:	8ca70004 	lw	a3,4(a1)
  41cfc4:	24420080 	addiu	v0,v0,128
  41cfc8:	00021080 	sll	v0,v0,0x2
  41cfcc:	00621821 	addu	v1,v1,v0
  41cfd0:	8c620004 	lw	v0,4(v1)
  41cfd4:	afa20010 	sw	v0,16(sp)
  41cfd8:	0c100bbd 	jal	402ef4 <_ftext@@Base+0x1eb4>
  41cfdc:	02002821 	move	a1,s0
  41cfe0:	8fbc0018 	lw	gp,24(sp)
  41cfe4:	26310004 	addiu	s1,s1,4
  41cfe8:	1632ffe7 	bne	s1,s2,41cf88 <_ftext@@Base+0x1bf48>
  41cfec:	02002021 	move	a0,s0
  41cff0:	3c020043 	lui	v0,0x43
  41cff4:	8c4214e8 	lw	v0,5352(v0)
  41cff8:	1040034a 	beqz	v0,41dd24 <_ftext@@Base+0x1cce4>
  41cffc:	3c040042 	lui	a0,0x42
[31m  41d000:	8f99810c 	lw	t9,system[0m
  41d004:	0320f809 	jalr	t9
  41d008:	24840868 	addiu	a0,a0,2152
  41d00c:	8fbc0018 	lw	gp,24(sp)
  41d010:	3c040042 	lui	a0,0x42
[31m  41d014:	8f99810c 	lw	t9,system[0m
  41d018:	0320f809 	jalr	t9
  41d01c:	248408a4 	addiu	a0,a0,2212
--
  41d090:	2403ffff 	li	v1,-1
  41d094:	10430010 	beq	v0,v1,41d0d8 <_ftext@@Base+0x1c098>
  41d098:	00000000 	nop
  41d09c:	8e030058 	lw	v1,88(s0)
  41d0a0:	8e040060 	lw	a0,96(s0)
  41d0a4:	00732821 	addu	a1,v1,s3
  41d0a8:	8ca60004 	lw	a2,4(a1)
  41d0ac:	00022880 	sll	a1,v0,0x2
  41d0b0:	00652821 	addu	a1,v1,a1
  41d0b4:	8ca70004 	lw	a3,4(a1)
  41d0b8:	24420080 	addiu	v0,v0,128
  41d0bc:	00021080 	sll	v0,v0,0x2
  41d0c0:	00621821 	addu	v1,v1,v0
  41d0c4:	8c620004 	lw	v0,4(v1)
  41d0c8:	afa20010 	sw	v0,16(sp)
  41d0cc:	0c100bbd 	jal	402ef4 <_ftext@@Base+0x1eb4>
  41d0d0:	02002821 	move	a1,s0
  41d0d4:	8fbc0018 	lw	gp,24(sp)
  41d0d8:	26310004 	addiu	s1,s1,4
  41d0dc:	1632ffe7 	bne	s1,s2,41d07c <_ftext@@Base+0x1c03c>
  41d0e0:	02002021 	move	a0,s0
  41d0e4:	3c020043 	lui	v0,0x43
  41d0e8:	8c4214e8 	lw	v0,5352(v0)
  41d0ec:	1040030d 	beqz	v0,41dd24 <_ftext@@Base+0x1cce4>
  41d0f0:	3c040042 	lui	a0,0x42
[31m  41d0f4:	8f99810c 	lw	t9,system[0m
  41d0f8:	0320f809 	jalr	t9
  41d0fc:	248408e8 	addiu	a0,a0,2280
--
  41d2ac:	8ca70004 	lw	a3,4(a1)
  41d2b0:	24420080 	addiu	v0,v0,128
  41d2b4:	00021080 	sll	v0,v0,0x2
  41d2b8:	00621821 	addu	v1,v1,v0
  41d2bc:	8c620004 	lw	v0,4(v1)
  41d2c0:	afa20010 	sw	v0,16(sp)
  41d2c4:	0c100bbd 	jal	402ef4 <_ftext@@Base+0x1eb4>
  41d2c8:	02002821 	move	a1,s0
  41d2cc:	8fbc0018 	lw	gp,24(sp)
  41d2d0:	3c020043 	lui	v0,0x43
  41d2d4:	8c4214e8 	lw	v0,5352(v0)
  41d2d8:	10400292 	beqz	v0,41dd24 <_ftext@@Base+0x1cce4>
  41d2dc:	3c040042 	lui	a0,0x42
  41d2e0:	afa00228 	sw	zero,552(sp)
  41d2e4:	2484efcc 	addiu	a0,a0,-4148
  41d2e8:	3c050042 	lui	a1,0x42
  41d2ec:	24a5efd4 	addiu	a1,a1,-4140
  41d2f0:	8f998054 	lw	t9,-32684(gp)
  41d2f4:	0320f809 	jalr	t9
  41d2f8:	27a60228 	addiu	a2,sp,552
  41d2fc:	8fbc0018 	lw	gp,24(sp)
  41d300:	8fa20228 	lw	v0,552(sp)
  41d304:	1440000d 	bnez	v0,41d33c <_ftext@@Base+0x1c2fc>
  41d308:	24030001 	li	v1,1
  41d30c:	3c040042 	lui	a0,0x42
[31m  41d310:	8f99810c 	lw	t9,system[0m
  41d314:	0320f809 	jalr	t9
  41d318:	2484092c 	addiu	a0,a0,2348
  41d31c:	8fbc0018 	lw	gp,24(sp)
  41d320:	3c040042 	lui	a0,0x42
[31m  41d324:	8f99810c 	lw	t9,system[0m
  41d328:	0320f809 	jalr	t9
  41d32c:	24840970 	addiu	a0,a0,2416
  41d330:	8fbc0018 	lw	gp,24(sp)
  41d334:	10000036 	b	41d410 <_ftext@@Base+0x1c3d0>
  41d338:	3c040042 	lui	a0,0x42
  41d33c:	1443000d 	bne	v0,v1,41d374 <_ftext@@Base+0x1c334>
  41d340:	24030002 	li	v1,2
  41d344:	3c040042 	lui	a0,0x42
[31m  41d348:	8f99810c 	lw	t9,system[0m
  41d34c:	0320f809 	jalr	t9
  41d350:	248409b4 	addiu	a0,a0,2484
  41d354:	8fbc0018 	lw	gp,24(sp)
  41d358:	3c040042 	lui	a0,0x42
[31m  41d35c:	8f99810c 	lw	t9,system[0m
  41d360:	0320f809 	jalr	t9
  41d364:	248409f8 	addiu	a0,a0,2552
  41d368:	8fbc0018 	lw	gp,24(sp)
  41d36c:	10000028 	b	41d410 <_ftext@@Base+0x1c3d0>
  41d370:	3c040042 	lui	a0,0x42
  41d374:	1443000d 	bne	v0,v1,41d3ac <_ftext@@Base+0x1c36c>
  41d378:	24030003 	li	v1,3
  41d37c:	3c040042 	lui	a0,0x42
[31m  41d380:	8f99810c 	lw	t9,system[0m
  41d384:	0320f809 	jalr	t9
  41d388:	24840a3c 	addiu	a0,a0,2620
  41d38c:	8fbc0018 	lw	gp,24(sp)
  41d390:	3c040042 	lui	a0,0x42
[31m  41d394:	8f99810c 	lw	t9,system[0m
  41d398:	0320f809 	jalr	t9
  41d39c:	24840a80 	addiu	a0,a0,2688
  41d3a0:	8fbc0018 	lw	gp,24(sp)
  41d3a4:	1000001a 	b	41d410 <_ftext@@Base+0x1c3d0>
  41d3a8:	3c040042 	lui	a0,0x42
  41d3ac:	1443000d 	bne	v0,v1,41d3e4 <_ftext@@Base+0x1c3a4>
  41d3b0:	00000000 	nop
  41d3b4:	3c040042 	lui	a0,0x42
[31m  41d3b8:	8f99810c 	lw	t9,system[0m
  41d3bc:	0320f809 	jalr	t9
  41d3c0:	24840ac4 	addiu	a0,a0,2756
  41d3c4:	8fbc0018 	lw	gp,24(sp)
  41d3c8:	3c040042 	lui	a0,0x42
[31m  41d3cc:	8f99810c 	lw	t9,system[0m
  41d3d0:	0320f809 	jalr	t9
  41d3d4:	24840b08 	addiu	a0,a0,2824
  41d3d8:	8fbc0018 	lw	gp,24(sp)
  41d3dc:	1000000c 	b	41d410 <_ftext@@Base+0x1c3d0>
  41d3e0:	3c040042 	lui	a0,0x42
  41d3e4:	3c040042 	lui	a0,0x42
[31m  41d3e8:	8f99810c 	lw	t9,system[0m
  41d3ec:	0320f809 	jalr	t9
  41d3f0:	24840a3c 	addiu	a0,a0,2620
  41d3f4:	8fbc0018 	lw	gp,24(sp)
  41d3f8:	3c040042 	lui	a0,0x42
[31m  41d3fc:	8f99810c 	lw	t9,system[0m
  41d400:	0320f809 	jalr	t9
  41d404:	24840a80 	addiu	a0,a0,2688
  41d408:	8fbc0018 	lw	gp,24(sp)
  41d40c:	3c040042 	lui	a0,0x42
[31m  41d410:	8f99810c 	lw	t9,system[0m
  41d414:	0320f809 	jalr	t9
  41d418:	24840b4c 	addiu	a0,a0,2892
--
  41d4b8:	8f99804c 	lw	t9,-32692(gp)
  41d4bc:	0320f809 	jalr	t9
  41d4c0:	2406ffff 	li	a2,-1
  41d4c4:	8fbc0018 	lw	gp,24(sp)
  41d4c8:	2403ffff 	li	v1,-1
  41d4cc:	10430010 	beq	v0,v1,41d510 <_ftext@@Base+0x1c4d0>
  41d4d0:	00000000 	nop
  41d4d4:	8e030058 	lw	v1,88(s0)
  41d4d8:	8e040060 	lw	a0,96(s0)
  41d4dc:	00732821 	addu	a1,v1,s3
  41d4e0:	8ca60004 	lw	a2,4(a1)
  41d4e4:	00022880 	sll	a1,v0,0x2
  41d4e8:	00652821 	addu	a1,v1,a1
  41d4ec:	8ca70004 	lw	a3,4(a1)
  41d4f0:	24420080 	addiu	v0,v0,128
  41d4f4:	00021080 	sll	v0,v0,0x2
  41d4f8:	00621821 	addu	v1,v1,v0
  41d4fc:	8c620004 	lw	v0,4(v1)
  41d500:	afa20010 	sw	v0,16(sp)
  41d504:	0c100bbd 	jal	402ef4 <_ftext@@Base+0x1eb4>
  41d508:	02002821 	move	a1,s0
  41d50c:	8fbc0018 	lw	gp,24(sp)
  41d510:	26310004 	addiu	s1,s1,4
  41d514:	1632ffe6 	bne	s1,s2,41d4b0 <_ftext@@Base+0x1c470>
  41d518:	3c040042 	lui	a0,0x42
[31m  41d51c:	8f99810c 	lw	t9,system[0m
  41d520:	0320f809 	jalr	t9
  41d524:	24840b90 	addiu	a0,a0,2960
--
  41d5c8:	2403ffff 	li	v1,-1
  41d5cc:	10430010 	beq	v0,v1,41d610 <_ftext@@Base+0x1c5d0>
  41d5d0:	00000000 	nop
  41d5d4:	8e030058 	lw	v1,88(s0)
  41d5d8:	8e040060 	lw	a0,96(s0)
  41d5dc:	00732821 	addu	a1,v1,s3
  41d5e0:	8ca60004 	lw	a2,4(a1)
  41d5e4:	00022880 	sll	a1,v0,0x2
  41d5e8:	00652821 	addu	a1,v1,a1
  41d5ec:	8ca70004 	lw	a3,4(a1)
  41d5f0:	24420080 	addiu	v0,v0,128
  41d5f4:	00021080 	sll	v0,v0,0x2
  41d5f8:	00621821 	addu	v1,v1,v0
  41d5fc:	8c620004 	lw	v0,4(v1)
  41d600:	afa20010 	sw	v0,16(sp)
  41d604:	0c100bbd 	jal	402ef4 <_ftext@@Base+0x1eb4>
  41d608:	02002821 	move	a1,s0
  41d60c:	8fbc0018 	lw	gp,24(sp)
  41d610:	26310004 	addiu	s1,s1,4
  41d614:	1632ffe7 	bne	s1,s2,41d5b4 <_ftext@@Base+0x1c574>
  41d618:	02002021 	move	a0,s0
  41d61c:	3c020043 	lui	v0,0x43
  41d620:	8c4214e8 	lw	v0,5352(v0)
  41d624:	104001bf 	beqz	v0,41dd24 <_ftext@@Base+0x1cce4>
  41d628:	3c040042 	lui	a0,0x42
[31m  41d62c:	8f99810c 	lw	t9,system[0m
  41d630:	0320f809 	jalr	t9
  41d634:	24840bc8 	addiu	a0,a0,3016
--
  41d6c0:	2403ffff 	li	v1,-1
  41d6c4:	10430010 	beq	v0,v1,41d708 <_ftext@@Base+0x1c6c8>
  41d6c8:	00000000 	nop
  41d6cc:	8e030058 	lw	v1,88(s0)
  41d6d0:	8e040060 	lw	a0,96(s0)
  41d6d4:	00732821 	addu	a1,v1,s3
  41d6d8:	8ca60004 	lw	a2,4(a1)
  41d6dc:	00022880 	sll	a1,v0,0x2
  41d6e0:	00652821 	addu	a1,v1,a1
  41d6e4:	8ca70004 	lw	a3,4(a1)
  41d6e8:	24420080 	addiu	v0,v0,128
  41d6ec:	00021080 	sll	v0,v0,0x2
  41d6f0:	00621821 	addu	v1,v1,v0
  41d6f4:	8c620004 	lw	v0,4(v1)
  41d6f8:	afa20010 	sw	v0,16(sp)
  41d6fc:	0c100bbd 	jal	402ef4 <_ftext@@Base+0x1eb4>
  41d700:	02002821 	move	a1,s0
  41d704:	8fbc0018 	lw	gp,24(sp)
  41d708:	26310004 	addiu	s1,s1,4
  41d70c:	1632ffe7 	bne	s1,s2,41d6ac <_ftext@@Base+0x1c66c>
  41d710:	02002021 	move	a0,s0
  41d714:	3c020043 	lui	v0,0x43
  41d718:	8c4214e8 	lw	v0,5352(v0)
  41d71c:	10400181 	beqz	v0,41dd24 <_ftext@@Base+0x1cce4>
  41d720:	3c040042 	lui	a0,0x42
[31m  41d724:	8f99810c 	lw	t9,system[0m
  41d728:	0320f809 	jalr	t9
  41d72c:	24840c10 	addiu	a0,a0,3088
--
  41d7b8:	2403ffff 	li	v1,-1
  41d7bc:	10430010 	beq	v0,v1,41d800 <_ftext@@Base+0x1c7c0>
  41d7c0:	00000000 	nop
  41d7c4:	8e030058 	lw	v1,88(s0)
  41d7c8:	8e040060 	lw	a0,96(s0)
  41d7cc:	00732821 	addu	a1,v1,s3
  41d7d0:	8ca60004 	lw	a2,4(a1)
  41d7d4:	00022880 	sll	a1,v0,0x2
  41d7d8:	00652821 	addu	a1,v1,a1
  41d7dc:	8ca70004 	lw	a3,4(a1)
  41d7e0:	24420080 	addiu	v0,v0,128
  41d7e4:	00021080 	sll	v0,v0,0x2
  41d7e8:	00621821 	addu	v1,v1,v0
  41d7ec:	8c620004 	lw	v0,4(v1)
  41d7f0:	afa20010 	sw	v0,16(sp)
  41d7f4:	0c100bbd 	jal	402ef4 <_ftext@@Base+0x1eb4>
  41d7f8:	02002821 	move	a1,s0
  41d7fc:	8fbc0018 	lw	gp,24(sp)
  41d800:	26310004 	addiu	s1,s1,4
  41d804:	1632ffe7 	bne	s1,s2,41d7a4 <_ftext@@Base+0x1c764>
  41d808:	02002021 	move	a0,s0
  41d80c:	3c020043 	lui	v0,0x43
  41d810:	8c4214e8 	lw	v0,5352(v0)
  41d814:	10400143 	beqz	v0,41dd24 <_ftext@@Base+0x1cce4>
  41d818:	3c040042 	lui	a0,0x42
[31m  41d81c:	8f99810c 	lw	t9,system[0m
  41d820:	0320f809 	jalr	t9
  41d824:	24840c54 	addiu	a0,a0,3156
--
  41d8b8:	2403ffff 	li	v1,-1
  41d8bc:	10430010 	beq	v0,v1,41d900 <_ftext@@Base+0x1c8c0>
  41d8c0:	00000000 	nop
  41d8c4:	8e030058 	lw	v1,88(s0)
  41d8c8:	8e040060 	lw	a0,96(s0)
  41d8cc:	00732821 	addu	a1,v1,s3
  41d8d0:	8ca60004 	lw	a2,4(a1)
  41d8d4:	00022880 	sll	a1,v0,0x2
  41d8d8:	00652821 	addu	a1,v1,a1
  41d8dc:	8ca70004 	lw	a3,4(a1)
  41d8e0:	24420080 	addiu	v0,v0,128
  41d8e4:	00021080 	sll	v0,v0,0x2
  41d8e8:	00621821 	addu	v1,v1,v0
  41d8ec:	8c620004 	lw	v0,4(v1)
  41d8f0:	afa20010 	sw	v0,16(sp)
  41d8f4:	0c100bbd 	jal	402ef4 <_ftext@@Base+0x1eb4>
  41d8f8:	02002821 	move	a1,s0
  41d8fc:	8fbc0018 	lw	gp,24(sp)
  41d900:	26310004 	addiu	s1,s1,4
  41d904:	1632ffe7 	bne	s1,s2,41d8a4 <_ftext@@Base+0x1c864>
  41d908:	02002021 	move	a0,s0
  41d90c:	3c020043 	lui	v0,0x43
  41d910:	8c4214e8 	lw	v0,5352(v0)
  41d914:	10400103 	beqz	v0,41dd24 <_ftext@@Base+0x1cce4>
  41d918:	3c040042 	lui	a0,0x42
[31m  41d91c:	8f99810c 	lw	t9,system[0m
  41d920:	0320f809 	jalr	t9
  41d924:	24840c98 	addiu	a0,a0,3224
--
  41d9b0:	2403ffff 	li	v1,-1
  41d9b4:	10430010 	beq	v0,v1,41d9f8 <_ftext@@Base+0x1c9b8>
  41d9b8:	00000000 	nop
  41d9bc:	8e030058 	lw	v1,88(s0)
  41d9c0:	8e040060 	lw	a0,96(s0)
  41d9c4:	00732821 	addu	a1,v1,s3
  41d9c8:	8ca60004 	lw	a2,4(a1)
  41d9cc:	00022880 	sll	a1,v0,0x2
  41d9d0:	00652821 	addu	a1,v1,a1
  41d9d4:	8ca70004 	lw	a3,4(a1)
  41d9d8:	24420080 	addiu	v0,v0,128
  41d9dc:	00021080 	sll	v0,v0,0x2
  41d9e0:	00621821 	addu	v1,v1,v0
  41d9e4:	8c620004 	lw	v0,4(v1)
  41d9e8:	afa20010 	sw	v0,16(sp)
  41d9ec:	0c100bbd 	jal	402ef4 <_ftext@@Base+0x1eb4>
  41d9f0:	02002821 	move	a1,s0
  41d9f4:	8fbc0018 	lw	gp,24(sp)
  41d9f8:	26310004 	addiu	s1,s1,4
  41d9fc:	1632ffe7 	bne	s1,s2,41d99c <_ftext@@Base+0x1c95c>
  41da00:	02002021 	move	a0,s0
  41da04:	3c020043 	lui	v0,0x43
  41da08:	8c4214e8 	lw	v0,5352(v0)
  41da0c:	104000c5 	beqz	v0,41dd24 <_ftext@@Base+0x1cce4>
  41da10:	3c040042 	lui	a0,0x42
[31m  41da14:	8f99810c 	lw	t9,system[0m
  41da18:	0320f809 	jalr	t9
  41da1c:	24840cdc 	addiu	a0,a0,3292
--
  41dab0:	2403ffff 	li	v1,-1
  41dab4:	10430010 	beq	v0,v1,41daf8 <_ftext@@Base+0x1cab8>
  41dab8:	00000000 	nop
  41dabc:	8e030058 	lw	v1,88(s0)
  41dac0:	8e040060 	lw	a0,96(s0)
  41dac4:	00732821 	addu	a1,v1,s3
  41dac8:	8ca60004 	lw	a2,4(a1)
  41dacc:	00022880 	sll	a1,v0,0x2
  41dad0:	00652821 	addu	a1,v1,a1
  41dad4:	8ca70004 	lw	a3,4(a1)
  41dad8:	24420080 	addiu	v0,v0,128
  41dadc:	00021080 	sll	v0,v0,0x2
  41dae0:	00621821 	addu	v1,v1,v0
  41dae4:	8c620004 	lw	v0,4(v1)
  41dae8:	afa20010 	sw	v0,16(sp)
  41daec:	0c100bbd 	jal	402ef4 <_ftext@@Base+0x1eb4>
  41daf0:	02002821 	move	a1,s0
  41daf4:	8fbc0018 	lw	gp,24(sp)
  41daf8:	26310004 	addiu	s1,s1,4
  41dafc:	1632ffe7 	bne	s1,s2,41da9c <_ftext@@Base+0x1ca5c>
  41db00:	02002021 	move	a0,s0
  41db04:	3c020043 	lui	v0,0x43
  41db08:	8c4214e8 	lw	v0,5352(v0)
  41db0c:	10400085 	beqz	v0,41dd24 <_ftext@@Base+0x1cce4>
  41db10:	3c040042 	lui	a0,0x42
[31m  41db14:	8f99810c 	lw	t9,system[0m
  41db18:	0320f809 	jalr	t9
  41db1c:	24840d20 	addiu	a0,a0,3360
--
  41dbb8:	2403ffff 	li	v1,-1
  41dbbc:	10430010 	beq	v0,v1,41dc00 <_ftext@@Base+0x1cbc0>
  41dbc0:	00000000 	nop
  41dbc4:	8e030058 	lw	v1,88(s0)
  41dbc8:	8e040060 	lw	a0,96(s0)
  41dbcc:	00732821 	addu	a1,v1,s3
  41dbd0:	8ca60004 	lw	a2,4(a1)
  41dbd4:	00022880 	sll	a1,v0,0x2
  41dbd8:	00652821 	addu	a1,v1,a1
  41dbdc:	8ca70004 	lw	a3,4(a1)
  41dbe0:	24420080 	addiu	v0,v0,128
  41dbe4:	00021080 	sll	v0,v0,0x2
  41dbe8:	00621821 	addu	v1,v1,v0
  41dbec:	8c620004 	lw	v0,4(v1)
  41dbf0:	afa20010 	sw	v0,16(sp)
  41dbf4:	0c100bbd 	jal	402ef4 <_ftext@@Base+0x1eb4>
  41dbf8:	02002821 	move	a1,s0
  41dbfc:	8fbc0018 	lw	gp,24(sp)
  41dc00:	26310004 	addiu	s1,s1,4
  41dc04:	1632ffe7 	bne	s1,s2,41dba4 <_ftext@@Base+0x1cb64>
  41dc08:	02002021 	move	a0,s0
  41dc0c:	3c020043 	lui	v0,0x43
  41dc10:	8c4214e8 	lw	v0,5352(v0)
  41dc14:	10400043 	beqz	v0,41dd24 <_ftext@@Base+0x1cce4>
  41dc18:	3c040042 	lui	a0,0x42
[31m  41dc1c:	8f99810c 	lw	t9,system[0m
  41dc20:	0320f809 	jalr	t9
  41dc24:	24840d64 	addiu	a0,a0,3428
--
  41dcb4:	2403ffff 	li	v1,-1
  41dcb8:	10430010 	beq	v0,v1,41dcfc <_ftext@@Base+0x1ccbc>
  41dcbc:	00000000 	nop
  41dcc0:	8e030058 	lw	v1,88(s0)
  41dcc4:	8e040060 	lw	a0,96(s0)
  41dcc8:	00732821 	addu	a1,v1,s3
  41dccc:	8ca60004 	lw	a2,4(a1)
  41dcd0:	00022880 	sll	a1,v0,0x2
  41dcd4:	00652821 	addu	a1,v1,a1
  41dcd8:	8ca70004 	lw	a3,4(a1)
  41dcdc:	24420080 	addiu	v0,v0,128
  41dce0:	00021080 	sll	v0,v0,0x2
  41dce4:	00621821 	addu	v1,v1,v0
  41dce8:	8c620004 	lw	v0,4(v1)
  41dcec:	afa20010 	sw	v0,16(sp)
  41dcf0:	0c100bbd 	jal	402ef4 <_ftext@@Base+0x1eb4>
  41dcf4:	02002821 	move	a1,s0
  41dcf8:	8fbc0018 	lw	gp,24(sp)
  41dcfc:	26310004 	addiu	s1,s1,4
  41dd00:	1632ffe7 	bne	s1,s2,41dca0 <_ftext@@Base+0x1cc60>
  41dd04:	02002021 	move	a0,s0
  41dd08:	3c020043 	lui	v0,0x43
  41dd0c:	8c4214e8 	lw	v0,5352(v0)
  41dd10:	10400004 	beqz	v0,41dd24 <_ftext@@Base+0x1cce4>
  41dd14:	3c040042 	lui	a0,0x42
[31m  41dd18:	8f99810c 	lw	t9,system[0m
  41dd1c:	0320f809 	jalr	t9
  41dd20:	24840dac 	addiu	a0,a0,3500

[0m
[[0;33m*[0m] Function [0;33msystem[0m used [0;33m63[0m times [0;33mparam.cgi[0m

