[[0;33m*[0m] Binary protection state of [0;33mtestserv.cgi[0m
[REF] s12

  	RELRO          CANARY            NX           PIE       RPATH        RUNPATH      SYMBOLS      
  	[31mNo RELRO[0m       [31mNo Canary found[0m   [31mNX disabled[0m  [31mNo PIE[0m       [32mNo RPATH[0m     [32mNo RUNPATH[0m   [32mNo Symbols[0m

[0m
[[0;33m*[0m] Function [0;33mfprintf[0m tear down of [0;33mtestserv.cgi[0m

  400e60:	8f99806c 	lw	t9,-32660(gp)
  400e64:	0320f809 	jalr	t9
  400e68:	02002021 	move	a0,s0
  400e6c:	8fbc0010 	lw	gp,16(sp)
  400e70:	14400006 	bnez	v0,400e8c <_ftext@@Base+0x23c>
  400e74:	2451ffbc 	addiu	s1,v0,-68
  400e78:	8f99806c 	lw	t9,-32660(gp)
  400e7c:	0320f809 	jalr	t9
  400e80:	02002021 	move	a0,s0
  400e84:	8fbc0010 	lw	gp,16(sp)
  400e88:	2451ffbc 	addiu	s1,v0,-68
  400e8c:	1e200003 	bgtz	s1,400e9c <_ftext@@Base+0x24c>
  400e90:	02209021 	move	s2,s1
  400e94:	10000016 	b	400ef0 <_ftext@@Base+0x2a0>
  400e98:	00009021 	move	s2,zero
  400e9c:	8f9980b8 	lw	t9,-32584(gp)
  400ea0:	0320f809 	jalr	t9
  400ea4:	02202021 	move	a0,s1
  400ea8:	8fbc0010 	lw	gp,16(sp)
  400eac:	10400010 	beqz	v0,400ef0 <_ftext@@Base+0x2a0>
  400eb0:	ae620000 	sw	v0,0(s3)
  400eb4:	8f82805c 	lw	v0,-32676(gp)
  400eb8:	8c440000 	lw	a0,0(v0)
  400ebc:	3c050040 	lui	a1,0x40
  400ec0:	24a525f0 	addiu	a1,a1,9712
[31m  400ec4:	8f9980a4 	lw	t9,fprintf[0m
  400ec8:	0320f809 	jalr	t9
  400ecc:	02203021 	move	a2,s1
--
  4013e0:	8fbc0048 	lw	gp,72(sp)
  4013e4:	a3a20486 	sb	v0,1158(sp)
  4013e8:	27a20094 	addiu	v0,sp,148
  4013ec:	afa204a4 	sw	v0,1188(sp)
  4013f0:	27a20160 	addiu	v0,sp,352
  4013f4:	afa204a8 	sw	v0,1192(sp)
  4013f8:	27a201a4 	addiu	v0,sp,420
  4013fc:	afa204ac 	sw	v0,1196(sp)
  401400:	27a20050 	addiu	v0,sp,80
  401404:	afa20498 	sw	v0,1176(sp)
  401408:	27a200d8 	addiu	v0,sp,216
  40140c:	afa2049c 	sw	v0,1180(sp)
  401410:	27a2011c 	addiu	v0,sp,284
  401414:	afa204a0 	sw	v0,1184(sp)
  401418:	8f998050 	lw	t9,-32688(gp)
  40141c:	0320f809 	jalr	t9
  401420:	27a4022c 	addiu	a0,sp,556
  401424:	8fbc0048 	lw	gp,72(sp)
  401428:	afa20480 	sw	v0,1152(sp)
  40142c:	24020001 	li	v0,1
  401430:	afa20488 	sw	v0,1160(sp)
  401434:	8f90805c 	lw	s0,-32676(gp)
  401438:	8e040000 	lw	a0,0(s0)
  40143c:	3c050040 	lui	a1,0x40
  401440:	24a526b8 	addiu	a1,a1,9912
[31m  401444:	8f9980a4 	lw	t9,fprintf[0m
  401448:	0320f809 	jalr	t9
  40144c:	02403021 	move	a2,s2
  401450:	8fbc0048 	lw	gp,72(sp)
  401454:	8e040000 	lw	a0,0(s0)
  401458:	3c050040 	lui	a1,0x40
  40145c:	93a60485 	lbu	a2,1157(sp)
[31m  401460:	8f9980a4 	lw	t9,fprintf[0m
  401464:	0320f809 	jalr	t9
  401468:	24a526c8 	addiu	a1,a1,9928
  40146c:	8fbc0048 	lw	gp,72(sp)
  401470:	8e040000 	lw	a0,0(s0)
  401474:	3c050040 	lui	a1,0x40
  401478:	93a60486 	lbu	a2,1158(sp)
[31m  40147c:	8f9980a4 	lw	t9,fprintf[0m
  401480:	0320f809 	jalr	t9
  401484:	24a526dc 	addiu	a1,a1,9948
  401488:	8fbc0048 	lw	gp,72(sp)
  40148c:	8e040000 	lw	a0,0(s0)
  401490:	3c050040 	lui	a1,0x40
  401494:	8fa604a4 	lw	a2,1188(sp)
[31m  401498:	8f9980a4 	lw	t9,fprintf[0m
  40149c:	0320f809 	jalr	t9
  4014a0:	24a526f0 	addiu	a1,a1,9968
  4014a4:	8fbc0048 	lw	gp,72(sp)
  4014a8:	8e040000 	lw	a0,0(s0)
  4014ac:	3c050040 	lui	a1,0x40
  4014b0:	8fa604a8 	lw	a2,1192(sp)
[31m  4014b4:	8f9980a4 	lw	t9,fprintf[0m
  4014b8:	0320f809 	jalr	t9
  4014bc:	24a52704 	addiu	a1,a1,9988
  4014c0:	8fbc0048 	lw	gp,72(sp)
  4014c4:	8e040000 	lw	a0,0(s0)
  4014c8:	3c050040 	lui	a1,0x40
  4014cc:	8fa604ac 	lw	a2,1196(sp)
[31m  4014d0:	8f9980a4 	lw	t9,fprintf[0m
  4014d4:	0320f809 	jalr	t9
  4014d8:	24a5271c 	addiu	a1,a1,10012
  4014dc:	8fbc0048 	lw	gp,72(sp)
  4014e0:	8e040000 	lw	a0,0(s0)
  4014e4:	3c050040 	lui	a1,0x40
  4014e8:	8fa60498 	lw	a2,1176(sp)
[31m  4014ec:	8f9980a4 	lw	t9,fprintf[0m
  4014f0:	0320f809 	jalr	t9
  4014f4:	24a52734 	addiu	a1,a1,10036
  4014f8:	8fbc0048 	lw	gp,72(sp)
  4014fc:	8e040000 	lw	a0,0(s0)
  401500:	3c050040 	lui	a1,0x40
  401504:	8fa6049c 	lw	a2,1180(sp)
[31m  401508:	8f9980a4 	lw	t9,fprintf[0m
  40150c:	0320f809 	jalr	t9
  401510:	24a52744 	addiu	a1,a1,10052
  401514:	8fbc0048 	lw	gp,72(sp)
  401518:	8e040000 	lw	a0,0(s0)
  40151c:	3c050040 	lui	a1,0x40
  401520:	8fa604a0 	lw	a2,1184(sp)
[31m  401524:	8f9980a4 	lw	t9,fprintf[0m
  401528:	0320f809 	jalr	t9
  40152c:	24a52754 	addiu	a1,a1,10068
  401530:	8fbc0048 	lw	gp,72(sp)
  401534:	8e040000 	lw	a0,0(s0)
  401538:	3c050040 	lui	a1,0x40
  40153c:	8fa60480 	lw	a2,1152(sp)
[31m  401540:	8f9980a4 	lw	t9,fprintf[0m
  401544:	0320f809 	jalr	t9
  401548:	24a52764 	addiu	a1,a1,10084
  40154c:	8fbc0048 	lw	gp,72(sp)
  401550:	27b20338 	addiu	s2,sp,824
  401554:	8e040000 	lw	a0,0(s0)
  401558:	3c050040 	lui	a1,0x40
  40155c:	24a52774 	addiu	a1,a1,10100
[31m  401560:	8f9980a4 	lw	t9,fprintf[0m
  401564:	0320f809 	jalr	t9
  401568:	02403021 	move	a2,s2
--
  4018e4:	3c060040 	lui	a2,0x40
  4018e8:	24c62904 	addiu	a2,a2,10500
  4018ec:	8f9980d8 	lw	t9,-32552(gp)
  4018f0:	0320f809 	jalr	t9
  4018f4:	24e7076c 	addiu	a3,a3,1900
  4018f8:	8fbc0048 	lw	gp,72(sp)
  4018fc:	27a40478 	addiu	a0,sp,1144
  401900:	8fa50820 	lw	a1,2080(sp)
  401904:	8f99809c 	lw	t9,-32612(gp)
  401908:	0320f809 	jalr	t9
  40190c:	02403021 	move	a2,s2
  401910:	8fbc0048 	lw	gp,72(sp)
  401914:	10000008 	b	401938 <_ftext@@Base+0xce8>
  401918:	00408021 	move	s0,v0
  40191c:	27a40478 	addiu	a0,sp,1144
  401920:	00002821 	move	a1,zero
  401924:	8f99809c 	lw	t9,-32612(gp)
  401928:	0320f809 	jalr	t9
  40192c:	00003021 	move	a2,zero
  401930:	8fbc0048 	lw	gp,72(sp)
  401934:	00408021 	move	s0,v0
  401938:	8f82805c 	lw	v0,-32676(gp)
  40193c:	8c440000 	lw	a0,0(v0)
  401940:	3c050040 	lui	a1,0x40
  401944:	24a52924 	addiu	a1,a1,10532
[31m  401948:	8f9980a4 	lw	t9,fprintf[0m
  40194c:	0320f809 	jalr	t9
  401950:	02003021 	move	a2,s0
--
  40196c:	8c630004 	lw	v1,4(v1)
  401970:	ac440000 	sw	a0,0(v0)
  401974:	10000009 	b	40199c <_ftext@@Base+0xd4c>
  401978:	ac430004 	sw	v1,4(v0)
  40197c:	3c030040 	lui	v1,0x40
  401980:	8c65293c 	lw	a1,10556(v1)
  401984:	2463293c 	addiu	v1,v1,10556
  401988:	8c640004 	lw	a0,4(v1)
  40198c:	8c630008 	lw	v1,8(v1)
  401990:	ac450000 	sw	a1,0(v0)
  401994:	ac440004 	sw	a0,4(v0)
  401998:	ac430008 	sw	v1,8(v0)
  40199c:	8f998050 	lw	t9,-32688(gp)
  4019a0:	0320f809 	jalr	t9
  4019a4:	27a40270 	addiu	a0,sp,624
  4019a8:	8fbc0048 	lw	gp,72(sp)
  4019ac:	10400005 	beqz	v0,4019c4 <_ftext@@Base+0xd74>
  4019b0:	3c040040 	lui	a0,0x40
  4019b4:	8f9980bc 	lw	t9,-32580(gp)
  4019b8:	0320f809 	jalr	t9
  4019bc:	24842948 	addiu	a0,a0,10568
  4019c0:	8fbc0048 	lw	gp,72(sp)
  4019c4:	8e240060 	lw	a0,96(s1)
  4019c8:	3c050040 	lui	a1,0x40
  4019cc:	24a52984 	addiu	a1,a1,10628
[31m  4019d0:	8f9980a4 	lw	t9,fprintf[0m
  4019d4:	0320f809 	jalr	t9
  4019d8:	27a602f8 	addiu	a2,sp,760
--
  401db8:	27a40184 	addiu	a0,sp,388
  401dbc:	8fbc0028 	lw	gp,40(sp)
  401dc0:	a3a20450 	sb	v0,1104(sp)
  401dc4:	8f998050 	lw	t9,-32688(gp)
  401dc8:	0320f809 	jalr	t9
  401dcc:	27a40074 	addiu	a0,sp,116
  401dd0:	8fbc0028 	lw	gp,40(sp)
  401dd4:	8f998038 	lw	t9,-32712(gp)
  401dd8:	0320f809 	jalr	t9
  401ddc:	afa20454 	sw	v0,1108(sp)
  401de0:	8fbc0028 	lw	gp,40(sp)
  401de4:	27b00610 	addiu	s0,sp,1552
  401de8:	8f998070 	lw	t9,-32656(gp)
  401dec:	0320f809 	jalr	t9
  401df0:	02002021 	move	a0,s0
  401df4:	8fbc0028 	lw	gp,40(sp)
  401df8:	8f998080 	lw	t9,-32640(gp)
  401dfc:	0320f809 	jalr	t9
  401e00:	02002021 	move	a0,s0
  401e04:	8fbc0028 	lw	gp,40(sp)
  401e08:	00408021 	move	s0,v0
  401e0c:	8f92805c 	lw	s2,-32676(gp)
  401e10:	8e440000 	lw	a0,0(s2)
  401e14:	3c050040 	lui	a1,0x40
  401e18:	8fa60464 	lw	a2,1124(sp)
[31m  401e1c:	8f9980a4 	lw	t9,fprintf[0m
  401e20:	0320f809 	jalr	t9
  401e24:	24a529cc 	addiu	a1,a1,10700
  401e28:	8fbc0028 	lw	gp,40(sp)
  401e2c:	8e440000 	lw	a0,0(s2)
  401e30:	3c050040 	lui	a1,0x40
  401e34:	8fa60468 	lw	a2,1128(sp)
[31m  401e38:	8f9980a4 	lw	t9,fprintf[0m
  401e3c:	0320f809 	jalr	t9
  401e40:	24a529dc 	addiu	a1,a1,10716
  401e44:	8fbc0028 	lw	gp,40(sp)
  401e48:	8e440000 	lw	a0,0(s2)
  401e4c:	3c050040 	lui	a1,0x40
  401e50:	8fa6046c 	lw	a2,1132(sp)
[31m  401e54:	8f9980a4 	lw	t9,fprintf[0m
  401e58:	0320f809 	jalr	t9
  401e5c:	24a529ec 	addiu	a1,a1,10732
  401e60:	8fbc0028 	lw	gp,40(sp)
  401e64:	8e440000 	lw	a0,0(s2)
  401e68:	3c050040 	lui	a1,0x40
  401e6c:	8fa60470 	lw	a2,1136(sp)
[31m  401e70:	8f9980a4 	lw	t9,fprintf[0m
  401e74:	0320f809 	jalr	t9
  401e78:	24a529fc 	addiu	a1,a1,10748
  401e7c:	8fbc0028 	lw	gp,40(sp)
  401e80:	8e440000 	lw	a0,0(s2)
  401e84:	3c050040 	lui	a1,0x40
  401e88:	93a60450 	lbu	a2,1104(sp)
[31m  401e8c:	8f9980a4 	lw	t9,fprintf[0m
  401e90:	0320f809 	jalr	t9
  401e94:	24a52a0c 	addiu	a1,a1,10764
  401e98:	8fbc0028 	lw	gp,40(sp)
  401e9c:	8e440000 	lw	a0,0(s2)
  401ea0:	3c050040 	lui	a1,0x40
  401ea4:	8fa60454 	lw	a2,1108(sp)
[31m  401ea8:	8f9980a4 	lw	t9,fprintf[0m
  401eac:	0320f809 	jalr	t9
  401eb0:	24a52a20 	addiu	a1,a1,10784
  401eb4:	8fbc0028 	lw	gp,40(sp)
  401eb8:	8e440000 	lw	a0,0(s2)
  401ebc:	3c050040 	lui	a1,0x40
  401ec0:	24a52774 	addiu	a1,a1,10100
[31m  401ec4:	8f9980a4 	lw	t9,fprintf[0m
  401ec8:	0320f809 	jalr	t9
  401ecc:	27a60308 	addiu	a2,sp,776
--
  402134:	8c662a8c 	lw	a2,10892(v1)
  402138:	24632a8c 	addiu	v1,v1,10892
  40213c:	8c650004 	lw	a1,4(v1)
  402140:	8c640008 	lw	a0,8(v1)
  402144:	ac460000 	sw	a2,0(v0)
  402148:	ac450004 	sw	a1,4(v0)
  40214c:	ac440008 	sw	a0,8(v0)
  402150:	9063000c 	lbu	v1,12(v1)
  402154:	1000000d 	b	40218c <_ftext@@Base+0x153c>
  402158:	a043000c 	sb	v1,12(v0)
  40215c:	3c030040 	lui	v1,0x40
  402160:	8c662a9c 	lw	a2,10908(v1)
  402164:	24632a9c 	addiu	v1,v1,10908
  402168:	8c650004 	lw	a1,4(v1)
  40216c:	8c640008 	lw	a0,8(v1)
  402170:	ac460000 	sw	a2,0(v0)
  402174:	ac450004 	sw	a1,4(v0)
  402178:	ac440008 	sw	a0,8(v0)
  40217c:	9464000c 	lhu	a0,12(v1)
  402180:	a444000c 	sh	a0,12(v0)
  402184:	9063000e 	lbu	v1,14(v1)
  402188:	a043000e 	sb	v1,14(v0)
  40218c:	8e240060 	lw	a0,96(s1)
  402190:	3c050040 	lui	a1,0x40
  402194:	24a52984 	addiu	a1,a1,10628
[31m  402198:	8f9980a4 	lw	t9,fprintf[0m
  40219c:	0320f809 	jalr	t9
  4021a0:	27a602c8 	addiu	a2,sp,712

[0m
[[0;33m*[0m] Function [0;33mfprintf[0m used [0;33m22[0m times [0;33mtestserv.cgi[0m

