[[0;33m*[0m] Binary protection state of [0;33mpppoe-server[0m
[REF] s12

  	RELRO          CANARY            NX           PIE       RPATH        RUNPATH      SYMBOLS      
  	[31mNo RELRO[0m       [31mNo Canary found[0m   [31mNX disabled[0m  [31mNo PIE[0m       [32mNo RPATH[0m     [32mNo RUNPATH[0m   [31mSymbols[0m

[0m
[[0;33m*[0m] Function [0;33mfprintf[0m tear down of [0;33mpppoe-server[0m

  40254c:	3c030041 	lui	v1,0x41
  402550:	24639bc8 	addiu	v1,v1,-25656
  402554:	24a5a62c 	addiu	a1,a1,-22996
  402558:	24c6ffff 	addiu	a2,a2,-1
  40255c:	02508021 	addu	s0,s2,s0
  402560:	ac430000 	sw	v1,0(v0)
  402564:	0320f809 	jalr	t9
  402568:	26730002 	addiu	s3,s3,2
  40256c:	8fbc0040 	lw	gp,64(sp)
  402570:	1000ffd7 	b	4024d0 <startPPPDUserMode+0x254>
  402574:	ae110000 	sw	s1,0(s0)
  402578:	8f998060 	lw	t9,-32672(gp)
  40257c:	0320f809 	jalr	t9
  402580:	24040001 	li	a0,1

00402584 <usage>:
  402584:	27bdffe0 	addiu	sp,sp,-32
  402588:	afbf001c 	sw	ra,28(sp)
  40258c:	afb00018 	sw	s0,24(sp)
  402590:	3c1c0042 	lui	gp,0x42
  402594:	279c31f0 	addiu	gp,gp,12784
  402598:	afbc0010 	sw	gp,16(sp)
  40259c:	3c050041 	lui	a1,0x41
  4025a0:	8f908088 	lw	s0,-32632(gp)
  4025a4:	00803021 	move	a2,a0
[31m  4025a8:	8f998130 	lw	t9,fprintf[0m
  4025ac:	8e040000 	lw	a0,0(s0)
  4025b0:	0320f809 	jalr	t9
  4025b4:	24a59c34 	addiu	a1,a1,-25548
  4025b8:	3c040041 	lui	a0,0x41
  4025bc:	8fbc0010 	lw	gp,16(sp)
  4025c0:	24849c4c 	addiu	a0,a0,-25524
  4025c4:	8e070000 	lw	a3,0(s0)
  4025c8:	24050001 	li	a1,1
  4025cc:	8f99806c 	lw	t9,-32660(gp)
  4025d0:	0320f809 	jalr	t9
  4025d4:	24060009 	li	a2,9
  4025d8:	3c050041 	lui	a1,0x41
  4025dc:	8fbc0010 	lw	gp,16(sp)
  4025e0:	3c060041 	lui	a2,0x41
  4025e4:	8e040000 	lw	a0,0(s0)
  4025e8:	24a59c58 	addiu	a1,a1,-25512
[31m  4025ec:	8f998130 	lw	t9,fprintf[0m
  4025f0:	0320f809 	jalr	t9
  4025f4:	24c69c90 	addiu	a2,a2,-25456
--
  4026a8:	24050001 	li	a1,1
  4026ac:	8f99806c 	lw	t9,-32660(gp)
  4026b0:	0320f809 	jalr	t9
  4026b4:	2406003a 	li	a2,58
  4026b8:	3c040041 	lui	a0,0x41
  4026bc:	8fbc0010 	lw	gp,16(sp)
  4026c0:	24849df8 	addiu	a0,a0,-25096
  4026c4:	8e070000 	lw	a3,0(s0)
  4026c8:	24050001 	li	a1,1
  4026cc:	8f99806c 	lw	t9,-32660(gp)
  4026d0:	0320f809 	jalr	t9
  4026d4:	24060037 	li	a2,55
  4026d8:	3c040041 	lui	a0,0x41
  4026dc:	8fbc0010 	lw	gp,16(sp)
  4026e0:	24849e30 	addiu	a0,a0,-25040
  4026e4:	8e070000 	lw	a3,0(s0)
  4026e8:	24050001 	li	a1,1
  4026ec:	8f99806c 	lw	t9,-32660(gp)
  4026f0:	0320f809 	jalr	t9
  4026f4:	2406003a 	li	a2,58
  4026f8:	3c050041 	lui	a1,0x41
  4026fc:	8fbc0010 	lw	gp,16(sp)
  402700:	3c060041 	lui	a2,0x41
  402704:	8e040000 	lw	a0,0(s0)
  402708:	24a59e6c 	addiu	a1,a1,-24980
[31m  40270c:	8f998130 	lw	t9,fprintf[0m
  402710:	0320f809 	jalr	t9
  402714:	24c69e90 	addiu	a2,a2,-24944
--
  402828:	24050001 	li	a1,1
  40282c:	8f99806c 	lw	t9,-32660(gp)
  402830:	0320f809 	jalr	t9
  402834:	24060038 	li	a2,56
  402838:	3c040041 	lui	a0,0x41
  40283c:	8fbc0010 	lw	gp,16(sp)
  402840:	2484a0ac 	addiu	a0,a0,-24404
  402844:	8e070000 	lw	a3,0(s0)
  402848:	24050001 	li	a1,1
  40284c:	8f99806c 	lw	t9,-32660(gp)
  402850:	0320f809 	jalr	t9
  402854:	2406003f 	li	a2,63
  402858:	3c040041 	lui	a0,0x41
  40285c:	8fbc0010 	lw	gp,16(sp)
  402860:	2484a0ec 	addiu	a0,a0,-24340
  402864:	8e070000 	lw	a3,0(s0)
  402868:	24050001 	li	a1,1
  40286c:	8f99806c 	lw	t9,-32660(gp)
  402870:	0320f809 	jalr	t9
  402874:	2406002f 	li	a2,47
  402878:	3c050041 	lui	a1,0x41
  40287c:	8fbc0010 	lw	gp,16(sp)
  402880:	3c060041 	lui	a2,0x41
  402884:	8e040000 	lw	a0,0(s0)
  402888:	24a5a11c 	addiu	a1,a1,-24292
[31m  40288c:	8f998130 	lw	t9,fprintf[0m
  402890:	0320f809 	jalr	t9
  402894:	24c6a16c 	addiu	a2,a2,-24212
--
  404a7c:	00000000 	nop
  404a80:	8f828088 	lw	v0,-32632(gp)
  404a84:	3c040041 	lui	a0,0x41
  404a88:	8f99806c 	lw	t9,-32660(gp)
  404a8c:	2484a778 	addiu	a0,a0,-22664
  404a90:	8c470000 	lw	a3,0(v0)
  404a94:	24050001 	li	a1,1
  404a98:	0320f809 	jalr	t9
  404a9c:	2406001f 	li	a2,31
  404aa0:	1000fd7e 	b	40409c <main+0x84>
  404aa4:	00000000 	nop
  404aa8:	8f828088 	lw	v0,-32632(gp)
  404aac:	8f99806c 	lw	t9,-32660(gp)
  404ab0:	2484a720 	addiu	a0,a0,-22752
  404ab4:	8c470000 	lw	a3,0(v0)
  404ab8:	24050001 	li	a1,1
  404abc:	0320f809 	jalr	t9
  404ac0:	24060033 	li	a2,51
  404ac4:	1000fd75 	b	40409c <main+0x84>
  404ac8:	00000000 	nop
  404acc:	8f828184 	lw	v0,-32380(gp)
  404ad0:	8c480000 	lw	t0,0(v0)
  404ad4:	1000fe56 	b	404430 <main+0x418>
  404ad8:	00031140 	sll	v0,v1,0x5
  404adc:	8f828088 	lw	v0,-32632(gp)
[31m  404ae0:	8f998130 	lw	t9,fprintf[0m
  404ae4:	24a5a798 	addiu	a1,a1,-22632
  404ae8:	8c440000 	lw	a0,0(v0)
  404aec:	0320f809 	jalr	t9
  404af0:	24060040 	li	a2,64
  404af4:	1000fd69 	b	40409c <main+0x84>
  404af8:	00000000 	nop
  404afc:	8f828088 	lw	v0,-32632(gp)
  404b00:	3c040041 	lui	a0,0x41
  404b04:	8f99806c 	lw	t9,-32660(gp)
  404b08:	2484a6dc 	addiu	a0,a0,-22820
  404b0c:	8c470000 	lw	a3,0(v0)
  404b10:	0320f809 	jalr	t9
  404b14:	2406000d 	li	a2,13
  404b18:	1000fd60 	b	40409c <main+0x84>
  404b1c:	00000000 	nop
  404b20:	8f828088 	lw	v0,-32632(gp)
[31m  404b24:	8f998130 	lw	t9,fprintf[0m
  404b28:	24a5a6bc 	addiu	a1,a1,-22852
  404b2c:	8c440000 	lw	a0,0(v0)
--
  40573c:	24020023 	li	v0,35
  405740:	3c1e0041 	lui	s8,0x41
  405744:	0000a821 	move	s5,zero
  405748:	8f9781b0 	lw	s7,-32336(gp)
  40574c:	27deac84 	addiu	s8,s8,-21372
  405750:	00008021 	move	s0,zero
  405754:	2416000f 	li	s6,15
  405758:	26b40010 	addiu	s4,s5,16
  40575c:	0214102a 	slt	v0,s0,s4
  405760:	1040001f 	beqz	v0,4057e0 <dumpHex+0x100>
  405764:	00000000 	nop
  405768:	8fa20018 	lw	v0,24(sp)
  40576c:	1000000b 	b	40579c <dumpHex+0xbc>
  405770:	00508821 	addu	s1,v0,s0
  405774:	92260000 	lbu	a2,0(s1)
  405778:	03c02821 	move	a1,s8
  40577c:	26100001 	addiu	s0,s0,1
  405780:	0040c821 	move	t9,v0
  405784:	0320f809 	jalr	t9
  405788:	26310001 	addiu	s1,s1,1
  40578c:	0214102a 	slt	v0,s0,s4
  405790:	8fbc0010 	lw	gp,16(sp)
  405794:	10400012 	beqz	v0,4057e0 <dumpHex+0x100>
  405798:	00000000 	nop
  40579c:	0213182a 	slt	v1,s0,s3
[31m  4057a0:	8f828130 	lw	v0,fprintf[0m
  4057a4:	24050001 	li	a1,1
  4057a8:	02402021 	move	a0,s2
--
  4059b0:	27a40040 	addiu	a0,sp,64
  4059b4:	8fbc0038 	lw	gp,56(sp)
  4059b8:	00430018 	mult	v0,v1
  4059bc:	8fa50044 	lw	a1,68(sp)
  4059c0:	000217c3 	sra	v0,v0,0x1f
  4059c4:	8f9980c0 	lw	t9,-32576(gp)
  4059c8:	afa50040 	sw	a1,64(sp)
  4059cc:	00001810 	mfhi	v1
  4059d0:	0003b183 	sra	s6,v1,0x6
  4059d4:	0320f809 	jalr	t9
  4059d8:	02c2b023 	subu	s6,s6,v0
  4059dc:	3c060041 	lui	a2,0x41
  4059e0:	02602021 	move	a0,s3
  4059e4:	8fbc0038 	lw	gp,56(sp)
  4059e8:	24c6ac90 	addiu	a2,a2,-21360
  4059ec:	00403821 	move	a3,v0
  4059f0:	8f998070 	lw	t9,-32656(gp)
  4059f4:	0320f809 	jalr	t9
  4059f8:	24050100 	li	a1,256
  4059fc:	3c050041 	lui	a1,0x41
  405a00:	02603021 	move	a2,s3
  405a04:	8fbc0038 	lw	gp,56(sp)
  405a08:	24a5ac9c 	addiu	a1,a1,-21348
  405a0c:	02c03821 	move	a3,s6
  405a10:	afb50010 	sw	s5,16(sp)
[31m  405a14:	8f998130 	lw	t9,fprintf[0m
  405a18:	0320f809 	jalr	t9
  405a1c:	02202021 	move	a0,s1
  405a20:	8fbc0038 	lw	gp,56(sp)
  405a24:	8f828154 	lw	v0,-32428(gp)
  405a28:	94460000 	lhu	a2,0(v0)
  405a2c:	10d20072 	beq	a2,s2,405bf8 <dumpPacket+0x2c0>
  405a30:	3c050041 	lui	a1,0x41
  405a34:	8f8280e0 	lw	v0,-32544(gp)
  405a38:	94460000 	lhu	a2,0(v0)
  405a3c:	10d20056 	beq	a2,s2,405b98 <dumpPacket+0x260>
  405a40:	3c050041 	lui	a1,0x41
[31m  405a44:	8f998130 	lw	t9,fprintf[0m
  405a48:	3c050041 	lui	a1,0x41
  405a4c:	02403021 	move	a2,s2
--
  405a70:	10600011 	beqz	v1,405ab8 <dumpPacket+0x180>
  405a74:	240300a7 	li	v1,167
  405a78:	24030007 	li	v1,7
  405a7c:	10430054 	beq	v0,v1,405bd0 <dumpPacket+0x298>
  405a80:	24030009 	li	v1,9
  405a84:	10430074 	beq	v0,v1,405c58 <dumpPacket+0x320>
  405a88:	02203821 	move	a3,s1
  405a8c:	14400011 	bnez	v0,405ad4 <dumpPacket+0x19c>
  405a90:	3c040041 	lui	a0,0x41
  405a94:	02203821 	move	a3,s1
  405a98:	8f99806c 	lw	t9,-32660(gp)
  405a9c:	2484ad18 	addiu	a0,a0,-21224
  405aa0:	24050001 	li	a1,1
  405aa4:	0320f809 	jalr	t9
  405aa8:	24060005 	li	a2,5
  405aac:	8fbc0038 	lw	gp,56(sp)
  405ab0:	10000008 	b	405ad4 <dumpPacket+0x19c>
  405ab4:	00000000 	nop
  405ab8:	1043004a 	beq	v0,v1,405be4 <dumpPacket+0x2ac>
  405abc:	2c4300a8 	sltiu	v1,v0,168
  405ac0:	10600054 	beqz	v1,405c14 <dumpPacket+0x2dc>
  405ac4:	240300d3 	li	v1,211
  405ac8:	24030065 	li	v1,101
  405acc:	1043005e 	beq	v0,v1,405c48 <dumpPacket+0x310>
  405ad0:	3c040041 	lui	a0,0x41
[31m  405ad4:	8f998130 	lw	t9,fprintf[0m
  405ad8:	3c050041 	lui	a1,0x41
  405adc:	02803821 	move	a3,s4
  405ae0:	96060010 	lhu	a2,16(s0)
  405ae4:	24a5ad20 	addiu	a1,a1,-21216
  405ae8:	0320f809 	jalr	t9
  405aec:	02202021 	move	a0,s1
  405af0:	3c050041 	lui	a1,0x41
  405af4:	02202021 	move	a0,s1
  405af8:	8fbc0038 	lw	gp,56(sp)
  405afc:	24a5ad38 	addiu	a1,a1,-21192
  405b00:	920f0008 	lbu	t7,8(s0)
  405b04:	920e0009 	lbu	t6,9(s0)
  405b08:	920d000a 	lbu	t5,10(s0)
  405b0c:	920c000b 	lbu	t4,11(s0)
  405b10:	920b0000 	lbu	t3,0(s0)
  405b14:	920a0001 	lbu	t2,1(s0)
  405b18:	92090002 	lbu	t1,2(s0)
  405b1c:	92080003 	lbu	t0,3(s0)
  405b20:	92030004 	lbu	v1,4(s0)
  405b24:	92020005 	lbu	v0,5(s0)
  405b28:	92060006 	lbu	a2,6(s0)
  405b2c:	92070007 	lbu	a3,7(s0)
[31m  405b30:	8f998130 	lw	t9,fprintf[0m
  405b34:	afaf0010 	sw	t7,16(sp)
  405b38:	afae0014 	sw	t6,20(sp)
  405b3c:	afad0018 	sw	t5,24(sp)
  405b40:	afac001c 	sw	t4,28(sp)
  405b44:	afab0020 	sw	t3,32(sp)
  405b48:	afaa0024 	sw	t2,36(sp)
  405b4c:	afa90028 	sw	t1,40(sp)
  405b50:	afa8002c 	sw	t0,44(sp)
  405b54:	afa30030 	sw	v1,48(sp)
  405b58:	0320f809 	jalr	t9
  405b5c:	afa20034 	sw	v0,52(sp)
  405b60:	02202021 	move	a0,s1
  405b64:	96060012 	lhu	a2,18(s0)
  405b68:	0c1015b8 	jal	4056e0 <dumpHex>
  405b6c:	26050014 	addiu	a1,s0,20
  405b70:	8fbf016c 	lw	ra,364(sp)
  405b74:	8fb60168 	lw	s6,360(sp)
  405b78:	8fb50164 	lw	s5,356(sp)
  405b7c:	8fb40160 	lw	s4,352(sp)
  405b80:	8fb3015c 	lw	s3,348(sp)
  405b84:	8fb20158 	lw	s2,344(sp)
  405b88:	8fb10154 	lw	s1,340(sp)
  405b8c:	8fb00150 	lw	s0,336(sp)
  405b90:	03e00008 	jr	ra
  405b94:	27bd0170 	addiu	sp,sp,368
[31m  405b98:	8f998130 	lw	t9,fprintf[0m
  405b9c:	02202021 	move	a0,s1
  405ba0:	0320f809 	jalr	t9
  405ba4:	24a5acc0 	addiu	a1,a1,-21312
  405ba8:	24030019 	li	v1,25
  405bac:	9202000f 	lbu	v0,15(s0)
  405bb0:	8fbc0038 	lw	gp,56(sp)
  405bb4:	1443ffae 	bne	v0,v1,405a70 <dumpPacket+0x138>
  405bb8:	2c43001a 	sltiu	v1,v0,26
  405bbc:	3c040041 	lui	a0,0x41
  405bc0:	02203821 	move	a3,s1
  405bc4:	8f99806c 	lw	t9,-32660(gp)
  405bc8:	1000ffb5 	b	405aa0 <dumpPacket+0x168>
  405bcc:	2484acf0 	addiu	a0,a0,-21264
  405bd0:	3c040041 	lui	a0,0x41
  405bd4:	02203821 	move	a3,s1
  405bd8:	8f99806c 	lw	t9,-32660(gp)
  405bdc:	1000ffb0 	b	405aa0 <dumpPacket+0x168>
  405be0:	2484ace8 	addiu	a0,a0,-21272
  405be4:	3c040041 	lui	a0,0x41
  405be8:	02203821 	move	a3,s1
  405bec:	8f99806c 	lw	t9,-32660(gp)
  405bf0:	1000ffab 	b	405aa0 <dumpPacket+0x168>
  405bf4:	2484ad00 	addiu	a0,a0,-21248
[31m  405bf8:	8f998130 	lw	t9,fprintf[0m
  405bfc:	02202021 	move	a0,s1
  405c00:	0320f809 	jalr	t9
--
  405dec:	8f9980a8 	lw	t9,-32600(gp)
  405df0:	24a5ad8c 	addiu	a1,a1,-21108
  405df4:	1000fff0 	b	405db8 <parsePacket+0x148>
  405df8:	3046000f 	andi	a2,v0,0xf
  405dfc:	3c050041 	lui	a1,0x41
  405e00:	8f9980a8 	lw	t9,-32600(gp)
  405e04:	24a5ada8 	addiu	a1,a1,-21080
  405e08:	1000ffeb 	b	405db8 <parsePacket+0x148>
  405e0c:	3046000f 	andi	a2,v0,0xf
  405e10:	3c050041 	lui	a1,0x41
  405e14:	02203021 	move	a2,s1
  405e18:	8f9980a8 	lw	t9,-32600(gp)
  405e1c:	1000ffe6 	b	405db8 <parsePacket+0x148>
  405e20:	24a5adc0 	addiu	a1,a1,-21056

00405e24 <printErr>:
  405e24:	27bdffe0 	addiu	sp,sp,-32
  405e28:	afbf001c 	sw	ra,28(sp)
  405e2c:	afb00018 	sw	s0,24(sp)
  405e30:	3c1c0042 	lui	gp,0x42
  405e34:	279c31f0 	addiu	gp,gp,12784
  405e38:	afbc0010 	sw	gp,16(sp)
  405e3c:	3c050041 	lui	a1,0x41
  405e40:	8f828088 	lw	v0,-32632(gp)
  405e44:	00808021 	move	s0,a0
[31m  405e48:	8f998130 	lw	t9,fprintf[0m
  405e4c:	00803021 	move	a2,a0
  405e50:	8c440000 	lw	a0,0(v0)
--
  405eb4:	30a5ffff 	andi	a1,a1,0xffff
  405eb8:	00809821 	move	s3,a0
  405ebc:	00e08821 	move	s1,a3
  405ec0:	10a20026 	beq	a1,v0,405f5c <pktLogErrs+0xd8>
  405ec4:	30d2ffff 	andi	s2,a2,0xffff
  405ec8:	24020202 	li	v0,514
  405ecc:	10a20026 	beq	a1,v0,405f68 <pktLogErrs+0xe4>
  405ed0:	00000000 	nop
  405ed4:	3c140041 	lui	s4,0x41
  405ed8:	2694ae34 	addiu	s4,s4,-20940
  405edc:	8f9980a8 	lw	t9,-32600(gp)
  405ee0:	3c150041 	lui	s5,0x41
  405ee4:	02603021 	move	a2,s3
  405ee8:	26a5ae44 	addiu	a1,s5,-20924
  405eec:	02803821 	move	a3,s4
  405ef0:	24040003 	li	a0,3
  405ef4:	afb20010 	sw	s2,16(sp)
  405ef8:	8f908088 	lw	s0,-32632(gp)
  405efc:	0320f809 	jalr	t9
  405f00:	afb10014 	sw	s1,20(sp)
  405f04:	26a5ae44 	addiu	a1,s5,-20924
  405f08:	02603021 	move	a2,s3
  405f0c:	8fbc0018 	lw	gp,24(sp)
  405f10:	02803821 	move	a3,s4
  405f14:	8e040000 	lw	a0,0(s0)
[31m  405f18:	8f998130 	lw	t9,fprintf[0m
  405f1c:	afb20010 	sw	s2,16(sp)
  405f20:	0320f809 	jalr	t9
--
  407de8:	3c1c0042 	lui	gp,0x42
  407dec:	279c31f0 	addiu	gp,gp,12784
  407df0:	afbc0010 	sw	gp,16(sp)
  407df4:	3c100042 	lui	s0,0x42
  407df8:	8e02cd00 	lw	v0,-13056(s0)
  407dfc:	00808821 	move	s1,a0
  407e00:	afa5003c 	sw	a1,60(sp)
  407e04:	afa60040 	sw	a2,64(sp)
  407e08:	1040002c 	beqz	v0,407ebc <Event_DebugMsg+0xe4>
  407e0c:	afa70044 	sw	a3,68(sp)
  407e10:	8f9980cc 	lw	t9,-32564(gp)
  407e14:	27a4001c 	addiu	a0,sp,28
  407e18:	0320f809 	jalr	t9
  407e1c:	00002821 	move	a1,zero
  407e20:	3c031062 	lui	v1,0x1062
  407e24:	8fa2001c 	lw	v0,28(sp)
  407e28:	34634dd3 	ori	v1,v1,0x4dd3
  407e2c:	3c050041 	lui	a1,0x41
  407e30:	8fa60020 	lw	a2,32(sp)
  407e34:	24a5af1c 	addiu	a1,a1,-20708
  407e38:	00430018 	mult	v0,v1
  407e3c:	00023fc3 	sra	a3,v0,0x1f
  407e40:	8fbc0010 	lw	gp,16(sp)
  407e44:	000647c3 	sra	t0,a2,0x1f
  407e48:	8e04cd00 	lw	a0,-13056(s0)
[31m  407e4c:	8f998130 	lw	t9,fprintf[0m
  407e50:	00004810 	mfhi	t1
  407e54:	00094983 	sra	t1,t1,0x6

[0m
[[0;33m*[0m] Function [0;33mfprintf[0m used [0;33m16[0m times [0;33mpppoe-server[0m

