[[0;33m*[0m] Binary protection state of [0;33mddp[0m
[REF] s12

  	RELRO          CANARY            NX           PIE       RPATH        RUNPATH      SYMBOLS      
  	[31mNo RELRO[0m       [31mNo Canary found[0m   [31mNX disabled[0m  [31mNo PIE[0m       [32mNo RPATH[0m     [32mNo RUNPATH[0m   [32mNo Symbols[0m

[0m
[[0;33m*[0m] Function [0;33msystem[0m tear down of [0;33mddp[0m

  403780:	0320f809 	jalr	t9
  403784:	24060400 	li	a2,1024
  403788:	8fbc0018 	lw	gp,24(sp)
  40378c:	10000002 	b	403798 <main@@Base+0x1420>
  403790:	00408021 	move	s0,v0
  403794:	00008021 	move	s0,zero
  403798:	1a00009b 	blez	s0,403a08 <main@@Base+0x1690>
  40379c:	240200ae 	li	v0,174
  4037a0:	12a20099 	beq	s5,v0,403a08 <main@@Base+0x1690>
  4037a4:	3c020042 	lui	v0,0x42
  4037a8:	8c446030 	lw	a0,24624(v0)
  4037ac:	afb60010 	sw	s6,16(sp)
  4037b0:	24020010 	li	v0,16
  4037b4:	afa20014 	sw	v0,20(sp)
  4037b8:	02202821 	move	a1,s1
  4037bc:	02003021 	move	a2,s0
  4037c0:	8f998170 	lw	t9,-32400(gp)
  4037c4:	0320f809 	jalr	t9
  4037c8:	00003821 	move	a3,zero
  4037cc:	8fbc0018 	lw	gp,24(sp)
  4037d0:	3c020042 	lui	v0,0x42
  4037d4:	8c426434 	lw	v0,25652(v0)
  4037d8:	10400009 	beqz	v0,403800 <main@@Base+0x1488>
  4037dc:	3c020042 	lui	v0,0x42
  4037e0:	3c040041 	lui	a0,0x41
[31m  4037e4:	8f998224 	lw	t9,system[0m
  4037e8:	0320f809 	jalr	t9
  4037ec:	248445e0 	addiu	a0,a0,17888
--
  4037f4:	3c020042 	lui	v0,0x42
  4037f8:	ac406434 	sw	zero,25652(v0)
  4037fc:	3c020042 	lui	v0,0x42
  403800:	8c426438 	lw	v0,25656(v0)
  403804:	10400010 	beqz	v0,403848 <main@@Base+0x14d0>
  403808:	3c020042 	lui	v0,0x42
  40380c:	3c100042 	lui	s0,0x42
  403810:	8e046444 	lw	a0,25668(s0)
  403814:	00002821 	move	a1,zero
  403818:	8f99812c 	lw	t9,-32468(gp)
  40381c:	0320f809 	jalr	t9
  403820:	24065554 	li	a2,21844
  403824:	8fbc0018 	lw	gp,24(sp)
  403828:	8e046444 	lw	a0,25668(s0)
  40382c:	8f998150 	lw	t9,-32432(gp)
  403830:	0320f809 	jalr	t9
  403834:	24055554 	li	a1,21844
  403838:	8fbc0018 	lw	gp,24(sp)
  40383c:	3c020042 	lui	v0,0x42
  403840:	ac406438 	sw	zero,25656(v0)
  403844:	3c020042 	lui	v0,0x42
  403848:	8c426414 	lw	v0,25620(v0)
  40384c:	1040000e 	beqz	v0,403888 <main@@Base+0x1510>
  403850:	3c020042 	lui	v0,0x42
  403854:	3c040041 	lui	a0,0x41
[31m  403858:	8f998224 	lw	t9,system[0m
  40385c:	0320f809 	jalr	t9
  403860:	24844618 	addiu	a0,a0,17944
  403864:	8fbc0018 	lw	gp,24(sp)
  403868:	3c040041 	lui	a0,0x41
[31m  40386c:	8f998224 	lw	t9,system[0m
  403870:	0320f809 	jalr	t9
  403874:	2484464c 	addiu	a0,a0,17996
  403878:	8fbc0018 	lw	gp,24(sp)
  40387c:	3c020042 	lui	v0,0x42
  403880:	ac406414 	sw	zero,25620(v0)
  403884:	3c020042 	lui	v0,0x42
  403888:	8c426428 	lw	v0,25640(v0)
  40388c:	10400018 	beqz	v0,4038f0 <main@@Base+0x1578>
  403890:	3c020042 	lui	v0,0x42
  403894:	24040010 	li	a0,16
  403898:	8f998190 	lw	t9,-32368(gp)
  40389c:	0320f809 	jalr	t9
  4038a0:	24050001 	li	a1,1
  4038a4:	8fbc0018 	lw	gp,24(sp)
  4038a8:	3c040041 	lui	a0,0x41
[31m  4038ac:	8f998224 	lw	t9,system[0m
  4038b0:	0320f809 	jalr	t9
  4038b4:	24844684 	addiu	a0,a0,18052
  4038b8:	8fbc0018 	lw	gp,24(sp)
  4038bc:	3c040041 	lui	a0,0x41
[31m  4038c0:	8f998224 	lw	t9,system[0m
  4038c4:	0320f809 	jalr	t9
  4038c8:	248446b8 	addiu	a0,a0,18104
  4038cc:	8fbc0018 	lw	gp,24(sp)
  4038d0:	3c040041 	lui	a0,0x41
[31m  4038d4:	8f998224 	lw	t9,system[0m
  4038d8:	0320f809 	jalr	t9
  4038dc:	248446ec 	addiu	a0,a0,18156
  4038e0:	8fbc0018 	lw	gp,24(sp)
  4038e4:	3c020042 	lui	v0,0x42
  4038e8:	ac406428 	sw	zero,25640(v0)
  4038ec:	3c020042 	lui	v0,0x42
  4038f0:	8c426424 	lw	v0,25636(v0)
  4038f4:	10400009 	beqz	v0,40391c <main@@Base+0x15a4>
  4038f8:	3c020042 	lui	v0,0x42
  4038fc:	8fa40108 	lw	a0,264(sp)
[31m  403900:	8f998224 	lw	t9,system[0m
  403904:	0320f809 	jalr	t9
  403908:	00000000 	nop
  40390c:	8fbc0018 	lw	gp,24(sp)
  403910:	3c020042 	lui	v0,0x42
  403914:	ac406424 	sw	zero,25636(v0)
  403918:	3c020042 	lui	v0,0x42
  40391c:	8c426418 	lw	v0,25624(v0)
  403920:	10400009 	beqz	v0,403948 <main@@Base+0x15d0>
  403924:	3c020042 	lui	v0,0x42
  403928:	8fa40104 	lw	a0,260(sp)
[31m  40392c:	8f998224 	lw	t9,system[0m
  403930:	0320f809 	jalr	t9
  403934:	00000000 	nop
  403938:	8fbc0018 	lw	gp,24(sp)
  40393c:	3c020042 	lui	v0,0x42
  403940:	ac406418 	sw	zero,25624(v0)
  403944:	3c020042 	lui	v0,0x42
  403948:	8c426420 	lw	v0,25632(v0)
  40394c:	10400009 	beqz	v0,403974 <main@@Base+0x15fc>
  403950:	3c020042 	lui	v0,0x42
  403954:	8fa40100 	lw	a0,256(sp)
[31m  403958:	8f998224 	lw	t9,system[0m
  40395c:	0320f809 	jalr	t9
  403960:	00000000 	nop
  403964:	8fbc0018 	lw	gp,24(sp)
  403968:	3c020042 	lui	v0,0x42
  40396c:	ac406420 	sw	zero,25632(v0)
  403970:	3c020042 	lui	v0,0x42
  403974:	8c42642c 	lw	v0,25644(v0)
  403978:	10400009 	beqz	v0,4039a0 <main@@Base+0x1628>
  40397c:	3c020042 	lui	v0,0x42
  403980:	8fa400fc 	lw	a0,252(sp)
  403984:	8f9981d8 	lw	t9,-32296(gp)
  403988:	0320f809 	jalr	t9
  40398c:	00000000 	nop
  403990:	8fbc0018 	lw	gp,24(sp)
  403994:	3c020042 	lui	v0,0x42
  403998:	ac40642c 	sw	zero,25644(v0)
  40399c:	3c020042 	lui	v0,0x42
  4039a0:	ac40643c 	sw	zero,25660(v0)
  4039a4:	3c020042 	lui	v0,0x42
  4039a8:	8c42641c 	lw	v0,25628(v0)
  4039ac:	1040000d 	beqz	v0,4039e4 <main@@Base+0x166c>
  4039b0:	3c020042 	lui	v0,0x42
  4039b4:	8fa400f8 	lw	a0,248(sp)
[31m  4039b8:	8f998224 	lw	t9,system[0m
  4039bc:	0320f809 	jalr	t9
  4039c0:	00000000 	nop
  4039c4:	8fbc0018 	lw	gp,24(sp)
  4039c8:	3c020042 	lui	v0,0x42
  4039cc:	ac40641c 	sw	zero,25628(v0)
[31m  4039d0:	8f998224 	lw	t9,system[0m
  4039d4:	0320f809 	jalr	t9
  4039d8:	02e02021 	move	a0,s7
  4039dc:	8fbc0018 	lw	gp,24(sp)
  4039e0:	3c020042 	lui	v0,0x42
  4039e4:	8c426430 	lw	v0,25648(v0)
  4039e8:	10400007 	beqz	v0,403a08 <main@@Base+0x1690>
  4039ec:	00000000 	nop
[31m  4039f0:	8f998224 	lw	t9,system[0m
  4039f4:	0320f809 	jalr	t9
  4039f8:	02e02021 	move	a0,s7
--
  40a524:	26244b8c 	addiu	a0,s1,19340
  40a528:	3c050041 	lui	a1,0x41
  40a52c:	24a54b98 	addiu	a1,a1,19352
  40a530:	02403021 	move	a2,s2
  40a534:	8f998258 	lw	t9,-32168(gp)
  40a538:	0320f809 	jalr	t9
  40a53c:	24070001 	li	a3,1
  40a540:	8fbc0018 	lw	gp,24(sp)
  40a544:	27b00120 	addiu	s0,sp,288
  40a548:	26244b8c 	addiu	a0,s1,19340
  40a54c:	3c050041 	lui	a1,0x41
  40a550:	24a54ba4 	addiu	a1,a1,19364
  40a554:	8f99807c 	lw	t9,-32644(gp)
  40a558:	0320f809 	jalr	t9
  40a55c:	02003021 	move	a2,s0
  40a560:	8fbc0018 	lw	gp,24(sp)
  40a564:	27b10164 	addiu	s1,sp,356
  40a568:	02202021 	move	a0,s1
  40a56c:	3c050041 	lui	a1,0x41
  40a570:	24a54bb0 	addiu	a1,a1,19376
  40a574:	02003021 	move	a2,s0
  40a578:	8f9980e4 	lw	t9,-32540(gp)
  40a57c:	0320f809 	jalr	t9
  40a580:	02403821 	move	a3,s2
  40a584:	8fbc0018 	lw	gp,24(sp)
[31m  40a588:	8f998224 	lw	t9,system[0m
  40a58c:	0320f809 	jalr	t9
  40a590:	02202021 	move	a0,s1
--
  4112d4:	26244b8c 	addiu	a0,s1,19340
  4112d8:	3c050041 	lui	a1,0x41
  4112dc:	24a54b98 	addiu	a1,a1,19352
  4112e0:	02403021 	move	a2,s2
  4112e4:	8f998258 	lw	t9,-32168(gp)
  4112e8:	0320f809 	jalr	t9
  4112ec:	24070001 	li	a3,1
  4112f0:	8fbc0018 	lw	gp,24(sp)
  4112f4:	27b00120 	addiu	s0,sp,288
  4112f8:	26244b8c 	addiu	a0,s1,19340
  4112fc:	3c050041 	lui	a1,0x41
  411300:	24a54ba4 	addiu	a1,a1,19364
  411304:	8f99807c 	lw	t9,-32644(gp)
  411308:	0320f809 	jalr	t9
  41130c:	02003021 	move	a2,s0
  411310:	8fbc0018 	lw	gp,24(sp)
  411314:	27b10164 	addiu	s1,sp,356
  411318:	02202021 	move	a0,s1
  41131c:	3c050041 	lui	a1,0x41
  411320:	24a54bb0 	addiu	a1,a1,19376
  411324:	02003021 	move	a2,s0
  411328:	8f9980e4 	lw	t9,-32540(gp)
  41132c:	0320f809 	jalr	t9
  411330:	02403821 	move	a3,s2
  411334:	8fbc0018 	lw	gp,24(sp)
[31m  411338:	8f998224 	lw	t9,system[0m
  41133c:	0320f809 	jalr	t9
  411340:	02202021 	move	a0,s1
--
  4120fc:	afbc0010 	sw	gp,16(sp)
  412100:	10800037 	beqz	a0,4121e0 <get_download_file_status@@Base+0x194>
  412104:	00808021 	move	s0,a0
  412108:	18a00036 	blez	a1,4121e4 <get_download_file_status@@Base+0x198>
  41210c:	2402ffff 	li	v0,-1
  412110:	8f998084 	lw	t9,-32636(gp)
  412114:	0320f809 	jalr	t9
  412118:	00a08821 	move	s1,a1
  41211c:	8fbc0010 	lw	gp,16(sp)
  412120:	2443ffff 	addiu	v1,v0,-1
  412124:	2c630002 	sltiu	v1,v1,2
  412128:	1460002d 	bnez	v1,4121e0 <get_download_file_status@@Base+0x194>
  41212c:	2403ffff 	li	v1,-1
  412130:	1043002c 	beq	v0,v1,4121e4 <get_download_file_status@@Base+0x198>
  412134:	2402ffff 	li	v0,-1
  412138:	8f9280d0 	lw	s2,-32560(gp)
  41213c:	3c040041 	lui	a0,0x41
  412140:	24845830 	addiu	a0,a0,22576
  412144:	24050001 	li	a1,1
  412148:	8e470000 	lw	a3,0(s2)
  41214c:	8f9980b8 	lw	t9,-32584(gp)
  412150:	0320f809 	jalr	t9
  412154:	24060034 	li	a2,52
  412158:	8fbc0010 	lw	gp,16(sp)
  41215c:	3c040041 	lui	a0,0x41
[31m  412160:	8f998224 	lw	t9,system[0m
  412164:	0320f809 	jalr	t9
  412168:	24845868 	addiu	a0,a0,22632
  41216c:	8fbc0010 	lw	gp,16(sp)
  412170:	8f998218 	lw	t9,-32232(gp)
  412174:	0320f809 	jalr	t9
  412178:	24040001 	li	a0,1
  41217c:	8fbc0010 	lw	gp,16(sp)
  412180:	3c040041 	lui	a0,0x41
[31m  412184:	8f998224 	lw	t9,system[0m
  412188:	0320f809 	jalr	t9
  41218c:	248458a8 	addiu	a0,a0,22696
  412190:	8fbc0010 	lw	gp,16(sp)
  412194:	3c040041 	lui	a0,0x41
[31m  412198:	8f998224 	lw	t9,system[0m
  41219c:	0320f809 	jalr	t9
  4121a0:	248458d8 	addiu	a0,a0,22744
--
  412e48:	02202021 	move	a0,s1
  412e4c:	8f998298 	lw	t9,-32104(gp)
  412e50:	0320f809 	jalr	t9
  412e54:	00402821 	move	a1,v0
  412e58:	27a40018 	addiu	a0,sp,24
  412e5c:	02402821 	move	a1,s2
  412e60:	02203021 	move	a2,s1
  412e64:	0c104a53 	jal	41294c <checkAscii@@Base+0x528>
  412e68:	26070008 	addiu	a3,s0,8
  412e6c:	10400003 	beqz	v0,412e7c <checkAscii@@Base+0xa58>
  412e70:	24020002 	li	v0,2
  412e74:	10000010 	b	412eb8 <checkAscii@@Base+0xa94>
  412e78:	ae020110 	sw	v0,272(s0)
  412e7c:	8e040008 	lw	a0,8(s0)
  412e80:	8e05010c 	lw	a1,268(s0)
  412e84:	0c10481a 	jal	412068 <get_download_file_status@@Base+0x1c>
  412e88:	00000000 	nop
  412e8c:	8fbc0010 	lw	gp,16(sp)
  412e90:	2403ffff 	li	v1,-1
  412e94:	14430003 	bne	v0,v1,412ea4 <checkAscii@@Base+0xa80>
  412e98:	24020002 	li	v0,2
  412e9c:	10000006 	b	412eb8 <checkAscii@@Base+0xa94>
  412ea0:	ae020110 	sw	v0,272(s0)
  412ea4:	ae000110 	sw	zero,272(s0)
  412ea8:	3c040041 	lui	a0,0x41
[31m  412eac:	8f998224 	lw	t9,system[0m
  412eb0:	0320f809 	jalr	t9
  412eb4:	24844810 	addiu	a0,a0,18448
--
  4131d4:	24050003 	li	a1,3
  4131d8:	1000001b 	b	413248 <checkAscii@@Base+0xe24>
  4131dc:	a2000005 	sb	zero,5(s0)
  4131e0:	8e040008 	lw	a0,8(s0)
  4131e4:	8e05010c 	lw	a1,268(s0)
  4131e8:	0c104838 	jal	4120e0 <get_download_file_status@@Base+0x94>
  4131ec:	00000000 	nop
  4131f0:	8fbc0010 	lw	gp,16(sp)
  4131f4:	2403ffff 	li	v1,-1
  4131f8:	14430008 	bne	v0,v1,41321c <checkAscii@@Base+0xdf8>
  4131fc:	24020002 	li	v0,2
  413200:	ae020110 	sw	v0,272(s0)
  413204:	24040004 	li	a0,4
  413208:	8f9981f0 	lw	t9,-32272(gp)
  41320c:	0320f809 	jalr	t9
  413210:	24050003 	li	a1,3
  413214:	1000000c 	b	413248 <checkAscii@@Base+0xe24>
  413218:	a2000005 	sb	zero,5(s0)
  41321c:	24040004 	li	a0,4
  413220:	8f9981f0 	lw	t9,-32272(gp)
  413224:	0320f809 	jalr	t9
  413228:	24050002 	li	a1,2
  41322c:	8fbc0010 	lw	gp,16(sp)
  413230:	ae000110 	sw	zero,272(s0)
  413234:	3c040041 	lui	a0,0x41
[31m  413238:	8f998224 	lw	t9,system[0m
  41323c:	0320f809 	jalr	t9
  413240:	24844810 	addiu	a0,a0,18448
--
  4133d0:	8fbc0010 	lw	gp,16(sp)
  4133d4:	a3a0004a 	sb	zero,74(sp)
  4133d8:	8f998098 	lw	t9,-32616(gp)
  4133dc:	0320f809 	jalr	t9
  4133e0:	02202021 	move	a0,s1
  4133e4:	8fbc0010 	lw	gp,16(sp)
  4133e8:	8f998064 	lw	t9,-32668(gp)
  4133ec:	0320f809 	jalr	t9
  4133f0:	afa2001c 	sw	v0,28(sp)
  4133f4:	8fbc0010 	lw	gp,16(sp)
  4133f8:	2411ffff 	li	s1,-1
  4133fc:	afb1003c 	sw	s1,60(sp)
  413400:	8f998198 	lw	t9,-32360(gp)
  413404:	0320f809 	jalr	t9
  413408:	02002021 	move	a0,s0
  41340c:	8fbc0010 	lw	gp,16(sp)
  413410:	10510012 	beq	v0,s1,41345c <set_current_date_time@@Base+0x1f0>
  413414:	00000000 	nop
  413418:	afa20018 	sw	v0,24(sp)
  41341c:	8f9980a4 	lw	t9,-32604(gp)
  413420:	0320f809 	jalr	t9
  413424:	27a40018 	addiu	a0,sp,24
  413428:	8fbc0010 	lw	gp,16(sp)
  41342c:	1440000b 	bnez	v0,41345c <set_current_date_time@@Base+0x1f0>
  413430:	3c040041 	lui	a0,0x41
[31m  413434:	8f998224 	lw	t9,system[0m
  413438:	0320f809 	jalr	t9
  41343c:	248459b0 	addiu	a0,a0,22960
  413440:	8fbc0010 	lw	gp,16(sp)
  413444:	3c040041 	lui	a0,0x41
[31m  413448:	8f998224 	lw	t9,system[0m
  41344c:	0320f809 	jalr	t9
  413450:	248459dc 	addiu	a0,a0,23004
--
  413750:	0320f809 	jalr	t9
  413754:	27a700b0 	addiu	a3,sp,176
  413758:	8fbc0020 	lw	gp,32(sp)
  41375c:	24030006 	li	v1,6
  413760:	14430038 	bne	v0,v1,413844 <reset_datetime@@Base+0x3cc>
  413764:	24060002 	li	a2,2
  413768:	00002021 	move	a0,zero
  41376c:	8fa50028 	lw	a1,40(sp)
  413770:	8f99824c 	lw	t9,-32180(gp)
  413774:	0320f809 	jalr	t9
  413778:	27a70094 	addiu	a3,sp,148
  41377c:	8fbc0020 	lw	gp,32(sp)
  413780:	24020001 	li	v0,1
  413784:	8fa30030 	lw	v1,48(sp)
  413788:	1462001d 	bne	v1,v0,413800 <reset_datetime@@Base+0x388>
  41378c:	3c040041 	lui	a0,0x41
  413790:	24845a64 	addiu	a0,a0,23140
  413794:	24050001 	li	a1,1
  413798:	8f8280d0 	lw	v0,-32560(gp)
  41379c:	8c470000 	lw	a3,0(v0)
  4137a0:	8f9980b8 	lw	t9,-32584(gp)
  4137a4:	0320f809 	jalr	t9
  4137a8:	24060010 	li	a2,16
  4137ac:	8fbc0020 	lw	gp,32(sp)
  4137b0:	3c040041 	lui	a0,0x41
[31m  4137b4:	8f998224 	lw	t9,system[0m
  4137b8:	0320f809 	jalr	t9
  4137bc:	24845a78 	addiu	a0,a0,23160
  4137c0:	8fbc0020 	lw	gp,32(sp)
  4137c4:	3c040041 	lui	a0,0x41
[31m  4137c8:	8f998224 	lw	t9,system[0m
  4137cc:	0320f809 	jalr	t9
  4137d0:	24845aac 	addiu	a0,a0,23212
  4137d4:	8fbc0020 	lw	gp,32(sp)
  4137d8:	3c040041 	lui	a0,0x41
[31m  4137dc:	8f998224 	lw	t9,system[0m
  4137e0:	0320f809 	jalr	t9
  4137e4:	24845aec 	addiu	a0,a0,23276
  4137e8:	8fbc0020 	lw	gp,32(sp)
  4137ec:	8f998218 	lw	t9,-32232(gp)
  4137f0:	0320f809 	jalr	t9
  4137f4:	24040008 	li	a0,8
  4137f8:	10000012 	b	413844 <reset_datetime@@Base+0x3cc>
  4137fc:	00000000 	nop
  413800:	92220000 	lbu	v0,0(s1)
  413804:	1040000f 	beqz	v0,413844 <reset_datetime@@Base+0x3cc>
  413808:	24050001 	li	a1,1
  41380c:	3c040041 	lui	a0,0x41
  413810:	24845b20 	addiu	a0,a0,23328
  413814:	8f8280d0 	lw	v0,-32560(gp)
  413818:	8c470000 	lw	a3,0(v0)
  41381c:	8f9980b8 	lw	t9,-32584(gp)
  413820:	0320f809 	jalr	t9
  413824:	2406000f 	li	a2,15
  413828:	8fbc0020 	lw	gp,32(sp)
  41382c:	3c040041 	lui	a0,0x41
[31m  413830:	8f998224 	lw	t9,system[0m
  413834:	0320f809 	jalr	t9
  413838:	24845a78 	addiu	a0,a0,23160

[0m
[[0;33m*[0m] Function [0;33msystem[0m used [0;33m25[0m times [0;33mddp[0m

