[[0;33m*[0m] Binary protection state of [0;33mpppoe-server[0m
[REF] s12

  	RELRO          CANARY            NX           PIE       RPATH        RUNPATH      SYMBOLS      
  	[31mNo RELRO[0m       [31mNo Canary found[0m   [31mNX disabled[0m  [31mNo PIE[0m       [32mNo RPATH[0m     [32mNo RUNPATH[0m   [31mSymbols[0m

[0m
[[0;33m*[0m] Function [0;33msprintf[0m tear down of [0;33mpppoe-server[0m

  4021ec:	24639bb4 	addiu	v1,v1,-25676
  4021f0:	14400011 	bnez	v0,402238 <startPPPDLinuxKernelMode+0x2b4>
  4021f4:	afa30090 	sw	v1,144(sp)
  4021f8:	24020013 	li	v0,19
  4021fc:	27a50048 	addiu	a1,sp,72
  402200:	00021080 	sll	v0,v0,0x2
  402204:	3c040041 	lui	a0,0x41
  402208:	8f9980ec 	lw	t9,-32532(gp)
  40220c:	00a21021 	addu	v0,a1,v0
  402210:	24849bd0 	addiu	a0,a0,-25648
  402214:	0320f809 	jalr	t9
  402218:	ac400000 	sw	zero,0(v0)
  40221c:	8fbc0040 	lw	gp,64(sp)
  402220:	8f998060 	lw	t9,-32672(gp)
  402224:	0320f809 	jalr	t9
  402228:	24040001 	li	a0,1
  40222c:	8f998060 	lw	t9,-32672(gp)
  402230:	0320f809 	jalr	t9
  402234:	24040001 	li	a0,1
  402238:	3c020042 	lui	v0,0x42
  40223c:	3c050041 	lui	a1,0x41
  402240:	02202021 	move	a0,s1
  402244:	96060018 	lhu	a2,24(s0)
  402248:	24a5a62c 	addiu	a1,a1,-22996
  40224c:	8c42b438 	lw	v0,-19400(v0)
[31m  402250:	8f998090 	lw	t9,sprintf[0m
  402254:	00c23023 	subu	a2,a2,v0
  402258:	3c020041 	lui	v0,0x41
--
  4024dc:	02539821 	addu	s3,s2,s3
  4024e0:	24849bd0 	addiu	a0,a0,-25648
  4024e4:	02402821 	move	a1,s2
  4024e8:	0320f809 	jalr	t9
  4024ec:	ae600000 	sw	zero,0(s3)
  4024f0:	8fbc0040 	lw	gp,64(sp)
  4024f4:	8f998060 	lw	t9,-32672(gp)
  4024f8:	0320f809 	jalr	t9
  4024fc:	24040001 	li	a0,1
  402500:	3c020041 	lui	v0,0x41
  402504:	24429c2c 	addiu	v0,v0,-25556
  402508:	afa20080 	sw	v0,128(sp)
  40250c:	3c020042 	lui	v0,0x42
  402510:	8c42b448 	lw	v0,-19384(v0)
  402514:	1040ffed 	beqz	v0,4024cc <startPPPDUserMode+0x250>
  402518:	2413000f 	li	s3,15
  40251c:	3c030042 	lui	v1,0x42
  402520:	00131080 	sll	v0,s3,0x2
  402524:	27b20048 	addiu	s2,sp,72
  402528:	96060018 	lhu	a2,24(s0)
  40252c:	26700001 	addiu	s0,s3,1
  402530:	02202021 	move	a0,s1
  402534:	8c63b438 	lw	v1,-19400(v1)
  402538:	02421021 	addu	v0,s2,v0
  40253c:	00108080 	sll	s0,s0,0x2
[31m  402540:	8f998090 	lw	t9,sprintf[0m
  402544:	3c050041 	lui	a1,0x41
  402548:	00c33023 	subu	a2,a2,v1
--
  4039ec:	8f998060 	lw	t9,-32672(gp)
  4039f0:	0320f809 	jalr	t9
  4039f4:	24040001 	li	a0,1

004039f8 <sysErr>:
  4039f8:	27bdfbd8 	addiu	sp,sp,-1064
  4039fc:	afbf0424 	sw	ra,1060(sp)
  403a00:	afb00420 	sw	s0,1056(sp)
  403a04:	3c1c0042 	lui	gp,0x42
  403a08:	279c31f0 	addiu	gp,gp,12784
  403a0c:	afbc0010 	sw	gp,16(sp)
  403a10:	8f998064 	lw	t9,-32668(gp)
  403a14:	27b00018 	addiu	s0,sp,24
  403a18:	0320f809 	jalr	t9
  403a1c:	afa40418 	sw	a0,1048(sp)
  403a20:	8fbc0010 	lw	gp,16(sp)
  403a24:	8c440000 	lw	a0,0(v0)
  403a28:	8f9981c4 	lw	t9,-32316(gp)
  403a2c:	0320f809 	jalr	t9
  403a30:	00000000 	nop
  403a34:	3c050041 	lui	a1,0x41
  403a38:	02002021 	move	a0,s0
  403a3c:	8fbc0010 	lw	gp,16(sp)
  403a40:	24a5a5d8 	addiu	a1,a1,-23080
  403a44:	8fa60418 	lw	a2,1048(sp)
[31m  403a48:	8f998090 	lw	t9,sprintf[0m
  403a4c:	0320f809 	jalr	t9
  403a50:	00403821 	move	a3,v0
--
  405334:	27b20038 	addiu	s2,sp,56
  405338:	24060010 	li	a2,16
  40533c:	0320f809 	jalr	t9
  405340:	02402021 	move	a0,s2
  405344:	02002021 	move	a0,s0
  405348:	34058927 	li	a1,0x8927
  40534c:	8fbc0018 	lw	gp,24(sp)
  405350:	8f9981ec 	lw	t9,-32276(gp)
  405354:	0320f809 	jalr	t9
  405358:	02403021 	move	a2,s2
  40535c:	8fbc0018 	lw	gp,24(sp)
  405360:	044000bb 	bltz	v0,405650 <openInterface+0x3d0>
  405364:	3c040041 	lui	a0,0x41
  405368:	27a2004a 	addiu	v0,sp,74
  40536c:	88430000 	lwl	v1,0(v0)
  405370:	90450005 	lbu	a1,5(v0)
  405374:	98430003 	lwr	v1,3(v0)
  405378:	90420004 	lbu	v0,4(v0)
  40537c:	97a40048 	lhu	a0,72(sp)
  405380:	aa230000 	swl	v1,0(s1)
  405384:	ba230003 	swr	v1,3(s1)
  405388:	a2220004 	sb	v0,4(s1)
  40538c:	24020001 	li	v0,1
  405390:	1082000d 	beq	a0,v0,4053c8 <openInterface+0x148>
  405394:	a2250005 	sb	a1,5(s1)
[31m  405398:	8f998090 	lw	t9,sprintf[0m
  40539c:	27b60058 	addiu	s6,sp,88
  4053a0:	02803021 	move	a2,s4
--
  405450:	0320f809 	jalr	t9
  405454:	02002021 	move	a0,s0
  405458:	8fbc0018 	lw	gp,24(sp)
  40545c:	04400076 	bltz	v0,405638 <openInterface+0x3b8>
  405460:	3c040041 	lui	a0,0x41
  405464:	8fa20048 	lw	v0,72(sp)
  405468:	02602821 	move	a1,s3
  40546c:	24060014 	li	a2,20
  405470:	8f998128 	lw	t9,-32472(gp)
  405474:	02002021 	move	a0,s0
  405478:	0320f809 	jalr	t9
  40547c:	afa20028 	sw	v0,40(sp)
  405480:	8fbc0018 	lw	gp,24(sp)
  405484:	0440005d 	bltz	v0,4055fc <openInterface+0x37c>
  405488:	02001021 	move	v0,s0
  40548c:	8fbf0174 	lw	ra,372(sp)
  405490:	8fb60170 	lw	s6,368(sp)
  405494:	8fb5016c 	lw	s5,364(sp)
  405498:	8fb40168 	lw	s4,360(sp)
  40549c:	8fb30164 	lw	s3,356(sp)
  4054a0:	8fb20160 	lw	s2,352(sp)
  4054a4:	8fb1015c 	lw	s1,348(sp)
  4054a8:	8fb00158 	lw	s0,344(sp)
  4054ac:	03e00008 	jr	ra
  4054b0:	27bd0178 	addiu	sp,sp,376
[31m  4054b4:	8f998090 	lw	t9,sprintf[0m
  4054b8:	02803021 	move	a2,s4
  4054bc:	3c050041 	lui	a1,0x41
--
  4054d8:	02202021 	move	a0,s1
  4054dc:	02402021 	move	a0,s2
  4054e0:	24060010 	li	a2,16
  4054e4:	8fbc0018 	lw	gp,24(sp)
  4054e8:	8f9980fc 	lw	t9,-32516(gp)
  4054ec:	0320f809 	jalr	t9
  4054f0:	02802821 	move	a1,s4
  4054f4:	02002021 	move	a0,s0
  4054f8:	34058921 	li	a1,0x8921
  4054fc:	8fbc0018 	lw	gp,24(sp)
  405500:	8f9981ec 	lw	t9,-32276(gp)
  405504:	0320f809 	jalr	t9
  405508:	02403021 	move	a2,s2
  40550c:	8fbc0018 	lw	gp,24(sp)
  405510:	0441ffbf 	bgez	v0,405410 <openInterface+0x190>
  405514:	00000000 	nop
  405518:	8f998080 	lw	t9,-32640(gp)
  40551c:	3c040041 	lui	a0,0x41
  405520:	0320f809 	jalr	t9
  405524:	2484ab88 	addiu	a0,a0,-21624
  405528:	8fa70048 	lw	a3,72(sp)
  40552c:	8fbc0018 	lw	gp,24(sp)
  405530:	28e205dc 	slti	v0,a3,1500
  405534:	1040ffba 	beqz	v0,405420 <openInterface+0x1a0>
  405538:	00000000 	nop
[31m  40553c:	8f998090 	lw	t9,sprintf[0m
  405540:	27b10058 	addiu	s1,sp,88
  405544:	02803021 	move	a2,s4

[0m
[[0;33m*[0m] Function [0;33msprintf[0m used [0;33m6[0m times [0;33mpppoe-server[0m

