[[0;33m*[0m] Binary protection state of [0;33mflash_eraseall[0m
[REF] s12

  	RELRO          CANARY            NX           PIE       RPATH        RUNPATH      SYMBOLS      
  	[31mNo RELRO[0m       [31mNo Canary found[0m   [31mNX disabled[0m  [31mNo PIE[0m       [32mNo RPATH[0m     [32mNo RUNPATH[0m   [32mNo Symbols[0m

[0m
[[0;33m*[0m] Function [0;33mfprintf[0m tear down of [0;33mflash_eraseall[0m

  400afc:	8f998094 	lw	t9,-32620(gp)
  400b00:	0320f809 	jalr	t9
  400b04:	248415c0 	addiu	a0,a0,5568
  400b08:	8fbc0018 	lw	gp,24(sp)
  400b0c:	8f99803c 	lw	t9,-32708(gp)
  400b10:	0320f809 	jalr	t9
  400b14:	00002021 	move	a0,zero
  400b18:	8f99807c 	lw	t9,-32644(gp)
  400b1c:	0320f809 	jalr	t9
  400b20:	248416e8 	addiu	a0,a0,5864
  400b24:	8fbc0018 	lw	gp,24(sp)
  400b28:	8f99803c 	lw	t9,-32708(gp)
  400b2c:	0320f809 	jalr	t9
  400b30:	00002021 	move	a0,zero
  400b34:	3c030041 	lui	v1,0x41
  400b38:	1000ffce 	b	400a74 <main@@Base+0x74>
  400b3c:	ac7e1fdc 	sw	s8,8156(v1)
  400b40:	8f82805c 	lw	v0,-32676(gp)
  400b44:	8c420000 	lw	v0,0(v0)
  400b48:	1622000b 	bne	s1,v0,400b78 <main@@Base+0x178>
  400b4c:	3c050040 	lui	a1,0x40
  400b50:	8f828048 	lw	v0,-32696(gp)
  400b54:	8c440000 	lw	a0,0(v0)
  400b58:	3c020041 	lui	v0,0x41
  400b5c:	8c461fd0 	lw	a2,8144(v0)
[31m  400b60:	8f998060 	lw	t9,fprintf[0m
  400b64:	0320f809 	jalr	t9
  400b68:	24a5180c 	addiu	a1,a1,6156
  400b6c:	8fbc0018 	lw	gp,24(sp)
  400b70:	10000004 	b	400b84 <main@@Base+0x184>
  400b74:	00000000 	nop
  400b78:	8fa40118 	lw	a0,280(sp)
  400b7c:	1080000d 	beqz	a0,400bb4 <main@@Base+0x1b4>
  400b80:	00000000 	nop
  400b84:	8f828048 	lw	v0,-32696(gp)
  400b88:	8c440000 	lw	a0,0(v0)
  400b8c:	3c050040 	lui	a1,0x40
  400b90:	3c020041 	lui	v0,0x41
  400b94:	8c461fd0 	lw	a2,8144(v0)
[31m  400b98:	8f998060 	lw	t9,fprintf[0m
  400b9c:	0320f809 	jalr	t9
  400ba0:	24a5182c 	addiu	a1,a1,6188
--
  400bd4:	0320f809 	jalr	t9
  400bd8:	24050002 	li	a1,2
  400bdc:	8fbc0018 	lw	gp,24(sp)
  400be0:	0441001c 	bgez	v0,400c54 <main@@Base+0x254>
  400be4:	00408821 	move	s1,v0
  400be8:	8f828048 	lw	v0,-32696(gp)
  400bec:	8c500000 	lw	s0,0(v0)
  400bf0:	3c020041 	lui	v0,0x41
  400bf4:	8c511fd0 	lw	s1,8144(v0)
  400bf8:	3c020041 	lui	v0,0x41
  400bfc:	8c521fd4 	lw	s2,8148(v0)
  400c00:	8f998040 	lw	t9,-32704(gp)
  400c04:	0320f809 	jalr	t9
  400c08:	00000000 	nop
  400c0c:	8fbc0018 	lw	gp,24(sp)
  400c10:	8c440000 	lw	a0,0(v0)
  400c14:	8f99808c 	lw	t9,-32628(gp)
  400c18:	0320f809 	jalr	t9
  400c1c:	00000000 	nop
  400c20:	8fbc0018 	lw	gp,24(sp)
  400c24:	afa20010 	sw	v0,16(sp)
  400c28:	02002021 	move	a0,s0
  400c2c:	3c050040 	lui	a1,0x40
  400c30:	24a51854 	addiu	a1,a1,6228
  400c34:	02203021 	move	a2,s1
[31m  400c38:	8f998060 	lw	t9,fprintf[0m
  400c3c:	0320f809 	jalr	t9
  400c40:	02403821 	move	a3,s2
--
  400c64:	0320f809 	jalr	t9
  400c68:	27a60020 	addiu	a2,sp,32
  400c6c:	8fbc0018 	lw	gp,24(sp)
  400c70:	1040001c 	beqz	v0,400ce4 <main@@Base+0x2e4>
  400c74:	00000000 	nop
  400c78:	8f828048 	lw	v0,-32696(gp)
  400c7c:	8c500000 	lw	s0,0(v0)
  400c80:	3c020041 	lui	v0,0x41
  400c84:	8c511fd0 	lw	s1,8144(v0)
  400c88:	3c020041 	lui	v0,0x41
  400c8c:	8c521fd4 	lw	s2,8148(v0)
  400c90:	8f998040 	lw	t9,-32704(gp)
  400c94:	0320f809 	jalr	t9
  400c98:	00000000 	nop
  400c9c:	8fbc0018 	lw	gp,24(sp)
  400ca0:	8c440000 	lw	a0,0(v0)
  400ca4:	8f99808c 	lw	t9,-32628(gp)
  400ca8:	0320f809 	jalr	t9
  400cac:	00000000 	nop
  400cb0:	8fbc0018 	lw	gp,24(sp)
  400cb4:	afa20010 	sw	v0,16(sp)
  400cb8:	02002021 	move	a0,s0
  400cbc:	3c050040 	lui	a1,0x40
  400cc0:	24a51860 	addiu	a1,a1,6240
  400cc4:	02203021 	move	a2,s1
[31m  400cc8:	8f998060 	lw	t9,fprintf[0m
  400ccc:	0320f809 	jalr	t9
  400cd0:	02403821 	move	a3,s2
--
  400d6c:	2402000c 	li	v0,12
  400d70:	3c030c00 	lui	v1,0xc00
  400d74:	0044180a 	0x44180a
  400d78:	3c020041 	lui	v0,0x41
  400d7c:	ac431fe4 	sw	v1,8164(v0)
  400d80:	24040008 	li	a0,8
  400d84:	afa40128 	sw	a0,296(sp)
  400d88:	10000052 	b	400ed4 <main@@Base+0x4d4>
  400d8c:	afa0012c 	sw	zero,300(sp)
  400d90:	02202021 	move	a0,s1
  400d94:	3c0540c8 	lui	a1,0x40c8
  400d98:	34a54d0a 	ori	a1,a1,0x4d0a
  400d9c:	8f998098 	lw	t9,-32616(gp)
  400da0:	0320f809 	jalr	t9
  400da4:	27a60050 	addiu	a2,sp,80
  400da8:	8fbc0018 	lw	gp,24(sp)
  400dac:	1040000f 	beqz	v0,400dec <main@@Base+0x3ec>
  400db0:	24020002 	li	v0,2
  400db4:	8f828048 	lw	v0,-32696(gp)
  400db8:	8c440000 	lw	a0,0(v0)
  400dbc:	3c050040 	lui	a1,0x40
  400dc0:	3c020041 	lui	v0,0x41
  400dc4:	8c461fd0 	lw	a2,8144(v0)
  400dc8:	3c020041 	lui	v0,0x41
  400dcc:	8c471fd4 	lw	a3,8148(v0)
[31m  400dd0:	8f998060 	lw	t9,fprintf[0m
  400dd4:	0320f809 	jalr	t9
  400dd8:	24a5188c 	addiu	a1,a1,6284
--
  401020:	0320f809 	jalr	t9
  401024:	00000000 	nop
  401028:	8fbc0018 	lw	gp,24(sp)
  40102c:	100000d8 	b	401390 <main@@Base+0x990>
  401030:	00000000 	nop
  401034:	04410030 	bgez	v0,4010f8 <main@@Base+0x6f8>
  401038:	00000000 	nop
  40103c:	8f998040 	lw	t9,-32704(gp)
  401040:	0320f809 	jalr	t9
  401044:	00000000 	nop
  401048:	8fbc0018 	lw	gp,24(sp)
  40104c:	8c440000 	lw	a0,0(v0)
  401050:	2402007a 	li	v0,122
  401054:	14820012 	bne	a0,v0,4010a0 <main@@Base+0x6a0>
  401058:	00000000 	nop
  40105c:	8fa20118 	lw	v0,280(sp)
  401060:	10400025 	beqz	v0,4010f8 <main@@Base+0x6f8>
  401064:	00009821 	move	s3,zero
  401068:	8f828048 	lw	v0,-32696(gp)
  40106c:	8c440000 	lw	a0,0(v0)
  401070:	3c050040 	lui	a1,0x40
  401074:	3c020041 	lui	v0,0x41
  401078:	8c461fd0 	lw	a2,8144(v0)
  40107c:	3c020041 	lui	v0,0x41
  401080:	8c471fd4 	lw	a3,8148(v0)
[31m  401084:	8f998060 	lw	t9,fprintf[0m
  401088:	0320f809 	jalr	t9
  40108c:	24a5190c 	addiu	a1,a1,6412
  401090:	8fbc0018 	lw	gp,24(sp)
  401094:	8f99803c 	lw	t9,-32708(gp)
  401098:	0320f809 	jalr	t9
  40109c:	24040001 	li	a0,1
  4010a0:	8f828048 	lw	v0,-32696(gp)
  4010a4:	8c500000 	lw	s0,0(v0)
  4010a8:	3c020041 	lui	v0,0x41
  4010ac:	8c511fd0 	lw	s1,8144(v0)
  4010b0:	3c020041 	lui	v0,0x41
  4010b4:	8c521fd4 	lw	s2,8148(v0)
  4010b8:	8f99808c 	lw	t9,-32628(gp)
  4010bc:	0320f809 	jalr	t9
  4010c0:	00000000 	nop
  4010c4:	8fbc0018 	lw	gp,24(sp)
  4010c8:	afa20010 	sw	v0,16(sp)
  4010cc:	02002021 	move	a0,s0
  4010d0:	3c050040 	lui	a1,0x40
  4010d4:	24a51934 	addiu	a1,a1,6452
  4010d8:	02203021 	move	a2,s1
[31m  4010dc:	8f998060 	lw	t9,fprintf[0m
  4010e0:	0320f809 	jalr	t9
  4010e4:	02403821 	move	a3,s2
--
  40116c:	34a54d02 	ori	a1,a1,0x4d02
  401170:	8f998098 	lw	t9,-32616(gp)
  401174:	0320f809 	jalr	t9
  401178:	27a60040 	addiu	a2,sp,64
  40117c:	8fbc0018 	lw	gp,24(sp)
  401180:	10400019 	beqz	v0,4011e8 <main@@Base+0x7e8>
  401184:	00000000 	nop
  401188:	8f828048 	lw	v0,-32696(gp)
  40118c:	8c550000 	lw	s5,0(v0)
  401190:	8fd61fd0 	lw	s6,8144(s8)
  401194:	3c020041 	lui	v0,0x41
  401198:	8c571fd4 	lw	s7,8148(v0)
  40119c:	8f998040 	lw	t9,-32704(gp)
  4011a0:	0320f809 	jalr	t9
  4011a4:	00000000 	nop
  4011a8:	8fbc0018 	lw	gp,24(sp)
  4011ac:	8c440000 	lw	a0,0(v0)
  4011b0:	8f99808c 	lw	t9,-32628(gp)
  4011b4:	0320f809 	jalr	t9
  4011b8:	00000000 	nop
  4011bc:	8fbc0018 	lw	gp,24(sp)
  4011c0:	afa20010 	sw	v0,16(sp)
  4011c4:	02a02021 	move	a0,s5
  4011c8:	8fa50120 	lw	a1,288(sp)
  4011cc:	02c03021 	move	a2,s6
[31m  4011d0:	8f998060 	lw	t9,fprintf[0m
  4011d4:	0320f809 	jalr	t9
  4011d8:	02e03821 	move	a3,s7
--
  4011f8:	1060001e 	beqz	v1,401274 <main@@Base+0x874>
  4011fc:	02202021 	move	a0,s1
  401200:	8fa4011c 	lw	a0,284(sp)
  401204:	afa40058 	sw	a0,88(sp)
  401208:	8fa20040 	lw	v0,64(sp)
  40120c:	8fa3012c 	lw	v1,300(sp)
  401210:	00621021 	addu	v0,v1,v0
  401214:	afa20050 	sw	v0,80(sp)
  401218:	8fa40128 	lw	a0,296(sp)
  40121c:	afa40054 	sw	a0,84(sp)
  401220:	02202021 	move	a0,s1
  401224:	3c05c00c 	lui	a1,0xc00c
  401228:	34a54d03 	ori	a1,a1,0x4d03
  40122c:	8f998098 	lw	t9,-32616(gp)
  401230:	0320f809 	jalr	t9
  401234:	27a60050 	addiu	a2,sp,80
  401238:	8fbc0018 	lw	gp,24(sp)
  40123c:	1040004b 	beqz	v0,40136c <main@@Base+0x96c>
  401240:	00000000 	nop
  401244:	8f828048 	lw	v0,-32696(gp)
  401248:	8c440000 	lw	a0,0(v0)
  40124c:	8fa5013c 	lw	a1,316(sp)
  401250:	8fc61fd0 	lw	a2,8144(s8)
  401254:	3c020041 	lui	v0,0x41
  401258:	8c471fd4 	lw	a3,8148(v0)
[31m  40125c:	8f998060 	lw	t9,fprintf[0m
  401260:	0320f809 	jalr	t9
  401264:	00000000 	nop
--
  401274:	8fa50040 	lw	a1,64(sp)
  401278:	8f998070 	lw	t9,-32656(gp)
  40127c:	0320f809 	jalr	t9
  401280:	00003021 	move	a2,zero
  401284:	8fbc0018 	lw	gp,24(sp)
  401288:	04410019 	bgez	v0,4012f0 <main@@Base+0x8f0>
  40128c:	02202021 	move	a0,s1
  401290:	8f828048 	lw	v0,-32696(gp)
  401294:	8c550000 	lw	s5,0(v0)
  401298:	8fd61fd0 	lw	s6,8144(s8)
  40129c:	3c030041 	lui	v1,0x41
  4012a0:	8c771fd4 	lw	s7,8148(v1)
  4012a4:	8f998040 	lw	t9,-32704(gp)
  4012a8:	0320f809 	jalr	t9
  4012ac:	00000000 	nop
  4012b0:	8fbc0018 	lw	gp,24(sp)
  4012b4:	8c440000 	lw	a0,0(v0)
  4012b8:	8f99808c 	lw	t9,-32628(gp)
  4012bc:	0320f809 	jalr	t9
  4012c0:	00000000 	nop
  4012c4:	8fbc0018 	lw	gp,24(sp)
  4012c8:	afa20010 	sw	v0,16(sp)
  4012cc:	02a02021 	move	a0,s5
  4012d0:	8fa50140 	lw	a1,320(sp)
  4012d4:	02c03021 	move	a2,s6
[31m  4012d8:	8f998060 	lw	t9,fprintf[0m
  4012dc:	0320f809 	jalr	t9
  4012e0:	02e03821 	move	a3,s7
--
  4012f0:	8fa5011c 	lw	a1,284(sp)
  4012f4:	8f998064 	lw	t9,-32668(gp)
  4012f8:	0320f809 	jalr	t9
  4012fc:	2406000c 	li	a2,12
  401300:	8fbc0018 	lw	gp,24(sp)
  401304:	2403000c 	li	v1,12
  401308:	10430018 	beq	v0,v1,40136c <main@@Base+0x96c>
  40130c:	3c040041 	lui	a0,0x41
  401310:	8f828048 	lw	v0,-32696(gp)
  401314:	8c550000 	lw	s5,0(v0)
  401318:	8fd61fd0 	lw	s6,8144(s8)
  40131c:	8c971fd4 	lw	s7,8148(a0)
  401320:	8f998040 	lw	t9,-32704(gp)
  401324:	0320f809 	jalr	t9
  401328:	00000000 	nop
  40132c:	8fbc0018 	lw	gp,24(sp)
  401330:	8c440000 	lw	a0,0(v0)
  401334:	8f99808c 	lw	t9,-32628(gp)
  401338:	0320f809 	jalr	t9
  40133c:	00000000 	nop
  401340:	8fbc0018 	lw	gp,24(sp)
  401344:	afa20010 	sw	v0,16(sp)
  401348:	02a02021 	move	a0,s5
  40134c:	8fa50134 	lw	a1,308(sp)
  401350:	02c03021 	move	a2,s6
[31m  401354:	8f998060 	lw	t9,fprintf[0m
  401358:	0320f809 	jalr	t9
  40135c:	02e03821 	move	a3,s7

[0m
[[0;33m*[0m] Function [0;33mfprintf[0m used [0;33m11[0m times [0;33mflash_eraseall[0m

