[[0;33m*[0m] Binary protection state of [0;33mmkdosfs[0m
[REF] s12

  	RELRO          CANARY            NX           PIE       RPATH        RUNPATH      SYMBOLS      
  	[31mNo RELRO[0m       [31mNo Canary found[0m   [31mNX disabled[0m  [31mNo PIE[0m       [32mNo RPATH[0m     [32mNo RUNPATH[0m   [32mNo Symbols[0m

[0m
[[0;33m*[0m] Function [0;33mprintf[0m tear down of [0;33mmkdosfs[0m

  4010b4:	00000000 	nop
  4010b8:	a203000d 	sb	v1,13(s0)
  4010bc:	24030020 	li	v1,32
  4010c0:	10430389 	beq	v0,v1,401ee8 <_ftext@@Base+0x1298>
  4010c4:	3c060041 	lui	a2,0x41
  4010c8:	3c070041 	lui	a3,0x41
  4010cc:	8ce26ae0 	lw	v0,27360(a3)
  4010d0:	104002d4 	beqz	v0,401c24 <_ftext@@Base+0xfd4>
  4010d4:	3c090042 	lui	t1,0x42
  4010d8:	3c080042 	lui	t0,0x42
  4010dc:	3c030041 	lui	v1,0x41
  4010e0:	8d02ab2c 	lw	v0,-21716(t0)
  4010e4:	946367a4 	lhu	v1,26532(v1)
  4010e8:	00022402 	srl	a0,v0,0x10
  4010ec:	a2020008 	sb	v0,8(s0)
  4010f0:	00021202 	srl	v0,v0,0x8
  4010f4:	afa80054 	sw	t0,84(sp)
  4010f8:	a204000a 	sb	a0,10(s0)
  4010fc:	a2020009 	sb	v0,9(s0)
  401100:	a623ab48 	sh	v1,-21688(s1)
  401104:	3c140041 	lui	s4,0x41
  401108:	8e826b10 	lw	v0,27408(s4)
  40110c:	28420002 	slti	v0,v0,2
  401110:	14400009 	bnez	v0,401138 <_ftext@@Base+0x4e8>
  401114:	3c020041 	lui	v0,0x41
[31m  401118:	8f998108 	lw	t9,printf[0m
  40111c:	3c040040 	lui	a0,0x40
  401120:	9225ab48 	lbu	a1,-21688(s1)
  401124:	92060001 	lbu	a2,1(s0)
  401128:	0320f809 	jalr	t9
  40112c:	2484546c 	addiu	a0,a0,21612
  401130:	8fbc0018 	lw	gp,24(sp)
  401134:	3c020041 	lui	v0,0x41
  401138:	8c456b04 	lw	a1,27396(v0)
  40113c:	14a002b1 	bnez	a1,401c04 <_ftext@@Base+0xfb4>
  401140:	24020020 	li	v0,32
  401144:	8ec36af0 	lw	v1,27376(s6)
  401148:	24040020 	li	a0,32
  40114c:	24050001 	li	a1,1
  401150:	24020100 	li	v0,256
  401154:	38630020 	xori	v1,v1,0x20
  401158:	0083280a 	0x83280a
  40115c:	24042000 	li	a0,8192
  401160:	0083100a 	0x83100a
  401164:	3c030041 	lui	v1,0x41
  401168:	ac656b04 	sw	a1,27396(v1)
  40116c:	8e836b10 	lw	v1,27408(s4)
  401170:	a602000e 	sh	v0,14(s0)
  401174:	28620002 	slti	v0,v1,2
  401178:	14400005 	bnez	v0,401190 <_ftext@@Base+0x540>
  40117c:	3c040040 	lui	a0,0x40
[31m  401180:	8f998108 	lw	t9,printf[0m
  401184:	0320f809 	jalr	t9
  401188:	248454c4 	addiu	a0,a0,21700
--
  401204:	00832025 	or	a0,a0,v1
  401208:	00c03821 	move	a3,a2
  40120c:	00052a80 	sll	a1,a1,0xa
  401210:	0320f809 	jalr	t9
  401214:	000637c3 	sra	a2,a2,0x1f
  401218:	3c020041 	lui	v0,0x41
  40121c:	8c426b18 	lw	v0,27416(v0)
  401220:	8fbc0018 	lw	gp,24(sp)
  401224:	00439021 	addu	s2,v0,v1
  401228:	8ec26af0 	lw	v0,27376(s6)
  40122c:	1440000a 	bnez	v0,401258 <_ftext@@Base+0x608>
  401230:	240205a0 	li	v0,1440
  401234:	124204c4 	beq	s2,v0,402548 <_ftext@@Base+0x18f8>
  401238:	24020960 	li	v0,2400
  40123c:	124204c2 	beq	s2,v0,402548 <_ftext@@Base+0x18f8>
  401240:	24020b40 	li	v0,2880
  401244:	124204c0 	beq	s2,v0,402548 <_ftext@@Base+0x18f8>
  401248:	24021680 	li	v0,5760
  40124c:	124204be 	beq	s2,v0,402548 <_ftext@@Base+0x18f8>
  401250:	24020010 	li	v0,16
  401254:	aec26af0 	sw	v0,27376(s6)
  401258:	8e826b10 	lw	v0,27408(s4)
  40125c:	28420002 	slti	v0,v0,2
  401260:	14400008 	bnez	v0,401284 <_ftext@@Base+0x634>
  401264:	3c050041 	lui	a1,0x41
[31m  401268:	8f998108 	lw	t9,printf[0m
  40126c:	3c040040 	lui	a0,0x40
  401270:	8ec56af0 	lw	a1,27376(s6)
--
  4012c8:	294a0002 	slti	t2,t2,2
  4012cc:	11400299 	beqz	t2,401d34 <_ftext@@Base+0x10e4>
  4012d0:	aeb1697c 	sw	s1,27004(s5)
  4012d4:	3c070041 	lui	a3,0x41
  4012d8:	afa7003c 	sw	a3,60(sp)
  4012dc:	afb50020 	sw	s5,32(sp)
  4012e0:	0240a821 	move	s5,s2
  4012e4:	10000025 	b	40137c <_ftext@@Base+0x72c>
  4012e8:	afb00028 	sw	s0,40(sp)
  4012ec:	02631004 	sllv	v0,v1,s3
  4012f0:	2442fff0 	addiu	v0,v0,-16
  4012f4:	0050102b 	sltu	v0,v0,s0
  4012f8:	14400004 	bnez	v0,40130c <_ftext@@Base+0x6bc>
  4012fc:	2602fffe 	addiu	v0,s0,-2
  401300:	0057102b 	sltu	v0,v0,s7
  401304:	104005e5 	beqz	v0,402a9c <_ftext@@Base+0x1e4c>
  401308:	02404821 	move	t1,s2
  40130c:	8e826b10 	lw	v0,27408(s4)
  401310:	28420002 	slti	v0,v0,2
  401314:	1440000a 	bnez	v0,401340 <_ftext@@Base+0x6f0>
  401318:	2610fffe 	addiu	s0,s0,-2
  40131c:	3c040040 	lui	a0,0x40
  401320:	3c050040 	lui	a1,0x40
  401324:	0217b82b 	sltu	s7,s0,s7
  401328:	24845950 	addiu	a0,a0,22864
[31m  40132c:	8f998108 	lw	t9,printf[0m
  401330:	24a55964 	addiu	a1,a1,22884
  401334:	0320f809 	jalr	t9
--
  401468:	00001812 	mflo	v1
  40146c:	000318c2 	srl	v1,v1,0x3
  401470:	00729021 	addu	s2,v1,s2
  401474:	0251001a 	div	zero,s2,s1
  401478:	16200002 	bnez	s1,401484 <_ftext@@Base+0x834>
  40147c:	00000000 	nop
  401480:	0007000d 	break	0x7
  401484:	00009012 	mflo	s2
  401488:	02480018 	mult	s2,t0
  40148c:	afb20024 	sw	s2,36(sp)
  401490:	00004012 	mflo	t0
  401494:	00520018 	mult	v0,s2
  401498:	02084023 	subu	t0,s0,t0
  40149c:	00001012 	mflo	v0
  4014a0:	0117001b 	divu	zero,t0,s7
  4014a4:	16e00002 	bnez	s7,4014b0 <_ftext@@Base+0x860>
  4014a8:	00000000 	nop
  4014ac:	0007000d 	break	0x7
  4014b0:	0000b812 	mflo	s7
  4014b4:	0053001b 	divu	zero,v0,s3
  4014b8:	16600002 	bnez	s3,4014c4 <_ftext@@Base+0x874>
  4014bc:	00000000 	nop
  4014c0:	0007000d 	break	0x7
  4014c4:	1540000b 	bnez	t2,4014f4 <_ftext@@Base+0x8a4>
  4014c8:	00008012 	mflo	s0
[31m  4014cc:	8f998108 	lw	t9,printf[0m
  4014d0:	3c040040 	lui	a0,0x40
  4014d4:	02202821 	move	a1,s1
--
  4015e0:	afa80044 	sw	t0,68(sp)
  4015e4:	24090080 	li	t1,128
  4015e8:	9211000d 	lbu	s1,13(s0)
  4015ec:	afa90044 	sw	t1,68(sp)
  4015f0:	3c030041 	lui	v1,0x41
  4015f4:	afb00020 	sw	s0,32(sp)
  4015f8:	afb20048 	sw	s2,72(sp)
  4015fc:	afb50030 	sw	s5,48(sp)
  401600:	8c706b04 	lw	s0,27396(v1)
  401604:	1160017b 	beqz	t3,401bf4 <_ftext@@Base+0xfa4>
  401608:	00000000 	nop
  40160c:	8fa40050 	lw	a0,80(sp)
  401610:	2610ffff 	addiu	s0,s0,-1
  401614:	00111023 	negu	v0,s1
  401618:	02118021 	addu	s0,s0,s1
  40161c:	2493ffff 	addiu	s3,a0,-1
  401620:	02028024 	and	s0,s0,v0
  401624:	8fa50048 	lw	a1,72(sp)
  401628:	02719821 	addu	s3,s3,s1
  40162c:	02629824 	and	s3,s3,v0
  401630:	00b08023 	subu	s0,a1,s0
  401634:	8e926b10 	lw	s2,27408(s4)
  401638:	2a570002 	slti	s7,s2,2
  40163c:	16e0000e 	bnez	s7,401678 <_ftext@@Base+0xa28>
  401640:	02139823 	subu	s3,s0,s3
[31m  401644:	8f998108 	lw	t9,printf[0m
  401648:	3c040040 	lui	a0,0x40
  40164c:	02202821 	move	a1,s1
--
  401754:	02a21024 	and	v0,s5,v0
  401758:	afa20028 	sw	v0,40(sp)
  40175c:	8fa20028 	lw	v0,40(sp)
  401760:	8fa30028 	lw	v1,40(sp)
  401764:	00480018 	mult	v0,t0
  401768:	24020ff0 	li	v0,4080
  40176c:	00004012 	mflo	t0
  401770:	01230018 	mult	t1,v1
  401774:	02684023 	subu	t0,s3,t0
  401778:	3c03aaaa 	lui	v1,0xaaaa
  40177c:	3463aaab 	ori	v1,v1,0xaaab
  401780:	00004812 	mflo	t1
  401784:	0111001b 	divu	zero,t0,s1
  401788:	16200002 	bnez	s1,401794 <_ftext@@Base+0xb44>
  40178c:	00000000 	nop
  401790:	0007000d 	break	0x7
  401794:	0000a812 	mflo	s5
  401798:	01230019 	multu	t1,v1
  40179c:	afb50038 	sw	s5,56(sp)
  4017a0:	00004810 	mfhi	t1
  4017a4:	00094842 	srl	t1,t1,0x1
  4017a8:	2d310ff1 	sltiu	s1,t1,4081
  4017ac:	0051480a 	0x51480a
  4017b0:	16e0000c 	bnez	s7,4017e4 <_ftext@@Base+0xb94>
  4017b4:	01208821 	move	s1,t1
[31m  4017b8:	8f998108 	lw	t9,printf[0m
  4017bc:	3c040040 	lui	a0,0x40
  4017c0:	02a02821 	move	a1,s5
--
  4018b0:	8fa40024 	lw	a0,36(sp)
  4018b4:	2503ffff 	addiu	v1,t0,-1
  4018b8:	00081023 	negu	v0,t0
  4018bc:	00641821 	addu	v1,v1,a0
  4018c0:	00621024 	and	v0,v1,v0
  4018c4:	afa20024 	sw	v0,36(sp)
  4018c8:	8fa20024 	lw	v0,36(sp)
  4018cc:	8fa30024 	lw	v1,36(sp)
  4018d0:	00550018 	mult	v0,s5
  4018d4:	3402fff0 	li	v0,0xfff0
  4018d8:	0000a812 	mflo	s5
  4018dc:	00710018 	mult	v1,s1
  4018e0:	02759823 	subu	s3,s3,s5
  4018e4:	3403fff1 	li	v1,0xfff1
  4018e8:	00008812 	mflo	s1
  4018ec:	0268001b 	divu	zero,s3,t0
  4018f0:	15000002 	bnez	t0,4018fc <_ftext@@Base+0xcac>
  4018f4:	00000000 	nop
  4018f8:	0007000d 	break	0x7
  4018fc:	00118842 	srl	s1,s1,0x1
  401900:	0223182b 	sltu	v1,s1,v1
  401904:	0043880a 	0x43880a
  401908:	00009812 	mflo	s3
  40190c:	16e0000b 	bnez	s7,40193c <_ftext@@Base+0xcec>
  401910:	afb30034 	sw	s3,52(sp)
[31m  401914:	8f998108 	lw	t9,printf[0m
  401918:	3c040040 	lui	a0,0x40
  40191c:	02203821 	move	a3,s1
--
  401a78:	00001812 	mflo	v1
  401a7c:	0213001b 	divu	zero,s0,s3
  401a80:	16600002 	bnez	s3,401a8c <_ftext@@Base+0xe3c>
  401a84:	00000000 	nop
  401a88:	0007000d 	break	0x7
  401a8c:	00031882 	srl	v1,v1,0x2
  401a90:	0062102b 	sltu	v0,v1,v0
  401a94:	0062880b 	0x62880b
  401a98:	3402fff8 	li	v0,0xfff8
  401a9c:	00008012 	mflo	s0
  401aa0:	2603ffff 	addiu	v1,s0,-1
  401aa4:	0062102b 	sltu	v0,v1,v0
  401aa8:	10400013 	beqz	v0,401af8 <_ftext@@Base+0xea8>
  401aac:	00000000 	nop
  401ab0:	3c030041 	lui	v1,0x41
  401ab4:	8c626af4 	lw	v0,27380(v1)
  401ab8:	10400005 	beqz	v0,401ad0 <_ftext@@Base+0xe80>
  401abc:	00000000 	nop
  401ac0:	8ec36af0 	lw	v1,27376(s6)
  401ac4:	24020020 	li	v0,32
  401ac8:	1062000a 	beq	v1,v0,401af4 <_ftext@@Base+0xea4>
  401acc:	00000000 	nop
  401ad0:	2a520002 	slti	s2,s2,2
  401ad4:	164000c3 	bnez	s2,401de4 <_ftext@@Base+0x1194>
  401ad8:	3c040040 	lui	a0,0x40
[31m  401adc:	8f998108 	lw	t9,printf[0m
  401ae0:	2484562c 	addiu	a0,a0,22060
  401ae4:	0320f809 	jalr	t9
  401ae8:	3405fff9 	li	a1,0xfff9
  401aec:	00008021 	move	s0,zero
  401af0:	8fbc0018 	lw	gp,24(sp)
  401af4:	8e926b10 	lw	s2,27408(s4)
  401af8:	2a520002 	slti	s2,s2,2
  401afc:	1640000c 	bnez	s2,401b30 <_ftext@@Base+0xee0>
  401b00:	00000000 	nop
  401b04:	3c020fff 	lui	v0,0xfff
  401b08:	3c040040 	lui	a0,0x40
  401b0c:	02002821 	move	a1,s0
[31m  401b10:	8f998108 	lw	t9,printf[0m
  401b14:	3442fff0 	ori	v0,v0,0xfff0
  401b18:	24845650 	addiu	a0,a0,22096
--
  401cd0:	a8450000 	swl	a1,0(v0)
  401cd4:	b8450003 	swr	a1,3(v0)
  401cd8:	a8440004 	swl	a0,4(v0)
  401cdc:	8c650008 	lw	a1,8(v1)
  401ce0:	b8440007 	swr	a0,7(v0)
  401ce4:	a8450008 	swl	a1,8(v0)
  401ce8:	8c64000c 	lw	a0,12(v1)
  401cec:	24630010 	addiu	v1,v1,16
  401cf0:	b845000b 	swr	a1,11(v0)
  401cf4:	a844000c 	swl	a0,12(v0)
  401cf8:	b844000f 	swr	a0,15(v0)
  401cfc:	1466fff2 	bne	v1,a2,401cc8 <_ftext@@Base+0x1078>
  401d00:	24420010 	addiu	v0,v0,16
  401d04:	240255aa 	li	v0,21930
  401d08:	1000fcfe 	b	401104 <_ftext@@Base+0x4b4>
  401d0c:	a60201fe 	sh	v0,510(s0)
  401d10:	32f700ff 	andi	s7,s7,0xff
  401d14:	8cc26b0c 	lw	v0,27404(a2)
  401d18:	1040fd61 	beqz	v0,4012a0 <_ftext@@Base+0x650>
  401d1c:	a217000d 	sb	s7,13(s0)
  401d20:	8e8a6b10 	lw	t2,27408(s4)
  401d24:	8eb1697c 	lw	s1,27004(s5)
  401d28:	294a0002 	slti	t2,t2,2
  401d2c:	1540fd6a 	bnez	t2,4012d8 <_ftext@@Base+0x688>
  401d30:	3c070041 	lui	a3,0x41
[31m  401d34:	8f998108 	lw	t9,printf[0m
  401d38:	3c040040 	lui	a0,0x40
  401d3c:	02202821 	move	a1,s1
--
  401df0:	2484559c 	addiu	a0,a0,21916
  401df4:	0320f809 	jalr	t9
  401df8:	afa00038 	sw	zero,56(sp)
  401dfc:	8e926b10 	lw	s2,27408(s4)
  401e00:	8fbc0018 	lw	gp,24(sp)
  401e04:	1000fe7e 	b	401800 <_ftext@@Base+0xbb0>
  401e08:	2a570002 	slti	s7,s2,2
  401e0c:	8ec56af0 	lw	a1,27376(s6)
  401e10:	02e04821 	move	t1,s7
  401e14:	8fb20048 	lw	s2,72(sp)
  401e18:	0200b821 	move	s7,s0
  401e1c:	8fb50030 	lw	s5,48(sp)
  401e20:	8fb00020 	lw	s0,32(sp)
  401e24:	14a00015 	bnez	a1,401e7c <_ftext@@Base+0x122c>
  401e28:	24020010 	li	v0,16
  401e2c:	8fa30034 	lw	v1,52(sp)
  401e30:	8fa50038 	lw	a1,56(sp)
  401e34:	8e826b10 	lw	v0,27408(s4)
  401e38:	00a3202b 	sltu	a0,a1,v1
  401e3c:	2405000c 	li	a1,12
  401e40:	24030010 	li	v1,16
  401e44:	0064280b 	0x64280b
  401e48:	28420002 	slti	v0,v0,2
  401e4c:	1440000a 	bnez	v0,401e78 <_ftext@@Base+0x1228>
  401e50:	aec56af0 	sw	a1,27376(s6)
[31m  401e54:	8f998108 	lw	t9,printf[0m
  401e58:	3c040040 	lui	a0,0x40
  401e5c:	afa9005c 	sw	t1,92(sp)
--
  402174:	8e826b10 	lw	v0,27408(s4)
  402178:	10400092 	beqz	v0,4023c4 <_ftext@@Base+0x1774>
  40217c:	3c020041 	lui	v0,0x41
  402180:	9602001a 	lhu	v0,26(s0)
  402184:	3c030041 	lui	v1,0x41
  402188:	8c656b14 	lw	a1,27412(v1)
  40218c:	00023200 	sll	a2,v0,0x8
  402190:	30c6ffff 	andi	a2,a2,0xffff
  402194:	00021202 	srl	v0,v0,0x8
  402198:	00c23025 	or	a2,a2,v0
  40219c:	24020001 	li	v0,1
  4021a0:	10c2021a 	beq	a2,v0,402a0c <_ftext@@Base+0x1dbc>
  4021a4:	3c070040 	lui	a3,0x40
  4021a8:	3c070040 	lui	a3,0x40
  4021ac:	24e763a4 	addiu	a3,a3,25508
  4021b0:	96020018 	lhu	v0,24(s0)
  4021b4:	00021a00 	sll	v1,v0,0x8
  4021b8:	3063ffff 	andi	v1,v1,0xffff
  4021bc:	00021202 	srl	v0,v0,0x8
  4021c0:	00621825 	or	v1,v1,v0
  4021c4:	24020001 	li	v0,1
  4021c8:	1062021e 	beq	v1,v0,402a44 <_ftext@@Base+0x1df4>
  4021cc:	3c020040 	lui	v0,0x40
  4021d0:	3c020040 	lui	v0,0x40
  4021d4:	244263a4 	addiu	v0,v0,25508
[31m  4021d8:	8f998108 	lw	t9,printf[0m
  4021dc:	3c040040 	lui	a0,0x40
  4021e0:	afa30010 	sw	v1,16(sp)
  4021e4:	24845bbc 	addiu	a0,a0,23484
  4021e8:	0320f809 	jalr	t9
  4021ec:	afa20014 	sw	v0,20(sp)
  4021f0:	3c040040 	lui	a0,0x40
  4021f4:	8fbc0018 	lw	gp,24(sp)
  4021f8:	8ea5697c 	lw	a1,27004(s5)
[31m  4021fc:	8f998108 	lw	t9,printf[0m
  402200:	0320f809 	jalr	t9
  402204:	24845bec 	addiu	a0,a0,23532
  402208:	3c040040 	lui	a0,0x40
  40220c:	02403021 	move	a2,s2
  402210:	8fbc0018 	lw	gp,24(sp)
  402214:	92050015 	lbu	a1,21(s0)
[31m  402218:	8f998108 	lw	t9,printf[0m
  40221c:	0320f809 	jalr	t9
  402220:	24845c08 	addiu	a0,a0,23560
  402224:	24020001 	li	v0,1
  402228:	92050010 	lbu	a1,16(s0)
  40222c:	8fbc0018 	lw	gp,24(sp)
  402230:	8ec66af0 	lw	a2,27376(s6)
  402234:	10a20201 	beq	a1,v0,402a3c <_ftext@@Base+0x1dec>
  402238:	3c070040 	lui	a3,0x40
  40223c:	3c070040 	lui	a3,0x40
  402240:	24e763a4 	addiu	a3,a3,25508
  402244:	9203000d 	lbu	v1,13(s0)
  402248:	24020001 	li	v0,1
  40224c:	106201f9 	beq	v1,v0,402a34 <_ftext@@Base+0x1de4>
  402250:	3c020040 	lui	v0,0x40
  402254:	3c020040 	lui	v0,0x40
  402258:	244263a4 	addiu	v0,v0,25508
[31m  40225c:	8f998108 	lw	t9,printf[0m
  402260:	3c040040 	lui	a0,0x40
  402264:	afa30010 	sw	v1,16(sp)
  402268:	24845c3c 	addiu	a0,a0,23612
  40226c:	0320f809 	jalr	t9
  402270:	afa20014 	sw	v0,20(sp)
  402274:	24020001 	li	v0,1
  402278:	8fa30024 	lw	v1,36(sp)
  40227c:	8fbc0018 	lw	gp,24(sp)
  402280:	106201ea 	beq	v1,v0,402a2c <_ftext@@Base+0x1ddc>
  402284:	3c060040 	lui	a2,0x40
  402288:	3c060040 	lui	a2,0x40
  40228c:	24c663a4 	addiu	a2,a2,25508
  402290:	24020001 	li	v0,1
  402294:	12e201f1 	beq	s7,v0,402a5c <_ftext@@Base+0x1e0c>
  402298:	3c020040 	lui	v0,0x40
  40229c:	3c020040 	lui	v0,0x40
  4022a0:	244263a4 	addiu	v0,v0,25508
[31m  4022a4:	8f998108 	lw	t9,printf[0m
  4022a8:	3c040040 	lui	a0,0x40
  4022ac:	02e03821 	move	a3,s7
  4022b0:	8fa50024 	lw	a1,36(sp)
  4022b4:	24845c7c 	addiu	a0,a0,23676
  4022b8:	0320f809 	jalr	t9
  4022bc:	afa20010 	sw	v0,16(sp)
  4022c0:	3c040041 	lui	a0,0x41
  4022c4:	8c866b04 	lw	a2,27396(a0)
  4022c8:	24020001 	li	v0,1
  4022cc:	8fbc0018 	lw	gp,24(sp)
  4022d0:	10c201de 	beq	a2,v0,402a4c <_ftext@@Base+0x1dfc>
  4022d4:	3c050040 	lui	a1,0x40
  4022d8:	3c050040 	lui	a1,0x40
  4022dc:	3c070040 	lui	a3,0x40
  4022e0:	24a55cb4 	addiu	a1,a1,23732
  4022e4:	24e763a4 	addiu	a3,a3,25508
[31m  4022e8:	8f998108 	lw	t9,printf[0m
  4022ec:	3c040040 	lui	a0,0x40
  4022f0:	0320f809 	jalr	t9
  4022f4:	24845cbc 	addiu	a0,a0,23740
  4022f8:	24020020 	li	v0,32
  4022fc:	8ec36af0 	lw	v1,27376(s6)
  402300:	8fbc0018 	lw	gp,24(sp)
  402304:	10620012 	beq	v1,v0,402350 <_ftext@@Base+0x1700>
  402308:	3c040040 	lui	a0,0x40
  40230c:	92050012 	lbu	a1,18(s0)
  402310:	92020011 	lbu	v0,17(s0)
  402314:	24845cdc 	addiu	a0,a0,23772
  402318:	8ea3697c 	lw	v1,27004(s5)
  40231c:	00052a00 	sll	a1,a1,0x8
  402320:	00a22821 	addu	a1,a1,v0
  402324:	2466ffff 	addiu	a2,v1,-1
  402328:	00051140 	sll	v0,a1,0x5
  40232c:	00c21021 	addu	v0,a2,v0
  402330:	0043001a 	div	zero,v0,v1
  402334:	14600002 	bnez	v1,402340 <_ftext@@Base+0x16f0>
  402338:	00000000 	nop
  40233c:	0007000d 	break	0x7
[31m  402340:	8f998108 	lw	t9,printf[0m
  402344:	0320f809 	jalr	t9
  402348:	00003012 	mflo	a2
  40234c:	8fbc0018 	lw	gp,24(sp)
  402350:	3c030041 	lui	v1,0x41
  402354:	8c626ae0 	lw	v0,27360(v1)
  402358:	144001a3 	bnez	v0,4029e8 <_ftext@@Base+0x1d98>
  40235c:	00000000 	nop
  402360:	2405ffff 	li	a1,-1
  402364:	8fa40054 	lw	a0,84(sp)
  402368:	3c110041 	lui	s1,0x41
[31m  40236c:	8f998108 	lw	t9,printf[0m
  402370:	8c82ab2c 	lw	v0,-21716(a0)
  402374:	3c040040 	lui	a0,0x40
  402378:	24845d14 	addiu	a0,a0,23828
  40237c:	0320f809 	jalr	t9
  402380:	00a22824 	and	a1,a1,v0
  402384:	3c050040 	lui	a1,0x40
  402388:	8fbc0018 	lw	gp,24(sp)
  40238c:	24a55d2c 	addiu	a1,a1,23852
  402390:	8f998068 	lw	t9,-32664(gp)
  402394:	0320f809 	jalr	t9
  402398:	26246970 	addiu	a0,s1,26992
  40239c:	8fbc0018 	lw	gp,24(sp)
  4023a0:	10400194 	beqz	v0,4029f4 <_ftext@@Base+0x1da4>
  4023a4:	3c040040 	lui	a0,0x40
[31m  4023a8:	8f998108 	lw	t9,printf[0m
  4023ac:	3c040040 	lui	a0,0x40
  4023b0:	24845d38 	addiu	a0,a0,23864
--
  402584:	00821024 	and	v0,a0,v0
  402588:	00621025 	or	v0,v1,v0
  40258c:	1000fed6 	b	4020e8 <_ftext@@Base+0x1498>
  402590:	ae020020 	sw	v0,32(s0)
  402594:	3c110041 	lui	s1,0x41
  402598:	3c020200 	lui	v0,0x200
  40259c:	8e256ae4 	lw	a1,27364(s1)
  4025a0:	ae02002c 	sw	v0,44(s0)
  4025a4:	24020100 	li	v0,256
  4025a8:	a6020030 	sh	v0,48(s0)
  4025ac:	a6000028 	sh	zero,40(s0)
  4025b0:	a200002a 	sb	zero,42(s0)
  4025b4:	14a000f3 	bnez	a1,402984 <_ftext@@Base+0x1d34>
  4025b8:	a200002b 	sb	zero,43(s0)
  4025bc:	3c080041 	lui	t0,0x41
  4025c0:	8d026b04 	lw	v0,27396(t0)
  4025c4:	28430007 	slti	v1,v0,7
  4025c8:	14600114 	bnez	v1,402a1c <_ftext@@Base+0x1dcc>
  4025cc:	2443ffff 	addiu	v1,v0,-1
  4025d0:	24050006 	li	a1,6
  4025d4:	ae256ae4 	sw	a1,27364(s1)
  4025d8:	8e826b10 	lw	v0,27408(s4)
  4025dc:	28420002 	slti	v0,v0,2
  4025e0:	14400006 	bnez	v0,4025fc <_ftext@@Base+0x19ac>
  4025e4:	3c040040 	lui	a0,0x40
[31m  4025e8:	8f998108 	lw	t9,printf[0m
  4025ec:	0320f809 	jalr	t9
  4025f0:	24845a70 	addiu	a0,a0,23152
--
  402c88:	00000000 	nop
  402c8c:	8fbf001c 	lw	ra,28(sp)
  402c90:	8fb00018 	lw	s0,24(sp)
  402c94:	03e00008 	jr	ra
  402c98:	27bd0020 	addiu	sp,sp,32
  402c9c:	8c83ab44 	lw	v1,-21692(a0)
  402ca0:	8e026b24 	lw	v0,27428(s0)
  402ca4:	0043102b 	sltu	v0,v0,v1
  402ca8:	1040fff8 	beqz	v0,402c8c <_ftext@@Base+0x203c>
  402cac:	00000000 	nop
  402cb0:	8f9980a4 	lw	t9,-32604(gp)
  402cb4:	3c050040 	lui	a1,0x40
  402cb8:	24a52c50 	addiu	a1,a1,11344
  402cbc:	0320f809 	jalr	t9
  402cc0:	2404000e 	li	a0,14
  402cc4:	8fbc0010 	lw	gp,16(sp)
  402cc8:	8f9980c4 	lw	t9,-32572(gp)
  402ccc:	0320f809 	jalr	t9
  402cd0:	24040005 	li	a0,5
  402cd4:	8e076b24 	lw	a3,27428(s0)
  402cd8:	8e066b20 	lw	a2,27424(s0)
  402cdc:	8fbc0010 	lw	gp,16(sp)
  402ce0:	00c71025 	or	v0,a2,a3
  402ce4:	1040ffe9 	beqz	v0,402c8c <_ftext@@Base+0x203c>
  402ce8:	00000000 	nop
[31m  402cec:	8f998108 	lw	t9,printf[0m
  402cf0:	3c040040 	lui	a0,0x40
  402cf4:	0320f809 	jalr	t9
--
  402f58:	00a01021 	move	v0,a1
  402f5c:	24e50001 	addiu	a1,a3,1
  402f60:	8e84ab40 	lw	a0,-21696(s4)
  402f64:	aec56b28 	sw	a1,27432(s6)
  402f68:	0044282b 	sltu	a1,v0,a0
  402f6c:	8fbc0018 	lw	gp,24(sp)
  402f70:	ae026b20 	sw	v0,27424(s0)
  402f74:	8e91ab44 	lw	s1,-21692(s4)
  402f78:	14a0ffaa 	bnez	a1,402e24 <_ftext@@Base+0x21d4>
  402f7c:	24060001 	li	a2,1
  402f80:	14820003 	bne	a0,v0,402f90 <_ftext@@Base+0x2340>
  402f84:	0071282b 	sltu	a1,v1,s1
  402f88:	14a0ffa7 	bnez	a1,402e28 <_ftext@@Base+0x21d8>
  402f8c:	00c33821 	addu	a3,a2,v1
  402f90:	3c030041 	lui	v1,0x41
  402f94:	8c626b10 	lw	v0,27408(v1)
  402f98:	14400053 	bnez	v0,4030e8 <_ftext@@Base+0x2498>
  402f9c:	00000000 	nop
  402fa0:	3c020041 	lui	v0,0x41
  402fa4:	8c456b28 	lw	a1,27432(v0)
  402fa8:	10a00023 	beqz	a1,403038 <_ftext@@Base+0x23e8>
  402fac:	28a20002 	slti	v0,a1,2
  402fb0:	14400053 	bnez	v0,403100 <_ftext@@Base+0x24b0>
  402fb4:	3c060040 	lui	a2,0x40
  402fb8:	3c040040 	lui	a0,0x40
[31m  402fbc:	8f998108 	lw	t9,printf[0m
  402fc0:	24c663a4 	addiu	a2,a2,25508
  402fc4:	8fbf004c 	lw	ra,76(sp)
--
  403004:	afa30020 	sw	v1,32(sp)
  403008:	0320f809 	jalr	t9
  40300c:	24845e84 	addiu	a0,a0,24196
  403010:	8fa30020 	lw	v1,32(sp)
  403014:	8fbc0018 	lw	gp,24(sp)
  403018:	00033a83 	sra	a3,v1,0xa
  40301c:	00e09821 	move	s3,a3
  403020:	1000ffac 	b	402ed4 <_ftext@@Base+0x2284>
  403024:	000397c3 	sra	s2,v1,0x1f
  403028:	00003821 	move	a3,zero
  40302c:	00009821 	move	s3,zero
  403030:	1000ffa8 	b	402ed4 <_ftext@@Base+0x2284>
  403034:	00009021 	move	s2,zero
  403038:	8fbf004c 	lw	ra,76(sp)
  40303c:	8fbe0048 	lw	s8,72(sp)
  403040:	8fb70044 	lw	s7,68(sp)
  403044:	8fb60040 	lw	s6,64(sp)
  403048:	8fb5003c 	lw	s5,60(sp)
  40304c:	8fb40038 	lw	s4,56(sp)
  403050:	8fb30034 	lw	s3,52(sp)
  403054:	8fb20030 	lw	s2,48(sp)
  403058:	8fb1002c 	lw	s1,44(sp)
  40305c:	8fb00028 	lw	s0,40(sp)
  403060:	03e00008 	jr	ra
  403064:	27bd0050 	addiu	sp,sp,80
[31m  403068:	8f998108 	lw	t9,printf[0m
  40306c:	3c040040 	lui	a0,0x40
  403070:	0320f809 	jalr	t9
--
  4030a4:	8fbc0018 	lw	gp,24(sp)
  4030a8:	1040002d 	beqz	v0,403160 <_ftext@@Base+0x2510>
  4030ac:	ae046b20 	sw	a0,27424(s0)
  4030b0:	8f9980a4 	lw	t9,-32604(gp)
  4030b4:	3c050040 	lui	a1,0x40
  4030b8:	24a52c50 	addiu	a1,a1,11344
  4030bc:	0320f809 	jalr	t9
  4030c0:	2404000e 	li	a0,14
  4030c4:	8fbc0018 	lw	gp,24(sp)
  4030c8:	8f9980c4 	lw	t9,-32572(gp)
  4030cc:	0320f809 	jalr	t9
  4030d0:	24040005 	li	a0,5
  4030d4:	8fbc0018 	lw	gp,24(sp)
  4030d8:	8e036b24 	lw	v1,27428(s0)
  4030dc:	8e026b20 	lw	v0,27424(s0)
  4030e0:	1000ff45 	b	402df8 <_ftext@@Base+0x21a8>
  4030e4:	3c170041 	lui	s7,0x41
  4030e8:	8f998114 	lw	t9,-32492(gp)
  4030ec:	0320f809 	jalr	t9
  4030f0:	2404000a 	li	a0,10
  4030f4:	8fbc0018 	lw	gp,24(sp)
  4030f8:	1000ffaa 	b	402fa4 <_ftext@@Base+0x2354>
  4030fc:	3c020041 	lui	v0,0x41
  403100:	3c060040 	lui	a2,0x40
  403104:	3c040040 	lui	a0,0x40
[31m  403108:	8f998108 	lw	t9,printf[0m
  40310c:	24c65518 	addiu	a2,a2,21784
  403110:	8fbf004c 	lw	ra,76(sp)
--
  403198:	3c1c0042 	lui	gp,0x42
  40319c:	279ce9a0 	addiu	gp,gp,-5728
  4031a0:	afbc0018 	sw	gp,24(sp)
  4031a4:	00808021 	move	s0,a0
  4031a8:	14800234 	bnez	a0,403a7c <main@@Base+0x910>
  4031ac:	00a08821 	move	s1,a1
  4031b0:	3c020041 	lui	v0,0x41
  4031b4:	afa200f8 	sw	v0,248(sp)
  4031b8:	3c130042 	lui	s3,0x42
  4031bc:	00002821 	move	a1,zero
  4031c0:	8f998084 	lw	t9,-32636(gp)
  4031c4:	2664ab34 	addiu	a0,s3,-21708
  4031c8:	3c160040 	lui	s6,0x40
  4031cc:	0320f809 	jalr	t9
  4031d0:	3c150041 	lui	s5,0x41
  4031d4:	2663ab34 	addiu	v1,s3,-21708
  4031d8:	8e62ab34 	lw	v0,-21708(s3)
  4031dc:	3c060042 	lui	a2,0x42
  4031e0:	8fbc0018 	lw	gp,24(sp)
  4031e4:	3c040040 	lui	a0,0x40
  4031e8:	8c630004 	lw	v1,4(v1)
  4031ec:	00022d00 	sll	a1,v0,0x14
  4031f0:	24845ef8 	addiu	a0,a0,24312
  4031f4:	8fa800f8 	lw	t0,248(sp)
  4031f8:	3c170041 	lui	s7,0x41
[31m  4031fc:	8f998108 	lw	t9,printf[0m
  403200:	00a31825 	or	v1,a1,v1
  403204:	3c130041 	lui	s3,0x41
--
  403214:	00009021 	move	s2,zero
  403218:	afa000f4 	sw	zero,244(sp)
  40321c:	3c140040 	lui	s4,0x40
  403220:	ac43ab2c 	sw	v1,-21716(v0)
  403224:	0320f809 	jalr	t9
  403228:	26d66650 	addiu	s6,s6,26192
  40322c:	26b5697b 	addiu	s5,s5,27003
  403230:	8fbc0018 	lw	gp,24(sp)
  403234:	26f767a8 	addiu	s7,s7,26536
  403238:	26736967 	addiu	s3,s3,26983
  40323c:	241e0001 	li	s8,1
  403240:	8f998080 	lw	t9,-32640(gp)
  403244:	02002021 	move	a0,s0
  403248:	26866080 	addiu	a2,s4,24704
  40324c:	0320f809 	jalr	t9
  403250:	02202821 	move	a1,s1
  403254:	2403ffff 	li	v1,-1
  403258:	8fbc0018 	lw	gp,24(sp)
  40325c:	10430016 	beq	v0,v1,4032b8 <main@@Base+0x14c>
  403260:	2443ffbf 	addiu	v1,v0,-65
  403264:	2c640036 	sltiu	a0,v1,54
  403268:	1480003f 	bnez	a0,403368 <main@@Base+0x1fc>
  40326c:	00031880 	sll	v1,v1,0x2
  403270:	3c040040 	lui	a0,0x40
  403274:	00402821 	move	a1,v0
[31m  403278:	8f998108 	lw	t9,printf[0m
  40327c:	2484606c 	addiu	a0,a0,24684
  403280:	0320f809 	jalr	t9
--
  4033a8:	3c040041 	lui	a0,0x41
  4033ac:	ac826b08 	sw	v0,27400(a0)
  4033b0:	8fa40020 	lw	a0,32(sp)
  4033b4:	8fbc0018 	lw	gp,24(sp)
  4033b8:	80840000 	lb	a0,0(a0)
  4033bc:	8fa3010c 	lw	v1,268(sp)
  4033c0:	14800011 	bnez	a0,403408 <main@@Base+0x29c>
  4033c4:	3c040040 	lui	a0,0x40
  4033c8:	2444ffff 	addiu	a0,v0,-1
  4033cc:	2c840002 	sltiu	a0,a0,2
  4033d0:	1480ff9b 	bnez	a0,403240 <main@@Base+0xd4>
  4033d4:	24040004 	li	a0,4
  4033d8:	1044ff99 	beq	v0,a0,403240 <main@@Base+0xd4>
  4033dc:	24040008 	li	a0,8
  4033e0:	1044ff97 	beq	v0,a0,403240 <main@@Base+0xd4>
  4033e4:	24040010 	li	a0,16
  4033e8:	1044ff95 	beq	v0,a0,403240 <main@@Base+0xd4>
  4033ec:	24040020 	li	a0,32
  4033f0:	1044ff93 	beq	v0,a0,403240 <main@@Base+0xd4>
  4033f4:	24040040 	li	a0,64
  4033f8:	1044ff91 	beq	v0,a0,403240 <main@@Base+0xd4>
  4033fc:	24040080 	li	a0,128
  403400:	1044ff8f 	beq	v0,a0,403240 <main@@Base+0xd4>
  403404:	3c040040 	lui	a0,0x40
  403408:	8c650000 	lw	a1,0(v1)
[31m  40340c:	8f998108 	lw	t9,printf[0m
  403410:	1000ff9b 	b	403280 <main@@Base+0x114>
  403414:	24846024 	addiu	a0,a0,24612
  403418:	8f8380e0 	lw	v1,-32544(gp)
  40341c:	27a50020 	addiu	a1,sp,32
  403420:	8f9980c0 	lw	t9,-32576(gp)
  403424:	00003021 	move	a2,zero
  403428:	8c640000 	lw	a0,0(v1)
  40342c:	0320f809 	jalr	t9
  403430:	afa3010c 	sw	v1,268(sp)
  403434:	3c040041 	lui	a0,0x41
  403438:	ac826b00 	sw	v0,27392(a0)
  40343c:	8fa40020 	lw	a0,32(sp)
  403440:	8fbc0018 	lw	gp,24(sp)
  403444:	80840000 	lb	a0,0(a0)
  403448:	8fa3010c 	lw	v1,268(sp)
  40344c:	14800008 	bnez	a0,403470 <main@@Base+0x304>
  403450:	00000000 	nop
  403454:	28440010 	slti	a0,v0,16
  403458:	14800005 	bnez	a0,403470 <main@@Base+0x304>
  40345c:	00000000 	nop
  403460:	34048001 	li	a0,0x8001
  403464:	0044102a 	slt	v0,v0,a0
  403468:	1440ff75 	bnez	v0,403240 <main@@Base+0xd4>
  40346c:	00000000 	nop
  403470:	8c650000 	lw	a1,0(v1)
  403474:	3c040040 	lui	a0,0x40
[31m  403478:	8f998108 	lw	t9,printf[0m
  40347c:	0320f809 	jalr	t9
  403480:	24845fd0 	addiu	a0,a0,24528
--
  40362c:	1040ff04 	beqz	v0,403240 <main@@Base+0xd4>
  403630:	3c040040 	lui	a0,0x40
  403634:	8f9980f0 	lw	t9,-32528(gp)
  403638:	0320f809 	jalr	t9
  40363c:	24845f94 	addiu	a0,a0,24468
  403640:	1000ff11 	b	403288 <main@@Base+0x11c>
  403644:	00000000 	nop
  403648:	8f8380e0 	lw	v1,-32544(gp)
  40364c:	27a50020 	addiu	a1,sp,32
  403650:	8f9980c0 	lw	t9,-32576(gp)
  403654:	00003021 	move	a2,zero
  403658:	8c640000 	lw	a0,0(v1)
  40365c:	0320f809 	jalr	t9
  403660:	afa3010c 	sw	v1,268(sp)
  403664:	3c040041 	lui	a0,0x41
  403668:	ac826af8 	sw	v0,27384(a0)
  40366c:	8fa40020 	lw	a0,32(sp)
  403670:	8fbc0018 	lw	gp,24(sp)
  403674:	80840000 	lb	a0,0(a0)
  403678:	8fa3010c 	lw	v1,268(sp)
  40367c:	14800003 	bnez	a0,40368c <main@@Base+0x520>
  403680:	3c040040 	lui	a0,0x40
  403684:	0441feee 	bgez	v0,403240 <main@@Base+0xd4>
  403688:	00000000 	nop
  40368c:	8c650000 	lw	a1,0(v1)
[31m  403690:	8f998108 	lw	t9,printf[0m
  403694:	1000fefa 	b	403280 <main@@Base+0x114>
  403698:	24845f70 	addiu	a0,a0,24432
--
  4036b0:	0320f809 	jalr	t9
  4036b4:	afa3010c 	sw	v1,268(sp)
  4036b8:	3c040041 	lui	a0,0x41
  4036bc:	ac82697c 	sw	v0,27004(a0)
  4036c0:	8fa40020 	lw	a0,32(sp)
  4036c4:	8fbc0018 	lw	gp,24(sp)
  4036c8:	80840000 	lb	a0,0(a0)
  4036cc:	8fa3010c 	lw	v1,268(sp)
  4036d0:	14800010 	bnez	a0,403714 <main@@Base+0x5a8>
  4036d4:	00000000 	nop
  4036d8:	24040200 	li	a0,512
  4036dc:	10440015 	beq	v0,a0,403734 <main@@Base+0x5c8>
  4036e0:	24040400 	li	a0,1024
  4036e4:	10440013 	beq	v0,a0,403734 <main@@Base+0x5c8>
  4036e8:	24040800 	li	a0,2048
  4036ec:	10440011 	beq	v0,a0,403734 <main@@Base+0x5c8>
  4036f0:	24041000 	li	a0,4096
  4036f4:	1044000f 	beq	v0,a0,403734 <main@@Base+0x5c8>
  4036f8:	24042000 	li	a0,8192
  4036fc:	1044000d 	beq	v0,a0,403734 <main@@Base+0x5c8>
  403700:	24044000 	li	a0,16384
  403704:	1044000b 	beq	v0,a0,403734 <main@@Base+0x5c8>
  403708:	34048000 	li	a0,0x8000
  40370c:	1044000a 	beq	v0,a0,403738 <main@@Base+0x5cc>
  403710:	3c060041 	lui	a2,0x41
[31m  403714:	8f998108 	lw	t9,printf[0m
  403718:	3c040040 	lui	a0,0x40
  40371c:	8c650000 	lw	a1,0(v1)
--
  403730:	8fbc0018 	lw	gp,24(sp)
  403734:	3c060041 	lui	a2,0x41
  403738:	1000fec1 	b	403240 <main@@Base+0xd4>
  40373c:	acde6b0c 	sw	s8,27404(a2)
  403740:	8f8380e0 	lw	v1,-32544(gp)
  403744:	27a50020 	addiu	a1,sp,32
  403748:	8f9980c0 	lw	t9,-32576(gp)
  40374c:	00003021 	move	a2,zero
  403750:	8c640000 	lw	a0,0(v1)
  403754:	0320f809 	jalr	t9
  403758:	afa3010c 	sw	v1,268(sp)
  40375c:	3c040041 	lui	a0,0x41
  403760:	ac82696c 	sw	v0,26988(a0)
  403764:	8fa40020 	lw	a0,32(sp)
  403768:	8fbc0018 	lw	gp,24(sp)
  40376c:	80840000 	lb	a0,0(a0)
  403770:	8fa3010c 	lw	v1,268(sp)
  403774:	14800005 	bnez	a0,40378c <main@@Base+0x620>
  403778:	00000000 	nop
  40377c:	18400003 	blez	v0,40378c <main@@Base+0x620>
  403780:	28420005 	slti	v0,v0,5
  403784:	1440feae 	bnez	v0,403240 <main@@Base+0xd4>
  403788:	00000000 	nop
  40378c:	3c040040 	lui	a0,0x40
  403790:	8c650000 	lw	a1,0(v1)
[31m  403794:	8f998108 	lw	t9,printf[0m
  403798:	1000feb9 	b	403280 <main@@Base+0x114>
  40379c:	24845f40 	addiu	a0,a0,24384
--
  4037d0:	3c020041 	lui	v0,0x41
  4037d4:	1000fe9a 	b	403240 <main@@Base+0xd4>
  4037d8:	ac5e6afc 	sw	s8,27388(v0)
  4037dc:	8f8380e0 	lw	v1,-32544(gp)
  4037e0:	27a50020 	addiu	a1,sp,32
  4037e4:	8f9980c0 	lw	t9,-32576(gp)
  4037e8:	00003021 	move	a2,zero
  4037ec:	8c640000 	lw	a0,0(v1)
  4037f0:	0320f809 	jalr	t9
  4037f4:	afa3010c 	sw	v1,268(sp)
  4037f8:	3c040041 	lui	a0,0x41
  4037fc:	ac826af0 	sw	v0,27376(a0)
  403800:	8fa40020 	lw	a0,32(sp)
  403804:	8fbc0018 	lw	gp,24(sp)
  403808:	80840000 	lb	a0,0(a0)
  40380c:	8fa3010c 	lw	v1,268(sp)
  403810:	14800008 	bnez	a0,403834 <main@@Base+0x6c8>
  403814:	00000000 	nop
  403818:	2404000c 	li	a0,12
  40381c:	1044000d 	beq	v0,a0,403854 <main@@Base+0x6e8>
  403820:	24040010 	li	a0,16
  403824:	1044000b 	beq	v0,a0,403854 <main@@Base+0x6e8>
  403828:	24040020 	li	a0,32
  40382c:	1044000a 	beq	v0,a0,403858 <main@@Base+0x6ec>
  403830:	3c020041 	lui	v0,0x41
[31m  403834:	8f998108 	lw	t9,printf[0m
  403838:	3c040040 	lui	a0,0x40
  40383c:	8c650000 	lw	a1,0(v1)
--
  403854:	3c020041 	lui	v0,0x41
  403858:	1000fe79 	b	403240 <main@@Base+0xd4>
  40385c:	ac5e6af4 	sw	s8,27380(v0)
  403860:	8f8380e0 	lw	v1,-32544(gp)
  403864:	27a50020 	addiu	a1,sp,32
  403868:	8f9980c0 	lw	t9,-32576(gp)
  40386c:	00003021 	move	a2,zero
  403870:	8c640000 	lw	a0,0(v1)
  403874:	0320f809 	jalr	t9
  403878:	afa3010c 	sw	v1,268(sp)
  40387c:	3c040041 	lui	a0,0x41
  403880:	ac826b04 	sw	v0,27396(a0)
  403884:	8fa40020 	lw	a0,32(sp)
  403888:	8fbc0018 	lw	gp,24(sp)
  40388c:	80840000 	lb	a0,0(a0)
  403890:	8fa3010c 	lw	v1,268(sp)
  403894:	14800007 	bnez	a0,4038b4 <main@@Base+0x748>
  403898:	3c040040 	lui	a0,0x40
  40389c:	18400005 	blez	v0,4038b4 <main@@Base+0x748>
  4038a0:	00000000 	nop
  4038a4:	3c040001 	lui	a0,0x1
  4038a8:	0044102a 	slt	v0,v0,a0
  4038ac:	1440fe64 	bnez	v0,403240 <main@@Base+0xd4>
  4038b0:	3c040040 	lui	a0,0x40
  4038b4:	8c650000 	lw	a1,0(v1)
[31m  4038b8:	8f998108 	lw	t9,printf[0m
  4038bc:	1000fe70 	b	403280 <main@@Base+0x114>
  4038c0:	24845ffc 	addiu	a0,a0,24572
  4038c4:	8f8380e0 	lw	v1,-32544(gp)
  4038c8:	27a50020 	addiu	a1,sp,32
  4038cc:	8f9980c0 	lw	t9,-32576(gp)
  4038d0:	00003021 	move	a2,zero
  4038d4:	8c640000 	lw	a0,0(v1)
  4038d8:	0320f809 	jalr	t9
  4038dc:	afa3010c 	sw	v1,268(sp)
  4038e0:	3c040041 	lui	a0,0x41
  4038e4:	ac826ae4 	sw	v0,27364(a0)
  4038e8:	8fa40020 	lw	a0,32(sp)
  4038ec:	8fbc0018 	lw	gp,24(sp)
  4038f0:	80840000 	lb	a0,0(a0)
  4038f4:	8fa3010c 	lw	v1,268(sp)
  4038f8:	14800008 	bnez	a0,40391c <main@@Base+0x7b0>
  4038fc:	3c040040 	lui	a0,0x40
  403900:	28440002 	slti	a0,v0,2
  403904:	14800005 	bnez	a0,40391c <main@@Base+0x7b0>
  403908:	3c040040 	lui	a0,0x40
  40390c:	3c040001 	lui	a0,0x1
  403910:	0044102a 	slt	v0,v0,a0
  403914:	1440fe4a 	bnez	v0,403240 <main@@Base+0xd4>
  403918:	3c040040 	lui	a0,0x40
  40391c:	8c650000 	lw	a1,0(v1)
[31m  403920:	8f998108 	lw	t9,printf[0m
  403924:	1000fe56 	b	403280 <main@@Base+0x114>
  403928:	24845f14 	addiu	a0,a0,24340
--
  403a8c:	00402021 	move	a0,v0
  403a90:	8fa500f8 	lw	a1,248(sp)
  403a94:	8f9980bc 	lw	t9,-32580(gp)
  403a98:	aca26990 	sw	v0,27024(a1)
  403a9c:	0320f809 	jalr	t9
  403aa0:	2405002f 	li	a1,47
  403aa4:	8fbc0018 	lw	gp,24(sp)
  403aa8:	1040fdc3 	beqz	v0,4031b8 <main@@Base+0x4c>
  403aac:	24420001 	addiu	v0,v0,1
  403ab0:	8fa600f8 	lw	a2,248(sp)
  403ab4:	1000fdc0 	b	4031b8 <main@@Base+0x4c>
  403ab8:	acc26990 	sw	v0,27024(a2)
  403abc:	164000cd 	bnez	s2,403df4 <main@@Base+0xc88>
  403ac0:	3c030040 	lui	v1,0x40
  403ac4:	3c140042 	lui	s4,0x42
  403ac8:	24635518 	addiu	v1,v1,21784
  403acc:	ae97ab44 	sw	s7,-21692(s4)
  403ad0:	00601021 	move	v0,v1
  403ad4:	ae96ab40 	sw	s6,-21696(s4)
  403ad8:	afa30020 	sw	v1,32(sp)
  403adc:	80420000 	lb	v0,0(v0)
  403ae0:	1040fe19 	beqz	v0,403348 <main@@Base+0x1dc>
  403ae4:	3c150041 	lui	s5,0x41
  403ae8:	8e620000 	lw	v0,0(s3)
  403aec:	3c040040 	lui	a0,0x40
[31m  403af0:	8f998108 	lw	t9,printf[0m
  403af4:	24846134 	addiu	a0,a0,24884
  403af8:	24420001 	addiu	v0,v0,1
--
  40426c:	8fa40028 	lw	a0,40(sp)
  404270:	00042040 	sll	a0,a0,0x1
  404274:	0c100b47 	jal	402d1c <_ftext@@Base+0x20cc>
  404278:	24840001 	addiu	a0,a0,1
  40427c:	8ea26b28 	lw	v0,27432(s5)
  404280:	8fbc0018 	lw	gp,24(sp)
  404284:	24420001 	addiu	v0,v0,1
  404288:	aea26b28 	sw	v0,27432(s5)
  40428c:	8f9980e8 	lw	t9,-32536(gp)
  404290:	0320f809 	jalr	t9
  404294:	02802021 	move	a0,s4
  404298:	8fbc0018 	lw	gp,24(sp)
  40429c:	1040ffec 	beqz	v0,404250 <main@@Base+0x10e4>
  4042a0:	02e02821 	move	a1,s7
  4042a4:	8f998070 	lw	t9,-32656(gp)
  4042a8:	0320f809 	jalr	t9
  4042ac:	02802021 	move	a0,s4
  4042b0:	8ea56b28 	lw	a1,27432(s5)
  4042b4:	8fbc0018 	lw	gp,24(sp)
  4042b8:	10a0000a 	beqz	a1,4042e4 <main@@Base+0x1178>
  4042bc:	28a20002 	slti	v0,a1,2
  4042c0:	14400255 	bnez	v0,404c18 <main@@Base+0x1aac>
  4042c4:	3c060040 	lui	a2,0x40
  4042c8:	3c060040 	lui	a2,0x40
  4042cc:	24c663a4 	addiu	a2,a2,25508
[31m  4042d0:	8f998108 	lw	t9,printf[0m
  4042d4:	3c040040 	lui	a0,0x40
  4042d8:	0320f809 	jalr	t9

[0m
[[0;33m*[0m] Function [0;33mprintf[0m used [0;33m38[0m times [0;33mmkdosfs[0m

