[[0;33m*[0m] Binary protection state of [0;33mpppoe-sniff[0m
[REF] s12

  	RELRO          CANARY            NX           PIE       RPATH        RUNPATH      SYMBOLS      
  	[31mNo RELRO[0m       [31mNo Canary found[0m   [31mNX disabled[0m  [31mNo PIE[0m       [32mNo RPATH[0m     [32mNo RUNPATH[0m   [31mSymbols[0m

[0m
[[0;33m*[0m] Function [0;33mfprintf[0m tear down of [0;33mpppoe-sniff[0m

  400fd0:	8fbc0010 	lw	gp,16(sp)
  400fd4:	24a53290 	addiu	a1,a1,12944
  400fd8:	8fa60418 	lw	a2,1048(sp)
  400fdc:	8f998074 	lw	t9,-32652(gp)
  400fe0:	0320f809 	jalr	t9
  400fe4:	00403821 	move	a3,v0
  400fe8:	8fbc0010 	lw	gp,16(sp)
  400fec:	8f998114 	lw	t9,-32492(gp)
  400ff0:	0320f809 	jalr	t9
  400ff4:	02002021 	move	a0,s0
  400ff8:	8fbc0010 	lw	gp,16(sp)
  400ffc:	8f99804c 	lw	t9,-32692(gp)
  401000:	0320f809 	jalr	t9
  401004:	24040001 	li	a0,1

00401008 <usage>:
  401008:	27bdffe0 	addiu	sp,sp,-32
  40100c:	afbf001c 	sw	ra,28(sp)
  401010:	afb00018 	sw	s0,24(sp)
  401014:	3c1c0042 	lui	gp,0x42
  401018:	279cbb70 	addiu	gp,gp,-17552
  40101c:	afbc0010 	sw	gp,16(sp)
  401020:	3c050040 	lui	a1,0x40
  401024:	8f908070 	lw	s0,-32656(gp)
  401028:	00803021 	move	a2,a0
[31m  40102c:	8f9980bc 	lw	t9,fprintf[0m
  401030:	8e040000 	lw	a0,0(s0)
  401034:	0320f809 	jalr	t9
  401038:	24a532a0 	addiu	a1,a1,12960
  40103c:	3c040040 	lui	a0,0x40
  401040:	8fbc0010 	lw	gp,16(sp)
  401044:	248432b8 	addiu	a0,a0,12984
  401048:	8e070000 	lw	a3,0(s0)
  40104c:	24050001 	li	a1,1
  401050:	8f998058 	lw	t9,-32680(gp)
  401054:	0320f809 	jalr	t9
  401058:	24060009 	li	a2,9
  40105c:	3c050040 	lui	a1,0x40
  401060:	8fbc0010 	lw	gp,16(sp)
  401064:	3c060040 	lui	a2,0x40
  401068:	8e040000 	lw	a0,0(s0)
  40106c:	24a532c4 	addiu	a1,a1,12996
[31m  401070:	8f9980bc 	lw	t9,fprintf[0m
  401074:	0320f809 	jalr	t9
  401078:	24c632fc 	addiu	a2,a2,13052
  40107c:	3c040040 	lui	a0,0x40
  401080:	8fbc0010 	lw	gp,16(sp)
  401084:	24843304 	addiu	a0,a0,13060
  401088:	8e070000 	lw	a3,0(s0)
  40108c:	24050001 	li	a1,1
  401090:	8f998058 	lw	t9,-32680(gp)
  401094:	0320f809 	jalr	t9
  401098:	2406002d 	li	a2,45
  40109c:	3c050040 	lui	a1,0x40
  4010a0:	8fbc0010 	lw	gp,16(sp)
  4010a4:	3c060040 	lui	a2,0x40
  4010a8:	8e040000 	lw	a0,0(s0)
  4010ac:	24a53334 	addiu	a1,a1,13108
[31m  4010b0:	8f9980bc 	lw	t9,fprintf[0m
  4010b4:	0320f809 	jalr	t9
  4010b8:	24c6337c 	addiu	a2,a2,13180
--
  40146c:	14400005 	bnez	v0,401484 <main+0x338>
  401470:	00000000 	nop
  401474:	96630000 	lhu	v1,0(s3)
  401478:	34028863 	li	v0,0x8863
  40147c:	10620036 	beq	v1,v0,401558 <main+0x40c>
  401480:	34028864 	li	v0,0x8864
  401484:	8f998058 	lw	t9,-32680(gp)
  401488:	3c040040 	lui	a0,0x40
  40148c:	8e470000 	lw	a3,0(s2)
  401490:	24060051 	li	a2,81
  401494:	2484360c 	addiu	a0,a0,13836
  401498:	0320f809 	jalr	t9
  40149c:	24050001 	li	a1,1
  4014a0:	8e063cdc 	lw	a2,15580(s0)
  4014a4:	8fbc0010 	lw	gp,16(sp)
  4014a8:	10c00004 	beqz	a2,4014bc <main+0x370>
  4014ac:	00000000 	nop
  4014b0:	80c20000 	lb	v0,0(a2)
  4014b4:	1440001f 	bnez	v0,401534 <main+0x3e8>
  4014b8:	00000000 	nop
  4014bc:	96660000 	lhu	a2,0(s3)
  4014c0:	34028863 	li	v0,0x8863
  4014c4:	10c20016 	beq	a2,v0,401520 <main+0x3d4>
  4014c8:	34028864 	li	v0,0x8864
  4014cc:	96270000 	lhu	a3,0(s1)
[31m  4014d0:	8f9980bc 	lw	t9,fprintf[0m
  4014d4:	3c050040 	lui	a1,0x40
  4014d8:	8e440000 	lw	a0,0(s2)
  4014dc:	0320f809 	jalr	t9
  4014e0:	24a53674 	addiu	a1,a1,13940
  4014e4:	8fbf0634 	lw	ra,1588(sp)
  4014e8:	00001021 	move	v0,zero
  4014ec:	8fb70630 	lw	s7,1584(sp)
  4014f0:	8fb6062c 	lw	s6,1580(sp)
  4014f4:	8fb50628 	lw	s5,1576(sp)
  4014f8:	8fb40624 	lw	s4,1572(sp)
  4014fc:	8fb30620 	lw	s3,1568(sp)
  401500:	8fb2061c 	lw	s2,1564(sp)
  401504:	8fb10618 	lw	s1,1560(sp)
  401508:	8fb00614 	lw	s0,1556(sp)
  40150c:	03e00008 	jr	ra
  401510:	27bd0638 	addiu	sp,sp,1592
  401514:	8f918060 	lw	s1,-32672(gp)
  401518:	1000ffc7 	b	401438 <main+0x2ec>
  40151c:	00000000 	nop
  401520:	96270000 	lhu	a3,0(s1)
  401524:	14e2ffea 	bne	a3,v0,4014d0 <main+0x384>
  401528:	00000000 	nop
  40152c:	1000ffed 	b	4014e4 <main+0x398>
  401530:	00000000 	nop
  401534:	8f828070 	lw	v0,-32656(gp)
  401538:	3c050040 	lui	a1,0x40
[31m  40153c:	8f9980bc 	lw	t9,fprintf[0m
  401540:	8c440000 	lw	a0,0(v0)
  401544:	0320f809 	jalr	t9
--
  401d1c:	8f998088 	lw	t9,-32632(gp)
  401d20:	24a5383c 	addiu	a1,a1,14396
  401d24:	1000fff0 	b	401ce8 <parsePacket+0x148>
  401d28:	3046000f 	andi	a2,v0,0xf
  401d2c:	3c050040 	lui	a1,0x40
  401d30:	8f998088 	lw	t9,-32632(gp)
  401d34:	24a53858 	addiu	a1,a1,14424
  401d38:	1000ffeb 	b	401ce8 <parsePacket+0x148>
  401d3c:	3046000f 	andi	a2,v0,0xf
  401d40:	3c050040 	lui	a1,0x40
  401d44:	02203021 	move	a2,s1
  401d48:	8f998088 	lw	t9,-32632(gp)
  401d4c:	1000ffe6 	b	401ce8 <parsePacket+0x148>
  401d50:	24a53870 	addiu	a1,a1,14448

00401d54 <printErr>:
  401d54:	27bdffe0 	addiu	sp,sp,-32
  401d58:	afbf001c 	sw	ra,28(sp)
  401d5c:	afb00018 	sw	s0,24(sp)
  401d60:	3c1c0042 	lui	gp,0x42
  401d64:	279cbb70 	addiu	gp,gp,-17552
  401d68:	afbc0010 	sw	gp,16(sp)
  401d6c:	3c050040 	lui	a1,0x40
  401d70:	8f828070 	lw	v0,-32656(gp)
  401d74:	00808021 	move	s0,a0
[31m  401d78:	8f9980bc 	lw	t9,fprintf[0m
  401d7c:	00803021 	move	a2,a0
  401d80:	8c440000 	lw	a0,0(v0)
--
  401de4:	30a5ffff 	andi	a1,a1,0xffff
  401de8:	00809821 	move	s3,a0
  401dec:	00e08821 	move	s1,a3
  401df0:	10a20026 	beq	a1,v0,401e8c <pktLogErrs+0xd8>
  401df4:	30d2ffff 	andi	s2,a2,0xffff
  401df8:	24020202 	li	v0,514
  401dfc:	10a20026 	beq	a1,v0,401e98 <pktLogErrs+0xe4>
  401e00:	00000000 	nop
  401e04:	3c140040 	lui	s4,0x40
  401e08:	269438e8 	addiu	s4,s4,14568
  401e0c:	8f998088 	lw	t9,-32632(gp)
  401e10:	3c150040 	lui	s5,0x40
  401e14:	02603021 	move	a2,s3
  401e18:	26a538f8 	addiu	a1,s5,14584
  401e1c:	02803821 	move	a3,s4
  401e20:	24040003 	li	a0,3
  401e24:	afb20010 	sw	s2,16(sp)
  401e28:	8f908070 	lw	s0,-32656(gp)
  401e2c:	0320f809 	jalr	t9
  401e30:	afb10014 	sw	s1,20(sp)
  401e34:	26a538f8 	addiu	a1,s5,14584
  401e38:	02603021 	move	a2,s3
  401e3c:	8fbc0018 	lw	gp,24(sp)
  401e40:	02803821 	move	a3,s4
  401e44:	8e040000 	lw	a0,0(s0)
[31m  401e48:	8f9980bc 	lw	t9,fprintf[0m
  401e4c:	afb20010 	sw	s2,16(sp)
  401e50:	0320f809 	jalr	t9
--
  402a3c:	24020023 	li	v0,35
  402a40:	3c1e0040 	lui	s8,0x40
  402a44:	0000a821 	move	s5,zero
  402a48:	8f978108 	lw	s7,-32504(gp)
  402a4c:	27de3a2c 	addiu	s8,s8,14892
  402a50:	00008021 	move	s0,zero
  402a54:	2416000f 	li	s6,15
  402a58:	26b40010 	addiu	s4,s5,16
  402a5c:	0214102a 	slt	v0,s0,s4
  402a60:	1040001f 	beqz	v0,402ae0 <dumpHex+0x100>
  402a64:	00000000 	nop
  402a68:	8fa20018 	lw	v0,24(sp)
  402a6c:	1000000b 	b	402a9c <dumpHex+0xbc>
  402a70:	00508821 	addu	s1,v0,s0
  402a74:	92260000 	lbu	a2,0(s1)
  402a78:	03c02821 	move	a1,s8
  402a7c:	26100001 	addiu	s0,s0,1
  402a80:	0040c821 	move	t9,v0
  402a84:	0320f809 	jalr	t9
  402a88:	26310001 	addiu	s1,s1,1
  402a8c:	0214102a 	slt	v0,s0,s4
  402a90:	8fbc0010 	lw	gp,16(sp)
  402a94:	10400012 	beqz	v0,402ae0 <dumpHex+0x100>
  402a98:	00000000 	nop
  402a9c:	0213182a 	slt	v1,s0,s3
[31m  402aa0:	8f8280bc 	lw	v0,fprintf[0m
  402aa4:	24050001 	li	a1,1
  402aa8:	02402021 	move	a0,s2
--
  402cb0:	27a40040 	addiu	a0,sp,64
  402cb4:	8fbc0038 	lw	gp,56(sp)
  402cb8:	00430018 	mult	v0,v1
  402cbc:	8fa50044 	lw	a1,68(sp)
  402cc0:	000217c3 	sra	v0,v0,0x1f
  402cc4:	8f998090 	lw	t9,-32624(gp)
  402cc8:	afa50040 	sw	a1,64(sp)
  402ccc:	00001810 	mfhi	v1
  402cd0:	0003b183 	sra	s6,v1,0x6
  402cd4:	0320f809 	jalr	t9
  402cd8:	02c2b023 	subu	s6,s6,v0
  402cdc:	3c060040 	lui	a2,0x40
  402ce0:	02602021 	move	a0,s3
  402ce4:	8fbc0038 	lw	gp,56(sp)
  402ce8:	24c63a38 	addiu	a2,a2,14904
  402cec:	00403821 	move	a3,v0
  402cf0:	8f99805c 	lw	t9,-32676(gp)
  402cf4:	0320f809 	jalr	t9
  402cf8:	24050100 	li	a1,256
  402cfc:	3c050040 	lui	a1,0x40
  402d00:	02603021 	move	a2,s3
  402d04:	8fbc0038 	lw	gp,56(sp)
  402d08:	24a53a44 	addiu	a1,a1,14916
  402d0c:	02c03821 	move	a3,s6
  402d10:	afb50010 	sw	s5,16(sp)
[31m  402d14:	8f9980bc 	lw	t9,fprintf[0m
  402d18:	0320f809 	jalr	t9
  402d1c:	02202021 	move	a0,s1
  402d20:	8fbc0038 	lw	gp,56(sp)
  402d24:	8f8280c8 	lw	v0,-32568(gp)
  402d28:	94460000 	lhu	a2,0(v0)
  402d2c:	10d20072 	beq	a2,s2,402ef8 <dumpPacket+0x2c0>
  402d30:	3c050040 	lui	a1,0x40
  402d34:	8f8280a4 	lw	v0,-32604(gp)
  402d38:	94460000 	lhu	a2,0(v0)
  402d3c:	10d20056 	beq	a2,s2,402e98 <dumpPacket+0x260>
  402d40:	3c050040 	lui	a1,0x40
[31m  402d44:	8f9980bc 	lw	t9,fprintf[0m
  402d48:	3c050040 	lui	a1,0x40
  402d4c:	02403021 	move	a2,s2
--
  402d70:	10600011 	beqz	v1,402db8 <dumpPacket+0x180>
  402d74:	240300a7 	li	v1,167
  402d78:	24030007 	li	v1,7
  402d7c:	10430054 	beq	v0,v1,402ed0 <dumpPacket+0x298>
  402d80:	24030009 	li	v1,9
  402d84:	10430074 	beq	v0,v1,402f58 <dumpPacket+0x320>
  402d88:	02203821 	move	a3,s1
  402d8c:	14400011 	bnez	v0,402dd4 <dumpPacket+0x19c>
  402d90:	3c040040 	lui	a0,0x40
  402d94:	02203821 	move	a3,s1
  402d98:	8f998058 	lw	t9,-32680(gp)
  402d9c:	24843ac0 	addiu	a0,a0,15040
  402da0:	24050001 	li	a1,1
  402da4:	0320f809 	jalr	t9
  402da8:	24060005 	li	a2,5
  402dac:	8fbc0038 	lw	gp,56(sp)
  402db0:	10000008 	b	402dd4 <dumpPacket+0x19c>
  402db4:	00000000 	nop
  402db8:	1043004a 	beq	v0,v1,402ee4 <dumpPacket+0x2ac>
  402dbc:	2c4300a8 	sltiu	v1,v0,168
  402dc0:	10600054 	beqz	v1,402f14 <dumpPacket+0x2dc>
  402dc4:	240300d3 	li	v1,211
  402dc8:	24030065 	li	v1,101
  402dcc:	1043005e 	beq	v0,v1,402f48 <dumpPacket+0x310>
  402dd0:	3c040040 	lui	a0,0x40
[31m  402dd4:	8f9980bc 	lw	t9,fprintf[0m
  402dd8:	3c050040 	lui	a1,0x40
  402ddc:	02803821 	move	a3,s4
  402de0:	96060010 	lhu	a2,16(s0)
  402de4:	24a53ac8 	addiu	a1,a1,15048
  402de8:	0320f809 	jalr	t9
  402dec:	02202021 	move	a0,s1
  402df0:	3c050040 	lui	a1,0x40
  402df4:	02202021 	move	a0,s1
  402df8:	8fbc0038 	lw	gp,56(sp)
  402dfc:	24a53ae0 	addiu	a1,a1,15072
  402e00:	920f0008 	lbu	t7,8(s0)
  402e04:	920e0009 	lbu	t6,9(s0)
  402e08:	920d000a 	lbu	t5,10(s0)
  402e0c:	920c000b 	lbu	t4,11(s0)
  402e10:	920b0000 	lbu	t3,0(s0)
  402e14:	920a0001 	lbu	t2,1(s0)
  402e18:	92090002 	lbu	t1,2(s0)
  402e1c:	92080003 	lbu	t0,3(s0)
  402e20:	92030004 	lbu	v1,4(s0)
  402e24:	92020005 	lbu	v0,5(s0)
  402e28:	92060006 	lbu	a2,6(s0)
  402e2c:	92070007 	lbu	a3,7(s0)
[31m  402e30:	8f9980bc 	lw	t9,fprintf[0m
  402e34:	afaf0010 	sw	t7,16(sp)
  402e38:	afae0014 	sw	t6,20(sp)
  402e3c:	afad0018 	sw	t5,24(sp)
  402e40:	afac001c 	sw	t4,28(sp)
  402e44:	afab0020 	sw	t3,32(sp)
  402e48:	afaa0024 	sw	t2,36(sp)
  402e4c:	afa90028 	sw	t1,40(sp)
  402e50:	afa8002c 	sw	t0,44(sp)
  402e54:	afa30030 	sw	v1,48(sp)
  402e58:	0320f809 	jalr	t9
  402e5c:	afa20034 	sw	v0,52(sp)
  402e60:	02202021 	move	a0,s1
  402e64:	96060012 	lhu	a2,18(s0)
  402e68:	0c100a78 	jal	4029e0 <dumpHex>
  402e6c:	26050014 	addiu	a1,s0,20
  402e70:	8fbf016c 	lw	ra,364(sp)
  402e74:	8fb60168 	lw	s6,360(sp)
  402e78:	8fb50164 	lw	s5,356(sp)
  402e7c:	8fb40160 	lw	s4,352(sp)
  402e80:	8fb3015c 	lw	s3,348(sp)
  402e84:	8fb20158 	lw	s2,344(sp)
  402e88:	8fb10154 	lw	s1,340(sp)
  402e8c:	8fb00150 	lw	s0,336(sp)
  402e90:	03e00008 	jr	ra
  402e94:	27bd0170 	addiu	sp,sp,368
[31m  402e98:	8f9980bc 	lw	t9,fprintf[0m
  402e9c:	02202021 	move	a0,s1
  402ea0:	0320f809 	jalr	t9
  402ea4:	24a53a68 	addiu	a1,a1,14952
  402ea8:	24030019 	li	v1,25
  402eac:	9202000f 	lbu	v0,15(s0)
  402eb0:	8fbc0038 	lw	gp,56(sp)
  402eb4:	1443ffae 	bne	v0,v1,402d70 <dumpPacket+0x138>
  402eb8:	2c43001a 	sltiu	v1,v0,26
  402ebc:	3c040040 	lui	a0,0x40
  402ec0:	02203821 	move	a3,s1
  402ec4:	8f998058 	lw	t9,-32680(gp)
  402ec8:	1000ffb5 	b	402da0 <dumpPacket+0x168>
  402ecc:	24843a98 	addiu	a0,a0,15000
  402ed0:	3c040040 	lui	a0,0x40
  402ed4:	02203821 	move	a3,s1
  402ed8:	8f998058 	lw	t9,-32680(gp)
  402edc:	1000ffb0 	b	402da0 <dumpPacket+0x168>
  402ee0:	24843a90 	addiu	a0,a0,14992
  402ee4:	3c040040 	lui	a0,0x40
  402ee8:	02203821 	move	a3,s1
  402eec:	8f998058 	lw	t9,-32680(gp)
  402ef0:	1000ffab 	b	402da0 <dumpPacket+0x168>
  402ef4:	24843aa8 	addiu	a0,a0,15016
[31m  402ef8:	8f9980bc 	lw	t9,fprintf[0m
  402efc:	02202021 	move	a0,s1
  402f00:	0320f809 	jalr	t9

[0m
[[0;33m*[0m] Function [0;33mfprintf[0m used [0;33m14[0m times [0;33mpppoe-sniff[0m

