[[0;33m*[0m] Binary protection state of [0;33mwscd[0m
[REF] s12

  	RELRO          CANARY            NX           PIE       RPATH        RUNPATH      SYMBOLS      
  	[31mNo RELRO[0m       [31mNo Canary found[0m   [31mNX disabled[0m  [31mNo PIE[0m       [32mNo RPATH[0m     [32mNo RUNPATH[0m   [32mNo Symbols[0m

[0m
[[0;33m*[0m] Function [0;33msprintf[0m tear down of [0;33mwscd[0m

  403cb8:	03200008 	jr	t9
  403cbc:	27bd0020 	addiu	sp,sp,32
  403cc0:	27bdfef0 	addiu	sp,sp,-272
  403cc4:	afbf010c 	sw	ra,268(sp)
  403cc8:	afb50108 	sw	s5,264(sp)
  403ccc:	afb40104 	sw	s4,260(sp)
  403cd0:	afb30100 	sw	s3,256(sp)
  403cd4:	afb200fc 	sw	s2,252(sp)
  403cd8:	afb100f8 	sw	s1,248(sp)
  403cdc:	afb000f4 	sw	s0,244(sp)
  403ce0:	3c1c0045 	lui	gp,0x45
  403ce4:	279c75d0 	addiu	gp,gp,30160
  403ce8:	afbc0010 	sw	gp,16(sp)
  403cec:	00002821 	move	a1,zero
  403cf0:	27b00024 	addiu	s0,sp,36
  403cf4:	00809021 	move	s2,a0
  403cf8:	24060064 	li	a2,100
  403cfc:	8f9981bc 	lw	t9,-32324(gp)
  403d00:	02002021 	move	a0,s0
  403d04:	0320f809 	jalr	t9
  403d08:	2411ffff 	li	s1,-1
  403d0c:	3c050043 	lui	a1,0x43
  403d10:	02002021 	move	a0,s0
  403d14:	8fbc0010 	lw	gp,16(sp)
  403d18:	02403021 	move	a2,s2
[31m  403d1c:	8f998154 	lw	t9,sprintf[0m
  403d20:	0320f809 	jalr	t9
  403d24:	24a570f0 	addiu	a1,a1,28912
--
  404160:	8fb50030 	lw	s5,48(sp)
  404164:	8fb4002c 	lw	s4,44(sp)
  404168:	8fb30028 	lw	s3,40(sp)
  40416c:	8fb20024 	lw	s2,36(sp)
  404170:	8fb10020 	lw	s1,32(sp)
  404174:	8fb0001c 	lw	s0,28(sp)
  404178:	03e00008 	jr	ra
  40417c:	27bd0038 	addiu	sp,sp,56
  404180:	27bdff60 	addiu	sp,sp,-160
  404184:	afbf009c 	sw	ra,156(sp)
  404188:	afb50098 	sw	s5,152(sp)
  40418c:	afb40094 	sw	s4,148(sp)
  404190:	afb30090 	sw	s3,144(sp)
  404194:	afb2008c 	sw	s2,140(sp)
  404198:	afb10088 	sw	s1,136(sp)
  40419c:	afb00084 	sw	s0,132(sp)
  4041a0:	3c1c0045 	lui	gp,0x45
  4041a4:	279c75d0 	addiu	gp,gp,30160
  4041a8:	afbc0010 	sw	gp,16(sp)
  4041ac:	3c120043 	lui	s2,0x43
  4041b0:	8c820178 	lw	v0,376(a0)
  4041b4:	24030001 	li	v1,1
  4041b8:	00a08021 	move	s0,a1
  4041bc:	26527e68 	addiu	s2,s2,32360
  4041c0:	3c050043 	lui	a1,0x43
[31m  4041c4:	8f998154 	lw	t9,sprintf[0m
  4041c8:	14430039 	bne	v0,v1,4042b0 <_ftext@@Base+0xdc0>
  4041cc:	3c130043 	lui	s3,0x43
--
  404224:	24050064 	li	a1,100
  404228:	0320f809 	jalr	t9
  40422c:	02a02021 	move	a0,s5
  404230:	3c050043 	lui	a1,0x43
  404234:	02a02021 	move	a0,s5
  404238:	8fbc0010 	lw	gp,16(sp)
  40423c:	24a57164 	addiu	a1,a1,29028
  404240:	8f998210 	lw	t9,-32240(gp)
  404244:	0320f809 	jalr	t9
  404248:	27a60018 	addiu	a2,sp,24
  40424c:	8fbc0010 	lw	gp,16(sp)
  404250:	10400009 	beqz	v0,404278 <_ftext@@Base+0xd88>
  404254:	00000000 	nop
  404258:	8fa40018 	lw	a0,24(sp)
  40425c:	28820002 	slti	v0,a0,2
  404260:	14400005 	bnez	v0,404278 <_ftext@@Base+0xd88>
  404264:	00000000 	nop
  404268:	8f9982f0 	lw	t9,-32016(gp)
  40426c:	0320f809 	jalr	t9
  404270:	02002821 	move	a1,s0
  404274:	8fbc0010 	lw	gp,16(sp)
  404278:	8f998198 	lw	t9,-32360(gp)
  40427c:	0320f809 	jalr	t9
  404280:	02602021 	move	a0,s3
  404284:	8fbc0010 	lw	gp,16(sp)
[31m  404288:	8f998154 	lw	t9,sprintf[0m
  40428c:	3c060043 	lui	a2,0x43
  404290:	02802821 	move	a1,s4
--
  404304:	02202021 	move	a0,s1
  404308:	3c050043 	lui	a1,0x43
  40430c:	02202021 	move	a0,s1
  404310:	8fbc0010 	lw	gp,16(sp)
  404314:	24a57164 	addiu	a1,a1,29028
  404318:	8f998210 	lw	t9,-32240(gp)
  40431c:	0320f809 	jalr	t9
  404320:	27a60018 	addiu	a2,sp,24
  404324:	8fbc0010 	lw	gp,16(sp)
  404328:	10400009 	beqz	v0,404350 <_ftext@@Base+0xe60>
  40432c:	00000000 	nop
  404330:	8fa40018 	lw	a0,24(sp)
  404334:	28820002 	slti	v0,a0,2
  404338:	14400005 	bnez	v0,404350 <_ftext@@Base+0xe60>
  40433c:	00000000 	nop
  404340:	8f9982f0 	lw	t9,-32016(gp)
  404344:	0320f809 	jalr	t9
  404348:	02002821 	move	a1,s0
  40434c:	8fbc0010 	lw	gp,16(sp)
  404350:	8f998198 	lw	t9,-32360(gp)
  404354:	10000029 	b	4043fc <_ftext@@Base+0xf0c>
  404358:	02802021 	move	a0,s4
  40435c:	3c050043 	lui	a1,0x43
  404360:	02202021 	move	a0,s1
  404364:	26667148 	addiu	a2,s3,29000
[31m  404368:	8f998154 	lw	t9,sprintf[0m
  40436c:	0320f809 	jalr	t9
  404370:	24a57174 	addiu	a1,a1,29044
--
  404490:	3c050043 	lui	a1,0x43
  404494:	02202021 	move	a0,s1
  404498:	8fbc0010 	lw	gp,16(sp)
  40449c:	8f9981c4 	lw	t9,-32316(gp)
  4044a0:	0320f809 	jalr	t9
  4044a4:	24a57e68 	addiu	a1,a1,32360
  4044a8:	8fbc0010 	lw	gp,16(sp)
  4044ac:	1040002d 	beqz	v0,404564 <_ftext@@Base+0x1074>
  4044b0:	00408821 	move	s1,v0
  4044b4:	8f9981bc 	lw	t9,-32324(gp)
  4044b8:	27b300e0 	addiu	s3,sp,224
  4044bc:	00002821 	move	a1,zero
  4044c0:	02602021 	move	a0,s3
  4044c4:	24060064 	li	a2,100
  4044c8:	3c140043 	lui	s4,0x43
  4044cc:	0320f809 	jalr	t9
  4044d0:	27b2007c 	addiu	s2,sp,124
  4044d4:	24150020 	li	s5,32
  4044d8:	8fbc0010 	lw	gp,16(sp)
  4044dc:	10000012 	b	404528 <_ftext@@Base+0x1038>
  4044e0:	26947198 	addiu	s4,s4,29080
  4044e4:	82020000 	lb	v0,0(s0)
  4044e8:	1055fffe 	beq	v0,s5,4044e4 <_ftext@@Base+0xff4>
  4044ec:	26100001 	addiu	s0,s0,1
  4044f0:	2610ffff 	addiu	s0,s0,-1
[31m  4044f4:	8f998154 	lw	t9,sprintf[0m
  4044f8:	02602021 	move	a0,s3
  4044fc:	02802821 	move	a1,s4
--
00404788 <InOut_auto_lock_down@@Base>:
  404788:	27bdff98 	addiu	sp,sp,-104
  40478c:	afbf0064 	sw	ra,100(sp)
  404790:	afb10060 	sw	s1,96(sp)
  404794:	afb0005c 	sw	s0,92(sp)
  404798:	3c1c0045 	lui	gp,0x45
  40479c:	279c75d0 	addiu	gp,gp,30160
  4047a0:	afbc0010 	sw	gp,16(sp)
  4047a4:	8f998414 	lw	t9,-31724(gp)
  4047a8:	10a00037 	beqz	a1,404888 <InOut_auto_lock_down@@Base+0x100>
  4047ac:	00808021 	move	s0,a0
  4047b0:	3c040043 	lui	a0,0x43
  4047b4:	27b10018 	addiu	s1,sp,24
  4047b8:	0320f809 	jalr	t9
  4047bc:	248471a0 	addiu	a0,a0,29088
  4047c0:	3c040043 	lui	a0,0x43
  4047c4:	8fbc0010 	lw	gp,16(sp)
  4047c8:	8f998414 	lw	t9,-31724(gp)
  4047cc:	0320f809 	jalr	t9
  4047d0:	248471bc 	addiu	a0,a0,29116
  4047d4:	3c050043 	lui	a1,0x43
  4047d8:	02202021 	move	a0,s1
  4047dc:	8fbc0010 	lw	gp,16(sp)
  4047e0:	3c060043 	lui	a2,0x43
  4047e4:	24a571fc 	addiu	a1,a1,29180
[31m  4047e8:	8f998154 	lw	t9,sprintf[0m
  4047ec:	0320f809 	jalr	t9
  4047f0:	24c67208 	addiu	a2,a2,29192
--
  404c44:	00403021 	move	a2,v0
  404c48:	afb20010 	sw	s2,16(sp)
  404c4c:	8f99804c 	lw	t9,-32692(gp)
  404c50:	0320f809 	jalr	t9
  404c54:	00408821 	move	s1,v0
  404c58:	8fbc0018 	lw	gp,24(sp)
  404c5c:	04400040 	bltz	v0,404d60 <InOut_auto_lock_down@@Base+0x5d8>
  404c60:	2402ffff 	li	v0,-1
  404c64:	8f99804c 	lw	t9,-32692(gp)
  404c68:	02602821 	move	a1,s3
  404c6c:	260400d0 	addiu	a0,s0,208
  404c70:	afb20010 	sw	s2,16(sp)
  404c74:	02203021 	move	a2,s1
  404c78:	24070037 	li	a3,55
  404c7c:	0320f809 	jalr	t9
  404c80:	00000000 	nop
  404c84:	8fbc0018 	lw	gp,24(sp)
  404c88:	04400035 	bltz	v0,404d60 <InOut_auto_lock_down@@Base+0x5d8>
  404c8c:	2402ffff 	li	v0,-1
  404c90:	92020660 	lbu	v0,1632(s0)
  404c94:	10400032 	beqz	v0,404d60 <InOut_auto_lock_down@@Base+0x5d8>
  404c98:	00001021 	move	v0,zero
  404c9c:	8e0200c4 	lw	v0,196(s0)
  404ca0:	1440000c 	bnez	v0,404cd4 <InOut_auto_lock_down@@Base+0x54c>
  404ca4:	3c050043 	lui	a1,0x43
[31m  404ca8:	8f998154 	lw	t9,sprintf[0m
  404cac:	27b100b8 	addiu	s1,sp,184
  404cb0:	02202021 	move	a0,s1
  404cb4:	26060188 	addiu	a2,s0,392
  404cb8:	0320f809 	jalr	t9
  404cbc:	24a5723c 	addiu	a1,a1,29244
  404cc0:	8fbc0018 	lw	gp,24(sp)
  404cc4:	8f998404 	lw	t9,-31740(gp)
  404cc8:	0320f809 	jalr	t9
  404ccc:	02202021 	move	a0,s1
  404cd0:	8fbc0018 	lw	gp,24(sp)
  404cd4:	8e0200c8 	lw	v0,200(s0)
  404cd8:	1440000f 	bnez	v0,404d18 <InOut_auto_lock_down@@Base+0x590>
  404cdc:	00000000 	nop
  404ce0:	8e020174 	lw	v0,372(s0)
  404ce4:	1040000c 	beqz	v0,404d18 <InOut_auto_lock_down@@Base+0x590>
  404ce8:	3c050043 	lui	a1,0x43
[31m  404cec:	8f998154 	lw	t9,sprintf[0m
  404cf0:	27b100b8 	addiu	s1,sp,184
  404cf4:	02202021 	move	a0,s1
--
  40c278:	8fbc0018 	lw	gp,24(sp)
  40c27c:	14400004 	bnez	v0,40c290 <main@@Base+0x238>
  40c280:	3c050043 	lui	a1,0x43
  40c284:	24020001 	li	v0,1
  40c288:	100001a3 	b	40c918 <main@@Base+0x8c0>
  40c28c:	ae020178 	sw	v0,376(s0)
  40c290:	8f998170 	lw	t9,-32400(gp)
  40c294:	8fa40138 	lw	a0,312(sp)
  40c298:	0320f809 	jalr	t9
  40c29c:	24a57a58 	addiu	a1,a1,31320
  40c2a0:	8fbc0018 	lw	gp,24(sp)
  40c2a4:	14400020 	bnez	v0,40c328 <main@@Base+0x2d0>
  40c2a8:	3c050043 	lui	a1,0x43
  40c2ac:	26310001 	addiu	s1,s1,1
  40c2b0:	0232102a 	slt	v0,s1,s2
  40c2b4:	1040019c 	beqz	v0,40c928 <main@@Base+0x8d0>
  40c2b8:	00111080 	sll	v0,s1,0x2
  40c2bc:	8f998520 	lw	t9,-31456(gp)
  40c2c0:	02621021 	addu	v0,s3,v0
  40c2c4:	8c450000 	lw	a1,0(v0)
  40c2c8:	0320f809 	jalr	t9
  40c2cc:	02802021 	move	a0,s4
  40c2d0:	24020001 	li	v0,1
  40c2d4:	8fbc0018 	lw	gp,24(sp)
  40c2d8:	8e030174 	lw	v1,372(s0)
[31m  40c2dc:	8f998154 	lw	t9,sprintf[0m
  40c2e0:	14620009 	bne	v1,v0,40c308 <main@@Base+0x2b0>
  40c2e4:	3c060043 	lui	a2,0x43
--
  413114:	02021021 	addu	v0,s0,v0
  413118:	8c423650 	lw	v0,13904(v0)
  41311c:	14400006 	bnez	v0,413138 <pktHandler_wsc_done@@Base+0xb4>
  413120:	26250440 	addiu	a1,s1,1088
  413124:	8f9982b0 	lw	t9,-32080(gp)
  413128:	02002021 	move	a0,s0
  41312c:	0320f809 	jalr	t9
  413130:	24060001 	li	a2,1
  413134:	8fbc0028 	lw	gp,40(sp)
  413138:	8f998110 	lw	t9,-32496(gp)
  41313c:	24040003 	li	a0,3
  413140:	0320f809 	jalr	t9
  413144:	27b20030 	addiu	s2,sp,48
  413148:	3c050043 	lui	a1,0x43
  41314c:	02402021 	move	a0,s2
  413150:	92220445 	lbu	v0,1093(s1)
  413154:	24a57f34 	addiu	a1,a1,32564
  413158:	8fbc0028 	lw	gp,40(sp)
  41315c:	92260440 	lbu	a2,1088(s1)
  413160:	92270441 	lbu	a3,1089(s1)
  413164:	92290442 	lbu	t1,1090(s1)
  413168:	92280443 	lbu	t0,1091(s1)
  41316c:	92230444 	lbu	v1,1092(s1)
  413170:	afa2001c 	sw	v0,28(sp)
  413174:	3c020043 	lui	v0,0x43
[31m  413178:	8f998154 	lw	t9,sprintf[0m
  41317c:	24427f5c 	addiu	v0,v0,32604
  413180:	afa90010 	sw	t1,16(sp)
--
  414070:	8fbc0020 	lw	gp,32(sp)
  414074:	104005ad 	beqz	v0,41572c <pktHandler_wsc_msg@@Base+0x1744>
  414078:	2414ffff 	li	s4,-1
  41407c:	90430000 	lbu	v1,0(v0)
  414080:	24020004 	li	v0,4
  414084:	146205a9 	bne	v1,v0,41572c <pktHandler_wsc_msg@@Base+0x1744>
  414088:	24020010 	li	v0,16
  41408c:	ae020020 	sw	v0,32(s0)
  414090:	ae000a4c 	sw	zero,2636(s0)
  414094:	8e020020 	lw	v0,32(s0)
  414098:	24030010 	li	v1,16
  41409c:	10430003 	beq	v0,v1,4140ac <pktHandler_wsc_msg@@Base+0xc4>
  4140a0:	24030012 	li	v1,18
  4140a4:	1443001e 	bne	v0,v1,414120 <pktHandler_wsc_msg@@Base+0x138>
  4140a8:	27b40028 	addiu	s4,sp,40
  4140ac:	92090442 	lbu	t1,1090(s0)
  4140b0:	240a0002 	li	t2,2
  4140b4:	92080443 	lbu	t0,1091(s0)
  4140b8:	3c050043 	lui	a1,0x43
  4140bc:	92030444 	lbu	v1,1092(s0)
  4140c0:	24a57f90 	addiu	a1,a1,32656
  4140c4:	92020445 	lbu	v0,1093(s0)
  4140c8:	27a405e1 	addiu	a0,sp,1505
  4140cc:	92060440 	lbu	a2,1088(s0)
  4140d0:	92070441 	lbu	a3,1089(s0)
[31m  4140d4:	8f998154 	lw	t9,sprintf[0m
  4140d8:	afaa05c8 	sw	t2,1480(sp)
  4140dc:	240a0007 	li	t2,7
--
  415a5c:	02002821 	move	a1,s0
  415a60:	0320f809 	jalr	t9
  415a64:	248478e0 	addiu	a0,a0,30944
  415a68:	8fbc0010 	lw	gp,16(sp)
  415a6c:	1040003b 	beqz	v0,415b5c <sync_vxd_wps_status@@Base+0x19c>
  415a70:	3c120043 	lui	s2,0x43
  415a74:	8f998120 	lw	t9,-32480(gp)
  415a78:	02002821 	move	a1,s0
  415a7c:	0320f809 	jalr	t9
  415a80:	2644790c 	addiu	a0,s2,30988
  415a84:	8fbc0010 	lw	gp,16(sp)
  415a88:	1440000c 	bnez	v0,415abc <sync_vxd_wps_status@@Base+0xfc>
  415a8c:	3c050043 	lui	a1,0x43
  415a90:	8e22017c 	lw	v0,380(s1)
  415a94:	24420001 	addiu	v0,v0,1
  415a98:	28430003 	slti	v1,v0,3
  415a9c:	14600057 	bnez	v1,415bfc <sync_vxd_wps_status@@Base+0x23c>
  415aa0:	ae22017c 	sw	v0,380(s1)
  415aa4:	24030003 	li	v1,3
  415aa8:	10430056 	beq	v0,v1,415c04 <sync_vxd_wps_status@@Base+0x244>
  415aac:	2644790c 	addiu	a0,s2,30988
  415ab0:	8f998250 	lw	t9,-32176(gp)
  415ab4:	1000003f 	b	415bb4 <sync_vxd_wps_status@@Base+0x1f4>
  415ab8:	00000000 	nop
  415abc:	27b00018 	addiu	s0,sp,24
[31m  415ac0:	8f998154 	lw	t9,sprintf[0m
  415ac4:	24a571fc 	addiu	a1,a1,29180
  415ac8:	02002021 	move	a0,s0
--
  415b68:	24050001 	li	a1,1
  415b6c:	10000023 	b	415bfc <sync_vxd_wps_status@@Base+0x23c>
  415b70:	00000000 	nop
  415b74:	8f998120 	lw	t9,-32480(gp)
  415b78:	02002821 	move	a1,s0
  415b7c:	0320f809 	jalr	t9
  415b80:	26447928 	addiu	a0,s2,31016
  415b84:	8fbc0010 	lw	gp,16(sp)
  415b88:	1440000f 	bnez	v0,415bc8 <sync_vxd_wps_status@@Base+0x208>
  415b8c:	3c050043 	lui	a1,0x43
  415b90:	8e22017c 	lw	v0,380(s1)
  415b94:	24420001 	addiu	v0,v0,1
  415b98:	28430003 	slti	v1,v0,3
  415b9c:	14600017 	bnez	v1,415bfc <sync_vxd_wps_status@@Base+0x23c>
  415ba0:	ae22017c 	sw	v0,380(s1)
  415ba4:	24030003 	li	v1,3
  415ba8:	10430016 	beq	v0,v1,415c04 <sync_vxd_wps_status@@Base+0x244>
  415bac:	26447928 	addiu	a0,s2,31016
  415bb0:	8f998250 	lw	t9,-32176(gp)
  415bb4:	0320f809 	jalr	t9
  415bb8:	00000000 	nop
  415bbc:	24020001 	li	v0,1
  415bc0:	10000011 	b	415c08 <sync_vxd_wps_status@@Base+0x248>
  415bc4:	ae20017c 	sw	zero,380(s1)
  415bc8:	27b00058 	addiu	s0,sp,88
[31m  415bcc:	8f998154 	lw	t9,sprintf[0m
  415bd0:	24a571fc 	addiu	a1,a1,29180
  415bd4:	02002021 	move	a0,s0
--
  415c0c:	8fb20138 	lw	s2,312(sp)
  415c10:	8fb10134 	lw	s1,308(sp)
  415c14:	8fb00130 	lw	s0,304(sp)
  415c18:	03e00008 	jr	ra
  415c1c:	27bd0140 	addiu	sp,sp,320

00415c20 <report_WPS_STATUS@@Base>:
  415c20:	27bdffb0 	addiu	sp,sp,-80
  415c24:	afbf004c 	sw	ra,76(sp)
  415c28:	afb10048 	sw	s1,72(sp)
  415c2c:	afb00044 	sw	s0,68(sp)
  415c30:	3c1c0045 	lui	gp,0x45
  415c34:	279c75d0 	addiu	gp,gp,30160
  415c38:	afbc0010 	sw	gp,16(sp)
  415c3c:	3c020045 	lui	v0,0x45
  415c40:	8c43f4b4 	lw	v1,-2892(v0)
  415c44:	24020020 	li	v0,32
  415c48:	14620004 	bne	v1,v0,415c5c <report_WPS_STATUS@@Base+0x3c>
  415c4c:	00808021 	move	s0,a0
  415c50:	38830021 	xori	v1,a0,0x21
  415c54:	24020003 	li	v0,3
  415c58:	0043800a 	0x43800a
  415c5c:	27b10018 	addiu	s1,sp,24
  415c60:	3c050044 	lui	a1,0x44
  415c64:	02003021 	move	a2,s0
[31m  415c68:	8f998154 	lw	t9,sprintf[0m
  415c6c:	3c070044 	lui	a3,0x44
  415c70:	02202021 	move	a0,s1
--
  415c94:	ac50f4b4 	sw	s0,-2892(v0)
  415c98:	8fbf004c 	lw	ra,76(sp)
  415c9c:	8fb10048 	lw	s1,72(sp)
  415ca0:	8fb00044 	lw	s0,68(sp)
  415ca4:	03e00008 	jr	ra
  415ca8:	27bd0050 	addiu	sp,sp,80

00415cac <enable_WPS_LED@@Base>:
  415cac:	3c1c0045 	lui	gp,0x45
  415cb0:	3c040044 	lui	a0,0x44
  415cb4:	279c75d0 	addiu	gp,gp,30160
  415cb8:	24848154 	addiu	a0,a0,-32428
  415cbc:	8f998404 	lw	t9,-31740(gp)
  415cc0:	03200008 	jr	t9
  415cc4:	00000000 	nop
  415cc8:	27bdff78 	addiu	sp,sp,-136
  415ccc:	afbf0084 	sw	ra,132(sp)
  415cd0:	afb00080 	sw	s0,128(sp)
  415cd4:	3c1c0045 	lui	gp,0x45
  415cd8:	279c75d0 	addiu	gp,gp,30160
  415cdc:	afbc0010 	sw	gp,16(sp)
  415ce0:	00003821 	move	a3,zero
  415ce4:	00a03021 	move	a2,a1
  415ce8:	27b00018 	addiu	s0,sp,24
  415cec:	3c050044 	lui	a1,0x44
[31m  415cf0:	8f998154 	lw	t9,sprintf[0m
  415cf4:	24a58168 	addiu	a1,a1,-32408
  415cf8:	0320f809 	jalr	t9
  415cfc:	02002021 	move	a0,s0
  415d00:	8fbc0010 	lw	gp,16(sp)
  415d04:	8f998404 	lw	t9,-31740(gp)
  415d08:	0320f809 	jalr	t9
  415d0c:	02002021 	move	a0,s0
  415d10:	8fbf0084 	lw	ra,132(sp)
  415d14:	8fb00080 	lw	s0,128(sp)
  415d18:	03e00008 	jr	ra
  415d1c:	27bd0088 	addiu	sp,sp,136

00415d20 <client_set_WlanDriver_WscEnable@@Base>:
  415d20:	27bdff78 	addiu	sp,sp,-136
  415d24:	afbf0084 	sw	ra,132(sp)
  415d28:	afb00080 	sw	s0,128(sp)
  415d2c:	3c1c0045 	lui	gp,0x45
  415d30:	279c75d0 	addiu	gp,gp,30160
  415d34:	afbc0010 	sw	gp,16(sp)
  415d38:	00a03821 	move	a3,a1
  415d3c:	27b00018 	addiu	s0,sp,24
  415d40:	3c050044 	lui	a1,0x44
[31m  415d44:	8f998154 	lw	t9,sprintf[0m
  415d48:	24860188 	addiu	a2,a0,392
  415d4c:	02002021 	move	a0,s0
--
  415e38:	8c4348d8 	lw	v1,18648(v0)
  415e3c:	904648df 	lbu	a2,18655(v0)
  415e40:	10000016 	b	415e9c <wlioctl_set_led@@Base+0x124>
  415e44:	ac4348d4 	sw	v1,18644(v0)
  415e48:	14a20009 	bne	a1,v0,415e70 <wlioctl_set_led@@Base+0xf8>
  415e4c:	2402fff9 	li	v0,-7
  415e50:	8f828238 	lw	v0,-32200(gp)
  415e54:	8c430000 	lw	v1,0(v0)
  415e58:	3c020001 	lui	v0,0x1
  415e5c:	00621021 	addu	v0,v1,v0
  415e60:	8c4348e0 	lw	v1,18656(v0)
  415e64:	904648e7 	lbu	a2,18663(v0)
  415e68:	1000000c 	b	415e9c <wlioctl_set_led@@Base+0x124>
  415e6c:	ac4348d4 	sw	v1,18644(v0)
  415e70:	14a20008 	bne	a1,v0,415e94 <wlioctl_set_led@@Base+0x11c>
  415e74:	2402fffa 	li	v0,-6
  415e78:	8f828238 	lw	v0,-32200(gp)
  415e7c:	8c430000 	lw	v1,0(v0)
  415e80:	3c020001 	lui	v0,0x1
  415e84:	00621021 	addu	v0,v1,v0
  415e88:	904648df 	lbu	a2,18655(v0)
  415e8c:	10000003 	b	415e9c <wlioctl_set_led@@Base+0x124>
  415e90:	00000000 	nop
  415e94:	10a2000b 	beq	a1,v0,415ec4 <wlioctl_set_led@@Base+0x14c>
  415e98:	30a600ff 	andi	a2,a1,0xff
[31m  415e9c:	8f998154 	lw	t9,sprintf[0m
  415ea0:	27b00018 	addiu	s0,sp,24
  415ea4:	3c050044 	lui	a1,0x44
--
  418668:	8f998178 	lw	t9,-32392(gp)
  41866c:	02002021 	move	a0,s0
  418670:	0320f809 	jalr	t9
  418674:	00008021 	move	s0,zero
  418678:	02001021 	move	v0,s0
  41867c:	8fbf002c 	lw	ra,44(sp)
  418680:	8fb40028 	lw	s4,40(sp)
  418684:	8fb30024 	lw	s3,36(sp)
  418688:	8fb20020 	lw	s2,32(sp)
  41868c:	8fb1001c 	lw	s1,28(sp)
  418690:	8fb00018 	lw	s0,24(sp)
  418694:	03e00008 	jr	ra
  418698:	27bd0030 	addiu	sp,sp,48

0041869c <signal_webs@@Base>:
  41869c:	27bdfe50 	addiu	sp,sp,-432
  4186a0:	afbf01ac 	sw	ra,428(sp)
  4186a4:	afb101a8 	sw	s1,424(sp)
  4186a8:	afb001a4 	sw	s0,420(sp)
  4186ac:	3c1c0045 	lui	gp,0x45
  4186b0:	279c75d0 	addiu	gp,gp,30160
  4186b4:	afbc0010 	sw	gp,16(sp)
  4186b8:	24020002 	li	v0,2
  4186bc:	1482000d 	bne	a0,v0,4186f4 <signal_webs@@Base+0x58>
  4186c0:	27b0003c 	addiu	s0,sp,60
[31m  4186c4:	8f998154 	lw	t9,sprintf[0m
  4186c8:	3c050043 	lui	a1,0x43
  4186cc:	3c060044 	lui	a2,0x44
--
  4186f0:	8fbc0010 	lw	gp,16(sp)
  4186f4:	8f998120 	lw	t9,-32480(gp)
  4186f8:	3c100043 	lui	s0,0x43
  4186fc:	2604790c 	addiu	a0,s0,30988
  418700:	0320f809 	jalr	t9
  418704:	27a50108 	addiu	a1,sp,264
  418708:	8fbc0010 	lw	gp,16(sp)
  41870c:	14400005 	bnez	v0,418724 <signal_webs@@Base+0x88>
  418710:	00000000 	nop
  418714:	8f998250 	lw	t9,-32176(gp)
  418718:	0320f809 	jalr	t9
  41871c:	2604790c 	addiu	a0,s0,30988
  418720:	8fbc0010 	lw	gp,16(sp)
  418724:	8f998120 	lw	t9,-32480(gp)
  418728:	3c100043 	lui	s0,0x43
  41872c:	26047928 	addiu	a0,s0,31016
  418730:	0320f809 	jalr	t9
  418734:	27a50108 	addiu	a1,sp,264
  418738:	8fbc0010 	lw	gp,16(sp)
  41873c:	14400005 	bnez	v0,418754 <signal_webs@@Base+0xb8>
  418740:	00000000 	nop
  418744:	8f998250 	lw	t9,-32176(gp)
  418748:	0320f809 	jalr	t9
  41874c:	26047928 	addiu	a0,s0,31016
  418750:	8fbc0010 	lw	gp,16(sp)
[31m  418754:	8f998154 	lw	t9,sprintf[0m
  418758:	27b000a0 	addiu	s0,sp,160
  41875c:	3c060043 	lui	a2,0x43
--
  418a24:	27bd0060 	addiu	sp,sp,96

00418a28 <func_off_wlan_tx@@Base>:
  418a28:	27bdff70 	addiu	sp,sp,-144
  418a2c:	afbf008c 	sw	ra,140(sp)
  418a30:	afb10088 	sw	s1,136(sp)
  418a34:	afb00084 	sw	s0,132(sp)
  418a38:	3c1c0045 	lui	gp,0x45
  418a3c:	279c75d0 	addiu	gp,gp,30160
  418a40:	afbc0010 	sw	gp,16(sp)
  418a44:	00a08821 	move	s1,a1
  418a48:	3c050044 	lui	a1,0x44
  418a4c:	27a60018 	addiu	a2,sp,24
  418a50:	24a5829c 	addiu	a1,a1,-32100
  418a54:	02202021 	move	a0,s1
  418a58:	0c106245 	jal	418914 <wlioctl_get_button_state@@Base+0xd4>
  418a5c:	afa00018 	sw	zero,24(sp)
  418a60:	8fbc0010 	lw	gp,16(sp)
  418a64:	14400004 	bnez	v0,418a78 <func_off_wlan_tx@@Base+0x50>
  418a68:	27b0001c 	addiu	s0,sp,28
  418a6c:	8fa20018 	lw	v0,24(sp)
  418a70:	34420002 	ori	v0,v0,0x2
  418a74:	afa20018 	sw	v0,24(sp)
  418a78:	3c050044 	lui	a1,0x44
  418a7c:	02203021 	move	a2,s1
[31m  418a80:	8f998154 	lw	t9,sprintf[0m
  418a84:	24a582a8 	addiu	a1,a1,-32088
  418a88:	8fa70018 	lw	a3,24(sp)
--
  418b14:	afbc0010 	sw	gp,16(sp)
  418b18:	00a08821 	move	s1,a1
  418b1c:	3c050044 	lui	a1,0x44
  418b20:	27a60018 	addiu	a2,sp,24
  418b24:	24a5829c 	addiu	a1,a1,-32100
  418b28:	02202021 	move	a0,s1
  418b2c:	0c106245 	jal	418914 <wlioctl_get_button_state@@Base+0xd4>
  418b30:	afa00018 	sw	zero,24(sp)
  418b34:	8fbc0010 	lw	gp,16(sp)
  418b38:	1440000c 	bnez	v0,418b6c <func_on_wlan_tx@@Base+0x70>
  418b3c:	2402fffd 	li	v0,-3
  418b40:	8fa30018 	lw	v1,24(sp)
  418b44:	00621024 	and	v0,v1,v0
  418b48:	2c430002 	sltiu	v1,v0,2
  418b4c:	14600007 	bnez	v1,418b6c <func_on_wlan_tx@@Base+0x70>
  418b50:	afa20018 	sw	v0,24(sp)
  418b54:	8f9984ec 	lw	t9,-31508(gp)
  418b58:	3c040044 	lui	a0,0x44
  418b5c:	02202821 	move	a1,s1
  418b60:	0320f809 	jalr	t9
  418b64:	248482d4 	addiu	a0,a0,-32044
  418b68:	8fbc0010 	lw	gp,16(sp)
  418b6c:	27b0001c 	addiu	s0,sp,28
  418b70:	3c050044 	lui	a1,0x44
  418b74:	02203021 	move	a2,s1
[31m  418b78:	8f998154 	lw	t9,sprintf[0m
  418b7c:	24a582a8 	addiu	a1,a1,-32088
  418b80:	8fa70018 	lw	a3,24(sp)
--
  418c38:	27bdff38 	addiu	sp,sp,-200
  418c3c:	afbf00c4 	sw	ra,196(sp)
  418c40:	afbe00c0 	sw	s8,192(sp)
  418c44:	afb700bc 	sw	s7,188(sp)
  418c48:	afb600b8 	sw	s6,184(sp)
  418c4c:	afb500b4 	sw	s5,180(sp)
  418c50:	afb400b0 	sw	s4,176(sp)
  418c54:	afb300ac 	sw	s3,172(sp)
  418c58:	afb200a8 	sw	s2,168(sp)
  418c5c:	afb100a4 	sw	s1,164(sp)
  418c60:	afb000a0 	sw	s0,160(sp)
  418c64:	3c1c0045 	lui	gp,0x45
  418c68:	279c75d0 	addiu	gp,gp,30160
  418c6c:	afbc0018 	sw	gp,24(sp)
  418c70:	8f9981c4 	lw	t9,-32316(gp)
  418c74:	00808021 	move	s0,a0
  418c78:	3c040044 	lui	a0,0x44
  418c7c:	00a0a821 	move	s5,a1
  418c80:	3c050043 	lui	a1,0x43
  418c84:	2484830c 	addiu	a0,a0,-31988
  418c88:	0320f809 	jalr	t9
  418c8c:	24a57cd0 	addiu	a1,a1,31952
  418c90:	27a40020 	addiu	a0,sp,32
  418c94:	8fbc0018 	lw	gp,24(sp)
  418c98:	00409021 	move	s2,v0
[31m  418c9c:	8f998154 	lw	t9,sprintf[0m
  418ca0:	12a00004 	beqz	s5,418cb4 <write_param_to_flash2@@Base+0x7c>
  418ca4:	3c050044 	lui	a1,0x44
  418ca8:	24a58324 	addiu	a1,a1,-31964
  418cac:	10000005 	b	418cc4 <write_param_to_flash2@@Base+0x8c>
  418cb0:	26060134 	addiu	a2,s0,308
  418cb4:	3c060001 	lui	a2,0x1
  418cb8:	24a58324 	addiu	a1,a1,-31964
  418cbc:	34c647bc 	ori	a2,a2,0x47bc
  418cc0:	02063021 	addu	a2,s0,a2
  418cc4:	0320f809 	jalr	t9
  418cc8:	27b30020 	addiu	s3,sp,32
  418ccc:	02402821 	move	a1,s2
  418cd0:	8fbc0018 	lw	gp,24(sp)
  418cd4:	8f99808c 	lw	t9,-32628(gp)
  418cd8:	0320f809 	jalr	t9
  418cdc:	02602021 	move	a0,s3
  418ce0:	8fbc0018 	lw	gp,24(sp)
[31m  418ce4:	8f998154 	lw	t9,sprintf[0m
  418ce8:	12a00005 	beqz	s5,418d00 <write_param_to_flash2@@Base+0xc8>
  418cec:	3c050044 	lui	a1,0x44
--
  418cf4:	02602021 	move	a0,s3
  418cf8:	10000006 	b	418d14 <write_param_to_flash2@@Base+0xdc>
  418cfc:	26060134 	addiu	a2,s0,308
  418d00:	3c060001 	lui	a2,0x1
  418d04:	24a58320 	addiu	a1,a1,-31968
  418d08:	02602021 	move	a0,s3
  418d0c:	34c647bc 	ori	a2,a2,0x47bc
  418d10:	02063021 	addu	a2,s0,a2
  418d14:	0320f809 	jalr	t9
  418d18:	00000000 	nop
  418d1c:	02602021 	move	a0,s3
  418d20:	8fbc0018 	lw	gp,24(sp)
  418d24:	8f99808c 	lw	t9,-32628(gp)
  418d28:	0320f809 	jalr	t9
  418d2c:	02402821 	move	a1,s2
  418d30:	8fbc0018 	lw	gp,24(sp)
  418d34:	12a00007 	beqz	s5,418d54 <write_param_to_flash2@@Base+0x11c>
  418d38:	3c140044 	lui	s4,0x44
  418d3c:	8e02015c 	lw	v0,348(s0)
  418d40:	30510002 	andi	s1,v0,0x2
  418d44:	36230004 	ori	v1,s1,0x4
  418d48:	30420020 	andi	v0,v0,0x20
  418d4c:	1000002c 	b	418e00 <write_param_to_flash2@@Base+0x1c8>
  418d50:	0062880b 	0x62880b
  418d54:	27a40020 	addiu	a0,sp,32
[31m  418d58:	8f998154 	lw	t9,sprintf[0m
  418d5c:	26948330 	addiu	s4,s4,-31952
  418d60:	24060002 	li	a2,2
--
  418d70:	8fbc0018 	lw	gp,24(sp)
  418d74:	8e02071c 	lw	v0,1820(s0)
  418d78:	10600006 	beqz	v1,418d94 <write_param_to_flash2@@Base+0x15c>
  418d7c:	30430020 	andi	v1,v0,0x20
  418d80:	30510002 	andi	s1,v0,0x2
  418d84:	36230004 	ori	v1,s1,0x4
  418d88:	30420020 	andi	v0,v0,0x20
  418d8c:	10000004 	b	418da0 <write_param_to_flash2@@Base+0x168>
  418d90:	0062880b 	0x62880b
  418d94:	30510002 	andi	s1,v0,0x2
  418d98:	24020004 	li	v0,4
  418d9c:	0043880b 	0x43880b
  418da0:	8e02071c 	lw	v0,1820(s0)
  418da4:	24030001 	li	v1,1
  418da8:	14430005 	bne	v0,v1,418dc0 <write_param_to_flash2@@Base+0x188>
  418dac:	24030004 	li	v1,4
  418db0:	8e030720 	lw	v1,1824(s0)
  418db4:	38630002 	xori	v1,v1,0x2
  418db8:	1000000c 	b	418dec <write_param_to_flash2@@Base+0x1b4>
  418dbc:	0043880a 	0x43880a
  418dc0:	1443000a 	bne	v0,v1,418dec <write_param_to_flash2@@Base+0x1b4>
  418dc4:	24020002 	li	v0,2
  418dc8:	8e030720 	lw	v1,1824(s0)
  418dcc:	14620007 	bne	v1,v0,418dec <write_param_to_flash2@@Base+0x1b4>
  418dd0:	24060001 	li	a2,1
[31m  418dd4:	8f998154 	lw	t9,sprintf[0m
  418dd8:	02802821 	move	a1,s4
  418ddc:	27a40020 	addiu	a0,sp,32
  418de0:	0320f809 	jalr	t9
  418de4:	24110001 	li	s1,1
  418de8:	8fbc0018 	lw	gp,24(sp)
  418dec:	8f99808c 	lw	t9,-32628(gp)
  418df0:	02602021 	move	a0,s3
  418df4:	0320f809 	jalr	t9
  418df8:	02402821 	move	a1,s2
  418dfc:	8fbc0018 	lw	gp,24(sp)
[31m  418e00:	8f998154 	lw	t9,sprintf[0m
  418e04:	3c050044 	lui	a1,0x44
  418e08:	02203021 	move	a2,s1
  418e0c:	24a58340 	addiu	a1,a1,-31936
  418e10:	0320f809 	jalr	t9
  418e14:	27a40020 	addiu	a0,sp,32
  418e18:	02602021 	move	a0,s3
  418e1c:	8fbc0018 	lw	gp,24(sp)
  418e20:	8f99808c 	lw	t9,-32628(gp)
  418e24:	0320f809 	jalr	t9
  418e28:	02402821 	move	a1,s2
  418e2c:	8fbc0018 	lw	gp,24(sp)
  418e30:	12a00004 	beqz	s5,418e44 <write_param_to_flash2@@Base+0x20c>
  418e34:	00000000 	nop
  418e38:	8e06015c 	lw	a2,348(s0)
  418e3c:	10000008 	b	418e60 <write_param_to_flash2@@Base+0x228>
  418e40:	00000000 	nop
  418e44:	8e02071c 	lw	v0,1820(s0)
  418e48:	92030660 	lbu	v1,1632(s0)
  418e4c:	14600004 	bnez	v1,418e60 <write_param_to_flash2@@Base+0x228>
  418e50:	00403021 	move	a2,v0
  418e54:	24060020 	li	a2,32
  418e58:	38430022 	xori	v1,v0,0x22
  418e5c:	0043300b 	0x43300b
[31m  418e60:	8f998154 	lw	t9,sprintf[0m
  418e64:	3c050044 	lui	a1,0x44
  418e68:	24a5834c 	addiu	a1,a1,-31924
  418e6c:	0320f809 	jalr	t9
  418e70:	27a40020 	addiu	a0,sp,32
  418e74:	02602021 	move	a0,s3
  418e78:	8fbc0018 	lw	gp,24(sp)
  418e7c:	8f99808c 	lw	t9,-32628(gp)
  418e80:	0320f809 	jalr	t9
  418e84:	02402821 	move	a1,s2
  418e88:	8fbc0018 	lw	gp,24(sp)
  418e8c:	12a00004 	beqz	s5,418ea0 <write_param_to_flash2@@Base+0x268>
  418e90:	00000000 	nop
  418e94:	8e14015c 	lw	s4,348(s0)
  418e98:	10000002 	b	418ea4 <write_param_to_flash2@@Base+0x26c>
  418e9c:	00000000 	nop
  418ea0:	8e14071c 	lw	s4,1820(s0)
  418ea4:	8f99808c 	lw	t9,-32628(gp)
  418ea8:	32940022 	andi	s4,s4,0x22
  418eac:	3c040044 	lui	a0,0x44
  418eb0:	02402821 	move	a1,s2
  418eb4:	2484835c 	addiu	a0,a0,-31908
  418eb8:	3c110044 	lui	s1,0x44
  418ebc:	0320f809 	jalr	t9
  418ec0:	0014a02b 	sltu	s4,zero,s4
  418ec4:	8fbc0018 	lw	gp,24(sp)
  418ec8:	12800043 	beqz	s4,418fd8 <write_param_to_flash2@@Base+0x3a0>
  418ecc:	27a40020 	addiu	a0,sp,32
[31m  418ed0:	8f998154 	lw	t9,sprintf[0m
  418ed4:	12a00021 	beqz	s5,418f5c <write_param_to_flash2@@Base+0x324>
  418ed8:	3c050044 	lui	a1,0x44
--
  418f84:	02402821 	move	a1,s2
  418f88:	8fbc0018 	lw	gp,24(sp)
  418f8c:	8f9980bc 	lw	t9,strlen
  418f90:	0320f809 	jalr	t9
  418f94:	02802021 	move	a0,s4
  418f98:	24030040 	li	v1,64
  418f9c:	8fbc0018 	lw	gp,24(sp)
  418fa0:	8f99808c 	lw	t9,-32628(gp)
  418fa4:	14430004 	bne	v0,v1,418fb8 <write_param_to_flash2@@Base+0x380>
  418fa8:	3c040044 	lui	a0,0x44
  418fac:	02402821 	move	a1,s2
  418fb0:	10000004 	b	418fc4 <write_param_to_flash2@@Base+0x38c>
  418fb4:	24848378 	addiu	a0,a0,-31880
  418fb8:	3c040044 	lui	a0,0x44
  418fbc:	02402821 	move	a1,s2
  418fc0:	24848388 	addiu	a0,a0,-31864
  418fc4:	0320f809 	jalr	t9
  418fc8:	00000000 	nop
  418fcc:	8fbc0018 	lw	gp,24(sp)
  418fd0:	10000014 	b	419024 <write_param_to_flash2@@Base+0x3ec>
  418fd4:	3c060001 	lui	a2,0x1
  418fd8:	12a00011 	beqz	s5,419020 <write_param_to_flash2@@Base+0x3e8>
  418fdc:	00000000 	nop
  418fe0:	3c060001 	lui	a2,0x1
  418fe4:	26258398 	addiu	a1,s1,-31848
[31m  418fe8:	8f998154 	lw	t9,sprintf[0m
  418fec:	34c646a0 	ori	a2,a2,0x46a0
  418ff0:	27a40020 	addiu	a0,sp,32
  418ff4:	0320f809 	jalr	t9
  418ff8:	02063021 	addu	a2,s0,a2
  418ffc:	02602021 	move	a0,s3
  419000:	8fbc0018 	lw	gp,24(sp)
  419004:	8f99808c 	lw	t9,-32628(gp)
  419008:	0320f809 	jalr	t9
  41900c:	02402821 	move	a1,s2
  419010:	8fbc0018 	lw	gp,24(sp)
  419014:	8e020164 	lw	v0,356(s0)
  419018:	10000013 	b	419068 <write_param_to_flash2@@Base+0x430>
  41901c:	0002a082 	srl	s4,v0,0x2
  419020:	3c060001 	lui	a2,0x1
  419024:	26258398 	addiu	a1,s1,-31848
[31m  419028:	8f998154 	lw	t9,sprintf[0m
  41902c:	34c647dd 	ori	a2,a2,0x47dd
  419030:	27a40020 	addiu	a0,sp,32
  419034:	0320f809 	jalr	t9
  419038:	02063021 	addu	a2,s0,a2
  41903c:	02602021 	move	a0,s3
  419040:	8fbc0018 	lw	gp,24(sp)
  419044:	8f99808c 	lw	t9,-32628(gp)
  419048:	0320f809 	jalr	t9
  41904c:	02402821 	move	a1,s2
  419050:	92030660 	lbu	v1,1632(s0)
  419054:	8fbc0018 	lw	gp,24(sp)
  419058:	8e020720 	lw	v0,1824(s0)
  41905c:	10600007 	beqz	v1,41907c <write_param_to_flash2@@Base+0x444>
  419060:	30430008 	andi	v1,v0,0x8
  419064:	0002a082 	srl	s4,v0,0x2
  419068:	32940001 	andi	s4,s4,0x1
  41906c:	30420008 	andi	v0,v0,0x8
  419070:	36830002 	ori	v1,s4,0x2
  419074:	10000005 	b	41908c <write_param_to_flash2@@Base+0x454>
  419078:	0062a00b 	0x62a00b
  41907c:	14600003 	bnez	v1,41908c <write_param_to_flash2@@Base+0x454>
  419080:	24140002 	li	s4,2
  419084:	0002a082 	srl	s4,v0,0x2
  419088:	32940001 	andi	s4,s4,0x1
[31m  41908c:	8f998154 	lw	t9,sprintf[0m
  419090:	27b10020 	addiu	s1,sp,32
  419094:	02803021 	move	a2,s4
  419098:	3c050044 	lui	a1,0x44
  41909c:	02202021 	move	a0,s1
  4190a0:	0320f809 	jalr	t9
  4190a4:	24a583a8 	addiu	a1,a1,-31832
  4190a8:	02602021 	move	a0,s3
  4190ac:	8fbc0018 	lw	gp,24(sp)
  4190b0:	8f99808c 	lw	t9,-32628(gp)
  4190b4:	0320f809 	jalr	t9
  4190b8:	02402821 	move	a1,s2
  4190bc:	3c050044 	lui	a1,0x44
  4190c0:	02803021 	move	a2,s4
  4190c4:	8fbc0018 	lw	gp,24(sp)
  4190c8:	24a583c0 	addiu	a1,a1,-31808
[31m  4190cc:	8f998154 	lw	t9,sprintf[0m
  4190d0:	0320f809 	jalr	t9
  4190d4:	02202021 	move	a0,s1
  4190d8:	02602021 	move	a0,s3
  4190dc:	8fbc0018 	lw	gp,24(sp)
  4190e0:	8f99808c 	lw	t9,-32628(gp)
  4190e4:	0320f809 	jalr	t9
  4190e8:	02402821 	move	a1,s2
  4190ec:	8fbc0018 	lw	gp,24(sp)
  4190f0:	12a00004 	beqz	s5,419104 <write_param_to_flash2@@Base+0x4cc>
  4190f4:	24020002 	li	v0,2
  4190f8:	8e160164 	lw	s6,356(s0)
  4190fc:	10000096 	b	419358 <write_param_to_flash2@@Base+0x720>
  419100:	00000000 	nop
  419104:	8e160720 	lw	s6,1824(s0)
[31m  419108:	8f998154 	lw	t9,sprintf[0m
  41910c:	16c20087 	bne	s6,v0,41932c <write_param_to_flash2@@Base+0x6f4>
  419110:	3c050044 	lui	a1,0x44
  419114:	3c140001 	lui	s4,0x1
  419118:	24a583d8 	addiu	a1,a1,-31784
  41911c:	02202021 	move	a0,s1
  419120:	02141821 	addu	v1,s0,s4
  419124:	3697486f 	ori	s7,s4,0x486f
  419128:	9066488b 	lbu	a2,18571(v1)
  41912c:	369e4854 	ori	s8,s4,0x4854
  419130:	0320f809 	jalr	t9
  419134:	afa30098 	sw	v1,152(sp)
  419138:	02602021 	move	a0,s3
  41913c:	8fbc0018 	lw	gp,24(sp)
  419140:	8f99808c 	lw	t9,-32628(gp)
  419144:	0320f809 	jalr	t9
  419148:	02402821 	move	a1,s2
  41914c:	24020001 	li	v0,1
  419150:	8fa30098 	lw	v1,152(sp)
  419154:	8fbc0018 	lw	gp,24(sp)
  419158:	9063488b 	lbu	v1,18571(v1)
[31m  41915c:	8f998154 	lw	t9,sprintf[0m
  419160:	1462002b 	bne	v1,v0,419210 <write_param_to_flash2@@Base+0x5d8>
  419164:	3686481e 	ori	a2,s4,0x481e
  419168:	3c050044 	lui	a1,0x44
  41916c:	02063021 	addu	a2,s0,a2
  419170:	02202021 	move	a0,s1
  419174:	0320f809 	jalr	t9
  419178:	24a583e0 	addiu	a1,a1,-31776
  41917c:	02602021 	move	a0,s3
  419180:	8fbc0018 	lw	gp,24(sp)
  419184:	8f99808c 	lw	t9,-32628(gp)
  419188:	0320f809 	jalr	t9
  41918c:	02402821 	move	a1,s2
  419190:	3c020001 	lui	v0,0x1
  419194:	02202021 	move	a0,s1
  419198:	8fbc0018 	lw	gp,24(sp)
  41919c:	34424839 	ori	v0,v0,0x4839
  4191a0:	3c050044 	lui	a1,0x44
  4191a4:	02023021 	addu	a2,s0,v0
[31m  4191a8:	8f998154 	lw	t9,sprintf[0m
  4191ac:	0320f809 	jalr	t9
  4191b0:	24a583f0 	addiu	a1,a1,-31760
  4191b4:	02602021 	move	a0,s3
  4191b8:	8fbc0018 	lw	gp,24(sp)
  4191bc:	8f99808c 	lw	t9,-32628(gp)
  4191c0:	0320f809 	jalr	t9
  4191c4:	02402821 	move	a1,s2
  4191c8:	3c050044 	lui	a1,0x44
  4191cc:	02202021 	move	a0,s1
  4191d0:	8fbc0018 	lw	gp,24(sp)
  4191d4:	021e3021 	addu	a2,s0,s8
[31m  4191d8:	8f998154 	lw	t9,sprintf[0m
  4191dc:	0320f809 	jalr	t9
  4191e0:	24a58400 	addiu	a1,a1,-31744
  4191e4:	02602021 	move	a0,s3
  4191e8:	8fbc0018 	lw	gp,24(sp)
  4191ec:	8f99808c 	lw	t9,-32628(gp)
  4191f0:	0320f809 	jalr	t9
  4191f4:	02402821 	move	a1,s2
  4191f8:	3c050044 	lui	a1,0x44
  4191fc:	02202021 	move	a0,s1
  419200:	8fbc0018 	lw	gp,24(sp)
[31m  419204:	8f998154 	lw	t9,sprintf[0m
  419208:	1000002a 	b	4192b4 <write_param_to_flash2@@Base+0x67c>
  41920c:	24a58410 	addiu	a1,a1,-31728
  419210:	3c050044 	lui	a1,0x44
  419214:	02063021 	addu	a2,s0,a2
  419218:	02202021 	move	a0,s1
  41921c:	0320f809 	jalr	t9
  419220:	24a58420 	addiu	a1,a1,-31712
  419224:	02602021 	move	a0,s3
  419228:	8fbc0018 	lw	gp,24(sp)
  41922c:	8f99808c 	lw	t9,-32628(gp)
  419230:	0320f809 	jalr	t9
  419234:	02402821 	move	a1,s2
  419238:	3c020001 	lui	v0,0x1
  41923c:	02202021 	move	a0,s1
  419240:	8fbc0018 	lw	gp,24(sp)
  419244:	34424839 	ori	v0,v0,0x4839
  419248:	3c050044 	lui	a1,0x44
  41924c:	02023021 	addu	a2,s0,v0
[31m  419250:	8f998154 	lw	t9,sprintf[0m
  419254:	0320f809 	jalr	t9
  419258:	24a58430 	addiu	a1,a1,-31696
  41925c:	02602021 	move	a0,s3
  419260:	8fbc0018 	lw	gp,24(sp)
  419264:	8f99808c 	lw	t9,-32628(gp)
  419268:	0320f809 	jalr	t9
  41926c:	02402821 	move	a1,s2
  419270:	3c050044 	lui	a1,0x44
  419274:	02202021 	move	a0,s1
  419278:	8fbc0018 	lw	gp,24(sp)
  41927c:	021e3021 	addu	a2,s0,s8
[31m  419280:	8f998154 	lw	t9,sprintf[0m
  419284:	0320f809 	jalr	t9
  419288:	24a58440 	addiu	a1,a1,-31680
  41928c:	02602021 	move	a0,s3
  419290:	8fbc0018 	lw	gp,24(sp)
  419294:	8f99808c 	lw	t9,-32628(gp)
  419298:	0320f809 	jalr	t9
  41929c:	02402821 	move	a1,s2
  4192a0:	3c050044 	lui	a1,0x44
  4192a4:	02202021 	move	a0,s1
  4192a8:	8fbc0018 	lw	gp,24(sp)
  4192ac:	24a58450 	addiu	a1,a1,-31664
[31m  4192b0:	8f998154 	lw	t9,sprintf[0m
  4192b4:	02173021 	addu	a2,s0,s7
  4192b8:	0320f809 	jalr	t9
  4192bc:	3c110001 	lui	s1,0x1
  4192c0:	02602021 	move	a0,s3
  4192c4:	02118821 	addu	s1,s0,s1
  4192c8:	8fbc0018 	lw	gp,24(sp)
  4192cc:	02402821 	move	a1,s2
  4192d0:	8f99808c 	lw	t9,-32628(gp)
  4192d4:	0320f809 	jalr	t9
  4192d8:	27b40020 	addiu	s4,sp,32
  4192dc:	3c050044 	lui	a1,0x44
  4192e0:	02802021 	move	a0,s4
  4192e4:	8fbc0018 	lw	gp,24(sp)
  4192e8:	24a58460 	addiu	a1,a1,-31648
  4192ec:	9226488a 	lbu	a2,18570(s1)
[31m  4192f0:	8f998154 	lw	t9,sprintf[0m
  4192f4:	0320f809 	jalr	t9
  4192f8:	24c6ffff 	addiu	a2,a2,-1
  4192fc:	02602021 	move	a0,s3
  419300:	8fbc0018 	lw	gp,24(sp)
  419304:	8f99808c 	lw	t9,-32628(gp)
  419308:	0320f809 	jalr	t9
  41930c:	02402821 	move	a1,s2
  419310:	3c050044 	lui	a1,0x44
  419314:	02802021 	move	a0,s4
  419318:	8fbc0018 	lw	gp,24(sp)
  41931c:	9226488c 	lbu	a2,18572(s1)
[31m  419320:	8f998154 	lw	t9,sprintf[0m
  419324:	10000004 	b	419338 <write_param_to_flash2@@Base+0x700>
  419328:	24a58474 	addiu	a1,a1,-31628
  41932c:	02202021 	move	a0,s1
  419330:	24a583d8 	addiu	a1,a1,-31784
  419334:	00003021 	move	a2,zero
  419338:	0320f809 	jalr	t9
  41933c:	00000000 	nop
  419340:	02602021 	move	a0,s3
  419344:	8fbc0018 	lw	gp,24(sp)
  419348:	8f99808c 	lw	t9,-32628(gp)
  41934c:	0320f809 	jalr	t9
  419350:	02402821 	move	a1,s2
  419354:	8fbc0018 	lw	gp,24(sp)
[31m  419358:	8f998154 	lw	t9,sprintf[0m
  41935c:	27b10020 	addiu	s1,sp,32
  419360:	02c03021 	move	a2,s6
  419364:	3c050044 	lui	a1,0x44
  419368:	02202021 	move	a0,s1
  41936c:	0320f809 	jalr	t9
  419370:	24a58488 	addiu	a1,a1,-31608
  419374:	02602021 	move	a0,s3
  419378:	8fbc0018 	lw	gp,24(sp)
  41937c:	8f99808c 	lw	t9,-32628(gp)
  419380:	0320f809 	jalr	t9
  419384:	02402821 	move	a1,s2
  419388:	92020660 	lbu	v0,1632(s0)
  41938c:	8fbc0018 	lw	gp,24(sp)
  419390:	10400013 	beqz	v0,4193e0 <write_param_to_flash2@@Base+0x7a8>
  419394:	00000000 	nop
[31m  419398:	8f998154 	lw	t9,sprintf[0m
  41939c:	12a00005 	beqz	s5,4193b4 <write_param_to_flash2@@Base+0x77c>
  4193a0:	3c050044 	lui	a1,0x44
  4193a4:	02202021 	move	a0,s1
  4193a8:	24a58494 	addiu	a1,a1,-31596
  4193ac:	10000004 	b	4193c0 <write_param_to_flash2@@Base+0x788>
  4193b0:	24060001 	li	a2,1
  4193b4:	02202021 	move	a0,s1
  4193b8:	24a58494 	addiu	a1,a1,-31596
  4193bc:	24060002 	li	a2,2
  4193c0:	0320f809 	jalr	t9
  4193c4:	00000000 	nop
  4193c8:	02602021 	move	a0,s3
  4193cc:	8fbc0018 	lw	gp,24(sp)
  4193d0:	8f99808c 	lw	t9,-32628(gp)
  4193d4:	0320f809 	jalr	t9
  4193d8:	02402821 	move	a1,s2
  4193dc:	8fbc0018 	lw	gp,24(sp)
[31m  4193e0:	8f998154 	lw	t9,sprintf[0m
  4193e4:	27b10020 	addiu	s1,sp,32
  4193e8:	3c050044 	lui	a1,0x44
  4193ec:	24060001 	li	a2,1
  4193f0:	02202021 	move	a0,s1
  4193f4:	24a584ac 	addiu	a1,a1,-31572
  4193f8:	0320f809 	jalr	t9
  4193fc:	3c150001 	lui	s5,0x1
  419400:	02602021 	move	a0,s3
  419404:	0215a821 	addu	s5,s0,s5
  419408:	8fbc0018 	lw	gp,24(sp)
  41940c:	8f99808c 	lw	t9,-32628(gp)
  419410:	0320f809 	jalr	t9
  419414:	02402821 	move	a1,s2
  419418:	8fbc0018 	lw	gp,24(sp)
  41941c:	8f998198 	lw	t9,-32360(gp)
  419420:	0320f809 	jalr	t9
  419424:	02402021 	move	a0,s2
  419428:	24020002 	li	v0,2
  41942c:	8ea348d0 	lw	v1,18640(s5)
  419430:	8fbc0018 	lw	gp,24(sp)
  419434:	1062002b 	beq	v1,v0,4194e4 <write_param_to_flash2@@Base+0x8ac>
  419438:	3c140044 	lui	s4,0x44
  41943c:	3c120044 	lui	s2,0x44
  419440:	02202021 	move	a0,s1
[31m  419444:	8f998154 	lw	t9,sprintf[0m
  419448:	269484c0 	addiu	s4,s4,-31552
  41944c:	2652830c 	addiu	s2,s2,-31988
--
  419458:	266684d8 	addiu	a2,s3,-31528
  41945c:	260700d0 	addiu	a3,s0,208
  419460:	0320f809 	jalr	t9
  419464:	afb20010 	sw	s2,16(sp)
  419468:	8fbc0018 	lw	gp,24(sp)
  41946c:	8f998404 	lw	t9,-31740(gp)
  419470:	0320f809 	jalr	t9
  419474:	02202021 	move	a0,s1
  419478:	92020660 	lbu	v0,1632(s0)
  41947c:	8fbc0018 	lw	gp,24(sp)
  419480:	10400018 	beqz	v0,4194e4 <write_param_to_flash2@@Base+0x8ac>
  419484:	00000000 	nop
  419488:	8e0200c4 	lw	v0,196(s0)
  41948c:	14400015 	bnez	v0,4194e4 <write_param_to_flash2@@Base+0x8ac>
  419490:	00000000 	nop
  419494:	92a2496c 	lbu	v0,18796(s5)
  419498:	10400008 	beqz	v0,4194bc <write_param_to_flash2@@Base+0x884>
  41949c:	266684d8 	addiu	a2,s3,-31528
  4194a0:	8f998520 	lw	t9,-31456(gp)
  4194a4:	3c050044 	lui	a1,0x44
  4194a8:	02202021 	move	a0,s1
  4194ac:	0320f809 	jalr	t9
  4194b0:	24a584e0 	addiu	a1,a1,-31520
  4194b4:	10000007 	b	4194d4 <write_param_to_flash2@@Base+0x89c>
  4194b8:	00000000 	nop
[31m  4194bc:	8f998154 	lw	t9,sprintf[0m
  4194c0:	02802821 	move	a1,s4
  4194c4:	afb20010 	sw	s2,16(sp)
--
  419518:	27bdff38 	addiu	sp,sp,-200
  41951c:	afbf00c4 	sw	ra,196(sp)
  419520:	afbe00c0 	sw	s8,192(sp)
  419524:	afb700bc 	sw	s7,188(sp)
  419528:	afb600b8 	sw	s6,184(sp)
  41952c:	afb500b4 	sw	s5,180(sp)
  419530:	afb400b0 	sw	s4,176(sp)
  419534:	afb300ac 	sw	s3,172(sp)
  419538:	afb200a8 	sw	s2,168(sp)
  41953c:	afb100a4 	sw	s1,164(sp)
  419540:	afb000a0 	sw	s0,160(sp)
  419544:	3c1c0045 	lui	gp,0x45
  419548:	279c75d0 	addiu	gp,gp,30160
  41954c:	afbc0018 	sw	gp,24(sp)
  419550:	8f9981c4 	lw	t9,-32316(gp)
  419554:	00808021 	move	s0,a0
  419558:	3c040044 	lui	a0,0x44
  41955c:	00a0a821 	move	s5,a1
  419560:	3c050043 	lui	a1,0x43
  419564:	2484830c 	addiu	a0,a0,-31988
  419568:	0320f809 	jalr	t9
  41956c:	24a57cd0 	addiu	a1,a1,31952
  419570:	27a40020 	addiu	a0,sp,32
  419574:	8fbc0018 	lw	gp,24(sp)
  419578:	00409021 	move	s2,v0
[31m  41957c:	8f998154 	lw	t9,sprintf[0m
  419580:	12a00004 	beqz	s5,419594 <write_param_to_flash@@Base+0x7c>
  419584:	3c050044 	lui	a1,0x44
  419588:	24a58324 	addiu	a1,a1,-31964
  41958c:	10000005 	b	4195a4 <write_param_to_flash@@Base+0x8c>
  419590:	26060684 	addiu	a2,s0,1668
  419594:	3c060001 	lui	a2,0x1
  419598:	24a58324 	addiu	a1,a1,-31964
  41959c:	34c647bc 	ori	a2,a2,0x47bc
  4195a0:	02063021 	addu	a2,s0,a2
  4195a4:	0320f809 	jalr	t9
  4195a8:	27b30020 	addiu	s3,sp,32
  4195ac:	02402821 	move	a1,s2
  4195b0:	8fbc0018 	lw	gp,24(sp)
  4195b4:	8f99808c 	lw	t9,-32628(gp)
  4195b8:	0320f809 	jalr	t9
  4195bc:	02602021 	move	a0,s3
  4195c0:	8fbc0018 	lw	gp,24(sp)
[31m  4195c4:	8f998154 	lw	t9,sprintf[0m
  4195c8:	12a00005 	beqz	s5,4195e0 <write_param_to_flash@@Base+0xc8>
  4195cc:	3c050044 	lui	a1,0x44
--
  4195d4:	02602021 	move	a0,s3
  4195d8:	10000006 	b	4195f4 <write_param_to_flash@@Base+0xdc>
  4195dc:	26060684 	addiu	a2,s0,1668
  4195e0:	3c060001 	lui	a2,0x1
  4195e4:	24a58320 	addiu	a1,a1,-31968
  4195e8:	02602021 	move	a0,s3
  4195ec:	34c647bc 	ori	a2,a2,0x47bc
  4195f0:	02063021 	addu	a2,s0,a2
  4195f4:	0320f809 	jalr	t9
  4195f8:	00000000 	nop
  4195fc:	02602021 	move	a0,s3
  419600:	8fbc0018 	lw	gp,24(sp)
  419604:	8f99808c 	lw	t9,-32628(gp)
  419608:	0320f809 	jalr	t9
  41960c:	02402821 	move	a1,s2
  419610:	8fbc0018 	lw	gp,24(sp)
  419614:	12a00007 	beqz	s5,419634 <write_param_to_flash@@Base+0x11c>
  419618:	3c140044 	lui	s4,0x44
  41961c:	8e0206b0 	lw	v0,1712(s0)
  419620:	30510002 	andi	s1,v0,0x2
  419624:	36230004 	ori	v1,s1,0x4
  419628:	30420020 	andi	v0,v0,0x20
  41962c:	1000002c 	b	4196e0 <write_param_to_flash@@Base+0x1c8>
  419630:	0062880b 	0x62880b
  419634:	27a40020 	addiu	a0,sp,32
[31m  419638:	8f998154 	lw	t9,sprintf[0m
  41963c:	26948330 	addiu	s4,s4,-31952
  419640:	24060002 	li	a2,2
--
  419650:	8fbc0018 	lw	gp,24(sp)
  419654:	8e02071c 	lw	v0,1820(s0)
  419658:	10600006 	beqz	v1,419674 <write_param_to_flash@@Base+0x15c>
  41965c:	30430020 	andi	v1,v0,0x20
  419660:	30510002 	andi	s1,v0,0x2
  419664:	36230004 	ori	v1,s1,0x4
  419668:	30420020 	andi	v0,v0,0x20
  41966c:	10000004 	b	419680 <write_param_to_flash@@Base+0x168>
  419670:	0062880b 	0x62880b
  419674:	30510002 	andi	s1,v0,0x2
  419678:	24020004 	li	v0,4
  41967c:	0043880b 	0x43880b
  419680:	8e02071c 	lw	v0,1820(s0)
  419684:	24030001 	li	v1,1
  419688:	14430005 	bne	v0,v1,4196a0 <write_param_to_flash@@Base+0x188>
  41968c:	24030004 	li	v1,4
  419690:	8e030720 	lw	v1,1824(s0)
  419694:	38630002 	xori	v1,v1,0x2
  419698:	1000000c 	b	4196cc <write_param_to_flash@@Base+0x1b4>
  41969c:	0043880a 	0x43880a
  4196a0:	1443000a 	bne	v0,v1,4196cc <write_param_to_flash@@Base+0x1b4>
  4196a4:	24020002 	li	v0,2
  4196a8:	8e030720 	lw	v1,1824(s0)
  4196ac:	14620007 	bne	v1,v0,4196cc <write_param_to_flash@@Base+0x1b4>
  4196b0:	24060001 	li	a2,1
[31m  4196b4:	8f998154 	lw	t9,sprintf[0m
  4196b8:	02802821 	move	a1,s4
  4196bc:	27a40020 	addiu	a0,sp,32
  4196c0:	0320f809 	jalr	t9
  4196c4:	24110001 	li	s1,1
  4196c8:	8fbc0018 	lw	gp,24(sp)
  4196cc:	8f99808c 	lw	t9,-32628(gp)
  4196d0:	02602021 	move	a0,s3
  4196d4:	0320f809 	jalr	t9
  4196d8:	02402821 	move	a1,s2
  4196dc:	8fbc0018 	lw	gp,24(sp)
[31m  4196e0:	8f998154 	lw	t9,sprintf[0m
  4196e4:	3c050044 	lui	a1,0x44
  4196e8:	02203021 	move	a2,s1
  4196ec:	24a58340 	addiu	a1,a1,-31936
  4196f0:	0320f809 	jalr	t9
  4196f4:	27a40020 	addiu	a0,sp,32
  4196f8:	02602021 	move	a0,s3
  4196fc:	8fbc0018 	lw	gp,24(sp)
  419700:	8f99808c 	lw	t9,-32628(gp)
  419704:	0320f809 	jalr	t9
  419708:	02402821 	move	a1,s2
  41970c:	8fbc0018 	lw	gp,24(sp)
  419710:	12a00004 	beqz	s5,419724 <write_param_to_flash@@Base+0x20c>
  419714:	00000000 	nop
  419718:	8e0606b0 	lw	a2,1712(s0)
  41971c:	10000008 	b	419740 <write_param_to_flash@@Base+0x228>
  419720:	00000000 	nop
  419724:	8e02071c 	lw	v0,1820(s0)
  419728:	92030660 	lbu	v1,1632(s0)
  41972c:	14600004 	bnez	v1,419740 <write_param_to_flash@@Base+0x228>
  419730:	00403021 	move	a2,v0
  419734:	24060020 	li	a2,32
  419738:	38430022 	xori	v1,v0,0x22
  41973c:	0043300b 	0x43300b
[31m  419740:	8f998154 	lw	t9,sprintf[0m
  419744:	3c050044 	lui	a1,0x44
  419748:	24a5834c 	addiu	a1,a1,-31924
  41974c:	0320f809 	jalr	t9
  419750:	27a40020 	addiu	a0,sp,32
  419754:	02602021 	move	a0,s3
  419758:	8fbc0018 	lw	gp,24(sp)
  41975c:	8f99808c 	lw	t9,-32628(gp)
  419760:	0320f809 	jalr	t9
  419764:	02402821 	move	a1,s2
  419768:	8fbc0018 	lw	gp,24(sp)
  41976c:	12a00004 	beqz	s5,419780 <write_param_to_flash@@Base+0x268>
  419770:	00000000 	nop
  419774:	8e1406b0 	lw	s4,1712(s0)
  419778:	10000002 	b	419784 <write_param_to_flash@@Base+0x26c>
  41977c:	00000000 	nop
  419780:	8e14071c 	lw	s4,1820(s0)
  419784:	8f99808c 	lw	t9,-32628(gp)
  419788:	32940022 	andi	s4,s4,0x22
  41978c:	3c040044 	lui	a0,0x44
  419790:	02402821 	move	a1,s2
  419794:	2484835c 	addiu	a0,a0,-31908
  419798:	3c110044 	lui	s1,0x44
  41979c:	0320f809 	jalr	t9
  4197a0:	0014a02b 	sltu	s4,zero,s4
  4197a4:	8fbc0018 	lw	gp,24(sp)
  4197a8:	12800043 	beqz	s4,4198b8 <write_param_to_flash@@Base+0x3a0>
  4197ac:	27a40020 	addiu	a0,sp,32
[31m  4197b0:	8f998154 	lw	t9,sprintf[0m
  4197b4:	12a00021 	beqz	s5,41983c <write_param_to_flash@@Base+0x324>
  4197b8:	3c050044 	lui	a1,0x44
--
  419864:	02402821 	move	a1,s2
  419868:	8fbc0018 	lw	gp,24(sp)
  41986c:	8f9980bc 	lw	t9,strlen
  419870:	0320f809 	jalr	t9
  419874:	02802021 	move	a0,s4
  419878:	24030040 	li	v1,64
  41987c:	8fbc0018 	lw	gp,24(sp)
  419880:	8f99808c 	lw	t9,-32628(gp)
  419884:	14430004 	bne	v0,v1,419898 <write_param_to_flash@@Base+0x380>
  419888:	3c040044 	lui	a0,0x44
  41988c:	02402821 	move	a1,s2
  419890:	10000004 	b	4198a4 <write_param_to_flash@@Base+0x38c>
  419894:	24848378 	addiu	a0,a0,-31880
  419898:	3c040044 	lui	a0,0x44
  41989c:	02402821 	move	a1,s2
  4198a0:	24848388 	addiu	a0,a0,-31864
  4198a4:	0320f809 	jalr	t9
  4198a8:	00000000 	nop
  4198ac:	8fbc0018 	lw	gp,24(sp)
  4198b0:	10000014 	b	419904 <write_param_to_flash@@Base+0x3ec>
  4198b4:	3c060001 	lui	a2,0x1
  4198b8:	12a00011 	beqz	s5,419900 <write_param_to_flash@@Base+0x3e8>
  4198bc:	00000000 	nop
  4198c0:	3c060001 	lui	a2,0x1
  4198c4:	26258398 	addiu	a1,s1,-31848
[31m  4198c8:	8f998154 	lw	t9,sprintf[0m
  4198cc:	34c64595 	ori	a2,a2,0x4595
  4198d0:	27a40020 	addiu	a0,sp,32
  4198d4:	0320f809 	jalr	t9
  4198d8:	02063021 	addu	a2,s0,a2
  4198dc:	02602021 	move	a0,s3
  4198e0:	8fbc0018 	lw	gp,24(sp)
  4198e4:	8f99808c 	lw	t9,-32628(gp)
  4198e8:	0320f809 	jalr	t9
  4198ec:	02402821 	move	a1,s2
  4198f0:	8fbc0018 	lw	gp,24(sp)
  4198f4:	8e0206c4 	lw	v0,1732(s0)
  4198f8:	10000013 	b	419948 <write_param_to_flash@@Base+0x430>
  4198fc:	0002a082 	srl	s4,v0,0x2
  419900:	3c060001 	lui	a2,0x1
  419904:	26258398 	addiu	a1,s1,-31848
[31m  419908:	8f998154 	lw	t9,sprintf[0m
  41990c:	34c647dd 	ori	a2,a2,0x47dd
  419910:	27a40020 	addiu	a0,sp,32
  419914:	0320f809 	jalr	t9
  419918:	02063021 	addu	a2,s0,a2
  41991c:	02602021 	move	a0,s3
  419920:	8fbc0018 	lw	gp,24(sp)
  419924:	8f99808c 	lw	t9,-32628(gp)
  419928:	0320f809 	jalr	t9
  41992c:	02402821 	move	a1,s2
  419930:	92030660 	lbu	v1,1632(s0)
  419934:	8fbc0018 	lw	gp,24(sp)
  419938:	8e020720 	lw	v0,1824(s0)
  41993c:	10600007 	beqz	v1,41995c <write_param_to_flash@@Base+0x444>
  419940:	30430008 	andi	v1,v0,0x8
  419944:	0002a082 	srl	s4,v0,0x2
  419948:	32940001 	andi	s4,s4,0x1
  41994c:	30420008 	andi	v0,v0,0x8
  419950:	36830002 	ori	v1,s4,0x2
  419954:	10000005 	b	41996c <write_param_to_flash@@Base+0x454>
  419958:	0062a00b 	0x62a00b
  41995c:	14600003 	bnez	v1,41996c <write_param_to_flash@@Base+0x454>
  419960:	24140002 	li	s4,2
  419964:	0002a082 	srl	s4,v0,0x2
  419968:	32940001 	andi	s4,s4,0x1
[31m  41996c:	8f998154 	lw	t9,sprintf[0m
  419970:	27b10020 	addiu	s1,sp,32
  419974:	02803021 	move	a2,s4
  419978:	3c050044 	lui	a1,0x44
  41997c:	02202021 	move	a0,s1
  419980:	0320f809 	jalr	t9
  419984:	24a583a8 	addiu	a1,a1,-31832
  419988:	02602021 	move	a0,s3
  41998c:	8fbc0018 	lw	gp,24(sp)
  419990:	8f99808c 	lw	t9,-32628(gp)
  419994:	0320f809 	jalr	t9
  419998:	02402821 	move	a1,s2
  41999c:	3c050044 	lui	a1,0x44
  4199a0:	02803021 	move	a2,s4
  4199a4:	8fbc0018 	lw	gp,24(sp)
  4199a8:	24a583c0 	addiu	a1,a1,-31808
[31m  4199ac:	8f998154 	lw	t9,sprintf[0m
  4199b0:	0320f809 	jalr	t9
  4199b4:	02202021 	move	a0,s1
  4199b8:	02602021 	move	a0,s3
  4199bc:	8fbc0018 	lw	gp,24(sp)
  4199c0:	8f99808c 	lw	t9,-32628(gp)
  4199c4:	0320f809 	jalr	t9
  4199c8:	02402821 	move	a1,s2
  4199cc:	8fbc0018 	lw	gp,24(sp)
  4199d0:	12a00004 	beqz	s5,4199e4 <write_param_to_flash@@Base+0x4cc>
  4199d4:	24020002 	li	v0,2
  4199d8:	8e1606c4 	lw	s6,1732(s0)
  4199dc:	10000096 	b	419c38 <write_param_to_flash@@Base+0x720>
  4199e0:	00000000 	nop
  4199e4:	8e160720 	lw	s6,1824(s0)
[31m  4199e8:	8f998154 	lw	t9,sprintf[0m
  4199ec:	16c20087 	bne	s6,v0,419c0c <write_param_to_flash@@Base+0x6f4>
  4199f0:	3c050044 	lui	a1,0x44
  4199f4:	3c140001 	lui	s4,0x1
  4199f8:	24a583d8 	addiu	a1,a1,-31784
  4199fc:	02202021 	move	a0,s1
  419a00:	02141821 	addu	v1,s0,s4
  419a04:	3697486f 	ori	s7,s4,0x486f
  419a08:	9066488b 	lbu	a2,18571(v1)
  419a0c:	369e4854 	ori	s8,s4,0x4854
  419a10:	0320f809 	jalr	t9
  419a14:	afa30098 	sw	v1,152(sp)
  419a18:	02602021 	move	a0,s3
  419a1c:	8fbc0018 	lw	gp,24(sp)
  419a20:	8f99808c 	lw	t9,-32628(gp)
  419a24:	0320f809 	jalr	t9
  419a28:	02402821 	move	a1,s2
  419a2c:	24020001 	li	v0,1
  419a30:	8fa30098 	lw	v1,152(sp)
  419a34:	8fbc0018 	lw	gp,24(sp)
  419a38:	9063488b 	lbu	v1,18571(v1)
[31m  419a3c:	8f998154 	lw	t9,sprintf[0m
  419a40:	1462002b 	bne	v1,v0,419af0 <write_param_to_flash@@Base+0x5d8>
  419a44:	3686481e 	ori	a2,s4,0x481e
  419a48:	3c050044 	lui	a1,0x44
  419a4c:	02063021 	addu	a2,s0,a2
  419a50:	02202021 	move	a0,s1
  419a54:	0320f809 	jalr	t9
  419a58:	24a583e0 	addiu	a1,a1,-31776
  419a5c:	02602021 	move	a0,s3
  419a60:	8fbc0018 	lw	gp,24(sp)
  419a64:	8f99808c 	lw	t9,-32628(gp)
  419a68:	0320f809 	jalr	t9
  419a6c:	02402821 	move	a1,s2
  419a70:	3c020001 	lui	v0,0x1
  419a74:	02202021 	move	a0,s1
  419a78:	8fbc0018 	lw	gp,24(sp)
  419a7c:	34424839 	ori	v0,v0,0x4839
  419a80:	3c050044 	lui	a1,0x44
  419a84:	02023021 	addu	a2,s0,v0
[31m  419a88:	8f998154 	lw	t9,sprintf[0m
  419a8c:	0320f809 	jalr	t9
  419a90:	24a583f0 	addiu	a1,a1,-31760
  419a94:	02602021 	move	a0,s3
  419a98:	8fbc0018 	lw	gp,24(sp)
  419a9c:	8f99808c 	lw	t9,-32628(gp)
  419aa0:	0320f809 	jalr	t9
  419aa4:	02402821 	move	a1,s2
  419aa8:	3c050044 	lui	a1,0x44
  419aac:	02202021 	move	a0,s1
  419ab0:	8fbc0018 	lw	gp,24(sp)
  419ab4:	021e3021 	addu	a2,s0,s8
[31m  419ab8:	8f998154 	lw	t9,sprintf[0m
  419abc:	0320f809 	jalr	t9
  419ac0:	24a58400 	addiu	a1,a1,-31744
  419ac4:	02602021 	move	a0,s3
  419ac8:	8fbc0018 	lw	gp,24(sp)
  419acc:	8f99808c 	lw	t9,-32628(gp)
  419ad0:	0320f809 	jalr	t9
  419ad4:	02402821 	move	a1,s2
  419ad8:	3c050044 	lui	a1,0x44
  419adc:	02202021 	move	a0,s1
  419ae0:	8fbc0018 	lw	gp,24(sp)
[31m  419ae4:	8f998154 	lw	t9,sprintf[0m
  419ae8:	1000002a 	b	419b94 <write_param_to_flash@@Base+0x67c>
  419aec:	24a58410 	addiu	a1,a1,-31728
  419af0:	3c050044 	lui	a1,0x44
  419af4:	02063021 	addu	a2,s0,a2
  419af8:	02202021 	move	a0,s1
  419afc:	0320f809 	jalr	t9
  419b00:	24a58420 	addiu	a1,a1,-31712
  419b04:	02602021 	move	a0,s3
  419b08:	8fbc0018 	lw	gp,24(sp)
  419b0c:	8f99808c 	lw	t9,-32628(gp)
  419b10:	0320f809 	jalr	t9
  419b14:	02402821 	move	a1,s2
  419b18:	3c020001 	lui	v0,0x1
  419b1c:	02202021 	move	a0,s1
  419b20:	8fbc0018 	lw	gp,24(sp)
  419b24:	34424839 	ori	v0,v0,0x4839
  419b28:	3c050044 	lui	a1,0x44
  419b2c:	02023021 	addu	a2,s0,v0
[31m  419b30:	8f998154 	lw	t9,sprintf[0m
  419b34:	0320f809 	jalr	t9
  419b38:	24a58430 	addiu	a1,a1,-31696
  419b3c:	02602021 	move	a0,s3
  419b40:	8fbc0018 	lw	gp,24(sp)
  419b44:	8f99808c 	lw	t9,-32628(gp)
  419b48:	0320f809 	jalr	t9
  419b4c:	02402821 	move	a1,s2
  419b50:	3c050044 	lui	a1,0x44
  419b54:	02202021 	move	a0,s1
  419b58:	8fbc0018 	lw	gp,24(sp)
  419b5c:	021e3021 	addu	a2,s0,s8
[31m  419b60:	8f998154 	lw	t9,sprintf[0m
  419b64:	0320f809 	jalr	t9
  419b68:	24a58440 	addiu	a1,a1,-31680
  419b6c:	02602021 	move	a0,s3
  419b70:	8fbc0018 	lw	gp,24(sp)
  419b74:	8f99808c 	lw	t9,-32628(gp)
  419b78:	0320f809 	jalr	t9
  419b7c:	02402821 	move	a1,s2
  419b80:	3c050044 	lui	a1,0x44
  419b84:	02202021 	move	a0,s1
  419b88:	8fbc0018 	lw	gp,24(sp)
  419b8c:	24a58450 	addiu	a1,a1,-31664
[31m  419b90:	8f998154 	lw	t9,sprintf[0m
  419b94:	02173021 	addu	a2,s0,s7
  419b98:	0320f809 	jalr	t9
  419b9c:	3c110001 	lui	s1,0x1
  419ba0:	02602021 	move	a0,s3
  419ba4:	02118821 	addu	s1,s0,s1
  419ba8:	8fbc0018 	lw	gp,24(sp)
  419bac:	02402821 	move	a1,s2
  419bb0:	8f99808c 	lw	t9,-32628(gp)
  419bb4:	0320f809 	jalr	t9
  419bb8:	27b40020 	addiu	s4,sp,32
  419bbc:	3c050044 	lui	a1,0x44
  419bc0:	02802021 	move	a0,s4
  419bc4:	8fbc0018 	lw	gp,24(sp)
  419bc8:	24a58460 	addiu	a1,a1,-31648
  419bcc:	9226488a 	lbu	a2,18570(s1)
[31m  419bd0:	8f998154 	lw	t9,sprintf[0m
  419bd4:	0320f809 	jalr	t9
  419bd8:	24c6ffff 	addiu	a2,a2,-1
  419bdc:	02602021 	move	a0,s3
  419be0:	8fbc0018 	lw	gp,24(sp)
  419be4:	8f99808c 	lw	t9,-32628(gp)
  419be8:	0320f809 	jalr	t9
  419bec:	02402821 	move	a1,s2
  419bf0:	3c050044 	lui	a1,0x44
  419bf4:	02802021 	move	a0,s4
  419bf8:	8fbc0018 	lw	gp,24(sp)
  419bfc:	9226488c 	lbu	a2,18572(s1)
[31m  419c00:	8f998154 	lw	t9,sprintf[0m
  419c04:	10000004 	b	419c18 <write_param_to_flash@@Base+0x700>
  419c08:	24a58474 	addiu	a1,a1,-31628
  419c0c:	02202021 	move	a0,s1
  419c10:	24a583d8 	addiu	a1,a1,-31784
  419c14:	00003021 	move	a2,zero
  419c18:	0320f809 	jalr	t9
  419c1c:	00000000 	nop
  419c20:	02602021 	move	a0,s3
  419c24:	8fbc0018 	lw	gp,24(sp)
  419c28:	8f99808c 	lw	t9,-32628(gp)
  419c2c:	0320f809 	jalr	t9
  419c30:	02402821 	move	a1,s2
  419c34:	8fbc0018 	lw	gp,24(sp)
[31m  419c38:	8f998154 	lw	t9,sprintf[0m
  419c3c:	27b10020 	addiu	s1,sp,32
  419c40:	02c03021 	move	a2,s6
  419c44:	3c050044 	lui	a1,0x44
  419c48:	02202021 	move	a0,s1
  419c4c:	0320f809 	jalr	t9
  419c50:	24a58488 	addiu	a1,a1,-31608
  419c54:	02602021 	move	a0,s3
  419c58:	8fbc0018 	lw	gp,24(sp)
  419c5c:	8f99808c 	lw	t9,-32628(gp)
  419c60:	0320f809 	jalr	t9
  419c64:	02402821 	move	a1,s2
  419c68:	92020660 	lbu	v0,1632(s0)
  419c6c:	8fbc0018 	lw	gp,24(sp)
  419c70:	10400013 	beqz	v0,419cc0 <write_param_to_flash@@Base+0x7a8>
  419c74:	00000000 	nop
[31m  419c78:	8f998154 	lw	t9,sprintf[0m
  419c7c:	12a00005 	beqz	s5,419c94 <write_param_to_flash@@Base+0x77c>
  419c80:	3c050044 	lui	a1,0x44
  419c84:	02202021 	move	a0,s1
  419c88:	24a58494 	addiu	a1,a1,-31596
  419c8c:	10000004 	b	419ca0 <write_param_to_flash@@Base+0x788>
  419c90:	24060001 	li	a2,1
  419c94:	02202021 	move	a0,s1
  419c98:	24a58494 	addiu	a1,a1,-31596
  419c9c:	24060002 	li	a2,2
  419ca0:	0320f809 	jalr	t9
  419ca4:	00000000 	nop
  419ca8:	02602021 	move	a0,s3
  419cac:	8fbc0018 	lw	gp,24(sp)
  419cb0:	8f99808c 	lw	t9,-32628(gp)
  419cb4:	0320f809 	jalr	t9
  419cb8:	02402821 	move	a1,s2
  419cbc:	8fbc0018 	lw	gp,24(sp)
[31m  419cc0:	8f998154 	lw	t9,sprintf[0m
  419cc4:	27b10020 	addiu	s1,sp,32
  419cc8:	3c050044 	lui	a1,0x44
  419ccc:	24060001 	li	a2,1
  419cd0:	02202021 	move	a0,s1
  419cd4:	24a584ac 	addiu	a1,a1,-31572
  419cd8:	0320f809 	jalr	t9
  419cdc:	3c150001 	lui	s5,0x1
  419ce0:	02602021 	move	a0,s3
  419ce4:	0215a821 	addu	s5,s0,s5
  419ce8:	8fbc0018 	lw	gp,24(sp)
  419cec:	8f99808c 	lw	t9,-32628(gp)
  419cf0:	0320f809 	jalr	t9
  419cf4:	02402821 	move	a1,s2
  419cf8:	8fbc0018 	lw	gp,24(sp)
  419cfc:	8f998198 	lw	t9,-32360(gp)
  419d00:	0320f809 	jalr	t9
  419d04:	02402021 	move	a0,s2
  419d08:	24020002 	li	v0,2
  419d0c:	8ea348d0 	lw	v1,18640(s5)
  419d10:	8fbc0018 	lw	gp,24(sp)
  419d14:	1062002b 	beq	v1,v0,419dc4 <write_param_to_flash@@Base+0x8ac>
  419d18:	3c140044 	lui	s4,0x44
  419d1c:	3c120044 	lui	s2,0x44
  419d20:	02202021 	move	a0,s1
[31m  419d24:	8f998154 	lw	t9,sprintf[0m
  419d28:	269484c0 	addiu	s4,s4,-31552
  419d2c:	2652830c 	addiu	s2,s2,-31988
--
  419d38:	266684d8 	addiu	a2,s3,-31528
  419d3c:	26070188 	addiu	a3,s0,392
  419d40:	0320f809 	jalr	t9
  419d44:	afb20010 	sw	s2,16(sp)
  419d48:	8fbc0018 	lw	gp,24(sp)
  419d4c:	8f998404 	lw	t9,-31740(gp)
  419d50:	0320f809 	jalr	t9
  419d54:	02202021 	move	a0,s1
  419d58:	92020660 	lbu	v0,1632(s0)
  419d5c:	8fbc0018 	lw	gp,24(sp)
  419d60:	10400018 	beqz	v0,419dc4 <write_param_to_flash@@Base+0x8ac>
  419d64:	00000000 	nop
  419d68:	8e0200c8 	lw	v0,200(s0)
  419d6c:	14400015 	bnez	v0,419dc4 <write_param_to_flash@@Base+0x8ac>
  419d70:	00000000 	nop
  419d74:	92a2496c 	lbu	v0,18796(s5)
  419d78:	10400008 	beqz	v0,419d9c <write_param_to_flash@@Base+0x884>
  419d7c:	266684d8 	addiu	a2,s3,-31528
  419d80:	8f998520 	lw	t9,-31456(gp)
  419d84:	3c050044 	lui	a1,0x44
  419d88:	02202021 	move	a0,s1
  419d8c:	0320f809 	jalr	t9
  419d90:	24a58504 	addiu	a1,a1,-31484
  419d94:	10000007 	b	419db4 <write_param_to_flash@@Base+0x89c>
  419d98:	00000000 	nop
[31m  419d9c:	8f998154 	lw	t9,sprintf[0m
  419da0:	02802821 	move	a1,s4
  419da4:	afb20010 	sw	s2,16(sp)
--
  41a54c:	3c160044 	lui	s6,0x44
  41a550:	00a09821 	move	s3,a1
  41a554:	26f78550 	addiu	s7,s7,-31408
  41a558:	00c0a021 	move	s4,a2
  41a55c:	26d68b44 	addiu	s6,s6,-29884
  41a560:	00008021 	move	s0,zero
  41a564:	a0c00000 	sb	zero,0(a2)
  41a568:	00809021 	move	s2,a0
  41a56c:	24b5ffff 	addiu	s5,a1,-1
  41a570:	1000000e 	b	41a5ac <convert_bin_to_str_UPnP@@Base+0x98>
  41a574:	27b10018 	addiu	s1,sp,24
  41a578:	92460000 	lbu	a2,0(s2)
  41a57c:	12150002 	beq	s0,s5,41a588 <convert_bin_to_str_UPnP@@Base+0x74>
  41a580:	02c02821 	move	a1,s6
  41a584:	02e02821 	move	a1,s7
  41a588:	0320f809 	jalr	t9
  41a58c:	26100001 	addiu	s0,s0,1
  41a590:	02802021 	move	a0,s4
  41a594:	8fbc0010 	lw	gp,16(sp)
  41a598:	02202821 	move	a1,s1
  41a59c:	8f9982ec 	lw	t9,-32020(gp)
  41a5a0:	0320f809 	jalr	t9
  41a5a4:	26520001 	addiu	s2,s2,1
  41a5a8:	8fbc0010 	lw	gp,16(sp)
  41a5ac:	0213102a 	slt	v0,s0,s3
[31m  41a5b0:	8f998154 	lw	t9,sprintf[0m
  41a5b4:	1440fff0 	bnez	v0,41a578 <convert_bin_to_str_UPnP@@Base+0x64>
  41a5b8:	02202021 	move	a0,s1
--
  41a608:	3c1c0045 	lui	gp,0x45
  41a60c:	279c75d0 	addiu	gp,gp,30160
  41a610:	afbc0010 	sw	gp,16(sp)
  41a614:	3c140044 	lui	s4,0x44
  41a618:	00c09021 	move	s2,a2
  41a61c:	00008021 	move	s0,zero
  41a620:	26948b44 	addiu	s4,s4,-29884
  41a624:	0080a821 	move	s5,a0
  41a628:	a0c00000 	sb	zero,0(a2)
  41a62c:	27b10018 	addiu	s1,sp,24
  41a630:	1000000a 	b	41a65c <convert_bin_to_str@@Base+0x74>
  41a634:	00a09821 	move	s3,a1
  41a638:	90660000 	lbu	a2,0(v1)
  41a63c:	0320f809 	jalr	t9
  41a640:	00000000 	nop
  41a644:	02402021 	move	a0,s2
  41a648:	8fbc0010 	lw	gp,16(sp)
  41a64c:	8f9982ec 	lw	t9,-32020(gp)
  41a650:	0320f809 	jalr	t9
  41a654:	02202821 	move	a1,s1
  41a658:	8fbc0010 	lw	gp,16(sp)
  41a65c:	0213102a 	slt	v0,s0,s3
  41a660:	02b01821 	addu	v1,s5,s0
  41a664:	26100001 	addiu	s0,s0,1
  41a668:	02202021 	move	a0,s1
[31m  41a66c:	8f998154 	lw	t9,sprintf[0m
  41a670:	1440fff1 	bnez	v0,41a638 <convert_bin_to_str@@Base+0x50>
  41a674:	02802821 	move	a1,s4
--
  41ad5c:	8c45fb44 	lw	a1,-1212(v0)
  41ad60:	0320f809 	jalr	t9
  41ad64:	02002021 	move	a0,s0
  41ad68:	8fbc0018 	lw	gp,24(sp)
  41ad6c:	14400026 	bnez	v0,41ae08 <WSCUpnpStop@@Base+0x59c>
  41ad70:	00009821 	move	s3,zero
  41ad74:	8f998400 	lw	t9,-31744(gp)
  41ad78:	0320f809 	jalr	t9
  41ad7c:	240400dc 	li	a0,220
  41ad80:	8fbc0018 	lw	gp,24(sp)
  41ad84:	00408821 	move	s1,v0
  41ad88:	1040001f 	beqz	v0,41ae08 <WSCUpnpStop@@Base+0x59c>
  41ad8c:	00409821 	move	s3,v0
  41ad90:	8f9981bc 	lw	t9,-32324(gp)
  41ad94:	00402021 	move	a0,v0
  41ad98:	00002821 	move	a1,zero
  41ad9c:	0320f809 	jalr	t9
  41ada0:	240600dc 	li	a2,220
  41ada4:	3c020044 	lui	v0,0x44
  41ada8:	02202021 	move	a0,s1
  41adac:	8fbc0018 	lw	gp,24(sp)
  41adb0:	244285b4 	addiu	v0,v0,-31308
  41adb4:	3c050044 	lui	a1,0x44
  41adb8:	3c070044 	lui	a3,0x44
  41adbc:	00403021 	move	a2,v0
[31m  41adc0:	8f998154 	lw	t9,sprintf[0m
  41adc4:	24a58588 	addiu	a1,a1,-31352
  41adc8:	24e785c4 	addiu	a3,a3,-31292
--
  41af68:	3c030045 	lui	v1,0x45
  41af6c:	02021021 	addu	v0,s0,v0
  41af70:	8c65fb44 	lw	a1,-1212(v1)
  41af74:	0320f809 	jalr	t9
  41af78:	a0400008 	sb	zero,8(v0)
  41af7c:	8fbc0018 	lw	gp,24(sp)
  41af80:	1440004d 	bnez	v0,41b0b8 <WSCUpnpStop@@Base+0x84c>
  41af84:	00009021 	move	s2,zero
  41af88:	8e050030 	lw	a1,48(s0)
  41af8c:	24a2ffff 	addiu	v0,a1,-1
  41af90:	2c420640 	sltiu	v0,v0,1600
  41af94:	10400049 	beqz	v0,41b0bc <WSCUpnpStop@@Base+0x850>
  41af98:	00008821 	move	s1,zero
  41af9c:	8f998508 	lw	t9,-31480(gp)
  41afa0:	8e04002c 	lw	a0,44(s0)
  41afa4:	0320f809 	jalr	t9
  41afa8:	27a60020 	addiu	a2,sp,32
  41afac:	8fbc0018 	lw	gp,24(sp)
  41afb0:	24440020 	addiu	a0,v0,32
  41afb4:	8f998400 	lw	t9,-31744(gp)
  41afb8:	0320f809 	jalr	t9
  41afbc:	0040a021 	move	s4,v0
  41afc0:	8fbc0018 	lw	gp,24(sp)
  41afc4:	1040003d 	beqz	v0,41b0bc <WSCUpnpStop@@Base+0x850>
  41afc8:	00409021 	move	s2,v0
[31m  41afcc:	8f998154 	lw	t9,sprintf[0m
  41afd0:	3c050044 	lui	a1,0x44
  41afd4:	00402021 	move	a0,v0
  41afd8:	8fa60020 	lw	a2,32(sp)
  41afdc:	24a585f4 	addiu	a1,a1,-31244
  41afe0:	0320f809 	jalr	t9
  41afe4:	26940094 	addiu	s4,s4,148
  41afe8:	8fbc0018 	lw	gp,24(sp)
  41afec:	8f998400 	lw	t9,-31744(gp)
  41aff0:	0320f809 	jalr	t9
  41aff4:	02802021 	move	a0,s4
  41aff8:	8fbc0018 	lw	gp,24(sp)
  41affc:	1040002f 	beqz	v0,41b0bc <WSCUpnpStop@@Base+0x850>
  41b000:	00408821 	move	s1,v0
  41b004:	8f9981bc 	lw	t9,-32324(gp)
  41b008:	02803021 	move	a2,s4
  41b00c:	00002821 	move	a1,zero
  41b010:	0320f809 	jalr	t9
  41b014:	00402021 	move	a0,v0
  41b018:	3c020044 	lui	v0,0x44
  41b01c:	02202021 	move	a0,s1
  41b020:	8fbc0018 	lw	gp,24(sp)
  41b024:	24428648 	addiu	v0,v0,-31160
  41b028:	3c050044 	lui	a1,0x44
  41b02c:	3c070044 	lui	a3,0x44
  41b030:	00403021 	move	a2,v0
[31m  41b034:	8f998154 	lw	t9,sprintf[0m
  41b038:	24a58618 	addiu	a1,a1,-31208
  41b03c:	24e785c4 	addiu	a3,a3,-31292
--
  41b2ec:	3c030045 	lui	v1,0x45
  41b2f0:	8c42fb4c 	lw	v0,-1204(v0)
  41b2f4:	afa00018 	sw	zero,24(sp)
  41b2f8:	8c73fb44 	lw	s3,-1212(v1)
  41b2fc:	14400049 	bnez	v0,41b424 <WSCUpnpTxmit@@Base+0x190>
  41b300:	2411ffff 	li	s1,-1
  41b304:	8c910030 	lw	s1,48(a0)
  41b308:	2622ffff 	addiu	v0,s1,-1
  41b30c:	2c420640 	sltiu	v0,v0,1600
  41b310:	1040003e 	beqz	v0,41b40c <WSCUpnpTxmit@@Base+0x178>
  41b314:	00000000 	nop
  41b318:	8c820000 	lw	v0,0(a0)
  41b31c:	2442ffff 	addiu	v0,v0,-1
  41b320:	2c420002 	sltiu	v0,v0,2
  41b324:	10400039 	beqz	v0,41b40c <WSCUpnpTxmit@@Base+0x178>
  41b328:	00000000 	nop
  41b32c:	8f998400 	lw	t9,-31744(gp)
  41b330:	26310012 	addiu	s1,s1,18
  41b334:	0320f809 	jalr	t9
  41b338:	02202021 	move	a0,s1
  41b33c:	8fbc0010 	lw	gp,16(sp)
  41b340:	10400032 	beqz	v0,41b40c <WSCUpnpTxmit@@Base+0x178>
  41b344:	00409021 	move	s2,v0
  41b348:	8e020000 	lw	v0,0(s0)
  41b34c:	26440001 	addiu	a0,s2,1
[31m  41b350:	8f998154 	lw	t9,sprintf[0m
  41b354:	26050019 	addiu	a1,s0,25
  41b358:	0320f809 	jalr	t9
--
  41b7c0:	3c020045 	lui	v0,0x45
  41b7c4:	8c45fb44 	lw	a1,-1212(v0)
  41b7c8:	0320f809 	jalr	t9
  41b7cc:	02002021 	move	a0,s0
  41b7d0:	8fbc0018 	lw	gp,24(sp)
  41b7d4:	14400049 	bnez	v0,41b8fc <WSCUpnpTxmit@@Base+0x668>
  41b7d8:	00009021 	move	s2,zero
  41b7dc:	8e050030 	lw	a1,48(s0)
  41b7e0:	2ca20641 	sltiu	v0,a1,1601
  41b7e4:	10400046 	beqz	v0,41b900 <WSCUpnpTxmit@@Base+0x66c>
  41b7e8:	00008821 	move	s1,zero
  41b7ec:	8f998508 	lw	t9,-31480(gp)
  41b7f0:	8e04002c 	lw	a0,44(s0)
  41b7f4:	0320f809 	jalr	t9
  41b7f8:	27a60020 	addiu	a2,sp,32
  41b7fc:	8fbc0018 	lw	gp,24(sp)
  41b800:	2455001f 	addiu	s5,v0,31
  41b804:	8f998400 	lw	t9,-31744(gp)
  41b808:	0320f809 	jalr	t9
  41b80c:	02a02021 	move	a0,s5
  41b810:	8fbc0018 	lw	gp,24(sp)
  41b814:	00409021 	move	s2,v0
  41b818:	10400039 	beqz	v0,41b900 <WSCUpnpTxmit@@Base+0x66c>
  41b81c:	0040a021 	move	s4,v0
  41b820:	8fa70020 	lw	a3,32(sp)
[31m  41b824:	8f998154 	lw	t9,sprintf[0m
  41b828:	10e00009 	beqz	a3,41b850 <WSCUpnpTxmit@@Base+0x5bc>
  41b82c:	3c060044 	lui	a2,0x44
--
  41b858:	00402021 	move	a0,v0
  41b85c:	24a586c0 	addiu	a1,a1,-31040
  41b860:	0320f809 	jalr	t9
  41b864:	00c03821 	move	a3,a2
  41b868:	8fbc0018 	lw	gp,24(sp)
  41b86c:	26a600d2 	addiu	a2,s5,210
  41b870:	00c02021 	move	a0,a2
  41b874:	8f998400 	lw	t9,-31744(gp)
  41b878:	0320f809 	jalr	t9
  41b87c:	afa60070 	sw	a2,112(sp)
  41b880:	8fbc0018 	lw	gp,24(sp)
  41b884:	8fa60070 	lw	a2,112(sp)
  41b888:	1040001d 	beqz	v0,41b900 <WSCUpnpTxmit@@Base+0x66c>
  41b88c:	00408821 	move	s1,v0
  41b890:	8f9981bc 	lw	t9,-32324(gp)
  41b894:	00002821 	move	a1,zero
  41b898:	0320f809 	jalr	t9
  41b89c:	00402021 	move	a0,v0
  41b8a0:	3c020044 	lui	v0,0x44
  41b8a4:	02202021 	move	a0,s1
  41b8a8:	8fbc0018 	lw	gp,24(sp)
  41b8ac:	244286cc 	addiu	v0,v0,-31028
  41b8b0:	3c050044 	lui	a1,0x44
  41b8b4:	3c070044 	lui	a3,0x44
  41b8b8:	00403021 	move	a2,v0
[31m  41b8bc:	8f998154 	lw	t9,sprintf[0m
  41b8c0:	24a58618 	addiu	a1,a1,-31208
  41b8c4:	24e785c4 	addiu	a3,a3,-31292
--
  41bad0:	02802821 	move	a1,s4
  41bad4:	8fbc0048 	lw	gp,72(sp)
  41bad8:	24060011 	li	a2,17
  41badc:	8e422184 	lw	v0,8580(s2)
  41bae0:	8f998438 	lw	t9,-31688(gp)
  41bae4:	0320f809 	jalr	t9
  41bae8:	ae4220a4 	sw	v0,8356(s2)
  41baec:	240200b4 	li	v0,180
  41baf0:	02803021 	move	a2,s4
  41baf4:	8fbc0048 	lw	gp,72(sp)
  41baf8:	3c050044 	lui	a1,0x44
  41bafc:	a6422174 	sh	v0,8564(s2)
  41bb00:	240200b7 	li	v0,183
  41bb04:	a6422176 	sh	v0,8566(s2)
  41bb08:	3c020042 	lui	v0,0x42
  41bb0c:	2442b0fc 	addiu	v0,v0,-20228
  41bb10:	24a586d8 	addiu	a1,a1,-31016
  41bb14:	ae422178 	sw	v0,8568(s2)
  41bb18:	3c020045 	lui	v0,0x45
  41bb1c:	2442f014 	addiu	v0,v0,-4076
  41bb20:	27a40094 	addiu	a0,sp,148
  41bb24:	ae422088 	sw	v0,8328(s2)
  41bb28:	3c020045 	lui	v0,0x45
  41bb2c:	8e472184 	lw	a3,8580(s2)
  41bb30:	2442f03c 	addiu	v0,v0,-4036
[31m  41bb34:	8f998154 	lw	t9,sprintf[0m
  41bb38:	ae42208c 	sw	v0,8332(s2)
  41bb3c:	0320f809 	jalr	t9
  41bb40:	afb10010 	sw	s1,16(sp)
  41bb44:	3c050044 	lui	a1,0x44
  41bb48:	02203021 	move	a2,s1
  41bb4c:	8fbc0048 	lw	gp,72(sp)
  41bb50:	24a586f8 	addiu	a1,a1,-30984
  41bb54:	02002021 	move	a0,s0
  41bb58:	afa00058 	sw	zero,88(sp)
[31m  41bb5c:	8f998154 	lw	t9,sprintf[0m
  41bb60:	ae000004 	sw	zero,4(s0)
  41bb64:	ae000008 	sw	zero,8(s0)
  41bb68:	ae00000c 	sw	zero,12(s0)
  41bb6c:	0320f809 	jalr	t9
  41bb70:	ae000010 	sw	zero,16(s0)
  41bb74:	8fbc0048 	lw	gp,72(sp)
  41bb78:	8e562184 	lw	s6,8580(s2)
  41bb7c:	8f998400 	lw	t9,-31744(gp)
  41bb80:	0320f809 	jalr	t9
  41bb84:	24040100 	li	a0,256
  41bb88:	8fbc0048 	lw	gp,72(sp)
  41bb8c:	104001e7 	beqz	v0,41c32c <WSCUpnpStart@@Base+0x97c>
  41bb90:	0040a821 	move	s5,v0
  41bb94:	8f998400 	lw	t9,-31744(gp)
  41bb98:	0320f809 	jalr	t9
  41bb9c:	24040100 	li	a0,256
  41bba0:	8fbc0048 	lw	gp,72(sp)
  41bba4:	14400004 	bnez	v0,41bbb8 <WSCUpnpStart@@Base+0x208>
  41bba8:	00408821 	move	s1,v0
  41bbac:	8f998048 	lw	t9,-32696(gp)
  41bbb0:	10000018 	b	41bc14 <WSCUpnpStart@@Base+0x264>
  41bbb4:	02a02021 	move	a0,s5
[31m  41bbb8:	8f998154 	lw	t9,sprintf[0m
  41bbbc:	3c050044 	lui	a1,0x44
  41bbc0:	02003821 	move	a3,s0
--
  41bc7c:	0320f809 	jalr	t9
  41bc80:	2484875c 	addiu	a0,a0,-30884
  41bc84:	3c040044 	lui	a0,0x44
  41bc88:	02002821 	move	a1,s0
  41bc8c:	8fbc0048 	lw	gp,72(sp)
  41bc90:	8f99808c 	lw	t9,-32628(gp)
  41bc94:	0320f809 	jalr	t9
  41bc98:	2484876c 	addiu	a0,a0,-30868
  41bc9c:	3c040044 	lui	a0,0x44
  41bca0:	02002821 	move	a1,s0
  41bca4:	8fbc0048 	lw	gp,72(sp)
  41bca8:	8f99808c 	lw	t9,-32628(gp)
  41bcac:	0320f809 	jalr	t9
  41bcb0:	24848780 	addiu	a0,a0,-30848
  41bcb4:	3c040044 	lui	a0,0x44
  41bcb8:	02002821 	move	a1,s0
  41bcbc:	8fbc0048 	lw	gp,72(sp)
  41bcc0:	8f99808c 	lw	t9,-32628(gp)
  41bcc4:	0320f809 	jalr	t9
  41bcc8:	24848794 	addiu	a0,a0,-30828
  41bccc:	3c050044 	lui	a1,0x44
  41bcd0:	02c03821 	move	a3,s6
  41bcd4:	8fbc0048 	lw	gp,72(sp)
  41bcd8:	02803021 	move	a2,s4
  41bcdc:	24a587a8 	addiu	a1,a1,-30808
[31m  41bce0:	8f998154 	lw	t9,sprintf[0m
  41bce4:	0320f809 	jalr	t9
  41bce8:	02202021 	move	a0,s1
--
  41bd10:	0320f809 	jalr	t9
  41bd14:	00002821 	move	a1,zero
  41bd18:	3c040044 	lui	a0,0x44
  41bd1c:	02002821 	move	a1,s0
  41bd20:	8fbc0048 	lw	gp,72(sp)
  41bd24:	8f99808c 	lw	t9,-32628(gp)
  41bd28:	0320f809 	jalr	t9
  41bd2c:	248487cc 	addiu	a0,a0,-30772
  41bd30:	3c040044 	lui	a0,0x44
  41bd34:	02002821 	move	a1,s0
  41bd38:	8fbc0048 	lw	gp,72(sp)
  41bd3c:	8f99808c 	lw	t9,-32628(gp)
  41bd40:	0320f809 	jalr	t9
  41bd44:	248487d8 	addiu	a0,a0,-30760
  41bd48:	8e660020 	lw	a2,32(s3)
  41bd4c:	8fbc0048 	lw	gp,72(sp)
  41bd50:	14c00008 	bnez	a2,41bd74 <WSCUpnpStart@@Base+0x3c4>
  41bd54:	3c050044 	lui	a1,0x44
  41bd58:	8f99808c 	lw	t9,-32628(gp)
  41bd5c:	3c040044 	lui	a0,0x44
  41bd60:	02002821 	move	a1,s0
  41bd64:	0320f809 	jalr	t9
  41bd68:	24848824 	addiu	a0,a0,-30684
  41bd6c:	10000010 	b	41bdb0 <WSCUpnpStart@@Base+0x400>
  41bd70:	00000000 	nop
[31m  41bd74:	8f998154 	lw	t9,sprintf[0m
  41bd78:	02202021 	move	a0,s1
  41bd7c:	0320f809 	jalr	t9
  41bd80:	24a5885c 	addiu	a1,a1,-30628
  41bd84:	02202021 	move	a0,s1
  41bd88:	8fbc0048 	lw	gp,72(sp)
  41bd8c:	8f99808c 	lw	t9,-32628(gp)
  41bd90:	0320f809 	jalr	t9
  41bd94:	02002821 	move	a1,s0
  41bd98:	02202021 	move	a0,s1
  41bd9c:	00002821 	move	a1,zero
  41bda0:	8fbc0048 	lw	gp,72(sp)
  41bda4:	8f9981bc 	lw	t9,-32324(gp)
  41bda8:	0320f809 	jalr	t9
  41bdac:	24060100 	li	a2,256
  41bdb0:	8e660010 	lw	a2,16(s3)
  41bdb4:	8fbc0048 	lw	gp,72(sp)
  41bdb8:	14c00008 	bnez	a2,41bddc <WSCUpnpStart@@Base+0x42c>
  41bdbc:	3c050044 	lui	a1,0x44
  41bdc0:	8f99808c 	lw	t9,-32628(gp)
  41bdc4:	3c040044 	lui	a0,0x44
  41bdc8:	02002821 	move	a1,s0
  41bdcc:	0320f809 	jalr	t9
  41bdd0:	24848880 	addiu	a0,a0,-30592
  41bdd4:	10000010 	b	41be18 <WSCUpnpStart@@Base+0x468>
  41bdd8:	00000000 	nop
[31m  41bddc:	8f998154 	lw	t9,sprintf[0m
  41bde0:	02202021 	move	a0,s1
  41bde4:	0320f809 	jalr	t9
  41bde8:	24a588b8 	addiu	a1,a1,-30536
  41bdec:	02202021 	move	a0,s1
  41bdf0:	8fbc0048 	lw	gp,72(sp)
  41bdf4:	8f99808c 	lw	t9,-32628(gp)
  41bdf8:	0320f809 	jalr	t9
  41bdfc:	02002821 	move	a1,s0
  41be00:	02202021 	move	a0,s1
  41be04:	00002821 	move	a1,zero
  41be08:	8fbc0048 	lw	gp,72(sp)
  41be0c:	8f9981bc 	lw	t9,-32324(gp)
  41be10:	0320f809 	jalr	t9
  41be14:	24060100 	li	a2,256
  41be18:	8e660024 	lw	a2,36(s3)
  41be1c:	8fbc0048 	lw	gp,72(sp)
  41be20:	14c00008 	bnez	a2,41be44 <WSCUpnpStart@@Base+0x494>
  41be24:	3c050044 	lui	a1,0x44
  41be28:	8f99808c 	lw	t9,-32628(gp)
  41be2c:	3c040044 	lui	a0,0x44
  41be30:	02002821 	move	a1,s0
  41be34:	0320f809 	jalr	t9
  41be38:	248488dc 	addiu	a0,a0,-30500
  41be3c:	10000010 	b	41be80 <WSCUpnpStart@@Base+0x4d0>
  41be40:	00000000 	nop
[31m  41be44:	8f998154 	lw	t9,sprintf[0m
  41be48:	02202021 	move	a0,s1
  41be4c:	0320f809 	jalr	t9
  41be50:	24a5891c 	addiu	a1,a1,-30436
  41be54:	02202021 	move	a0,s1
  41be58:	8fbc0048 	lw	gp,72(sp)
  41be5c:	8f99808c 	lw	t9,-32628(gp)
  41be60:	0320f809 	jalr	t9
  41be64:	02002821 	move	a1,s0
  41be68:	02202021 	move	a0,s1
  41be6c:	00002821 	move	a1,zero
  41be70:	8fbc0048 	lw	gp,72(sp)
  41be74:	8f9981bc 	lw	t9,-32324(gp)
  41be78:	0320f809 	jalr	t9
  41be7c:	24060100 	li	a2,256
  41be80:	8e660028 	lw	a2,40(s3)
  41be84:	8fbc0048 	lw	gp,72(sp)
  41be88:	14c00008 	bnez	a2,41beac <WSCUpnpStart@@Base+0x4fc>
  41be8c:	3c050044 	lui	a1,0x44
  41be90:	8f99808c 	lw	t9,-32628(gp)
  41be94:	3c040044 	lui	a0,0x44
  41be98:	02002821 	move	a1,s0
  41be9c:	0320f809 	jalr	t9
  41bea0:	24848948 	addiu	a0,a0,-30392
  41bea4:	10000010 	b	41bee8 <WSCUpnpStart@@Base+0x538>
  41bea8:	00000000 	nop
[31m  41beac:	8f998154 	lw	t9,sprintf[0m
  41beb0:	02202021 	move	a0,s1
  41beb4:	0320f809 	jalr	t9
  41beb8:	24a5898c 	addiu	a1,a1,-30324
  41bebc:	02202021 	move	a0,s1
  41bec0:	8fbc0048 	lw	gp,72(sp)
  41bec4:	8f99808c 	lw	t9,-32628(gp)
  41bec8:	0320f809 	jalr	t9
  41becc:	02002821 	move	a1,s0
  41bed0:	02202021 	move	a0,s1
  41bed4:	00002821 	move	a1,zero
  41bed8:	8fbc0048 	lw	gp,72(sp)
  41bedc:	8f9981bc 	lw	t9,-32324(gp)
  41bee0:	0320f809 	jalr	t9
  41bee4:	24060100 	li	a2,256
  41bee8:	8e660014 	lw	a2,20(s3)
  41beec:	8fbc0048 	lw	gp,72(sp)
  41bef0:	14c00008 	bnez	a2,41bf14 <WSCUpnpStart@@Base+0x564>
  41bef4:	3c050044 	lui	a1,0x44
  41bef8:	8f99808c 	lw	t9,-32628(gp)
  41befc:	3c040044 	lui	a0,0x44
  41bf00:	02002821 	move	a1,s0
  41bf04:	0320f809 	jalr	t9
  41bf08:	248489b8 	addiu	a0,a0,-30280
  41bf0c:	10000010 	b	41bf50 <WSCUpnpStart@@Base+0x5a0>
  41bf10:	00000000 	nop
[31m  41bf14:	8f998154 	lw	t9,sprintf[0m
  41bf18:	02202021 	move	a0,s1
  41bf1c:	0320f809 	jalr	t9
  41bf20:	24a589f8 	addiu	a1,a1,-30216
  41bf24:	02202021 	move	a0,s1
  41bf28:	8fbc0048 	lw	gp,72(sp)
  41bf2c:	8f99808c 	lw	t9,-32628(gp)
  41bf30:	0320f809 	jalr	t9
  41bf34:	02002821 	move	a1,s0
  41bf38:	02202021 	move	a0,s1
  41bf3c:	00002821 	move	a1,zero
  41bf40:	8fbc0048 	lw	gp,72(sp)
  41bf44:	8f9981bc 	lw	t9,-32324(gp)
  41bf48:	0320f809 	jalr	t9
  41bf4c:	24060100 	li	a2,256
  41bf50:	8e660018 	lw	a2,24(s3)
  41bf54:	8fbc0048 	lw	gp,72(sp)
  41bf58:	14c00008 	bnez	a2,41bf7c <WSCUpnpStart@@Base+0x5cc>
  41bf5c:	3c050044 	lui	a1,0x44
  41bf60:	8f99808c 	lw	t9,-32628(gp)
  41bf64:	3c040044 	lui	a0,0x44
  41bf68:	02002821 	move	a1,s0
  41bf6c:	0320f809 	jalr	t9
  41bf70:	24848a18 	addiu	a0,a0,-30184
  41bf74:	10000010 	b	41bfb8 <WSCUpnpStart@@Base+0x608>
  41bf78:	00000000 	nop
[31m  41bf7c:	8f998154 	lw	t9,sprintf[0m
  41bf80:	02202021 	move	a0,s1
  41bf84:	0320f809 	jalr	t9
  41bf88:	24a58a40 	addiu	a1,a1,-30144
  41bf8c:	02202021 	move	a0,s1
  41bf90:	8fbc0048 	lw	gp,72(sp)
  41bf94:	8f99808c 	lw	t9,-32628(gp)
  41bf98:	0320f809 	jalr	t9
  41bf9c:	02002821 	move	a1,s0
  41bfa0:	02202021 	move	a0,s1
  41bfa4:	00002821 	move	a1,zero
  41bfa8:	8fbc0048 	lw	gp,72(sp)
  41bfac:	8f9981bc 	lw	t9,-32324(gp)
  41bfb0:	0320f809 	jalr	t9
  41bfb4:	24060100 	li	a2,256
  41bfb8:	8e66002c 	lw	a2,44(s3)
  41bfbc:	8fbc0048 	lw	gp,72(sp)
  41bfc0:	14c00008 	bnez	a2,41bfe4 <WSCUpnpStart@@Base+0x634>
  41bfc4:	3c050044 	lui	a1,0x44
  41bfc8:	8f99808c 	lw	t9,-32628(gp)
  41bfcc:	3c040044 	lui	a0,0x44
  41bfd0:	02002821 	move	a1,s0
  41bfd4:	0320f809 	jalr	t9
  41bfd8:	24848a64 	addiu	a0,a0,-30108
  41bfdc:	10000010 	b	41c020 <WSCUpnpStart@@Base+0x670>
  41bfe0:	00000000 	nop
[31m  41bfe4:	8f998154 	lw	t9,sprintf[0m
  41bfe8:	02202021 	move	a0,s1
  41bfec:	0320f809 	jalr	t9
  41bff0:	24a58a98 	addiu	a1,a1,-30056
  41bff4:	02202021 	move	a0,s1
  41bff8:	8fbc0048 	lw	gp,72(sp)
  41bffc:	8f99808c 	lw	t9,-32628(gp)
  41c000:	0320f809 	jalr	t9
  41c004:	02002821 	move	a1,s0
  41c008:	02202021 	move	a0,s1
  41c00c:	00002821 	move	a1,zero
  41c010:	8fbc0048 	lw	gp,72(sp)
  41c014:	8f9981bc 	lw	t9,-32324(gp)
  41c018:	0320f809 	jalr	t9
  41c01c:	24060100 	li	a2,256
  41c020:	8e66001c 	lw	a2,28(s3)
  41c024:	8fbc0048 	lw	gp,72(sp)
  41c028:	14c00008 	bnez	a2,41c04c <WSCUpnpStart@@Base+0x69c>
  41c02c:	00000000 	nop
  41c030:	8f99808c 	lw	t9,-32628(gp)
  41c034:	3c040044 	lui	a0,0x44
  41c038:	02002821 	move	a1,s0
  41c03c:	0320f809 	jalr	t9
  41c040:	24848ab4 	addiu	a0,a0,-30028
  41c044:	10000011 	b	41c08c <WSCUpnpStart@@Base+0x6dc>
  41c048:	00000000 	nop
[31m  41c04c:	8f998154 	lw	t9,sprintf[0m
  41c050:	3c050044 	lui	a1,0x44
  41c054:	02202021 	move	a0,s1
--
  41c07c:	8fbc0048 	lw	gp,72(sp)
  41c080:	8f9981bc 	lw	t9,-32324(gp)
  41c084:	0320f809 	jalr	t9
  41c088:	24060100 	li	a2,256
  41c08c:	8fbc0048 	lw	gp,72(sp)
  41c090:	27b6006c 	addiu	s6,sp,108
  41c094:	927f0002 	lbu	ra,2(s3)
  41c098:	3c050044 	lui	a1,0x44
  41c09c:	02c02021 	move	a0,s6
  41c0a0:	92780003 	lbu	t8,3(s3)
  41c0a4:	24a58b04 	addiu	a1,a1,-29948
  41c0a8:	926f0004 	lbu	t7,4(s3)
  41c0ac:	926e0005 	lbu	t6,5(s3)
  41c0b0:	926d0006 	lbu	t5,6(s3)
  41c0b4:	926c0007 	lbu	t4,7(s3)
  41c0b8:	926b0008 	lbu	t3,8(s3)
  41c0bc:	926a0009 	lbu	t2,9(s3)
  41c0c0:	9269000a 	lbu	t1,10(s3)
  41c0c4:	9268000b 	lbu	t0,11(s3)
  41c0c8:	9263000c 	lbu	v1,12(s3)
  41c0cc:	9262000d 	lbu	v0,13(s3)
  41c0d0:	9277000e 	lbu	s7,14(s3)
  41c0d4:	927e000f 	lbu	s8,15(s3)
  41c0d8:	92670001 	lbu	a3,1(s3)
  41c0dc:	92660000 	lbu	a2,0(s3)
[31m  41c0e0:	8f998154 	lw	t9,sprintf[0m
  41c0e4:	afbf0010 	sw	ra,16(sp)
  41c0e8:	afb80014 	sw	t8,20(sp)
  41c0ec:	afaf0018 	sw	t7,24(sp)
  41c0f0:	afae001c 	sw	t6,28(sp)
  41c0f4:	afad0020 	sw	t5,32(sp)
  41c0f8:	afac0024 	sw	t4,36(sp)
  41c0fc:	afab0028 	sw	t3,40(sp)
  41c100:	afaa002c 	sw	t2,44(sp)
  41c104:	afa90030 	sw	t1,48(sp)
  41c108:	afa80034 	sw	t0,52(sp)
  41c10c:	afa30038 	sw	v1,56(sp)
  41c110:	afa2003c 	sw	v0,60(sp)
  41c114:	afb70040 	sw	s7,64(sp)
  41c118:	0320f809 	jalr	t9
  41c11c:	afbe0044 	sw	s8,68(sp)
  41c120:	3c050044 	lui	a1,0x44
  41c124:	02c03021 	move	a2,s6
  41c128:	8fbc0048 	lw	gp,72(sp)
  41c12c:	24a58b4c 	addiu	a1,a1,-29876
[31m  41c130:	8f998154 	lw	t9,sprintf[0m
  41c134:	0320f809 	jalr	t9
  41c138:	02202021 	move	a0,s1
  41c13c:	02202021 	move	a0,s1
  41c140:	8fbc0048 	lw	gp,72(sp)
  41c144:	8f99808c 	lw	t9,-32628(gp)
  41c148:	0320f809 	jalr	t9
  41c14c:	02002821 	move	a1,s0
  41c150:	24060100 	li	a2,256
  41c154:	02202021 	move	a0,s1
  41c158:	8fbc0048 	lw	gp,72(sp)
  41c15c:	8f9981bc 	lw	t9,-32324(gp)
  41c160:	0320f809 	jalr	t9
  41c164:	00002821 	move	a1,zero
  41c168:	8e660030 	lw	a2,48(s3)
  41c16c:	8fbc0048 	lw	gp,72(sp)
  41c170:	14c00008 	bnez	a2,41c194 <WSCUpnpStart@@Base+0x7e4>
  41c174:	3c050044 	lui	a1,0x44
  41c178:	8f99808c 	lw	t9,-32628(gp)
  41c17c:	3c040044 	lui	a0,0x44
  41c180:	02002821 	move	a1,s0
  41c184:	0320f809 	jalr	t9
  41c188:	24848b64 	addiu	a0,a0,-29852
  41c18c:	10000010 	b	41c1d0 <WSCUpnpStart@@Base+0x820>
  41c190:	00000000 	nop
[31m  41c194:	8f998154 	lw	t9,sprintf[0m
  41c198:	02202021 	move	a0,s1
  41c19c:	0320f809 	jalr	t9
--
  41c3a8:	8f9984c8 	lw	t9,-31544(gp)
  41c3ac:	96452186 	lhu	a1,8582(s2)
  41c3b0:	0320f809 	jalr	t9
  41c3b4:	ae422190 	sw	v0,8592(s2)
  41c3b8:	8fbc0048 	lw	gp,72(sp)
  41c3bc:	04410005 	bgez	v0,41c3d4 <WSCUpnpStart@@Base+0xa24>
  41c3c0:	27b0006c 	addiu	s0,sp,108
  41c3c4:	3c040044 	lui	a0,0x44
  41c3c8:	8f998414 	lw	t9,-31724(gp)
  41c3cc:	1000fff1 	b	41c394 <WSCUpnpStart@@Base+0x9e4>
  41c3d0:	24848dd8 	addiu	a0,a0,-29224
  41c3d4:	8f9981bc 	lw	t9,-32324(gp)
  41c3d8:	00002821 	move	a1,zero
  41c3dc:	02002021 	move	a0,s0
  41c3e0:	24060028 	li	a2,40
  41c3e4:	ae42218c 	sw	v0,8588(s2)
  41c3e8:	0320f809 	jalr	t9
  41c3ec:	3c140044 	lui	s4,0x44
  41c3f0:	3c130044 	lui	s3,0x44
  41c3f4:	02002021 	move	a0,s0
  41c3f8:	8fbc0048 	lw	gp,72(sp)
  41c3fc:	26948e00 	addiu	s4,s4,-29184
  41c400:	3c110044 	lui	s1,0x44
  41c404:	02802821 	move	a1,s4
  41c408:	26668708 	addiu	a2,s3,-30968
[31m  41c40c:	8f998154 	lw	t9,sprintf[0m
  41c410:	0320f809 	jalr	t9
  41c414:	262786ec 	addiu	a3,s1,-30996
  41c418:	8fbc0048 	lw	gp,72(sp)
  41c41c:	8f998294 	lw	t9,-32108(gp)
  41c420:	0320f809 	jalr	t9
  41c424:	02002021 	move	a0,s0
  41c428:	8fbc0048 	lw	gp,72(sp)
  41c42c:	10400061 	beqz	v0,41c5b4 <WSCUpnpStart@@Base+0xc04>
  41c430:	ae422194 	sw	v0,8596(s2)
  41c434:	8f9980bc 	lw	t9,strlen
  41c438:	0320f809 	jalr	t9
  41c43c:	00402021 	move	a0,v0
  41c440:	02002021 	move	a0,s0
  41c444:	00002821 	move	a1,zero
  41c448:	8fbc0048 	lw	gp,72(sp)
  41c44c:	24060028 	li	a2,40
  41c450:	8f9981bc 	lw	t9,-32324(gp)
  41c454:	0320f809 	jalr	t9
  41c458:	ae422198 	sw	v0,8600(s2)
  41c45c:	3c070044 	lui	a3,0x44
  41c460:	02802821 	move	a1,s4
  41c464:	8fbc0048 	lw	gp,72(sp)
  41c468:	26668708 	addiu	a2,s3,-30968
  41c46c:	02002021 	move	a0,s0
[31m  41c470:	8f998154 	lw	t9,sprintf[0m
  41c474:	0320f809 	jalr	t9
  41c478:	24e78e0c 	addiu	a3,a3,-29172
--
  41c790:	3c020045 	lui	v0,0x45
  41c794:	8c45fb44 	lw	a1,-1212(v0)
  41c798:	0320f809 	jalr	t9
  41c79c:	02002021 	move	a0,s0
  41c7a0:	8fbc0018 	lw	gp,24(sp)
  41c7a4:	14400022 	bnez	v0,41c830 <WSCUpnpStart@@Base+0xe80>
  41c7a8:	00008821 	move	s1,zero
  41c7ac:	8f998400 	lw	t9,-31744(gp)
  41c7b0:	0320f809 	jalr	t9
  41c7b4:	240400e6 	li	a0,230
  41c7b8:	8fbc0018 	lw	gp,24(sp)
  41c7bc:	1040001c 	beqz	v0,41c830 <WSCUpnpStart@@Base+0xe80>
  41c7c0:	00408821 	move	s1,v0
  41c7c4:	8f9981bc 	lw	t9,-32324(gp)
  41c7c8:	00402021 	move	a0,v0
  41c7cc:	00002821 	move	a1,zero
  41c7d0:	0320f809 	jalr	t9
  41c7d4:	240600e6 	li	a2,230
  41c7d8:	3c020044 	lui	v0,0x44
  41c7dc:	02202021 	move	a0,s1
  41c7e0:	8fbc0018 	lw	gp,24(sp)
  41c7e4:	24428e4c 	addiu	v0,v0,-29108
  41c7e8:	3c050044 	lui	a1,0x44
  41c7ec:	3c070044 	lui	a3,0x44
  41c7f0:	00403021 	move	a2,v0
[31m  41c7f4:	8f998154 	lw	t9,sprintf[0m
  41c7f8:	24a58588 	addiu	a1,a1,-31352
  41c7fc:	24e785c4 	addiu	a3,a3,-31292
--
  431ba8:	afa00044 	sw	zero,68(sp)
  431bac:	0000a821 	move	s5,zero
  431bb0:	afa00048 	sw	zero,72(sp)
  431bb4:	26947940 	addiu	s4,s4,31040
  431bb8:	afa50054 	sw	a1,84(sp)
  431bbc:	0320f809 	jalr	t9
  431bc0:	afa0004c 	sw	zero,76(sp)
  431bc4:	8fbc0038 	lw	gp,56(sp)
  431bc8:	10000068 	b	431d6c <SendSSDPNotifies@@Base+0x28c>
  431bcc:	afa20044 	sw	v0,68(sp)
  431bd0:	24060001 	li	a2,1
  431bd4:	16260029 	bne	s1,a2,431c7c <SendSSDPNotifies@@Base+0x19c>
  431bd8:	3c050044 	lui	a1,0x44
  431bdc:	8fa70050 	lw	a3,80(sp)
  431be0:	3c020044 	lui	v0,0x44
  431be4:	3c040044 	lui	a0,0x44
  431be8:	2442db60 	addiu	v0,v0,-9376
  431bec:	2484db68 	addiu	a0,a0,-9368
  431bf0:	0087100a 	0x87100a
  431bf4:	3c060044 	lui	a2,0x44
  431bf8:	02002021 	move	a0,s0
  431bfc:	afa20028 	sw	v0,40(sp)
  431c00:	24a5db70 	addiu	a1,a1,-9360
  431c04:	8fa2009c 	lw	v0,156(sp)
  431c08:	24c6db50 	addiu	a2,a2,-9392
[31m  431c0c:	8f998154 	lw	t9,sprintf[0m
  431c10:	2407076c 	li	a3,1900
  431c14:	afa30058 	sw	v1,88(sp)
--
  431c54:	8fa50054 	lw	a1,84(sp)
  431c58:	8f998244 	lw	t9,-32188(gp)
  431c5c:	8fa40088 	lw	a0,136(sp)
  431c60:	afa50010 	sw	a1,16(sp)
  431c64:	02002821 	move	a1,s0
  431c68:	0320f809 	jalr	t9
  431c6c:	afa20014 	sw	v0,20(sp)
  431c70:	02801021 	move	v0,s4
  431c74:	8fbc0038 	lw	gp,56(sp)
  431c78:	8fa30058 	lw	v1,88(sp)
  431c7c:	8e440000 	lw	a0,0(s2)
  431c80:	3c090044 	lui	t1,0x44
  431c84:	8fa60050 	lw	a2,80(sp)
  431c88:	3c080044 	lui	t0,0x44
  431c8c:	00831821 	addu	v1,a0,v1
  431c90:	3c070044 	lui	a3,0x44
  431c94:	02002021 	move	a0,s0
  431c98:	8c630000 	lw	v1,0(v1)
  431c9c:	24e7db68 	addiu	a3,a3,-9368
  431ca0:	afa20024 	sw	v0,36(sp)
  431ca4:	2529e07c 	addiu	t1,t1,-8068
  431ca8:	8fa2009c 	lw	v0,156(sp)
  431cac:	2508db60 	addiu	t0,t0,-9376
  431cb0:	00e6400a 	0xe6400a
  431cb4:	0291480b 	0x291480b
[31m  431cb8:	8f998154 	lw	t9,sprintf[0m
  431cbc:	3c050044 	lui	a1,0x44
  431cc0:	3c060044 	lui	a2,0x44
--
  431dfc:	97b6007a 	lhu	s6,122(sp)
  431e00:	12400030 	beqz	s2,431ec4 <SendSSDPNotifies@@Base+0x3e4>
  431e04:	0080a821 	move	s5,a0
  431e08:	1280002e 	beqz	s4,431ec4 <SendSSDPNotifies@@Base+0x3e4>
  431e0c:	00000000 	nop
  431e10:	1220002c 	beqz	s1,431ec4 <SendSSDPNotifies@@Base+0x3e4>
  431e14:	00000000 	nop
  431e18:	8f998400 	lw	t9,-31744(gp)
  431e1c:	0320f809 	jalr	t9
  431e20:	24040200 	li	a0,512
  431e24:	8fbc0030 	lw	gp,48(sp)
  431e28:	10400026 	beqz	v0,431ec4 <SendSSDPNotifies@@Base+0x3e4>
  431e2c:	00408021 	move	s0,v0
  431e30:	8f9981bc 	lw	t9,-32324(gp)
  431e34:	00402021 	move	a0,v0
  431e38:	00002821 	move	a1,zero
  431e3c:	0320f809 	jalr	t9
  431e40:	24060200 	li	a2,512
  431e44:	26220004 	addiu	v0,s1,4
  431e48:	02603821 	move	a3,s3
  431e4c:	8fbc0030 	lw	gp,48(sp)
  431e50:	3c050044 	lui	a1,0x44
  431e54:	02002021 	move	a0,s0
  431e58:	8e260094 	lw	a2,148(s1)
  431e5c:	26310068 	addiu	s1,s1,104
[31m  431e60:	8f998154 	lw	t9,sprintf[0m
  431e64:	24a5dcb0 	addiu	a1,a1,-9040
  431e68:	afb10014 	sw	s1,20(sp)
--
  433498:	24060004 	li	a2,4
  43349c:	0320f809 	jalr	t9
  4334a0:	02002821 	move	a1,s0
  4334a4:	8fbc0010 	lw	gp,16(sp)
  4334a8:	14400024 	bnez	v0,43353c <IPCon_Destroy@@Base+0x24c>
  4334ac:	02e02021 	move	a0,s7
  4334b0:	26040004 	addiu	a0,s0,4
  4334b4:	2645fffc 	addiu	a1,s2,-4
  4334b8:	0c10c938 	jal	4324e0 <OpenAndConfUdpSocket@@Base+0x13c>
  4334bc:	27a60018 	addiu	a2,sp,24
  4334c0:	8fbc0010 	lw	gp,16(sp)
  4334c4:	10400127 	beqz	v0,433964 <IPCon_Destroy@@Base+0x674>
  4334c8:	0040a821 	move	s5,v0
  4334cc:	8fa20018 	lw	v0,24(sp)
  4334d0:	10400124 	beqz	v0,433964 <IPCon_Destroy@@Base+0x674>
  4334d4:	27b4001c 	addiu	s4,sp,28
  4334d8:	8f9981bc 	lw	t9,-32324(gp)
  4334dc:	00002821 	move	a1,zero
  4334e0:	02802021 	move	a0,s4
  4334e4:	0320f809 	jalr	t9
  4334e8:	2406001e 	li	a2,30
  4334ec:	3c050044 	lui	a1,0x44
  4334f0:	02802021 	move	a0,s4
  4334f4:	8fbc0010 	lw	gp,16(sp)
  4334f8:	8e660020 	lw	a2,32(s3)
[31m  4334fc:	8f998154 	lw	t9,sprintf[0m
  433500:	8cc70014 	lw	a3,20(a2)
  433504:	0320f809 	jalr	t9
--
  433a7c:	00523021 	addu	a2,v0,s2
  433a80:	8f998400 	lw	t9,-31744(gp)
  433a84:	00c02021 	move	a0,a2
  433a88:	0320f809 	jalr	t9
  433a8c:	afa60020 	sw	a2,32(sp)
  433a90:	00002821 	move	a1,zero
  433a94:	8fbc0018 	lw	gp,24(sp)
  433a98:	00409021 	move	s2,v0
  433a9c:	8fa60020 	lw	a2,32(sp)
  433aa0:	8f9981bc 	lw	t9,-32324(gp)
  433aa4:	14400007 	bnez	v0,433ac4 <IPCon_Destroy@@Base+0x7d4>
  433aa8:	00402021 	move	a0,v0
  433aac:	8f998048 	lw	t9,-32696(gp)
  433ab0:	02202021 	move	a0,s1
  433ab4:	0320f809 	jalr	t9
  433ab8:	00009821 	move	s3,zero
  433abc:	1000001f 	b	433b3c <IPCon_Destroy@@Base+0x84c>
  433ac0:	02601021 	move	v0,s3
  433ac4:	0320f809 	jalr	t9
  433ac8:	00000000 	nop
  433acc:	02402021 	move	a0,s2
  433ad0:	8fbc0018 	lw	gp,24(sp)
  433ad4:	02c02821 	move	a1,s6
  433ad8:	8e020000 	lw	v0,0(s0)
  433adc:	8e070004 	lw	a3,4(s0)
[31m  433ae0:	8f998154 	lw	t9,sprintf[0m
  433ae4:	00403021 	move	a2,v0
  433ae8:	0320f809 	jalr	t9
--
  433e18:	afb20020 	sw	s2,32(sp)
  433e1c:	afb1001c 	sw	s1,28(sp)
  433e20:	afb00018 	sw	s0,24(sp)
  433e24:	3c1c0045 	lui	gp,0x45
  433e28:	279c75d0 	addiu	gp,gp,30160
  433e2c:	afbc0010 	sw	gp,16(sp)
  433e30:	8f998400 	lw	t9,-31744(gp)
  433e34:	00808821 	move	s1,a0
  433e38:	2404012c 	li	a0,300
  433e3c:	0320f809 	jalr	t9
  433e40:	00a09021 	move	s2,a1
  433e44:	2403ff9a 	li	v1,-102
  433e48:	8fbc0010 	lw	gp,16(sp)
  433e4c:	1040001a 	beqz	v0,433eb8 <SendResp_upnphttp@@Base+0x1a4>
  433e50:	00408021 	move	s0,v0
  433e54:	8f9981bc 	lw	t9,-32324(gp)
  433e58:	00402021 	move	a0,v0
  433e5c:	00002821 	move	a1,zero
  433e60:	0320f809 	jalr	t9
  433e64:	2406012c 	li	a2,300
  433e68:	3c050044 	lui	a1,0x44
  433e6c:	02002021 	move	a0,s0
  433e70:	8fbc0010 	lw	gp,16(sp)
  433e74:	24a5de2c 	addiu	a1,a1,-8660
  433e78:	8e220020 	lw	v0,32(s1)
[31m  433e7c:	8f998154 	lw	t9,sprintf[0m
  433e80:	944700e4 	lhu	a3,228(v0)
  433e84:	0320f809 	jalr	t9
--
  434464:	2406002c 	li	a2,44
  434468:	0320f809 	jalr	t9
  43446c:	24540005 	addiu	s4,v0,5
  434470:	3c050044 	lui	a1,0x44
  434474:	02202021 	move	a0,s1
  434478:	8fbc0010 	lw	gp,16(sp)
  43447c:	24a5ddf0 	addiu	a1,a1,-8720
  434480:	3c160044 	lui	s6,0x44
  434484:	2637000d 	addiu	s7,s1,13
  434488:	8f998520 	lw	t9,-31456(gp)
  43448c:	24150010 	li	s5,16
  434490:	0320f809 	jalr	t9
  434494:	26d6dee0 	addiu	s6,s6,-8480
  434498:	8fbc0010 	lw	gp,16(sp)
  43449c:	8f99827c 	lw	t9,-32132(gp)
  4344a0:	0320f809 	jalr	t9
  4344a4:	02c09821 	move	s3,s6
  4344a8:	02802021 	move	a0,s4
  4344ac:	26940001 	addiu	s4,s4,1
  4344b0:	0055001a 	div	zero,v0,s5
  4344b4:	16a00002 	bnez	s5,4344c0 <SendResp_upnphttp@@Base+0x7ac>
  4344b8:	00000000 	nop
  4344bc:	0007000d 	break	0x7
  4344c0:	8fbc0010 	lw	gp,16(sp)
  4344c4:	02c02821 	move	a1,s6
[31m  4344c8:	8f998154 	lw	t9,sprintf[0m
  4344cc:	0320f809 	jalr	t9
  4344d0:	00003010 	mfhi	a2
  4344d4:	8fbc0010 	lw	gp,16(sp)
  4344d8:	1697fff0 	bne	s4,s7,43449c <SendResp_upnphttp@@Base+0x788>
  4344dc:	2624000d 	addiu	a0,s1,13
  4344e0:	3c140044 	lui	s4,0x44
  4344e4:	8f998520 	lw	t9,-31456(gp)
  4344e8:	2694dee4 	addiu	s4,s4,-8476
  4344ec:	02802821 	move	a1,s4
  4344f0:	2635000e 	addiu	s5,s1,14
  4344f4:	0320f809 	jalr	t9
  4344f8:	26370012 	addiu	s7,s1,18
  4344fc:	24160010 	li	s6,16
  434500:	8fbc0010 	lw	gp,16(sp)
  434504:	8f99827c 	lw	t9,-32132(gp)
  434508:	0320f809 	jalr	t9
  43450c:	00000000 	nop
  434510:	02a02021 	move	a0,s5
  434514:	26b50001 	addiu	s5,s5,1
  434518:	0056001a 	div	zero,v0,s6
  43451c:	16c00002 	bnez	s6,434528 <SendResp_upnphttp@@Base+0x814>
  434520:	00000000 	nop
  434524:	0007000d 	break	0x7
  434528:	8fbc0010 	lw	gp,16(sp)
  43452c:	02602821 	move	a1,s3
[31m  434530:	8f998154 	lw	t9,sprintf[0m
  434534:	0320f809 	jalr	t9
  434538:	00003010 	mfhi	a2
  43453c:	8fbc0010 	lw	gp,16(sp)
  434540:	16b7fff0 	bne	s5,s7,434504 <SendResp_upnphttp@@Base+0x7f0>
  434544:	26240012 	addiu	a0,s1,18
  434548:	8f998520 	lw	t9,-31456(gp)
  43454c:	02802821 	move	a1,s4
  434550:	26350013 	addiu	s5,s1,19
  434554:	0320f809 	jalr	t9
  434558:	26370017 	addiu	s7,s1,23
  43455c:	24160010 	li	s6,16
  434560:	8fbc0010 	lw	gp,16(sp)
  434564:	8f99827c 	lw	t9,-32132(gp)
  434568:	0320f809 	jalr	t9
  43456c:	00000000 	nop
  434570:	02a02021 	move	a0,s5
  434574:	26b50001 	addiu	s5,s5,1
  434578:	0056001a 	div	zero,v0,s6
  43457c:	16c00002 	bnez	s6,434588 <SendResp_upnphttp@@Base+0x874>
  434580:	00000000 	nop
  434584:	0007000d 	break	0x7
  434588:	8fbc0010 	lw	gp,16(sp)
  43458c:	02602821 	move	a1,s3
[31m  434590:	8f998154 	lw	t9,sprintf[0m
  434594:	0320f809 	jalr	t9
  434598:	00003010 	mfhi	a2
  43459c:	8fbc0010 	lw	gp,16(sp)
  4345a0:	16b7fff0 	bne	s5,s7,434564 <SendResp_upnphttp@@Base+0x850>
  4345a4:	26240017 	addiu	a0,s1,23
  4345a8:	8f998520 	lw	t9,-31456(gp)
  4345ac:	02802821 	move	a1,s4
  4345b0:	26350018 	addiu	s5,s1,24
  4345b4:	0320f809 	jalr	t9
  4345b8:	2637001c 	addiu	s7,s1,28
  4345bc:	24160010 	li	s6,16
  4345c0:	8fbc0010 	lw	gp,16(sp)
  4345c4:	8f99827c 	lw	t9,-32132(gp)
  4345c8:	0320f809 	jalr	t9
  4345cc:	00000000 	nop
  4345d0:	02a02021 	move	a0,s5
  4345d4:	26b50001 	addiu	s5,s5,1
  4345d8:	0056001a 	div	zero,v0,s6
  4345dc:	16c00002 	bnez	s6,4345e8 <SendResp_upnphttp@@Base+0x8d4>
  4345e0:	00000000 	nop
  4345e4:	0007000d 	break	0x7
  4345e8:	8fbc0010 	lw	gp,16(sp)
  4345ec:	02602821 	move	a1,s3
[31m  4345f0:	8f998154 	lw	t9,sprintf[0m
  4345f4:	0320f809 	jalr	t9
  4345f8:	00003010 	mfhi	a2
  4345fc:	8fbc0010 	lw	gp,16(sp)
  434600:	16b7fff0 	bne	s5,s7,4345c4 <SendResp_upnphttp@@Base+0x8b0>
  434604:	02802821 	move	a1,s4
  434608:	8f998520 	lw	t9,-31456(gp)
  43460c:	2624001c 	addiu	a0,s1,28
  434610:	2634001d 	addiu	s4,s1,29
  434614:	0320f809 	jalr	t9
  434618:	26360029 	addiu	s6,s1,41
  43461c:	24150010 	li	s5,16
  434620:	8fbc0010 	lw	gp,16(sp)
  434624:	8f99827c 	lw	t9,-32132(gp)
  434628:	0320f809 	jalr	t9
  43462c:	00000000 	nop
  434630:	02802021 	move	a0,s4
  434634:	26940001 	addiu	s4,s4,1
  434638:	0055001a 	div	zero,v0,s5
  43463c:	16a00002 	bnez	s5,434648 <SendResp_upnphttp@@Base+0x934>
  434640:	00000000 	nop
  434644:	0007000d 	break	0x7
  434648:	8fbc0010 	lw	gp,16(sp)
  43464c:	02602821 	move	a1,s3
[31m  434650:	8f998154 	lw	t9,sprintf[0m
  434654:	0320f809 	jalr	t9
  434658:	00003010 	mfhi	a2
--
  434cf8:	afb40050 	sw	s4,80(sp)
  434cfc:	afb3004c 	sw	s3,76(sp)
  434d00:	afb20048 	sw	s2,72(sp)
  434d04:	afb10044 	sw	s1,68(sp)
  434d08:	afb00040 	sw	s0,64(sp)
  434d0c:	3c1c0045 	lui	gp,0x45
  434d10:	279c75d0 	addiu	gp,gp,30160
  434d14:	afbc0028 	sw	gp,40(sp)
  434d18:	00809821 	move	s3,a0
  434d1c:	8fb00070 	lw	s0,112(sp)
  434d20:	00a01021 	move	v0,a1
  434d24:	10800064 	beqz	a0,434eb8 <Process_upnphttp@@Base+0x404>
  434d28:	00e08821 	move	s1,a3
  434d2c:	10a00062 	beqz	a1,434eb8 <Process_upnphttp@@Base+0x404>
  434d30:	00000000 	nop
  434d34:	10c00060 	beqz	a2,434eb8 <Process_upnphttp@@Base+0x404>
  434d38:	00000000 	nop
  434d3c:	10e0005e 	beqz	a3,434eb8 <Process_upnphttp@@Base+0x404>
  434d40:	00000000 	nop
  434d44:	1200005c 	beqz	s0,434eb8 <Process_upnphttp@@Base+0x404>
  434d48:	24c3006e 	addiu	v1,a2,110
  434d4c:	8e050018 	lw	a1,24(s0)
  434d50:	02003821 	move	a3,s0
  434d54:	8e060110 	lw	a2,272(s0)
  434d58:	2612001c 	addiu	s2,s0,28
[31m  434d5c:	8f998154 	lw	t9,sprintf[0m
  434d60:	afa50010 	sw	a1,16(sp)
  434d64:	3c050044 	lui	a1,0x44
--
  435114:	00c09821 	move	s3,a2
  435118:	18a00003 	blez	a1,435128 <UpnpSendEventSingle@@Base+0x148>
  43511c:	00e08821 	move	s1,a3
  435120:	14c0000c 	bnez	a2,435154 <UpnpSendEventSingle@@Base+0x174>
  435124:	24040800 	li	a0,2048
  435128:	02802021 	move	a0,s4
  43512c:	8fbf003c 	lw	ra,60(sp)
  435130:	8fb60038 	lw	s6,56(sp)
  435134:	8fb50034 	lw	s5,52(sp)
  435138:	8fb40030 	lw	s4,48(sp)
  43513c:	8fb3002c 	lw	s3,44(sp)
  435140:	8fb20028 	lw	s2,40(sp)
  435144:	8fb10024 	lw	s1,36(sp)
  435148:	8fb00020 	lw	s0,32(sp)
  43514c:	0810cf76 	j	433dd8 <SendResp_upnphttp@@Base+0xc4>
  435150:	27bd0040 	addiu	sp,sp,64
  435154:	8f998400 	lw	t9,-31744(gp)
  435158:	0320f809 	jalr	t9
  43515c:	00009021 	move	s2,zero
  435160:	3c050044 	lui	a1,0x44
  435164:	02a03021 	move	a2,s5
  435168:	8fbc0018 	lw	gp,24(sp)
  43516c:	24a5e018 	addiu	a1,a1,-8168
  435170:	00402021 	move	a0,v0
  435174:	02603821 	move	a3,s3
[31m  435178:	8f998154 	lw	t9,sprintf[0m
  43517c:	0320f809 	jalr	t9
  435180:	00408021 	move	s0,v0
  435184:	8fbc0018 	lw	gp,24(sp)
  435188:	12200012 	beqz	s1,4351d4 <UpnpSendEventSingle@@Base+0x1f4>
  43518c:	00000000 	nop
  435190:	8f998400 	lw	t9,-31744(gp)
  435194:	0320f809 	jalr	t9
  435198:	24040100 	li	a0,256
  43519c:	3c050044 	lui	a1,0x44
  4351a0:	02203021 	move	a2,s1
  4351a4:	8fbc0018 	lw	gp,24(sp)
  4351a8:	24a5e058 	addiu	a1,a1,-8104
  4351ac:	00402021 	move	a0,v0
[31m  4351b0:	8f998154 	lw	t9,sprintf[0m
  4351b4:	0320f809 	jalr	t9
  4351b8:	00409021 	move	s2,v0
  4351bc:	02002021 	move	a0,s0
  4351c0:	8fbc0018 	lw	gp,24(sp)
  4351c4:	8f9982ec 	lw	t9,-32020(gp)
  4351c8:	0320f809 	jalr	t9
  4351cc:	02402821 	move	a1,s2
  4351d0:	8fbc0018 	lw	gp,24(sp)
  4351d4:	8f9982ec 	lw	t9,-32020(gp)
  4351d8:	3c050044 	lui	a1,0x44
  4351dc:	02002021 	move	a0,s0
  4351e0:	24a5de94 	addiu	a1,a1,-8556
  4351e4:	0320f809 	jalr	t9
  4351e8:	00008821 	move	s1,zero
  4351ec:	8fbc0018 	lw	gp,24(sp)
  4351f0:	12c00015 	beqz	s6,435248 <UpnpSendEventSingle@@Base+0x268>
  4351f4:	00000000 	nop
  4351f8:	8f998400 	lw	t9,-31744(gp)
  4351fc:	0320f809 	jalr	t9
  435200:	24040400 	li	a0,1024
  435204:	3c050044 	lui	a1,0x44
  435208:	02a03021 	move	a2,s5
  43520c:	8fbc0018 	lw	gp,24(sp)
  435210:	24a5e080 	addiu	a1,a1,-8064
  435214:	02603821 	move	a3,s3
  435218:	00402021 	move	a0,v0
  43521c:	afb60014 	sw	s6,20(sp)
[31m  435220:	8f998154 	lw	t9,sprintf[0m
  435224:	00408821 	move	s1,v0
  435228:	0320f809 	jalr	t9
--
  43608c:	afb2002c 	sw	s2,44(sp)
  436090:	afb10028 	sw	s1,40(sp)
  436094:	afb00024 	sw	s0,36(sp)
  436098:	3c1c0045 	lui	gp,0x45
  43609c:	279c75d0 	addiu	gp,gp,30160
  4360a0:	afbc0018 	sw	gp,24(sp)
  4360a4:	8f998400 	lw	t9,-31744(gp)
  4360a8:	00808821 	move	s1,a0
  4360ac:	24040800 	li	a0,2048
  4360b0:	00a09821 	move	s3,a1
  4360b4:	0320f809 	jalr	t9
  4360b8:	00c09021 	move	s2,a2
  4360bc:	8fbc0018 	lw	gp,24(sp)
  4360c0:	10400029 	beqz	v0,436168 <ParseNameValue@@Base+0x2c0>
  4360c4:	00408021 	move	s0,v0
  4360c8:	8f9981bc 	lw	t9,-32324(gp)
  4360cc:	00402021 	move	a0,v0
  4360d0:	00002821 	move	a1,zero
  4360d4:	0320f809 	jalr	t9
  4360d8:	24060800 	li	a2,2048
  4360dc:	3c050044 	lui	a1,0x44
  4360e0:	02603021 	move	a2,s3
  4360e4:	8fbc0018 	lw	gp,24(sp)
  4360e8:	02403821 	move	a3,s2
  4360ec:	24a5e5c0 	addiu	a1,a1,-6720
[31m  4360f0:	8f998154 	lw	t9,sprintf[0m
  4360f4:	0320f809 	jalr	t9
  4360f8:	02002021 	move	a0,s0

[0m
[[0;33m*[0m] Function [0;33msprintf[0m used [0;33m115[0m times [0;33mwscd[0m

