[[0;33m*[0m] Binary protection state of [0;33miwpriv[0m
[REF] s12

  	RELRO          CANARY            NX           PIE       RPATH        RUNPATH      SYMBOLS      
  	[31mNo RELRO[0m       [31mNo Canary found[0m   [31mNX disabled[0m  [31mNo PIE[0m       [32mNo RPATH[0m     [32mNo RUNPATH[0m   [32mNo Symbols[0m

[0m
[[0;33m*[0m] Function [0;33mprintf[0m tear down of [0;33miwpriv[0m

  400f74:	8fbc0010 	lw	gp,16(sp)
  400f78:	1c40000a 	bgtz	v0,400fa4 <_ftext@@Base+0x294>
  400f7c:	0040a821 	move	s5,v0
  400f80:	8f828064 	lw	v0,-32668(gp)
  400f84:	3c050040 	lui	a1,0x40
  400f88:	02003021 	move	a2,s0
  400f8c:	8f9980c4 	lw	t9,-32572(gp)
  400f90:	8c440000 	lw	a0,0(v0)
  400f94:	0320f809 	jalr	t9
  400f98:	24a54e80 	addiu	a1,a1,20096
  400f9c:	1000003f 	b	40109c <_ftext@@Base+0x38c>
  400fa0:	00000000 	nop
  400fa4:	24020001 	li	v0,1
  400fa8:	16620022 	bne	s3,v0,401034 <_ftext@@Base+0x324>
  400fac:	3c050040 	lui	a1,0x40
  400fb0:	8e520000 	lw	s2,0(s2)
  400fb4:	8f9980a8 	lw	t9,-32600(gp)
  400fb8:	24a54ea0 	addiu	a1,a1,20128
  400fbc:	0320f809 	jalr	t9
  400fc0:	02402021 	move	a0,s2
  400fc4:	8fbc0010 	lw	gp,16(sp)
  400fc8:	14400006 	bnez	v0,400fe4 <_ftext@@Base+0x2d4>
  400fcc:	3c040040 	lui	a0,0x40
  400fd0:	02002821 	move	a1,s0
  400fd4:	24140001 	li	s4,1
[31m  400fd8:	8f998110 	lw	t9,printf[0m
  400fdc:	1000000d 	b	401014 <_ftext@@Base+0x304>
  400fe0:	24844ea4 	addiu	a0,a0,20132
  400fe4:	8f9980a8 	lw	t9,-32600(gp)
  400fe8:	3c050040 	lui	a1,0x40
  400fec:	02402021 	move	a0,s2
  400ff0:	0320f809 	jalr	t9
  400ff4:	24a54ebc 	addiu	a1,a1,20156
  400ff8:	8fbc0010 	lw	gp,16(sp)
  400ffc:	1440000d 	bnez	v0,401034 <_ftext@@Base+0x324>
  401000:	02002821 	move	a1,s0
  401004:	3c040040 	lui	a0,0x40
  401008:	0000a021 	move	s4,zero
[31m  40100c:	8f998110 	lw	t9,printf[0m
  401010:	24844ec0 	addiu	a0,a0,20160
  401014:	3c170040 	lui	s7,0x40
--
  4012b0:	24020018 	li	v0,24
  4012b4:	02202021 	move	a0,s1
  4012b8:	02420018 	mult	s2,v0
  4012bc:	8fbc0010 	lw	gp,16(sp)
  4012c0:	8f998114 	lw	t9,-32492(gp)
  4012c4:	00009012 	mflo	s2
  4012c8:	02729021 	addu	s2,s3,s2
  4012cc:	8e450034 	lw	a1,52(s2)
  4012d0:	0320f809 	jalr	t9
  4012d4:	02803021 	move	a2,s4
  4012d8:	8fbc0010 	lw	gp,16(sp)
  4012dc:	0441000b 	bgez	v0,40130c <_ftext@@Base+0x5fc>
  4012e0:	02002821 	move	a1,s0
  4012e4:	8f828064 	lw	v0,-32668(gp)
  4012e8:	3c040040 	lui	a0,0x40
  4012ec:	8f998044 	lw	t9,-32700(gp)
  4012f0:	8c450000 	lw	a1,0(v0)
  4012f4:	0320f809 	jalr	t9
  4012f8:	24844f70 	addiu	a0,a0,20336
  4012fc:	8fbc0010 	lw	gp,16(sp)
  401300:	8f998054 	lw	t9,-32684(gp)
  401304:	0320f809 	jalr	t9
  401308:	00002021 	move	a0,zero
  40130c:	83a7003c 	lb	a3,60(sp)
  401310:	3c040040 	lui	a0,0x40
[31m  401314:	8f998110 	lw	t9,printf[0m
  401318:	00071080 	sll	v0,a3,0x2
  40131c:	a3a70018 	sb	a3,24(sp)
--
  40150c:	afb30c34 	sw	s3,3124(sp)
  401510:	afb20c30 	sw	s2,3120(sp)
  401514:	afb10c2c 	sw	s1,3116(sp)
  401518:	afb00c28 	sw	s0,3112(sp)
  40151c:	3c1c0042 	lui	gp,0x42
  401520:	279cdb50 	addiu	gp,gp,-9392
  401524:	afbc0020 	sw	gp,32(sp)
  401528:	24070080 	li	a3,128
  40152c:	8f998050 	lw	t9,-32688(gp)
  401530:	27b00028 	addiu	s0,sp,40
  401534:	00a08821 	move	s1,a1
  401538:	0320f809 	jalr	t9
  40153c:	02003021 	move	a2,s0
  401540:	8fbc0020 	lw	gp,32(sp)
  401544:	1c40000a 	bgtz	v0,401570 <_ftext@@Base+0x860>
  401548:	00409821 	move	s3,v0
  40154c:	8f828064 	lw	v0,-32668(gp)
  401550:	3c050040 	lui	a1,0x40
  401554:	02203021 	move	a2,s1
  401558:	8f9980c4 	lw	t9,-32572(gp)
  40155c:	8c440000 	lw	a0,0(v0)
  401560:	0320f809 	jalr	t9
  401564:	24a54e80 	addiu	a1,a1,20096
  401568:	10000030 	b	40162c <_ftext@@Base+0x91c>
  40156c:	00000000 	nop
[31m  401570:	8f998110 	lw	t9,printf[0m
  401574:	3c040040 	lui	a0,0x40
  401578:	02202821 	move	a1,s1
  40157c:	24845040 	addiu	a0,a0,20544
  401580:	3c120041 	lui	s2,0x41
  401584:	0320f809 	jalr	t9
  401588:	0200b021 	move	s6,s0
  40158c:	3c150040 	lui	s5,0x40
  401590:	8fbc0020 	lw	gp,32(sp)
  401594:	00008821 	move	s1,zero
  401598:	26525b08 	addiu	s2,s2,23304
  40159c:	26b55064 	addiu	s5,s5,20580
  4015a0:	24140003 	li	s4,3
  4015a4:	82020008 	lb	v0,8(s0)
  4015a8:	10400019 	beqz	v0,401610 <_ftext@@Base+0x900>
  4015ac:	02340018 	mult	s1,s4
  4015b0:	96070004 	lhu	a3,4(s0)
  4015b4:	02a02021 	move	a0,s5
  4015b8:	96030006 	lhu	v1,6(s0)
  4015bc:	30e87000 	andi	t0,a3,0x7000
  4015c0:	8e060000 	lw	a2,0(s0)
  4015c4:	30627000 	andi	v0,v1,0x7000
[31m  4015c8:	8f998110 	lw	t9,printf[0m
  4015cc:	00084282 	srl	t0,t0,0xa
  4015d0:	00002812 	mflo	a1
--
  401794:	26d60001 	addiu	s6,s6,1
  401798:	02de102a 	slt	v0,s6,s8
  40179c:	10400008 	beqz	v0,4017c0 <_ftext@@Base+0xab0>
  4017a0:	00000000 	nop
  4017a4:	82020008 	lb	v0,8(s0)
  4017a8:	1440fff9 	bnez	v0,401790 <_ftext@@Base+0xa80>
  4017ac:	00000000 	nop
  4017b0:	8e040004 	lw	a0,4(s0)
  4017b4:	8c620004 	lw	v0,4(v1)
  4017b8:	1482fff6 	bne	a0,v0,401794 <_ftext@@Base+0xa84>
  4017bc:	26100018 	addiu	s0,s0,24
  4017c0:	16de0008 	bne	s6,s8,4017e4 <_ftext@@Base+0xad4>
  4017c4:	3c050040 	lui	a1,0x40
  4017c8:	02203021 	move	a2,s1
  4017cc:	8f9980c4 	lw	t9,-32572(gp)
  4017d0:	24a550c8 	addiu	a1,a1,20680
  4017d4:	8f828064 	lw	v0,-32668(gp)
  4017d8:	8c440000 	lw	a0,0(v0)
  4017dc:	100000a2 	b	401a68 <_ftext@@Base+0xd58>
  4017e0:	00000000 	nop
  4017e4:	24020018 	li	v0,24
  4017e8:	3c040040 	lui	a0,0x40
  4017ec:	02202821 	move	a1,s1
  4017f0:	02c20018 	mult	s6,v0
  4017f4:	8c740000 	lw	s4,0(v1)
[31m  4017f8:	8f998110 	lw	t9,printf[0m
  4017fc:	248450f4 	addiu	a0,a0,20724
  401800:	02803821 	move	a3,s4
--
  4019ac:	10000024 	b	401a40 <_ftext@@Base+0xd30>
  4019b0:	a3a010c3 	sb	zero,4291(sp)
  4019b4:	a7a20038 	sh	v0,56(sp)
  4019b8:	10000021 	b	401a40 <_ftext@@Base+0xd30>
  4019bc:	a3a000c4 	sb	zero,196(sp)
  4019c0:	3273ffff 	andi	s3,s3,0xffff
  4019c4:	02d3102a 	slt	v0,s6,s3
  4019c8:	1040001d 	beqz	v0,401a40 <_ftext@@Base+0xd30>
  4019cc:	a7b30038 	sh	s3,56(sp)
  4019d0:	1000001b 	b	401a40 <_ftext@@Base+0xd30>
  4019d4:	a7b60038 	sh	s6,56(sp)
  4019d8:	10400002 	beqz	v0,4019e4 <_ftext@@Base+0xcd4>
  4019dc:	a7b30038 	sh	s3,56(sp)
  4019e0:	a7b60038 	sh	s6,56(sp)
  4019e4:	27b600c4 	addiu	s6,sp,196
  4019e8:	1000000c 	b	401a1c <_ftext@@Base+0xd0c>
  4019ec:	00009821 	move	s3,zero
  4019f0:	8e460000 	lw	a2,0(s2)
  4019f4:	0240b821 	move	s7,s2
  4019f8:	0320f809 	jalr	t9
  4019fc:	26520004 	addiu	s2,s2,4
  401a00:	8fbc0018 	lw	gp,24(sp)
  401a04:	04410005 	bgez	v0,401a1c <_ftext@@Base+0xd0c>
  401a08:	3c040040 	lui	a0,0x40
  401a0c:	8ee50000 	lw	a1,0(s7)
[31m  401a10:	8f998110 	lw	t9,printf[0m
  401a14:	100000fe 	b	401e10 <_ftext@@Base+0x1100>
  401a18:	2484511c 	addiu	a0,a0,20764
  401a1c:	97a20038 	lhu	v0,56(sp)
  401a20:	02c03821 	move	a3,s6
  401a24:	26d60010 	addiu	s6,s6,16
  401a28:	8f9980f4 	lw	t9,-32524(gp)
  401a2c:	0262102a 	slt	v0,s3,v0
  401a30:	8fa410f8 	lw	a0,4344(sp)
  401a34:	8fa51104 	lw	a1,4356(sp)
  401a38:	1440ffed 	bnez	v0,4019f0 <_ftext@@Base+0xce0>
  401a3c:	26730001 	addiu	s3,s3,1
  401a40:	96060004 	lhu	a2,4(s0)
  401a44:	30c20800 	andi	v0,a2,0x800
  401a48:	10400011 	beqz	v0,401a90 <_ftext@@Base+0xd80>
  401a4c:	30c607ff 	andi	a2,a2,0x7ff
  401a50:	97a20038 	lhu	v0,56(sp)
  401a54:	1046000e 	beq	v0,a2,401a90 <_ftext@@Base+0xd80>
  401a58:	3c040040 	lui	a0,0x40
  401a5c:	02202821 	move	a1,s1
[31m  401a60:	8f998110 	lw	t9,printf[0m
  401a64:	24845150 	addiu	a0,a0,20816
  401a68:	0320f809 	jalr	t9
--
  401b9c:	0320f809 	jalr	t9
  401ba0:	00000000 	nop
  401ba4:	8fbc0018 	lw	gp,24(sp)
  401ba8:	8e070000 	lw	a3,0(s0)
  401bac:	8f998108 	lw	t9,-32504(gp)
  401bb0:	8c440000 	lw	a0,0(v0)
  401bb4:	0320f809 	jalr	t9
  401bb8:	afa710c8 	sw	a3,4296(sp)
  401bbc:	3c050040 	lui	a1,0x40
  401bc0:	02402021 	move	a0,s2
  401bc4:	8fbc0018 	lw	gp,24(sp)
  401bc8:	24a551b4 	addiu	a1,a1,20916
  401bcc:	02203021 	move	a2,s1
  401bd0:	8fa710c8 	lw	a3,4296(sp)
  401bd4:	8f9980c4 	lw	t9,-32572(gp)
  401bd8:	0320f809 	jalr	t9
  401bdc:	afa20010 	sw	v0,16(sp)
  401be0:	10000090 	b	401e24 <_ftext@@Base+0x1114>
  401be4:	2402ffff 	li	v0,-1
  401be8:	96020006 	lhu	v0,6(s0)
  401bec:	30437000 	andi	v1,v0,0x7000
  401bf0:	1060008b 	beqz	v1,401e20 <_ftext@@Base+0x1110>
  401bf4:	304207ff 	andi	v0,v0,0x7ff
  401bf8:	1040008a 	beqz	v0,401e24 <_ftext@@Base+0x1114>
  401bfc:	00001021 	move	v0,zero
[31m  401c00:	8f998110 	lw	t9,printf[0m
  401c04:	3c040040 	lui	a0,0x40
  401c08:	02203021 	move	a2,s1
--
  401cb4:	10000006 	b	401cd0 <_ftext@@Base+0xfc0>
  401cb8:	3c150040 	lui	s5,0x40
  401cbc:	3c130040 	lui	s3,0x40
  401cc0:	00008021 	move	s0,zero
  401cc4:	267351d0 	addiu	s3,s3,20944
  401cc8:	10000010 	b	401d0c <_ftext@@Base+0xffc>
  401ccc:	27b100c4 	addiu	s1,sp,196
  401cd0:	26d651f8 	addiu	s6,s6,20984
  401cd4:	26b55208 	addiu	s5,s5,21000
  401cd8:	27b300c4 	addiu	s3,sp,196
  401cdc:	00008021 	move	s0,zero
  401ce0:	10000041 	b	401de8 <_ftext@@Base+0x10d8>
  401ce4:	27b40044 	addiu	s4,sp,68
  401ce8:	3c130040 	lui	s3,0x40
  401cec:	27b100c4 	addiu	s1,sp,196
  401cf0:	267351d0 	addiu	s3,s3,20944
  401cf4:	10000012 	b	401d40 <_ftext@@Base+0x1030>
  401cf8:	00008021 	move	s0,zero
  401cfc:	90650000 	lbu	a1,0(v1)
  401d00:	0320f809 	jalr	t9
  401d04:	00000000 	nop
  401d08:	8fbc0018 	lw	gp,24(sp)
  401d0c:	0212102a 	slt	v0,s0,s2
  401d10:	02301821 	addu	v1,s1,s0
  401d14:	26100001 	addiu	s0,s0,1
[31m  401d18:	8f998110 	lw	t9,printf[0m
  401d1c:	1440fff7 	bnez	v0,401cfc <_ftext@@Base+0xfec>
  401d20:	02602021 	move	a0,s3
  401d24:	1000000a 	b	401d50 <_ftext@@Base+0x1040>
  401d28:	00000000 	nop
  401d2c:	8e250000 	lw	a1,0(s1)
  401d30:	02602021 	move	a0,s3
  401d34:	0320f809 	jalr	t9
  401d38:	26310004 	addiu	s1,s1,4
  401d3c:	8fbc0018 	lw	gp,24(sp)
  401d40:	0212102a 	slt	v0,s0,s2
[31m  401d44:	8f998110 	lw	t9,printf[0m
  401d48:	1440fff8 	bnez	v0,401d2c <_ftext@@Base+0x101c>
  401d4c:	26100001 	addiu	s0,s0,1
  401d50:	8f998120 	lw	t9,-32480(gp)
  401d54:	10000009 	b	401d7c <_ftext@@Base+0x106c>
  401d58:	2404000a 	li	a0,10
  401d5c:	97a20038 	lhu	v0,56(sp)
  401d60:	8f9980e4 	lw	t9,-32540(gp)
  401d64:	03a21021 	addu	v0,sp,v0
  401d68:	10000004 	b	401d7c <_ftext@@Base+0x106c>
  401d6c:	a04000c3 	sb	zero,195(v0)
  401d70:	3c040040 	lui	a0,0x40
  401d74:	8f9980e4 	lw	t9,-32540(gp)
  401d78:	248451d8 	addiu	a0,a0,20952
  401d7c:	0320f809 	jalr	t9
  401d80:	00000000 	nop
  401d84:	10000027 	b	401e24 <_ftext@@Base+0x1114>
  401d88:	00001021 	move	v0,zero
  401d8c:	1200000b 	beqz	s0,401dbc <_ftext@@Base+0x10ac>
  401d90:	00000000 	nop
  401d94:	8f99804c 	lw	t9,strlen
  401d98:	0320f809 	jalr	t9
  401d9c:	02202021 	move	a0,s1
  401da0:	02a03021 	move	a2,s5
  401da4:	8fbc0018 	lw	gp,24(sp)
  401da8:	00402821 	move	a1,v0
[31m  401dac:	8f998110 	lw	t9,printf[0m
  401db0:	0320f809 	jalr	t9
  401db4:	02c02021 	move	a0,s6
--
  401f2c:	afb20c30 	sw	s2,3120(sp)
  401f30:	afb10c2c 	sw	s1,3116(sp)
  401f34:	afb00c28 	sw	s0,3112(sp)
  401f38:	3c1c0042 	lui	gp,0x42
  401f3c:	279cdb50 	addiu	gp,gp,-9392
  401f40:	afbc0020 	sw	gp,32(sp)
  401f44:	24070080 	li	a3,128
  401f48:	8f998050 	lw	t9,-32688(gp)
  401f4c:	27b00028 	addiu	s0,sp,40
  401f50:	0080b021 	move	s6,a0
  401f54:	02003021 	move	a2,s0
  401f58:	0320f809 	jalr	t9
  401f5c:	00a09021 	move	s2,a1
  401f60:	8fbc0020 	lw	gp,32(sp)
  401f64:	1c40000a 	bgtz	v0,401f90 <_ftext@@Base+0x1280>
  401f68:	00409821 	move	s3,v0
  401f6c:	8f828064 	lw	v0,-32668(gp)
  401f70:	3c050040 	lui	a1,0x40
  401f74:	02403021 	move	a2,s2
  401f78:	8f9980c4 	lw	t9,-32572(gp)
  401f7c:	8c440000 	lw	a0,0(v0)
  401f80:	0320f809 	jalr	t9
  401f84:	24a54e80 	addiu	a1,a1,20096
  401f88:	10000027 	b	402028 <_ftext@@Base+0x1318>
  401f8c:	00000000 	nop
[31m  401f90:	8f998110 	lw	t9,printf[0m
  401f94:	3c040040 	lui	a0,0x40
  401f98:	02402821 	move	a1,s2
--
  4045cc:	afbc0010 	sw	gp,16(sp)
  4045d0:	24060470 	li	a2,1136
  4045d4:	8f998090 	lw	t9,-32624(gp)
  4045d8:	27b00038 	addiu	s0,sp,56
  4045dc:	00809021 	move	s2,a0
  4045e0:	00a08821 	move	s1,a1
  4045e4:	00002821 	move	a1,zero
  4045e8:	0320f809 	jalr	t9
  4045ec:	02002021 	move	a0,s0
  4045f0:	24020470 	li	v0,1136
  4045f4:	02402021 	move	a0,s2
  4045f8:	34068b0b 	li	a2,0x8b0b
  4045fc:	02202821 	move	a1,s1
  404600:	27a70018 	addiu	a3,sp,24
  404604:	a7a2002c 	sh	v0,44(sp)
  404608:	afb00028 	sw	s0,40(sp)
  40460c:	0c100a55 	jal	402954 <iw_get_priv_size@@Base+0x344>
  404610:	a7a0002e 	sh	zero,46(sp)
  404614:	8fbc0010 	lw	gp,16(sp)
  404618:	04400012 	bltz	v0,404664 <iw_ether_ntop@@Base+0x1484>
  40461c:	2403ffff 	li	v1,-1
  404620:	97a2002c 	lhu	v0,44(sp)
  404624:	2c42012c 	sltiu	v0,v0,300
  404628:	1440000e 	bnez	v0,404664 <iw_ether_ntop@@Base+0x1484>
  40462c:	00001821 	move	v1,zero
[31m  404630:	8f998110 	lw	t9,printf[0m
  404634:	3c040040 	lui	a0,0x40
  404638:	02202821 	move	a1,s1
  40463c:	92060119 	lbu	a2,281(s0)
  404640:	0320f809 	jalr	t9
  404644:	248458c8 	addiu	a0,a0,22728
  404648:	3c040040 	lui	a0,0x40
  40464c:	8fbc0010 	lw	gp,16(sp)
  404650:	92050118 	lbu	a1,280(s0)
[31m  404654:	8f998110 	lw	t9,printf[0m
  404658:	0320f809 	jalr	t9
  40465c:	248458fc 	addiu	a0,a0,22780
--
  404978:	8fb0001c 	lw	s0,28(sp)
  40497c:	03e00008 	jr	ra
  404980:	27bd0028 	addiu	sp,sp,40

00404984 <iw_print_version_info@@Base>:
  404984:	27bdffd8 	addiu	sp,sp,-40
  404988:	afbf0024 	sw	ra,36(sp)
  40498c:	afb00020 	sw	s0,32(sp)
  404990:	3c1c0042 	lui	gp,0x42
  404994:	279cdb50 	addiu	gp,gp,-9392
  404998:	afbc0010 	sw	gp,16(sp)
  40499c:	0c101246 	jal	404918 <iw_sockets_open@@Base>
  4049a0:	afa40018 	sw	a0,24(sp)
  4049a4:	8fbc0010 	lw	gp,16(sp)
  4049a8:	8fa40018 	lw	a0,24(sp)
  4049ac:	04410007 	bgez	v0,4049cc <iw_print_version_info@@Base+0x48>
  4049b0:	00408021 	move	s0,v0
  4049b4:	8f9980e8 	lw	t9,-32536(gp)
  4049b8:	3c040040 	lui	a0,0x40
  4049bc:	0320f809 	jalr	t9
  4049c0:	2484524c 	addiu	a0,a0,21068
  4049c4:	1000001f 	b	404a44 <iw_print_version_info@@Base+0xc0>
  4049c8:	2402ffff 	li	v0,-1
  4049cc:	10800007 	beqz	a0,4049ec <iw_print_version_info@@Base+0x68>
  4049d0:	00802821 	move	a1,a0
[31m  4049d4:	8f998110 	lw	t9,printf[0m
  4049d8:	3c040040 	lui	a0,0x40
  4049dc:	24845984 	addiu	a0,a0,22916
  4049e0:	0320f809 	jalr	t9
  4049e4:	24060019 	li	a2,25
  4049e8:	8fbc0010 	lw	gp,16(sp)
[31m  4049ec:	8f998110 	lw	t9,printf[0m
  4049f0:	3c040040 	lui	a0,0x40
  4049f4:	24845998 	addiu	a0,a0,22936
  4049f8:	0320f809 	jalr	t9
  4049fc:	2405000f 	li	a1,15
  404a00:	3c040040 	lui	a0,0x40
  404a04:	8fbc0010 	lw	gp,16(sp)
  404a08:	248458fc 	addiu	a0,a0,22780
[31m  404a0c:	8f998110 	lw	t9,printf[0m
  404a10:	0320f809 	jalr	t9
  404a14:	24050016 	li	a1,22

[0m
[[0;33m*[0m] Function [0;33mprintf[0m used [0;33m18[0m times [0;33miwpriv[0m

