[[0;33m*[0m] Binary protection state of [0;33msetconf.cgi[0m
[REF] s12

  	RELRO          CANARY            NX           PIE       RPATH        RUNPATH      SYMBOLS      
  	[31mNo RELRO[0m       [31mNo Canary found[0m   [31mNX disabled[0m  [31mNo PIE[0m       [32mNo RPATH[0m     [32mNo RUNPATH[0m   [32mNo Symbols[0m

[0m
[[0;33m*[0m] Function [0;33mstrcpy[0m tear down of [0;33msetconf.cgi[0m

  4012f4:	279cc1d0 	addiu	gp,gp,-15920
  4012f8:	afbc0010 	sw	gp,16(sp)
  4012fc:	8f998070 	lw	t9,-32656(gp)
  401300:	0320f809 	jalr	t9
  401304:	00a08021 	move	s0,a1
  401308:	8fbc0010 	lw	gp,16(sp)
  40130c:	1440000a 	bnez	v0,401338 <_ftext@@Base+0x678>
  401310:	3c050040 	lui	a1,0x40
  401314:	8f828064 	lw	v0,-32668(gp)
  401318:	8c440000 	lw	a0,0(v0)
  40131c:	24a538e4 	addiu	a1,a1,14564
  401320:	3c060040 	lui	a2,0x40
  401324:	8f9980a0 	lw	t9,-32608(gp)
  401328:	0320f809 	jalr	t9
  40132c:	24c64174 	addiu	a2,a2,16756
  401330:	1000000d 	b	401368 <_ftext@@Base+0x6a8>
  401334:	2402ffff 	li	v0,-1
  401338:	8c420010 	lw	v0,16(v0)
  40133c:	8c420000 	lw	v0,0(v0)
  401340:	8c440000 	lw	a0,0(v0)
  401344:	8f998078 	lw	t9,-32648(gp)
  401348:	0320f809 	jalr	t9
  40134c:	00000000 	nop
  401350:	8fbc0010 	lw	gp,16(sp)
  401354:	02002021 	move	a0,s0
[31m  401358:	8f9980f8 	lw	t9,strcpy[0m
  40135c:	0320f809 	jalr	t9
  401360:	00402821 	move	a1,v0
--
  402718:	00002821 	move	a1,zero
  40271c:	8f998080 	lw	t9,-32640(gp)
  402720:	0320f809 	jalr	t9
  402724:	240600ff 	li	a2,255
  402728:	8fbc0028 	lw	gp,40(sp)
  40272c:	92023fd0 	lbu	v0,16336(s0)
  402730:	a3a20360 	sb	v0,864(sp)
  402734:	27a40361 	addiu	a0,sp,865
  402738:	00002821 	move	a1,zero
  40273c:	8f998080 	lw	t9,-32640(gp)
  402740:	0320f809 	jalr	t9
  402744:	240600ff 	li	a2,255
  402748:	8fbc0028 	lw	gp,40(sp)
  40274c:	afa0003c 	sw	zero,60(sp)
  402750:	27b0003c 	addiu	s0,sp,60
  402754:	8f998034 	lw	t9,-32716(gp)
  402758:	0320f809 	jalr	t9
  40275c:	02002021 	move	a0,s0
  402760:	8fbc0028 	lw	gp,40(sp)
  402764:	8e040000 	lw	a0,0(s0)
  402768:	8f998078 	lw	t9,-32648(gp)
  40276c:	0320f809 	jalr	t9
  402770:	00000000 	nop
  402774:	8fbc0028 	lw	gp,40(sp)
  402778:	27a40060 	addiu	a0,sp,96
[31m  40277c:	8f9980f8 	lw	t9,strcpy[0m
  402780:	0320f809 	jalr	t9
  402784:	00402821 	move	a1,v0
--
  402b28:	26310001 	addiu	s1,s1,1
  402b2c:	8fbc0028 	lw	gp,40(sp)
  402b30:	afa20038 	sw	v0,56(sp)
  402b34:	1000000d 	b	402b6c <_ftext@@Base+0x1eac>
  402b38:	afb5048c 	sw	s5,1164(sp)
  402b3c:	8fa504a0 	lw	a1,1184(sp)
  402b40:	8f998074 	lw	t9,-32652(gp)
  402b44:	0320f809 	jalr	t9
  402b48:	02402021 	move	a0,s2
  402b4c:	8fbc0028 	lw	gp,40(sp)
  402b50:	14400005 	bnez	v0,402b68 <_ftext@@Base+0x1ea8>
  402b54:	26220080 	addiu	v0,s1,128
  402b58:	00021080 	sll	v0,v0,0x2
  402b5c:	02028021 	addu	s0,s0,v0
  402b60:	8e100004 	lw	s0,4(s0)
  402b64:	afb00494 	sw	s0,1172(sp)
  402b68:	26310001 	addiu	s1,s1,1
  402b6c:	8e700058 	lw	s0,88(s3)
  402b70:	8e020000 	lw	v0,0(s0)
  402b74:	0222102a 	slt	v0,s1,v0
  402b78:	1440ff6c 	bnez	v0,40292c <_ftext@@Base+0x1c6c>
  402b7c:	00111080 	sll	v0,s1,0x2
  402b80:	8fa5047c 	lw	a1,1148(sp)
  402b84:	10a00012 	beqz	a1,402bd0 <_ftext@@Base+0x1f10>
  402b88:	3c040040 	lui	a0,0x40
[31m  402b8c:	8f9980f8 	lw	t9,strcpy[0m
  402b90:	0320f809 	jalr	t9
  402b94:	27a40160 	addiu	a0,sp,352
  402b98:	8fbc0028 	lw	gp,40(sp)
  402b9c:	10000013 	b	402bec <_ftext@@Base+0x1f2c>
  402ba0:	00000000 	nop
  402ba4:	afa0046c 	sw	zero,1132(sp)
  402ba8:	afa00464 	sw	zero,1124(sp)
  402bac:	afa00470 	sw	zero,1136(sp)
  402bb0:	afa00480 	sw	zero,1152(sp)
  402bb4:	afa00474 	sw	zero,1140(sp)
  402bb8:	0000b021 	move	s6,zero
  402bbc:	0000f021 	move	s8,zero
  402bc0:	afa00484 	sw	zero,1156(sp)
  402bc4:	afa0048c 	sw	zero,1164(sp)
  402bc8:	afa0047c 	sw	zero,1148(sp)
  402bcc:	3c040040 	lui	a0,0x40
  402bd0:	24843da0 	addiu	a0,a0,15776
  402bd4:	3c050040 	lui	a1,0x40
  402bd8:	24a53e7c 	addiu	a1,a1,15996
  402bdc:	8f998044 	lw	t9,-32700(gp)
  402be0:	0320f809 	jalr	t9
  402be4:	27a60160 	addiu	a2,sp,352
  402be8:	8fbc0028 	lw	gp,40(sp)
  402bec:	8fa20480 	lw	v0,1152(sp)
  402bf0:	10400007 	beqz	v0,402c10 <_ftext@@Base+0x1f50>
  402bf4:	27a40260 	addiu	a0,sp,608
[31m  402bf8:	8f9980f8 	lw	t9,strcpy[0m
  402bfc:	0320f809 	jalr	t9
  402c00:	00402821 	move	a1,v0
  402c04:	8fbc0028 	lw	gp,40(sp)
  402c08:	10000009 	b	402c30 <_ftext@@Base+0x1f70>
  402c0c:	00000000 	nop
  402c10:	3c040040 	lui	a0,0x40
  402c14:	24843da0 	addiu	a0,a0,15776
  402c18:	3c050040 	lui	a1,0x40
  402c1c:	24a53e90 	addiu	a1,a1,16016
  402c20:	8f998044 	lw	t9,-32700(gp)
  402c24:	0320f809 	jalr	t9
  402c28:	27a60260 	addiu	a2,sp,608
  402c2c:	8fbc0028 	lw	gp,40(sp)
  402c30:	8fa20470 	lw	v0,1136(sp)
  402c34:	10400007 	beqz	v0,402c54 <_ftext@@Base+0x1f94>
  402c38:	27a40360 	addiu	a0,sp,864
[31m  402c3c:	8f9980f8 	lw	t9,strcpy[0m
  402c40:	0320f809 	jalr	t9
  402c44:	00402821 	move	a1,v0

[0m
[[0;33m*[0m] Function [0;33mstrcpy[0m used [0;33m5[0m times [0;33msetconf.cgi[0m

