[[0;33m*[0m] Binary protection state of [0;33mhwmon[0m
[REF] s12

  	RELRO          CANARY            NX           PIE       RPATH        RUNPATH      SYMBOLS      
  	[31mNo RELRO[0m       [31mNo Canary found[0m   [31mNX disabled[0m  [31mNo PIE[0m       [32mNo RPATH[0m     [32mNo RUNPATH[0m   [32mNo Symbols[0m

[0m
[[0;33m*[0m] Function [0;33msystem[0m tear down of [0;33mhwmon[0m

  401bcc:	8fbc0010 	lw	gp,16(sp)
  401bd0:	3c020041 	lui	v0,0x41
  401bd4:	8c444a40 	lw	a0,19008(v0)
  401bd8:	8f998074 	lw	t9,-32652(gp)
  401bdc:	0320f809 	jalr	t9
  401be0:	00000000 	nop
  401be4:	8fbf001c 	lw	ra,28(sp)
  401be8:	8fb00018 	lw	s0,24(sp)
  401bec:	03e00008 	jr	ra
  401bf0:	27bd0020 	addiu	sp,sp,32

00401bf4 <DoWarmReboot@@Base>:
  401bf4:	27bdffe0 	addiu	sp,sp,-32
  401bf8:	afbf001c 	sw	ra,28(sp)
  401bfc:	3c1c0042 	lui	gp,0x42
  401c00:	279cc850 	addiu	gp,gp,-14256
  401c04:	afbc0010 	sw	gp,16(sp)
  401c08:	3c040040 	lui	a0,0x40
  401c0c:	2484418c 	addiu	a0,a0,16780
  401c10:	3c050040 	lui	a1,0x40
  401c14:	8f998164 	lw	t9,-32412(gp)
  401c18:	0320f809 	jalr	t9
  401c1c:	24a5416c 	addiu	a1,a1,16748
  401c20:	8fbc0010 	lw	gp,16(sp)
  401c24:	3c040040 	lui	a0,0x40
[31m  401c28:	8f99812c 	lw	t9,system[0m
  401c2c:	0320f809 	jalr	t9
  401c30:	248441a0 	addiu	a0,a0,16800
  401c34:	8fbf001c 	lw	ra,28(sp)
  401c38:	03e00008 	jr	ra
  401c3c:	27bd0020 	addiu	sp,sp,32

00401c40 <DoFactoryReset@@Base>:
  401c40:	27bdffe0 	addiu	sp,sp,-32
  401c44:	afbf001c 	sw	ra,28(sp)
  401c48:	3c1c0042 	lui	gp,0x42
  401c4c:	279cc850 	addiu	gp,gp,-14256
  401c50:	afbc0010 	sw	gp,16(sp)
  401c54:	3c040040 	lui	a0,0x40
  401c58:	248441b0 	addiu	a0,a0,16816
  401c5c:	3c050040 	lui	a1,0x40
  401c60:	8f998164 	lw	t9,-32412(gp)
  401c64:	0320f809 	jalr	t9
  401c68:	24a5416c 	addiu	a1,a1,16748
  401c6c:	8fbc0010 	lw	gp,16(sp)
  401c70:	3c040040 	lui	a0,0x40
[31m  401c74:	8f99812c 	lw	t9,system[0m
  401c78:	0320f809 	jalr	t9
  401c7c:	248441c4 	addiu	a0,a0,16836
  401c80:	8fbc0010 	lw	gp,16(sp)
  401c84:	3c040040 	lui	a0,0x40
[31m  401c88:	8f99812c 	lw	t9,system[0m
  401c8c:	0320f809 	jalr	t9
  401c90:	248441a0 	addiu	a0,a0,16800
--
  401f7c:	8fbc0010 	lw	gp,16(sp)
  401f80:	24040010 	li	a0,16
  401f84:	8f99811c 	lw	t9,-32484(gp)
  401f88:	0320f809 	jalr	t9
  401f8c:	00002821 	move	a1,zero
  401f90:	8fbc0010 	lw	gp,16(sp)
  401f94:	9623008e 	lhu	v1,142(s1)
  401f98:	3c020041 	lui	v0,0x41
  401f9c:	a4434a36 	sh	v1,18998(v0)
  401fa0:	3c020041 	lui	v0,0x41
  401fa4:	94424a36 	lhu	v0,18998(v0)
  401fa8:	10400023 	beqz	v0,402038 <DoFactoryReset@@Base+0x3f8>
  401fac:	00000000 	nop
  401fb0:	9623008e 	lhu	v1,142(s1)
  401fb4:	0043102b 	sltu	v0,v0,v1
  401fb8:	1440000e 	bnez	v0,401ff4 <DoFactoryReset@@Base+0x3b4>
  401fbc:	3c030041 	lui	v1,0x41
  401fc0:	3c040040 	lui	a0,0x40
  401fc4:	24844270 	addiu	a0,a0,17008
  401fc8:	3c050040 	lui	a1,0x40
  401fcc:	8f998164 	lw	t9,-32412(gp)
  401fd0:	0320f809 	jalr	t9
  401fd4:	24a5416c 	addiu	a1,a1,16748
  401fd8:	8fbc0010 	lw	gp,16(sp)
  401fdc:	3c040040 	lui	a0,0x40
[31m  401fe0:	8f99812c 	lw	t9,system[0m
  401fe4:	0320f809 	jalr	t9
  401fe8:	2484428c 	addiu	a0,a0,17036
  401fec:	8fbc0010 	lw	gp,16(sp)
  401ff0:	3c030041 	lui	v1,0x41
  401ff4:	94624a36 	lhu	v0,18998(v1)
  401ff8:	2442ffff 	addiu	v0,v0,-1
  401ffc:	3042ffff 	andi	v0,v0,0xffff
  402000:	1440000d 	bnez	v0,402038 <DoFactoryReset@@Base+0x3f8>
  402004:	a4624a36 	sh	v0,18998(v1)
  402008:	3c040040 	lui	a0,0x40
  40200c:	248442b0 	addiu	a0,a0,17072
  402010:	3c050040 	lui	a1,0x40
  402014:	8f998164 	lw	t9,-32412(gp)
  402018:	0320f809 	jalr	t9
  40201c:	24a5416c 	addiu	a1,a1,16748
  402020:	8fbc0010 	lw	gp,16(sp)
  402024:	3c040040 	lui	a0,0x40
[31m  402028:	8f99812c 	lw	t9,system[0m
  40202c:	0320f809 	jalr	t9
  402030:	248442d0 	addiu	a0,a0,17104
--
  402114:	00031702 	srl	v0,v1,0x1c
  402118:	30420001 	andi	v0,v0,0x1
  40211c:	00031d02 	srl	v1,v1,0x14
  402120:	30630001 	andi	v1,v1,0x1
  402124:	00032027 	nor	a0,zero,v1
  402128:	00442024 	and	a0,v0,a0
  40212c:	00042080 	sll	a0,a0,0x2
  402130:	00022827 	nor	a1,zero,v0
  402134:	00651824 	and	v1,v1,a1
  402138:	00441025 	or	v0,v0,a0
  40213c:	00031840 	sll	v1,v1,0x1
  402140:	00431025 	or	v0,v0,v1
  402144:	304200ff 	andi	v0,v0,0xff
  402148:	30430004 	andi	v1,v0,0x4
  40214c:	306300ff 	andi	v1,v1,0xff
  402150:	1060000e 	beqz	v1,40218c <DoFactoryReset@@Base+0x54c>
  402154:	30420002 	andi	v0,v0,0x2
  402158:	3c040040 	lui	a0,0x40
  40215c:	248442f4 	addiu	a0,a0,17140
  402160:	3c050040 	lui	a1,0x40
  402164:	8f998164 	lw	t9,-32412(gp)
  402168:	0320f809 	jalr	t9
  40216c:	24a5416c 	addiu	a1,a1,16748
  402170:	8fbc0010 	lw	gp,16(sp)
  402174:	3c040040 	lui	a0,0x40
[31m  402178:	8f99812c 	lw	t9,system[0m
  40217c:	0320f809 	jalr	t9
  402180:	24844310 	addiu	a0,a0,17168
  402184:	1000000e 	b	4021c0 <DoFactoryReset@@Base+0x580>
  402188:	00000000 	nop
  40218c:	304200ff 	andi	v0,v0,0xff
  402190:	1040000b 	beqz	v0,4021c0 <DoFactoryReset@@Base+0x580>
  402194:	3c050040 	lui	a1,0x40
  402198:	3c040040 	lui	a0,0x40
  40219c:	24844330 	addiu	a0,a0,17200
  4021a0:	8f998164 	lw	t9,-32412(gp)
  4021a4:	0320f809 	jalr	t9
  4021a8:	24a5416c 	addiu	a1,a1,16748
  4021ac:	8fbc0010 	lw	gp,16(sp)
  4021b0:	3c040040 	lui	a0,0x40
[31m  4021b4:	8f99812c 	lw	t9,system[0m
  4021b8:	0320f809 	jalr	t9
  4021bc:	2484434c 	addiu	a0,a0,17228
--
  4023a4:	8fbc0010 	lw	gp,16(sp)
  4023a8:	92020031 	lbu	v0,49(s0)
  4023ac:	00022027 	nor	a0,zero,v0
  4023b0:	92030030 	lbu	v1,48(s0)
  4023b4:	00832024 	and	a0,a0,v1
  4023b8:	a2040032 	sb	a0,50(s0)
  4023bc:	00031827 	nor	v1,zero,v1
  4023c0:	00621024 	and	v0,v1,v0
  4023c4:	a2020033 	sb	v0,51(s0)
  4023c8:	92070030 	lbu	a3,48(s0)
  4023cc:	92060031 	lbu	a2,49(s0)
  4023d0:	10e60007 	beq	a3,a2,4023f0 <DoFactoryReset@@Base+0x7b0>
  4023d4:	3c040040 	lui	a0,0x40
  4023d8:	2484436c 	addiu	a0,a0,17260
  4023dc:	3c050040 	lui	a1,0x40
  4023e0:	8f998164 	lw	t9,-32412(gp)
  4023e4:	0320f809 	jalr	t9
  4023e8:	24a5416c 	addiu	a1,a1,16748
  4023ec:	8fbc0010 	lw	gp,16(sp)
  4023f0:	3c020041 	lui	v0,0x41
  4023f4:	8c424a24 	lw	v0,18980(v0)
  4023f8:	30420200 	andi	v0,v0,0x200
  4023fc:	10400007 	beqz	v0,40241c <DoFactoryReset@@Base+0x7dc>
  402400:	3c020041 	lui	v0,0x41
  402404:	3c040040 	lui	a0,0x40
[31m  402408:	8f99812c 	lw	t9,system[0m
  40240c:	0320f809 	jalr	t9
  402410:	24844388 	addiu	a0,a0,17288
  402414:	8fbc0010 	lw	gp,16(sp)
  402418:	3c020041 	lui	v0,0x41
  40241c:	8c424a24 	lw	v0,18980(v0)
  402420:	30420080 	andi	v0,v0,0x80
  402424:	10400007 	beqz	v0,402444 <DoFactoryReset@@Base+0x804>
  402428:	3c020041 	lui	v0,0x41
  40242c:	3c040040 	lui	a0,0x40
[31m  402430:	8f99812c 	lw	t9,system[0m
  402434:	0320f809 	jalr	t9
  402438:	248443a4 	addiu	a0,a0,17316

[0m
[[0;33m*[0m] Function [0;33msystem[0m used [0;33m9[0m times [0;33mhwmon[0m

