[[0;33m*[0m] Binary protection state of [0;33mnetmgr[0m
[REF] s12

  	RELRO          CANARY            NX           PIE       RPATH        RUNPATH      SYMBOLS      
  	[31mNo RELRO[0m       [31mNo Canary found[0m   [31mNX disabled[0m  [31mNo PIE[0m       [32mNo RPATH[0m     [32mNo RUNPATH[0m   [32mNo Symbols[0m

[0m
[[0;33m*[0m] Function [0;33mprintf[0m tear down of [0;33mnetmgr[0m

  40197c:	3c040040 	lui	a0,0x40
  401980:	a3a2001d 	sb	v0,29(sp)
  401984:	3c040040 	lui	a0,0x40
  401988:	8f998084 	lw	t9,-32636(gp)
  40198c:	0320f809 	jalr	t9
  401990:	2484425c 	addiu	a0,a0,16988
  401994:	8fbc0010 	lw	gp,16(sp)
  401998:	0441001e 	bgez	v0,401a14 <main@@Base+0x11c>
  40199c:	00000000 	nop
  4019a0:	8f998088 	lw	t9,-32632(gp)
  4019a4:	0320f809 	jalr	t9
  4019a8:	00000000 	nop
  4019ac:	8fbc0010 	lw	gp,16(sp)
  4019b0:	8c440000 	lw	a0,0(v0)
  4019b4:	24020011 	li	v0,17
  4019b8:	1082000e 	beq	a0,v0,4019f4 <main@@Base+0xfc>
  4019bc:	3c050040 	lui	a1,0x40
  4019c0:	8f9981d4 	lw	t9,-32300(gp)
  4019c4:	0320f809 	jalr	t9
  4019c8:	00000000 	nop
  4019cc:	8fbc0010 	lw	gp,16(sp)
  4019d0:	3c040040 	lui	a0,0x40
  4019d4:	24844260 	addiu	a0,a0,16992
  4019d8:	3c050040 	lui	a1,0x40
  4019dc:	24a5427c 	addiu	a1,a1,17020
[31m  4019e0:	8f9981e0 	lw	t9,printf[0m
  4019e4:	0320f809 	jalr	t9
  4019e8:	00403021 	move	a2,v0
  4019ec:	100000d5 	b	401d44 <main@@Base+0x44c>
  4019f0:	2402ffff 	li	v0,-1
  4019f4:	3c040040 	lui	a0,0x40
  4019f8:	24844284 	addiu	a0,a0,17028
  4019fc:	24a5427c 	addiu	a1,a1,17020
  401a00:	3c060040 	lui	a2,0x40
[31m  401a04:	8f9981e0 	lw	t9,printf[0m
  401a08:	0320f809 	jalr	t9
  401a0c:	24c6425c 	addiu	a2,a2,16988
  401a10:	8fbc0010 	lw	gp,16(sp)
  401a14:	afa00024 	sw	zero,36(sp)
  401a18:	8f9980f8 	lw	t9,-32520(gp)
  401a1c:	0320f809 	jalr	t9
  401a20:	27a40024 	addiu	a0,sp,36
  401a24:	8fbc0010 	lw	gp,16(sp)
  401a28:	04410009 	bgez	v0,401a50 <main@@Base+0x158>
  401a2c:	3c100040 	lui	s0,0x40
  401a30:	3c040040 	lui	a0,0x40
  401a34:	24844298 	addiu	a0,a0,17048
  401a38:	3c050040 	lui	a1,0x40
[31m  401a3c:	8f9981e0 	lw	t9,printf[0m
  401a40:	0320f809 	jalr	t9
  401a44:	24a5427c 	addiu	a1,a1,17020
--
  402724:	8f82809c 	lw	v0,-32612(gp)
  402728:	90420000 	lbu	v0,0(v0)
  40272c:	30420040 	andi	v0,v0,0x40
  402730:	304200ff 	andi	v0,v0,0xff
  402734:	14400045 	bnez	v0,40284c <MsgManager@@Base+0x7f4>
  402738:	00000000 	nop
  40273c:	8f99816c 	lw	t9,-32404(gp)
  402740:	0320f809 	jalr	t9
  402744:	24040001 	li	a0,1
  402748:	8fbc0010 	lw	gp,16(sp)
  40274c:	1000003f 	b	40284c <MsgManager@@Base+0x7f4>
  402750:	00000000 	nop
  402754:	8f99816c 	lw	t9,-32404(gp)
  402758:	0320f809 	jalr	t9
  40275c:	24040003 	li	a0,3
  402760:	8fbc0010 	lw	gp,16(sp)
  402764:	10000039 	b	40284c <MsgManager@@Base+0x7f4>
  402768:	00000000 	nop
  40276c:	0c100798 	jal	401e60 <MsgSend@@Base+0x50>
  402770:	00000000 	nop
  402774:	8fbc0010 	lw	gp,16(sp)
  402778:	10000034 	b	40284c <MsgManager@@Base+0x7f4>
  40277c:	00000000 	nop
  402780:	8fa40024 	lw	a0,36(sp)
  402784:	8fa50028 	lw	a1,40(sp)
[31m  402788:	8f9981e0 	lw	t9,printf[0m
  40278c:	0320f809 	jalr	t9
  402790:	00000000 	nop
  402794:	8fbc0010 	lw	gp,16(sp)
  402798:	1000002c 	b	40284c <MsgManager@@Base+0x7f4>
  40279c:	00000000 	nop
  4027a0:	14c20016 	bne	a2,v0,4027fc <MsgManager@@Base+0x7a4>
  4027a4:	02a02021 	move	a0,s5
  4027a8:	8e060014 	lw	a2,20(s0)
  4027ac:	2402012c 	li	v0,300
  4027b0:	14c20005 	bne	a2,v0,4027c8 <MsgManager@@Base+0x770>
  4027b4:	00000000 	nop
  4027b8:	8f82809c 	lw	v0,-32612(gp)
  4027bc:	90460000 	lbu	a2,0(v0)
  4027c0:	10000007 	b	4027e0 <MsgManager@@Base+0x788>
  4027c4:	00000000 	nop
  4027c8:	02c02021 	move	a0,s6
[31m  4027cc:	8f9981e0 	lw	t9,printf[0m
  4027d0:	0320f809 	jalr	t9
  4027d4:	02202821 	move	a1,s1
  4027d8:	8fbc0010 	lw	gp,16(sp)
  4027dc:	00003021 	move	a2,zero
  4027e0:	8e050014 	lw	a1,20(s0)
  4027e4:	8f9981d8 	lw	t9,-32296(gp)
  4027e8:	0320f809 	jalr	t9
  4027ec:	02002021 	move	a0,s0
  4027f0:	8fbc0010 	lw	gp,16(sp)
  4027f4:	10000015 	b	40284c <MsgManager@@Base+0x7f4>
  4027f8:	00000000 	nop
[31m  4027fc:	8f9981e0 	lw	t9,printf[0m
  402800:	0320f809 	jalr	t9
  402804:	02202821 	move	a1,s1
  402808:	8fbc0010 	lw	gp,16(sp)
  40280c:	1000000f 	b	40284c <MsgManager@@Base+0x7f4>
  402810:	00000000 	nop
[31m  402814:	8f9981e0 	lw	t9,printf[0m
  402818:	0320f809 	jalr	t9
  40281c:	02202821 	move	a1,s1
  402820:	8fbc0010 	lw	gp,16(sp)
  402824:	8e050010 	lw	a1,16(s0)
[31m  402828:	8f9981e0 	lw	t9,printf[0m
  40282c:	0320f809 	jalr	t9
  402830:	02602021 	move	a0,s3
  402834:	8fbc0010 	lw	gp,16(sp)
  402838:	8e050014 	lw	a1,20(s0)
[31m  40283c:	8f9981e0 	lw	t9,printf[0m
  402840:	0320f809 	jalr	t9
  402844:	02802021 	move	a0,s4
--
  402be0:	8c434804 	lw	v1,18436(v0)
  402be4:	00031840 	sll	v1,v1,0x1
  402be8:	00831825 	or	v1,a0,v1
  402bec:	8f998104 	lw	t9,-32508(gp)
  402bf0:	0320f809 	jalr	t9
  402bf4:	ac434804 	sw	v1,18436(v0)
  402bf8:	8fbc0010 	lw	gp,16(sp)
  402bfc:	00409821 	move	s3,v0
  402c00:	30430001 	andi	v1,v0,0x1
  402c04:	8e024800 	lw	v0,18432(s0)
  402c08:	00021040 	sll	v0,v0,0x1
  402c0c:	00621025 	or	v0,v1,v0
  402c10:	8f99811c 	lw	t9,-32484(gp)
  402c14:	0320f809 	jalr	t9
  402c18:	ae024800 	sw	v0,18432(s0)
  402c1c:	8fbc0010 	lw	gp,16(sp)
  402c20:	00409021 	move	s2,v0
  402c24:	8e024800 	lw	v0,18432(s0)
  402c28:	3044000f 	andi	a0,v0,0xf
  402c2c:	24030007 	li	v1,7
  402c30:	14830020 	bne	a0,v1,402cb4 <UpdateNetPhy@@Base+0x110>
  402c34:	304200ff 	andi	v0,v0,0xff
  402c38:	3c040040 	lui	a0,0x40
  402c3c:	24844558 	addiu	a0,a0,17752
  402c40:	3c050040 	lui	a1,0x40
[31m  402c44:	8f9981e0 	lw	t9,printf[0m
  402c48:	0320f809 	jalr	t9
  402c4c:	24a5427c 	addiu	a1,a1,17020
--
  402c68:	8f9980e0 	lw	t9,-32544(gp)
  402c6c:	0320f809 	jalr	t9
  402c70:	02002021 	move	a0,s0
  402c74:	8fbc0010 	lw	gp,16(sp)
  402c78:	8f8380a8 	lw	v1,-32600(gp)
  402c7c:	8c700000 	lw	s0,0(v1)
  402c80:	8f9981f0 	lw	t9,-32272(gp)
  402c84:	0320f809 	jalr	t9
  402c88:	00402021 	move	a0,v0
  402c8c:	8fbc0010 	lw	gp,16(sp)
  402c90:	02002021 	move	a0,s0
  402c94:	3c050040 	lui	a1,0x40
  402c98:	24a5456c 	addiu	a1,a1,17772
  402c9c:	8f998128 	lw	t9,-32472(gp)
  402ca0:	0320f809 	jalr	t9
  402ca4:	00403021 	move	a2,v0
  402ca8:	8fbc0010 	lw	gp,16(sp)
  402cac:	1000000c 	b	402ce0 <UpdateNetPhy@@Base+0x13c>
  402cb0:	24130001 	li	s3,1
  402cb4:	24030080 	li	v1,128
  402cb8:	1443000a 	bne	v0,v1,402ce4 <UpdateNetPhy@@Base+0x140>
  402cbc:	3c020041 	lui	v0,0x41
  402cc0:	3c040040 	lui	a0,0x40
  402cc4:	24844594 	addiu	a0,a0,17812
  402cc8:	3c050040 	lui	a1,0x40
[31m  402ccc:	8f9981e0 	lw	t9,printf[0m
  402cd0:	0320f809 	jalr	t9
  402cd4:	24a5427c 	addiu	a1,a1,17020
  402cd8:	8fbc0010 	lw	gp,16(sp)
  402cdc:	00009821 	move	s3,zero
  402ce0:	3c020041 	lui	v0,0x41
  402ce4:	8c424804 	lw	v0,18436(v0)
  402ce8:	30440007 	andi	a0,v0,0x7
  402cec:	24030003 	li	v1,3
  402cf0:	14830014 	bne	a0,v1,402d44 <UpdateNetPhy@@Base+0x1a0>
  402cf4:	304200ff 	andi	v0,v0,0xff
  402cf8:	3c040040 	lui	a0,0x40
  402cfc:	248445ac 	addiu	a0,a0,17836
  402d00:	3c050040 	lui	a1,0x40
[31m  402d04:	8f9981e0 	lw	t9,printf[0m
  402d08:	0320f809 	jalr	t9
  402d0c:	24a5427c 	addiu	a1,a1,17020
  402d10:	8fbc0010 	lw	gp,16(sp)
  402d14:	8f998168 	lw	t9,-32408(gp)
  402d18:	0320f809 	jalr	t9
  402d1c:	00000000 	nop
  402d20:	8fbc0010 	lw	gp,16(sp)
  402d24:	10400036 	beqz	v0,402e00 <UpdateNetPhy@@Base+0x25c>
  402d28:	240400cf 	li	a0,207
  402d2c:	8f9981dc 	lw	t9,-32292(gp)
  402d30:	0320f809 	jalr	t9
  402d34:	24050001 	li	a1,1
  402d38:	8fbc0010 	lw	gp,16(sp)
  402d3c:	1000001d 	b	402db4 <UpdateNetPhy@@Base+0x210>
  402d40:	24110001 	li	s1,1
  402d44:	24030080 	li	v1,128
  402d48:	14430013 	bne	v0,v1,402d98 <UpdateNetPhy@@Base+0x1f4>
  402d4c:	3c040040 	lui	a0,0x40
  402d50:	248445c0 	addiu	a0,a0,17856
  402d54:	3c050040 	lui	a1,0x40
[31m  402d58:	8f9981e0 	lw	t9,printf[0m
  402d5c:	0320f809 	jalr	t9
  402d60:	24a5427c 	addiu	a1,a1,17020

[0m
[[0;33m*[0m] Function [0;33mprintf[0m used [0;33m13[0m times [0;33mnetmgr[0m

