[[0;33m*[0m] Binary protection state of [0;33mntpclient[0m
[REF] s12

  	RELRO          CANARY            NX           PIE       RPATH        RUNPATH      SYMBOLS      
  	[31mNo RELRO[0m       [31mNo Canary found[0m   [31mNX disabled[0m  [31mNo PIE[0m       [32mNo RPATH[0m     [32mNo RUNPATH[0m   [32mNo Symbols[0m

[0m
[[0;33m*[0m] Function [0;33mfprintf[0m tear down of [0;33mntpclient[0m

  400fec:	0320f809 	jalr	t9
  400ff0:	27a40018 	addiu	a0,sp,24
  400ff4:	8fbc0010 	lw	gp,16(sp)
  400ff8:	04410008 	bgez	v0,40101c <_ftext@@Base+0x2ec>
  400ffc:	3c040040 	lui	a0,0x40
  401000:	8f9980f0 	lw	t9,-32528(gp)
  401004:	0320f809 	jalr	t9
  401008:	248443c0 	addiu	a0,a0,17344
  40100c:	8fbc0010 	lw	gp,16(sp)
  401010:	8f99804c 	lw	t9,-32692(gp)
  401014:	0320f809 	jalr	t9
  401018:	24040001 	li	a0,1
  40101c:	8fa20020 	lw	v0,32(sp)
  401020:	8fbf009c 	lw	ra,156(sp)
  401024:	03e00008 	jr	ra
  401028:	27bd00a0 	addiu	sp,sp,160
  40102c:	27bdffe0 	addiu	sp,sp,-32
  401030:	afbf001c 	sw	ra,28(sp)
  401034:	3c1c0042 	lui	gp,0x42
  401038:	279cd040 	addiu	gp,gp,-12224
  40103c:	afbc0010 	sw	gp,16(sp)
  401040:	00803021 	move	a2,a0
  401044:	8f828064 	lw	v0,-32668(gp)
  401048:	8c440000 	lw	a0,0(v0)
  40104c:	3c050040 	lui	a1,0x40
[31m  401050:	8f9980a8 	lw	t9,fprintf[0m
  401054:	0320f809 	jalr	t9
  401058:	24a543cc 	addiu	a1,a1,17356
--
  402550:	0320f809 	jalr	t9
  402554:	03c02021 	move	a0,s8
  402558:	8fbc0038 	lw	gp,56(sp)
  40255c:	8f99804c 	lw	t9,-32692(gp)
  402560:	0320f809 	jalr	t9
  402564:	24040001 	li	a0,1
  402568:	8c430008 	lw	v1,8(v0)
  40256c:	2404000a 	li	a0,10
  402570:	14640007 	bne	v1,a0,402590 <main@@Base+0x6ec>
  402574:	24040002 	li	a0,2
  402578:	8c44000c 	lw	a0,12(v0)
  40257c:	24030010 	li	v1,16
  402580:	10830013 	beq	a0,v1,4025d0 <main@@Base+0x72c>
  402584:	00000000 	nop
  402588:	10000006 	b	4025a4 <main@@Base+0x700>
  40258c:	00000000 	nop
  402590:	1464000f 	bne	v1,a0,4025d0 <main@@Base+0x72c>
  402594:	24030004 	li	v1,4
  402598:	8c44000c 	lw	a0,12(v0)
  40259c:	1083000c 	beq	a0,v1,4025d0 <main@@Base+0x72c>
  4025a0:	00000000 	nop
  4025a4:	8f838064 	lw	v1,-32668(gp)
  4025a8:	8c640000 	lw	a0,0(v1)
  4025ac:	3c050040 	lui	a1,0x40
  4025b0:	8c46000c 	lw	a2,12(v0)
[31m  4025b4:	8f9980a8 	lw	t9,fprintf[0m
  4025b8:	0320f809 	jalr	t9
  4025bc:	24a54948 	addiu	a1,a1,18760
--
  40260c:	8fa30074 	lw	v1,116(sp)
  402610:	1462002e 	bne	v1,v0,4026cc <main@@Base+0x828>
  402614:	3c040040 	lui	a0,0x40
  402618:	3c040040 	lui	a0,0x40
  40261c:	24844954 	addiu	a0,a0,18772
  402620:	24050001 	li	a1,1
  402624:	8f828064 	lw	v0,-32668(gp)
  402628:	8c470000 	lw	a3,0(v0)
  40262c:	8f998058 	lw	t9,-32680(gp)
  402630:	0320f809 	jalr	t9
  402634:	24060012 	li	a2,18
  402638:	8fbc0038 	lw	gp,56(sp)
  40263c:	8fa20078 	lw	v0,120(sp)
  402640:	2442fffe 	addiu	v0,v0,-2
  402644:	1c400003 	bgtz	v0,402654 <main@@Base+0x7b0>
  402648:	27b00060 	addiu	s0,sp,96
  40264c:	10000012 	b	402698 <main@@Base+0x7f4>
  402650:	00008821 	move	s1,zero
  402654:	00008821 	move	s1,zero
  402658:	8f928064 	lw	s2,-32668(gp)
  40265c:	3c130040 	lui	s3,0x40
  402660:	26734968 	addiu	s3,s3,18792
  402664:	8e440000 	lw	a0,0(s2)
  402668:	92060000 	lbu	a2,0(s0)
  40266c:	92070001 	lbu	a3,1(s0)
[31m  402670:	8f9980a8 	lw	t9,fprintf[0m
  402674:	0320f809 	jalr	t9
  402678:	02602821 	move	a1,s3
  40267c:	8fbc0038 	lw	gp,56(sp)
  402680:	26310002 	addiu	s1,s1,2
  402684:	8fa20078 	lw	v0,120(sp)
  402688:	2442fffe 	addiu	v0,v0,-2
  40268c:	0222102a 	slt	v0,s1,v0
  402690:	1440fff4 	bnez	v0,402664 <main@@Base+0x7c0>
  402694:	26100002 	addiu	s0,s0,2
  402698:	27a20040 	addiu	v0,sp,64
  40269c:	00518821 	addu	s1,v0,s1
  4026a0:	8f828064 	lw	v0,-32668(gp)
  4026a4:	8c440000 	lw	a0,0(v0)
  4026a8:	3c050040 	lui	a1,0x40
  4026ac:	92260020 	lbu	a2,32(s1)
  4026b0:	92270021 	lbu	a3,33(s1)
[31m  4026b4:	8f9980a8 	lw	t9,fprintf[0m
  4026b8:	0320f809 	jalr	t9
  4026bc:	24a54970 	addiu	a1,a1,18800
  4026c0:	8fbc0038 	lw	gp,56(sp)
  4026c4:	10000027 	b	402764 <main@@Base+0x8c0>
  4026c8:	00000000 	nop
  4026cc:	24844978 	addiu	a0,a0,18808
  4026d0:	24050001 	li	a1,1
  4026d4:	8f828064 	lw	v0,-32668(gp)
  4026d8:	8c470000 	lw	a3,0(v0)
  4026dc:	8f998058 	lw	t9,-32680(gp)
  4026e0:	0320f809 	jalr	t9
  4026e4:	24060012 	li	a2,18
  4026e8:	8fbc0038 	lw	gp,56(sp)
  4026ec:	8fa20078 	lw	v0,120(sp)
  4026f0:	2442ffff 	addiu	v0,v0,-1
  4026f4:	18400012 	blez	v0,402740 <main@@Base+0x89c>
  4026f8:	00008021 	move	s0,zero
  4026fc:	8f918064 	lw	s1,-32668(gp)
  402700:	27b20040 	addiu	s2,sp,64
  402704:	3c130040 	lui	s3,0x40
  402708:	2673498c 	addiu	s3,s3,18828
  40270c:	02501021 	addu	v0,s2,s0
  402710:	8e240000 	lw	a0,0(s1)
  402714:	90460020 	lbu	a2,32(v0)
[31m  402718:	8f9980a8 	lw	t9,fprintf[0m
  40271c:	0320f809 	jalr	t9
  402720:	02602821 	move	a1,s3
  402724:	8fbc0038 	lw	gp,56(sp)
  402728:	26100001 	addiu	s0,s0,1
  40272c:	8fa20078 	lw	v0,120(sp)
  402730:	2442ffff 	addiu	v0,v0,-1
  402734:	0202102a 	slt	v0,s0,v0
  402738:	1440fff5 	bnez	v0,402710 <main@@Base+0x86c>
  40273c:	02501021 	addu	v0,s2,s0
  402740:	03b08021 	addu	s0,sp,s0
  402744:	8f828064 	lw	v0,-32668(gp)
  402748:	8c440000 	lw	a0,0(v0)
  40274c:	3c050040 	lui	a1,0x40
  402750:	92060060 	lbu	a2,96(s0)
[31m  402754:	8f9980a8 	lw	t9,fprintf[0m
  402758:	0320f809 	jalr	t9
  40275c:	24a54944 	addiu	a1,a1,18756
--
  4027f8:	2403ffff 	li	v1,-1
  4027fc:	aca00004 	sw	zero,4(a1)
  402800:	aca00008 	sw	zero,8(a1)
  402804:	aca0000c 	sw	zero,12(a1)
  402808:	24020002 	li	v0,2
  40280c:	a7a200bc 	sh	v0,188(sp)
  402810:	8fa30120 	lw	v1,288(sp)
  402814:	a7a300be 	sh	v1,190(sp)
  402818:	02002021 	move	a0,s0
  40281c:	8f9980a0 	lw	t9,-32608(gp)
  402820:	0320f809 	jalr	t9
  402824:	24060010 	li	a2,16
  402828:	8fbc0038 	lw	gp,56(sp)
  40282c:	2403ffff 	li	v1,-1
  402830:	14430011 	bne	v0,v1,402878 <main@@Base+0x9d4>
  402834:	2402000a 	li	v0,10
  402838:	3c040040 	lui	a0,0x40
  40283c:	8f9980f0 	lw	t9,-32528(gp)
  402840:	0320f809 	jalr	t9
  402844:	24844998 	addiu	a0,a0,18840
  402848:	8fbc0038 	lw	gp,56(sp)
  40284c:	8f828064 	lw	v0,-32668(gp)
  402850:	8c440000 	lw	a0,0(v0)
  402854:	3c050040 	lui	a1,0x40
  402858:	8fa60120 	lw	a2,288(sp)
[31m  40285c:	8f9980a8 	lw	t9,fprintf[0m
  402860:	0320f809 	jalr	t9
  402864:	24a549a0 	addiu	a1,a1,18848

[0m
[[0;33m*[0m] Function [0;33mfprintf[0m used [0;33m7[0m times [0;33mntpclient[0m

