[[0;33m*[0m] Binary protection state of [0;33miwcontrol[0m
[REF] s12

  	RELRO          CANARY            NX           PIE       RPATH        RUNPATH      SYMBOLS      
  	[31mNo RELRO[0m       [31mNo Canary found[0m   [31mNX disabled[0m  [31mNo PIE[0m       [32mNo RPATH[0m     [32mNo RUNPATH[0m   [32mNo Symbols[0m

[0m
[[0;33m*[0m] Function [0;33mfprintf[0m tear down of [0;33miwcontrol[0m

  4022c4:	8fbc0010 	lw	gp,16(sp)
  4022c8:	14430007 	bne	v0,v1,4022e8 <main@@Base+0x300>
  4022cc:	3c040040 	lui	a0,0x40
  4022d0:	8f998130 	lw	t9,-32464(gp)
  4022d4:	0320f809 	jalr	t9
  4022d8:	248472bc 	addiu	a0,a0,29372
  4022dc:	8fbc0010 	lw	gp,16(sp)
  4022e0:	100000c0 	b	4025e4 <main@@Base+0x5fc>
  4022e4:	24040001 	li	a0,1
  4022e8:	06000020 	bltz	s0,40236c <main@@Base+0x384>
  4022ec:	3c050040 	lui	a1,0x40
  4022f0:	8f9980d0 	lw	t9,-32560(gp)
  4022f4:	02002021 	move	a0,s0
  4022f8:	0320f809 	jalr	t9
  4022fc:	24a572d4 	addiu	a1,a1,29396
  402300:	8fbc0010 	lw	gp,16(sp)
  402304:	10400010 	beqz	v0,402348 <main@@Base+0x360>
  402308:	00408821 	move	s1,v0
  40230c:	8f998144 	lw	t9,-32444(gp)
  402310:	0320f809 	jalr	t9
  402314:	00000000 	nop
  402318:	3c050040 	lui	a1,0x40
  40231c:	02202021 	move	a0,s1
  402320:	8fbc0010 	lw	gp,16(sp)
  402324:	24a572d8 	addiu	a1,a1,29400
[31m  402328:	8f9980f8 	lw	t9,fprintf[0m
  40232c:	0320f809 	jalr	t9
  402330:	00403021 	move	a2,v0
--
  403124:	8fbc0010 	lw	gp,16(sp)
  403128:	10000260 	b	403aac <main@@Base+0x1ac4>
  40312c:	afa20698 	sw	v0,1688(sp)
  403130:	8f968150 	lw	s6,-32432(gp)
  403134:	27b2003c 	addiu	s2,sp,60
  403138:	2415003a 	li	s5,58
  40313c:	8f99813c 	lw	t9,-32452(gp)
  403140:	02402021 	move	a0,s2
  403144:	240500ff 	li	a1,255
  403148:	0320f809 	jalr	t9
  40314c:	02603021 	move	a2,s3
  403150:	8fbc0010 	lw	gp,16(sp)
  403154:	10400004 	beqz	v0,403168 <main@@Base+0x1180>
  403158:	02408821 	move	s1,s2
  40315c:	8ec30000 	lw	v1,0(s6)
  403160:	1000ff55 	b	402eb8 <main@@Base+0xed0>
  403164:	00000000 	nop
  403168:	8f9980ac 	lw	t9,-32596(gp)
  40316c:	0320f809 	jalr	t9
  403170:	02602021 	move	a0,s3
  403174:	8fbc0010 	lw	gp,16(sp)
  403178:	1000024c 	b	403aac <main@@Base+0x1ac4>
  40317c:	00000000 	nop
  403180:	8f828088 	lw	v0,-32632(gp)
  403184:	02003021 	move	a2,s0
[31m  403188:	8f9980f8 	lw	t9,fprintf[0m
  40318c:	8c440000 	lw	a0,0(v0)
  403190:	0320f809 	jalr	t9
--
  403b00:	8f99816c 	lw	t9,-32404(gp)
  403b04:	34058912 	li	a1,0x8912
  403b08:	00808021 	move	s0,a0
  403b0c:	afa20018 	sw	v0,24(sp)
  403b10:	27a20020 	addiu	v0,sp,32
  403b14:	27a60018 	addiu	a2,sp,24
  403b18:	0320f809 	jalr	t9
  403b1c:	afa2001c 	sw	v0,28(sp)
  403b20:	8fbc0010 	lw	gp,16(sp)
  403b24:	04410014 	bgez	v0,403b78 <main@@Base+0x1b90>
  403b28:	00000000 	nop
  403b2c:	8f998068 	lw	t9,-32664(gp)
  403b30:	8f828088 	lw	v0,-32632(gp)
  403b34:	8c500000 	lw	s0,0(v0)
  403b38:	0320f809 	jalr	t9
  403b3c:	00000000 	nop
  403b40:	8fbc0010 	lw	gp,16(sp)
  403b44:	8c440000 	lw	a0,0(v0)
  403b48:	8f998158 	lw	t9,-32424(gp)
  403b4c:	0320f809 	jalr	t9
  403b50:	00000000 	nop
  403b54:	3c050040 	lui	a1,0x40
  403b58:	02002021 	move	a0,s0
  403b5c:	8fbc0010 	lw	gp,16(sp)
  403b60:	24a5797c 	addiu	a1,a1,31100
[31m  403b64:	8f9980f8 	lw	t9,fprintf[0m
  403b68:	0320f809 	jalr	t9
  403b6c:	00403021 	move	a2,v0
--
  403dd4:	8fbc0010 	lw	gp,16(sp)
  403dd8:	14400021 	bnez	v0,403e60 <main@@Base+0x1e78>
  403ddc:	3c050040 	lui	a1,0x40
  403de0:	8f99816c 	lw	t9,-32404(gp)
  403de4:	27b70020 	addiu	s7,sp,32
  403de8:	02202021 	move	a0,s1
  403dec:	34058b03 	li	a1,0x8b03
  403df0:	0320f809 	jalr	t9
  403df4:	02e03021 	move	a2,s7
  403df8:	8fbc0010 	lw	gp,16(sp)
  403dfc:	04410011 	bgez	v0,403e44 <main@@Base+0x1e5c>
  403e00:	24060010 	li	a2,16
  403e04:	8f998068 	lw	t9,-32664(gp)
  403e08:	8f828088 	lw	v0,-32632(gp)
  403e0c:	8c520000 	lw	s2,0(v0)
  403e10:	0320f809 	jalr	t9
  403e14:	2410ffff 	li	s0,-1
  403e18:	8fbc0010 	lw	gp,16(sp)
  403e1c:	8c440000 	lw	a0,0(v0)
  403e20:	8f998158 	lw	t9,-32424(gp)
  403e24:	0320f809 	jalr	t9
  403e28:	00000000 	nop
  403e2c:	3c050040 	lui	a1,0x40
  403e30:	02402021 	move	a0,s2
  403e34:	8fbc0010 	lw	gp,16(sp)
[31m  403e38:	8f9980f8 	lw	t9,fprintf[0m
  403e3c:	10000031 	b	403f04 <main@@Base+0x1f1c>
  403e40:	24a579b8 	addiu	a1,a1,31160
--
  403e9c:	8f99816c 	lw	t9,-32404(gp)
  403ea0:	24020001 	li	v0,1
  403ea4:	02202021 	move	a0,s1
  403ea8:	a3a20034 	sb	v0,52(sp)
  403eac:	34058b02 	li	a1,0x8b02
  403eb0:	0320f809 	jalr	t9
  403eb4:	27a60020 	addiu	a2,sp,32
  403eb8:	8fbc0010 	lw	gp,16(sp)
  403ebc:	044105f1 	bgez	v0,405684 <main@@Base+0x369c>
  403ec0:	26100001 	addiu	s0,s0,1
  403ec4:	2610ffff 	addiu	s0,s0,-1
  403ec8:	8f998068 	lw	t9,-32664(gp)
  403ecc:	8f828088 	lw	v0,-32632(gp)
  403ed0:	8c520000 	lw	s2,0(v0)
  403ed4:	0320f809 	jalr	t9
  403ed8:	2410ffff 	li	s0,-1
  403edc:	8fbc0010 	lw	gp,16(sp)
  403ee0:	8c440000 	lw	a0,0(v0)
  403ee4:	8f998158 	lw	t9,-32424(gp)
  403ee8:	0320f809 	jalr	t9
  403eec:	00000000 	nop
  403ef0:	3c050040 	lui	a1,0x40
  403ef4:	02402021 	move	a0,s2
  403ef8:	8fbc0010 	lw	gp,16(sp)
  403efc:	24a579d0 	addiu	a1,a1,31184
[31m  403f00:	8f9980f8 	lw	t9,fprintf[0m
  403f04:	00403021 	move	a2,v0
  403f08:	0320f809 	jalr	t9
--
  403f88:	0c100a0c 	jal	402830 <main@@Base+0x848>
  403f8c:	00000000 	nop
  403f90:	8fbc0010 	lw	gp,16(sp)
  403f94:	8f99816c 	lw	t9,-32404(gp)
  403f98:	02202021 	move	a0,s1
  403f9c:	34058b08 	li	a1,0x8b08
  403fa0:	0320f809 	jalr	t9
  403fa4:	27a60020 	addiu	a2,sp,32
  403fa8:	8fbc0010 	lw	gp,16(sp)
  403fac:	044105b5 	bgez	v0,405684 <main@@Base+0x369c>
  403fb0:	26100001 	addiu	s0,s0,1
  403fb4:	2610ffff 	addiu	s0,s0,-1
  403fb8:	8f998068 	lw	t9,-32664(gp)
  403fbc:	8f828088 	lw	v0,-32632(gp)
  403fc0:	8c520000 	lw	s2,0(v0)
  403fc4:	0320f809 	jalr	t9
  403fc8:	2410ffff 	li	s0,-1
  403fcc:	8fbc0010 	lw	gp,16(sp)
  403fd0:	8c440000 	lw	a0,0(v0)
  403fd4:	8f998158 	lw	t9,-32424(gp)
  403fd8:	0320f809 	jalr	t9
  403fdc:	00000000 	nop
  403fe0:	3c050040 	lui	a1,0x40
  403fe4:	02402021 	move	a0,s2
  403fe8:	8fbc0010 	lw	gp,16(sp)
[31m  403fec:	8f9980f8 	lw	t9,fprintf[0m
  403ff0:	1000ffc4 	b	403f04 <main@@Base+0x1f1c>
  403ff4:	24a579ec 	addiu	a1,a1,31212
--
  404080:	27a20040 	addiu	v0,sp,64
  404084:	02202021 	move	a0,s1
  404088:	27b70020 	addiu	s7,sp,32
  40408c:	34058b2b 	li	a1,0x8b2b
  404090:	afa20030 	sw	v0,48(sp)
  404094:	02e03021 	move	a2,s7
  404098:	a7a00034 	sh	zero,52(sp)
  40409c:	0320f809 	jalr	t9
  4040a0:	a7a00036 	sh	zero,54(sp)
  4040a4:	8fbc0010 	lw	gp,16(sp)
  4040a8:	04410011 	bgez	v0,4040f0 <main@@Base+0x2108>
  4040ac:	24060010 	li	a2,16
  4040b0:	8f998068 	lw	t9,-32664(gp)
  4040b4:	8f828088 	lw	v0,-32632(gp)
  4040b8:	8c520000 	lw	s2,0(v0)
  4040bc:	0320f809 	jalr	t9
  4040c0:	2410ffff 	li	s0,-1
  4040c4:	8fbc0010 	lw	gp,16(sp)
  4040c8:	8c440000 	lw	a0,0(v0)
  4040cc:	8f998158 	lw	t9,-32424(gp)
  4040d0:	0320f809 	jalr	t9
  4040d4:	00000000 	nop
  4040d8:	3c050040 	lui	a1,0x40
  4040dc:	02402021 	move	a0,s2
  4040e0:	8fbc0010 	lw	gp,16(sp)
[31m  4040e4:	8f9980f8 	lw	t9,fprintf[0m
  4040e8:	1000ff86 	b	403f04 <main@@Base+0x1f1c>
  4040ec:	24a57a08 	addiu	a1,a1,31240
--
  404430:	8fbc0010 	lw	gp,16(sp)
  404434:	2610ffff 	addiu	s0,s0,-1
  404438:	8f99816c 	lw	t9,-32404(gp)
  40443c:	02202021 	move	a0,s1
  404440:	34058b2a 	li	a1,0x8b2a
  404444:	0320f809 	jalr	t9
  404448:	27a60020 	addiu	a2,sp,32
  40444c:	8fbc0010 	lw	gp,16(sp)
  404450:	0441048c 	bgez	v0,405684 <main@@Base+0x369c>
  404454:	26100001 	addiu	s0,s0,1
  404458:	2610ffff 	addiu	s0,s0,-1
  40445c:	8f998068 	lw	t9,-32664(gp)
  404460:	8f828088 	lw	v0,-32632(gp)
  404464:	8c520000 	lw	s2,0(v0)
  404468:	0320f809 	jalr	t9
  40446c:	2410ffff 	li	s0,-1
  404470:	8fbc0010 	lw	gp,16(sp)
  404474:	8c460000 	lw	a2,0(v0)
  404478:	8f998158 	lw	t9,-32424(gp)
  40447c:	00c02021 	move	a0,a2
  404480:	0320f809 	jalr	t9
  404484:	afa60090 	sw	a2,144(sp)
  404488:	3c050040 	lui	a1,0x40
  40448c:	02402021 	move	a0,s2
  404490:	8fbc0010 	lw	gp,16(sp)
[31m  404494:	8f9980f8 	lw	t9,fprintf[0m
  404498:	10000469 	b	405640 <main@@Base+0x3658>
  40449c:	24a57a7c 	addiu	a1,a1,31356
--
  404544:	8f99816c 	lw	t9,-32404(gp)
  404548:	02202021 	move	a0,s1
  40454c:	27b00020 	addiu	s0,sp,32
  404550:	34058b1b 	li	a1,0x8b1b
  404554:	afa20030 	sw	v0,48(sp)
  404558:	02003021 	move	a2,s0
  40455c:	a7a00034 	sh	zero,52(sp)
  404560:	0320f809 	jalr	t9
  404564:	a7a00036 	sh	zero,54(sp)
  404568:	8fbc0010 	lw	gp,16(sp)
  40456c:	04410011 	bgez	v0,4045b4 <main@@Base+0x25cc>
  404570:	24060010 	li	a2,16
  404574:	8f998068 	lw	t9,-32664(gp)
  404578:	8f828088 	lw	v0,-32632(gp)
  40457c:	8c520000 	lw	s2,0(v0)
  404580:	0320f809 	jalr	t9
  404584:	2410ffff 	li	s0,-1
  404588:	8fbc0010 	lw	gp,16(sp)
  40458c:	8c440000 	lw	a0,0(v0)
  404590:	8f998158 	lw	t9,-32424(gp)
  404594:	0320f809 	jalr	t9
  404598:	00000000 	nop
  40459c:	3c050040 	lui	a1,0x40
  4045a0:	02402021 	move	a0,s2
  4045a4:	8fbc0010 	lw	gp,16(sp)
[31m  4045a8:	8f9980f8 	lw	t9,fprintf[0m
  4045ac:	1000fe55 	b	403f04 <main@@Base+0x1f1c>
  4045b0:	24a57a9c 	addiu	a1,a1,31388
  4045b4:	8f9980e0 	lw	t9,-32544(gp)
  4045b8:	02002021 	move	a0,s0
  4045bc:	0320f809 	jalr	t9
  4045c0:	02802821 	move	a1,s4
  4045c4:	02e08021 	move	s0,s7
  4045c8:	8fbc0010 	lw	gp,16(sp)
  4045cc:	10000030 	b	404690 <main@@Base+0x26a8>
  4045d0:	24020001 	li	v0,1
  4045d4:	8f998054 	lw	t9,strlen
  4045d8:	0320f809 	jalr	t9
  4045dc:	02002021 	move	a0,s0
  4045e0:	2c420021 	sltiu	v0,v0,33
  4045e4:	8fbc0010 	lw	gp,16(sp)
  4045e8:	1440000f 	bnez	v0,404628 <main@@Base+0x2640>
  4045ec:	24020001 	li	v0,1
  4045f0:	8f828088 	lw	v0,-32632(gp)
  4045f4:	3c050040 	lui	a1,0x40
  4045f8:	02003821 	move	a3,s0
[31m  4045fc:	8f9980f8 	lw	t9,fprintf[0m
  404600:	24a57ab0 	addiu	a1,a1,31408
  404604:	02e08021 	move	s0,s7
--
  4046b0:	02202021 	move	a0,s1
  4046b4:	34058b1a 	li	a1,0x8b1a
  4046b8:	8fbc0010 	lw	gp,16(sp)
  4046bc:	24420001 	addiu	v0,v0,1
  4046c0:	27a60020 	addiu	a2,sp,32
  4046c4:	8f99816c 	lw	t9,-32404(gp)
  4046c8:	0320f809 	jalr	t9
  4046cc:	a7a20034 	sh	v0,52(sp)
  4046d0:	8fbc0010 	lw	gp,16(sp)
  4046d4:	044103eb 	bgez	v0,405684 <main@@Base+0x369c>
  4046d8:	26100001 	addiu	s0,s0,1
  4046dc:	2610ffff 	addiu	s0,s0,-1
  4046e0:	8f998068 	lw	t9,-32664(gp)
  4046e4:	8f828088 	lw	v0,-32632(gp)
  4046e8:	8c520000 	lw	s2,0(v0)
  4046ec:	0320f809 	jalr	t9
  4046f0:	2410ffff 	li	s0,-1
  4046f4:	8fbc0010 	lw	gp,16(sp)
  4046f8:	8c440000 	lw	a0,0(v0)
  4046fc:	8f998158 	lw	t9,-32424(gp)
  404700:	0320f809 	jalr	t9
  404704:	00000000 	nop
  404708:	3c050040 	lui	a1,0x40
  40470c:	02402021 	move	a0,s2
  404710:	8fbc0010 	lw	gp,16(sp)
[31m  404714:	8f9980f8 	lw	t9,fprintf[0m
  404718:	1000fdfa 	b	403f04 <main@@Base+0x1f1c>
  40471c:	24a57ad4 	addiu	a1,a1,31444
  404720:	8f9980d8 	lw	t9,-32552(gp)
  404724:	02e02021 	move	a0,s7
  404728:	0320f809 	jalr	t9
  40472c:	24a57ae8 	addiu	a1,a1,31464
  404730:	8fbc0010 	lw	gp,16(sp)
  404734:	1440003e 	bnez	v0,404830 <main@@Base+0x2848>
  404738:	3c050040 	lui	a1,0x40
  40473c:	26100001 	addiu	s0,s0,1
  404740:	0212102a 	slt	v0,s0,s2
  404744:	14400004 	bnez	v0,404758 <main@@Base+0x2770>
  404748:	00000000 	nop
  40474c:	0c100a0c 	jal	402830 <main@@Base+0x848>
  404750:	00000000 	nop
  404754:	8fbc0010 	lw	gp,16(sp)
  404758:	8f99806c 	lw	t9,-32660(gp)
  40475c:	02202021 	move	a0,s1
  404760:	0320f809 	jalr	t9
  404764:	02802821 	move	a1,s4
  404768:	8fbc0010 	lw	gp,16(sp)
  40476c:	04410009 	bgez	v0,404794 <main@@Base+0x27ac>
  404770:	00101080 	sll	v0,s0,0x2
  404774:	8f828088 	lw	v0,-32632(gp)
  404778:	3c050040 	lui	a1,0x40
  40477c:	02803021 	move	a2,s4
[31m  404780:	8f9980f8 	lw	t9,fprintf[0m
  404784:	24a57aec 	addiu	a1,a1,31468
  404788:	8c440000 	lw	a0,0(v0)
--
  4047c0:	00000000 	nop
  4047c4:	8fbc0010 	lw	gp,16(sp)
  4047c8:	8f99816c 	lw	t9,-32404(gp)
  4047cc:	02202021 	move	a0,s1
  4047d0:	34058b14 	li	a1,0x8b14
  4047d4:	0320f809 	jalr	t9
  4047d8:	27a60020 	addiu	a2,sp,32
  4047dc:	8fbc0010 	lw	gp,16(sp)
  4047e0:	04400003 	bltz	v0,4047f0 <main@@Base+0x2808>
  4047e4:	00000000 	nop
  4047e8:	100003a5 	b	405680 <main@@Base+0x3698>
  4047ec:	26100001 	addiu	s0,s0,1
  4047f0:	8f998068 	lw	t9,-32664(gp)
  4047f4:	8f828088 	lw	v0,-32632(gp)
  4047f8:	8c520000 	lw	s2,0(v0)
  4047fc:	0320f809 	jalr	t9
  404800:	2410ffff 	li	s0,-1
  404804:	8fbc0010 	lw	gp,16(sp)
  404808:	8c440000 	lw	a0,0(v0)
  40480c:	8f998158 	lw	t9,-32424(gp)
  404810:	0320f809 	jalr	t9
  404814:	00000000 	nop
  404818:	3c050040 	lui	a1,0x40
  40481c:	02402021 	move	a0,s2
  404820:	8fbc0010 	lw	gp,16(sp)
[31m  404824:	8f9980f8 	lw	t9,fprintf[0m
  404828:	1000fdb6 	b	403f04 <main@@Base+0x1f1c>
  40482c:	24a57b24 	addiu	a1,a1,31524
--
  404838:	24a57b34 	addiu	a1,a1,31540
  40483c:	0320f809 	jalr	t9
  404840:	24060004 	li	a2,4
  404844:	8fbc0010 	lw	gp,16(sp)
  404848:	1440003d 	bnez	v0,404940 <main@@Base+0x2958>
  40484c:	3c050040 	lui	a1,0x40
  404850:	26100001 	addiu	s0,s0,1
  404854:	0212102a 	slt	v0,s0,s2
  404858:	14400004 	bnez	v0,40486c <main@@Base+0x2884>
  40485c:	0010b880 	sll	s7,s0,0x2
  404860:	0c100a0c 	jal	402830 <main@@Base+0x848>
  404864:	00000000 	nop
  404868:	8fbc0010 	lw	gp,16(sp)
  40486c:	8f998054 	lw	t9,strlen
  404870:	0277b821 	addu	s7,s3,s7
  404874:	8ee70000 	lw	a3,0(s7)
  404878:	00e02021 	move	a0,a3
  40487c:	0320f809 	jalr	t9
  404880:	afa70090 	sw	a3,144(sp)
  404884:	2c420021 	sltiu	v0,v0,33
  404888:	8fbc0010 	lw	gp,16(sp)
  40488c:	8fa70090 	lw	a3,144(sp)
  404890:	1440000a 	bnez	v0,4048bc <main@@Base+0x28d4>
  404894:	3c050040 	lui	a1,0x40
  404898:	8f828088 	lw	v0,-32632(gp)
[31m  40489c:	8f9980f8 	lw	t9,fprintf[0m
  4048a0:	24a57b3c 	addiu	a1,a1,31548
  4048a4:	8c440000 	lw	a0,0(v0)
--
  4048d0:	02202021 	move	a0,s1
  4048d4:	34058b1c 	li	a1,0x8b1c
  4048d8:	8fbc0010 	lw	gp,16(sp)
  4048dc:	24420001 	addiu	v0,v0,1
  4048e0:	27a60020 	addiu	a2,sp,32
  4048e4:	8f99816c 	lw	t9,-32404(gp)
  4048e8:	0320f809 	jalr	t9
  4048ec:	a7a20034 	sh	v0,52(sp)
  4048f0:	8fbc0010 	lw	gp,16(sp)
  4048f4:	04410363 	bgez	v0,405684 <main@@Base+0x369c>
  4048f8:	26100001 	addiu	s0,s0,1
  4048fc:	2610ffff 	addiu	s0,s0,-1
  404900:	8f998068 	lw	t9,-32664(gp)
  404904:	8f828088 	lw	v0,-32632(gp)
  404908:	8c520000 	lw	s2,0(v0)
  40490c:	0320f809 	jalr	t9
  404910:	2410ffff 	li	s0,-1
  404914:	8fbc0010 	lw	gp,16(sp)
  404918:	8c440000 	lw	a0,0(v0)
  40491c:	8f998158 	lw	t9,-32424(gp)
  404920:	0320f809 	jalr	t9
  404924:	00000000 	nop
  404928:	3c050040 	lui	a1,0x40
  40492c:	02402021 	move	a0,s2
  404930:	8fbc0010 	lw	gp,16(sp)
[31m  404934:	8f9980f8 	lw	t9,fprintf[0m
  404938:	1000fd72 	b	403f04 <main@@Base+0x1f1c>
  40493c:	24a57b60 	addiu	a1,a1,31584
--
  4049f0:	8fa30094 	lw	v1,148(sp)
  4049f4:	14400021 	bnez	v0,404a7c <main@@Base+0x2a94>
  4049f8:	3c050040 	lui	a1,0x40
  4049fc:	8f99816c 	lw	t9,-32404(gp)
  404a00:	27b70020 	addiu	s7,sp,32
  404a04:	02202021 	move	a0,s1
  404a08:	34058b21 	li	a1,0x8b21
  404a0c:	0320f809 	jalr	t9
  404a10:	02e03021 	move	a2,s7
  404a14:	8fbc0010 	lw	gp,16(sp)
  404a18:	04410011 	bgez	v0,404a60 <main@@Base+0x2a78>
  404a1c:	24060010 	li	a2,16
  404a20:	8f998068 	lw	t9,-32664(gp)
  404a24:	8f828088 	lw	v0,-32632(gp)
  404a28:	8c520000 	lw	s2,0(v0)
  404a2c:	0320f809 	jalr	t9
  404a30:	2410ffff 	li	s0,-1
  404a34:	8fbc0010 	lw	gp,16(sp)
  404a38:	8c440000 	lw	a0,0(v0)
  404a3c:	8f998158 	lw	t9,-32424(gp)
  404a40:	0320f809 	jalr	t9
  404a44:	00000000 	nop
  404a48:	3c050040 	lui	a1,0x40
  404a4c:	02402021 	move	a0,s2
  404a50:	8fbc0010 	lw	gp,16(sp)
[31m  404a54:	8f9980f8 	lw	t9,fprintf[0m
  404a58:	1000fd2a 	b	403f04 <main@@Base+0x1f1c>
  404a5c:	24a57b90 	addiu	a1,a1,31632
--
  404c18:	10000002 	b	404c24 <main@@Base+0x2c3c>
  404c1c:	a3a20034 	sb	v0,52(sp)
  404c20:	02e08021 	move	s0,s7
  404c24:	8f99816c 	lw	t9,-32404(gp)
  404c28:	02202021 	move	a0,s1
  404c2c:	34058b20 	li	a1,0x8b20
  404c30:	0320f809 	jalr	t9
  404c34:	27a60020 	addiu	a2,sp,32
  404c38:	8fbc0010 	lw	gp,16(sp)
  404c3c:	04410291 	bgez	v0,405684 <main@@Base+0x369c>
  404c40:	26100001 	addiu	s0,s0,1
  404c44:	2610ffff 	addiu	s0,s0,-1
  404c48:	8f998068 	lw	t9,-32664(gp)
  404c4c:	8f828088 	lw	v0,-32632(gp)
  404c50:	8c520000 	lw	s2,0(v0)
  404c54:	0320f809 	jalr	t9
  404c58:	2410ffff 	li	s0,-1
  404c5c:	8fbc0010 	lw	gp,16(sp)
  404c60:	8c440000 	lw	a0,0(v0)
  404c64:	8f998158 	lw	t9,-32424(gp)
  404c68:	0320f809 	jalr	t9
  404c6c:	00000000 	nop
  404c70:	3c050040 	lui	a1,0x40
  404c74:	02402021 	move	a0,s2
  404c78:	8fbc0010 	lw	gp,16(sp)
[31m  404c7c:	8f9980f8 	lw	t9,fprintf[0m
  404c80:	1000fca0 	b	403f04 <main@@Base+0x1f1c>
  404c84:	24a57ba8 	addiu	a1,a1,31656
--
  404d48:	3c050040 	lui	a1,0x40
  404d4c:	27a30020 	addiu	v1,sp,32
  404d50:	02202021 	move	a0,s1
  404d54:	34058b23 	li	a1,0x8b23
  404d58:	8f99816c 	lw	t9,-32404(gp)
  404d5c:	00603021 	move	a2,v1
  404d60:	0320f809 	jalr	t9
  404d64:	afa30094 	sw	v1,148(sp)
  404d68:	8fbc0010 	lw	gp,16(sp)
  404d6c:	8fa30094 	lw	v1,148(sp)
  404d70:	04410011 	bgez	v0,404db8 <main@@Base+0x2dd0>
  404d74:	24060010 	li	a2,16
  404d78:	8f998068 	lw	t9,-32664(gp)
  404d7c:	8f828088 	lw	v0,-32632(gp)
  404d80:	8c520000 	lw	s2,0(v0)
  404d84:	0320f809 	jalr	t9
  404d88:	2410ffff 	li	s0,-1
  404d8c:	8fbc0010 	lw	gp,16(sp)
  404d90:	8c440000 	lw	a0,0(v0)
  404d94:	8f998158 	lw	t9,-32424(gp)
  404d98:	0320f809 	jalr	t9
  404d9c:	00000000 	nop
  404da0:	3c050040 	lui	a1,0x40
  404da4:	02402021 	move	a0,s2
  404da8:	8fbc0010 	lw	gp,16(sp)
[31m  404dac:	8f9980f8 	lw	t9,fprintf[0m
  404db0:	1000fc54 	b	403f04 <main@@Base+0x1f1c>
  404db4:	24a57bc0 	addiu	a1,a1,31680
--
  404df8:	0c100a0c 	jal	402830 <main@@Base+0x848>
  404dfc:	00000000 	nop
  404e00:	8fbc0010 	lw	gp,16(sp)
  404e04:	8f99816c 	lw	t9,-32404(gp)
  404e08:	02202021 	move	a0,s1
  404e0c:	34058b22 	li	a1,0x8b22
  404e10:	0320f809 	jalr	t9
  404e14:	27a60020 	addiu	a2,sp,32
  404e18:	8fbc0010 	lw	gp,16(sp)
  404e1c:	04410219 	bgez	v0,405684 <main@@Base+0x369c>
  404e20:	26100001 	addiu	s0,s0,1
  404e24:	2610ffff 	addiu	s0,s0,-1
  404e28:	8f998068 	lw	t9,-32664(gp)
  404e2c:	8f828088 	lw	v0,-32632(gp)
  404e30:	8c520000 	lw	s2,0(v0)
  404e34:	0320f809 	jalr	t9
  404e38:	2410ffff 	li	s0,-1
  404e3c:	8fbc0010 	lw	gp,16(sp)
  404e40:	8c440000 	lw	a0,0(v0)
  404e44:	8f998158 	lw	t9,-32424(gp)
  404e48:	0320f809 	jalr	t9
  404e4c:	00000000 	nop
  404e50:	3c050040 	lui	a1,0x40
  404e54:	02402021 	move	a0,s2
  404e58:	8fbc0010 	lw	gp,16(sp)
[31m  404e5c:	8f9980f8 	lw	t9,fprintf[0m
  404e60:	1000fc28 	b	403f04 <main@@Base+0x1f1c>
  404e64:	24a57bd4 	addiu	a1,a1,31700
--
  404f28:	3c050040 	lui	a1,0x40
  404f2c:	27a30020 	addiu	v1,sp,32
  404f30:	02202021 	move	a0,s1
  404f34:	34058b25 	li	a1,0x8b25
  404f38:	8f99816c 	lw	t9,-32404(gp)
  404f3c:	00603021 	move	a2,v1
  404f40:	0320f809 	jalr	t9
  404f44:	afa30094 	sw	v1,148(sp)
  404f48:	8fbc0010 	lw	gp,16(sp)
  404f4c:	8fa30094 	lw	v1,148(sp)
  404f50:	04410011 	bgez	v0,404f98 <main@@Base+0x2fb0>
  404f54:	24060010 	li	a2,16
  404f58:	8f998068 	lw	t9,-32664(gp)
  404f5c:	8f828088 	lw	v0,-32632(gp)
  404f60:	8c520000 	lw	s2,0(v0)
  404f64:	0320f809 	jalr	t9
  404f68:	2410ffff 	li	s0,-1
  404f6c:	8fbc0010 	lw	gp,16(sp)
  404f70:	8c440000 	lw	a0,0(v0)
  404f74:	8f998158 	lw	t9,-32424(gp)
  404f78:	0320f809 	jalr	t9
  404f7c:	00000000 	nop
  404f80:	3c050040 	lui	a1,0x40
  404f84:	02402021 	move	a0,s2
  404f88:	8fbc0010 	lw	gp,16(sp)
[31m  404f8c:	8f9980f8 	lw	t9,fprintf[0m
  404f90:	1000fbdc 	b	403f04 <main@@Base+0x1f1c>
  404f94:	24a57bec 	addiu	a1,a1,31724
--
  404fd8:	0c100a0c 	jal	402830 <main@@Base+0x848>
  404fdc:	00000000 	nop
  404fe0:	8fbc0010 	lw	gp,16(sp)
  404fe4:	8f99816c 	lw	t9,-32404(gp)
  404fe8:	02202021 	move	a0,s1
  404fec:	34058b24 	li	a1,0x8b24
  404ff0:	0320f809 	jalr	t9
  404ff4:	27a60020 	addiu	a2,sp,32
  404ff8:	8fbc0010 	lw	gp,16(sp)
  404ffc:	044101a1 	bgez	v0,405684 <main@@Base+0x369c>
  405000:	26100001 	addiu	s0,s0,1
  405004:	2610ffff 	addiu	s0,s0,-1
  405008:	8f998068 	lw	t9,-32664(gp)
  40500c:	8f828088 	lw	v0,-32632(gp)
  405010:	8c520000 	lw	s2,0(v0)
  405014:	0320f809 	jalr	t9
  405018:	2410ffff 	li	s0,-1
  40501c:	8fbc0010 	lw	gp,16(sp)
  405020:	8c440000 	lw	a0,0(v0)
  405024:	8f998158 	lw	t9,-32424(gp)
  405028:	0320f809 	jalr	t9
  40502c:	00000000 	nop
  405030:	3c050040 	lui	a1,0x40
  405034:	02402021 	move	a0,s2
  405038:	8fbc0010 	lw	gp,16(sp)
[31m  40503c:	8f9980f8 	lw	t9,fprintf[0m
  405040:	1000fbb0 	b	403f04 <main@@Base+0x1f1c>
  405044:	24a57c00 	addiu	a1,a1,31744
--
  40511c:	8fbc0010 	lw	gp,16(sp)
  405120:	8fa20018 	lw	v0,24(sp)
  405124:	02202021 	move	a0,s1
  405128:	34058b06 	li	a1,0x8b06
  40512c:	8f99816c 	lw	t9,-32404(gp)
  405130:	27a60020 	addiu	a2,sp,32
  405134:	0320f809 	jalr	t9
  405138:	afa20030 	sw	v0,48(sp)
  40513c:	8fbc0010 	lw	gp,16(sp)
  405140:	04410150 	bgez	v0,405684 <main@@Base+0x369c>
  405144:	26100001 	addiu	s0,s0,1
  405148:	2610ffff 	addiu	s0,s0,-1
  40514c:	8f998068 	lw	t9,-32664(gp)
  405150:	8f828088 	lw	v0,-32632(gp)
  405154:	8c520000 	lw	s2,0(v0)
  405158:	0320f809 	jalr	t9
  40515c:	2410ffff 	li	s0,-1
  405160:	8fbc0010 	lw	gp,16(sp)
  405164:	8c440000 	lw	a0,0(v0)
  405168:	8f998158 	lw	t9,-32424(gp)
  40516c:	0320f809 	jalr	t9
  405170:	00000000 	nop
  405174:	3c050040 	lui	a1,0x40
  405178:	02402021 	move	a0,s2
  40517c:	8fbc0010 	lw	gp,16(sp)
[31m  405180:	8f9980f8 	lw	t9,fprintf[0m
  405184:	1000fb5f 	b	403f04 <main@@Base+0x1f1c>
  405188:	24a57c1c 	addiu	a1,a1,31772
--
  405208:	8fbc0010 	lw	gp,16(sp)
  40520c:	14400021 	bnez	v0,405294 <main@@Base+0x32ac>
  405210:	3c050040 	lui	a1,0x40
  405214:	8f99816c 	lw	t9,-32404(gp)
  405218:	27b70020 	addiu	s7,sp,32
  40521c:	02202021 	move	a0,s1
  405220:	34058b2d 	li	a1,0x8b2d
  405224:	0320f809 	jalr	t9
  405228:	02e03021 	move	a2,s7
  40522c:	8fbc0010 	lw	gp,16(sp)
  405230:	04410011 	bgez	v0,405278 <main@@Base+0x3290>
  405234:	24060010 	li	a2,16
  405238:	8f998068 	lw	t9,-32664(gp)
  40523c:	8f828088 	lw	v0,-32632(gp)
  405240:	8c520000 	lw	s2,0(v0)
  405244:	0320f809 	jalr	t9
  405248:	2410ffff 	li	s0,-1
  40524c:	8fbc0010 	lw	gp,16(sp)
  405250:	8c440000 	lw	a0,0(v0)
  405254:	8f998158 	lw	t9,-32424(gp)
  405258:	0320f809 	jalr	t9
  40525c:	00000000 	nop
  405260:	3c050040 	lui	a1,0x40
  405264:	02402021 	move	a0,s2
  405268:	8fbc0010 	lw	gp,16(sp)
[31m  40526c:	8f9980f8 	lw	t9,fprintf[0m
  405270:	1000fb24 	b	403f04 <main@@Base+0x1f1c>
  405274:	24a57c38 	addiu	a1,a1,31800
--
  4055d8:	2610ffff 	addiu	s0,s0,-1
  4055dc:	8f99816c 	lw	t9,-32404(gp)
  4055e0:	02202021 	move	a0,s1
  4055e4:	34058b2c 	li	a1,0x8b2c
  4055e8:	0320f809 	jalr	t9
  4055ec:	27a60020 	addiu	a2,sp,32
  4055f0:	8fbc0010 	lw	gp,16(sp)
  4055f4:	04410023 	bgez	v0,405684 <main@@Base+0x369c>
  4055f8:	26100001 	addiu	s0,s0,1
  4055fc:	2610ffff 	addiu	s0,s0,-1
  405600:	8f998068 	lw	t9,-32664(gp)
  405604:	8f828088 	lw	v0,-32632(gp)
  405608:	8c520000 	lw	s2,0(v0)
  40560c:	0320f809 	jalr	t9
  405610:	2410ffff 	li	s0,-1
  405614:	8fbc0010 	lw	gp,16(sp)
  405618:	8c460000 	lw	a2,0(v0)
  40561c:	8f998158 	lw	t9,-32424(gp)
  405620:	00c02021 	move	a0,a2
  405624:	0320f809 	jalr	t9
  405628:	afa60090 	sw	a2,144(sp)
  40562c:	3c050040 	lui	a1,0x40
  405630:	02402021 	move	a0,s2
  405634:	8fbc0010 	lw	gp,16(sp)
  405638:	24a57c8c 	addiu	a1,a1,31884
[31m  40563c:	8f9980f8 	lw	t9,fprintf[0m
  405640:	8fa60090 	lw	a2,144(sp)
  405644:	0320f809 	jalr	t9
  405648:	00403821 	move	a3,v0
  40564c:	1000fa30 	b	403f10 <main@@Base+0x1f28>
  405650:	00000000 	nop
  405654:	8f828088 	lw	v0,-32632(gp)
  405658:	02e03021 	move	a2,s7
[31m  40565c:	8f9980f8 	lw	t9,fprintf[0m
  405660:	24a57ca4 	addiu	a1,a1,31908
  405664:	8c440000 	lw	a0,0(v0)
--
  405a48:	afbc0028 	sw	gp,40(sp)
  405a4c:	10e00030 	beqz	a3,405b10 <print_stats@@Base+0xd8>
  405a50:	00c01021 	move	v0,a2
  405a54:	90aa0001 	lbu	t2,1(a1)
  405a58:	1140002d 	beqz	t2,405b10 <print_stats@@Base+0xd8>
  405a5c:	00000000 	nop
  405a60:	90c9002d 	lbu	t1,45(a2)
  405a64:	90a80003 	lbu	t0,3(a1)
  405a68:	012a582b 	sltu	t3,t1,t2
  405a6c:	90a60000 	lbu	a2,0(a1)
  405a70:	9047002c 	lbu	a3,44(v0)
  405a74:	90a30002 	lbu	v1,2(a1)
  405a78:	11600013 	beqz	t3,405ac8 <print_stats@@Base+0x90>
  405a7c:	31050007 	andi	a1,t0,0x7
  405a80:	31080007 	andi	t0,t0,0x7
  405a84:	15000003 	bnez	t0,405a94 <print_stats@@Base+0x5c>
  405a88:	3c020040 	lui	v0,0x40
  405a8c:	10000003 	b	405a9c <print_stats@@Base+0x64>
  405a90:	24427b5c 	addiu	v0,v0,31580
  405a94:	3c020040 	lui	v0,0x40
  405a98:	24427d60 	addiu	v0,v0,32096
  405a9c:	2545ff00 	addiu	a1,t2,-256
  405aa0:	2463ff00 	addiu	v1,v1,-256
  405aa4:	afa50010 	sw	a1,16(sp)
  405aa8:	3c050040 	lui	a1,0x40
[31m  405aac:	8f9980f8 	lw	t9,fprintf[0m
  405ab0:	24a57d6c 	addiu	a1,a1,32108
  405ab4:	afa30014 	sw	v1,20(sp)
  405ab8:	0320f809 	jalr	t9
  405abc:	afa20018 	sw	v0,24(sp)
  405ac0:	10000024 	b	405b54 <print_stats@@Base+0x11c>
  405ac4:	00000000 	nop
  405ac8:	9048002e 	lbu	t0,46(v0)
  405acc:	14a00003 	bnez	a1,405adc <print_stats@@Base+0xa4>
  405ad0:	3c020040 	lui	v0,0x40
  405ad4:	10000003 	b	405ae4 <print_stats@@Base+0xac>
  405ad8:	24427b5c 	addiu	v0,v0,31580
  405adc:	3c020040 	lui	v0,0x40
  405ae0:	24427d60 	addiu	v0,v0,32096
[31m  405ae4:	8f9980f8 	lw	t9,fprintf[0m
  405ae8:	3c050040 	lui	a1,0x40
  405aec:	afaa0010 	sw	t2,16(sp)
  405af0:	24a57da8 	addiu	a1,a1,32168
  405af4:	afa90014 	sw	t1,20(sp)
  405af8:	afa30018 	sw	v1,24(sp)
  405afc:	afa8001c 	sw	t0,28(sp)
  405b00:	0320f809 	jalr	t9
  405b04:	afa20020 	sw	v0,32(sp)
  405b08:	10000012 	b	405b54 <print_stats@@Base+0x11c>
  405b0c:	00000000 	nop
  405b10:	90a20003 	lbu	v0,3(a1)
  405b14:	90a60000 	lbu	a2,0(a1)
  405b18:	30420007 	andi	v0,v0,0x7
  405b1c:	90a70001 	lbu	a3,1(a1)
  405b20:	90a30002 	lbu	v1,2(a1)
  405b24:	14400003 	bnez	v0,405b34 <print_stats@@Base+0xfc>
  405b28:	3c020040 	lui	v0,0x40
  405b2c:	10000003 	b	405b3c <print_stats@@Base+0x104>
  405b30:	24427b5c 	addiu	v0,v0,31580
  405b34:	3c020040 	lui	v0,0x40
  405b38:	24427d60 	addiu	v0,v0,32096
  405b3c:	3c050040 	lui	a1,0x40
[31m  405b40:	8f9980f8 	lw	t9,fprintf[0m
  405b44:	24a57de0 	addiu	a1,a1,32224
  405b48:	afa30010 	sw	v1,16(sp)
--
  405b78:	279c0170 	addiu	gp,gp,368
  405b7c:	afbc0010 	sw	gp,16(sp)
  405b80:	24060010 	li	a2,16
  405b84:	8f9980e0 	lw	t9,-32544(gp)
  405b88:	27b00018 	addiu	s0,sp,24
  405b8c:	00809021 	move	s2,a0
  405b90:	02002021 	move	a0,s0
  405b94:	0320f809 	jalr	t9
  405b98:	00a08821 	move	s1,a1
  405b9c:	34058915 	li	a1,0x8915
  405ba0:	8fbc0010 	lw	gp,16(sp)
  405ba4:	02402021 	move	a0,s2
  405ba8:	8f99816c 	lw	t9,-32404(gp)
  405bac:	0320f809 	jalr	t9
  405bb0:	02003021 	move	a2,s0
  405bb4:	8fbc0010 	lw	gp,16(sp)
  405bb8:	04400005 	bltz	v0,405bd0 <check_addr_type@@Base+0x70>
  405bbc:	00000000 	nop
  405bc0:	97a30028 	lhu	v1,40(sp)
  405bc4:	24020002 	li	v0,2
  405bc8:	1062000a 	beq	v1,v0,405bf4 <check_addr_type@@Base+0x94>
  405bcc:	02002021 	move	a0,s0
  405bd0:	8f828088 	lw	v0,-32632(gp)
  405bd4:	3c050040 	lui	a1,0x40
  405bd8:	02203021 	move	a2,s1
[31m  405bdc:	8f9980f8 	lw	t9,fprintf[0m
  405be0:	8c440000 	lw	a0,0(v0)
  405be4:	0320f809 	jalr	t9
  405be8:	24a57e10 	addiu	a1,a1,32272
  405bec:	10000019 	b	405c54 <check_addr_type@@Base+0xf4>
  405bf0:	2402ffff 	li	v0,-1
  405bf4:	8f9980e0 	lw	t9,-32544(gp)
  405bf8:	24060010 	li	a2,16
  405bfc:	0320f809 	jalr	t9
  405c00:	02202821 	move	a1,s1
  405c04:	02402021 	move	a0,s2
  405c08:	34058927 	li	a1,0x8927
  405c0c:	8fbc0010 	lw	gp,16(sp)
  405c10:	8f99816c 	lw	t9,-32404(gp)
  405c14:	0320f809 	jalr	t9
  405c18:	02003021 	move	a2,s0
  405c1c:	8fbc0010 	lw	gp,16(sp)
  405c20:	04400004 	bltz	v0,405c34 <check_addr_type@@Base+0xd4>
  405c24:	24030001 	li	v1,1
  405c28:	97a40028 	lhu	a0,40(sp)
  405c2c:	10830009 	beq	a0,v1,405c54 <check_addr_type@@Base+0xf4>
  405c30:	00001021 	move	v0,zero
  405c34:	8f828088 	lw	v0,-32632(gp)
  405c38:	3c050040 	lui	a1,0x40
  405c3c:	02203021 	move	a2,s1
[31m  405c40:	8f9980f8 	lw	t9,fprintf[0m
  405c44:	8c440000 	lw	a0,0(v0)
  405c48:	0320f809 	jalr	t9
--
  405f64:	afb10080 	sw	s1,128(sp)
  405f68:	afb0007c 	sw	s0,124(sp)
  405f6c:	3c1c0042 	lui	gp,0x42
  405f70:	279c0170 	addiu	gp,gp,368
  405f74:	afbc0018 	sw	gp,24(sp)
  405f78:	8f9980c4 	lw	t9,-32572(gp)
  405f7c:	00809021 	move	s2,a0
  405f80:	00a08821 	move	s1,a1
  405f84:	2405003a 	li	a1,58
  405f88:	00c02021 	move	a0,a2
  405f8c:	00c08021 	move	s0,a2
  405f90:	0320f809 	jalr	t9
  405f94:	00e09821 	move	s3,a3
  405f98:	14400041 	bnez	v0,4060a0 <in_addr@@Base+0x154>
  405f9c:	02602821 	move	a1,s3
  405fa0:	27b50020 	addiu	s5,sp,32
  405fa4:	02002021 	move	a0,s0
  405fa8:	0c10178b 	jal	405e2c <check_addr_type@@Base+0x2cc>
  405fac:	02a02821 	move	a1,s5
  405fb0:	8fbc0018 	lw	gp,24(sp)
  405fb4:	0441000a 	bgez	v0,405fe0 <in_addr@@Base+0x94>
  405fb8:	27b40030 	addiu	s4,sp,48
  405fbc:	8f828088 	lw	v0,-32632(gp)
  405fc0:	3c050040 	lui	a1,0x40
  405fc4:	02003021 	move	a2,s0
[31m  405fc8:	8f9980f8 	lw	t9,fprintf[0m
  405fcc:	8c440000 	lw	a0,0(v0)
  405fd0:	0320f809 	jalr	t9
--
  40600c:	0320f809 	jalr	t9
  406010:	afa00050 	sw	zero,80(sp)
  406014:	02402021 	move	a0,s2
  406018:	34058954 	li	a1,0x8954
  40601c:	8fbc0018 	lw	gp,24(sp)
  406020:	8f99816c 	lw	t9,-32404(gp)
  406024:	0320f809 	jalr	t9
  406028:	02803021 	move	a2,s4
  40602c:	8fbc0018 	lw	gp,24(sp)
  406030:	04400005 	bltz	v0,406048 <in_addr@@Base+0xfc>
  406034:	00000000 	nop
  406038:	8fa20050 	lw	v0,80(sp)
  40603c:	30420002 	andi	v0,v0,0x2
  406040:	14400011 	bnez	v0,406088 <in_addr@@Base+0x13c>
  406044:	02602021 	move	a0,s3
  406048:	8f998068 	lw	t9,-32664(gp)
  40604c:	0320f809 	jalr	t9
  406050:	00000000 	nop
  406054:	3c050040 	lui	a1,0x40
  406058:	02003021 	move	a2,s0
  40605c:	8fbc0018 	lw	gp,24(sp)
  406060:	24a57e90 	addiu	a1,a1,32400
  406064:	02203821 	move	a3,s1
  406068:	8c420000 	lw	v0,0(v0)
  40606c:	8f838088 	lw	v1,-32632(gp)
[31m  406070:	8f9980f8 	lw	t9,fprintf[0m
  406074:	8c640000 	lw	a0,0(v1)
  406078:	0320f809 	jalr	t9
  40607c:	afa20010 	sw	v0,16(sp)
  406080:	10000014 	b	4060d4 <in_addr@@Base+0x188>
  406084:	2403ffff 	li	v1,-1
  406088:	8f998138 	lw	t9,-32456(gp)
  40608c:	27a50040 	addiu	a1,sp,64
  406090:	0320f809 	jalr	t9
  406094:	24060010 	li	a2,16
  406098:	1000000e 	b	4060d4 <in_addr@@Base+0x188>
  40609c:	00001821 	move	v1,zero
  4060a0:	0c10173e 	jal	405cf8 <check_addr_type@@Base+0x198>
  4060a4:	02002021 	move	a0,s0
  4060a8:	8fbc0018 	lw	gp,24(sp)
  4060ac:	04410009 	bgez	v0,4060d4 <in_addr@@Base+0x188>
  4060b0:	00001821 	move	v1,zero
  4060b4:	8f828088 	lw	v0,-32632(gp)
  4060b8:	3c050040 	lui	a1,0x40
  4060bc:	02003021 	move	a2,s0
[31m  4060c0:	8f9980f8 	lw	t9,fprintf[0m
  4060c4:	8c440000 	lw	a0,0(v0)
  4060c8:	0320f809 	jalr	t9
--
  4061e0:	10400050 	beqz	v0,406324 <print_retry_value@@Base+0x1b8>
  4061e4:	3c050040 	lui	a1,0x40
  4061e8:	8f998048 	lw	t9,-32696(gp)
  4061ec:	3c040040 	lui	a0,0x40
  4061f0:	02002821 	move	a1,s0
  4061f4:	24847f2c 	addiu	a0,a0,32556
  4061f8:	0320f809 	jalr	t9
  4061fc:	32520004 	andi	s2,s2,0x4
  406200:	8fbc0010 	lw	gp,16(sp)
  406204:	12400012 	beqz	s2,406250 <print_retry_value@@Base+0xe4>
  406208:	00000000 	nop
  40620c:	8f9980dc 	lw	t9,-32548(gp)
  406210:	0320f809 	jalr	t9
  406214:	02202021 	move	a0,s1
  406218:	3c040040 	lui	a0,0x40
  40621c:	8fbc0010 	lw	gp,16(sp)
  406220:	00602821 	move	a1,v1
  406224:	8c877d0c 	lw	a3,32012(a0)
  406228:	8f99815c 	lw	t9,-32420(gp)
  40622c:	8c867d08 	lw	a2,32008(a0)
  406230:	0320f809 	jalr	t9
  406234:	00402021 	move	a0,v0
  406238:	3c050040 	lui	a1,0x40
  40623c:	02002021 	move	a0,s0
  406240:	8fbc0010 	lw	gp,16(sp)
[31m  406244:	8f9980f8 	lw	t9,fprintf[0m
  406248:	10000016 	b	4062a4 <print_retry_value@@Base+0x138>
  40624c:	24a57f38 	addiu	a1,a1,32568
  406250:	3c02000f 	lui	v0,0xf
  406254:	34424240 	ori	v0,v0,0x4240
  406258:	0222102a 	slt	v0,s1,v0
  40625c:	14400019 	bnez	v0,4062c4 <print_retry_value@@Base+0x158>
  406260:	2a2203e8 	slti	v0,s1,1000
  406264:	8f9980dc 	lw	t9,-32548(gp)
  406268:	0320f809 	jalr	t9
  40626c:	02202021 	move	a0,s1
  406270:	3c040040 	lui	a0,0x40
  406274:	8fbc0010 	lw	gp,16(sp)
  406278:	00602821 	move	a1,v1
  40627c:	8c877d0c 	lw	a3,32012(a0)
  406280:	8f99815c 	lw	t9,-32420(gp)
  406284:	8c867d08 	lw	a2,32008(a0)
  406288:	0320f809 	jalr	t9
  40628c:	00402021 	move	a0,v0
  406290:	3c050040 	lui	a1,0x40
  406294:	02002021 	move	a0,s0
  406298:	8fbc0010 	lw	gp,16(sp)
  40629c:	24a57f3c 	addiu	a1,a1,32572
[31m  4062a0:	8f9980f8 	lw	t9,fprintf[0m
  4062a4:	8fbf0024 	lw	ra,36(sp)
  4062a8:	00603821 	move	a3,v1
  4062ac:	8fb20020 	lw	s2,32(sp)
  4062b0:	00403021 	move	a2,v0
  4062b4:	8fb1001c 	lw	s1,28(sp)
  4062b8:	8fb00018 	lw	s0,24(sp)
  4062bc:	03200008 	jr	t9
  4062c0:	27bd0028 	addiu	sp,sp,40
  4062c4:	14400012 	bnez	v0,406310 <print_retry_value@@Base+0x1a4>
  4062c8:	00000000 	nop
  4062cc:	8f9980dc 	lw	t9,-32548(gp)
  4062d0:	0320f809 	jalr	t9
  4062d4:	02202021 	move	a0,s1
  4062d8:	3c040040 	lui	a0,0x40
  4062dc:	8fbc0010 	lw	gp,16(sp)
  4062e0:	00602821 	move	a1,v1
  4062e4:	8c877d14 	lw	a3,32020(a0)
  4062e8:	8f99815c 	lw	t9,-32420(gp)
  4062ec:	8c867d10 	lw	a2,32016(a0)
  4062f0:	0320f809 	jalr	t9
  4062f4:	00402021 	move	a0,v0
  4062f8:	3c050040 	lui	a1,0x40
  4062fc:	02002021 	move	a0,s0
  406300:	8fbc0010 	lw	gp,16(sp)
[31m  406304:	8f9980f8 	lw	t9,fprintf[0m
  406308:	1000ffe6 	b	4062a4 <print_retry_value@@Base+0x138>
  40630c:	24a57f40 	addiu	a1,a1,32576
  406310:	3c050040 	lui	a1,0x40
  406314:	02002021 	move	a0,s0
[31m  406318:	8f9980f8 	lw	t9,fprintf[0m
  40631c:	10000004 	b	406330 <print_retry_value@@Base+0x1c4>
  406320:	24a57f48 	addiu	a1,a1,32584
  406324:	02002021 	move	a0,s0
[31m  406328:	8f9980f8 	lw	t9,fprintf[0m
  40632c:	24a57f50 	addiu	a1,a1,32592
  406330:	02203021 	move	a2,s1
--
  406478:	02002821 	move	a1,s0
  40647c:	10000004 	b	406490 <print_pm_value@@Base+0x98>
  406480:	24847fe0 	addiu	a0,a0,32736
  406484:	3c040040 	lui	a0,0x40
  406488:	02002821 	move	a1,s0
  40648c:	24847fec 	addiu	a0,a0,32748
  406490:	0320f809 	jalr	t9
  406494:	32520004 	andi	s2,s2,0x4
  406498:	8fbc0010 	lw	gp,16(sp)
  40649c:	12400012 	beqz	s2,4064e8 <print_pm_value@@Base+0xf0>
  4064a0:	00000000 	nop
  4064a4:	8f9980dc 	lw	t9,-32548(gp)
  4064a8:	0320f809 	jalr	t9
  4064ac:	02202021 	move	a0,s1
  4064b0:	3c040040 	lui	a0,0x40
  4064b4:	8fbc0010 	lw	gp,16(sp)
  4064b8:	00602821 	move	a1,v1
  4064bc:	8c877d0c 	lw	a3,32012(a0)
  4064c0:	8f99815c 	lw	t9,-32420(gp)
  4064c4:	8c867d08 	lw	a2,32008(a0)
  4064c8:	0320f809 	jalr	t9
  4064cc:	00402021 	move	a0,v0
  4064d0:	3c050040 	lui	a1,0x40
  4064d4:	02002021 	move	a0,s0
  4064d8:	8fbc0010 	lw	gp,16(sp)
[31m  4064dc:	8f9980f8 	lw	t9,fprintf[0m
  4064e0:	10000016 	b	40653c <print_pm_value@@Base+0x144>
  4064e4:	24a57764 	addiu	a1,a1,30564
  4064e8:	3c02000f 	lui	v0,0xf
  4064ec:	34424240 	ori	v0,v0,0x4240
  4064f0:	0222102a 	slt	v0,s1,v0
  4064f4:	14400019 	bnez	v0,40655c <print_pm_value@@Base+0x164>
  4064f8:	2a2203e8 	slti	v0,s1,1000
  4064fc:	8f9980dc 	lw	t9,-32548(gp)
  406500:	0320f809 	jalr	t9
  406504:	02202021 	move	a0,s1
  406508:	3c040040 	lui	a0,0x40
  40650c:	8fbc0010 	lw	gp,16(sp)
  406510:	00602821 	move	a1,v1
  406514:	8c877d0c 	lw	a3,32012(a0)
  406518:	8f99815c 	lw	t9,-32420(gp)
  40651c:	8c867d08 	lw	a2,32008(a0)
  406520:	0320f809 	jalr	t9
  406524:	00402021 	move	a0,v0
  406528:	3c050040 	lui	a1,0x40
  40652c:	02002021 	move	a0,s0
  406530:	8fbc0010 	lw	gp,16(sp)
  406534:	24a57ff8 	addiu	a1,a1,32760
[31m  406538:	8f9980f8 	lw	t9,fprintf[0m
  40653c:	8fbf0024 	lw	ra,36(sp)
  406540:	00603821 	move	a3,v1
  406544:	8fb20020 	lw	s2,32(sp)
  406548:	00403021 	move	a2,v0
  40654c:	8fb1001c 	lw	s1,28(sp)
  406550:	8fb00018 	lw	s0,24(sp)
  406554:	03200008 	jr	t9
  406558:	27bd0028 	addiu	sp,sp,40
  40655c:	14400012 	bnez	v0,4065a8 <print_pm_value@@Base+0x1b0>
  406560:	02203021 	move	a2,s1
  406564:	8f9980dc 	lw	t9,-32548(gp)
  406568:	0320f809 	jalr	t9
  40656c:	02202021 	move	a0,s1
  406570:	3c040040 	lui	a0,0x40
  406574:	8fbc0010 	lw	gp,16(sp)
  406578:	00602821 	move	a1,v1
  40657c:	8c877d14 	lw	a3,32020(a0)
  406580:	8f99815c 	lw	t9,-32420(gp)
  406584:	8c867d10 	lw	a2,32016(a0)
  406588:	0320f809 	jalr	t9
  40658c:	00402021 	move	a0,v0
  406590:	3c050041 	lui	a1,0x41
  406594:	02002021 	move	a0,s0
  406598:	8fbc0010 	lw	gp,16(sp)
[31m  40659c:	8f9980f8 	lw	t9,fprintf[0m
  4065a0:	1000ffe6 	b	40653c <print_pm_value@@Base+0x144>
  4065a4:	24a58000 	addiu	a1,a1,-32768
  4065a8:	02002021 	move	a0,s0
[31m  4065ac:	8f9980f8 	lw	t9,fprintf[0m
  4065b0:	3c050041 	lui	a1,0x41
  4065b4:	8fbf0024 	lw	ra,36(sp)
--
  406630:	02603021 	move	a2,s3
  406634:	8f99816c 	lw	t9,-32404(gp)
  406638:	a7a0002c 	sh	zero,44(sp)
  40663c:	0320f809 	jalr	t9
  406640:	a7a0002e 	sh	zero,46(sp)
  406644:	8fbc0010 	lw	gp,16(sp)
  406648:	04400039 	bltz	v0,406730 <get_range_info@@Base+0x160>
  40664c:	2403ffff 	li	v1,-1
  406650:	8f998138 	lw	t9,-32456(gp)
  406654:	02402821 	move	a1,s2
  406658:	24060238 	li	a2,568
  40665c:	0320f809 	jalr	t9
  406660:	02002021 	move	a0,s0
  406664:	97a2002c 	lhu	v0,44(sp)
  406668:	8fbc0010 	lw	gp,16(sp)
  40666c:	2c42012c 	sltiu	v0,v0,300
  406670:	1440001b 	bnez	v0,4066e0 <get_range_info@@Base+0x110>
  406674:	3c050041 	lui	a1,0x41
  406678:	92070118 	lbu	a3,280(s0)
  40667c:	24020016 	li	v0,22
  406680:	10e2002b 	beq	a3,v0,406730 <get_range_info@@Base+0x160>
  406684:	00001821 	move	v1,zero
  406688:	8f908088 	lw	s0,-32632(gp)
  40668c:	3c050041 	lui	a1,0x41
  406690:	02203021 	move	a2,s1
[31m  406694:	8f9980f8 	lw	t9,fprintf[0m
  406698:	8e040000 	lw	a0,0(s0)
  40669c:	0320f809 	jalr	t9
  4066a0:	24a58010 	addiu	a1,a1,-32752
  4066a4:	3c050041 	lui	a1,0x41
  4066a8:	8fbc0010 	lw	gp,16(sp)
  4066ac:	24a58048 	addiu	a1,a1,-32696
  4066b0:	8e040000 	lw	a0,0(s0)
[31m  4066b4:	8f9980f8 	lw	t9,fprintf[0m
  4066b8:	0320f809 	jalr	t9
  4066bc:	24060016 	li	a2,22
  4066c0:	3c040041 	lui	a0,0x41
  4066c4:	8fbc0010 	lw	gp,16(sp)
  4066c8:	8e050000 	lw	a1,0(s0)
  4066cc:	8f998048 	lw	t9,-32696(gp)
  4066d0:	0320f809 	jalr	t9
  4066d4:	24848080 	addiu	a0,a0,-32640
  4066d8:	10000015 	b	406730 <get_range_info@@Base+0x160>
  4066dc:	00001821 	move	v1,zero
  4066e0:	8f908088 	lw	s0,-32632(gp)
  4066e4:	02203021 	move	a2,s1
[31m  4066e8:	8f9980f8 	lw	t9,fprintf[0m
  4066ec:	8e040000 	lw	a0,0(s0)
  4066f0:	0320f809 	jalr	t9
  4066f4:	24a580a0 	addiu	a1,a1,-32608
  4066f8:	3c050041 	lui	a1,0x41
  4066fc:	8fbc0010 	lw	gp,16(sp)
  406700:	24a580e0 	addiu	a1,a1,-32544
  406704:	8e040000 	lw	a0,0(s0)
[31m  406708:	8f9980f8 	lw	t9,fprintf[0m
  40670c:	0320f809 	jalr	t9
  406710:	24060016 	li	a2,22

[0m
[[0;33m*[0m] Function [0;33mfprintf[0m used [0;33m46[0m times [0;33miwcontrol[0m

