[[0;33m*[0m] Binary protection state of [0;33mmkdosfs[0m
[REF] s12

  	RELRO          CANARY            NX           PIE       RPATH        RUNPATH      SYMBOLS      
  	[31mNo RELRO[0m       [31mNo Canary found[0m   [31mNX disabled[0m  [31mNo PIE[0m       [32mNo RPATH[0m     [32mNo RUNPATH[0m   [32mNo Symbols[0m

[0m
[[0;33m*[0m] Function [0;33mfprintf[0m tear down of [0;33mmkdosfs[0m

  400dc8:	10400006 	beqz	v0,400de4 <_ftext@@Base+0x194>
  400dcc:	8f998040 	lw	t9,-32704(gp)
  400dd0:	13200004 	beqz	t9,400de4 <_ftext@@Base+0x194>
  400dd4:	8fbf001c 	lw	ra,28(sp)
  400dd8:	24846784 	addiu	a0,a0,26500
  400ddc:	03200008 	jr	t9
  400de0:	27bd0020 	addiu	sp,sp,32
  400de4:	8fbf001c 	lw	ra,28(sp)
  400de8:	03e00008 	jr	ra
  400dec:	27bd0020 	addiu	sp,sp,32
  400df0:	2482ffff 	addiu	v0,a0,-1
  400df4:	00451021 	addu	v0,v0,a1
  400df8:	0045001a 	div	zero,v0,a1
  400dfc:	14a00002 	bnez	a1,400e08 <_ftext@@Base+0x1b8>
  400e00:	00000000 	nop
  400e04:	0007000d 	break	0x7
  400e08:	03e00008 	jr	ra
  400e0c:	00001012 	mflo	v0
  400e10:	27bdffe0 	addiu	sp,sp,-32
  400e14:	afbf001c 	sw	ra,28(sp)
  400e18:	3c1c0042 	lui	gp,0x42
  400e1c:	279ce9a0 	addiu	gp,gp,-5728
  400e20:	afbc0010 	sw	gp,16(sp)
  400e24:	8f828058 	lw	v0,-32680(gp)
  400e28:	00802821 	move	a1,a0
[31m  400e2c:	8f9980b0 	lw	t9,fprintf[0m
  400e30:	8c440000 	lw	a0,0(v0)
  400e34:	3c020041 	lui	v0,0x41
--
  403d70:	8c440000 	lw	a0,0(v0)
  403d74:	0320f809 	jalr	t9
  403d78:	3c140042 	lui	s4,0x42
  403d7c:	8fbc0018 	lw	gp,24(sp)
  403d80:	ae82ab40 	sw	v0,-21696(s4)
  403d84:	1640fd6c 	bnez	s2,403338 <main@@Base+0x1cc>
  403d88:	ae83ab44 	sw	v1,-21692(s4)
  403d8c:	12c2030c 	beq	s6,v0,4049c0 <main@@Base+0x1854>
  403d90:	00000000 	nop
  403d94:	8f908058 	lw	s0,-32680(gp)
  403d98:	3c040040 	lui	a0,0x40
  403d9c:	8f998050 	lw	t9,-32688(gp)
  403da0:	248460b8 	addiu	a0,a0,24760
  403da4:	8e070000 	lw	a3,0(s0)
  403da8:	24050001 	li	a1,1
  403dac:	0320f809 	jalr	t9
  403db0:	2406001f 	li	a2,31
  403db4:	3c050040 	lui	a1,0x40
  403db8:	02e03821 	move	a3,s7
  403dbc:	8fbc0018 	lw	gp,24(sp)
  403dc0:	02c03021 	move	a2,s6
  403dc4:	24a560d8 	addiu	a1,a1,24792
  403dc8:	8e83ab44 	lw	v1,-21692(s4)
  403dcc:	8e82ab40 	lw	v0,-21696(s4)
  403dd0:	8e040000 	lw	a0,0(s0)
[31m  403dd4:	8f9980b0 	lw	t9,fprintf[0m
  403dd8:	afa30014 	sw	v1,20(sp)
  403ddc:	0320f809 	jalr	t9
--
  403e64:	10620246 	beq	v1,v0,404780 <main@@Base+0x1614>
  403e68:	00001821 	move	v1,zero
  403e6c:	00001021 	move	v0,zero
  403e70:	afa3007c 	sw	v1,124(sp)
  403e74:	afa20078 	sw	v0,120(sp)
  403e78:	aea06ae8 	sw	zero,27368(s5)
  403e7c:	3c120041 	lui	s2,0x41
  403e80:	8e426b0c 	lw	v0,27404(s2)
  403e84:	10400019 	beqz	v0,403eec <main@@Base+0xd80>
  403e88:	3c052000 	lui	a1,0x2000
  403e8c:	8f99810c 	lw	t9,-32500(gp)
  403e90:	8e046980 	lw	a0,27008(s0)
  403e94:	34a51268 	ori	a1,a1,0x1268
  403e98:	0320f809 	jalr	t9
  403e9c:	27a60024 	addiu	a2,sp,36
  403ea0:	8fbc0018 	lw	gp,24(sp)
  403ea4:	04400019 	bltz	v0,403f0c <main@@Base+0xda0>
  403ea8:	3c110041 	lui	s1,0x41
  403eac:	8e26697c 	lw	a2,27004(s1)
  403eb0:	8fa20024 	lw	v0,36(sp)
  403eb4:	00c2182a 	slt	v1,a2,v0
  403eb8:	10600016 	beqz	v1,403f14 <main@@Base+0xda8>
  403ebc:	3c050040 	lui	a1,0x40
  403ec0:	8f838058 	lw	v1,-32680(gp)
  403ec4:	00403021 	move	a2,v0
[31m  403ec8:	8f9980b0 	lw	t9,fprintf[0m
  403ecc:	24a5627c 	addiu	a1,a1,25212
  403ed0:	8c640000 	lw	a0,0(v1)
--
  40457c:	ae26697c 	sw	a2,27004(s1)
  404580:	8f99810c 	lw	t9,-32500(gp)
  404584:	3c05401c 	lui	a1,0x401c
  404588:	8e046980 	lw	a0,27008(s0)
  40458c:	34a50204 	ori	a1,a1,0x204
  404590:	0320f809 	jalr	t9
  404594:	27a60034 	addiu	a2,sp,52
  404598:	8fbc0018 	lw	gp,24(sp)
  40459c:	1440010e 	bnez	v0,4049d8 <main@@Base+0x186c>
  4045a0:	3c040040 	lui	a0,0x40
  4045a4:	8fa20038 	lw	v0,56(sp)
  4045a8:	00021a02 	srl	v1,v0,0x8
  4045ac:	3042ffff 	andi	v0,v0,0xffff
  4045b0:	306300ff 	andi	v1,v1,0xff
  4045b4:	00021200 	sll	v0,v0,0x8
  4045b8:	00621025 	or	v0,v1,v0
  4045bc:	1000fedd 	b	404134 <main@@Base+0xfc8>
  4045c0:	3042ffff 	andi	v0,v0,0xffff
  4045c4:	2402000f 	li	v0,15
  4045c8:	24030002 	li	v1,2
  4045cc:	afa20038 	sw	v0,56(sp)
  4045d0:	24020f00 	li	v0,3840
  4045d4:	1000fed7 	b	404134 <main@@Base+0xfc8>
  4045d8:	afa3003c 	sw	v1,60(sp)
  4045dc:	8f828058 	lw	v0,-32680(gp)
[31m  4045e0:	8f9980b0 	lw	t9,fprintf[0m
  4045e4:	8c440000 	lw	a0,0(v0)
  4045e8:	0320f809 	jalr	t9
--
  40493c:	00a4202b 	sltu	a0,a1,a0
  404940:	1000fcd0 	b	403c84 <main@@Base+0xb18>
  404944:	2484ffff 	addiu	a0,a0,-1
  404948:	3c040040 	lui	a0,0x40
  40494c:	0c100384 	jal	400e10 <_ftext@@Base+0x1c0>
  404950:	248461ec 	addiu	a0,a0,25068
  404954:	8fa800f8 	lw	t0,248(sp)
  404958:	8f828058 	lw	v0,-32680(gp)
  40495c:	8d066990 	lw	a2,27024(t0)
  404960:	8f99804c 	lw	t9,-32692(gp)
  404964:	8c500000 	lw	s0,0(v0)
  404968:	0320f809 	jalr	t9
  40496c:	afa60108 	sw	a2,264(sp)
  404970:	8c440000 	lw	a0,0(v0)
  404974:	3c020041 	lui	v0,0x41
  404978:	8fbc0018 	lw	gp,24(sp)
  40497c:	8c476b14 	lw	a3,27412(v0)
  404980:	8f998100 	lw	t9,-32512(gp)
  404984:	0320f809 	jalr	t9
  404988:	afa70100 	sw	a3,256(sp)
  40498c:	3c050040 	lui	a1,0x40
  404990:	02002021 	move	a0,s0
  404994:	8fbc0018 	lw	gp,24(sp)
  404998:	24a561a0 	addiu	a1,a1,24992
  40499c:	8fa60108 	lw	a2,264(sp)
[31m  4049a0:	8f9980b0 	lw	t9,fprintf[0m
  4049a4:	8fa70100 	lw	a3,256(sp)
  4049a8:	0320f809 	jalr	t9

[0m
[[0;33m*[0m] Function [0;33mfprintf[0m used [0;33m5[0m times [0;33mmkdosfs[0m

