[[0;33m*[0m] Binary protection state of [0;33mmDNSClientPosix[0m
[REF] s12

  	RELRO          CANARY            NX           PIE       RPATH        RUNPATH      SYMBOLS      
  	[31mNo RELRO[0m       [31mNo Canary found[0m   [31mNX disabled[0m  [31mNo PIE[0m       [32mNo RPATH[0m     [32mNo RUNPATH[0m   [32mNo Symbols[0m

[0m
[[0;33m*[0m] Function [0;33mfprintf[0m tear down of [0;33mmDNSClientPosix[0m

  402c7c:	8fa20080 	lw	v0,128(sp)
  402c80:	10430020 	beq	v0,v1,402d04 <mDNSPlatformMemAllocate@@Base+0x48c>
  402c84:	00000000 	nop
  402c88:	8e030fe0 	lw	v1,4064(s0)
  402c8c:	00431026 	xor	v0,v0,v1
  402c90:	0002102b 	sltu	v0,zero,v0
  402c94:	1040001b 	beqz	v0,402d04 <mDNSPlatformMemAllocate@@Base+0x48c>
  402c98:	3c020044 	lui	v0,0x44
  402c9c:	3c110044 	lui	s1,0x44
  402ca0:	8c43a43c 	lw	v1,-23492(v0)
  402ca4:	3c100044 	lui	s0,0x44
  402ca8:	8e26a438 	lw	a2,-23496(s1)
  402cac:	24630001 	addiu	v1,v1,1
  402cb0:	24c20001 	addiu	v0,a2,1
  402cb4:	00430018 	mult	v0,v1
  402cb8:	8e02a434 	lw	v0,-23500(s0)
  402cbc:	24420001 	addiu	v0,v0,1
  402cc0:	00001812 	mflo	v1
  402cc4:	00031840 	sll	v1,v1,0x1
  402cc8:	0062182a 	slt	v1,v1,v0
  402ccc:	10600021 	beqz	v1,402d54 <mDNSPlatformMemAllocate@@Base+0x4dc>
  402cd0:	ae02a434 	sw	v0,-23500(s0)
  402cd4:	8f838110 	lw	v1,-32496(gp)
  402cd8:	3c050042 	lui	a1,0x42
  402cdc:	00c03821 	move	a3,a2
[31m  402ce0:	8f998238 	lw	t9,fprintf[0m
  402ce4:	24a544cc 	addiu	a1,a1,17612
  402ce8:	8c640000 	lw	a0,0(v1)
--
  403428:	afb30024 	sw	s3,36(sp)
  40342c:	afb20020 	sw	s2,32(sp)
  403430:	afb1001c 	sw	s1,28(sp)
  403434:	afb00018 	sw	s0,24(sp)
  403438:	3c1c0044 	lui	gp,0x44
  40343c:	279c20a0 	addiu	gp,gp,8352
  403440:	afbc0010 	sw	gp,16(sp)
  403444:	1480001d 	bnez	a0,4034bc <mDNSPlatformMemCopy@@Base+0x1c0>
  403448:	00808021 	move	s0,a0
  40344c:	8f998088 	lw	t9,-32632(gp)
  403450:	3c040042 	lui	a0,0x42
  403454:	3c050042 	lui	a1,0x42
  403458:	3c070042 	lui	a3,0x42
  40345c:	248444a0 	addiu	a0,a0,17568
  403460:	24a544b4 	addiu	a1,a1,17588
  403464:	24e74928 	addiu	a3,a3,18728
  403468:	0320f809 	jalr	t9
  40346c:	240602e4 	li	a2,740
  403470:	8fbc0010 	lw	gp,16(sp)
  403474:	10000012 	b	4034c0 <mDNSPlatformMemCopy@@Base+0x1c4>
  403478:	3c120042 	lui	s2,0x42
  40347c:	0320f809 	jalr	t9
  403480:	00000000 	nop
  403484:	8fbc0010 	lw	gp,16(sp)
  403488:	8e82a430 	lw	v0,-23504(s4)
[31m  40348c:	8f998238 	lw	t9,fprintf[0m
  403490:	18400005 	blez	v0,4034a8 <mDNSPlatformMemCopy@@Base+0x1ac>
  403494:	02402821 	move	a1,s2
--
  403df4:	00452825 	or	a1,v0,a1
  403df8:	0c100d75 	jal	4035d4 <mDNSPlatformClose@@Base+0xb8>
  403dfc:	00052c00 	sll	a1,a1,0x10
  403e00:	8fbc0010 	lw	gp,16(sp)
  403e04:	14400019 	bnez	v0,403e6c <mDNSPlatformClose@@Base+0x950>
  403e08:	00408821 	move	s1,v0
  403e0c:	8f998078 	lw	t9,-32648(gp)
  403e10:	02602021 	move	a0,s3
  403e14:	00003021 	move	a2,zero
  403e18:	0320f809 	jalr	t9
  403e1c:	02002821 	move	a1,s0
  403e20:	8fbc0010 	lw	gp,16(sp)
  403e24:	14400011 	bnez	v0,403e6c <mDNSPlatformClose@@Base+0x950>
  403e28:	00408821 	move	s1,v0
  403e2c:	3c020044 	lui	v0,0x44
  403e30:	3c030044 	lui	v1,0x44
  403e34:	8c44a43c 	lw	a0,-23492(v0)
  403e38:	8c63a430 	lw	v1,-23504(v1)
  403e3c:	24840001 	addiu	a0,a0,1
  403e40:	1860000e 	blez	v1,403e7c <mDNSPlatformClose@@Base+0x960>
  403e44:	ac44a43c 	sw	a0,-23492(v0)
  403e48:	8f828110 	lw	v0,-32496(gp)
  403e4c:	3c050042 	lui	a1,0x42
  403e50:	8e060fd8 	lw	a2,4056(s0)
  403e54:	8c440000 	lw	a0,0(v0)
[31m  403e58:	8f998238 	lw	t9,fprintf[0m
  403e5c:	0320f809 	jalr	t9
  403e60:	24a54744 	addiu	a1,a1,18244
--
  40471c:	8f9980c8 	lw	t9,-32568(gp)
  404720:	0320f809 	jalr	t9
  404724:	00000000 	nop
  404728:	8c470000 	lw	a3,0(v0)
  40472c:	8fbc0010 	lw	gp,16(sp)
  404730:	14e00009 	bnez	a3,404758 <mDNSPlatformInit@@Base+0x304>
  404734:	00000000 	nop
  404738:	8e240000 	lw	a0,0(s1)
  40473c:	3c050040 	lui	a1,0x40
  404740:	02203021 	move	a2,s1
  404744:	0c100a23 	jal	40288c <mDNSPlatformMemAllocate@@Base+0x14>
  404748:	24a54210 	addiu	a1,a1,16912
  40474c:	8fbc0010 	lw	gp,16(sp)
  404750:	1040001a 	beqz	v0,4047bc <mDNSPlatformInit@@Base+0x368>
  404754:	00403821 	move	a3,v0
  404758:	8f828110 	lw	v0,-32496(gp)
  40475c:	8f9982f8 	lw	t9,-32008(gp)
  404760:	8c440000 	lw	a0,0(v0)
  404764:	afa70038 	sw	a3,56(sp)
  404768:	0320f809 	jalr	t9
  40476c:	afa4003c 	sw	a0,60(sp)
  404770:	3c050042 	lui	a1,0x42
  404774:	8fbc0010 	lw	gp,16(sp)
  404778:	24a547bc 	addiu	a1,a1,18364
  40477c:	8fa70038 	lw	a3,56(sp)
[31m  404780:	8f998238 	lw	t9,fprintf[0m
  404784:	8fa4003c 	lw	a0,60(sp)
  404788:	0320f809 	jalr	t9
--
  4052a4:	8fb70084 	lw	s7,132(sp)
  4052a8:	8fb60080 	lw	s6,128(sp)
  4052ac:	8fb5007c 	lw	s5,124(sp)
  4052b0:	8fb40078 	lw	s4,120(sp)
  4052b4:	8fb30074 	lw	s3,116(sp)
  4052b8:	8fb20070 	lw	s2,112(sp)
  4052bc:	8fb1006c 	lw	s1,108(sp)
  4052c0:	8fb00068 	lw	s0,104(sp)
  4052c4:	03e00008 	jr	ra
  4052c8:	27bd0090 	addiu	sp,sp,144
  4052cc:	00000000 	nop
  4052d0:	27bdffd8 	addiu	sp,sp,-40
  4052d4:	afbf0024 	sw	ra,36(sp)
  4052d8:	afb10020 	sw	s1,32(sp)
  4052dc:	afb0001c 	sw	s0,28(sp)
  4052e0:	3c1c0044 	lui	gp,0x44
  4052e4:	279c20a0 	addiu	gp,gp,8352
  4052e8:	afbc0010 	sw	gp,16(sp)
  4052ec:	3c020044 	lui	v0,0x44
  4052f0:	8c42a600 	lw	v0,-23040(v0)
  4052f4:	10400010 	beqz	v0,405338 <get_ifi_info@@Base+0x4f8>
  4052f8:	00a08821 	move	s1,a1
  4052fc:	8f908110 	lw	s0,-32496(gp)
  405300:	00a03021 	move	a2,a1
  405304:	3c050042 	lui	a1,0x42
[31m  405308:	8f998238 	lw	t9,fprintf[0m
  40530c:	8e040000 	lw	a0,0(s0)
  405310:	0320f809 	jalr	t9
--
  423618:	8fbc0020 	lw	gp,32(sp)
  42361c:	105e00b3 	beq	v0,s8,4238ec <main@@Base+0x37c>
  423620:	2442ff9c 	addiu	v0,v0,-100
  423624:	2c430013 	sltiu	v1,v0,19
  423628:	10600060 	beqz	v1,4237ac <main@@Base+0x23c>
  42362c:	3c030043 	lui	v1,0x43
  423630:	00021080 	sll	v0,v0,0x2
  423634:	24639890 	addiu	v1,v1,-26480
  423638:	00621021 	addu	v0,v1,v0
  42363c:	8c420000 	lw	v0,0(v0)
  423640:	00400008 	jr	v0
  423644:	00000000 	nop
  423648:	8f9980ac 	lw	t9,-32596(gp)
  42364c:	8e040000 	lw	a0,0(s0)
  423650:	0320f809 	jalr	t9
  423654:	00000000 	nop
  423658:	8fbc0020 	lw	gp,32(sp)
  42365c:	2c430003 	sltiu	v1,v0,3
  423660:	8f8480b8 	lw	a0,-32584(gp)
  423664:	1460ffe6 	bnez	v1,423600 <main@@Base+0x90>
  423668:	ac820000 	sw	v0,0(a0)
  42366c:	3c020044 	lui	v0,0x44
  423670:	3c050043 	lui	a1,0x43
  423674:	8c46a098 	lw	a2,-24424(v0)
  423678:	8f828110 	lw	v0,-32496(gp)
[31m  42367c:	8f998238 	lw	t9,fprintf[0m
  423680:	8c440000 	lw	a0,0(v0)
  423684:	10000045 	b	42379c <main@@Base+0x22c>
--
  42368c:	8e030000 	lw	v1,0(s0)
  423690:	8f998098 	lw	t9,strlen
  423694:	ae63a090 	sw	v1,-24432(s3)
  423698:	00602021 	move	a0,v1
  42369c:	0320f809 	jalr	t9
  4236a0:	afa30428 	sw	v1,1064(sp)
  4236a4:	2c420040 	sltiu	v0,v0,64
  4236a8:	8fbc0020 	lw	gp,32(sp)
  4236ac:	8fa30428 	lw	v1,1064(sp)
  4236b0:	14400007 	bnez	v0,4236d0 <main@@Base+0x160>
  4236b4:	3c020044 	lui	v0,0x44
  4236b8:	3c050043 	lui	a1,0x43
  4236bc:	8c46a098 	lw	a2,-24424(v0)
  4236c0:	8f828110 	lw	v0,-32496(gp)
  4236c4:	8c440000 	lw	a0,0(v0)
  4236c8:	10000009 	b	4236f0 <main@@Base+0x180>
  4236cc:	24a5935c 	addiu	a1,a1,-27812
  4236d0:	80620000 	lb	v0,0(v1)
  4236d4:	1440ffca 	bnez	v0,423600 <main@@Base+0x90>
  4236d8:	3c020044 	lui	v0,0x44
  4236dc:	3c050043 	lui	a1,0x43
  4236e0:	8c46a098 	lw	a2,-24424(v0)
  4236e4:	24a593ac 	addiu	a1,a1,-27732
  4236e8:	8f828110 	lw	v0,-32496(gp)
  4236ec:	8c440000 	lw	a0,0(v0)
[31m  4236f0:	8f998238 	lw	t9,fprintf[0m
  4236f4:	0320f809 	jalr	t9
  4236f8:	00000000 	nop
  4236fc:	24040001 	li	a0,1
  423700:	8fbc0020 	lw	gp,32(sp)
  423704:	8f9980c4 	lw	t9,-32572(gp)
  423708:	0320f809 	jalr	t9
  42370c:	00000000 	nop
  423710:	8e020000 	lw	v0,0(s0)
  423714:	1000ffba 	b	423600 <main@@Base+0x90>
  423718:	ae82a094 	sw	v0,-24428(s4)
  42371c:	8f9980ac 	lw	t9,-32596(gp)
  423720:	8e040000 	lw	a0,0(s0)
  423724:	0320f809 	jalr	t9
  423728:	00000000 	nop
  42372c:	8fbc0020 	lw	gp,32(sp)
  423730:	1000ffb3 	b	423600 <main@@Base+0x90>
  423734:	aea2a668 	sw	v0,-22936(s5)
  423738:	8f828110 	lw	v0,-32496(gp)
  42373c:	3c050042 	lui	a1,0x42
[31m  423740:	8f998238 	lw	t9,fprintf[0m
  423744:	8c440000 	lw	a0,0(v0)
  423748:	8e060000 	lw	a2,0(s0)
  42374c:	0320f809 	jalr	t9
  423750:	24a54a90 	addiu	a1,a1,19088
  423754:	8e020000 	lw	v0,0(s0)
  423758:	8fbc0020 	lw	gp,32(sp)
  42375c:	1000ffa8 	b	423600 <main@@Base+0x90>
  423760:	aec2a664 	sw	v0,-22940(s6)
  423764:	8f9980ac 	lw	t9,-32596(gp)
  423768:	8e040000 	lw	a0,0(s0)
  42376c:	0320f809 	jalr	t9
  423770:	00000000 	nop
  423774:	2c430002 	sltiu	v1,v0,2
  423778:	8fbc0020 	lw	gp,32(sp)
  42377c:	1460ffa0 	bnez	v1,423600 <main@@Base+0x90>
  423780:	aee2a66c 	sw	v0,-22932(s7)
  423784:	00403021 	move	a2,v0
  423788:	8f828110 	lw	v0,-32496(gp)
  42378c:	3c050043 	lui	a1,0x43
[31m  423790:	8f998238 	lw	t9,fprintf[0m
  423794:	24a593e0 	addiu	a1,a1,-27680
  423798:	8c440000 	lw	a0,0(v0)
  42379c:	0320f809 	jalr	t9
  4237a0:	00000000 	nop
  4237a4:	10000060 	b	423928 <main@@Base+0x3b8>
  4237a8:	00000000 	nop
  4237ac:	8f908110 	lw	s0,-32496(gp)
  4237b0:	3c020044 	lui	v0,0x44
  4237b4:	8c46a098 	lw	a2,-24424(v0)
  4237b8:	3c050043 	lui	a1,0x43
[31m  4237bc:	8f998238 	lw	t9,fprintf[0m
  4237c0:	8e040000 	lw	a0,0(s0)
  4237c4:	0320f809 	jalr	t9
--
  4237dc:	0320f809 	jalr	t9
  4237e0:	248494a0 	addiu	a0,a0,-27488
  4237e4:	3c040043 	lui	a0,0x43
  4237e8:	8fbc0020 	lw	gp,32(sp)
  4237ec:	8e050000 	lw	a1,0(s0)
  4237f0:	8f998080 	lw	t9,-32640(gp)
  4237f4:	0320f809 	jalr	t9
  4237f8:	248494dc 	addiu	a0,a0,-27428
  4237fc:	3c040043 	lui	a0,0x43
  423800:	8fbc0020 	lw	gp,32(sp)
  423804:	8e050000 	lw	a1,0(s0)
  423808:	8f998080 	lw	t9,-32640(gp)
  42380c:	0320f809 	jalr	t9
  423810:	2484950c 	addiu	a0,a0,-27380
  423814:	3c040043 	lui	a0,0x43
  423818:	8fbc0020 	lw	gp,32(sp)
  42381c:	8e050000 	lw	a1,0(s0)
  423820:	8f998080 	lw	t9,-32640(gp)
  423824:	0320f809 	jalr	t9
  423828:	24849538 	addiu	a0,a0,-27336
  42382c:	3c050043 	lui	a1,0x43
  423830:	8fbc0020 	lw	gp,32(sp)
  423834:	3c060043 	lui	a2,0x43
  423838:	8e040000 	lw	a0,0(s0)
  42383c:	24a59564 	addiu	a1,a1,-27292
[31m  423840:	8f998238 	lw	t9,fprintf[0m
  423844:	0320f809 	jalr	t9
  423848:	24c699dc 	addiu	a2,a2,-26148
  42384c:	3c060043 	lui	a2,0x43
  423850:	8fbc0020 	lw	gp,32(sp)
  423854:	3c050043 	lui	a1,0x43
  423858:	8e040000 	lw	a0,0(s0)
  42385c:	24c699f0 	addiu	a2,a2,-26128
[31m  423860:	8f998238 	lw	t9,fprintf[0m
  423864:	0320f809 	jalr	t9
  423868:	24a595a4 	addiu	a1,a1,-27228
--
  4238b8:	8fbc0020 	lw	gp,32(sp)
  4238bc:	8e050000 	lw	a1,0(s0)
  4238c0:	8f998080 	lw	t9,-32640(gp)
  4238c4:	0320f809 	jalr	t9
  4238c8:	24849670 	addiu	a0,a0,-27024
  4238cc:	3c040043 	lui	a0,0x43
  4238d0:	8fbc0020 	lw	gp,32(sp)
  4238d4:	8e050000 	lw	a1,0(s0)
  4238d8:	8f998080 	lw	t9,-32640(gp)
  4238dc:	0320f809 	jalr	t9
  4238e0:	24849690 	addiu	a0,a0,-26992
  4238e4:	10000010 	b	423928 <main@@Base+0x3b8>
  4238e8:	00000000 	nop
  4238ec:	8f828214 	lw	v0,-32236(gp)
  4238f0:	8c420000 	lw	v0,0(v0)
  4238f4:	10520010 	beq	v0,s2,423938 <main@@Base+0x3c8>
  4238f8:	3c050044 	lui	a1,0x44
  4238fc:	00021080 	sll	v0,v0,0x2
  423900:	3c050043 	lui	a1,0x43
  423904:	02228821 	addu	s1,s1,v0
  423908:	8f828110 	lw	v0,-32496(gp)
  42390c:	8e270000 	lw	a3,0(s1)
  423910:	8c440000 	lw	a0,0(v0)
  423914:	3c020044 	lui	v0,0x44
  423918:	8c46a098 	lw	a2,-24424(v0)
[31m  42391c:	8f998238 	lw	t9,fprintf[0m
  423920:	0320f809 	jalr	t9
  423924:	24a596b0 	addiu	a1,a1,-26960
--
  423940:	3c060044 	lui	a2,0x44
  423944:	afa00010 	sw	zero,16(sp)
  423948:	2484a670 	addiu	a0,a0,-22928
  42394c:	afa00014 	sw	zero,20(sp)
  423950:	24a51ec4 	addiu	a1,a1,7876
  423954:	afa00018 	sw	zero,24(sp)
  423958:	24c61ec8 	addiu	a2,a2,7880
  42395c:	0320f809 	jalr	t9
  423960:	240701f4 	li	a3,500
  423964:	8fbc0020 	lw	gp,32(sp)
  423968:	14400061 	bnez	v0,423af0 <main@@Base+0x580>
  42396c:	00408021 	move	s0,v0
  423970:	3c100044 	lui	s0,0x44
  423974:	8e04a664 	lw	a0,-22940(s0)
  423978:	10800019 	beqz	a0,4239e0 <main@@Base+0x470>
  42397c:	3c050043 	lui	a1,0x43
  423980:	8f998180 	lw	t9,-32384(gp)
  423984:	0320f809 	jalr	t9
  423988:	24a596d0 	addiu	a1,a1,-26928
  42398c:	3c030044 	lui	v1,0x44
  423990:	8fbc0020 	lw	gp,32(sp)
  423994:	14400009 	bnez	v0,4239bc <main@@Base+0x44c>
  423998:	ac62a660 	sw	v0,-22944(v1)
  42399c:	8f828110 	lw	v0,-32496(gp)
  4239a0:	3c050043 	lui	a1,0x43
[31m  4239a4:	8f998238 	lw	t9,fprintf[0m
  4239a8:	8e06a664 	lw	a2,-22940(s0)
  4239ac:	8c440000 	lw	a0,0(v0)
--
  423aa8:	0320f809 	jalr	t9
  423aac:	2624a670 	addiu	a0,s1,-22928
  423ab0:	2624a670 	addiu	a0,s1,-22928
  423ab4:	8fbc0020 	lw	gp,32(sp)
  423ab8:	8f998248 	lw	t9,-32184(gp)
  423abc:	0320f809 	jalr	t9
  423ac0:	27a50228 	addiu	a1,sp,552
  423ac4:	8fbc0020 	lw	gp,32(sp)
  423ac8:	8f9981d4 	lw	t9,-32300(gp)
  423acc:	0320f809 	jalr	t9
  423ad0:	2624a670 	addiu	a0,s1,-22928
  423ad4:	8fbc0020 	lw	gp,32(sp)
  423ad8:	8f8380b8 	lw	v1,-32584(gp)
  423adc:	8c630000 	lw	v1,0(v1)
  423ae0:	1c600004 	bgtz	v1,423af4 <main@@Base+0x584>
  423ae4:	00001021 	move	v0,zero
  423ae8:	1000000d 	b	423b20 <main@@Base+0x5b0>
  423aec:	00000000 	nop
  423af0:	24020002 	li	v0,2
  423af4:	3c030044 	lui	v1,0x44
  423af8:	3c050043 	lui	a1,0x43
  423afc:	02003821 	move	a3,s0
  423b00:	8c66a098 	lw	a2,-24424(v1)
  423b04:	24a59730 	addiu	a1,a1,-26832
  423b08:	8f838110 	lw	v1,-32496(gp)
[31m  423b0c:	8f998238 	lw	t9,fprintf[0m
  423b10:	8c640000 	lw	a0,0(v1)
  423b14:	0320f809 	jalr	t9
--
  423c84:	10000016 	b	423ce0 <main@@Base+0x770>
  423c88:	24c69790 	addiu	a2,a2,-26736
  423c8c:	8e050020 	lw	a1,32(s0)
  423c90:	27b11284 	addiu	s1,sp,4740
  423c94:	8f9982dc 	lw	t9,-32036(gp)
  423c98:	02202021 	move	a0,s1
  423c9c:	24060100 	li	a2,256
  423ca0:	0320f809 	jalr	t9
  423ca4:	24a50002 	addiu	a1,a1,2
  423ca8:	3c070042 	lui	a3,0x42
  423cac:	02203021 	move	a2,s1
  423cb0:	8fbc0018 	lw	gp,24(sp)
  423cb4:	02802021 	move	a0,s4
  423cb8:	24e73d30 	addiu	a3,a3,15664
  423cbc:	8e020004 	lw	v0,4(s0)
  423cc0:	27a50a80 	addiu	a1,sp,2688
  423cc4:	8f998118 	lw	t9,-32488(gp)
  423cc8:	afa21384 	sw	v0,4996(sp)
  423ccc:	0320f809 	jalr	t9
  423cd0:	afa00010 	sw	zero,16(sp)
  423cd4:	3c060043 	lui	a2,0x43
  423cd8:	8fbc0018 	lw	gp,24(sp)
  423cdc:	24c69798 	addiu	a2,a2,-26728
  423ce0:	8f828110 	lw	v0,-32496(gp)
  423ce4:	3c050043 	lui	a1,0x43
[31m  423ce8:	8f998238 	lw	t9,fprintf[0m
  423cec:	24a597a0 	addiu	a1,a1,-26720
  423cf0:	8c440000 	lw	a0,0(v0)
--
  423d68:	24020004 	li	v0,4
  423d6c:	1462009c 	bne	v1,v0,423fe0 <main@@Base+0xa70>
  423d70:	0080a021 	move	s4,a0
  423d74:	3c020043 	lui	v0,0x43
  423d78:	27a40031 	addiu	a0,sp,49
  423d7c:	904298dc 	lbu	v0,-26404(v0)
  423d80:	00002821 	move	a1,zero
  423d84:	8f998178 	lw	t9,-32392(gp)
  423d88:	240600ff 	li	a2,255
  423d8c:	a3a20030 	sb	v0,48(sp)
  423d90:	0320f809 	jalr	t9
  423d94:	3c150043 	lui	s5,0x43
  423d98:	3c050043 	lui	a1,0x43
  423d9c:	8e0207f8 	lw	v0,2040(s0)
  423da0:	24a597d0 	addiu	a1,a1,-26672
  423da4:	8fbc0020 	lw	gp,32(sp)
  423da8:	00008821 	move	s1,zero
  423dac:	9043010a 	lbu	v1,266(v0)
  423db0:	27b20030 	addiu	s2,sp,48
  423db4:	90460108 	lbu	a2,264(v0)
  423db8:	26b597f4 	addiu	s5,s5,-26636
  423dbc:	90470109 	lbu	a3,265(v0)
  423dc0:	8f938110 	lw	s3,-32496(gp)
  423dc4:	afa30010 	sw	v1,16(sp)
  423dc8:	9042010b 	lbu	v0,267(v0)
[31m  423dcc:	8f998238 	lw	t9,fprintf[0m
  423dd0:	8e640000 	lw	a0,0(s3)
  423dd4:	0320f809 	jalr	t9
  423dd8:	afa20014 	sw	v0,20(sp)
  423ddc:	3c050043 	lui	a1,0x43
  423de0:	8e0207f8 	lw	v0,2040(s0)
  423de4:	24a597e8 	addiu	a1,a1,-26648
  423de8:	8fbc0020 	lw	gp,32(sp)
  423dec:	94460118 	lhu	a2,280(v0)
[31m  423df0:	8f998238 	lw	t9,fprintf[0m
  423df4:	8e640000 	lw	a0,0(s3)
  423df8:	a7a60130 	sh	a2,304(sp)
--
  423e14:	8f998178 	lw	t9,-32392(gp)
  423e18:	00511021 	addu	v0,v0,s1
  423e1c:	9053011c 	lbu	s3,284(v0)
  423e20:	0320f809 	jalr	t9
  423e24:	24060100 	li	a2,256
  423e28:	02402021 	move	a0,s2
  423e2c:	8fbc0020 	lw	gp,32(sp)
  423e30:	02603021 	move	a2,s3
  423e34:	26730001 	addiu	s3,s3,1
  423e38:	8e0507f8 	lw	a1,2040(s0)
  423e3c:	8f9981d0 	lw	t9,-32304(gp)
  423e40:	00b12821 	addu	a1,a1,s1
  423e44:	02338821 	addu	s1,s1,s3
  423e48:	0320f809 	jalr	t9
  423e4c:	24a5011d 	addiu	a1,a1,285
  423e50:	02402021 	move	a0,s2
  423e54:	8fbc0020 	lw	gp,32(sp)
  423e58:	8f998204 	lw	t9,-32252(gp)
  423e5c:	0320f809 	jalr	t9
  423e60:	02a02821 	move	a1,s5
  423e64:	8fbc0020 	lw	gp,32(sp)
  423e68:	10400057 	beqz	v0,423fc8 <main@@Base+0xa58>
  423e6c:	3c050043 	lui	a1,0x43
  423e70:	8f828110 	lw	v0,-32496(gp)
  423e74:	27b10034 	addiu	s1,sp,52
[31m  423e78:	8f998238 	lw	t9,fprintf[0m
  423e7c:	02203021 	move	a2,s1
  423e80:	8c440000 	lw	a0,0(v0)

[0m
[[0;33m*[0m] Function [0;33mfprintf[0m used [0;33m19[0m times [0;33mmDNSClientPosix[0m

