[[0;33m*[0m] Binary protection state of [0;33mllmnr[0m
[REF] s12

  	RELRO          CANARY            NX           PIE       RPATH        RUNPATH      SYMBOLS      
  	[31mNo RELRO[0m       [31mNo Canary found[0m   [31mNX disabled[0m  [31mNo PIE[0m       [32mNo RPATH[0m     [32mNo RUNPATH[0m   [32mNo Symbols[0m

[0m
[[0;33m*[0m] Function [0;33mprintf[0m tear down of [0;33mllmnr[0m

  400e8c:	3c1c0042 	lui	gp,0x42
  400e90:	279cb540 	addiu	gp,gp,-19136
  400e94:	afbc0020 	sw	gp,32(sp)
  400e98:	3c120040 	lui	s2,0x40
  400e9c:	8f998088 	lw	t9,-32632(gp)
  400ea0:	3c050040 	lui	a1,0x40
  400ea4:	00808021 	move	s0,a0
  400ea8:	24a52b84 	addiu	a1,a1,11140
  400eac:	0320f809 	jalr	t9
  400eb0:	26442b70 	addiu	a0,s2,11120
  400eb4:	8fbc0020 	lw	gp,32(sp)
  400eb8:	14400070 	bnez	v0,40107c <_ftext@@Base+0x42c>
  400ebc:	00408821 	move	s1,v0
  400ec0:	8f998050 	lw	t9,-32688(gp)
  400ec4:	0320f809 	jalr	t9
  400ec8:	00000000 	nop
  400ecc:	8fbc0020 	lw	gp,32(sp)
  400ed0:	8c440000 	lw	a0,0(v0)
  400ed4:	8f998100 	lw	t9,-32512(gp)
  400ed8:	0320f809 	jalr	t9
  400edc:	00000000 	nop
  400ee0:	3c040040 	lui	a0,0x40
  400ee4:	8fbc0020 	lw	gp,32(sp)
  400ee8:	24842b88 	addiu	a0,a0,11144
  400eec:	00403021 	move	a2,v0
[31m  400ef0:	8f998108 	lw	t9,printf[0m
  400ef4:	0320f809 	jalr	t9
  400ef8:	26452b70 	addiu	a1,s2,11120
--
  401f98:	ae723684 	sw	s2,13956(s3)
  401f9c:	2631ffff 	addiu	s1,s1,-1
  401fa0:	26100004 	addiu	s0,s0,4
  401fa4:	8f998084 	lw	t9,-32636(gp)
  401fa8:	02202021 	move	a0,s1
  401fac:	02002821 	move	a1,s0
  401fb0:	0320f809 	jalr	t9
  401fb4:	02803021 	move	a2,s4
  401fb8:	8fbc0040 	lw	gp,64(sp)
  401fbc:	0441fff4 	bgez	v0,401f90 <main@@Base+0xbc>
  401fc0:	00000000 	nop
  401fc4:	3c020041 	lui	v0,0x41
  401fc8:	8c423684 	lw	v0,13956(v0)
  401fcc:	10400012 	beqz	v0,402018 <main@@Base+0x144>
  401fd0:	24020004 	li	v0,4
  401fd4:	8f828060 	lw	v0,-32672(gp)
  401fd8:	3c050040 	lui	a1,0x40
  401fdc:	02203021 	move	a2,s1
  401fe0:	8f9980b4 	lw	t9,-32588(gp)
  401fe4:	8c440000 	lw	a0,0(v0)
  401fe8:	0320f809 	jalr	t9
  401fec:	24a530c4 	addiu	a1,a1,12484
  401ff0:	3c040040 	lui	a0,0x40
  401ff4:	8fbc0040 	lw	gp,64(sp)
  401ff8:	8e050004 	lw	a1,4(s0)
[31m  401ffc:	8f998108 	lw	t9,printf[0m
  402000:	8e060008 	lw	a2,8(s0)
  402004:	8e07000c 	lw	a3,12(s0)
--
  402058:	0320f809 	jalr	t9
  40205c:	27b10064 	addiu	s1,sp,100
  402060:	8fbc0040 	lw	gp,64(sp)
  402064:	8e050008 	lw	a1,8(s0)
  402068:	8f9980a0 	lw	t9,-32608(gp)
  40206c:	8f848044 	lw	a0,-32700(gp)
  402070:	0320f809 	jalr	t9
  402074:	24060040 	li	a2,64
  402078:	8fbc0040 	lw	gp,64(sp)
  40207c:	8e05000c 	lw	a1,12(s0)
  402080:	8f998048 	lw	t9,strlen
  402084:	00a02021 	move	a0,a1
  402088:	0320f809 	jalr	t9
  40208c:	afa500f8 	sw	a1,248(sp)
  402090:	02202021 	move	a0,s1
  402094:	8fbc0040 	lw	gp,64(sp)
  402098:	8fa500f8 	lw	a1,248(sp)
  40209c:	8f9980a0 	lw	t9,-32608(gp)
  4020a0:	0320f809 	jalr	t9
  4020a4:	00403021 	move	a2,v0
  4020a8:	3c020041 	lui	v0,0x41
  4020ac:	8c423684 	lw	v0,13956(v0)
  4020b0:	8fbc0040 	lw	gp,64(sp)
  4020b4:	10400008 	beqz	v0,4020d8 <main@@Base+0x204>
  4020b8:	27a20094 	addiu	v0,sp,148
[31m  4020bc:	8f998108 	lw	t9,printf[0m
  4020c0:	3c040040 	lui	a0,0x40
  4020c4:	02202821 	move	a1,s1
--
  4020e8:	27a2009c 	addiu	v0,sp,156
  4020ec:	8f998094 	lw	t9,-32620(gp)
  4020f0:	24a53100 	addiu	a1,a1,12544
  4020f4:	afa20018 	sw	v0,24(sp)
  4020f8:	27a200a0 	addiu	v0,sp,160
  4020fc:	27a40064 	addiu	a0,sp,100
  402100:	27a6008c 	addiu	a2,sp,140
  402104:	27a70090 	addiu	a3,sp,144
  402108:	0320f809 	jalr	t9
  40210c:	afa2001c 	sw	v0,28(sp)
  402110:	3c050040 	lui	a1,0x40
  402114:	8fbc0040 	lw	gp,64(sp)
  402118:	24a53120 	addiu	a1,a1,12576
  40211c:	8fa200a0 	lw	v0,160(sp)
  402120:	8f998064 	lw	t9,-32668(gp)
  402124:	8f8480ec 	lw	a0,-32532(gp)
  402128:	8f868044 	lw	a2,-32700(gp)
  40212c:	8fa7009c 	lw	a3,156(sp)
  402130:	0320f809 	jalr	t9
  402134:	afa20010 	sw	v0,16(sp)
  402138:	3c020041 	lui	v0,0x41
  40213c:	8c423684 	lw	v0,13956(v0)
  402140:	8fbc0040 	lw	gp,64(sp)
  402144:	10400006 	beqz	v0,402160 <main@@Base+0x28c>
  402148:	3c040040 	lui	a0,0x40
[31m  40214c:	8f998108 	lw	t9,printf[0m
  402150:	8f8580ec 	lw	a1,-32532(gp)
  402154:	0320f809 	jalr	t9
--
  402508:	24a52c64 	addiu	a1,a1,11364
  40250c:	8fa600f8 	lw	a2,248(sp)
  402510:	24070230 	li	a3,560
  402514:	8f9980b4 	lw	t9,-32588(gp)
  402518:	afa20010 	sw	v0,16(sp)
  40251c:	0320f809 	jalr	t9
  402520:	00000000 	nop
  402524:	24040001 	li	a0,1
  402528:	8fbc0040 	lw	gp,64(sp)
  40252c:	8f99804c 	lw	t9,-32692(gp)
  402530:	100000ab 	b	4027e0 <main@@Base+0x90c>
  402534:	00000000 	nop
  402538:	8e030004 	lw	v1,4(s0)
  40253c:	1462002c 	bne	v1,v0,4025f0 <main@@Base+0x71c>
  402540:	2402000a 	li	v0,10
  402544:	27a600c4 	addiu	a2,sp,196
  402548:	00c02021 	move	a0,a2
  40254c:	0c100448 	jal	401120 <_ftext@@Base+0x4d0>
  402550:	afa600f8 	sw	a2,248(sp)
  402554:	3c030041 	lui	v1,0x41
  402558:	8c623684 	lw	v0,13956(v1)
  40255c:	8fbc0040 	lw	gp,64(sp)
  402560:	8fa600f8 	lw	a2,248(sp)
  402564:	10400007 	beqz	v0,402584 <main@@Base+0x6b0>
  402568:	00000000 	nop
[31m  40256c:	8f998108 	lw	t9,printf[0m
  402570:	3c040040 	lui	a0,0x40
  402574:	8f858098 	lw	a1,-32616(gp)

[0m
[[0;33m*[0m] Function [0;33mprintf[0m used [0;33m5[0m times [0;33mllmnr[0m

