[[0;33m*[0m] Binary protection state of [0;33mmdb[0m
[REF] s12

  	RELRO          CANARY            NX           PIE       RPATH        RUNPATH      SYMBOLS      
  	[31mNo RELRO[0m       [31mNo Canary found[0m   [31mNX disabled[0m  [31mNo PIE[0m       [32mNo RPATH[0m     [32mNo RUNPATH[0m   [32mNo Symbols[0m

[0m
[[0;33m*[0m] Function [0;33msystem[0m tear down of [0;33mmdb[0m

  4049ac:	2624a2e4 	addiu	a0,s1,-23836
  4049b0:	3c050041 	lui	a1,0x41
  4049b4:	24a5aa2c 	addiu	a1,a1,-21972
  4049b8:	27b00018 	addiu	s0,sp,24
  4049bc:	8f998054 	lw	t9,-32684(gp)
  4049c0:	0320f809 	jalr	t9
  4049c4:	02003021 	move	a2,s0
  4049c8:	8fbc0010 	lw	gp,16(sp)
  4049cc:	27b20058 	addiu	s2,sp,88
  4049d0:	2624a2e4 	addiu	a0,s1,-23836
  4049d4:	3c050041 	lui	a1,0x41
  4049d8:	24a5a2f0 	addiu	a1,a1,-23824
  4049dc:	8f998054 	lw	t9,-32684(gp)
  4049e0:	0320f809 	jalr	t9
  4049e4:	02403021 	move	a2,s2
  4049e8:	8fbc0010 	lw	gp,16(sp)
  4049ec:	27b10098 	addiu	s1,sp,152
  4049f0:	02202021 	move	a0,s1
  4049f4:	3c050041 	lui	a1,0x41
  4049f8:	24a5aa38 	addiu	a1,a1,-21960
  4049fc:	02003021 	move	a2,s0
  404a00:	8f99808c 	lw	t9,-32628(gp)
  404a04:	0320f809 	jalr	t9
  404a08:	02403821 	move	a3,s2
  404a0c:	8fbc0010 	lw	gp,16(sp)
[31m  404a10:	8f998184 	lw	t9,system[0m
  404a14:	0320f809 	jalr	t9
  404a18:	02202021 	move	a0,s1
  404a1c:	8fbc0010 	lw	gp,16(sp)
  404a20:	24040010 	li	a0,16
  404a24:	8f998104 	lw	t9,-32508(gp)
  404a28:	0320f809 	jalr	t9
  404a2c:	24050001 	li	a1,1
  404a30:	8fbc0010 	lw	gp,16(sp)
  404a34:	3c040041 	lui	a0,0x41
[31m  404a38:	8f998184 	lw	t9,system[0m
  404a3c:	0320f809 	jalr	t9
  404a40:	2484aa54 	addiu	a0,a0,-21932
  404a44:	8fbc0010 	lw	gp,16(sp)
  404a48:	3c040041 	lui	a0,0x41
[31m  404a4c:	8f998184 	lw	t9,system[0m
  404a50:	0320f809 	jalr	t9
  404a54:	2484aa88 	addiu	a0,a0,-21880
--
  404f1c:	16000007 	bnez	s0,404f3c <_ftext@@Base+0x3adc>
  404f20:	24020001 	li	v0,1
  404f24:	8f99817c 	lw	t9,-32388(gp)
  404f28:	0320f809 	jalr	t9
  404f2c:	24040003 	li	a0,3
  404f30:	8fbc0010 	lw	gp,16(sp)
  404f34:	10000017 	b	404f94 <_ftext@@Base+0x3b34>
  404f38:	24040014 	li	a0,20
  404f3c:	16020015 	bne	s0,v0,404f94 <_ftext@@Base+0x3b34>
  404f40:	24040014 	li	a0,20
  404f44:	0c1005a4 	jal	401690 <_ftext@@Base+0x230>
  404f48:	00000000 	nop
  404f4c:	8fbc0010 	lw	gp,16(sp)
  404f50:	24030001 	li	v1,1
  404f54:	1043000f 	beq	v0,v1,404f94 <_ftext@@Base+0x3b34>
  404f58:	24040014 	li	a0,20
  404f5c:	12200007 	beqz	s1,404f7c <_ftext@@Base+0x3b1c>
  404f60:	00000000 	nop
  404f64:	8f99817c 	lw	t9,-32388(gp)
  404f68:	0320f809 	jalr	t9
  404f6c:	24040003 	li	a0,3
  404f70:	8fbc0010 	lw	gp,16(sp)
  404f74:	10000007 	b	404f94 <_ftext@@Base+0x3b34>
  404f78:	24040014 	li	a0,20
  404f7c:	3c040041 	lui	a0,0x41
[31m  404f80:	8f998184 	lw	t9,system[0m
  404f84:	0320f809 	jalr	t9
  404f88:	2484ab04 	addiu	a0,a0,-21756
--
  405030:	afa5002c 	sw	a1,44(sp)
  405034:	afa60028 	sw	a2,40(sp)
  405038:	afa70024 	sw	a3,36(sp)
  40503c:	8fa20068 	lw	v0,104(sp)
  405040:	afa20020 	sw	v0,32(sp)
  405044:	8fa2006c 	lw	v0,108(sp)
  405048:	8f998048 	lw	t9,-32696(gp)
  40504c:	0320f809 	jalr	t9
  405050:	afa2001c 	sw	v0,28(sp)
  405054:	8fbc0010 	lw	gp,16(sp)
  405058:	2411ffff 	li	s1,-1
  40505c:	afb1003c 	sw	s1,60(sp)
  405060:	8f998110 	lw	t9,-32496(gp)
  405064:	0320f809 	jalr	t9
  405068:	02002021 	move	a0,s0
  40506c:	8fbc0010 	lw	gp,16(sp)
  405070:	1051000d 	beq	v0,s1,4050a8 <_ftext@@Base+0x3c48>
  405074:	00000000 	nop
  405078:	afa20018 	sw	v0,24(sp)
  40507c:	8f99806c 	lw	t9,-32660(gp)
  405080:	0320f809 	jalr	t9
  405084:	27a40018 	addiu	a0,sp,24
  405088:	8fbc0010 	lw	gp,16(sp)
  40508c:	14400006 	bnez	v0,4050a8 <_ftext@@Base+0x3c48>
  405090:	3c040041 	lui	a0,0x41
[31m  405094:	8f998184 	lw	t9,system[0m
  405098:	0320f809 	jalr	t9
  40509c:	2484ab3c 	addiu	a0,a0,-21700
--
  407228:	3c050041 	lui	a1,0x41
  40722c:	24a5a760 	addiu	a1,a1,-22688
  407230:	27a60058 	addiu	a2,sp,88
  407234:	8f9981ac 	lw	t9,-32340(gp)
  407238:	0320f809 	jalr	t9
  40723c:	24070001 	li	a3,1
  407240:	8fbc0028 	lw	gp,40(sp)
  407244:	8fa20054 	lw	v0,84(sp)
  407248:	a3a20044 	sb	v0,68(sp)
  40724c:	3c040041 	lui	a0,0x41
  407250:	2484a338 	addiu	a0,a0,-23752
  407254:	3c050041 	lui	a1,0x41
  407258:	24a5a76c 	addiu	a1,a1,-22676
  40725c:	27a60044 	addiu	a2,sp,68
  407260:	8f9981ac 	lw	t9,-32340(gp)
  407264:	0320f809 	jalr	t9
  407268:	24070001 	li	a3,1
  40726c:	0c101430 	jal	4050c0 <_ftext@@Base+0x3c60>
  407270:	00000000 	nop
  407274:	8fbc0028 	lw	gp,40(sp)
  407278:	24020001 	li	v0,1
  40727c:	8fa30050 	lw	v1,80(sp)
  407280:	14620012 	bne	v1,v0,4072cc <_ftext@@Base+0x5e6c>
  407284:	00000000 	nop
  407288:	3c040041 	lui	a0,0x41
[31m  40728c:	8f998184 	lw	t9,system[0m
  407290:	0320f809 	jalr	t9
  407294:	2484ac04 	addiu	a0,a0,-21500
  407298:	8fbc0028 	lw	gp,40(sp)
  40729c:	3c040041 	lui	a0,0x41
[31m  4072a0:	8f998184 	lw	t9,system[0m
  4072a4:	0320f809 	jalr	t9
  4072a8:	2484ac38 	addiu	a0,a0,-21448
  4072ac:	8fbc0028 	lw	gp,40(sp)
  4072b0:	3c040041 	lui	a0,0x41
[31m  4072b4:	8f998184 	lw	t9,system[0m
  4072b8:	0320f809 	jalr	t9
  4072bc:	2484ac78 	addiu	a0,a0,-21384
  4072c0:	8fbc0028 	lw	gp,40(sp)
  4072c4:	10000007 	b	4072e4 <_ftext@@Base+0x5e84>
  4072c8:	3c020010 	lui	v0,0x10
  4072cc:	3c040041 	lui	a0,0x41
[31m  4072d0:	8f998184 	lw	t9,system[0m
  4072d4:	0320f809 	jalr	t9
  4072d8:	2484ac04 	addiu	a0,a0,-21500
--
  407564:	24a5acac 	addiu	a1,a1,-21332
  407568:	8fbc0028 	lw	gp,40(sp)
  40756c:	1440001f 	bnez	v0,4075ec <_ftext@@Base+0x618c>
  407570:	02002021 	move	a0,s0
  407574:	8f828088 	lw	v0,-32632(gp)
  407578:	8c470000 	lw	a3,0(v0)
  40757c:	10e00007 	beqz	a3,40759c <_ftext@@Base+0x613c>
  407580:	24050001 	li	a1,1
  407584:	3c040041 	lui	a0,0x41
  407588:	2484acb4 	addiu	a0,a0,-21324
  40758c:	8f99807c 	lw	t9,-32644(gp)
  407590:	0320f809 	jalr	t9
  407594:	24060021 	li	a2,33
  407598:	8fbc0028 	lw	gp,40(sp)
  40759c:	8e240008 	lw	a0,8(s1)
  4075a0:	8f998074 	lw	t9,-32652(gp)
  4075a4:	0320f809 	jalr	t9
  4075a8:	00000000 	nop
  4075ac:	8fbc0028 	lw	gp,40(sp)
  4075b0:	8e240008 	lw	a0,8(s1)
  4075b4:	8f998198 	lw	t9,-32360(gp)
  4075b8:	0320f809 	jalr	t9
  4075bc:	00000000 	nop
  4075c0:	8fbc0028 	lw	gp,40(sp)
  4075c4:	3c040041 	lui	a0,0x41
[31m  4075c8:	8f998184 	lw	t9,system[0m
  4075cc:	0320f809 	jalr	t9
  4075d0:	2484acd8 	addiu	a0,a0,-21288

[0m
[[0;33m*[0m] Function [0;33msystem[0m used [0;33m10[0m times [0;33mmdb[0m

