[[0;33m*[0m] Binary protection state of [0;33mnotify.cgi[0m
[REF] s12

  	RELRO          CANARY            NX           PIE       RPATH        RUNPATH      SYMBOLS      
  	[31mNo RELRO[0m       [31mNo Canary found[0m   [31mNX disabled[0m  [31mNo PIE[0m       [32mNo RPATH[0m     [32mNo RUNPATH[0m   [32mNo Symbols[0m

[0m
[[0;33m*[0m] Function [0;33mfprintf[0m tear down of [0;33mnotify.cgi[0m

  400b00:	13200004 	beqz	t9,400b14 <_ftext@@Base+0x194>
  400b04:	8fbf001c 	lw	ra,28(sp)
  400b08:	24841a84 	addiu	a0,a0,6788
  400b0c:	03200008 	jr	t9
  400b10:	27bd0020 	addiu	sp,sp,32
  400b14:	8fbf001c 	lw	ra,28(sp)
  400b18:	03e00008 	jr	ra
  400b1c:	27bd0020 	addiu	sp,sp,32
  400b20:	27bdffd8 	addiu	sp,sp,-40
  400b24:	afbf0024 	sw	ra,36(sp)
  400b28:	afb20020 	sw	s2,32(sp)
  400b2c:	afb1001c 	sw	s1,28(sp)
  400b30:	afb00018 	sw	s0,24(sp)
  400b34:	3c1c0042 	lui	gp,0x42
  400b38:	279c9ab0 	addiu	gp,gp,-25936
  400b3c:	afbc0010 	sw	gp,16(sp)
  400b40:	00808821 	move	s1,a0
  400b44:	10c00087 	beqz	a2,400d64 <_ftext@@Base+0x3e4>
  400b48:	00c08021 	move	s0,a2
  400b4c:	3c120041 	lui	s2,0x41
  400b50:	26521aa0 	addiu	s2,s2,6816
  400b54:	8cc60000 	lw	a2,0(a2)
  400b58:	00063080 	sll	a2,a2,0x2
  400b5c:	3c050040 	lui	a1,0x40
  400b60:	24a517d0 	addiu	a1,a1,6096
[31m  400b64:	8f998068 	lw	t9,fprintf[0m
  400b68:	0320f809 	jalr	t9
  400b6c:	02463021 	addu	a2,s2,a2
  400b70:	8fbc0010 	lw	gp,16(sp)
  400b74:	02202021 	move	a0,s1
  400b78:	3c050040 	lui	a1,0x40
  400b7c:	8e060004 	lw	a2,4(s0)
[31m  400b80:	8f998068 	lw	t9,fprintf[0m
  400b84:	0320f809 	jalr	t9
  400b88:	24a517dc 	addiu	a1,a1,6108
  400b8c:	8fbc0010 	lw	gp,16(sp)
  400b90:	3c020041 	lui	v0,0x41
  400b94:	8c421b70 	lw	v0,7024(v0)
  400b98:	10400009 	beqz	v0,400bc0 <_ftext@@Base+0x240>
  400b9c:	02202021 	move	a0,s1
  400ba0:	8e06001c 	lw	a2,28(s0)
  400ba4:	00063080 	sll	a2,a2,0x2
  400ba8:	3c050040 	lui	a1,0x40
  400bac:	24a517e8 	addiu	a1,a1,6120
[31m  400bb0:	8f998068 	lw	t9,fprintf[0m
  400bb4:	0320f809 	jalr	t9
  400bb8:	02463021 	addu	a2,s2,a2
  400bbc:	8fbc0010 	lw	gp,16(sp)
  400bc0:	8e060024 	lw	a2,36(s0)
  400bc4:	00063080 	sll	a2,a2,0x2
  400bc8:	02202021 	move	a0,s1
  400bcc:	3c050040 	lui	a1,0x40
  400bd0:	24a517f8 	addiu	a1,a1,6136
[31m  400bd4:	8f998068 	lw	t9,fprintf[0m
  400bd8:	0320f809 	jalr	t9
  400bdc:	02463021 	addu	a2,s2,a2
  400be0:	8fbc0010 	lw	gp,16(sp)
  400be4:	8e060028 	lw	a2,40(s0)
  400be8:	00063080 	sll	a2,a2,0x2
  400bec:	02202021 	move	a0,s1
  400bf0:	3c050040 	lui	a1,0x40
  400bf4:	24a5180c 	addiu	a1,a1,6156
[31m  400bf8:	8f998068 	lw	t9,fprintf[0m
  400bfc:	0320f809 	jalr	t9
  400c00:	02463021 	addu	a2,s2,a2
  400c04:	8fbc0010 	lw	gp,16(sp)
  400c08:	3c020041 	lui	v0,0x41
  400c0c:	8c421b70 	lw	v0,7024(v0)
  400c10:	10400009 	beqz	v0,400c38 <_ftext@@Base+0x2b8>
  400c14:	02202021 	move	a0,s1
  400c18:	8e060030 	lw	a2,48(s0)
  400c1c:	00063080 	sll	a2,a2,0x2
  400c20:	3c050040 	lui	a1,0x40
  400c24:	24a51820 	addiu	a1,a1,6176
[31m  400c28:	8f998068 	lw	t9,fprintf[0m
  400c2c:	0320f809 	jalr	t9
  400c30:	02463021 	addu	a2,s2,a2
  400c34:	8fbc0010 	lw	gp,16(sp)
  400c38:	8e060038 	lw	a2,56(s0)
  400c3c:	00063080 	sll	a2,a2,0x2
  400c40:	02202021 	move	a0,s1
  400c44:	3c050040 	lui	a1,0x40
  400c48:	24a51834 	addiu	a1,a1,6196
[31m  400c4c:	8f998068 	lw	t9,fprintf[0m
  400c50:	0320f809 	jalr	t9
  400c54:	02463021 	addu	a2,s2,a2
  400c58:	8fbc0010 	lw	gp,16(sp)
  400c5c:	8e06003c 	lw	a2,60(s0)
  400c60:	00063080 	sll	a2,a2,0x2
  400c64:	02202021 	move	a0,s1
  400c68:	3c050040 	lui	a1,0x40
  400c6c:	24a5184c 	addiu	a1,a1,6220
[31m  400c70:	8f998068 	lw	t9,fprintf[0m
  400c74:	0320f809 	jalr	t9
  400c78:	02463021 	addu	a2,s2,a2
  400c7c:	8fbc0010 	lw	gp,16(sp)
  400c80:	8e060050 	lw	a2,80(s0)
  400c84:	00063080 	sll	a2,a2,0x2
  400c88:	02202021 	move	a0,s1
  400c8c:	3c050040 	lui	a1,0x40
  400c90:	24a51864 	addiu	a1,a1,6244
[31m  400c94:	8f998068 	lw	t9,fprintf[0m
  400c98:	0320f809 	jalr	t9
  400c9c:	02463021 	addu	a2,s2,a2
  400ca0:	8fbc0010 	lw	gp,16(sp)
  400ca4:	8e060054 	lw	a2,84(s0)
  400ca8:	00063080 	sll	a2,a2,0x2
  400cac:	02202021 	move	a0,s1
  400cb0:	3c050040 	lui	a1,0x40
  400cb4:	24a51870 	addiu	a1,a1,6256
[31m  400cb8:	8f998068 	lw	t9,fprintf[0m
  400cbc:	0320f809 	jalr	t9
  400cc0:	02463021 	addu	a2,s2,a2
  400cc4:	8fbc0010 	lw	gp,16(sp)
  400cc8:	8e060058 	lw	a2,88(s0)
  400ccc:	00063080 	sll	a2,a2,0x2
  400cd0:	02202021 	move	a0,s1
  400cd4:	3c050040 	lui	a1,0x40
  400cd8:	24a5187c 	addiu	a1,a1,6268
[31m  400cdc:	8f998068 	lw	t9,fprintf[0m
  400ce0:	0320f809 	jalr	t9
  400ce4:	02463021 	addu	a2,s2,a2
  400ce8:	8fbc0010 	lw	gp,16(sp)
  400cec:	8e06005c 	lw	a2,92(s0)
  400cf0:	00063080 	sll	a2,a2,0x2
  400cf4:	02202021 	move	a0,s1
  400cf8:	3c050040 	lui	a1,0x40
  400cfc:	24a51888 	addiu	a1,a1,6280
[31m  400d00:	8f998068 	lw	t9,fprintf[0m
  400d04:	0320f809 	jalr	t9
  400d08:	02463021 	addu	a2,s2,a2
  400d0c:	8fbc0010 	lw	gp,16(sp)
  400d10:	02202021 	move	a0,s1
  400d14:	3c050040 	lui	a1,0x40
  400d18:	8e060060 	lw	a2,96(s0)
[31m  400d1c:	8f998068 	lw	t9,fprintf[0m
  400d20:	0320f809 	jalr	t9
  400d24:	24a5189c 	addiu	a1,a1,6300
  400d28:	8fbc0010 	lw	gp,16(sp)
  400d2c:	02202021 	move	a0,s1
  400d30:	3c050040 	lui	a1,0x40
  400d34:	24a518b4 	addiu	a1,a1,6324
[31m  400d38:	8f998068 	lw	t9,fprintf[0m
  400d3c:	0320f809 	jalr	t9
  400d40:	26060080 	addiu	a2,s0,128

[0m
[[0;33m*[0m] Function [0;33mfprintf[0m used [0;33m14[0m times [0;33mnotify.cgi[0m

