[[0;33m*[0m] Binary protection state of [0;33msmartwizard.cgi[0m
[REF] s12

  	RELRO          CANARY            NX           PIE       RPATH        RUNPATH      SYMBOLS      
  	[31mNo RELRO[0m       [31mNo Canary found[0m   [31mNX disabled[0m  [31mNo PIE[0m       [32mNo RPATH[0m     [32mNo RUNPATH[0m   [32mNo Symbols[0m

[0m
[[0;33m*[0m] Function [0;33msystem[0m tear down of [0;33msmartwizard.cgi[0m

  40521c:	8fbc0020 	lw	gp,32(sp)
  405220:	10000006 	b	40523c <main@@Base+0x510>
  405224:	3c020041 	lui	v0,0x41
  405228:	8f998090 	lw	t9,-32624(gp)
  40522c:	0320f809 	jalr	t9
  405230:	24845c90 	addiu	a0,a0,23696
  405234:	8fbc0020 	lw	gp,32(sp)
  405238:	3c020041 	lui	v0,0x41
  40523c:	8c42624c 	lw	v0,25164(v0)
  405240:	14400006 	bnez	v0,40525c <main@@Base+0x530>
  405244:	3c020041 	lui	v0,0x41
  405248:	8f99807c 	lw	t9,-32644(gp)
  40524c:	0320f809 	jalr	t9
  405250:	02802021 	move	a0,s4
  405254:	8fbc0020 	lw	gp,32(sp)
  405258:	3c020041 	lui	v0,0x41
  40525c:	8c426254 	lw	v0,25172(v0)
  405260:	10400016 	beqz	v0,4052bc <main@@Base+0x590>
  405264:	3c020041 	lui	v0,0x41
  405268:	24040010 	li	a0,16
  40526c:	8f998070 	lw	t9,-32656(gp)
  405270:	0320f809 	jalr	t9
  405274:	24050001 	li	a1,1
  405278:	8fbc0020 	lw	gp,32(sp)
  40527c:	3c040040 	lui	a0,0x40
[31m  405280:	8f998088 	lw	t9,system[0m
  405284:	0320f809 	jalr	t9
  405288:	24845de0 	addiu	a0,a0,24032
  40528c:	8fbc0020 	lw	gp,32(sp)
  405290:	3c040040 	lui	a0,0x40
[31m  405294:	8f998088 	lw	t9,system[0m
  405298:	0320f809 	jalr	t9
  40529c:	24845e14 	addiu	a0,a0,24084
  4052a0:	8fbc0020 	lw	gp,32(sp)
  4052a4:	3c040040 	lui	a0,0x40
[31m  4052a8:	8f998088 	lw	t9,system[0m
  4052ac:	0320f809 	jalr	t9
  4052b0:	24845e48 	addiu	a0,a0,24136
  4052b4:	8fbc0020 	lw	gp,32(sp)
  4052b8:	3c020041 	lui	v0,0x41
  4052bc:	8c426250 	lw	v0,25168(v0)
  4052c0:	1040000c 	beqz	v0,4052f4 <main@@Base+0x5c8>
  4052c4:	3c020041 	lui	v0,0x41
  4052c8:	3c040040 	lui	a0,0x40
[31m  4052cc:	8f998088 	lw	t9,system[0m
  4052d0:	0320f809 	jalr	t9
  4052d4:	24845e7c 	addiu	a0,a0,24188
  4052d8:	8fbc0020 	lw	gp,32(sp)
  4052dc:	3c040040 	lui	a0,0x40
[31m  4052e0:	8f998088 	lw	t9,system[0m
  4052e4:	0320f809 	jalr	t9
  4052e8:	24845eb0 	addiu	a0,a0,24240
  4052ec:	8fbc0020 	lw	gp,32(sp)
  4052f0:	3c020041 	lui	v0,0x41
  4052f4:	8c426248 	lw	v0,25160(v0)
  4052f8:	10400007 	beqz	v0,405318 <main@@Base+0x5ec>
  4052fc:	3c020041 	lui	v0,0x41
  405300:	3c040040 	lui	a0,0x40
[31m  405304:	8f998088 	lw	t9,system[0m
  405308:	0320f809 	jalr	t9
  40530c:	24845ef4 	addiu	a0,a0,24308
  405310:	8fbc0020 	lw	gp,32(sp)
  405314:	3c020041 	lui	v0,0x41
  405318:	8c42625c 	lw	v0,25180(v0)
  40531c:	1040000c 	beqz	v0,405350 <main@@Base+0x624>
  405320:	3c020041 	lui	v0,0x41
  405324:	3c040040 	lui	a0,0x40
[31m  405328:	8f998088 	lw	t9,system[0m
  40532c:	0320f809 	jalr	t9
  405330:	24845f28 	addiu	a0,a0,24360
  405334:	8fbc0020 	lw	gp,32(sp)
  405338:	3c040040 	lui	a0,0x40
[31m  40533c:	8f998088 	lw	t9,system[0m
  405340:	0320f809 	jalr	t9
  405344:	24845f58 	addiu	a0,a0,24408

[0m
[[0;33m*[0m] Function [0;33msystem[0m used [0;33m8[0m times [0;33msmartwizard.cgi[0m

