[[0;33m*[0m] Binary protection state of [0;33mstream_info.cgi[0m
[REF] s12

  	RELRO          CANARY            NX           PIE       RPATH        RUNPATH      SYMBOLS      
  	[31mNo RELRO[0m       [31mNo Canary found[0m   [31mNX disabled[0m  [31mNo PIE[0m       [32mNo RPATH[0m     [32mNo RUNPATH[0m   [32mNo Symbols[0m

[0m
[[0;33m*[0m] Function [0;33msprintf[0m tear down of [0;33mstream_info.cgi[0m

  401394:	ac400004 	sw	zero,4(v0)
  401398:	ac400008 	sw	zero,8(v0)
  40139c:	ac40000c 	sw	zero,12(v0)
  4013a0:	3c020040 	lui	v0,0x40
  4013a4:	94421db4 	lhu	v0,7604(v0)
  4013a8:	a7a20040 	sh	v0,64(sp)
  4013ac:	2411000a 	li	s1,10
  4013b0:	27b30040 	addiu	s3,sp,64
  4013b4:	3c140040 	lui	s4,0x40
  4013b8:	26951ae8 	addiu	s5,s4,6888
  4013bc:	27b60240 	addiu	s6,sp,576
  4013c0:	3c170040 	lui	s7,0x40
  4013c4:	26f71db8 	addiu	s7,s7,7608
  4013c8:	241e006e 	li	s8,110
  4013cc:	8f998040 	lw	t9,strlen
  4013d0:	0320f809 	jalr	t9
  4013d4:	02602021 	move	a0,s3
  4013d8:	8fbc0038 	lw	gp,56(sp)
  4013dc:	02621021 	addu	v0,s3,v0
  4013e0:	92831ae8 	lbu	v1,6888(s4)
  4013e4:	a0430000 	sb	v1,0(v0)
  4013e8:	92a30001 	lbu	v1,1(s5)
  4013ec:	a0430001 	sb	v1,1(v0)
  4013f0:	02c02021 	move	a0,s6
  4013f4:	02e02821 	move	a1,s7
[31m  4013f8:	8f998048 	lw	t9,sprintf[0m
  4013fc:	0320f809 	jalr	t9
  401400:	02203021 	move	a2,s1
--
  401584:	0320f809 	jalr	t9
  401588:	24060100 	li	a2,256
  40158c:	8fbc0038 	lw	gp,56(sp)
  401590:	27b40358 	addiu	s4,sp,856
  401594:	3c130040 	lui	s3,0x40
  401598:	26641e84 	addiu	a0,s3,7812
  40159c:	3c1e0040 	lui	s8,0x40
  4015a0:	27c51e94 	addiu	a1,s8,7828
  4015a4:	8f99803c 	lw	t9,-32708(gp)
  4015a8:	0320f809 	jalr	t9
  4015ac:	02803021 	move	a2,s4
  4015b0:	8fbc0038 	lw	gp,56(sp)
  4015b4:	27b5035c 	addiu	s5,sp,860
  4015b8:	26641e84 	addiu	a0,s3,7812
  4015bc:	3c170040 	lui	s7,0x40
  4015c0:	26e51e9c 	addiu	a1,s7,7836
  4015c4:	8f99803c 	lw	t9,-32708(gp)
  4015c8:	0320f809 	jalr	t9
  4015cc:	02a03021 	move	a2,s5
  4015d0:	8fbc0038 	lw	gp,56(sp)
  4015d4:	3c130040 	lui	s3,0x40
  4015d8:	26731ea4 	addiu	s3,s3,7844
  4015dc:	02202021 	move	a0,s1
  4015e0:	8fa60358 	lw	a2,856(sp)
  4015e4:	8fa7035c 	lw	a3,860(sp)
[31m  4015e8:	8f998048 	lw	t9,sprintf[0m
  4015ec:	0320f809 	jalr	t9
  4015f0:	02602821 	move	a1,s3
--
  401678:	0320f809 	jalr	t9
  40167c:	24e71f04 	addiu	a3,a3,7940
  401680:	8fbc0038 	lw	gp,56(sp)
  401684:	02202021 	move	a0,s1
  401688:	00002821 	move	a1,zero
  40168c:	8f998058 	lw	t9,-32680(gp)
  401690:	0320f809 	jalr	t9
  401694:	24060100 	li	a2,256
  401698:	8fbc0038 	lw	gp,56(sp)
  40169c:	3c160040 	lui	s6,0x40
  4016a0:	26c41f20 	addiu	a0,s6,7968
  4016a4:	27c51e94 	addiu	a1,s8,7828
  4016a8:	8f99803c 	lw	t9,-32708(gp)
  4016ac:	0320f809 	jalr	t9
  4016b0:	02803021 	move	a2,s4
  4016b4:	8fbc0038 	lw	gp,56(sp)
  4016b8:	26c41f20 	addiu	a0,s6,7968
  4016bc:	26e51e9c 	addiu	a1,s7,7836
  4016c0:	8f99803c 	lw	t9,-32708(gp)
  4016c4:	0320f809 	jalr	t9
  4016c8:	02a03021 	move	a2,s5
  4016cc:	8fbc0038 	lw	gp,56(sp)
  4016d0:	02202021 	move	a0,s1
  4016d4:	8fa60358 	lw	a2,856(sp)
  4016d8:	8fa7035c 	lw	a3,860(sp)
[31m  4016dc:	8f998048 	lw	t9,sprintf[0m
  4016e0:	0320f809 	jalr	t9
  4016e4:	02602821 	move	a1,s3

[0m
[[0;33m*[0m] Function [0;33msprintf[0m used [0;33m3[0m times [0;33mstream_info.cgi[0m

