[[0;33m*[0m] Binary protection state of [0;33mipfind[0m
[REF] s12

  	RELRO          CANARY            NX           PIE       RPATH        RUNPATH      SYMBOLS      
  	[31mNo RELRO[0m       [31mNo Canary found[0m   [31mNX disabled[0m  [31mNo PIE[0m       [32mNo RPATH[0m     [32mNo RUNPATH[0m   [32mNo Symbols[0m

[0m
[[0;33m*[0m] Function [0;33msprintf[0m tear down of [0;33mipfind[0m

  4010ec:	3c050040 	lui	a1,0x40
  4010f0:	8fa60018 	lw	a2,24(sp)
  4010f4:	8f9980b0 	lw	t9,-32592(gp)
  4010f8:	0320f809 	jalr	t9
  4010fc:	24a52af0 	addiu	a1,a1,10992
  401100:	8fa20018 	lw	v0,24(sp)
  401104:	38420001 	xori	v0,v0,0x1
  401108:	2403ffff 	li	v1,-1
  40110c:	0002180b 	0x2180b
  401110:	00601021 	move	v0,v1
  401114:	8fbf0024 	lw	ra,36(sp)
  401118:	03e00008 	jr	ra
  40111c:	27bd0028 	addiu	sp,sp,40
  401120:	27bdff58 	addiu	sp,sp,-168
  401124:	afbf00a4 	sw	ra,164(sp)
  401128:	afb100a0 	sw	s1,160(sp)
  40112c:	afb0009c 	sw	s0,156(sp)
  401130:	3c1c0042 	lui	gp,0x42
  401134:	279cb030 	addiu	gp,gp,-20432
  401138:	afbc0010 	sw	gp,16(sp)
  40113c:	00808821 	move	s1,a0
  401140:	27b00018 	addiu	s0,sp,24
  401144:	02002021 	move	a0,s0
  401148:	3c050040 	lui	a1,0x40
  40114c:	24a52b04 	addiu	a1,a1,11012
[31m  401150:	8f99805c 	lw	t9,sprintf[0m
  401154:	0320f809 	jalr	t9
  401158:	02203021 	move	a2,s1
--
  401180:	8f99804c 	lw	t9,-32692(gp)
  401184:	0320f809 	jalr	t9
  401188:	00000000 	nop
  40118c:	8fbc0010 	lw	gp,16(sp)
  401190:	8c430000 	lw	v1,0(v0)
  401194:	24020011 	li	v0,17
  401198:	10620003 	beq	v1,v0,4011a8 <readUpFwStatus@@Base+0x118>
  40119c:	3c050040 	lui	a1,0x40
  4011a0:	10000022 	b	40122c <readUpFwStatus@@Base+0x19c>
  4011a4:	2402ffff 	li	v0,-1
  4011a8:	8f828054 	lw	v0,-32684(gp)
  4011ac:	8c440000 	lw	a0,0(v0)
  4011b0:	24a52b1c 	addiu	a1,a1,11036
  4011b4:	8f9980b0 	lw	t9,-32592(gp)
  4011b8:	0320f809 	jalr	t9
  4011bc:	02203021 	move	a2,s1
  4011c0:	1000001a 	b	40122c <readUpFwStatus@@Base+0x19c>
  4011c4:	2402ffff 	li	v0,-1
  4011c8:	8f9980e4 	lw	t9,-32540(gp)
  4011cc:	0320f809 	jalr	t9
  4011d0:	27b10018 	addiu	s1,sp,24
  4011d4:	8fbc0010 	lw	gp,16(sp)
  4011d8:	02202021 	move	a0,s1
  4011dc:	3c050040 	lui	a1,0x40
  4011e0:	24a52b44 	addiu	a1,a1,11076
[31m  4011e4:	8f99805c 	lw	t9,sprintf[0m
  4011e8:	0320f809 	jalr	t9
  4011ec:	00403021 	move	a2,v0
--
  401864:	24a52c24 	addiu	a1,a1,11300
  401868:	8f998040 	lw	t9,-32704(gp)
  40186c:	0320f809 	jalr	t9
  401870:	27a6034c 	addiu	a2,sp,844
  401874:	8fbc0018 	lw	gp,24(sp)
  401878:	26842c1c 	addiu	a0,s4,11292
  40187c:	3c050040 	lui	a1,0x40
  401880:	24a52c30 	addiu	a1,a1,11312
  401884:	8f998040 	lw	t9,-32704(gp)
  401888:	0320f809 	jalr	t9
  40188c:	27a6034e 	addiu	a2,sp,846
  401890:	8fbc0018 	lw	gp,24(sp)
  401894:	26842c1c 	addiu	a0,s4,11292
  401898:	3c050040 	lui	a1,0x40
  40189c:	24a52c40 	addiu	a1,a1,11328
  4018a0:	8f998040 	lw	t9,-32704(gp)
  4018a4:	0320f809 	jalr	t9
  4018a8:	27a60350 	addiu	a2,sp,848
  4018ac:	8fbc0018 	lw	gp,24(sp)
  4018b0:	97a6034c 	lhu	a2,844(sp)
  4018b4:	97a7034e 	lhu	a3,846(sp)
  4018b8:	97a20350 	lhu	v0,848(sp)
  4018bc:	afa20010 	sw	v0,16(sp)
  4018c0:	27a401b5 	addiu	a0,sp,437
  4018c4:	3c050040 	lui	a1,0x40
[31m  4018c8:	8f99805c 	lw	t9,sprintf[0m
  4018cc:	0320f809 	jalr	t9
  4018d0:	24a52c50 	addiu	a1,a1,11344
--
  40215c:	3c040040 	lui	a0,0x40
  402160:	0c1004f4 	jal	4013d0 <readUpFwStatus@@Base+0x340>
  402164:	24842d88 	addiu	a0,a0,11656
  402168:	24030001 	li	v1,1
  40216c:	3c020041 	lui	v0,0x41
  402170:	10000005 	b	402188 <readUpFwStatus@@Base+0x10f8>
  402174:	ac433168 	sw	v1,12648(v0)
  402178:	0c1004f4 	jal	4013d0 <readUpFwStatus@@Base+0x340>
  40217c:	24842d9c 	addiu	a0,a0,11676
  402180:	0c10077d 	jal	401df4 <readUpFwStatus@@Base+0xd64>
  402184:	00000000 	nop
  402188:	8fbf001c 	lw	ra,28(sp)
  40218c:	8fb00018 	lw	s0,24(sp)
  402190:	03e00008 	jr	ra
  402194:	27bd0020 	addiu	sp,sp,32
  402198:	27bdff60 	addiu	sp,sp,-160
  40219c:	afbf009c 	sw	ra,156(sp)
  4021a0:	afb00098 	sw	s0,152(sp)
  4021a4:	3c1c0042 	lui	gp,0x42
  4021a8:	279cb030 	addiu	gp,gp,-20432
  4021ac:	afbc0010 	sw	gp,16(sp)
  4021b0:	00803021 	move	a2,a0
  4021b4:	27b00018 	addiu	s0,sp,24
  4021b8:	02002021 	move	a0,s0
  4021bc:	3c050040 	lui	a1,0x40
[31m  4021c0:	8f99805c 	lw	t9,sprintf[0m
  4021c4:	0320f809 	jalr	t9
  4021c8:	24a52b04 	addiu	a1,a1,11012

[0m
[[0;33m*[0m] Function [0;33msprintf[0m used [0;33m4[0m times [0;33mipfind[0m

