[[0;33m*[0m] Binary protection state of [0;33mmsger[0m
[REF] s12

  	RELRO          CANARY            NX           PIE       RPATH        RUNPATH      SYMBOLS      
  	[31mNo RELRO[0m       [31mNo Canary found[0m   [31mNX disabled[0m  [31mNo PIE[0m       [32mNo RPATH[0m     [32mNo RUNPATH[0m   [32mNo Symbols[0m

[0m
[[0;33m*[0m] Function [0;33mprintf[0m tear down of [0;33mmsger[0m

  4011c0:	00102940 	sll	a1,s0,0x5
  4011c4:	00a22823 	subu	a1,a1,v0
  4011c8:	02452821 	addu	a1,s2,a1
  4011cc:	8e240000 	lw	a0,0(s1)
  4011d0:	8f998050 	lw	t9,-32688(gp)
  4011d4:	0320f809 	jalr	t9
  4011d8:	24a50004 	addiu	a1,a1,4
  4011dc:	8fbc0018 	lw	gp,24(sp)
  4011e0:	1440000d 	bnez	v0,401218 <main@@Base+0xe8>
  4011e4:	26100001 	addiu	s0,s0,1
  4011e8:	2610ffff 	addiu	s0,s0,-1
  4011ec:	00101080 	sll	v0,s0,0x2
  4011f0:	00108140 	sll	s0,s0,0x5
  4011f4:	02028023 	subu	s0,s0,v0
  4011f8:	3c020040 	lui	v0,0x40
  4011fc:	244228c0 	addiu	v0,v0,10432
  401200:	02021021 	addu	v0,s0,v0
  401204:	8c5e0000 	lw	s8,0(v0)
  401208:	07c1000e 	bgez	s8,401244 <main@@Base+0x114>
  40120c:	3c040040 	lui	a0,0x40
  401210:	10000003 	b	401220 <main@@Base+0xf0>
  401214:	00000000 	nop
  401218:	1614ffe7 	bne	s0,s4,4011b8 <main@@Base+0x88>
  40121c:	3c040040 	lui	a0,0x40
  401220:	8ea50000 	lw	a1,0(s5)
[31m  401224:	8f998094 	lw	t9,printf[0m
  401228:	0320f809 	jalr	t9
  40122c:	24842790 	addiu	a0,a0,10128
--
  401530:	8f998074 	lw	t9,-32652(gp)
  401534:	0320f809 	jalr	t9
  401538:	02603821 	move	a3,s3
  40153c:	8fbc0018 	lw	gp,24(sp)
  401540:	1000003b 	b	401630 <main@@Base+0x500>
  401544:	00000000 	nop
  401548:	16e20039 	bne	s7,v0,401630 <main@@Base+0x500>
  40154c:	00000000 	nop
  401550:	8ec40010 	lw	a0,16(s6)
  401554:	8f99803c 	lw	t9,-32708(gp)
  401558:	0320f809 	jalr	t9
  40155c:	00000000 	nop
  401560:	8fbc0018 	lw	gp,24(sp)
  401564:	afa20024 	sw	v0,36(sp)
  401568:	3c020a55 	lui	v0,0xa55
  40156c:	3442a001 	ori	v0,v0,0xa001
  401570:	17c2000e 	bne	s8,v0,4015ac <main@@Base+0x47c>
  401574:	02802821 	move	a1,s4
  401578:	02802021 	move	a0,s4
  40157c:	8f998068 	lw	t9,-32664(gp)
  401580:	0320f809 	jalr	t9
  401584:	27a50020 	addiu	a1,sp,32
  401588:	8fbc0018 	lw	gp,24(sp)
  40158c:	3c040040 	lui	a0,0x40
  401590:	8fa50020 	lw	a1,32(sp)
[31m  401594:	8f998094 	lw	t9,printf[0m
  401598:	0320f809 	jalr	t9
  40159c:	24842888 	addiu	a0,a0,10376
--
  4015a4:	10000022 	b	401630 <main@@Base+0x500>
  4015a8:	00000000 	nop
  4015ac:	02a02021 	move	a0,s5
  4015b0:	24060004 	li	a2,4
  4015b4:	8f998054 	lw	t9,-32684(gp)
  4015b8:	0320f809 	jalr	t9
  4015bc:	27a70024 	addiu	a3,sp,36
  4015c0:	8fbc0018 	lw	gp,24(sp)
  4015c4:	02a02021 	move	a0,s5
  4015c8:	8f998070 	lw	t9,-32656(gp)
  4015cc:	0320f809 	jalr	t9
  4015d0:	24050001 	li	a1,1
  4015d4:	8fbc0018 	lw	gp,24(sp)
  4015d8:	04410007 	bgez	v0,4015f8 <main@@Base+0x4c8>
  4015dc:	3c040040 	lui	a0,0x40
  4015e0:	8f99808c 	lw	t9,-32628(gp)
  4015e4:	0320f809 	jalr	t9
  4015e8:	2484288c 	addiu	a0,a0,10380
  4015ec:	8fbc0018 	lw	gp,24(sp)
  4015f0:	1000000f 	b	401630 <main@@Base+0x500>
  4015f4:	00000000 	nop
  4015f8:	8ea20018 	lw	v0,24(s5)
  4015fc:	14400008 	bnez	v0,401620 <main@@Base+0x4f0>
  401600:	3c040040 	lui	a0,0x40
  401604:	8ea50020 	lw	a1,32(s5)
[31m  401608:	8f998094 	lw	t9,printf[0m
  40160c:	0320f809 	jalr	t9
  401610:	24842888 	addiu	a0,a0,10376

[0m
[[0;33m*[0m] Function [0;33mprintf[0m used [0;33m3[0m times [0;33mmsger[0m

