[[0;33m*[0m] Binary protection state of [0;33mllmnr[0m
[REF] s12

  	RELRO          CANARY            NX           PIE       RPATH        RUNPATH      SYMBOLS      
  	[31mNo RELRO[0m       [31mNo Canary found[0m   [31mNX disabled[0m  [31mNo PIE[0m       [32mNo RPATH[0m     [32mNo RUNPATH[0m   [32mNo Symbols[0m

[0m
[[0;33m*[0m] Function [0;33mfprintf[0m tear down of [0;33mllmnr[0m

  400ff0:	8f9980f0 	lw	t9,-32528(gp)
  400ff4:	0320f809 	jalr	t9
  400ff8:	a2120018 	sb	s2,24(s0)
  400ffc:	2604001e 	addiu	a0,s0,30
  401000:	8fbc0020 	lw	gp,32(sp)
  401004:	27a50064 	addiu	a1,sp,100
  401008:	24060004 	li	a2,4
  40100c:	8f9980f0 	lw	t9,-32528(gp)
  401010:	0320f809 	jalr	t9
  401014:	a212001d 	sb	s2,29(s0)
  401018:	26040023 	addiu	a0,s0,35
  40101c:	8fbc0020 	lw	gp,32(sp)
  401020:	27a50068 	addiu	a1,sp,104
  401024:	a2120022 	sb	s2,34(s0)
  401028:	8f9980f0 	lw	t9,-32528(gp)
  40102c:	0320f809 	jalr	t9
  401030:	24060004 	li	a2,4
  401034:	3c020041 	lui	v0,0x41
  401038:	8fbc0020 	lw	gp,32(sp)
  40103c:	a2000027 	sb	zero,39(s0)
  401040:	8c423684 	lw	v0,13956(v0)
  401044:	10400008 	beqz	v0,401068 <_ftext@@Base+0x418>
  401048:	3c050040 	lui	a1,0x40
  40104c:	8f828060 	lw	v0,-32672(gp)
  401050:	02003021 	move	a2,s0
[31m  401054:	8f9980b4 	lw	t9,fprintf[0m
  401058:	8c440000 	lw	a0,0(v0)
  40105c:	0320f809 	jalr	t9
--
  401178:	00408021 	move	s0,v0
  40117c:	8f9980e8 	lw	t9,-32536(gp)
  401180:	3c040040 	lui	a0,0x40
  401184:	0320f809 	jalr	t9
  401188:	24842bd4 	addiu	a0,a0,11220
  40118c:	10000031 	b	401254 <_ftext@@Base+0x604>
  401190:	00000000 	nop
  401194:	8f9980ac 	lw	t9,-32596(gp)
  401198:	3c160040 	lui	s6,0x40
  40119c:	27b40018 	addiu	s4,sp,24
  4011a0:	0320f809 	jalr	t9
  4011a4:	3c1e0041 	lui	s8,0x41
  4011a8:	2417007e 	li	s7,126
  4011ac:	8fbc0010 	lw	gp,16(sp)
  4011b0:	00408821 	move	s1,v0
  4011b4:	26d62bdc 	addiu	s6,s6,11228
  4011b8:	8f958060 	lw	s5,-32672(gp)
  4011bc:	1000004d 	b	4012f4 <_ftext@@Base+0x6a4>
  4011c0:	24520008 	addiu	s2,v0,8
  4011c4:	0320f809 	jalr	t9
  4011c8:	00000000 	nop
  4011cc:	8fc23684 	lw	v0,13956(s8)
  4011d0:	8fbc0010 	lw	gp,16(sp)
  4011d4:	10400007 	beqz	v0,4011f4 <_ftext@@Base+0x5a4>
  4011d8:	00000000 	nop
[31m  4011dc:	8f9980b4 	lw	t9,fprintf[0m
  4011e0:	8e46fffc 	lw	a2,-4(s2)
  4011e4:	8ea40000 	lw	a0,0(s5)
--
  401250:	02002021 	move	a0,s0
  401254:	10000037 	b	401334 <_ftext@@Base+0x6e4>
  401258:	2402ffff 	li	v0,-1
  40125c:	8e45fffc 	lw	a1,-4(s2)
  401260:	0320f809 	jalr	t9
  401264:	00000000 	nop
  401268:	8fbc0010 	lw	gp,16(sp)
  40126c:	14400021 	bnez	v0,4012f4 <_ftext@@Base+0x6a4>
  401270:	26520008 	addiu	s2,s2,8
  401274:	8f998074 	lw	t9,-32652(gp)
  401278:	8fa4002c 	lw	a0,44(sp)
  40127c:	0320f809 	jalr	t9
  401280:	00000000 	nop
  401284:	02602021 	move	a0,s3
  401288:	8fbc0010 	lw	gp,16(sp)
  40128c:	8f998064 	lw	t9,-32668(gp)
  401290:	0320f809 	jalr	t9
  401294:	00402821 	move	a1,v0
  401298:	3c020041 	lui	v0,0x41
  40129c:	8c423684 	lw	v0,13956(v0)
  4012a0:	8fbc0010 	lw	gp,16(sp)
  4012a4:	10400009 	beqz	v0,4012cc <_ftext@@Base+0x67c>
  4012a8:	3c050040 	lui	a1,0x40
  4012ac:	8f828060 	lw	v0,-32672(gp)
  4012b0:	02603821 	move	a3,s3
[31m  4012b4:	8f9980b4 	lw	t9,fprintf[0m
  4012b8:	8f868098 	lw	a2,-32616(gp)
  4012bc:	8c440000 	lw	a0,0(v0)
--
  40139c:	8f9980dc 	lw	t9,-32548(gp)
  4013a0:	00808021 	move	s0,a0
  4013a4:	afa50b4c 	sw	a1,2892(sp)
  4013a8:	0320f809 	jalr	t9
  4013ac:	000520c0 	sll	a0,a1,0x3
  4013b0:	8fbc0020 	lw	gp,32(sp)
  4013b4:	10400004 	beqz	v0,4013c8 <_ftext@@Base+0x778>
  4013b8:	afa20af4 	sw	v0,2804(sp)
  4013bc:	00001821 	move	v1,zero
  4013c0:	10000018 	b	401424 <_ftext@@Base+0x7d4>
  4013c4:	24040001 	li	a0,1
  4013c8:	8f828060 	lw	v0,-32672(gp)
  4013cc:	2404000c 	li	a0,12
  4013d0:	8f998100 	lw	t9,-32512(gp)
  4013d4:	8c500000 	lw	s0,0(v0)
  4013d8:	3c020041 	lui	v0,0x41
  4013dc:	8c463ab8 	lw	a2,15032(v0)
  4013e0:	0320f809 	jalr	t9
  4013e4:	afa60b14 	sw	a2,2836(sp)
  4013e8:	3c050040 	lui	a1,0x40
  4013ec:	02002021 	move	a0,s0
  4013f0:	8fbc0020 	lw	gp,32(sp)
  4013f4:	24a52c48 	addiu	a1,a1,11336
  4013f8:	8fa60b14 	lw	a2,2836(sp)
  4013fc:	240702be 	li	a3,702
[31m  401400:	8f9980b4 	lw	t9,fprintf[0m
  401404:	10000031 	b	4014cc <_ftext@@Base+0x87c>
  401408:	afa20010 	sw	v0,16(sp)
--
  401460:	04410020 	bgez	v0,4014e4 <_ftext@@Base+0x894>
  401464:	00408021 	move	s0,v0
  401468:	8f998050 	lw	t9,-32688(gp)
  40146c:	0320f809 	jalr	t9
  401470:	00000000 	nop
  401474:	8c440000 	lw	a0,0(v0)
  401478:	24020004 	li	v0,4
  40147c:	8fbc0020 	lw	gp,32(sp)
  401480:	1082fff1 	beq	a0,v0,401448 <_ftext@@Base+0x7f8>
  401484:	2402ffff 	li	v0,-1
  401488:	16020017 	bne	s0,v0,4014e8 <_ftext@@Base+0x898>
  40148c:	3c020041 	lui	v0,0x41
  401490:	8f828060 	lw	v0,-32672(gp)
  401494:	8f998100 	lw	t9,-32512(gp)
  401498:	8c500000 	lw	s0,0(v0)
  40149c:	3c020041 	lui	v0,0x41
  4014a0:	8c463ab8 	lw	a2,15032(v0)
  4014a4:	0320f809 	jalr	t9
  4014a8:	afa60b14 	sw	a2,2836(sp)
  4014ac:	3c050040 	lui	a1,0x40
  4014b0:	02002021 	move	a0,s0
  4014b4:	8fbc0020 	lw	gp,32(sp)
  4014b8:	24a52c64 	addiu	a1,a1,11364
  4014bc:	8fa60b14 	lw	a2,2836(sp)
  4014c0:	240702e2 	li	a3,738
[31m  4014c4:	8f9980b4 	lw	t9,fprintf[0m
  4014c8:	afa20010 	sw	v0,16(sp)
  4014cc:	0320f809 	jalr	t9
  4014d0:	00000000 	nop
  4014d4:	8fbc0020 	lw	gp,32(sp)
  4014d8:	8f99804c 	lw	t9,-32692(gp)
  4014dc:	0320f809 	jalr	t9
  4014e0:	24040001 	li	a0,1
  4014e4:	3c020041 	lui	v0,0x41
  4014e8:	8c423684 	lw	v0,13956(v0)
  4014ec:	10400009 	beqz	v0,401514 <_ftext@@Base+0x8c4>
  4014f0:	3c020041 	lui	v0,0x41
  4014f4:	3c050040 	lui	a1,0x40
  4014f8:	8c463ab8 	lw	a2,15032(v0)
  4014fc:	8f828060 	lw	v0,-32672(gp)
[31m  401500:	8f9980b4 	lw	t9,fprintf[0m
  401504:	8c440000 	lw	a0,0(v0)
  401508:	0320f809 	jalr	t9
  40150c:	24a52c8c 	addiu	a1,a1,11404
  401510:	8fbc0020 	lw	gp,32(sp)
  401514:	8fb40af4 	lw	s4,2804(sp)
  401518:	10000268 	b	401ebc <_ftext@@Base+0x126c>
  40151c:	0000f021 	move	s8,zero
  401520:	86820006 	lh	v0,6(s4)
  401524:	10400263 	beqz	v0,401eb4 <_ftext@@Base+0x1264>
  401528:	24030001 	li	v1,1
  40152c:	1043000b 	beq	v0,v1,40155c <_ftext@@Base+0x90c>
  401530:	3c030041 	lui	v1,0x41
  401534:	3c050040 	lui	a1,0x40
  401538:	8c663ab8 	lw	a2,15032(v1)
  40153c:	24a52cac 	addiu	a1,a1,11436
  401540:	8f838060 	lw	v1,-32672(gp)
  401544:	240702fe 	li	a3,766
[31m  401548:	8f9980b4 	lw	t9,fprintf[0m
  40154c:	8c640000 	lw	a0,0(v1)
  401550:	afbe0010 	sw	s8,16(sp)
--
  401588:	0320f809 	jalr	t9
  40158c:	afb20010 	sw	s2,16(sp)
  401590:	0040b821 	move	s7,v0
  401594:	2402ffff 	li	v0,-1
  401598:	8fbc0020 	lw	gp,32(sp)
  40159c:	16e20016 	bne	s7,v0,4015f8 <_ftext@@Base+0x9a8>
  4015a0:	3c020041 	lui	v0,0x41
  4015a4:	3c020041 	lui	v0,0x41
  4015a8:	8c463ab8 	lw	a2,15032(v0)
  4015ac:	8f828060 	lw	v0,-32672(gp)
  4015b0:	8f998050 	lw	t9,-32688(gp)
  4015b4:	8c500000 	lw	s0,0(v0)
  4015b8:	0320f809 	jalr	t9
  4015bc:	afa60b14 	sw	a2,2836(sp)
  4015c0:	8fbc0020 	lw	gp,32(sp)
  4015c4:	8c440000 	lw	a0,0(v0)
  4015c8:	8f998100 	lw	t9,-32512(gp)
  4015cc:	0320f809 	jalr	t9
  4015d0:	00000000 	nop
  4015d4:	3c050040 	lui	a1,0x40
  4015d8:	02002021 	move	a0,s0
  4015dc:	8fbc0020 	lw	gp,32(sp)
  4015e0:	24a52c64 	addiu	a1,a1,11364
  4015e4:	8fa60b14 	lw	a2,2836(sp)
  4015e8:	2407030e 	li	a3,782
[31m  4015ec:	8f9980b4 	lw	t9,fprintf[0m
  4015f0:	1000ffb6 	b	4014cc <_ftext@@Base+0x87c>
  4015f4:	afa20010 	sw	v0,16(sp)
  4015f8:	8c423684 	lw	v0,13956(v0)
  4015fc:	1040008a 	beqz	v0,401828 <_ftext@@Base+0xbd8>
  401600:	3c030041 	lui	v1,0x41
  401604:	8f828060 	lw	v0,-32672(gp)
  401608:	02e03821 	move	a3,s7
  40160c:	8c663ab8 	lw	a2,15032(v1)
  401610:	3c050040 	lui	a1,0x40
  401614:	02e09821 	move	s3,s7
[31m  401618:	8f9980b4 	lw	t9,fprintf[0m
  40161c:	24a52ce8 	addiu	a1,a1,11496
  401620:	0040b021 	move	s6,v0
  401624:	8c440000 	lw	a0,0(v0)
  401628:	24150010 	li	s5,16
  40162c:	afb00af0 	sw	s0,2800(sp)
  401630:	0320f809 	jalr	t9
  401634:	00008021 	move	s0,zero
  401638:	10000014 	b	40168c <_ftext@@Base+0xa3c>
  40163c:	00000000 	nop
  401640:	90e60000 	lbu	a2,0(a3)
  401644:	24630001 	addiu	v1,v1,1
[31m  401648:	8f9980b4 	lw	t9,fprintf[0m
  40164c:	24e70001 	addiu	a3,a3,1
  401650:	8ec40000 	lw	a0,0(s6)
--
  4016cc:	8ca20010 	lw	v0,16(a1)
  4016d0:	8ca4001c 	lw	a0,28(a1)
  4016d4:	0044202b 	sltu	a0,v0,a0
  4016d8:	10800004 	beqz	a0,4016ec <_ftext@@Base+0xa9c>
  4016dc:	24440001 	addiu	a0,v0,1
  4016e0:	a0430000 	sb	v1,0(v0)
  4016e4:	10000008 	b	401708 <_ftext@@Base+0xab8>
  4016e8:	aca40010 	sw	a0,16(a1)
  4016ec:	8f998034 	lw	t9,-32716(gp)
  4016f0:	10000002 	b	4016fc <_ftext@@Base+0xaac>
  4016f4:	00000000 	nop
  4016f8:	8f99805c 	lw	t9,-32676(gp)
  4016fc:	0320f809 	jalr	t9
  401700:	2404000a 	li	a0,10
  401704:	8fbc0020 	lw	gp,32(sp)
  401708:	8f908060 	lw	s0,-32672(gp)
  40170c:	2415000a 	li	s5,10
  401710:	8fa20028 	lw	v0,40(sp)
  401714:	3c050040 	lui	a1,0x40
  401718:	96460000 	lhu	a2,0(s2)
  40171c:	24a52d18 	addiu	a1,a1,11544
  401720:	8e040000 	lw	a0,0(s0)
  401724:	24070002 	li	a3,2
  401728:	afa20014 	sw	v0,20(sp)
  40172c:	24020010 	li	v0,16
[31m  401730:	8f9980b4 	lw	t9,fprintf[0m
  401734:	3c130041 	lui	s3,0x41
  401738:	afa20018 	sw	v0,24(sp)
  40173c:	2402001c 	li	v0,28
  401740:	afa2001c 	sw	v0,28(sp)
  401744:	0320f809 	jalr	t9
  401748:	afb50010 	sw	s5,16(sp)
  40174c:	24020020 	li	v0,32
  401750:	02402021 	move	a0,s2
  401754:	8fbc0020 	lw	gp,32(sp)
  401758:	266636b4 	addiu	a2,s3,14004
  40175c:	afa20014 	sw	v0,20(sp)
  401760:	24020003 	li	v0,3
  401764:	afa20018 	sw	v0,24(sp)
  401768:	3c020041 	lui	v0,0x41
  40176c:	8f9980c8 	lw	t9,-32568(gp)
  401770:	24423abc 	addiu	v0,v0,15036
  401774:	8fa50028 	lw	a1,40(sp)
  401778:	24070401 	li	a3,1025
  40177c:	0320f809 	jalr	t9
  401780:	afa20010 	sw	v0,16(sp)
  401784:	24030002 	li	v1,2
  401788:	96420000 	lhu	v0,0(s2)
  40178c:	8fbc0020 	lw	gp,32(sp)
  401790:	10430006 	beq	v0,v1,4017ac <_ftext@@Base+0xb5c>
  401794:	3c030041 	lui	v1,0x41
[31m  401798:	8f9980b4 	lw	t9,fprintf[0m
  40179c:	1455001a 	bne	v0,s5,401808 <_ftext@@Base+0xbb8>
  4017a0:	3c030041 	lui	v1,0x41
  4017a4:	1000000a 	b	4017d0 <_ftext@@Base+0xb80>
  4017a8:	3c050040 	lui	a1,0x40
  4017ac:	3c050040 	lui	a1,0x40
  4017b0:	24633abc 	addiu	v1,v1,15036
  4017b4:	24a52da0 	addiu	a1,a1,11680
  4017b8:	8e040000 	lw	a0,0(s0)
  4017bc:	266736b4 	addiu	a3,s3,14004
[31m  4017c0:	8f9980b4 	lw	t9,fprintf[0m
  4017c4:	24060002 	li	a2,2
  4017c8:	10000015 	b	401820 <_ftext@@Base+0xbd0>
--
  401834:	02602021 	move	a0,s3
  401838:	3c050041 	lui	a1,0x41
  40183c:	02602021 	move	a0,s3
  401840:	8fbc0020 	lw	gp,32(sp)
  401844:	8f99808c 	lw	t9,-32628(gp)
  401848:	0320f809 	jalr	t9
  40184c:	24a5368c 	addiu	a1,a1,13964
  401850:	0c100398 	jal	400e60 <_ftext@@Base+0x210>
  401854:	02002021 	move	a0,s0
  401858:	3c060041 	lui	a2,0x41
  40185c:	02002821 	move	a1,s0
  401860:	8fbc0020 	lw	gp,32(sp)
  401864:	24c636a0 	addiu	a2,a2,13984
  401868:	8f9980fc 	lw	t9,-32516(gp)
  40186c:	0320f809 	jalr	t9
  401870:	2404000a 	li	a0,10
  401874:	3c020041 	lui	v0,0x41
  401878:	8c423684 	lw	v0,13956(v0)
  40187c:	8fbc0020 	lw	gp,32(sp)
  401880:	1040003d 	beqz	v0,401978 <_ftext@@Base+0xd28>
  401884:	3c050040 	lui	a1,0x40
  401888:	8f908060 	lw	s0,-32672(gp)
  40188c:	92260000 	lbu	a2,0(s1)
  401890:	24a52ed8 	addiu	a1,a1,11992
  401894:	92220001 	lbu	v0,1(s1)
[31m  401898:	8f9980b4 	lw	t9,fprintf[0m
  40189c:	00063200 	sll	a2,a2,0x8
  4018a0:	8e040000 	lw	a0,0(s0)
  4018a4:	0320f809 	jalr	t9
  4018a8:	00463025 	or	a2,v0,a2
  4018ac:	3c050040 	lui	a1,0x40
  4018b0:	8fbc0020 	lw	gp,32(sp)
  4018b4:	24a52ef4 	addiu	a1,a1,12020
  4018b8:	92260002 	lbu	a2,2(s1)
  4018bc:	92220003 	lbu	v0,3(s1)
[31m  4018c0:	8f9980b4 	lw	t9,fprintf[0m
  4018c4:	00063200 	sll	a2,a2,0x8
  4018c8:	8e040000 	lw	a0,0(s0)
  4018cc:	0320f809 	jalr	t9
  4018d0:	00463025 	or	a2,v0,a2
  4018d4:	3c050040 	lui	a1,0x40
  4018d8:	8fbc0020 	lw	gp,32(sp)
  4018dc:	24a52f10 	addiu	a1,a1,12048
  4018e0:	92260004 	lbu	a2,4(s1)
  4018e4:	92220005 	lbu	v0,5(s1)
[31m  4018e8:	8f9980b4 	lw	t9,fprintf[0m
  4018ec:	00063200 	sll	a2,a2,0x8
  4018f0:	8e040000 	lw	a0,0(s0)
  4018f4:	0320f809 	jalr	t9
  4018f8:	00463025 	or	a2,v0,a2
  4018fc:	3c050040 	lui	a1,0x40
  401900:	8fbc0020 	lw	gp,32(sp)
  401904:	24a52f28 	addiu	a1,a1,12072
  401908:	92260006 	lbu	a2,6(s1)
  40190c:	92220007 	lbu	v0,7(s1)
[31m  401910:	8f9980b4 	lw	t9,fprintf[0m
  401914:	00063200 	sll	a2,a2,0x8
  401918:	8e040000 	lw	a0,0(s0)
  40191c:	0320f809 	jalr	t9
  401920:	00463025 	or	a2,v0,a2
  401924:	3c050040 	lui	a1,0x40
  401928:	8fbc0020 	lw	gp,32(sp)
  40192c:	24a52f40 	addiu	a1,a1,12096
  401930:	92260008 	lbu	a2,8(s1)
  401934:	92220009 	lbu	v0,9(s1)
[31m  401938:	8f9980b4 	lw	t9,fprintf[0m
  40193c:	00063200 	sll	a2,a2,0x8
  401940:	8e040000 	lw	a0,0(s0)
  401944:	0320f809 	jalr	t9
  401948:	00463025 	or	a2,v0,a2
  40194c:	3c050040 	lui	a1,0x40
  401950:	8fbc0020 	lw	gp,32(sp)
  401954:	24a52f58 	addiu	a1,a1,12120
  401958:	9226000a 	lbu	a2,10(s1)
  40195c:	9222000b 	lbu	v0,11(s1)
[31m  401960:	8f9980b4 	lw	t9,fprintf[0m
  401964:	00063200 	sll	a2,a2,0x8
  401968:	8e040000 	lw	a0,0(s0)
--
  4019f0:	afa30b18 	sw	v1,2840(sp)
  4019f4:	02e03021 	move	a2,s7
  4019f8:	0320f809 	jalr	t9
  4019fc:	afa70b14 	sw	a3,2836(sp)
  401a00:	8fbc0020 	lw	gp,32(sp)
  401a04:	8fa70b14 	lw	a3,2836(sp)
  401a08:	8f998048 	lw	t9,strlen
  401a0c:	0320f809 	jalr	t9
  401a10:	00e02021 	move	a0,a3
  401a14:	8fa30b18 	lw	v1,2840(sp)
  401a18:	8fbc0020 	lw	gp,32(sp)
  401a1c:	00621021 	addu	v0,v1,v0
  401a20:	80430002 	lb	v1,2(v0)
  401a24:	24440004 	addiu	a0,v0,4
  401a28:	afa40b08 	sw	a0,2824(sp)
  401a2c:	afa30afc 	sw	v1,2812(sp)
  401a30:	8fa50afc 	lw	a1,2812(sp)
  401a34:	80420004 	lb	v0,4(v0)
  401a38:	8e633684 	lw	v1,13956(s3)
  401a3c:	30a500ff 	andi	a1,a1,0xff
  401a40:	afa20af0 	sw	v0,2800(sp)
  401a44:	1060001a 	beqz	v1,401ab0 <_ftext@@Base+0xe60>
  401a48:	afa50b00 	sw	a1,2816(sp)
  401a4c:	8f838060 	lw	v1,-32672(gp)
  401a50:	3c050040 	lui	a1,0x40
[31m  401a54:	8f9980b4 	lw	t9,fprintf[0m
  401a58:	24a52f70 	addiu	a1,a1,12144
  401a5c:	8c640000 	lw	a0,0(v1)
  401a60:	27a600f5 	addiu	a2,sp,245
  401a64:	0320f809 	jalr	t9
  401a68:	afa30b18 	sw	v1,2840(sp)
  401a6c:	3c050040 	lui	a1,0x40
  401a70:	8fbc0020 	lw	gp,32(sp)
  401a74:	8fa30b18 	lw	v1,2840(sp)
[31m  401a78:	8f9980b4 	lw	t9,fprintf[0m
  401a7c:	8c640000 	lw	a0,0(v1)
  401a80:	8fa60b00 	lw	a2,2816(sp)
  401a84:	0320f809 	jalr	t9
  401a88:	24a52f80 	addiu	a1,a1,12160
  401a8c:	3c050040 	lui	a1,0x40
  401a90:	8fbc0020 	lw	gp,32(sp)
  401a94:	24a52f94 	addiu	a1,a1,12180
  401a98:	8fa30b18 	lw	v1,2840(sp)
  401a9c:	8fa20af0 	lw	v0,2800(sp)
[31m  401aa0:	8f9980b4 	lw	t9,fprintf[0m
  401aa4:	8c640000 	lw	a0,0(v1)
  401aa8:	0320f809 	jalr	t9
  401aac:	304600ff 	andi	a2,v0,0xff
  401ab0:	27a300f5 	addiu	v1,sp,245
  401ab4:	00602021 	move	a0,v1
  401ab8:	0c10037c 	jal	400df0 <_ftext@@Base+0x1a0>
  401abc:	afa30b04 	sw	v1,2820(sp)
  401ac0:	8fbc0020 	lw	gp,32(sp)
  401ac4:	8f848044 	lw	a0,-32700(gp)
  401ac8:	0c10037c 	jal	400df0 <_ftext@@Base+0x1a0>
  401acc:	00000000 	nop
  401ad0:	8e623684 	lw	v0,13956(s3)
  401ad4:	8fbc0020 	lw	gp,32(sp)
  401ad8:	1040001b 	beqz	v0,401b48 <_ftext@@Base+0xef8>
  401adc:	27a300f5 	addiu	v1,sp,245
  401ae0:	8f838060 	lw	v1,-32672(gp)
  401ae4:	3c050040 	lui	a1,0x40
[31m  401ae8:	8f9980b4 	lw	t9,fprintf[0m
  401aec:	24a52fa8 	addiu	a1,a1,12200
  401af0:	8c640000 	lw	a0,0(v1)
  401af4:	8f868044 	lw	a2,-32700(gp)
  401af8:	0320f809 	jalr	t9
  401afc:	afa30b18 	sw	v1,2840(sp)
  401b00:	3c050040 	lui	a1,0x40
  401b04:	8fbc0020 	lw	gp,32(sp)
  401b08:	8fa30b18 	lw	v1,2840(sp)
[31m  401b0c:	8f9980b4 	lw	t9,fprintf[0m
  401b10:	8c640000 	lw	a0,0(v1)
  401b14:	8f8680ec 	lw	a2,-32532(gp)
  401b18:	0320f809 	jalr	t9
  401b1c:	24a52fb8 	addiu	a1,a1,12216
  401b20:	3c050040 	lui	a1,0x40
  401b24:	8fbc0020 	lw	gp,32(sp)
  401b28:	8fa30b18 	lw	v1,2840(sp)
[31m  401b2c:	8f9980b4 	lw	t9,fprintf[0m
  401b30:	8fa60b04 	lw	a2,2820(sp)
  401b34:	8c640000 	lw	a0,0(v1)
--
  401b3c:	24a52fcc 	addiu	a1,a1,12236
  401b40:	8fbc0020 	lw	gp,32(sp)
  401b44:	27a300f5 	addiu	v1,sp,245
  401b48:	8f99806c 	lw	t9,-32660(gp)
  401b4c:	00602821 	move	a1,v1
  401b50:	8f848044 	lw	a0,-32700(gp)
  401b54:	0320f809 	jalr	t9
  401b58:	afa30b18 	sw	v1,2840(sp)
  401b5c:	8fbc0020 	lw	gp,32(sp)
  401b60:	8fa30b18 	lw	v1,2840(sp)
  401b64:	14400014 	bnez	v0,401bb8 <_ftext@@Base+0xf68>
  401b68:	00000000 	nop
  401b6c:	92060006 	lbu	a2,6(s0)
  401b70:	92030007 	lbu	v1,7(s0)
  401b74:	00063200 	sll	a2,a2,0x8
  401b78:	8e623684 	lw	v0,13956(s3)
  401b7c:	00663025 	or	a2,v1,a2
  401b80:	24c60001 	addiu	a2,a2,1
  401b84:	30c6ffff 	andi	a2,a2,0xffff
  401b88:	00061a02 	srl	v1,a2,0x8
  401b8c:	a2060007 	sb	a2,7(s0)
  401b90:	1040002e 	beqz	v0,401c4c <_ftext@@Base+0xffc>
  401b94:	a2030006 	sb	v1,6(s0)
  401b98:	8f828060 	lw	v0,-32672(gp)
  401b9c:	3c050040 	lui	a1,0x40
[31m  401ba0:	8f9980b4 	lw	t9,fprintf[0m
  401ba4:	8c440000 	lw	a0,0(v0)
  401ba8:	0320f809 	jalr	t9
--
  401d14:	8f828060 	lw	v0,-32672(gp)
  401d18:	8f998040 	lw	t9,-32704(gp)
  401d1c:	2484303c 	addiu	a0,a0,12348
  401d20:	8c450000 	lw	a1,0(v0)
  401d24:	0320f809 	jalr	t9
  401d28:	afa30b18 	sw	v1,2840(sp)
  401d2c:	8fbc0020 	lw	gp,32(sp)
  401d30:	8fa30b18 	lw	v1,2840(sp)
  401d34:	8f9980f0 	lw	t9,-32528(gp)
  401d38:	24020004 	li	v0,4
  401d3c:	02c02821 	move	a1,s6
  401d40:	24640002 	addiu	a0,v1,2
  401d44:	24060004 	li	a2,4
  401d48:	a6a20009 	sh	v0,9(s5)
  401d4c:	0320f809 	jalr	t9
  401d50:	24750006 	addiu	s5,v1,6
  401d54:	3c050040 	lui	a1,0x40
  401d58:	8fbc0020 	lw	gp,32(sp)
  401d5c:	24a53048 	addiu	a1,a1,12360
  401d60:	92c30002 	lbu	v1,2(s6)
  401d64:	8f828060 	lw	v0,-32672(gp)
  401d68:	92c60000 	lbu	a2,0(s6)
  401d6c:	8c440000 	lw	a0,0(v0)
  401d70:	92c20003 	lbu	v0,3(s6)
  401d74:	92c70001 	lbu	a3,1(s6)
[31m  401d78:	8f9980b4 	lw	t9,fprintf[0m
  401d7c:	afa30010 	sw	v1,16(sp)
  401d80:	0320f809 	jalr	t9
--
  401df8:	afa20af8 	sw	v0,2808(sp)
  401dfc:	92020004 	lbu	v0,4(s0)
  401e00:	92040005 	lbu	a0,5(s0)
  401e04:	00021200 	sll	v0,v0,0x8
  401e08:	00821025 	or	v0,a0,v0
  401e0c:	8fa40af8 	lw	a0,2808(sp)
  401e10:	0082102a 	slt	v0,a0,v0
  401e14:	1440fef3 	bnez	v0,4019e4 <_ftext@@Base+0xd94>
  401e18:	27a700f4 	addiu	a3,sp,244
  401e1c:	92020006 	lbu	v0,6(s0)
  401e20:	92030007 	lbu	v1,7(s0)
  401e24:	00021200 	sll	v0,v0,0x8
  401e28:	00621025 	or	v0,v1,v0
  401e2c:	00021a02 	srl	v1,v0,0x8
  401e30:	a2020007 	sb	v0,7(s0)
  401e34:	1040001e 	beqz	v0,401eb0 <_ftext@@Base+0x1260>
  401e38:	a2030006 	sb	v1,6(s0)
  401e3c:	3c020041 	lui	v0,0x41
  401e40:	27a30174 	addiu	v1,sp,372
  401e44:	8c423684 	lw	v0,13956(v0)
  401e48:	10400009 	beqz	v0,401e70 <_ftext@@Base+0x1220>
  401e4c:	02a3a823 	subu	s5,s5,v1
  401e50:	8f828060 	lw	v0,-32672(gp)
  401e54:	3c050040 	lui	a1,0x40
  401e58:	02a03021 	move	a2,s5
[31m  401e5c:	8f9980b4 	lw	t9,fprintf[0m
  401e60:	8c440000 	lw	a0,0(v0)
  401e64:	0320f809 	jalr	t9
--
  401f7c:	269430c0 	addiu	s4,s4,12480
  401f80:	3c130041 	lui	s3,0x41
  401f84:	24120001 	li	s2,1
  401f88:	10000006 	b	401fa4 <main@@Base+0xd0>
  401f8c:	ac400000 	sw	zero,0(v0)
  401f90:	14550024 	bne	v0,s5,402024 <main@@Base+0x150>
  401f94:	3c020041 	lui	v0,0x41
  401f98:	ae723684 	sw	s2,13956(s3)
  401f9c:	2631ffff 	addiu	s1,s1,-1
  401fa0:	26100004 	addiu	s0,s0,4
  401fa4:	8f998084 	lw	t9,-32636(gp)
  401fa8:	02202021 	move	a0,s1
  401fac:	02002821 	move	a1,s0
  401fb0:	0320f809 	jalr	t9
  401fb4:	02803021 	move	a2,s4
  401fb8:	8fbc0040 	lw	gp,64(sp)
  401fbc:	0441fff4 	bgez	v0,401f90 <main@@Base+0xbc>
  401fc0:	00000000 	nop
  401fc4:	3c020041 	lui	v0,0x41
  401fc8:	8c423684 	lw	v0,13956(v0)
  401fcc:	10400012 	beqz	v0,402018 <main@@Base+0x144>
  401fd0:	24020004 	li	v0,4
  401fd4:	8f828060 	lw	v0,-32672(gp)
  401fd8:	3c050040 	lui	a1,0x40
  401fdc:	02203021 	move	a2,s1
[31m  401fe0:	8f9980b4 	lw	t9,fprintf[0m
  401fe4:	8c440000 	lw	a0,0(v0)
  401fe8:	0320f809 	jalr	t9
  401fec:	24a530c4 	addiu	a1,a1,12484
  401ff0:	3c040040 	lui	a0,0x40
  401ff4:	8fbc0040 	lw	gp,64(sp)
  401ff8:	8e050004 	lw	a1,4(s0)
  401ffc:	8f998108 	lw	t9,-32504(gp)
  402000:	8e060008 	lw	a2,8(s0)
  402004:	8e07000c 	lw	a3,12(s0)
  402008:	0320f809 	jalr	t9
  40200c:	248430d0 	addiu	a0,a0,12496
  402010:	8fbc0040 	lw	gp,64(sp)
  402014:	24020004 	li	v0,4
  402018:	1222000c 	beq	s1,v0,40204c <main@@Base+0x178>
  40201c:	24060008 	li	a2,8
  402020:	3c020041 	lui	v0,0x41
  402024:	3c050040 	lui	a1,0x40
  402028:	8c463ab8 	lw	a2,15032(v0)
  40202c:	8f828060 	lw	v0,-32672(gp)
[31m  402030:	8f9980b4 	lw	t9,fprintf[0m
  402034:	8c440000 	lw	a0,0(v0)
  402038:	0320f809 	jalr	t9
--
  402198:	2624312c 	addiu	a0,s1,12588
  40219c:	26053138 	addiu	a1,s0,12600
  4021a0:	afa20054 	sw	v0,84(sp)
  4021a4:	27a70048 	addiu	a3,sp,72
  4021a8:	afa300ac 	sw	v1,172(sp)
  4021ac:	afa800b0 	sw	t0,176(sp)
  4021b0:	afa300a4 	sw	v1,164(sp)
  4021b4:	0320f809 	jalr	t9
  4021b8:	afa20058 	sw	v0,88(sp)
  4021bc:	8fbc0040 	lw	gp,64(sp)
  4021c0:	10400013 	beqz	v0,402210 <main@@Base+0x33c>
  4021c4:	00402021 	move	a0,v0
  4021c8:	8f828060 	lw	v0,-32672(gp)
  4021cc:	8f9980bc 	lw	t9,-32580(gp)
  4021d0:	8c500000 	lw	s0,0(v0)
  4021d4:	3c020041 	lui	v0,0x41
  4021d8:	8c463ab8 	lw	a2,15032(v0)
  4021dc:	0320f809 	jalr	t9
  4021e0:	afa600f8 	sw	a2,248(sp)
  4021e4:	3c050040 	lui	a1,0x40
  4021e8:	02002021 	move	a0,s0
  4021ec:	8fbc0040 	lw	gp,64(sp)
  4021f0:	24a52c48 	addiu	a1,a1,11336
  4021f4:	8fa600f8 	lw	a2,248(sp)
  4021f8:	2407018e 	li	a3,398
[31m  4021fc:	8f9980b4 	lw	t9,fprintf[0m
  402200:	0320f809 	jalr	t9
  402204:	afa20010 	sw	v0,16(sp)
--
  402230:	00009021 	move	s2,zero
  402234:	8c623684 	lw	v0,13956(v1)
  402238:	10400058 	beqz	v0,40239c <main@@Base+0x4c8>
  40223c:	241e000a 	li	s8,10
  402240:	24030001 	li	v1,1
  402244:	8e060000 	lw	a2,0(s0)
  402248:	3c050040 	lui	a1,0x40
  40224c:	8e070004 	lw	a3,4(s0)
  402250:	24a53140 	addiu	a1,a1,12608
  402254:	afb30010 	sw	s3,16(sp)
  402258:	afbe0014 	sw	s8,20(sp)
  40225c:	8e020008 	lw	v0,8(s0)
  402260:	afa30020 	sw	v1,32(sp)
  402264:	24030006 	li	v1,6
  402268:	afa20018 	sw	v0,24(sp)
  40226c:	afb3001c 	sw	s3,28(sp)
  402270:	8e02000c 	lw	v0,12(s0)
  402274:	afa30028 	sw	v1,40(sp)
  402278:	afa20024 	sw	v0,36(sp)
  40227c:	24020011 	li	v0,17
  402280:	afa2002c 	sw	v0,44(sp)
  402284:	8e020010 	lw	v0,16(s0)
  402288:	8e840000 	lw	a0,0(s4)
  40228c:	afa20030 	sw	v0,48(sp)
  402290:	24020010 	li	v0,16
[31m  402294:	8f9980b4 	lw	t9,fprintf[0m
  402298:	afa20034 	sw	v0,52(sp)
  40229c:	2402001c 	li	v0,28
  4022a0:	0320f809 	jalr	t9
  4022a4:	afa20038 	sw	v0,56(sp)
  4022a8:	24020020 	li	v0,32
  4022ac:	02a03021 	move	a2,s5
  4022b0:	8fbc0040 	lw	gp,64(sp)
  4022b4:	24070401 	li	a3,1025
  4022b8:	8e040014 	lw	a0,20(s0)
  4022bc:	8e050010 	lw	a1,16(s0)
  4022c0:	8f9980c8 	lw	t9,-32568(gp)
  4022c4:	afa20014 	sw	v0,20(sp)
  4022c8:	24020003 	li	v0,3
  4022cc:	afa20018 	sw	v0,24(sp)
  4022d0:	0320f809 	jalr	t9
  4022d4:	afb60010 	sw	s6,16(sp)
  4022d8:	8e030004 	lw	v1,4(s0)
  4022dc:	8fbc0040 	lw	gp,64(sp)
  4022e0:	10730006 	beq	v1,s3,4022fc <main@@Base+0x428>
  4022e4:	3c050040 	lui	a1,0x40
[31m  4022e8:	8f9980b4 	lw	t9,fprintf[0m
  4022ec:	147e001f 	bne	v1,s8,40236c <main@@Base+0x498>
  4022f0:	240701f0 	li	a3,496
  4022f4:	1000000d 	b	40232c <main@@Base+0x458>
  4022f8:	3c050040 	lui	a1,0x40
  4022fc:	8e020014 	lw	v0,20(s0)
  402300:	8e840000 	lw	a0,0(s4)
  402304:	24a5327c 	addiu	a1,a1,12924
  402308:	94460000 	lhu	a2,0(v0)
  40230c:	24070002 	li	a3,2
[31m  402310:	8f9980b4 	lw	t9,fprintf[0m
  402314:	afbe0010 	sw	s8,16(sp)
  402318:	afb50014 	sw	s5,20(sp)
--
  4023a4:	8e050008 	lw	a1,8(s0)
  4023a8:	8e06000c 	lw	a2,12(s0)
  4023ac:	0320f809 	jalr	t9
  4023b0:	2413ffff 	li	s3,-1
  4023b4:	8fbc0040 	lw	gp,64(sp)
  4023b8:	14530016 	bne	v0,s3,402414 <main@@Base+0x540>
  4023bc:	ae220000 	sw	v0,0(s1)
  4023c0:	3c020041 	lui	v0,0x41
  4023c4:	8c463ab8 	lw	a2,15032(v0)
  4023c8:	8f828060 	lw	v0,-32672(gp)
  4023cc:	8f998050 	lw	t9,-32688(gp)
  4023d0:	8c500000 	lw	s0,0(v0)
  4023d4:	0320f809 	jalr	t9
  4023d8:	afa600f8 	sw	a2,248(sp)
  4023dc:	8fbc0040 	lw	gp,64(sp)
  4023e0:	8c440000 	lw	a0,0(v0)
  4023e4:	8f998100 	lw	t9,-32512(gp)
  4023e8:	0320f809 	jalr	t9
  4023ec:	00000000 	nop
  4023f0:	3c050040 	lui	a1,0x40
  4023f4:	02002021 	move	a0,s0
  4023f8:	8fbc0040 	lw	gp,64(sp)
  4023fc:	24a52c64 	addiu	a1,a1,11364
  402400:	8fa600f8 	lw	a2,248(sp)
  402404:	240701fd 	li	a3,509
[31m  402408:	8f9980b4 	lw	t9,fprintf[0m
  40240c:	10000043 	b	40251c <main@@Base+0x648>
  402410:	afa20010 	sw	v0,16(sp)
--
  402434:	2406001a 	li	a2,26
  402438:	8e240000 	lw	a0,0(s1)
  40243c:	27a70050 	addiu	a3,sp,80
  402440:	0320f809 	jalr	t9
  402444:	afa20010 	sw	v0,16(sp)
  402448:	8fbc0040 	lw	gp,64(sp)
  40244c:	14530015 	bne	v0,s3,4024a4 <main@@Base+0x5d0>
  402450:	3c020041 	lui	v0,0x41
  402454:	8c463ab8 	lw	a2,15032(v0)
  402458:	8f828060 	lw	v0,-32672(gp)
  40245c:	8f998050 	lw	t9,-32688(gp)
  402460:	8c500000 	lw	s0,0(v0)
  402464:	0320f809 	jalr	t9
  402468:	afa600f8 	sw	a2,248(sp)
  40246c:	8fbc0040 	lw	gp,64(sp)
  402470:	8c440000 	lw	a0,0(v0)
  402474:	8f998100 	lw	t9,-32512(gp)
  402478:	0320f809 	jalr	t9
  40247c:	00000000 	nop
  402480:	3c050040 	lui	a1,0x40
  402484:	02002021 	move	a0,s0
  402488:	8fbc0040 	lw	gp,64(sp)
  40248c:	24a52c64 	addiu	a1,a1,11364
  402490:	8fa600f8 	lw	a2,248(sp)
  402494:	2407020e 	li	a3,526
[31m  402498:	8f9980b4 	lw	t9,fprintf[0m
  40249c:	1000001f 	b	40251c <main@@Base+0x648>
  4024a0:	afa20010 	sw	v0,16(sp)
--
  4024b0:	8e060010 	lw	a2,16(s0)
  4024b4:	0320f809 	jalr	t9
  4024b8:	00000000 	nop
  4024bc:	2403ffff 	li	v1,-1
  4024c0:	8fbc0040 	lw	gp,64(sp)
  4024c4:	1443001c 	bne	v0,v1,402538 <main@@Base+0x664>
  4024c8:	24020002 	li	v0,2
  4024cc:	3c020041 	lui	v0,0x41
  4024d0:	8c463ab8 	lw	a2,15032(v0)
  4024d4:	8f828060 	lw	v0,-32672(gp)
  4024d8:	8f998050 	lw	t9,-32688(gp)
  4024dc:	8c500000 	lw	s0,0(v0)
  4024e0:	0320f809 	jalr	t9
  4024e4:	afa600f8 	sw	a2,248(sp)
  4024e8:	8fbc0040 	lw	gp,64(sp)
  4024ec:	8c440000 	lw	a0,0(v0)
  4024f0:	8f998100 	lw	t9,-32512(gp)
  4024f4:	0320f809 	jalr	t9
  4024f8:	00000000 	nop
  4024fc:	3c050040 	lui	a1,0x40
  402500:	02002021 	move	a0,s0
  402504:	8fbc0040 	lw	gp,64(sp)
  402508:	24a52c64 	addiu	a1,a1,11364
  40250c:	8fa600f8 	lw	a2,248(sp)
  402510:	24070230 	li	a3,560
[31m  402514:	8f9980b4 	lw	t9,fprintf[0m
  402518:	afa20010 	sw	v0,16(sp)
  40251c:	0320f809 	jalr	t9
--
  4026b0:	00000000 	nop
  4026b4:	8f9980cc 	lw	t9,-32564(gp)
  4026b8:	0320f809 	jalr	t9
  4026bc:	00000000 	nop
  4026c0:	8fbc0040 	lw	gp,64(sp)
  4026c4:	10000044 	b	4027d8 <main@@Base+0x904>
  4026c8:	00000000 	nop
  4026cc:	8e10001c 	lw	s0,28(s0)
  4026d0:	26520001 	addiu	s2,s2,1
  4026d4:	26310004 	addiu	s1,s1,4
  4026d8:	12000005 	beqz	s0,4026f0 <main@@Base+0x81c>
  4026dc:	3c020041 	lui	v0,0x41
  4026e0:	24130002 	li	s3,2
  4026e4:	1653fed3 	bne	s2,s3,402234 <main@@Base+0x360>
  4026e8:	3c030041 	lui	v1,0x41
  4026ec:	3c020041 	lui	v0,0x41
  4026f0:	8c423684 	lw	v0,13956(v0)
  4026f4:	1040000c 	beqz	v0,402728 <main@@Base+0x854>
  4026f8:	00000000 	nop
  4026fc:	1200000a 	beqz	s0,402728 <main@@Base+0x854>
  402700:	3c020041 	lui	v0,0x41
  402704:	3c050040 	lui	a1,0x40
  402708:	8c463ab8 	lw	a2,15032(v0)
  40270c:	24a53488 	addiu	a1,a1,13448
  402710:	8f828060 	lw	v0,-32672(gp)
[31m  402714:	8f9980b4 	lw	t9,fprintf[0m
  402718:	8c440000 	lw	a0,0(v0)
  40271c:	0320f809 	jalr	t9
--
  402730:	00000000 	nop
  402734:	8f9980cc 	lw	t9,-32564(gp)
  402738:	0320f809 	jalr	t9
  40273c:	00000000 	nop
  402740:	8fbc0040 	lw	gp,64(sp)
  402744:	8fa4004c 	lw	a0,76(sp)
  402748:	10800005 	beqz	a0,402760 <main@@Base+0x88c>
  40274c:	00000000 	nop
  402750:	8f9980cc 	lw	t9,-32564(gp)
  402754:	0320f809 	jalr	t9
  402758:	00000000 	nop
  40275c:	8fbc0040 	lw	gp,64(sp)
  402760:	12400006 	beqz	s2,40277c <main@@Base+0x8a8>
  402764:	3c020041 	lui	v0,0x41
  402768:	02402821 	move	a1,s2
  40276c:	0c1004d9 	jal	401364 <_ftext@@Base+0x714>
  402770:	27a40054 	addiu	a0,sp,84
  402774:	8fbc0040 	lw	gp,64(sp)
  402778:	3c020041 	lui	v0,0x41
  40277c:	8c423684 	lw	v0,13956(v0)
  402780:	10400008 	beqz	v0,4027a4 <main@@Base+0x8d0>
  402784:	3c020041 	lui	v0,0x41
  402788:	3c050040 	lui	a1,0x40
  40278c:	8c463ab8 	lw	a2,15032(v0)
  402790:	8f828060 	lw	v0,-32672(gp)
[31m  402794:	8f9980b4 	lw	t9,fprintf[0m
  402798:	8c440000 	lw	a0,0(v0)
  40279c:	0320f809 	jalr	t9

[0m
[[0;33m*[0m] Function [0;33mfprintf[0m used [0;33m39[0m times [0;33mllmnr[0m

