[[0;33m*[0m] Binary protection state of [0;33mhttpd[0m
[REF] s12

  	RELRO          CANARY            NX           PIE       RPATH        RUNPATH      SYMBOLS      
  	[31mNo RELRO[0m       [31mNo Canary found[0m   [31mNX disabled[0m  [31mNo PIE[0m       [32mNo RPATH[0m     [32mNo RUNPATH[0m   [32mNo Symbols[0m

[0m
[[0;33m*[0m] Function [0;33mstrcpy[0m tear down of [0;33mhttpd[0m

  402260:	8fb10028 	lw	s1,40(sp)
  402264:	8fb00024 	lw	s0,36(sp)
  402268:	03e00008 	jr	ra
  40226c:	27bd0030 	addiu	sp,sp,48
  402270:	27bdffc8 	addiu	sp,sp,-56
  402274:	afbf0034 	sw	ra,52(sp)
  402278:	afb10030 	sw	s1,48(sp)
  40227c:	afb0002c 	sw	s0,44(sp)
  402280:	3c1c0043 	lui	gp,0x43
  402284:	279ca500 	addiu	gp,gp,-23296
  402288:	afbc0010 	sw	gp,16(sp)
  40228c:	00808021 	move	s0,a0
  402290:	27b10018 	addiu	s1,sp,24
  402294:	02202021 	move	a0,s1
  402298:	8f998110 	lw	t9,-32496(gp)
  40229c:	0320f809 	jalr	t9
  4022a0:	00002821 	move	a1,zero
  4022a4:	8fbc0010 	lw	gp,16(sp)
  4022a8:	02202021 	move	a0,s1
  4022ac:	8f998180 	lw	t9,-32384(gp)
  4022b0:	0320f809 	jalr	t9
  4022b4:	2405000c 	li	a1,12
  4022b8:	8fbc0010 	lw	gp,16(sp)
  4022bc:	00408821 	move	s1,v0
  4022c0:	02002021 	move	a0,s0
[31m  4022c4:	8f998210 	lw	t9,strcpy[0m
  4022c8:	0320f809 	jalr	t9
  4022cc:	00402821 	move	a1,v0
--
  402a74:	ae620100 	sw	v0,256(s3)
  402a78:	10000005 	b	402a90 <_ftext@@Base+0x1420>
  402a7c:	ae600100 	sw	zero,256(s3)
  402a80:	1616ffed 	bne	s0,s6,402a38 <_ftext@@Base+0x13c8>
  402a84:	26310104 	addiu	s1,s1,260
  402a88:	10000004 	b	402a9c <_ftext@@Base+0x142c>
  402a8c:	00000000 	nop
  402a90:	2402ffff 	li	v0,-1
  402a94:	1462004d 	bne	v1,v0,402bcc <_ftext@@Base+0x155c>
  402a98:	02001021 	move	v0,s0
  402a9c:	92420000 	lbu	v0,0(s2)
  402aa0:	14400004 	bnez	v0,402ab4 <_ftext@@Base+0x1444>
  402aa4:	24040064 	li	a0,100
  402aa8:	00008021 	move	s0,zero
  402aac:	10000009 	b	402ad4 <_ftext@@Base+0x1464>
  402ab0:	00008821 	move	s1,zero
  402ab4:	24100104 	li	s0,260
  402ab8:	24110001 	li	s1,1
  402abc:	02501021 	addu	v0,s2,s0
  402ac0:	90430000 	lbu	v1,0(v0)
  402ac4:	14600014 	bnez	v1,402b18 <_ftext@@Base+0x14a8>
  402ac8:	26310001 	addiu	s1,s1,1
  402acc:	2631ffff 	addiu	s1,s1,-1
  402ad0:	00409021 	move	s2,v0
  402ad4:	02402021 	move	a0,s2
[31m  402ad8:	8f998210 	lw	t9,strcpy[0m
  402adc:	0320f809 	jalr	t9
  402ae0:	02802821 	move	a1,s4
--
  402b28:	2402ffff 	li	v0,-1
  402b2c:	16220027 	bne	s1,v0,402bcc <_ftext@@Base+0x155c>
  402b30:	02201021 	move	v0,s1
  402b34:	8f998158 	lw	t9,-32424(gp)
  402b38:	0320f809 	jalr	t9
  402b3c:	3c1051eb 	lui	s0,0x51eb
  402b40:	8fbc0010 	lw	gp,16(sp)
  402b44:	3610851f 	ori	s0,s0,0x851f
  402b48:	00500018 	mult	v0,s0
  402b4c:	00008010 	mfhi	s0
  402b50:	00108143 	sra	s0,s0,0x5
  402b54:	00021fc3 	sra	v1,v0,0x1f
  402b58:	02038023 	subu	s0,s0,v1
  402b5c:	00101880 	sll	v1,s0,0x2
  402b60:	00108100 	sll	s0,s0,0x4
  402b64:	00708021 	addu	s0,v1,s0
  402b68:	00101880 	sll	v1,s0,0x2
  402b6c:	02038021 	addu	s0,s0,v1
  402b70:	00508023 	subu	s0,v0,s0
  402b74:	00108880 	sll	s1,s0,0x2
  402b78:	00101200 	sll	v0,s0,0x8
  402b7c:	02228821 	addu	s1,s1,v0
  402b80:	3c020042 	lui	v0,0x42
  402b84:	8c44274c 	lw	a0,10060(v0)
  402b88:	00912021 	addu	a0,a0,s1
[31m  402b8c:	8f998210 	lw	t9,strcpy[0m
  402b90:	0320f809 	jalr	t9
  402b94:	02802821 	move	a1,s4
--
  403958:	03c03821 	move	a3,s8
  40395c:	8fbc0018 	lw	gp,24(sp)
  403960:	10000045 	b	403a78 <main@@Base+0x560>
  403964:	00000000 	nop
  403968:	8f9980a0 	lw	t9,-32608(gp)
  40396c:	0320f809 	jalr	t9
  403970:	02202021 	move	a0,s1
  403974:	8fbc0018 	lw	gp,24(sp)
  403978:	0441000a 	bgez	v0,4039a4 <main@@Base+0x48c>
  40397c:	00409021 	move	s2,v0
  403980:	2402030b 	li	v0,779
  403984:	afa20010 	sw	v0,16(sp)
  403988:	24040003 	li	a0,3
  40398c:	02c02821 	move	a1,s6
  403990:	02e03021 	move	a2,s7
  403994:	8f99817c 	lw	t9,-32388(gp)
  403998:	0320f809 	jalr	t9
  40399c:	03c03821 	move	a3,s8
  4039a0:	8fbc0018 	lw	gp,24(sp)
  4039a4:	02402021 	move	a0,s2
  4039a8:	8f998080 	lw	t9,-32640(gp)
  4039ac:	0320f809 	jalr	t9
  4039b0:	24050001 	li	a1,1
  4039b4:	8fbc0018 	lw	gp,24(sp)
  4039b8:	8fa40028 	lw	a0,40(sp)
[31m  4039bc:	8f998210 	lw	t9,strcpy[0m
  4039c0:	0320f809 	jalr	t9
  4039c4:	00402821 	move	a1,v0
--
  40455c:	a3a20020 	sb	v0,32(sp)
  404560:	27a40021 	addiu	a0,sp,33
  404564:	00002821 	move	a1,zero
  404568:	8f9980fc 	lw	t9,-32516(gp)
  40456c:	0320f809 	jalr	t9
  404570:	24060023 	li	a2,35
  404574:	8fbc0018 	lw	gp,24(sp)
  404578:	92020af0 	lbu	v0,2800(s0)
  40457c:	a3a20044 	sb	v0,68(sp)
  404580:	27a40045 	addiu	a0,sp,69
  404584:	00002821 	move	a1,zero
  404588:	8f9980fc 	lw	t9,-32516(gp)
  40458c:	0320f809 	jalr	t9
  404590:	240600ff 	li	a2,255
  404594:	8fbc0018 	lw	gp,24(sp)
  404598:	8f998084 	lw	t9,-32636(gp)
  40459c:	0320f809 	jalr	t9
  4045a0:	02402021 	move	a0,s2
  4045a4:	8fbc0018 	lw	gp,24(sp)
  4045a8:	2442ffff 	addiu	v0,v0,-1
  4045ac:	2c4200c8 	sltiu	v0,v0,200
  4045b0:	10400062 	beqz	v0,40473c <AspInitial@@Base+0xbf4>
  4045b4:	00001021 	move	v0,zero
  4045b8:	27b00044 	addiu	s0,sp,68
  4045bc:	02002021 	move	a0,s0
[31m  4045c0:	8f998210 	lw	t9,strcpy[0m
  4045c4:	0320f809 	jalr	t9
  4045c8:	02202821 	move	a1,s1
--
  40460c:	24020024 	li	v0,36
  404610:	afa20014 	sw	v0,20(sp)
  404614:	3c040041 	lui	a0,0x41
  404618:	2484f644 	addiu	a0,a0,-2492
  40461c:	27a50044 	addiu	a1,sp,68
  404620:	02403021 	move	a2,s2
  404624:	8f9981ac 	lw	t9,-32340(gp)
  404628:	0320f809 	jalr	t9
  40462c:	24070001 	li	a3,1
  404630:	8fbc0018 	lw	gp,24(sp)
  404634:	8f998074 	lw	t9,strlen
  404638:	0320f809 	jalr	t9
  40463c:	02002021 	move	a0,s0
  404640:	8fbc0018 	lw	gp,24(sp)
  404644:	24030020 	li	v1,32
  404648:	1443003c 	bne	v0,v1,40473c <AspInitial@@Base+0xbf4>
  40464c:	00001021 	move	v0,zero
  404650:	27b00044 	addiu	s0,sp,68
  404654:	02002021 	move	a0,s0
  404658:	00002821 	move	a1,zero
  40465c:	8f9980fc 	lw	t9,-32516(gp)
  404660:	0320f809 	jalr	t9
  404664:	24060100 	li	a2,256
  404668:	8fbc0018 	lw	gp,24(sp)
  40466c:	02002021 	move	a0,s0
[31m  404670:	8f998210 	lw	t9,strcpy[0m
  404674:	0320f809 	jalr	t9
  404678:	27a50020 	addiu	a1,sp,32
--
  40cb74:	14400055 	bnez	v0,40cccc <AspInitial@@Base+0x9184>
  40cb78:	3c040041 	lui	a0,0x41
  40cb7c:	24840930 	addiu	a0,a0,2352
  40cb80:	02002821 	move	a1,s0
  40cb84:	8f99804c 	lw	t9,-32692(gp)
  40cb88:	0320f809 	jalr	t9
  40cb8c:	27a6001c 	addiu	a2,sp,28
  40cb90:	8fbc0010 	lw	gp,16(sp)
  40cb94:	8fb1001c 	lw	s1,28(sp)
  40cb98:	12200045 	beqz	s1,40ccb0 <AspInitial@@Base+0x9168>
  40cb9c:	0000b021 	move	s6,zero
  40cba0:	27b40020 	addiu	s4,sp,32
  40cba4:	3c150041 	lui	s5,0x41
  40cba8:	26b50950 	addiu	s5,s5,2384
  40cbac:	3c1e0041 	lui	s8,0x41
  40cbb0:	27de0954 	addiu	s8,s8,2388
  40cbb4:	3c020041 	lui	v0,0x41
  40cbb8:	24420968 	addiu	v0,v0,2408
  40cbbc:	afa20124 	sw	v0,292(sp)
  40cbc0:	3c020041 	lui	v0,0x41
  40cbc4:	2442eb78 	addiu	v0,v0,-5256
  40cbc8:	afa20120 	sw	v0,288(sp)
  40cbcc:	3c170041 	lui	s7,0x41
  40cbd0:	26f707e4 	addiu	s7,s7,2020
  40cbd4:	02802021 	move	a0,s4
[31m  40cbd8:	8f998210 	lw	t9,strcpy[0m
  40cbdc:	0320f809 	jalr	t9
  40cbe0:	02202821 	move	a1,s1
--
  40ce44:	24840930 	addiu	a0,a0,2352
  40ce48:	02002821 	move	a1,s0
  40ce4c:	8f99804c 	lw	t9,-32692(gp)
  40ce50:	0320f809 	jalr	t9
  40ce54:	27a6011c 	addiu	a2,sp,284
  40ce58:	8fbc0010 	lw	gp,16(sp)
  40ce5c:	8fb0011c 	lw	s0,284(sp)
  40ce60:	1200006e 	beqz	s0,40d01c <AspInitial@@Base+0x94d4>
  40ce64:	0000a821 	move	s5,zero
  40ce68:	24130001 	li	s3,1
  40ce6c:	27b40018 	addiu	s4,sp,24
  40ce70:	3c160041 	lui	s6,0x41
  40ce74:	26d60950 	addiu	s6,s6,2384
  40ce78:	27a20120 	addiu	v0,sp,288
  40ce7c:	afa20138 	sw	v0,312(sp)
  40ce80:	3c120041 	lui	s2,0x41
  40ce84:	2652ebb0 	addiu	s2,s2,-5200
  40ce88:	3c170041 	lui	s7,0x41
  40ce8c:	26f7097c 	addiu	s7,s7,2428
  40ce90:	3c1e0041 	lui	s8,0x41
  40ce94:	27de0988 	addiu	s8,s8,2440
  40ce98:	3c020041 	lui	v0,0x41
  40ce9c:	24420994 	addiu	v0,v0,2452
  40cea0:	afa2013c 	sw	v0,316(sp)
  40cea4:	02802021 	move	a0,s4
[31m  40cea8:	8f998210 	lw	t9,strcpy[0m
  40ceac:	0320f809 	jalr	t9
  40ceb0:	02002821 	move	a1,s0

[0m
[[0;33m*[0m] Function [0;33mstrcpy[0m used [0;33m8[0m times [0;33mhttpd[0m

