[[0;33m*[0m] Binary protection state of [0;33mmdb[0m
[REF] s12

  	RELRO          CANARY            NX           PIE       RPATH        RUNPATH      SYMBOLS      
  	[31mNo RELRO[0m       [31mNo Canary found[0m   [31mNX disabled[0m  [31mNo PIE[0m       [32mNo RPATH[0m     [32mNo RUNPATH[0m   [32mNo Symbols[0m

[0m
[[0;33m*[0m] Function [0;33mfprintf[0m tear down of [0;33mmdb[0m

  401694:	afbf0024 	sw	ra,36(sp)
  401698:	3c1c0042 	lui	gp,0x42
  40169c:	279c36a0 	addiu	gp,gp,13984
  4016a0:	afbc0010 	sw	gp,16(sp)
  4016a4:	afa00018 	sw	zero,24(sp)
  4016a8:	24040004 	li	a0,4
  4016ac:	8f99812c 	lw	t9,-32468(gp)
  4016b0:	0320f809 	jalr	t9
  4016b4:	27a50018 	addiu	a1,sp,24
  4016b8:	8fa20018 	lw	v0,24(sp)
  4016bc:	8fbf0024 	lw	ra,36(sp)
  4016c0:	03e00008 	jr	ra
  4016c4:	27bd0028 	addiu	sp,sp,40
  4016c8:	27bdffe0 	addiu	sp,sp,-32
  4016cc:	afbf001c 	sw	ra,28(sp)
  4016d0:	afb00018 	sw	s0,24(sp)
  4016d4:	3c1c0042 	lui	gp,0x42
  4016d8:	279c36a0 	addiu	gp,gp,13984
  4016dc:	afbc0010 	sw	gp,16(sp)
  4016e0:	00808021 	move	s0,a0
  4016e4:	8f828088 	lw	v0,-32632(gp)
  4016e8:	8c440000 	lw	a0,0(v0)
  4016ec:	10800068 	beqz	a0,401890 <_ftext@@Base+0x430>
  4016f0:	3c050041 	lui	a1,0x41
  4016f4:	24a5a000 	addiu	a1,a1,-24576
[31m  4016f8:	8f998128 	lw	t9,fprintf[0m
  4016fc:	0320f809 	jalr	t9
  401700:	02003021 	move	a2,s0
  401704:	8fbc0010 	lw	gp,16(sp)
  401708:	8f828088 	lw	v0,-32632(gp)
  40170c:	8c470000 	lw	a3,0(v0)
  401710:	10e0005f 	beqz	a3,401890 <_ftext@@Base+0x430>
  401714:	3c040041 	lui	a0,0x41
  401718:	2484a030 	addiu	a0,a0,-24528
  40171c:	24050001 	li	a1,1
  401720:	8f99807c 	lw	t9,-32644(gp)
  401724:	0320f809 	jalr	t9
  401728:	24060007 	li	a2,7
  40172c:	8fbc0010 	lw	gp,16(sp)
  401730:	8f828088 	lw	v0,-32632(gp)
  401734:	8c440000 	lw	a0,0(v0)
  401738:	10800055 	beqz	a0,401890 <_ftext@@Base+0x430>
  40173c:	3c050041 	lui	a1,0x41
  401740:	24a5a038 	addiu	a1,a1,-24520
[31m  401744:	8f998128 	lw	t9,fprintf[0m
  401748:	0320f809 	jalr	t9
  40174c:	02003021 	move	a2,s0
--
  401e10:	0320f809 	jalr	t9
  401e14:	27a400a8 	addiu	a0,sp,168
  401e18:	10000a64 	b	4047ac <_ftext@@Base+0x334c>
  401e1c:	00001021 	move	v0,zero
  401e20:	3c050041 	lui	a1,0x41
  401e24:	8f9980ec 	lw	t9,-32532(gp)
  401e28:	0320f809 	jalr	t9
  401e2c:	24a5a32c 	addiu	a1,a1,-23764
  401e30:	8fbc0028 	lw	gp,40(sp)
  401e34:	14400014 	bnez	v0,401e88 <_ftext@@Base+0xa28>
  401e38:	02002021 	move	a0,s0
  401e3c:	a3a00034 	sb	zero,52(sp)
  401e40:	3c040041 	lui	a0,0x41
  401e44:	2484a338 	addiu	a0,a0,-23752
  401e48:	3c050041 	lui	a1,0x41
  401e4c:	24a5a340 	addiu	a1,a1,-23744
  401e50:	8f998054 	lw	t9,-32684(gp)
  401e54:	0320f809 	jalr	t9
  401e58:	27a60034 	addiu	a2,sp,52
  401e5c:	8fbc0028 	lw	gp,40(sp)
  401e60:	8f8281c0 	lw	v0,-32320(gp)
  401e64:	8c440000 	lw	a0,0(v0)
  401e68:	10800a4f 	beqz	a0,4047a8 <_ftext@@Base+0x3348>
  401e6c:	3c050041 	lui	a1,0x41
  401e70:	93a60034 	lbu	a2,52(sp)
[31m  401e74:	8f998128 	lw	t9,fprintf[0m
  401e78:	0320f809 	jalr	t9
  401e7c:	24a5ac00 	addiu	a1,a1,-21504
--
  402944:	0320f809 	jalr	t9
  402948:	27a502d8 	addiu	a1,sp,728
  40294c:	8fbc0028 	lw	gp,40(sp)
  402950:	02802021 	move	a0,s4
  402954:	8f998190 	lw	t9,-32368(gp)
  402958:	0320f809 	jalr	t9
  40295c:	27a501d8 	addiu	a1,sp,472
  402960:	8fbc0028 	lw	gp,40(sp)
  402964:	02a02021 	move	a0,s5
  402968:	8f998190 	lw	t9,-32368(gp)
  40296c:	0320f809 	jalr	t9
  402970:	27a500d8 	addiu	a1,sp,216
  402974:	8fbc0028 	lw	gp,40(sp)
  402978:	8f8281c0 	lw	v0,-32320(gp)
  40297c:	8c440000 	lw	a0,0(v0)
  402980:	10800789 	beqz	a0,4047a8 <_ftext@@Base+0x3348>
  402984:	27a202d8 	addiu	v0,sp,728
  402988:	afa20010 	sw	v0,16(sp)
  40298c:	27a201d8 	addiu	v0,sp,472
  402990:	afa20014 	sw	v0,20(sp)
  402994:	27a200d8 	addiu	v0,sp,216
  402998:	afa20018 	sw	v0,24(sp)
  40299c:	3c050041 	lui	a1,0x41
  4029a0:	24a5a498 	addiu	a1,a1,-23400
  4029a4:	27a606d8 	addiu	a2,sp,1752
[31m  4029a8:	8f998128 	lw	t9,fprintf[0m
  4029ac:	0320f809 	jalr	t9
  4029b0:	27a712f0 	addiu	a3,sp,4848
  4029b4:	1000077d 	b	4047ac <_ftext@@Base+0x334c>
  4029b8:	00001021 	move	v0,zero
  4029bc:	3c050041 	lui	a1,0x41
  4029c0:	8f9980ec 	lw	t9,-32532(gp)
  4029c4:	0320f809 	jalr	t9
  4029c8:	24a5a4b4 	addiu	a1,a1,-23372
  4029cc:	8fbc0028 	lw	gp,40(sp)
  4029d0:	14400011 	bnez	v0,402a18 <_ftext@@Base+0x15b8>
  4029d4:	02002021 	move	a0,s0
  4029d8:	3c040041 	lui	a0,0x41
  4029dc:	2484a4c4 	addiu	a0,a0,-23356
  4029e0:	8f998130 	lw	t9,-32464(gp)
  4029e4:	0320f809 	jalr	t9
  4029e8:	00002821 	move	a1,zero
  4029ec:	8fbc0028 	lw	gp,40(sp)
  4029f0:	8f8381c0 	lw	v1,-32320(gp)
  4029f4:	8c640000 	lw	a0,0(v1)
  4029f8:	1080076b 	beqz	a0,4047a8 <_ftext@@Base+0x3348>
  4029fc:	3c050041 	lui	a1,0x41
  402a00:	24a5abb0 	addiu	a1,a1,-21584
[31m  402a04:	8f998128 	lw	t9,fprintf[0m
  402a08:	0320f809 	jalr	t9
  402a0c:	0002302a 	slt	a2,zero,v0
--
  402a14:	00001021 	move	v0,zero
  402a18:	3c050041 	lui	a1,0x41
  402a1c:	8f9980ec 	lw	t9,-32532(gp)
  402a20:	0320f809 	jalr	t9
  402a24:	24a5a4cc 	addiu	a1,a1,-23348
  402a28:	8fbc0028 	lw	gp,40(sp)
  402a2c:	14400017 	bnez	v0,402a8c <_ftext@@Base+0x162c>
  402a30:	02002021 	move	a0,s0
  402a34:	8f99815c 	lw	t9,-32420(gp)
  402a38:	0320f809 	jalr	t9
  402a3c:	00000000 	nop
  402a40:	8fbc0028 	lw	gp,40(sp)
  402a44:	18400007 	blez	v0,402a64 <_ftext@@Base+0x1604>
  402a48:	3c040041 	lui	a0,0x41
  402a4c:	8f998044 	lw	t9,-32700(gp)
  402a50:	0320f809 	jalr	t9
  402a54:	2484a4dc 	addiu	a0,a0,-23332
  402a58:	8fbc0028 	lw	gp,40(sp)
  402a5c:	1c400002 	bgtz	v0,402a68 <_ftext@@Base+0x1608>
  402a60:	24060001 	li	a2,1
  402a64:	00003021 	move	a2,zero
  402a68:	8f8281c0 	lw	v0,-32320(gp)
  402a6c:	8c440000 	lw	a0,0(v0)
  402a70:	1080074d 	beqz	a0,4047a8 <_ftext@@Base+0x3348>
  402a74:	3c050041 	lui	a1,0x41
[31m  402a78:	8f998128 	lw	t9,fprintf[0m
  402a7c:	0320f809 	jalr	t9
  402a80:	24a5abb0 	addiu	a1,a1,-21584
--
  402d54:	0320f809 	jalr	t9
  402d58:	27a502d8 	addiu	a1,sp,728
  402d5c:	8fbc0028 	lw	gp,40(sp)
  402d60:	02802021 	move	a0,s4
  402d64:	8f998190 	lw	t9,-32368(gp)
  402d68:	0320f809 	jalr	t9
  402d6c:	27a512f0 	addiu	a1,sp,4848
  402d70:	8fbc0028 	lw	gp,40(sp)
  402d74:	02002021 	move	a0,s0
  402d78:	8f998190 	lw	t9,-32368(gp)
  402d7c:	0320f809 	jalr	t9
  402d80:	27a506d8 	addiu	a1,sp,1752
  402d84:	8fbc0028 	lw	gp,40(sp)
  402d88:	8f8281c0 	lw	v0,-32320(gp)
  402d8c:	8c440000 	lw	a0,0(v0)
  402d90:	10800685 	beqz	a0,4047a8 <_ftext@@Base+0x3348>
  402d94:	27a202d8 	addiu	v0,sp,728
  402d98:	afa20010 	sw	v0,16(sp)
  402d9c:	27a212f0 	addiu	v0,sp,4848
  402da0:	afa20014 	sw	v0,20(sp)
  402da4:	27a206d8 	addiu	v0,sp,1752
  402da8:	afa20018 	sw	v0,24(sp)
  402dac:	3c050041 	lui	a1,0x41
  402db0:	24a5a498 	addiu	a1,a1,-23400
  402db4:	27a600d8 	addiu	a2,sp,216
[31m  402db8:	8f998128 	lw	t9,fprintf[0m
  402dbc:	0320f809 	jalr	t9
  402dc0:	27a701d8 	addiu	a3,sp,472
--
  402eb8:	2604a448 	addiu	a0,s0,-23480
  402ebc:	3c050041 	lui	a1,0x41
  402ec0:	24a5a518 	addiu	a1,a1,-23272
  402ec4:	8f998054 	lw	t9,-32684(gp)
  402ec8:	0320f809 	jalr	t9
  402ecc:	02403021 	move	a2,s2
  402ed0:	8fbc0028 	lw	gp,40(sp)
  402ed4:	02202021 	move	a0,s1
  402ed8:	8f998190 	lw	t9,-32368(gp)
  402edc:	0320f809 	jalr	t9
  402ee0:	27a502d8 	addiu	a1,sp,728
  402ee4:	8fbc0028 	lw	gp,40(sp)
  402ee8:	02402021 	move	a0,s2
  402eec:	8f998190 	lw	t9,-32368(gp)
  402ef0:	0320f809 	jalr	t9
  402ef4:	27a501d8 	addiu	a1,sp,472
  402ef8:	8fbc0028 	lw	gp,40(sp)
  402efc:	8f8281c0 	lw	v0,-32320(gp)
  402f00:	8c440000 	lw	a0,0(v0)
  402f04:	10800628 	beqz	a0,4047a8 <_ftext@@Base+0x3348>
  402f08:	27a201d8 	addiu	v0,sp,472
  402f0c:	93a60034 	lbu	a2,52(sp)
  402f10:	afa20010 	sw	v0,16(sp)
  402f14:	3c050041 	lui	a1,0x41
  402f18:	24a5a524 	addiu	a1,a1,-23260
[31m  402f1c:	8f998128 	lw	t9,fprintf[0m
  402f20:	0320f809 	jalr	t9
  402f24:	27a702d8 	addiu	a3,sp,728
  402f28:	10000620 	b	4047ac <_ftext@@Base+0x334c>
  402f2c:	00001021 	move	v0,zero
  402f30:	3c050041 	lui	a1,0x41
  402f34:	8f9980ec 	lw	t9,-32532(gp)
  402f38:	0320f809 	jalr	t9
  402f3c:	24a5a534 	addiu	a1,a1,-23244
  402f40:	8fbc0028 	lw	gp,40(sp)
  402f44:	1440000b 	bnez	v0,402f74 <_ftext@@Base+0x1b14>
  402f48:	02002021 	move	a0,s0
  402f4c:	8f8281c0 	lw	v0,-32320(gp)
  402f50:	8c440000 	lw	a0,0(v0)
  402f54:	10800614 	beqz	a0,4047a8 <_ftext@@Base+0x3348>
  402f58:	3c050041 	lui	a1,0x41
  402f5c:	24a5a544 	addiu	a1,a1,-23228
[31m  402f60:	8f998128 	lw	t9,fprintf[0m
  402f64:	0320f809 	jalr	t9
  402f68:	24060001 	li	a2,1
--
  40325c:	2405ffff 	li	a1,-1
  403260:	00a2200b 	0xa2200b
  403264:	00801021 	move	v0,a0
  403268:	24040002 	li	a0,2
  40326c:	14640003 	bne	v1,a0,40327c <_ftext@@Base+0x1e1c>
  403270:	24040003 	li	a0,3
  403274:	10000009 	b	40329c <_ftext@@Base+0x1e3c>
  403278:	24030003 	li	v1,3
  40327c:	14640003 	bne	v1,a0,40328c <_ftext@@Base+0x1e2c>
  403280:	24040004 	li	a0,4
  403284:	10000005 	b	40329c <_ftext@@Base+0x1e3c>
  403288:	24030002 	li	v1,2
  40328c:	38630004 	xori	v1,v1,0x4
  403290:	2405ffff 	li	a1,-1
  403294:	00a3200b 	0xa3200b
  403298:	00801821 	move	v1,a0
  40329c:	1440000d 	bnez	v0,4032d4 <_ftext@@Base+0x1e74>
  4032a0:	2445ffff 	addiu	a1,v0,-1
  4032a4:	8f8281c0 	lw	v0,-32320(gp)
  4032a8:	8c440000 	lw	a0,0(v0)
  4032ac:	1080053e 	beqz	a0,4047a8 <_ftext@@Base+0x3348>
  4032b0:	3c050041 	lui	a1,0x41
  4032b4:	afa00010 	sw	zero,16(sp)
  4032b8:	24a5a5dc 	addiu	a1,a1,-23076
  4032bc:	8fa60030 	lw	a2,48(sp)
[31m  4032c0:	8f998128 	lw	t9,fprintf[0m
  4032c4:	0320f809 	jalr	t9
  4032c8:	27a701d8 	addiu	a3,sp,472
  4032cc:	10000537 	b	4047ac <_ftext@@Base+0x334c>
  4032d0:	00001021 	move	v0,zero
  4032d4:	2ca50002 	sltiu	a1,a1,2
  4032d8:	10a00010 	beqz	a1,40331c <_ftext@@Base+0x1ebc>
  4032dc:	2444fffd 	addiu	a0,v0,-3
  4032e0:	8f8481c0 	lw	a0,-32320(gp)
  4032e4:	8c840000 	lw	a0,0(a0)
  4032e8:	1080052f 	beqz	a0,4047a8 <_ftext@@Base+0x3348>
  4032ec:	3c050041 	lui	a1,0x41
  4032f0:	afa20010 	sw	v0,16(sp)
  4032f4:	afa30014 	sw	v1,20(sp)
  4032f8:	27a206d8 	addiu	v0,sp,1752
  4032fc:	afa20018 	sw	v0,24(sp)
  403300:	24a5a5ec 	addiu	a1,a1,-23060
  403304:	8fa60030 	lw	a2,48(sp)
[31m  403308:	8f998128 	lw	t9,fprintf[0m
  40330c:	0320f809 	jalr	t9
  403310:	27a701d8 	addiu	a3,sp,472
  403314:	10000525 	b	4047ac <_ftext@@Base+0x334c>
  403318:	00001021 	move	v0,zero
  40331c:	2c840003 	sltiu	a0,a0,3
  403320:	10800521 	beqz	a0,4047a8 <_ftext@@Base+0x3348>
  403324:	00000000 	nop
  403328:	8f8481c0 	lw	a0,-32320(gp)
  40332c:	8c840000 	lw	a0,0(a0)
  403330:	1080051d 	beqz	a0,4047a8 <_ftext@@Base+0x3348>
  403334:	3c050041 	lui	a1,0x41
  403338:	afa20010 	sw	v0,16(sp)
  40333c:	afa30014 	sw	v1,20(sp)
  403340:	27a200d8 	addiu	v0,sp,216
  403344:	afa20018 	sw	v0,24(sp)
  403348:	24a5a5ec 	addiu	a1,a1,-23060
  40334c:	8fa60030 	lw	a2,48(sp)
[31m  403350:	8f998128 	lw	t9,fprintf[0m
  403354:	0320f809 	jalr	t9
  403358:	27a701d8 	addiu	a3,sp,472
--
  403664:	27a40714 	addiu	a0,sp,1812
  403668:	8fbc0028 	lw	gp,40(sp)
  40366c:	1440001c 	bnez	v0,4036e0 <_ftext@@Base+0x2280>
  403670:	2a020002 	slti	v0,s0,2
  403674:	14400009 	bnez	v0,40369c <_ftext@@Base+0x223c>
  403678:	00000000 	nop
  40367c:	8f8281c0 	lw	v0,-32320(gp)
  403680:	8c450000 	lw	a1,0(v0)
  403684:	10a00014 	beqz	a1,4036d8 <_ftext@@Base+0x2278>
  403688:	00000000 	nop
  40368c:	8f998084 	lw	t9,-32636(gp)
  403690:	0320f809 	jalr	t9
  403694:	2404003b 	li	a0,59
  403698:	8fbc0028 	lw	gp,40(sp)
  40369c:	8f8281c0 	lw	v0,-32320(gp)
  4036a0:	8c440000 	lw	a0,0(v0)
  4036a4:	1080000c 	beqz	a0,4036d8 <_ftext@@Base+0x2278>
  4036a8:	27a206d8 	addiu	v0,sp,1752
  4036ac:	afa20010 	sw	v0,16(sp)
  4036b0:	afa00014 	sw	zero,20(sp)
  4036b4:	27a2072c 	addiu	v0,sp,1836
  4036b8:	afa20018 	sw	v0,24(sp)
  4036bc:	3c050041 	lui	a1,0x41
  4036c0:	24a5a624 	addiu	a1,a1,-23004
  4036c4:	27a601d8 	addiu	a2,sp,472
[31m  4036c8:	8f998128 	lw	t9,fprintf[0m
  4036cc:	0320f809 	jalr	t9
  4036d0:	02203821 	move	a3,s1
--
  4036f4:	1440001e 	bnez	v0,403770 <_ftext@@Base+0x2310>
  4036f8:	2a020002 	slti	v0,s0,2
  4036fc:	14400009 	bnez	v0,403724 <_ftext@@Base+0x22c4>
  403700:	00000000 	nop
  403704:	8f8281c0 	lw	v0,-32320(gp)
  403708:	8c450000 	lw	a1,0(v0)
  40370c:	10a00016 	beqz	a1,403768 <_ftext@@Base+0x2308>
  403710:	00000000 	nop
  403714:	8f998084 	lw	t9,-32636(gp)
  403718:	0320f809 	jalr	t9
  40371c:	2404003b 	li	a0,59
  403720:	8fbc0028 	lw	gp,40(sp)
  403724:	8f8281c0 	lw	v0,-32320(gp)
  403728:	8c440000 	lw	a0,0(v0)
  40372c:	1080000e 	beqz	a0,403768 <_ftext@@Base+0x2308>
  403730:	27a206d8 	addiu	v0,sp,1752
  403734:	afa20010 	sw	v0,16(sp)
  403738:	24020001 	li	v0,1
  40373c:	afa20014 	sw	v0,20(sp)
  403740:	afa00018 	sw	zero,24(sp)
  403744:	27a2072c 	addiu	v0,sp,1836
  403748:	afa2001c 	sw	v0,28(sp)
  40374c:	3c050041 	lui	a1,0x41
  403750:	24a5a644 	addiu	a1,a1,-22972
  403754:	27a601d8 	addiu	a2,sp,472
[31m  403758:	8f998128 	lw	t9,fprintf[0m
  40375c:	0320f809 	jalr	t9
  403760:	02203821 	move	a3,s1
--
  403788:	2a020002 	slti	v0,s0,2
  40378c:	14400009 	bnez	v0,4037b4 <_ftext@@Base+0x2354>
  403790:	00000000 	nop
  403794:	8f8281c0 	lw	v0,-32320(gp)
  403798:	8c450000 	lw	a1,0(v0)
  40379c:	10a00017 	beqz	a1,4037fc <_ftext@@Base+0x239c>
  4037a0:	00000000 	nop
  4037a4:	8f998084 	lw	t9,-32636(gp)
  4037a8:	0320f809 	jalr	t9
  4037ac:	2404003b 	li	a0,59
  4037b0:	8fbc0028 	lw	gp,40(sp)
  4037b4:	8f8281c0 	lw	v0,-32320(gp)
  4037b8:	8c440000 	lw	a0,0(v0)
  4037bc:	1080000f 	beqz	a0,4037fc <_ftext@@Base+0x239c>
  4037c0:	27a206d8 	addiu	v0,sp,1752
  4037c4:	afa20010 	sw	v0,16(sp)
  4037c8:	24020003 	li	v0,3
  4037cc:	afa20014 	sw	v0,20(sp)
  4037d0:	24020002 	li	v0,2
  4037d4:	afa20018 	sw	v0,24(sp)
  4037d8:	27a2072c 	addiu	v0,sp,1836
  4037dc:	afa2001c 	sw	v0,28(sp)
  4037e0:	3c050041 	lui	a1,0x41
  4037e4:	24a5a644 	addiu	a1,a1,-22972
  4037e8:	27a601d8 	addiu	a2,sp,472
[31m  4037ec:	8f998128 	lw	t9,fprintf[0m
  4037f0:	0320f809 	jalr	t9
  4037f4:	02203821 	move	a3,s1
--
  403818:	1440001e 	bnez	v0,403894 <_ftext@@Base+0x2434>
  40381c:	2a020002 	slti	v0,s0,2
  403820:	14400009 	bnez	v0,403848 <_ftext@@Base+0x23e8>
  403824:	00000000 	nop
  403828:	8f8281c0 	lw	v0,-32320(gp)
  40382c:	8c450000 	lw	a1,0(v0)
  403830:	10a00016 	beqz	a1,40388c <_ftext@@Base+0x242c>
  403834:	00000000 	nop
  403838:	8f998084 	lw	t9,-32636(gp)
  40383c:	0320f809 	jalr	t9
  403840:	2404003b 	li	a0,59
  403844:	8fbc0028 	lw	gp,40(sp)
  403848:	8f8281c0 	lw	v0,-32320(gp)
  40384c:	8c440000 	lw	a0,0(v0)
  403850:	1080000e 	beqz	a0,40388c <_ftext@@Base+0x242c>
  403854:	27a206d8 	addiu	v0,sp,1752
  403858:	afa20010 	sw	v0,16(sp)
  40385c:	24020003 	li	v0,3
  403860:	afa20014 	sw	v0,20(sp)
  403864:	afa20018 	sw	v0,24(sp)
  403868:	27a2072c 	addiu	v0,sp,1836
  40386c:	afa2001c 	sw	v0,28(sp)
  403870:	3c050041 	lui	a1,0x41
  403874:	24a5a644 	addiu	a1,a1,-22972
  403878:	27a601d8 	addiu	a2,sp,472
[31m  40387c:	8f998128 	lw	t9,fprintf[0m
  403880:	0320f809 	jalr	t9
  403884:	02203821 	move	a3,s1
--
  4038ac:	2a020002 	slti	v0,s0,2
  4038b0:	14400009 	bnez	v0,4038d8 <_ftext@@Base+0x2478>
  4038b4:	00000000 	nop
  4038b8:	8f8281c0 	lw	v0,-32320(gp)
  4038bc:	8c450000 	lw	a1,0(v0)
  4038c0:	10a00017 	beqz	a1,403920 <_ftext@@Base+0x24c0>
  4038c4:	00000000 	nop
  4038c8:	8f998084 	lw	t9,-32636(gp)
  4038cc:	0320f809 	jalr	t9
  4038d0:	2404003b 	li	a0,59
  4038d4:	8fbc0028 	lw	gp,40(sp)
  4038d8:	8f8281c0 	lw	v0,-32320(gp)
  4038dc:	8c440000 	lw	a0,0(v0)
  4038e0:	1080000f 	beqz	a0,403920 <_ftext@@Base+0x24c0>
  4038e4:	27a206d8 	addiu	v0,sp,1752
  4038e8:	afa20010 	sw	v0,16(sp)
  4038ec:	24020003 	li	v0,3
  4038f0:	afa20014 	sw	v0,20(sp)
  4038f4:	24020004 	li	v0,4
  4038f8:	afa20018 	sw	v0,24(sp)
  4038fc:	27a2072c 	addiu	v0,sp,1836
  403900:	afa2001c 	sw	v0,28(sp)
  403904:	3c050041 	lui	a1,0x41
  403908:	24a5a644 	addiu	a1,a1,-22972
  40390c:	27a601d8 	addiu	a2,sp,472
[31m  403910:	8f998128 	lw	t9,fprintf[0m
  403914:	0320f809 	jalr	t9
  403918:	02203821 	move	a3,s1
--
  403940:	2a020002 	slti	v0,s0,2
  403944:	14400009 	bnez	v0,40396c <_ftext@@Base+0x250c>
  403948:	00000000 	nop
  40394c:	8f8281c0 	lw	v0,-32320(gp)
  403950:	8c450000 	lw	a1,0(v0)
  403954:	10a00017 	beqz	a1,4039b4 <_ftext@@Base+0x2554>
  403958:	00000000 	nop
  40395c:	8f998084 	lw	t9,-32636(gp)
  403960:	0320f809 	jalr	t9
  403964:	2404003b 	li	a0,59
  403968:	8fbc0028 	lw	gp,40(sp)
  40396c:	8f8281c0 	lw	v0,-32320(gp)
  403970:	8c440000 	lw	a0,0(v0)
  403974:	1080000f 	beqz	a0,4039b4 <_ftext@@Base+0x2554>
  403978:	27a206d8 	addiu	v0,sp,1752
  40397c:	afa20010 	sw	v0,16(sp)
  403980:	24020004 	li	v0,4
  403984:	afa20014 	sw	v0,20(sp)
  403988:	24020002 	li	v0,2
  40398c:	afa20018 	sw	v0,24(sp)
  403990:	27a2072c 	addiu	v0,sp,1836
  403994:	afa2001c 	sw	v0,28(sp)
  403998:	3c050041 	lui	a1,0x41
  40399c:	24a5a644 	addiu	a1,a1,-22972
  4039a0:	27a601d8 	addiu	a2,sp,472
[31m  4039a4:	8f998128 	lw	t9,fprintf[0m
  4039a8:	0320f809 	jalr	t9
  4039ac:	02203821 	move	a3,s1
--
  4039d4:	2a020002 	slti	v0,s0,2
  4039d8:	14400009 	bnez	v0,403a00 <_ftext@@Base+0x25a0>
  4039dc:	00000000 	nop
  4039e0:	8f8281c0 	lw	v0,-32320(gp)
  4039e4:	8c450000 	lw	a1,0(v0)
  4039e8:	10a00017 	beqz	a1,403a48 <_ftext@@Base+0x25e8>
  4039ec:	00000000 	nop
  4039f0:	8f998084 	lw	t9,-32636(gp)
  4039f4:	0320f809 	jalr	t9
  4039f8:	2404003b 	li	a0,59
  4039fc:	8fbc0028 	lw	gp,40(sp)
  403a00:	8f8281c0 	lw	v0,-32320(gp)
  403a04:	8c440000 	lw	a0,0(v0)
  403a08:	1080000f 	beqz	a0,403a48 <_ftext@@Base+0x25e8>
  403a0c:	27a206d8 	addiu	v0,sp,1752
  403a10:	afa20010 	sw	v0,16(sp)
  403a14:	24020004 	li	v0,4
  403a18:	afa20014 	sw	v0,20(sp)
  403a1c:	24020003 	li	v0,3
  403a20:	afa20018 	sw	v0,24(sp)
  403a24:	27a2072c 	addiu	v0,sp,1836
  403a28:	afa2001c 	sw	v0,28(sp)
  403a2c:	3c050041 	lui	a1,0x41
  403a30:	24a5a644 	addiu	a1,a1,-22972
  403a34:	27a601d8 	addiu	a2,sp,472
[31m  403a38:	8f998128 	lw	t9,fprintf[0m
  403a3c:	0320f809 	jalr	t9
  403a40:	02203821 	move	a3,s1
--
  403a64:	1440001e 	bnez	v0,403ae0 <_ftext@@Base+0x2680>
  403a68:	2a020002 	slti	v0,s0,2
  403a6c:	14400009 	bnez	v0,403a94 <_ftext@@Base+0x2634>
  403a70:	00000000 	nop
  403a74:	8f8281c0 	lw	v0,-32320(gp)
  403a78:	8c450000 	lw	a1,0(v0)
  403a7c:	10a00016 	beqz	a1,403ad8 <_ftext@@Base+0x2678>
  403a80:	00000000 	nop
  403a84:	8f998084 	lw	t9,-32636(gp)
  403a88:	0320f809 	jalr	t9
  403a8c:	2404003b 	li	a0,59
  403a90:	8fbc0028 	lw	gp,40(sp)
  403a94:	8f8281c0 	lw	v0,-32320(gp)
  403a98:	8c440000 	lw	a0,0(v0)
  403a9c:	1080000e 	beqz	a0,403ad8 <_ftext@@Base+0x2678>
  403aa0:	27a206d8 	addiu	v0,sp,1752
  403aa4:	afa20010 	sw	v0,16(sp)
  403aa8:	24020004 	li	v0,4
  403aac:	afa20014 	sw	v0,20(sp)
  403ab0:	afa20018 	sw	v0,24(sp)
  403ab4:	27a2072c 	addiu	v0,sp,1836
  403ab8:	afa2001c 	sw	v0,28(sp)
  403abc:	3c050041 	lui	a1,0x41
  403ac0:	24a5a644 	addiu	a1,a1,-22972
  403ac4:	27a601d8 	addiu	a2,sp,472
[31m  403ac8:	8f998128 	lw	t9,fprintf[0m
  403acc:	0320f809 	jalr	t9
  403ad0:	02203821 	move	a3,s1
--
  403afc:	2a020002 	slti	v0,s0,2
  403b00:	14400009 	bnez	v0,403b28 <_ftext@@Base+0x26c8>
  403b04:	00000000 	nop
  403b08:	8f8281c0 	lw	v0,-32320(gp)
  403b0c:	8c450000 	lw	a1,0(v0)
  403b10:	10a00017 	beqz	a1,403b70 <_ftext@@Base+0x2710>
  403b14:	00000000 	nop
  403b18:	8f998084 	lw	t9,-32636(gp)
  403b1c:	0320f809 	jalr	t9
  403b20:	2404003b 	li	a0,59
  403b24:	8fbc0028 	lw	gp,40(sp)
  403b28:	8f8281c0 	lw	v0,-32320(gp)
  403b2c:	8c440000 	lw	a0,0(v0)
  403b30:	1080000f 	beqz	a0,403b70 <_ftext@@Base+0x2710>
  403b34:	27a206d8 	addiu	v0,sp,1752
  403b38:	afa20010 	sw	v0,16(sp)
  403b3c:	24020005 	li	v0,5
  403b40:	afa20014 	sw	v0,20(sp)
  403b44:	24020002 	li	v0,2
  403b48:	afa20018 	sw	v0,24(sp)
  403b4c:	27a2072c 	addiu	v0,sp,1836
  403b50:	afa2001c 	sw	v0,28(sp)
  403b54:	3c050041 	lui	a1,0x41
  403b58:	24a5a644 	addiu	a1,a1,-22972
  403b5c:	27a601d8 	addiu	a2,sp,472
[31m  403b60:	8f998128 	lw	t9,fprintf[0m
  403b64:	0320f809 	jalr	t9
  403b68:	02203821 	move	a3,s1
--
  403b94:	2a020002 	slti	v0,s0,2
  403b98:	14400009 	bnez	v0,403bc0 <_ftext@@Base+0x2760>
  403b9c:	00000000 	nop
  403ba0:	8f8281c0 	lw	v0,-32320(gp)
  403ba4:	8c450000 	lw	a1,0(v0)
  403ba8:	10a00017 	beqz	a1,403c08 <_ftext@@Base+0x27a8>
  403bac:	00000000 	nop
  403bb0:	8f998084 	lw	t9,-32636(gp)
  403bb4:	0320f809 	jalr	t9
  403bb8:	2404003b 	li	a0,59
  403bbc:	8fbc0028 	lw	gp,40(sp)
  403bc0:	8f8281c0 	lw	v0,-32320(gp)
  403bc4:	8c440000 	lw	a0,0(v0)
  403bc8:	1080000f 	beqz	a0,403c08 <_ftext@@Base+0x27a8>
  403bcc:	27a206d8 	addiu	v0,sp,1752
  403bd0:	afa20010 	sw	v0,16(sp)
  403bd4:	24020005 	li	v0,5
  403bd8:	afa20014 	sw	v0,20(sp)
  403bdc:	24020003 	li	v0,3
  403be0:	afa20018 	sw	v0,24(sp)
  403be4:	27a2072c 	addiu	v0,sp,1836
  403be8:	afa2001c 	sw	v0,28(sp)
  403bec:	3c050041 	lui	a1,0x41
  403bf0:	24a5a644 	addiu	a1,a1,-22972
  403bf4:	27a601d8 	addiu	a2,sp,472
[31m  403bf8:	8f998128 	lw	t9,fprintf[0m
  403bfc:	0320f809 	jalr	t9
  403c00:	02203821 	move	a3,s1
--
  403c2c:	2a020002 	slti	v0,s0,2
  403c30:	14400009 	bnez	v0,403c58 <_ftext@@Base+0x27f8>
  403c34:	00000000 	nop
  403c38:	8f8281c0 	lw	v0,-32320(gp)
  403c3c:	8c450000 	lw	a1,0(v0)
  403c40:	10a00017 	beqz	a1,403ca0 <_ftext@@Base+0x2840>
  403c44:	00000000 	nop
  403c48:	8f998084 	lw	t9,-32636(gp)
  403c4c:	0320f809 	jalr	t9
  403c50:	2404003b 	li	a0,59
  403c54:	8fbc0028 	lw	gp,40(sp)
  403c58:	8f8281c0 	lw	v0,-32320(gp)
  403c5c:	8c440000 	lw	a0,0(v0)
  403c60:	1080000f 	beqz	a0,403ca0 <_ftext@@Base+0x2840>
  403c64:	27a206d8 	addiu	v0,sp,1752
  403c68:	afa20010 	sw	v0,16(sp)
  403c6c:	24020005 	li	v0,5
  403c70:	afa20014 	sw	v0,20(sp)
  403c74:	24020004 	li	v0,4
  403c78:	afa20018 	sw	v0,24(sp)
  403c7c:	27a2072c 	addiu	v0,sp,1836
  403c80:	afa2001c 	sw	v0,28(sp)
  403c84:	3c050041 	lui	a1,0x41
  403c88:	24a5a644 	addiu	a1,a1,-22972
  403c8c:	27a601d8 	addiu	a2,sp,472
[31m  403c90:	8f998128 	lw	t9,fprintf[0m
  403c94:	0320f809 	jalr	t9
  403c98:	02203821 	move	a3,s1
--
  403cc4:	100002b9 	b	4047ac <_ftext@@Base+0x334c>
  403cc8:	00001021 	move	v0,zero
  403ccc:	02002021 	move	a0,s0
  403cd0:	8f9980ec 	lw	t9,-32532(gp)
  403cd4:	0320f809 	jalr	t9
  403cd8:	24a5a6f8 	addiu	a1,a1,-22792
  403cdc:	8fbc0028 	lw	gp,40(sp)
  403ce0:	14400016 	bnez	v0,403d3c <_ftext@@Base+0x28dc>
  403ce4:	02002021 	move	a0,s0
  403ce8:	0c1005a4 	jal	401690 <_ftext@@Base+0x230>
  403cec:	00000000 	nop
  403cf0:	0c100594 	jal	401650 <_ftext@@Base+0x1f0>
  403cf4:	00408021 	move	s0,v0
  403cf8:	8fbc0028 	lw	gp,40(sp)
  403cfc:	24030001 	li	v1,1
  403d00:	16030003 	bne	s0,v1,403d10 <_ftext@@Base+0x28b0>
  403d04:	3c038000 	lui	v1,0x8000
  403d08:	10000003 	b	403d18 <_ftext@@Base+0x28b8>
  403d0c:	24060001 	li	a2,1
  403d10:	00433021 	addu	a2,v0,v1
  403d14:	2cc60001 	sltiu	a2,a2,1
  403d18:	8f8281c0 	lw	v0,-32320(gp)
  403d1c:	8c440000 	lw	a0,0(v0)
  403d20:	108002a1 	beqz	a0,4047a8 <_ftext@@Base+0x3348>
  403d24:	3c050041 	lui	a1,0x41
[31m  403d28:	8f998128 	lw	t9,fprintf[0m
  403d2c:	0320f809 	jalr	t9
  403d30:	24a5abb0 	addiu	a1,a1,-21584
--
  403e98:	8fbc0028 	lw	gp,40(sp)
  403e9c:	8f9980bc 	lw	t9,-32580(gp)
  403ea0:	0320f809 	jalr	t9
  403ea4:	02002021 	move	a0,s0
  403ea8:	8fbc0028 	lw	gp,40(sp)
  403eac:	8f8381c0 	lw	v1,-32320(gp)
  403eb0:	8c640000 	lw	a0,0(v1)
  403eb4:	1080023c 	beqz	a0,4047a8 <_ftext@@Base+0x3348>
  403eb8:	3c050041 	lui	a1,0x41
  403ebc:	8c430014 	lw	v1,20(v0)
  403ec0:	2463076c 	addiu	v1,v1,1900
  403ec4:	afa30010 	sw	v1,16(sp)
  403ec8:	8c430010 	lw	v1,16(v0)
  403ecc:	24630001 	addiu	v1,v1,1
  403ed0:	afa30014 	sw	v1,20(sp)
  403ed4:	8c43000c 	lw	v1,12(v0)
  403ed8:	afa30018 	sw	v1,24(sp)
  403edc:	8c430008 	lw	v1,8(v0)
  403ee0:	afa3001c 	sw	v1,28(sp)
  403ee4:	8c430004 	lw	v1,4(v0)
  403ee8:	afa30020 	sw	v1,32(sp)
  403eec:	8c420000 	lw	v0,0(v0)
  403ef0:	afa20024 	sw	v0,36(sp)
  403ef4:	24a5a724 	addiu	a1,a1,-22748
  403ef8:	27a600a8 	addiu	a2,sp,168
[31m  403efc:	8f998128 	lw	t9,fprintf[0m
  403f00:	0320f809 	jalr	t9
  403f04:	02203821 	move	a3,s1
--
  4040cc:	2484a700 	addiu	a0,a0,-22784
  4040d0:	3c050041 	lui	a1,0x41
  4040d4:	24a5a760 	addiu	a1,a1,-22688
  4040d8:	8f998054 	lw	t9,-32684(gp)
  4040dc:	0320f809 	jalr	t9
  4040e0:	27a600d8 	addiu	a2,sp,216
  4040e4:	8fbc0028 	lw	gp,40(sp)
  4040e8:	3c040041 	lui	a0,0x41
  4040ec:	2484a338 	addiu	a0,a0,-23752
  4040f0:	3c050041 	lui	a1,0x41
  4040f4:	24a5a76c 	addiu	a1,a1,-22676
  4040f8:	8f998054 	lw	t9,-32684(gp)
  4040fc:	0320f809 	jalr	t9
  404100:	27a60034 	addiu	a2,sp,52
  404104:	8fbc0028 	lw	gp,40(sp)
  404108:	8f8281c0 	lw	v0,-32320(gp)
  40410c:	8c440000 	lw	a0,0(v0)
  404110:	108001a5 	beqz	a0,4047a8 <_ftext@@Base+0x3348>
  404114:	27a200d8 	addiu	v0,sp,216
  404118:	afa20010 	sw	v0,16(sp)
  40411c:	93a20034 	lbu	v0,52(sp)
  404120:	afa20014 	sw	v0,20(sp)
  404124:	3c050041 	lui	a1,0x41
  404128:	24a5a77c 	addiu	a1,a1,-22660
  40412c:	27a600a8 	addiu	a2,sp,168
[31m  404130:	8f998128 	lw	t9,fprintf[0m
  404134:	0320f809 	jalr	t9
  404138:	27a70088 	addiu	a3,sp,136
--
  40431c:	0320f809 	jalr	t9
  404320:	02602021 	move	a0,s3
  404324:	10000121 	b	4047ac <_ftext@@Base+0x334c>
  404328:	00001021 	move	v0,zero
  40432c:	3c050041 	lui	a1,0x41
  404330:	8f9980ec 	lw	t9,-32532(gp)
  404334:	0320f809 	jalr	t9
  404338:	24a5a7b8 	addiu	a1,a1,-22600
  40433c:	8fbc0028 	lw	gp,40(sp)
  404340:	14400014 	bnez	v0,404394 <_ftext@@Base+0x2f34>
  404344:	02002021 	move	a0,s0
  404348:	afa00044 	sw	zero,68(sp)
  40434c:	3c040041 	lui	a0,0x41
  404350:	2484a338 	addiu	a0,a0,-23752
  404354:	3c050041 	lui	a1,0x41
  404358:	24a5a7c4 	addiu	a1,a1,-22588
  40435c:	8f998054 	lw	t9,-32684(gp)
  404360:	0320f809 	jalr	t9
  404364:	27a60044 	addiu	a2,sp,68
  404368:	8fbc0028 	lw	gp,40(sp)
  40436c:	8f8281c0 	lw	v0,-32320(gp)
  404370:	8c440000 	lw	a0,0(v0)
  404374:	1080010c 	beqz	a0,4047a8 <_ftext@@Base+0x3348>
  404378:	3c050041 	lui	a1,0x41
  40437c:	8fa60044 	lw	a2,68(sp)
[31m  404380:	8f998128 	lw	t9,fprintf[0m
  404384:	0320f809 	jalr	t9
  404388:	24a5abb0 	addiu	a1,a1,-21584
--
  4046c0:	0320f809 	jalr	t9
  4046c4:	27a412f0 	addiu	a0,sp,4848
  4046c8:	10000038 	b	4047ac <_ftext@@Base+0x334c>
  4046cc:	00001021 	move	v0,zero
  4046d0:	02002021 	move	a0,s0
  4046d4:	8f9980ec 	lw	t9,-32532(gp)
  4046d8:	0320f809 	jalr	t9
  4046dc:	24a5a9dc 	addiu	a1,a1,-22052
  4046e0:	8fbc0028 	lw	gp,40(sp)
  4046e4:	14400014 	bnez	v0,404738 <_ftext@@Base+0x32d8>
  4046e8:	02002021 	move	a0,s0
  4046ec:	a3a00034 	sb	zero,52(sp)
  4046f0:	3c040041 	lui	a0,0x41
  4046f4:	2484a338 	addiu	a0,a0,-23752
  4046f8:	3c050041 	lui	a1,0x41
  4046fc:	24a5a9f8 	addiu	a1,a1,-22024
  404700:	8f998054 	lw	t9,-32684(gp)
  404704:	0320f809 	jalr	t9
  404708:	27a60034 	addiu	a2,sp,52
  40470c:	8fbc0028 	lw	gp,40(sp)
  404710:	8f8281c0 	lw	v0,-32320(gp)
  404714:	8c440000 	lw	a0,0(v0)
  404718:	10800023 	beqz	a0,4047a8 <_ftext@@Base+0x3348>
  40471c:	3c050041 	lui	a1,0x41
  404720:	93a60034 	lbu	a2,52(sp)
[31m  404724:	8f998128 	lw	t9,fprintf[0m
  404728:	0320f809 	jalr	t9
  40472c:	24a5ac00 	addiu	a1,a1,-21504
  404730:	1000001e 	b	4047ac <_ftext@@Base+0x334c>
  404734:	00001021 	move	v0,zero
  404738:	3c050041 	lui	a1,0x41
  40473c:	8f9980ec 	lw	t9,-32532(gp)
  404740:	0320f809 	jalr	t9
  404744:	24a5aa0c 	addiu	a1,a1,-22004
  404748:	8fbc0028 	lw	gp,40(sp)
  40474c:	14400017 	bnez	v0,4047ac <_ftext@@Base+0x334c>
  404750:	24020001 	li	v0,1
  404754:	a3a00034 	sb	zero,52(sp)
  404758:	3c040041 	lui	a0,0x41
  40475c:	2484a338 	addiu	a0,a0,-23752
  404760:	3c050041 	lui	a1,0x41
  404764:	24a5aa20 	addiu	a1,a1,-21984
  404768:	8f998054 	lw	t9,-32684(gp)
  40476c:	0320f809 	jalr	t9
  404770:	27a60034 	addiu	a2,sp,52
  404774:	8fbc0028 	lw	gp,40(sp)
  404778:	8f8281c0 	lw	v0,-32320(gp)
  40477c:	8c440000 	lw	a0,0(v0)
  404780:	10800009 	beqz	a0,4047a8 <_ftext@@Base+0x3348>
  404784:	3c050041 	lui	a1,0x41
  404788:	93a60034 	lbu	a2,52(sp)
[31m  40478c:	8f998128 	lw	t9,fprintf[0m
  404790:	0320f809 	jalr	t9
  404794:	24a5ac00 	addiu	a1,a1,-21504
--
  404f54:	1043000f 	beq	v0,v1,404f94 <_ftext@@Base+0x3b34>
  404f58:	24040014 	li	a0,20
  404f5c:	12200007 	beqz	s1,404f7c <_ftext@@Base+0x3b1c>
  404f60:	00000000 	nop
  404f64:	8f99817c 	lw	t9,-32388(gp)
  404f68:	0320f809 	jalr	t9
  404f6c:	24040003 	li	a0,3
  404f70:	8fbc0010 	lw	gp,16(sp)
  404f74:	10000007 	b	404f94 <_ftext@@Base+0x3b34>
  404f78:	24040014 	li	a0,20
  404f7c:	3c040041 	lui	a0,0x41
  404f80:	8f998184 	lw	t9,-32380(gp)
  404f84:	0320f809 	jalr	t9
  404f88:	2484ab04 	addiu	a0,a0,-21756
  404f8c:	8fbc0010 	lw	gp,16(sp)
  404f90:	24040014 	li	a0,20
  404f94:	8f99814c 	lw	t9,-32436(gp)
  404f98:	0320f809 	jalr	t9
  404f9c:	00002821 	move	a1,zero
  404fa0:	8fbc0010 	lw	gp,16(sp)
  404fa4:	8f8281c0 	lw	v0,-32320(gp)
  404fa8:	8c440000 	lw	a0,0(v0)
  404fac:	10800005 	beqz	a0,404fc4 <_ftext@@Base+0x3b64>
  404fb0:	3c050041 	lui	a1,0x41
  404fb4:	24a5ab38 	addiu	a1,a1,-21704
[31m  404fb8:	8f998128 	lw	t9,fprintf[0m
  404fbc:	0320f809 	jalr	t9
  404fc0:	24060001 	li	a2,1
--
  407634:	8f998074 	lw	t9,-32652(gp)
  407638:	0320f809 	jalr	t9
  40763c:	00000000 	nop
  407640:	8fbc0028 	lw	gp,40(sp)
  407644:	8e240008 	lw	a0,8(s1)
  407648:	8f9981b4 	lw	t9,-32332(gp)
  40764c:	0320f809 	jalr	t9
  407650:	00000000 	nop
  407654:	8fbc0028 	lw	gp,40(sp)
  407658:	3c020100 	lui	v0,0x100
  40765c:	8fa30030 	lw	v1,48(sp)
  407660:	00621025 	or	v0,v1,v0
  407664:	afa20030 	sw	v0,48(sp)
  407668:	8fa50030 	lw	a1,48(sp)
  40766c:	8f99814c 	lw	t9,-32436(gp)
  407670:	0320f809 	jalr	t9
  407674:	24040014 	li	a0,20
  407678:	8fbc0028 	lw	gp,40(sp)
  40767c:	8f8281c0 	lw	v0,-32320(gp)
  407680:	8c440000 	lw	a0,0(v0)
  407684:	14800003 	bnez	a0,407694 <_ftext@@Base+0x6234>
  407688:	3c050041 	lui	a1,0x41
  40768c:	10000008 	b	4076b0 <_ftext@@Base+0x6250>
  407690:	00001021 	move	v0,zero
  407694:	24a5ab38 	addiu	a1,a1,-21704
[31m  407698:	8f998128 	lw	t9,fprintf[0m
  40769c:	0320f809 	jalr	t9
  4076a0:	24060001 	li	a2,1
--
  409184:	2484a308 	addiu	a0,a0,-23800
  409188:	3c050041 	lui	a1,0x41
  40918c:	24a5a310 	addiu	a1,a1,-23792
  409190:	8f998054 	lw	t9,-32684(gp)
  409194:	0320f809 	jalr	t9
  409198:	27a60020 	addiu	a2,sp,32
  40919c:	8fbc0018 	lw	gp,24(sp)
  4091a0:	afa00024 	sw	zero,36(sp)
  4091a4:	afa00028 	sw	zero,40(sp)
  4091a8:	3c020041 	lui	v0,0x41
  4091ac:	9042b090 	lbu	v0,-20336(v0)
  4091b0:	a3a200c4 	sb	v0,196(sp)
  4091b4:	27a400c5 	addiu	a0,sp,197
  4091b8:	00002821 	move	a1,zero
  4091bc:	8f9980b8 	lw	t9,-32584(gp)
  4091c0:	0320f809 	jalr	t9
  4091c4:	240605b3 	li	a2,1459
  4091c8:	8fbc0018 	lw	gp,24(sp)
  4091cc:	8f828088 	lw	v0,-32632(gp)
  4091d0:	8c440000 	lw	a0,0(v0)
  4091d4:	10800008 	beqz	a0,4091f8 <PushDCHEventHandle@@Base+0x1f8>
  4091d8:	3c050041 	lui	a1,0x41
  4091dc:	24a5aea0 	addiu	a1,a1,-20832
  4091e0:	27a60c2c 	addiu	a2,sp,3116
  4091e4:	3c070041 	lui	a3,0x41
[31m  4091e8:	8f998128 	lw	t9,fprintf[0m
  4091ec:	0320f809 	jalr	t9
  4091f0:	24e7b644 	addiu	a3,a3,-18876
--
  4095bc:	03d12821 	addu	a1,s8,s1
  4095c0:	240605b4 	li	a2,1460
  4095c4:	8f9981bc 	lw	t9,-32324(gp)
  4095c8:	0320f809 	jalr	t9
  4095cc:	00003821 	move	a3,zero
  4095d0:	8fbc0018 	lw	gp,24(sp)
  4095d4:	10000007 	b	4095f4 <PushDCHEventHandle@@Base+0x5f4>
  4095d8:	00000000 	nop
  4095dc:	03d12821 	addu	a1,s8,s1
  4095e0:	02003021 	move	a2,s0
  4095e4:	8f9981bc 	lw	t9,-32324(gp)
  4095e8:	0320f809 	jalr	t9
  4095ec:	00003821 	move	a3,zero
  4095f0:	8fbc0018 	lw	gp,24(sp)
  4095f4:	18400013 	blez	v0,409644 <PushDCHEventHandle@@Base+0x644>
  4095f8:	02028023 	subu	s0,s0,v0
  4095fc:	1e00ffe3 	bgtz	s0,40958c <PushDCHEventHandle@@Base+0x58c>
  409600:	02228821 	addu	s1,s1,v0
  409604:	8f828088 	lw	v0,-32632(gp)
  409608:	8c440000 	lw	a0,0(v0)
  40960c:	1080000d 	beqz	a0,409644 <PushDCHEventHandle@@Base+0x644>
  409610:	3c050041 	lui	a1,0x41
  409614:	24a5af38 	addiu	a1,a1,-20680
  409618:	27a600c4 	addiu	a2,sp,196
  40961c:	3c070041 	lui	a3,0x41
[31m  409620:	8f998128 	lw	t9,fprintf[0m
  409624:	0320f809 	jalr	t9
  409628:	24e7b644 	addiu	a3,a3,-18876

[0m
[[0;33m*[0m] Function [0;33mfprintf[0m used [0;33m33[0m times [0;33mmdb[0m

