[[0;33m*[0m] Binary protection state of [0;33mnetmgr[0m
[REF] s12

  	RELRO          CANARY            NX           PIE       RPATH        RUNPATH      SYMBOLS      
  	[31mNo RELRO[0m       [31mNo Canary found[0m   [31mNX disabled[0m  [31mNo PIE[0m       [32mNo RPATH[0m     [32mNo RUNPATH[0m   [32mNo Symbols[0m

[0m
[[0;33m*[0m] Function [0;33mfprintf[0m tear down of [0;33mnetmgr[0m

  401f48:	8fbc0010 	lw	gp,16(sp)
  401f4c:	27b00054 	addiu	s0,sp,84
  401f50:	02202021 	move	a0,s1
  401f54:	3c050040 	lui	a1,0x40
  401f58:	24a5438c 	addiu	a1,a1,17292
  401f5c:	8f9980f0 	lw	t9,-32528(gp)
  401f60:	0320f809 	jalr	t9
  401f64:	02003021 	move	a2,s0
  401f68:	8fbc0010 	lw	gp,16(sp)
  401f6c:	8f998070 	lw	t9,-32656(gp)
  401f70:	0320f809 	jalr	t9
  401f74:	02002021 	move	a0,s0
  401f78:	8fbc0010 	lw	gp,16(sp)
  401f7c:	1440002d 	bnez	v0,402034 <MsgSend@@Base+0x224>
  401f80:	3c020041 	lui	v0,0x41
  401f84:	3c100041 	lui	s0,0x41
  401f88:	8e024a64 	lw	v0,19044(s0)
  401f8c:	24420001 	addiu	v0,v0,1
  401f90:	ae024a64 	sw	v0,19044(s0)
  401f94:	00023040 	sll	a2,v0,0x1
  401f98:	000210c0 	sll	v0,v0,0x3
  401f9c:	8f8380a8 	lw	v1,-32600(gp)
  401fa0:	8c640000 	lw	a0,0(v1)
  401fa4:	3c050040 	lui	a1,0x40
  401fa8:	24a543b0 	addiu	a1,a1,17328
[31m  401fac:	8f998128 	lw	t9,fprintf[0m
  401fb0:	0320f809 	jalr	t9
  401fb4:	00c23021 	addu	a2,a2,v0
--
  402c38:	3c040040 	lui	a0,0x40
  402c3c:	24844558 	addiu	a0,a0,17752
  402c40:	3c050040 	lui	a1,0x40
  402c44:	8f9981e0 	lw	t9,-32288(gp)
  402c48:	0320f809 	jalr	t9
  402c4c:	24a5427c 	addiu	a1,a1,17020
  402c50:	8fbc0010 	lw	gp,16(sp)
  402c54:	27b00018 	addiu	s0,sp,24
  402c58:	8f9980cc 	lw	t9,-32564(gp)
  402c5c:	0320f809 	jalr	t9
  402c60:	02002021 	move	a0,s0
  402c64:	8fbc0010 	lw	gp,16(sp)
  402c68:	8f9980e0 	lw	t9,-32544(gp)
  402c6c:	0320f809 	jalr	t9
  402c70:	02002021 	move	a0,s0
  402c74:	8fbc0010 	lw	gp,16(sp)
  402c78:	8f8380a8 	lw	v1,-32600(gp)
  402c7c:	8c700000 	lw	s0,0(v1)
  402c80:	8f9981f0 	lw	t9,-32272(gp)
  402c84:	0320f809 	jalr	t9
  402c88:	00402021 	move	a0,v0
  402c8c:	8fbc0010 	lw	gp,16(sp)
  402c90:	02002021 	move	a0,s0
  402c94:	3c050040 	lui	a1,0x40
  402c98:	24a5456c 	addiu	a1,a1,17772
[31m  402c9c:	8f998128 	lw	t9,fprintf[0m
  402ca0:	0320f809 	jalr	t9
  402ca4:	00403021 	move	a2,v0
--
  4033ec:	afbc0010 	sw	gp,16(sp)
  4033f0:	8f82809c 	lw	v0,-32612(gp)
  4033f4:	90420000 	lbu	v0,0(v0)
  4033f8:	30420040 	andi	v0,v0,0x40
  4033fc:	304200ff 	andi	v0,v0,0xff
  403400:	14400124 	bnez	v0,403894 <APMode@@Base+0x4cc>
  403404:	00808021 	move	s0,a0
  403408:	27b101ac 	addiu	s1,sp,428
  40340c:	8f9980cc 	lw	t9,-32564(gp)
  403410:	0320f809 	jalr	t9
  403414:	02202021 	move	a0,s1
  403418:	8fbc0010 	lw	gp,16(sp)
  40341c:	8f9980e0 	lw	t9,-32544(gp)
  403420:	0320f809 	jalr	t9
  403424:	02202021 	move	a0,s1
  403428:	8fbc0010 	lw	gp,16(sp)
  40342c:	8f8380a8 	lw	v1,-32600(gp)
  403430:	8c710000 	lw	s1,0(v1)
  403434:	8f9981f0 	lw	t9,-32272(gp)
  403438:	0320f809 	jalr	t9
  40343c:	00402021 	move	a0,v0
  403440:	8fbc0010 	lw	gp,16(sp)
  403444:	02202021 	move	a0,s1
  403448:	3c050040 	lui	a1,0x40
  40344c:	24a545d4 	addiu	a1,a1,17876
[31m  403450:	8f998128 	lw	t9,fprintf[0m
  403454:	0320f809 	jalr	t9
  403458:	00403021 	move	a2,v0

[0m
[[0;33m*[0m] Function [0;33mfprintf[0m used [0;33m3[0m times [0;33mnetmgr[0m

