[[0;33m*[0m] Binary protection state of [0;33mflash_eraseall[0m
[REF] s12

  	RELRO          CANARY            NX           PIE       RPATH        RUNPATH      SYMBOLS      
  	[31mNo RELRO[0m       [31mNo Canary found[0m   [31mNX disabled[0m  [31mNo PIE[0m       [32mNo RPATH[0m     [32mNo RUNPATH[0m   [32mNo Symbols[0m

[0m
[[0;33m*[0m] Function [0;33mprintf[0m tear down of [0;33mflash_eraseall[0m

  400a98:	10540029 	beq	v0,s4,400b40 <main@@Base+0x140>
  400a9c:	00000000 	nop
  400aa0:	10550024 	beq	v0,s5,400b34 <main@@Base+0x134>
  400aa4:	2843006b 	slti	v1,v0,107
  400aa8:	10600007 	beqz	v1,400ac8 <main@@Base+0xc8>
  400aac:	24040071 	li	a0,113
  400ab0:	10400009 	beqz	v0,400ad8 <main@@Base+0xd8>
  400ab4:	3842003f 	xori	v0,v0,0x3f
  400ab8:	8fa30118 	lw	v1,280(sp)
  400abc:	02e2180a 	0x2e2180a
  400ac0:	1000ffec 	b	400a74 <main@@Base+0x74>
  400ac4:	afa30118 	sw	v1,280(sp)
  400ac8:	1444ffea 	bne	v0,a0,400a74 <main@@Base+0x74>
  400acc:	3c020041 	lui	v0,0x41
  400ad0:	1000ffe8 	b	400a74 <main@@Base+0x74>
  400ad4:	ac5e1fd8 	sw	s8,8152(v0)
  400ad8:	8fa20048 	lw	v0,72(sp)
  400adc:	10400005 	beqz	v0,400af4 <main@@Base+0xf4>
  400ae0:	3c040040 	lui	a0,0x40
  400ae4:	1457ffe3 	bne	v0,s7,400a74 <main@@Base+0x74>
  400ae8:	3c040040 	lui	a0,0x40
  400aec:	1000000a 	b	400b18 <main@@Base+0x118>
  400af0:	00000000 	nop
  400af4:	3c020041 	lui	v0,0x41
  400af8:	8c451fd0 	lw	a1,8144(v0)
[31m  400afc:	8f998094 	lw	t9,printf[0m
  400b00:	0320f809 	jalr	t9
  400b04:	248415c0 	addiu	a0,a0,5568
--
  400fb8:	2463198c 	addiu	v1,v1,6540
  400fbc:	afa30120 	sw	v1,288(sp)
  400fc0:	3c030040 	lui	v1,0x40
  400fc4:	2463195c 	addiu	v1,v1,6492
  400fc8:	afa30124 	sw	v1,292(sp)
  400fcc:	3c030040 	lui	v1,0x40
  400fd0:	246318ec 	addiu	v1,v1,6380
  400fd4:	afa30130 	sw	v1,304(sp)
  400fd8:	12600047 	beqz	s3,4010f8 <main@@Base+0x6f8>
  400fdc:	02202021 	move	a0,s1
  400fe0:	afa2004c 	sw	v0,76(sp)
  400fe4:	afa00048 	sw	zero,72(sp)
  400fe8:	3c058008 	lui	a1,0x8008
  400fec:	34a54d0b 	ori	a1,a1,0x4d0b
  400ff0:	8f998098 	lw	t9,-32616(gp)
  400ff4:	0320f809 	jalr	t9
  400ff8:	27a60048 	addiu	a2,sp,72
  400ffc:	8fbc0018 	lw	gp,24(sp)
  401000:	1840000c 	blez	v0,401034 <main@@Base+0x634>
  401004:	00000000 	nop
  401008:	8e021fd8 	lw	v0,8152(s0)
  40100c:	144000e0 	bnez	v0,401390 <main@@Base+0x990>
  401010:	00000000 	nop
  401014:	8fa40130 	lw	a0,304(sp)
  401018:	8fa50040 	lw	a1,64(sp)
[31m  40101c:	8f998094 	lw	t9,printf[0m
  401020:	0320f809 	jalr	t9
  401024:	00000000 	nop
--
  4010dc:	8f998060 	lw	t9,-32672(gp)
  4010e0:	0320f809 	jalr	t9
  4010e4:	02403821 	move	a3,s2
  4010e8:	8fbc0018 	lw	gp,24(sp)
  4010ec:	8f99803c 	lw	t9,-32708(gp)
  4010f0:	0320f809 	jalr	t9
  4010f4:	24040001 	li	a0,1
  4010f8:	8e021fd8 	lw	v0,8152(s0)
  4010fc:	14400014 	bnez	v0,401150 <main@@Base+0x750>
  401100:	24040064 	li	a0,100
  401104:	8fb60040 	lw	s6,64(sp)
  401108:	8fb5002c 	lw	s5,44(sp)
  40110c:	0015aa82 	srl	s5,s5,0xa
  401110:	8f998058 	lw	t9,-32680(gp)
  401114:	02c40019 	multu	s6,a0
  401118:	00002812 	mflo	a1
  40111c:	00002010 	mfhi	a0
  401120:	8fa70028 	lw	a3,40(sp)
  401124:	0320f809 	jalr	t9
  401128:	00003021 	move	a2,zero
  40112c:	8fbc0018 	lw	gp,24(sp)
  401130:	afa30014 	sw	v1,20(sp)
  401134:	afa20010 	sw	v0,16(sp)
  401138:	8fa40124 	lw	a0,292(sp)
  40113c:	02a02821 	move	a1,s5
[31m  401140:	8f998094 	lw	t9,printf[0m
  401144:	0320f809 	jalr	t9
  401148:	02c03021 	move	a2,s6
--
  40131c:	8c971fd4 	lw	s7,8148(a0)
  401320:	8f998040 	lw	t9,-32704(gp)
  401324:	0320f809 	jalr	t9
  401328:	00000000 	nop
  40132c:	8fbc0018 	lw	gp,24(sp)
  401330:	8c440000 	lw	a0,0(v0)
  401334:	8f99808c 	lw	t9,-32628(gp)
  401338:	0320f809 	jalr	t9
  40133c:	00000000 	nop
  401340:	8fbc0018 	lw	gp,24(sp)
  401344:	afa20010 	sw	v0,16(sp)
  401348:	02a02021 	move	a0,s5
  40134c:	8fa50134 	lw	a1,308(sp)
  401350:	02c03021 	move	a2,s6
  401354:	8f998060 	lw	t9,-32672(gp)
  401358:	0320f809 	jalr	t9
  40135c:	02e03821 	move	a3,s7
  401360:	8fbc0018 	lw	gp,24(sp)
  401364:	1000000a 	b	401390 <main@@Base+0x990>
  401368:	00000000 	nop
  40136c:	8e021fd8 	lw	v0,8152(s0)
  401370:	14400007 	bnez	v0,401390 <main@@Base+0x990>
  401374:	00000000 	nop
  401378:	8fa40138 	lw	a0,312(sp)
  40137c:	8fa50040 	lw	a1,64(sp)
[31m  401380:	8f998094 	lw	t9,printf[0m
  401384:	0320f809 	jalr	t9
  401388:	00000000 	nop

[0m
[[0;33m*[0m] Function [0;33mprintf[0m used [0;33m4[0m times [0;33mflash_eraseall[0m

