[[0;33m*[0m] Binary protection state of [0;33muserconfig[0m
[REF] s12

  	RELRO          CANARY            NX           PIE       RPATH        RUNPATH      SYMBOLS      
  	[31mNo RELRO[0m       [31mNo Canary found[0m   [31mNX disabled[0m  [31mNo PIE[0m       [32mNo RPATH[0m     [32mNo RUNPATH[0m   [32mNo Symbols[0m

[0m
[[0;33m*[0m] Function [0;33mfprintf[0m tear down of [0;33muserconfig[0m

  401630:	0320f809 	jalr	t9
  401634:	02c02821 	move	a1,s6
  401638:	8fbc0018 	lw	gp,24(sp)
  40163c:	8fb00028 	lw	s0,40(sp)
  401640:	12000028 	beqz	s0,4016e4 <_ftext@@Base+0xba4>
  401644:	02202021 	move	a0,s1
  401648:	00002821 	move	a1,zero
  40164c:	8f998084 	lw	t9,-32636(gp)
  401650:	0320f809 	jalr	t9
  401654:	02403021 	move	a2,s2
  401658:	8fbc0018 	lw	gp,24(sp)
  40165c:	afb10010 	sw	s1,16(sp)
  401660:	afb20014 	sw	s2,20(sp)
  401664:	02a02021 	move	a0,s5
  401668:	02602821 	move	a1,s3
  40166c:	02003021 	move	a2,s0
  401670:	8f9980c4 	lw	t9,-32572(gp)
  401674:	0320f809 	jalr	t9
  401678:	24070001 	li	a3,1
  40167c:	8fbc0018 	lw	gp,24(sp)
  401680:	14400015 	bnez	v0,4016d8 <_ftext@@Base+0xb98>
  401684:	02603021 	move	a2,s3
  401688:	8ee40000 	lw	a0,0(s7)
  40168c:	afb10010 	sw	s1,16(sp)
  401690:	8fa50630 	lw	a1,1584(sp)
[31m  401694:	8f9980ac 	lw	t9,fprintf[0m
  401698:	0320f809 	jalr	t9
  40169c:	02003821 	move	a3,s0
--
  401eb8:	27bd0238 	addiu	sp,sp,568
  401ebc:	27bdffd0 	addiu	sp,sp,-48
  401ec0:	afbf002c 	sw	ra,44(sp)
  401ec4:	afb40028 	sw	s4,40(sp)
  401ec8:	afb30024 	sw	s3,36(sp)
  401ecc:	afb20020 	sw	s2,32(sp)
  401ed0:	afb1001c 	sw	s1,28(sp)
  401ed4:	afb00018 	sw	s0,24(sp)
  401ed8:	3c1c0042 	lui	gp,0x42
  401edc:	279cb030 	addiu	gp,gp,-20432
  401ee0:	afbc0010 	sw	gp,16(sp)
  401ee4:	00808021 	move	s0,a0
  401ee8:	10800051 	beqz	a0,402030 <_ftext@@Base+0x14f0>
  401eec:	00e09021 	move	s2,a3
  401ef0:	2cc20015 	sltiu	v0,a2,21
  401ef4:	1040004e 	beqz	v0,402030 <_ftext@@Base+0x14f0>
  401ef8:	00061880 	sll	v1,a2,0x2
  401efc:	3c020040 	lui	v0,0x40
  401f00:	24422f48 	addiu	v0,v0,12104
  401f04:	00431021 	addu	v0,v0,v1
  401f08:	8c420000 	lw	v0,0(v0)
  401f0c:	00400008 	jr	v0
  401f10:	00000000 	nop
  401f14:	3c050040 	lui	a1,0x40
  401f18:	8ce60000 	lw	a2,0(a3)
[31m  401f1c:	8f9980ac 	lw	t9,fprintf[0m
  401f20:	0320f809 	jalr	t9
  401f24:	24a52cc0 	addiu	a1,a1,11456
  401f28:	10000041 	b	402030 <_ftext@@Base+0x14f0>
  401f2c:	00000000 	nop
  401f30:	3c050040 	lui	a1,0x40
  401f34:	84e60000 	lh	a2,0(a3)
[31m  401f38:	8f9980ac 	lw	t9,fprintf[0m
  401f3c:	0320f809 	jalr	t9
  401f40:	24a52cc0 	addiu	a1,a1,11456
  401f44:	1000003a 	b	402030 <_ftext@@Base+0x14f0>
  401f48:	00000000 	nop
  401f4c:	3c050040 	lui	a1,0x40
  401f50:	80e60000 	lb	a2,0(a3)
[31m  401f54:	8f9980ac 	lw	t9,fprintf[0m
  401f58:	0320f809 	jalr	t9
  401f5c:	24a52cc0 	addiu	a1,a1,11456
  401f60:	10000033 	b	402030 <_ftext@@Base+0x14f0>
  401f64:	00000000 	nop
  401f68:	3c050040 	lui	a1,0x40
  401f6c:	8ce60000 	lw	a2,0(a3)
[31m  401f70:	8f9980ac 	lw	t9,fprintf[0m
  401f74:	0320f809 	jalr	t9
  401f78:	24a52cc4 	addiu	a1,a1,11460
  401f7c:	1000002c 	b	402030 <_ftext@@Base+0x14f0>
  401f80:	00000000 	nop
  401f84:	3c050040 	lui	a1,0x40
  401f88:	94e60000 	lhu	a2,0(a3)
[31m  401f8c:	8f9980ac 	lw	t9,fprintf[0m
  401f90:	0320f809 	jalr	t9
  401f94:	24a52ccc 	addiu	a1,a1,11468
  401f98:	10000025 	b	402030 <_ftext@@Base+0x14f0>
  401f9c:	00000000 	nop
  401fa0:	3c050040 	lui	a1,0x40
  401fa4:	90e60000 	lbu	a2,0(a3)
[31m  401fa8:	8f9980ac 	lw	t9,fprintf[0m
  401fac:	0320f809 	jalr	t9
  401fb0:	24a52cd4 	addiu	a1,a1,11476
  401fb4:	1000001e 	b	402030 <_ftext@@Base+0x14f0>
  401fb8:	00000000 	nop
  401fbc:	3c050040 	lui	a1,0x40
  401fc0:	24a52ca8 	addiu	a1,a1,11432
[31m  401fc4:	8f9980ac 	lw	t9,fprintf[0m
  401fc8:	0320f809 	jalr	t9
  401fcc:	00e03021 	move	a2,a3
  401fd0:	10000017 	b	402030 <_ftext@@Base+0x14f0>
  401fd4:	00000000 	nop
  401fd8:	24c6fffb 	addiu	a2,a2,-5
  401fdc:	24130001 	li	s3,1
  401fe0:	00d39804 	sllv	s3,s3,a2
  401fe4:	1a60000e 	blez	s3,402020 <_ftext@@Base+0x14e0>
  401fe8:	00008821 	move	s1,zero
  401fec:	3c140040 	lui	s4,0x40
  401ff0:	26942cdc 	addiu	s4,s4,11484
  401ff4:	02511021 	addu	v0,s2,s1
  401ff8:	02002021 	move	a0,s0
  401ffc:	90460000 	lbu	a2,0(v0)
[31m  402000:	8f9980ac 	lw	t9,fprintf[0m
  402004:	0320f809 	jalr	t9
  402008:	02802821 	move	a1,s4
--
  4020f0:	8fbc0010 	lw	gp,16(sp)
  4020f4:	1440004b 	bnez	v0,402224 <_ftext@@Base+0x16e4>
  4020f8:	3c040040 	lui	a0,0x40
  4020fc:	24842c28 	addiu	a0,a0,11304
  402100:	02002821 	move	a1,s0
  402104:	8f998034 	lw	t9,-32716(gp)
  402108:	0320f809 	jalr	t9
  40210c:	27a6021c 	addiu	a2,sp,540
  402110:	8fbc0010 	lw	gp,16(sp)
  402114:	8fbe021c 	lw	s8,540(sp)
  402118:	13c0003b 	beqz	s8,402208 <_ftext@@Base+0x16c8>
  40211c:	3c170040 	lui	s7,0x40
  402120:	3c020040 	lui	v0,0x40
  402124:	24422c60 	addiu	v0,v0,11360
  402128:	afa20220 	sw	v0,544(sp)
  40212c:	26f72cf8 	addiu	s7,s7,11512
  402130:	27b50018 	addiu	s5,sp,24
  402134:	8f998050 	lw	t9,-32688(gp)
  402138:	0320f809 	jalr	t9
  40213c:	03c02021 	move	a0,s8
  402140:	8fbc0010 	lw	gp,16(sp)
  402144:	0440002d 	bltz	v0,4021fc <_ftext@@Base+0x16bc>
  402148:	00409821 	move	s3,v0
  40214c:	02802021 	move	a0,s4
  402150:	8fa50220 	lw	a1,544(sp)
[31m  402154:	8f9980ac 	lw	t9,fprintf[0m
  402158:	0320f809 	jalr	t9
  40215c:	03c03021 	move	a2,s8
--
  40216c:	8f998080 	lw	t9,-32640(gp)
  402170:	0320f809 	jalr	t9
  402174:	02202821 	move	a1,s1
  402178:	8fbc0010 	lw	gp,16(sp)
  40217c:	1040001f 	beqz	v0,4021fc <_ftext@@Base+0x16bc>
  402180:	00409021 	move	s2,v0
  402184:	02602021 	move	a0,s3
  402188:	8f9980bc 	lw	t9,-32580(gp)
  40218c:	0320f809 	jalr	t9
  402190:	02202821 	move	a1,s1
  402194:	8fbc0010 	lw	gp,16(sp)
  402198:	00408021 	move	s0,v0
  40219c:	8f99806c 	lw	t9,-32660(gp)
  4021a0:	0320f809 	jalr	t9
  4021a4:	00402021 	move	a0,v0
  4021a8:	8fbc0010 	lw	gp,16(sp)
  4021ac:	0040b021 	move	s6,v0
  4021b0:	02002021 	move	a0,s0
  4021b4:	8f998038 	lw	t9,-32712(gp)
  4021b8:	0320f809 	jalr	t9
  4021bc:	02a02821 	move	a1,s5
  4021c0:	8fbc0010 	lw	gp,16(sp)
  4021c4:	0440000d 	bltz	v0,4021fc <_ftext@@Base+0x16bc>
  4021c8:	02802021 	move	a0,s4
  4021cc:	02e02821 	move	a1,s7
[31m  4021d0:	8f9980ac 	lw	t9,fprintf[0m
  4021d4:	0320f809 	jalr	t9
  4021d8:	02403021 	move	a2,s2

[0m
[[0;33m*[0m] Function [0;33mfprintf[0m used [0;33m11[0m times [0;33muserconfig[0m

