[[0;33m*[0m] Binary protection state of [0;33mupnp[0m
[REF] s12

  	RELRO          CANARY            NX           PIE       RPATH        RUNPATH      SYMBOLS      
  	[31mNo RELRO[0m       [31mNo Canary found[0m   [31mNX disabled[0m  [31mNo PIE[0m       [32mNo RPATH[0m     [32mNo RUNPATH[0m   [32mNo Symbols[0m

[0m
[[0;33m*[0m] Function [0;33msprintf[0m tear down of [0;33mupnp[0m

  40156c:	8fbc0020 	lw	gp,32(sp)
  401570:	24a5bf70 	addiu	a1,a1,-16528
  401574:	8f9980e0 	lw	t9,-32544(gp)
  401578:	0320f809 	jalr	t9
  40157c:	2406000f 	li	a2,15
  401580:	02203021 	move	a2,s1
  401584:	34058927 	li	a1,0x8927
  401588:	8fbc0020 	lw	gp,32(sp)
  40158c:	8f99819c 	lw	t9,-32356(gp)
  401590:	0320f809 	jalr	t9
  401594:	02002021 	move	a0,s0
  401598:	8fbc0020 	lw	gp,32(sp)
  40159c:	8f998040 	lw	t9,-32704(gp)
  4015a0:	0320f809 	jalr	t9
  4015a4:	02002021 	move	a0,s0
  4015a8:	3c050041 	lui	a1,0x41
  4015ac:	02402021 	move	a0,s2
  4015b0:	8fbc0020 	lw	gp,32(sp)
  4015b4:	24a5bf78 	addiu	a1,a1,-16520
  4015b8:	93a9003c 	lbu	t1,60(sp)
  4015bc:	93a8003d 	lbu	t0,61(sp)
  4015c0:	93a3003e 	lbu	v1,62(sp)
  4015c4:	93a2003f 	lbu	v0,63(sp)
  4015c8:	93a6003a 	lbu	a2,58(sp)
  4015cc:	93a7003b 	lbu	a3,59(sp)
[31m  4015d0:	8f998090 	lw	t9,sprintf[0m
  4015d4:	afa90010 	sw	t1,16(sp)
  4015d8:	afa80014 	sw	t0,20(sp)
--
  40461c:	0320f809 	jalr	t9
  404620:	afa50018 	sw	a1,24(sp)
  404624:	8fa50018 	lw	a1,24(sp)
  404628:	00408821 	move	s1,v0
  40462c:	8fbc0010 	lw	gp,16(sp)
  404630:	aca20000 	sw	v0,0(a1)
  404634:	2402ffff 	li	v0,-1
  404638:	8e030010 	lw	v1,16(s0)
  40463c:	8f998174 	lw	t9,-32396(gp)
  404640:	1062001f 	beq	v1,v0,4046c0 <ILibGetRawPacket@@Base+0x148>
  404644:	3c050041 	lui	a1,0x41
  404648:	02202021 	move	a0,s1
  40464c:	24060005 	li	a2,5
  404650:	0320f809 	jalr	t9
  404654:	24a5c0ec 	addiu	a1,a1,-16148
  404658:	8fbc0010 	lw	gp,16(sp)
  40465c:	8e05001c 	lw	a1,28(s0)
  404660:	8f998174 	lw	t9,-32396(gp)
  404664:	8e060020 	lw	a2,32(s0)
  404668:	0320f809 	jalr	t9
  40466c:	26240005 	addiu	a0,s1,5
  404670:	3c050041 	lui	a1,0x41
  404674:	8fbc0010 	lw	gp,16(sp)
  404678:	24a5c0f4 	addiu	a1,a1,-16140
  40467c:	8e130020 	lw	s3,32(s0)
[31m  404680:	8f998090 	lw	t9,sprintf[0m
  404684:	8e060010 	lw	a2,16(s0)
  404688:	26730005 	addiu	s3,s3,5
--
  404914:	2c84000b 	sltiu	a0,a0,11
  404918:	14800013 	bnez	a0,404968 <ILibGetRawPacket@@Base+0x3f0>
  40491c:	00000000 	nop
  404920:	10490011 	beq	v0,t1,404968 <ILibGetRawPacket@@Base+0x3f0>
  404924:	00000000 	nop
  404928:	1048000f 	beq	v0,t0,404968 <ILibGetRawPacket@@Base+0x3f0>
  40492c:	00000000 	nop
  404930:	1047000d 	beq	v0,a3,404968 <ILibGetRawPacket@@Base+0x3f0>
  404934:	00000000 	nop
  404938:	1043000b 	beq	v0,v1,404968 <ILibGetRawPacket@@Base+0x3f0>
  40493c:	00000000 	nop
  404940:	105e0009 	beq	v0,s8,404968 <ILibGetRawPacket@@Base+0x3f0>
  404944:	00000000 	nop
  404948:	10570007 	beq	v0,s7,404968 <ILibGetRawPacket@@Base+0x3f0>
  40494c:	00000000 	nop
  404950:	10560006 	beq	v0,s6,40496c <ILibGetRawPacket@@Base+0x3f4>
  404954:	02302021 	addu	a0,s1,s0
  404958:	10550004 	beq	v0,s5,40496c <ILibGetRawPacket@@Base+0x3f4>
  40495c:	00000000 	nop
  404960:	14540005 	bne	v0,s4,404978 <ILibGetRawPacket@@Base+0x400>
  404964:	01402821 	move	a1,t2
  404968:	02302021 	addu	a0,s1,s0
  40496c:	26100001 	addiu	s0,s0,1
  404970:	10000016 	b	4049cc <ILibGetRawPacket@@Base+0x454>
  404974:	a0820000 	sb	v0,0(a0)
[31m  404978:	8f998090 	lw	t9,sprintf[0m
  40497c:	8fa40020 	lw	a0,32(sp)
  404980:	afa30030 	sw	v1,48(sp)
--
  4077cc:	8fb40040 	lw	s4,64(sp)
  4077d0:	8fb3003c 	lw	s3,60(sp)
  4077d4:	8fb20038 	lw	s2,56(sp)
  4077d8:	8fb10034 	lw	s1,52(sp)
  4077dc:	8fb00030 	lw	s0,48(sp)
  4077e0:	03200008 	jr	t9
  4077e4:	27bd0048 	addiu	sp,sp,72
  4077e8:	27bdffd8 	addiu	sp,sp,-40
  4077ec:	afbf0024 	sw	ra,36(sp)
  4077f0:	afb00020 	sw	s0,32(sp)
  4077f4:	3c1c0042 	lui	gp,0x42
  4077f8:	279c5060 	addiu	gp,gp,20576
  4077fc:	afbc0018 	sw	gp,24(sp)
  407800:	8f99815c 	lw	t9,-32420(gp)
  407804:	00808021 	move	s0,a0
  407808:	0320f809 	jalr	t9
  40780c:	24040010 	li	a0,16
  407810:	3c050041 	lui	a1,0x41
  407814:	8e060810 	lw	a2,2064(s0)
  407818:	00402021 	move	a0,v0
  40781c:	24a5c1c0 	addiu	a1,a1,-15936
  407820:	8fbc0018 	lw	gp,24(sp)
  407824:	00408021 	move	s0,v0
  407828:	00061403 	sra	v0,a2,0x10
  40782c:	304200ff 	andi	v0,v0,0xff
[31m  407830:	8f998090 	lw	t9,sprintf[0m
  407834:	afa20010 	sw	v0,16(sp)
  407838:	00063a03 	sra	a3,a2,0x8
--
  40793c:	02602021 	move	a0,s3
  407940:	02802021 	move	a0,s4
  407944:	8fbc0018 	lw	gp,24(sp)
  407948:	8f998068 	lw	t9,strlen
  40794c:	0320f809 	jalr	t9
  407950:	0040a821 	move	s5,v0
  407954:	02402021 	move	a0,s2
  407958:	8fbc0018 	lw	gp,24(sp)
  40795c:	00408821 	move	s1,v0
  407960:	02b18821 	addu	s1,s5,s1
  407964:	8f998068 	lw	t9,strlen
  407968:	0320f809 	jalr	t9
  40796c:	26310043 	addiu	s1,s1,67
  407970:	8fbc0018 	lw	gp,24(sp)
  407974:	00021040 	sll	v0,v0,0x1
  407978:	8f99815c 	lw	t9,-32420(gp)
  40797c:	0320f809 	jalr	t9
  407980:	02222021 	addu	a0,s1,v0
  407984:	3c050041 	lui	a1,0x41
  407988:	02403021 	move	a2,s2
  40798c:	8fbc0018 	lw	gp,24(sp)
  407990:	02603821 	move	a3,s3
  407994:	24a5c1e8 	addiu	a1,a1,-15896
  407998:	afb40010 	sw	s4,16(sp)
  40799c:	00402021 	move	a0,v0
[31m  4079a0:	8f998090 	lw	t9,sprintf[0m
  4079a4:	00408821 	move	s1,v0
  4079a8:	0320f809 	jalr	t9
--
  407afc:	27bdffc8 	addiu	sp,sp,-56
  407b00:	afbf0034 	sw	ra,52(sp)
  407b04:	afb30030 	sw	s3,48(sp)
  407b08:	afb2002c 	sw	s2,44(sp)
  407b0c:	afb10028 	sw	s1,40(sp)
  407b10:	afb00024 	sw	s0,36(sp)
  407b14:	3c1c0042 	lui	gp,0x42
  407b18:	279c5060 	addiu	gp,gp,20576
  407b1c:	afbc0010 	sw	gp,16(sp)
  407b20:	8f998068 	lw	t9,strlen
  407b24:	00808021 	move	s0,a0
  407b28:	afa60018 	sw	a2,24(sp)
  407b2c:	00c02021 	move	a0,a2
  407b30:	0320f809 	jalr	t9
  407b34:	00a09021 	move	s2,a1
  407b38:	8fbc0010 	lw	gp,16(sp)
  407b3c:	8f99815c 	lw	t9,-32420(gp)
  407b40:	0320f809 	jalr	t9
  407b44:	2444018b 	addiu	a0,v0,395
  407b48:	3c050041 	lui	a1,0x41
  407b4c:	8fbc0010 	lw	gp,16(sp)
  407b50:	24a5c38c 	addiu	a1,a1,-15476
  407b54:	00402021 	move	a0,v0
  407b58:	8fa60018 	lw	a2,24(sp)
  407b5c:	00408821 	move	s1,v0
[31m  407b60:	8f998090 	lw	t9,sprintf[0m
  407b64:	00c03821 	move	a3,a2
  407b68:	0320f809 	jalr	t9
  407b6c:	02403021 	move	a2,s2
  407b70:	2404003b 	li	a0,59
  407b74:	8fbc0010 	lw	gp,16(sp)
  407b78:	8f99815c 	lw	t9,-32420(gp)
  407b7c:	0320f809 	jalr	t9
  407b80:	00409821 	move	s3,v0
  407b84:	3c050041 	lui	a1,0x41
  407b88:	02603021 	move	a2,s3
  407b8c:	8fbc0010 	lw	gp,16(sp)
  407b90:	24a5c510 	addiu	a1,a1,-15088
  407b94:	00402021 	move	a0,v0
[31m  407b98:	8f998090 	lw	t9,sprintf[0m
  407b9c:	0320f809 	jalr	t9
  407ba0:	00409021 	move	s2,v0
--
  407d6c:	8e023918 	lw	v0,14616(s0)
  407d70:	8fbc0018 	lw	gp,24(sp)
  407d74:	afa30020 	sw	v1,32(sp)
  407d78:	00521021 	addu	v0,v0,s2
  407d7c:	8c440000 	lw	a0,0(v0)
  407d80:	24020004 	li	v0,4
  407d84:	8f998108 	lw	t9,-32504(gp)
  407d88:	0320f809 	jalr	t9
  407d8c:	afa20010 	sw	v0,16(sp)
  407d90:	8fbc0018 	lw	gp,24(sp)
  407d94:	14400081 	bnez	v0,407f9c <UPnPGetLocalInterfaceToHost@@Base+0x328>
  407d98:	3c150041 	lui	s5,0x41
  407d9c:	3c140041 	lui	s4,0x41
  407da0:	3c1e0041 	lui	s8,0x41
  407da4:	26b5c550 	addiu	s5,s5,-15024
  407da8:	2694c5c0 	addiu	s4,s4,-14912
  407dac:	27dec5e8 	addiu	s8,s8,-14872
  407db0:	0000b821 	move	s7,zero
  407db4:	24130010 	li	s3,16
  407db8:	3c020041 	lui	v0,0x41
  407dbc:	3c070041 	lui	a3,0x41
  407dc0:	02202021 	move	a0,s1
  407dc4:	8e060024 	lw	a2,36(s0)
  407dc8:	2442c5d8 	addiu	v0,v0,-14888
  407dcc:	02a02821 	move	a1,s5
[31m  407dd0:	8f998090 	lw	t9,sprintf[0m
  407dd4:	24e7c5c4 	addiu	a3,a3,-14908
  407dd8:	afa20010 	sw	v0,16(sp)
  407ddc:	0320f809 	jalr	t9
  407de0:	afb40014 	sw	s4,20(sp)
  407de4:	02202821 	move	a1,s1
  407de8:	00003821 	move	a3,zero
  407dec:	8e033918 	lw	v1,14616(s0)
  407df0:	00403021 	move	a2,v0
  407df4:	8fbc0018 	lw	gp,24(sp)
  407df8:	00721821 	addu	v1,v1,s2
  407dfc:	8f9980dc 	lw	t9,-32548(gp)
  407e00:	8c640000 	lw	a0,0(v1)
  407e04:	afb60010 	sw	s6,16(sp)
  407e08:	0320f809 	jalr	t9
  407e0c:	afb30014 	sw	s3,20(sp)
  407e10:	8fbc0018 	lw	gp,24(sp)
  407e14:	0440005b 	bltz	v0,407f84 <UPnPGetLocalInterfaceToHost@@Base+0x310>
  407e18:	02202021 	move	a0,s1
  407e1c:	8e020024 	lw	v0,36(s0)
[31m  407e20:	8f998090 	lw	t9,sprintf[0m
  407e24:	02a02821 	move	a1,s5
  407e28:	00403021 	move	a2,v0
  407e2c:	afbe0010 	sw	s8,16(sp)
  407e30:	02803821 	move	a3,s4
  407e34:	0320f809 	jalr	t9
  407e38:	afa20014 	sw	v0,20(sp)
  407e3c:	02202821 	move	a1,s1
  407e40:	00003821 	move	a3,zero
  407e44:	8e033918 	lw	v1,14616(s0)
  407e48:	00403021 	move	a2,v0
  407e4c:	8fbc0018 	lw	gp,24(sp)
  407e50:	00721821 	addu	v1,v1,s2
  407e54:	8f9980dc 	lw	t9,-32548(gp)
  407e58:	8c640000 	lw	a0,0(v1)
  407e5c:	afb60010 	sw	s6,16(sp)
  407e60:	0320f809 	jalr	t9
  407e64:	afb30014 	sw	s3,20(sp)
  407e68:	8fbc0018 	lw	gp,24(sp)
  407e6c:	04400045 	bltz	v0,407f84 <UPnPGetLocalInterfaceToHost@@Base+0x310>
  407e70:	02202021 	move	a0,s1
  407e74:	8f878170 	lw	a3,-32400(gp)
  407e78:	8e060024 	lw	a2,36(s0)
  407e7c:	02a02821 	move	a1,s5
[31m  407e80:	8f998090 	lw	t9,sprintf[0m
  407e84:	24e20002 	addiu	v0,a3,2
  407e88:	afa20010 	sw	v0,16(sp)
  407e8c:	0320f809 	jalr	t9
  407e90:	afb40014 	sw	s4,20(sp)
  407e94:	02202821 	move	a1,s1
  407e98:	00003821 	move	a3,zero
  407e9c:	8e033918 	lw	v1,14616(s0)
  407ea0:	00403021 	move	a2,v0
  407ea4:	8fbc0018 	lw	gp,24(sp)
  407ea8:	00721821 	addu	v1,v1,s2
  407eac:	8f9980dc 	lw	t9,-32548(gp)
  407eb0:	8c640000 	lw	a0,0(v1)
  407eb4:	afb60010 	sw	s6,16(sp)
  407eb8:	0320f809 	jalr	t9
  407ebc:	afb30014 	sw	s3,20(sp)
  407ec0:	8fbc0018 	lw	gp,24(sp)
  407ec4:	0440002f 	bltz	v0,407f84 <UPnPGetLocalInterfaceToHost@@Base+0x310>
  407ec8:	3c020041 	lui	v0,0x41
  407ecc:	3c070041 	lui	a3,0x41
  407ed0:	02202021 	move	a0,s1
  407ed4:	8e060024 	lw	a2,36(s0)
  407ed8:	2442c338 	addiu	v0,v0,-15560
  407edc:	02a02821 	move	a1,s5
[31m  407ee0:	8f998090 	lw	t9,sprintf[0m
  407ee4:	24e7c5f0 	addiu	a3,a3,-14864
  407ee8:	afa20010 	sw	v0,16(sp)
  407eec:	0320f809 	jalr	t9
  407ef0:	afb40014 	sw	s4,20(sp)
  407ef4:	02202821 	move	a1,s1
  407ef8:	00003821 	move	a3,zero
  407efc:	8e033918 	lw	v1,14616(s0)
  407f00:	00403021 	move	a2,v0
  407f04:	8fbc0018 	lw	gp,24(sp)
  407f08:	00721821 	addu	v1,v1,s2
  407f0c:	8f9980dc 	lw	t9,-32548(gp)
  407f10:	8c640000 	lw	a0,0(v1)
  407f14:	afb60010 	sw	s6,16(sp)
  407f18:	0320f809 	jalr	t9
  407f1c:	afb30014 	sw	s3,20(sp)
  407f20:	8fbc0018 	lw	gp,24(sp)
  407f24:	04400017 	bltz	v0,407f84 <UPnPGetLocalInterfaceToHost@@Base+0x310>
  407f28:	02202021 	move	a0,s1
  407f2c:	8e023954 	lw	v0,14676(s0)
[31m  407f30:	8f998090 	lw	t9,sprintf[0m
  407f34:	02a02821 	move	a1,s5
  407f38:	00403021 	move	a2,v0
--
  408398:	27a60020 	addiu	a2,sp,32
  40839c:	00002821 	move	a1,zero
  4083a0:	8fbc0018 	lw	gp,24(sp)
  4083a4:	8f9980bc 	lw	t9,-32580(gp)
  4083a8:	0320f809 	jalr	t9
  4083ac:	27a40024 	addiu	a0,sp,36
  4083b0:	02002021 	move	a0,s0
  4083b4:	8fa30020 	lw	v1,32(sp)
  4083b8:	8fbc0018 	lw	gp,24(sp)
  4083bc:	8fa20024 	lw	v0,36(sp)
  4083c0:	8f998068 	lw	t9,strlen
  4083c4:	00621021 	addu	v0,v1,v0
  4083c8:	0320f809 	jalr	t9
  4083cc:	ae420024 	sw	v0,36(s2)
  4083d0:	8fbc0018 	lw	gp,24(sp)
  4083d4:	8f99815c 	lw	t9,-32420(gp)
  4083d8:	0320f809 	jalr	t9
  4083dc:	24440088 	addiu	a0,v0,136
  4083e0:	3c050041 	lui	a1,0x41
  4083e4:	02003821 	move	a3,s0
  4083e8:	8fbc0018 	lw	gp,24(sp)
  4083ec:	00409021 	move	s2,v0
  4083f0:	24a5c654 	addiu	a1,a1,-14764
  4083f4:	00402021 	move	a0,v0
  4083f8:	8fa20020 	lw	v0,32(sp)
[31m  4083fc:	8f998090 	lw	t9,sprintf[0m
  408400:	8f86813c 	lw	a2,-32452(gp)
  408404:	0320f809 	jalr	t9
--
  408864:	24843948 	addiu	a0,a0,14664
  408868:	8fbc0010 	lw	gp,16(sp)
  40886c:	1040001b 	beqz	v0,4088dc <UPnPGetLocalInterfaceToHost@@Base+0xc68>
  408870:	00409021 	move	s2,v0
  408874:	8c42001c 	lw	v0,28(v0)
  408878:	2442ffff 	addiu	v0,v0,-1
  40887c:	1440000f 	bnez	v0,4088bc <UPnPGetLocalInterfaceToHost@@Base+0xc48>
  408880:	ae42001c 	sw	v0,28(s2)
  408884:	8f99803c 	lw	t9,-32708(gp)
  408888:	8e440014 	lw	a0,20(s2)
  40888c:	0320f809 	jalr	t9
  408890:	00000000 	nop
  408894:	8fbc0010 	lw	gp,16(sp)
  408898:	8e440000 	lw	a0,0(s2)
  40889c:	8f99803c 	lw	t9,-32708(gp)
  4088a0:	0320f809 	jalr	t9
  4088a4:	00000000 	nop
  4088a8:	8fbc0010 	lw	gp,16(sp)
  4088ac:	8f99803c 	lw	t9,-32708(gp)
  4088b0:	0320f809 	jalr	t9
  4088b4:	02402021 	move	a0,s2
  4088b8:	8fbc0010 	lw	gp,16(sp)
  4088bc:	3c050041 	lui	a1,0x41
  4088c0:	3c070041 	lui	a3,0x41
  4088c4:	02202021 	move	a0,s1
[31m  4088c8:	8f998090 	lw	t9,sprintf[0m
  4088cc:	24a5c70c 	addiu	a1,a1,-14580
  4088d0:	24e7c734 	addiu	a3,a3,-14540
  4088d4:	10000008 	b	4088f8 <UPnPGetLocalInterfaceToHost@@Base+0xc84>
  4088d8:	240600c8 	li	a2,200
  4088dc:	3c050041 	lui	a1,0x41
  4088e0:	3c070041 	lui	a3,0x41
  4088e4:	02202021 	move	a0,s1
[31m  4088e8:	8f998090 	lw	t9,sprintf[0m
  4088ec:	24a5c70c 	addiu	a1,a1,-14580
  4088f0:	24e7c738 	addiu	a3,a3,-14536
--
  408e04:	8f998178 	lw	t9,-32392(gp)
  408e08:	0320f809 	jalr	t9
  408e0c:	02402021 	move	a0,s2
  408e10:	02001021 	move	v0,s0
  408e14:	8fbf004c 	lw	ra,76(sp)
  408e18:	8fbe0048 	lw	s8,72(sp)
  408e1c:	8fb70044 	lw	s7,68(sp)
  408e20:	8fb60040 	lw	s6,64(sp)
  408e24:	8fb5003c 	lw	s5,60(sp)
  408e28:	8fb40038 	lw	s4,56(sp)
  408e2c:	8fb30034 	lw	s3,52(sp)
  408e30:	8fb20030 	lw	s2,48(sp)
  408e34:	8fb1002c 	lw	s1,44(sp)
  408e38:	8fb00028 	lw	s0,40(sp)
  408e3c:	03e00008 	jr	ra
  408e40:	27bd0050 	addiu	sp,sp,80
  408e44:	27bdff00 	addiu	sp,sp,-256
  408e48:	afbf00fc 	sw	ra,252(sp)
  408e4c:	afb300f8 	sw	s3,248(sp)
  408e50:	afb200f4 	sw	s2,244(sp)
  408e54:	afb100f0 	sw	s1,240(sp)
  408e58:	afb000ec 	sw	s0,236(sp)
  408e5c:	3c1c0042 	lui	gp,0x42
  408e60:	279c5060 	addiu	gp,gp,20576
  408e64:	afbc0018 	sw	gp,24(sp)
[31m  408e68:	8f998090 	lw	t9,sprintf[0m
  408e6c:	00a08021 	move	s0,a1
  408e70:	3c050041 	lui	a1,0x41
--
  408f14:	24020012 	li	v0,18
  408f18:	8e220008 	lw	v0,8(s1)
  408f1c:	90430000 	lbu	v1,0(v0)
  408f20:	2402002f 	li	v0,47
  408f24:	1462003f 	bne	v1,v0,409024 <UPnPGetLocalInterfaceToHost@@Base+0x13b0>
  408f28:	00000000 	nop
  408f2c:	1000000e 	b	408f68 <UPnPGetLocalInterfaceToHost@@Base+0x12f4>
  408f30:	27b10020 	addiu	s1,sp,32
  408f34:	1642003b 	bne	s2,v0,409024 <UPnPGetLocalInterfaceToHost@@Base+0x13b0>
  408f38:	00000000 	nop
  408f3c:	8e240008 	lw	a0,8(s1)
  408f40:	3c050041 	lui	a1,0x41
  408f44:	8f9980d4 	lw	t9,-32556(gp)
  408f48:	24a5c7e4 	addiu	a1,a1,-14364
  408f4c:	24840001 	addiu	a0,a0,1
  408f50:	0320f809 	jalr	t9
  408f54:	24060011 	li	a2,17
  408f58:	8fbc0018 	lw	gp,24(sp)
  408f5c:	14400031 	bnez	v0,409024 <UPnPGetLocalInterfaceToHost@@Base+0x13b0>
  408f60:	00000000 	nop
  408f64:	27b10020 	addiu	s1,sp,32
  408f68:	3c050041 	lui	a1,0x41
  408f6c:	27a20084 	addiu	v0,sp,132
  408f70:	3c070041 	lui	a3,0x41
  408f74:	02202021 	move	a0,s1
[31m  408f78:	8f998090 	lw	t9,sprintf[0m
  408f7c:	24a5c7ac 	addiu	a1,a1,-14420
  408f80:	afa20010 	sw	v0,16(sp)
--
  408fd4:	27b10020 	addiu	s1,sp,32
  408fd8:	8e02081c 	lw	v0,2076(s0)
  408fdc:	8e040814 	lw	a0,2068(s0)
  408fe0:	8c460034 	lw	a2,52(v0)
  408fe4:	8c450030 	lw	a1,48(v0)
  408fe8:	10000047 	b	409108 <UPnPGetLocalInterfaceToHost@@Base+0x1494>
  408fec:	00003821 	move	a3,zero
  408ff0:	8f9980d4 	lw	t9,-32556(gp)
  408ff4:	02602021 	move	a0,s3
  408ff8:	24a5c840 	addiu	a1,a1,-14272
  408ffc:	0320f809 	jalr	t9
  409000:	24060004 	li	a2,4
  409004:	8fbc0018 	lw	gp,24(sp)
  409008:	1440002e 	bnez	v0,4090c4 <UPnPGetLocalInterfaceToHost@@Base+0x1450>
  40900c:	02202021 	move	a0,s1
  409010:	0c10231f 	jal	408c7c <UPnPGetLocalInterfaceToHost@@Base+0x1008>
  409014:	02002821 	move	a1,s0
  409018:	8fbc0018 	lw	gp,24(sp)
  40901c:	10400043 	beqz	v0,40912c <UPnPGetLocalInterfaceToHost@@Base+0x14b8>
  409020:	00000000 	nop
  409024:	27b10020 	addiu	s1,sp,32
  409028:	3c050041 	lui	a1,0x41
  40902c:	27a20084 	addiu	v0,sp,132
  409030:	3c070041 	lui	a3,0x41
  409034:	02202021 	move	a0,s1
[31m  409038:	8f998090 	lw	t9,sprintf[0m
  40903c:	24a5c7f8 	addiu	a1,a1,-14344
  409040:	afa20010 	sw	v0,16(sp)
--
  409074:	14400013 	bnez	v0,4090c4 <UPnPGetLocalInterfaceToHost@@Base+0x1450>
  409078:	02202021 	move	a0,s1
  40907c:	0c10214e 	jal	408538 <UPnPGetLocalInterfaceToHost@@Base+0x8c4>
  409080:	02002821 	move	a1,s0
  409084:	1000000d 	b	4090bc <UPnPGetLocalInterfaceToHost@@Base+0x1448>
  409088:	00000000 	nop
  40908c:	1443000d 	bne	v0,v1,4090c4 <UPnPGetLocalInterfaceToHost@@Base+0x1450>
  409090:	3c050041 	lui	a1,0x41
  409094:	8f9980d4 	lw	t9,-32556(gp)
  409098:	8e240000 	lw	a0,0(s1)
  40909c:	24a5c854 	addiu	a1,a1,-14252
  4090a0:	0320f809 	jalr	t9
  4090a4:	2406000b 	li	a2,11
  4090a8:	8fbc0018 	lw	gp,24(sp)
  4090ac:	14400005 	bnez	v0,4090c4 <UPnPGetLocalInterfaceToHost@@Base+0x1450>
  4090b0:	02202021 	move	a0,s1
  4090b4:	0c1021d9 	jal	408764 <UPnPGetLocalInterfaceToHost@@Base+0xaf0>
  4090b8:	02002821 	move	a1,s0
  4090bc:	1000001b 	b	40912c <UPnPGetLocalInterfaceToHost@@Base+0x14b8>
  4090c0:	00000000 	nop
  4090c4:	27b10020 	addiu	s1,sp,32
  4090c8:	3c050041 	lui	a1,0x41
  4090cc:	27a20084 	addiu	v0,sp,132
  4090d0:	3c070041 	lui	a3,0x41
  4090d4:	02202021 	move	a0,s1
[31m  4090d8:	8f998090 	lw	t9,sprintf[0m
  4090dc:	24a5c7f8 	addiu	a1,a1,-14344
  4090e0:	afa20010 	sw	v0,16(sp)
--
  409f24:	2442acf0 	addiu	v0,v0,-21264
  409f28:	ae020000 	sw	v0,0(s0)
  409f2c:	3c020041 	lui	v0,0x41
  409f30:	244296d8 	addiu	v0,v0,-26920
  409f34:	ae020004 	sw	v0,4(s0)
  409f38:	3c020040 	lui	v0,0x40
  409f3c:	24427fd8 	addiu	v0,v0,32728
  409f40:	8fbc0030 	lw	gp,48(sp)
  409f44:	ae020008 	sw	v0,8(s0)
  409f48:	ae00001c 	sw	zero,28(s0)
  409f4c:	12200028 	beqz	s1,409ff0 <UPnPCreateMicroStack@@Base+0x16c>
  409f50:	ae000038 	sw	zero,56(s0)
  409f54:	8f998068 	lw	t9,strlen
  409f58:	0320f809 	jalr	t9
  409f5c:	02202021 	move	a0,s1
  409f60:	8fbc0030 	lw	gp,48(sp)
  409f64:	8f99815c 	lw	t9,-32420(gp)
  409f68:	0320f809 	jalr	t9
  409f6c:	24440006 	addiu	a0,v0,6
  409f70:	3c050041 	lui	a1,0x41
  409f74:	02c03821 	move	a3,s6
  409f78:	8fbc0030 	lw	gp,48(sp)
  409f7c:	24a5c950 	addiu	a1,a1,-14000
  409f80:	02203021 	move	a2,s1
  409f84:	00402021 	move	a0,v0
[31m  409f88:	8f998090 	lw	t9,sprintf[0m
  409f8c:	0320f809 	jalr	t9
  409f90:	ae020020 	sw	v0,32(s0)
  409f94:	02202021 	move	a0,s1
  409f98:	8fbc0030 	lw	gp,48(sp)
  409f9c:	8e020020 	lw	v0,32(s0)
  409fa0:	8f998068 	lw	t9,strlen
  409fa4:	24420005 	addiu	v0,v0,5
  409fa8:	0320f809 	jalr	t9
  409fac:	ae020024 	sw	v0,36(s0)
  409fb0:	8fbc0030 	lw	gp,48(sp)
  409fb4:	8f99815c 	lw	t9,-32420(gp)
  409fb8:	0320f809 	jalr	t9
  409fbc:	24440006 	addiu	a0,v0,6
  409fc0:	3c050041 	lui	a1,0x41
  409fc4:	02203021 	move	a2,s1
  409fc8:	8fbc0030 	lw	gp,48(sp)
  409fcc:	24a5c95c 	addiu	a1,a1,-13988
  409fd0:	00402021 	move	a0,v0
[31m  409fd4:	8f998090 	lw	t9,sprintf[0m
  409fd8:	0320f809 	jalr	t9
  409fdc:	ae023950 	sw	v0,14672(s0)
--
  409fe4:	8fbc0030 	lw	gp,48(sp)
  409fe8:	24420005 	addiu	v0,v0,5
  409fec:	ae023954 	sw	v0,14676(s0)
  409ff0:	1260000f 	beqz	s3,40a030 <UPnPCreateMicroStack@@Base+0x1ac>
  409ff4:	00000000 	nop
  409ff8:	8f998068 	lw	t9,strlen
  409ffc:	0320f809 	jalr	t9
  40a000:	02602021 	move	a0,s3
  40a004:	8fbc0030 	lw	gp,48(sp)
  40a008:	8f99815c 	lw	t9,-32420(gp)
  40a00c:	0320f809 	jalr	t9
  40a010:	24440001 	addiu	a0,v0,1
  40a014:	02602821 	move	a1,s3
  40a018:	8fbc0030 	lw	gp,48(sp)
  40a01c:	00402021 	move	a0,v0
  40a020:	8f9981ac 	lw	t9,-32340(gp)
  40a024:	0320f809 	jalr	t9
  40a028:	ae020028 	sw	v0,40(s0)
  40a02c:	8fbc0030 	lw	gp,48(sp)
  40a030:	8f99815c 	lw	t9,-32420(gp)
  40a034:	0320f809 	jalr	t9
  40a038:	24040800 	li	a0,2048
  40a03c:	24050050 	li	a1,80
  40a040:	8fbc0030 	lw	gp,48(sp)
  40a044:	ae020030 	sw	v0,48(s0)
[31m  40a048:	8f998090 	lw	t9,sprintf[0m
  40a04c:	9206105c 	lbu	a2,4188(s0)
  40a050:	9207105d 	lbu	a3,4189(s0)
--
  40a068:	afa30010 	sw	v1,16(sp)
  40a06c:	24a5c968 	addiu	a1,a1,-13976
  40a070:	0320f809 	jalr	t9
  40a074:	afa20014 	sw	v0,20(sp)
  40a078:	10000007 	b	40a098 <UPnPCreateMicroStack@@Base+0x214>
  40a07c:	00000000 	nop
  40a080:	3c050041 	lui	a1,0x41
  40a084:	afa30010 	sw	v1,16(sp)
  40a088:	24a5c97c 	addiu	a1,a1,-13956
  40a08c:	afa20014 	sw	v0,20(sp)
  40a090:	0320f809 	jalr	t9
  40a094:	afb40018 	sw	s4,24(sp)
  40a098:	8fbc0030 	lw	gp,48(sp)
  40a09c:	3c050041 	lui	a1,0x41
  40a0a0:	8e080028 	lw	t0,40(s0)
  40a0a4:	27a70040 	addiu	a3,sp,64
  40a0a8:	8f8980cc 	lw	t1,-32564(gp)
  40a0ac:	24a5c994 	addiu	a1,a1,-13932
  40a0b0:	8e030024 	lw	v1,36(s0)
  40a0b4:	afa90014 	sw	t1,20(sp)
  40a0b8:	8f8980f8 	lw	t1,-32520(gp)
  40a0bc:	8f82813c 	lw	v0,-32452(gp)
  40a0c0:	afa90018 	sw	t1,24(sp)
  40a0c4:	8f898138 	lw	t1,-32456(gp)
  40a0c8:	00403021 	move	a2,v0
[31m  40a0cc:	8f998090 	lw	t9,sprintf[0m
  40a0d0:	afa9001c 	sw	t1,28(sp)
  40a0d4:	8f8980b8 	lw	t1,-32584(gp)
--
  40a2f0:	144000e1 	bnez	v0,40a678 <UPnPIPAddressListChanged@@Base+0x4dc>
  40a2f4:	3c170041 	lui	s7,0x41
  40a2f8:	3c130041 	lui	s3,0x41
  40a2fc:	8f95813c 	lw	s5,-32452(gp)
  40a300:	26f7cd40 	addiu	s7,s7,-12992
  40a304:	2673c5c0 	addiu	s3,s3,-14912
  40a308:	0000f021 	move	s8,zero
  40a30c:	24140010 	li	s4,16
  40a310:	8e021060 	lw	v0,4192(s0)
  40a314:	02402021 	move	a0,s2
  40a318:	96091076 	lhu	t1,4214(s0)
  40a31c:	02e02821 	move	a1,s7
  40a320:	00511021 	addu	v0,v0,s1
  40a324:	8c460000 	lw	a2,0(v0)
  40a328:	8e02392c 	lw	v0,14636(s0)
  40a32c:	8e030024 	lw	v1,36(s0)
  40a330:	00064203 	sra	t0,a2,0x8
  40a334:	afa20028 	sw	v0,40(sp)
  40a338:	3c020041 	lui	v0,0x41
  40a33c:	310800ff 	andi	t0,t0,0xff
  40a340:	2442c5c4 	addiu	v0,v0,-14908
  40a344:	00063c03 	sra	a3,a2,0x10
  40a348:	afa20024 	sw	v0,36(sp)
  40a34c:	3c020041 	lui	v0,0x41
  40a350:	30e700ff 	andi	a3,a3,0xff
[31m  40a354:	8f998090 	lw	t9,sprintf[0m
  40a358:	2442c5d8 	addiu	v0,v0,-14888
  40a35c:	afa80010 	sw	t0,16(sp)
--
  40a38c:	8e033918 	lw	v1,14616(s0)
  40a390:	00403021 	move	a2,v0
  40a394:	8fbc0038 	lw	gp,56(sp)
  40a398:	00711821 	addu	v1,v1,s1
  40a39c:	8f9980dc 	lw	t9,-32548(gp)
  40a3a0:	8c640000 	lw	a0,0(v1)
  40a3a4:	afb60010 	sw	s6,16(sp)
  40a3a8:	0320f809 	jalr	t9
  40a3ac:	afb40014 	sw	s4,20(sp)
  40a3b0:	8fbc0038 	lw	gp,56(sp)
  40a3b4:	044000aa 	bltz	v0,40a660 <UPnPIPAddressListChanged@@Base+0x4c4>
  40a3b8:	02402021 	move	a0,s2
  40a3bc:	8e031060 	lw	v1,4192(s0)
  40a3c0:	8e020024 	lw	v0,36(s0)
  40a3c4:	02e02821 	move	a1,s7
  40a3c8:	00711821 	addu	v1,v1,s1
  40a3cc:	8c660000 	lw	a2,0(v1)
  40a3d0:	96091076 	lhu	t1,4214(s0)
  40a3d4:	00064203 	sra	t0,a2,0x8
  40a3d8:	8e03392c 	lw	v1,14636(s0)
  40a3dc:	310800ff 	andi	t0,t0,0xff
  40a3e0:	afa20030 	sw	v0,48(sp)
  40a3e4:	afa20020 	sw	v0,32(sp)
  40a3e8:	3c020041 	lui	v0,0x41
  40a3ec:	00063c03 	sra	a3,a2,0x10
[31m  40a3f0:	8f998090 	lw	t9,sprintf[0m
  40a3f4:	2442c5e8 	addiu	v0,v0,-14872
  40a3f8:	30e700ff 	andi	a3,a3,0xff
--
  40a428:	00003821 	move	a3,zero
  40a42c:	8e033918 	lw	v1,14616(s0)
  40a430:	00403021 	move	a2,v0
  40a434:	8fbc0038 	lw	gp,56(sp)
  40a438:	00711821 	addu	v1,v1,s1
  40a43c:	8f9980dc 	lw	t9,-32548(gp)
  40a440:	8c640000 	lw	a0,0(v1)
  40a444:	afb60010 	sw	s6,16(sp)
  40a448:	0320f809 	jalr	t9
  40a44c:	afb40014 	sw	s4,20(sp)
  40a450:	8fbc0038 	lw	gp,56(sp)
  40a454:	04400082 	bltz	v0,40a660 <UPnPIPAddressListChanged@@Base+0x4c4>
  40a458:	02402021 	move	a0,s2
  40a45c:	8e021060 	lw	v0,4192(s0)
  40a460:	96091076 	lhu	t1,4214(s0)
  40a464:	02e02821 	move	a1,s7
  40a468:	00511021 	addu	v0,v0,s1
  40a46c:	8c460000 	lw	a2,0(v0)
  40a470:	8e02392c 	lw	v0,14636(s0)
  40a474:	8e030024 	lw	v1,36(s0)
  40a478:	00064203 	sra	t0,a2,0x8
  40a47c:	afa20028 	sw	v0,40(sp)
  40a480:	310800ff 	andi	t0,t0,0xff
  40a484:	8f828170 	lw	v0,-32400(gp)
  40a488:	00063c03 	sra	a3,a2,0x10
[31m  40a48c:	8f998090 	lw	t9,sprintf[0m
  40a490:	30e700ff 	andi	a3,a3,0xff
  40a494:	afa80010 	sw	t0,16(sp)
--
  40a4d8:	00711821 	addu	v1,v1,s1
  40a4dc:	8f9980dc 	lw	t9,-32548(gp)
  40a4e0:	8c640000 	lw	a0,0(v1)
  40a4e4:	afb60010 	sw	s6,16(sp)
  40a4e8:	0320f809 	jalr	t9
  40a4ec:	afb40014 	sw	s4,20(sp)
  40a4f0:	8fbc0038 	lw	gp,56(sp)
  40a4f4:	0440005a 	bltz	v0,40a660 <UPnPIPAddressListChanged@@Base+0x4c4>
  40a4f8:	02402021 	move	a0,s2
  40a4fc:	8e021060 	lw	v0,4192(s0)
  40a500:	96091076 	lhu	t1,4214(s0)
  40a504:	02e02821 	move	a1,s7
  40a508:	00511021 	addu	v0,v0,s1
  40a50c:	8c460000 	lw	a2,0(v0)
  40a510:	8e02392c 	lw	v0,14636(s0)
  40a514:	8e030024 	lw	v1,36(s0)
  40a518:	00064203 	sra	t0,a2,0x8
  40a51c:	afa20028 	sw	v0,40(sp)
  40a520:	3c020041 	lui	v0,0x41
  40a524:	310800ff 	andi	t0,t0,0xff
  40a528:	2442c5f0 	addiu	v0,v0,-14864
  40a52c:	00063c03 	sra	a3,a2,0x10
  40a530:	afa20024 	sw	v0,36(sp)
  40a534:	3c020041 	lui	v0,0x41
  40a538:	30e700ff 	andi	a3,a3,0xff
[31m  40a53c:	8f998090 	lw	t9,sprintf[0m
  40a540:	2442c338 	addiu	v0,v0,-15560
  40a544:	afa80010 	sw	t0,16(sp)
--
  40a58c:	afb60010 	sw	s6,16(sp)
  40a590:	0320f809 	jalr	t9
  40a594:	afb40014 	sw	s4,20(sp)
  40a598:	8fbc0038 	lw	gp,56(sp)
  40a59c:	04400030 	bltz	v0,40a660 <UPnPIPAddressListChanged@@Base+0x4c4>
  40a5a0:	00000000 	nop
  40a5a4:	0c102870 	jal	40a1c0 <UPnPIPAddressListChanged@@Base+0x24>
  40a5a8:	00000000 	nop
  40a5ac:	3c060041 	lui	a2,0x41
  40a5b0:	02402021 	move	a0,s2
  40a5b4:	8e031060 	lw	v1,4192(s0)
  40a5b8:	24c6ce00 	addiu	a2,a2,-12800
  40a5bc:	0262300a 	0x262300a
  40a5c0:	3c050041 	lui	a1,0x41
  40a5c4:	00711821 	addu	v1,v1,s1
  40a5c8:	24a5ce04 	addiu	a1,a1,-12796
  40a5cc:	8c670000 	lw	a3,0(v1)
  40a5d0:	8fbc0038 	lw	gp,56(sp)
  40a5d4:	00071203 	sra	v0,a3,0x8
  40a5d8:	8e03392c 	lw	v1,14636(s0)
  40a5dc:	304200ff 	andi	v0,v0,0xff
  40a5e0:	8e093954 	lw	t1,14676(s0)
  40a5e4:	00074403 	sra	t0,a3,0x10
  40a5e8:	afa20014 	sw	v0,20(sp)
  40a5ec:	3c020041 	lui	v0,0x41
[31m  40a5f0:	8f998090 	lw	t9,sprintf[0m
  40a5f4:	310800ff 	andi	t0,t0,0xff
  40a5f8:	2442cec8 	addiu	v0,v0,-12600
--
  40a7b0:	26f7cec8 	addiu	s7,s7,-12600
  40a7b4:	26d6ce04 	addiu	s6,s6,-12796
  40a7b8:	26b5ce00 	addiu	s5,s5,-12800
  40a7bc:	afa00058 	sw	zero,88(sp)
  40a7c0:	8e020004 	lw	v0,4(s0)
  40a7c4:	24030002 	li	v1,2
  40a7c8:	10430027 	beq	v0,v1,40a868 <UPnPIPAddressListChanged@@Base+0x6cc>
  40a7cc:	28430003 	slti	v1,v0,3
  40a7d0:	10600006 	beqz	v1,40a7ec <UPnPIPAddressListChanged@@Base+0x650>
  40a7d4:	24030003 	li	v1,3
  40a7d8:	24030001 	li	v1,1
  40a7dc:	14430085 	bne	v0,v1,40a9f4 <UPnPIPAddressListChanged@@Base+0x858>
  40a7e0:	3c080041 	lui	t0,0x41
  40a7e4:	10000007 	b	40a804 <UPnPIPAddressListChanged@@Base+0x668>
  40a7e8:	02402021 	move	a0,s2
  40a7ec:	1043003a 	beq	v0,v1,40a8d8 <UPnPIPAddressListChanged@@Base+0x73c>
  40a7f0:	24030004 	li	v1,4
  40a7f4:	1443007e 	bne	v0,v1,40a9f0 <UPnPIPAddressListChanged@@Base+0x854>
  40a7f8:	3c080041 	lui	t0,0x41
  40a7fc:	10000050 	b	40a940 <UPnPIPAddressListChanged@@Base+0x7a4>
  40a800:	02402021 	move	a0,s2
  40a804:	8e020000 	lw	v0,0(s0)
  40a808:	2508c5c4 	addiu	t0,t0,-14908
  40a80c:	03c02821 	move	a1,s8
  40a810:	8c431060 	lw	v1,4192(v0)
[31m  40a814:	8f998090 	lw	t9,sprintf[0m
  40a818:	00711821 	addu	v1,v1,s1
  40a81c:	8c660000 	lw	a2,0(v1)
  40a820:	00063a03 	sra	a3,a2,0x8
  40a824:	30c300ff 	andi	v1,a2,0xff
  40a828:	30e700ff 	andi	a3,a3,0xff
  40a82c:	afa30014 	sw	v1,20(sp)
  40a830:	afa70010 	sw	a3,16(sp)
  40a834:	00063c03 	sra	a3,a2,0x10
  40a838:	94431076 	lhu	v1,4214(v0)
  40a83c:	00063602 	srl	a2,a2,0x18
  40a840:	afb4001c 	sw	s4,28(sp)
  40a844:	30e700ff 	andi	a3,a3,0xff
  40a848:	afa30018 	sw	v1,24(sp)
  40a84c:	8c430024 	lw	v1,36(v0)
  40a850:	afa80024 	sw	t0,36(sp)
  40a854:	afa30020 	sw	v1,32(sp)
  40a858:	3c030041 	lui	v1,0x41
  40a85c:	8c42392c 	lw	v0,14636(v0)
  40a860:	1000004f 	b	40a9a0 <UPnPIPAddressListChanged@@Base+0x804>
  40a864:	2463c5d8 	addiu	v1,v1,-14888
  40a868:	8e020000 	lw	v0,0(s0)
  40a86c:	02402021 	move	a0,s2
[31m  40a870:	8f998090 	lw	t9,sprintf[0m
  40a874:	03c02821 	move	a1,s8
  40a878:	8c461060 	lw	a2,4192(v0)
--
  40a894:	afa70014 	sw	a3,20(sp)
  40a898:	afa80010 	sw	t0,16(sp)
  40a89c:	00063c03 	sra	a3,a2,0x10
  40a8a0:	94481076 	lhu	t0,4214(v0)
  40a8a4:	00063602 	srl	a2,a2,0x18
  40a8a8:	afb4001c 	sw	s4,28(sp)
  40a8ac:	30e700ff 	andi	a3,a3,0xff
  40a8b0:	afa80018 	sw	t0,24(sp)
  40a8b4:	3c080041 	lui	t0,0x41
  40a8b8:	afa30020 	sw	v1,32(sp)
  40a8bc:	2508c5e8 	addiu	t0,t0,-14872
  40a8c0:	afb30024 	sw	s3,36(sp)
  40a8c4:	8c42392c 	lw	v0,14636(v0)
  40a8c8:	afa30030 	sw	v1,48(sp)
  40a8cc:	afa20028 	sw	v0,40(sp)
  40a8d0:	10000036 	b	40a9ac <UPnPIPAddressListChanged@@Base+0x810>
  40a8d4:	afa8002c 	sw	t0,44(sp)
  40a8d8:	8e020000 	lw	v0,0(s0)
  40a8dc:	02402021 	move	a0,s2
  40a8e0:	8f838170 	lw	v1,-32400(gp)
  40a8e4:	03c02821 	move	a1,s8
  40a8e8:	8c461060 	lw	a2,4192(v0)
  40a8ec:	24680002 	addiu	t0,v1,2
  40a8f0:	00d13021 	addu	a2,a2,s1
  40a8f4:	8cc60000 	lw	a2,0(a2)
[31m  40a8f8:	8f998090 	lw	t9,sprintf[0m
  40a8fc:	00064a03 	sra	t1,a2,0x8
  40a900:	30c700ff 	andi	a3,a2,0xff
  40a904:	312900ff 	andi	t1,t1,0xff
  40a908:	afa70014 	sw	a3,20(sp)
  40a90c:	afa90010 	sw	t1,16(sp)
  40a910:	00063c03 	sra	a3,a2,0x10
  40a914:	94491076 	lhu	t1,4214(v0)
  40a918:	00063602 	srl	a2,a2,0x18
  40a91c:	afb4001c 	sw	s4,28(sp)
  40a920:	30e700ff 	andi	a3,a3,0xff
  40a924:	afa90018 	sw	t1,24(sp)
  40a928:	8c490024 	lw	t1,36(v0)
  40a92c:	afa30024 	sw	v1,36(sp)
  40a930:	afa90020 	sw	t1,32(sp)
  40a934:	8c42392c 	lw	v0,14636(v0)
  40a938:	1000001a 	b	40a9a4 <UPnPIPAddressListChanged@@Base+0x808>
  40a93c:	afa8002c 	sw	t0,44(sp)
  40a940:	8e020000 	lw	v0,0(s0)
  40a944:	2508c5f0 	addiu	t0,t0,-14864
  40a948:	03c02821 	move	a1,s8
  40a94c:	8c431060 	lw	v1,4192(v0)
[31m  40a950:	8f998090 	lw	t9,sprintf[0m
  40a954:	00711821 	addu	v1,v1,s1
  40a958:	8c660000 	lw	a2,0(v1)
--
  40a9fc:	00000000 	nop
  40aa00:	28430003 	slti	v1,v0,3
  40aa04:	10600006 	beqz	v1,40aa20 <UPnPIPAddressListChanged@@Base+0x884>
  40aa08:	24030003 	li	v1,3
  40aa0c:	24030001 	li	v1,1
  40aa10:	14430085 	bne	v0,v1,40ac28 <UPnPIPAddressListChanged@@Base+0xa8c>
  40aa14:	00000000 	nop
  40aa18:	10000008 	b	40aa3c <UPnPIPAddressListChanged@@Base+0x8a0>
  40aa1c:	00000000 	nop
  40aa20:	10430039 	beq	v0,v1,40ab08 <UPnPIPAddressListChanged@@Base+0x96c>
  40aa24:	00000000 	nop
  40aa28:	24030004 	li	v1,4
  40aa2c:	1443007e 	bne	v0,v1,40ac28 <UPnPIPAddressListChanged@@Base+0xa8c>
  40aa30:	00000000 	nop
  40aa34:	1000004d 	b	40ab6c <UPnPIPAddressListChanged@@Base+0x9d0>
  40aa38:	00000000 	nop
  40aa3c:	0c102870 	jal	40a1c0 <UPnPIPAddressListChanged@@Base+0x24>
  40aa40:	00000000 	nop
  40aa44:	02603021 	move	a2,s3
  40aa48:	8e030000 	lw	v1,0(s0)
  40aa4c:	02a2300b 	0x2a2300b
  40aa50:	02402021 	move	a0,s2
  40aa54:	8fbc0038 	lw	gp,56(sp)
  40aa58:	02c02821 	move	a1,s6
  40aa5c:	8c621060 	lw	v0,4192(v1)
[31m  40aa60:	8f998090 	lw	t9,sprintf[0m
  40aa64:	00511021 	addu	v0,v0,s1
  40aa68:	8c470000 	lw	a3,0(v0)
  40aa6c:	afb4001c 	sw	s4,28(sp)
  40aa70:	00071403 	sra	v0,a3,0x10
  40aa74:	00074203 	sra	t0,a3,0x8
  40aa78:	304200ff 	andi	v0,v0,0xff
  40aa7c:	310800ff 	andi	t0,t0,0xff
  40aa80:	afa20010 	sw	v0,16(sp)
  40aa84:	30e200ff 	andi	v0,a3,0xff
  40aa88:	afa80014 	sw	t0,20(sp)
  40aa8c:	3c080041 	lui	t0,0x41
  40aa90:	afa20018 	sw	v0,24(sp)
  40aa94:	00073e02 	srl	a3,a3,0x18
  40aa98:	8c623954 	lw	v0,14676(v1)
  40aa9c:	1000004c 	b	40abd0 <UPnPIPAddressListChanged@@Base+0xa34>
  40aaa0:	2508c5c4 	addiu	t0,t0,-14908
  40aaa4:	0c102870 	jal	40a1c0 <UPnPIPAddressListChanged@@Base+0x24>
  40aaa8:	00000000 	nop
  40aaac:	02603021 	move	a2,s3
  40aab0:	8e030000 	lw	v1,0(s0)
  40aab4:	02a2300b 	0x2a2300b
  40aab8:	02402021 	move	a0,s2
  40aabc:	8fbc0038 	lw	gp,56(sp)
  40aac0:	02c02821 	move	a1,s6
  40aac4:	8c621060 	lw	v0,4192(v1)
[31m  40aac8:	8f998090 	lw	t9,sprintf[0m
  40aacc:	00511021 	addu	v0,v0,s1
  40aad0:	8c470000 	lw	a3,0(v0)
  40aad4:	afb4001c 	sw	s4,28(sp)
  40aad8:	00071403 	sra	v0,a3,0x10
  40aadc:	00074203 	sra	t0,a3,0x8
  40aae0:	304200ff 	andi	v0,v0,0xff
  40aae4:	afa20010 	sw	v0,16(sp)
  40aae8:	310800ff 	andi	t0,t0,0xff
  40aaec:	30e200ff 	andi	v0,a3,0xff
  40aaf0:	afa80014 	sw	t0,20(sp)
  40aaf4:	afa20018 	sw	v0,24(sp)
  40aaf8:	00073e02 	srl	a3,a3,0x18
  40aafc:	8c623954 	lw	v0,14676(v1)
  40ab00:	10000034 	b	40abd4 <UPnPIPAddressListChanged@@Base+0xa38>
  40ab04:	afb30024 	sw	s3,36(sp)
  40ab08:	0c102870 	jal	40a1c0 <UPnPIPAddressListChanged@@Base+0x24>
  40ab0c:	00000000 	nop
  40ab10:	02603021 	move	a2,s3
  40ab14:	8e030000 	lw	v1,0(s0)
  40ab18:	02a2300b 	0x2a2300b
  40ab1c:	02402021 	move	a0,s2
  40ab20:	8fbc0038 	lw	gp,56(sp)
  40ab24:	02c02821 	move	a1,s6
  40ab28:	8c621060 	lw	v0,4192(v1)
[31m  40ab2c:	8f998090 	lw	t9,sprintf[0m
  40ab30:	00511021 	addu	v0,v0,s1
  40ab34:	8c470000 	lw	a3,0(v0)
  40ab38:	afb4001c 	sw	s4,28(sp)
  40ab3c:	00071403 	sra	v0,a3,0x10
  40ab40:	00074203 	sra	t0,a3,0x8
  40ab44:	304200ff 	andi	v0,v0,0xff
  40ab48:	310800ff 	andi	t0,t0,0xff
  40ab4c:	afa20010 	sw	v0,16(sp)
  40ab50:	30e200ff 	andi	v0,a3,0xff
  40ab54:	afa80014 	sw	t0,20(sp)
  40ab58:	afa20018 	sw	v0,24(sp)
  40ab5c:	8c623954 	lw	v0,14676(v1)
  40ab60:	8f888170 	lw	t0,-32400(gp)
  40ab64:	1000001a 	b	40abd0 <UPnPIPAddressListChanged@@Base+0xa34>
  40ab68:	00073e02 	srl	a3,a3,0x18
  40ab6c:	0c102870 	jal	40a1c0 <UPnPIPAddressListChanged@@Base+0x24>
  40ab70:	00000000 	nop
  40ab74:	02603021 	move	a2,s3
  40ab78:	8e030000 	lw	v1,0(s0)
  40ab7c:	02a2300b 	0x2a2300b
  40ab80:	02402021 	move	a0,s2
  40ab84:	8fbc0038 	lw	gp,56(sp)
  40ab88:	02c02821 	move	a1,s6
  40ab8c:	8c621060 	lw	v0,4192(v1)
[31m  40ab90:	8f998090 	lw	t9,sprintf[0m
  40ab94:	00511021 	addu	v0,v0,s1
  40ab98:	8c470000 	lw	a3,0(v0)
--
  40b160:	2402000f 	li	v0,15
  40b164:	8fbc0038 	lw	gp,56(sp)
  40b168:	16620037 	bne	s3,v0,40b248 <UPnPIPAddressListChanged@@Base+0x10ac>
  40b16c:	24020008 	li	v0,8
  40b170:	3c030041 	lui	v1,0x41
  40b174:	02802021 	move	a0,s4
  40b178:	2406000f 	li	a2,15
  40b17c:	8f9980d4 	lw	t9,-32556(gp)
  40b180:	2465c5d8 	addiu	a1,v1,-14888
  40b184:	0320f809 	jalr	t9
  40b188:	afa30060 	sw	v1,96(sp)
  40b18c:	8fbc0038 	lw	gp,56(sp)
  40b190:	8fa30060 	lw	v1,96(sp)
  40b194:	1440015a 	bnez	v0,40b700 <UPnPIPAddressListChanged@@Base+0x1564>
  40b198:	2463c5d8 	addiu	v1,v1,-14888
  40b19c:	8e171068 	lw	s7,4200(s0)
  40b1a0:	02202021 	move	a0,s1
  40b1a4:	8e021060 	lw	v0,4192(s0)
  40b1a8:	3c050041 	lui	a1,0x41
  40b1ac:	0017b880 	sll	s7,s7,0x2
  40b1b0:	8f88813c 	lw	t0,-32452(gp)
  40b1b4:	24a5ceec 	addiu	a1,a1,-12564
  40b1b8:	00571021 	addu	v0,v0,s7
  40b1bc:	0257b821 	addu	s7,s2,s7
  40b1c0:	8c460000 	lw	a2,0(v0)
[31m  40b1c4:	8f998090 	lw	t9,sprintf[0m
  40b1c8:	00063a03 	sra	a3,a2,0x8
  40b1cc:	30c200ff 	andi	v0,a2,0xff
--
  40b23c:	afb50010 	sw	s5,16(sp)
  40b240:	1000012c 	b	40b6f4 <UPnPIPAddressListChanged@@Base+0x1558>
  40b244:	afbe0014 	sw	s8,20(sp)
  40b248:	166200eb 	bne	s3,v0,40b5f8 <UPnPIPAddressListChanged@@Base+0x145c>
  40b24c:	24020012 	li	v0,18
  40b250:	8f9980d4 	lw	t9,-32556(gp)
  40b254:	3c050041 	lui	a1,0x41
  40b258:	02802021 	move	a0,s4
  40b25c:	24a5cf80 	addiu	a1,a1,-12416
  40b260:	0320f809 	jalr	t9
  40b264:	24060008 	li	a2,8
  40b268:	8fbc0038 	lw	gp,56(sp)
  40b26c:	144000dd 	bnez	v0,40b5e4 <UPnPIPAddressListChanged@@Base+0x1448>
  40b270:	3c050041 	lui	a1,0x41
  40b274:	8e031068 	lw	v1,4200(s0)
  40b278:	3c090041 	lui	t1,0x41
  40b27c:	02202021 	move	a0,s1
  40b280:	8e021060 	lw	v0,4192(s0)
  40b284:	2529c5c4 	addiu	t1,t1,-14908
  40b288:	00031880 	sll	v1,v1,0x2
  40b28c:	3c170041 	lui	s7,0x41
  40b290:	00431021 	addu	v0,v0,v1
  40b294:	26f7c5c0 	addiu	s7,s7,-14912
  40b298:	8c460000 	lw	a2,0(v0)
  40b29c:	02434021 	addu	t0,s2,v1
[31m  40b2a0:	8f998090 	lw	t9,sprintf[0m
  40b2a4:	00062a03 	sra	a1,a2,0x8
  40b2a8:	30c200ff 	andi	v0,a2,0xff
--
  40b2f8:	afa30060 	sw	v1,96(sp)
  40b2fc:	afa80064 	sw	t0,100(sp)
  40b300:	afa20028 	sw	v0,40(sp)
  40b304:	0320f809 	jalr	t9
  40b308:	afb70030 	sw	s7,48(sp)
  40b30c:	02202821 	move	a1,s1
  40b310:	00003821 	move	a3,zero
  40b314:	8fa80064 	lw	t0,100(sp)
  40b318:	00403021 	move	a2,v0
  40b31c:	8fbc0038 	lw	gp,56(sp)
  40b320:	8d040000 	lw	a0,0(t0)
  40b324:	8f9980dc 	lw	t9,-32548(gp)
  40b328:	afbe0014 	sw	s8,20(sp)
  40b32c:	0320f809 	jalr	t9
  40b330:	afb50010 	sw	s5,16(sp)
  40b334:	3c050041 	lui	a1,0x41
  40b338:	02202021 	move	a0,s1
  40b33c:	8e021060 	lw	v0,4192(s0)
  40b340:	24a5ceec 	addiu	a1,a1,-12564
  40b344:	8fa30060 	lw	v1,96(sp)
  40b348:	8fbc0038 	lw	gp,56(sp)
  40b34c:	00431021 	addu	v0,v0,v1
  40b350:	8c460000 	lw	a2,0(v0)
  40b354:	8f89813c 	lw	t1,-32452(gp)
  40b358:	00063a03 	sra	a3,a2,0x8
[31m  40b35c:	8f998090 	lw	t9,sprintf[0m
  40b360:	30c200ff 	andi	v0,a2,0xff
  40b364:	30e700ff 	andi	a3,a3,0xff
--
  40b3a0:	afb70030 	sw	s7,48(sp)
  40b3a4:	0320f809 	jalr	t9
  40b3a8:	afa2002c 	sw	v0,44(sp)
  40b3ac:	02202821 	move	a1,s1
  40b3b0:	00003821 	move	a3,zero
  40b3b4:	8fa80064 	lw	t0,100(sp)
  40b3b8:	00403021 	move	a2,v0
  40b3bc:	8fbc0038 	lw	gp,56(sp)
  40b3c0:	8d040000 	lw	a0,0(t0)
  40b3c4:	8f9980dc 	lw	t9,-32548(gp)
  40b3c8:	afbe0014 	sw	s8,20(sp)
  40b3cc:	0320f809 	jalr	t9
  40b3d0:	afb50010 	sw	s5,16(sp)
  40b3d4:	3c050041 	lui	a1,0x41
  40b3d8:	02202021 	move	a0,s1
  40b3dc:	8e061060 	lw	a2,4192(s0)
  40b3e0:	24a5ceec 	addiu	a1,a1,-12564
  40b3e4:	8fa30060 	lw	v1,96(sp)
  40b3e8:	8fbc0038 	lw	gp,56(sp)
  40b3ec:	00c33021 	addu	a2,a2,v1
  40b3f0:	8cc60000 	lw	a2,0(a2)
  40b3f4:	8f8b813c 	lw	t3,-32452(gp)
  40b3f8:	00065203 	sra	t2,a2,0x8
  40b3fc:	8f828170 	lw	v0,-32400(gp)
  40b400:	30c700ff 	andi	a3,a2,0xff
[31m  40b404:	8f998090 	lw	t9,sprintf[0m
  40b408:	314a00ff 	andi	t2,t2,0xff
  40b40c:	afa70014 	sw	a3,20(sp)
--
  40b434:	afa20024 	sw	v0,36(sp)
  40b438:	afaa0020 	sw	t2,32(sp)
  40b43c:	8e02392c 	lw	v0,14636(s0)
  40b440:	afa9002c 	sw	t1,44(sp)
  40b444:	afa20028 	sw	v0,40(sp)
  40b448:	0320f809 	jalr	t9
  40b44c:	afb70030 	sw	s7,48(sp)
  40b450:	02202821 	move	a1,s1
  40b454:	00003821 	move	a3,zero
  40b458:	8fa80064 	lw	t0,100(sp)
  40b45c:	00403021 	move	a2,v0
  40b460:	8fbc0038 	lw	gp,56(sp)
  40b464:	8d040000 	lw	a0,0(t0)
  40b468:	8f9980dc 	lw	t9,-32548(gp)
  40b46c:	afbe0014 	sw	s8,20(sp)
  40b470:	0320f809 	jalr	t9
  40b474:	afb50010 	sw	s5,16(sp)
  40b478:	3c050041 	lui	a1,0x41
  40b47c:	02202021 	move	a0,s1
  40b480:	8e021060 	lw	v0,4192(s0)
  40b484:	24a5ceec 	addiu	a1,a1,-12564
  40b488:	8fa30060 	lw	v1,96(sp)
  40b48c:	8fbc0038 	lw	gp,56(sp)
  40b490:	00431821 	addu	v1,v0,v1
  40b494:	8c660000 	lw	a2,0(v1)
[31m  40b498:	8f998090 	lw	t9,sprintf[0m
  40b49c:	00061a03 	sra	v1,a2,0x8
  40b4a0:	30c200ff 	andi	v0,a2,0xff
--
  40b510:	8f9980dc 	lw	t9,-32548(gp)
  40b514:	8d040000 	lw	a0,0(t0)
  40b518:	afbe0014 	sw	s8,20(sp)
  40b51c:	0320f809 	jalr	t9
  40b520:	afb50010 	sw	s5,16(sp)
  40b524:	8e1e1068 	lw	s8,4200(s0)
  40b528:	0c102870 	jal	40a1c0 <UPnPIPAddressListChanged@@Base+0x24>
  40b52c:	00000000 	nop
  40b530:	8fbc0038 	lw	gp,56(sp)
  40b534:	10400003 	beqz	v0,40b544 <UPnPIPAddressListChanged@@Base+0x13a8>
  40b538:	02e03021 	move	a2,s7
  40b53c:	3c060041 	lui	a2,0x41
  40b540:	24c6ce00 	addiu	a2,a2,-12800
  40b544:	8e031060 	lw	v1,4192(s0)
  40b548:	001ef080 	sll	s8,s8,0x2
  40b54c:	3c020041 	lui	v0,0x41
  40b550:	2442c5c0 	addiu	v0,v0,-14912
  40b554:	3c050041 	lui	a1,0x41
  40b558:	02202021 	move	a0,s1
  40b55c:	007e1821 	addu	v1,v1,s8
  40b560:	24a5cf8c 	addiu	a1,a1,-12404
  40b564:	8c670000 	lw	a3,0(v1)
  40b568:	025ef021 	addu	s8,s2,s8
  40b56c:	8f83813c 	lw	v1,-32452(gp)
  40b570:	00074203 	sra	t0,a3,0x8
[31m  40b574:	8f998090 	lw	t9,sprintf[0m
  40b578:	afa3001c 	sw	v1,28(sp)
  40b57c:	00071c03 	sra	v1,a3,0x10
--
  40b618:	8fbc0038 	lw	gp,56(sp)
  40b61c:	14400038 	bnez	v0,40b700 <UPnPIPAddressListChanged@@Base+0x1564>
  40b620:	00000000 	nop
  40b624:	8e151068 	lw	s5,4200(s0)
  40b628:	0c102870 	jal	40a1c0 <UPnPIPAddressListChanged@@Base+0x24>
  40b62c:	00000000 	nop
  40b630:	8fbc0038 	lw	gp,56(sp)
  40b634:	14400003 	bnez	v0,40b644 <UPnPIPAddressListChanged@@Base+0x14a8>
  40b638:	3c060041 	lui	a2,0x41
  40b63c:	10000003 	b	40b64c <UPnPIPAddressListChanged@@Base+0x14b0>
  40b640:	24c6c5c0 	addiu	a2,a2,-14912
  40b644:	3c060041 	lui	a2,0x41
  40b648:	24c6ce00 	addiu	a2,a2,-12800
  40b64c:	8e031060 	lw	v1,4192(s0)
  40b650:	0015a880 	sll	s5,s5,0x2
  40b654:	3c020041 	lui	v0,0x41
  40b658:	2442c5c0 	addiu	v0,v0,-14912
  40b65c:	3c050041 	lui	a1,0x41
  40b660:	02202021 	move	a0,s1
  40b664:	00751821 	addu	v1,v1,s5
  40b668:	24a5cf8c 	addiu	a1,a1,-12404
  40b66c:	8c670000 	lw	a3,0(v1)
  40b670:	0255a821 	addu	s5,s2,s5
  40b674:	8f83813c 	lw	v1,-32452(gp)
  40b678:	00074203 	sra	t0,a3,0x8
[31m  40b67c:	8f998090 	lw	t9,sprintf[0m
  40b680:	afa3001c 	sw	v1,28(sp)
  40b684:	00071c03 	sra	v1,a3,0x10
--
  40b700:	8e150020 	lw	s5,32(s0)
  40b704:	8f998068 	lw	t9,strlen
  40b708:	0320f809 	jalr	t9
  40b70c:	02a02021 	move	a0,s5
  40b710:	8fbc0038 	lw	gp,56(sp)
  40b714:	16620033 	bne	s3,v0,40b7e4 <UPnPIPAddressListChanged@@Base+0x1648>
  40b718:	02802021 	move	a0,s4
  40b71c:	8f9980d4 	lw	t9,-32556(gp)
  40b720:	02a02821 	move	a1,s5
  40b724:	0320f809 	jalr	t9
  40b728:	02603021 	move	a2,s3
  40b72c:	8fbc0038 	lw	gp,56(sp)
  40b730:	1440002c 	bnez	v0,40b7e4 <UPnPIPAddressListChanged@@Base+0x1648>
  40b734:	3c020041 	lui	v0,0x41
  40b738:	8e171068 	lw	s7,4200(s0)
  40b73c:	02202021 	move	a0,s1
  40b740:	8e031060 	lw	v1,4192(s0)
  40b744:	2442c5c0 	addiu	v0,v0,-14912
  40b748:	0017b880 	sll	s7,s7,0x2
  40b74c:	8f88813c 	lw	t0,-32452(gp)
  40b750:	3c050041 	lui	a1,0x41
  40b754:	00771821 	addu	v1,v1,s7
  40b758:	24a5ceec 	addiu	a1,a1,-12564
  40b75c:	8c660000 	lw	a2,0(v1)
  40b760:	0257b821 	addu	s7,s2,s7
[31m  40b764:	8f998090 	lw	t9,sprintf[0m
  40b768:	00063a03 	sra	a3,a2,0x8
  40b76c:	30c300ff 	andi	v1,a2,0xff
--
  40b814:	8fbc0038 	lw	gp,56(sp)
  40b818:	14400037 	bnez	v0,40b8f8 <UPnPIPAddressListChanged@@Base+0x175c>
  40b81c:	00000000 	nop
  40b820:	8e151068 	lw	s5,4200(s0)
  40b824:	0c102870 	jal	40a1c0 <UPnPIPAddressListChanged@@Base+0x24>
  40b828:	00000000 	nop
  40b82c:	8fbc0038 	lw	gp,56(sp)
  40b830:	14400003 	bnez	v0,40b840 <UPnPIPAddressListChanged@@Base+0x16a4>
  40b834:	3c060041 	lui	a2,0x41
  40b838:	10000003 	b	40b848 <UPnPIPAddressListChanged@@Base+0x16ac>
  40b83c:	24c6c5c0 	addiu	a2,a2,-14912
  40b840:	3c060041 	lui	a2,0x41
  40b844:	24c6ce00 	addiu	a2,a2,-12800
  40b848:	8e031060 	lw	v1,4192(s0)
  40b84c:	0015a880 	sll	s5,s5,0x2
  40b850:	3c020041 	lui	v0,0x41
  40b854:	2442c5c0 	addiu	v0,v0,-14912
  40b858:	3c050041 	lui	a1,0x41
  40b85c:	02202021 	move	a0,s1
  40b860:	00751821 	addu	v1,v1,s5
  40b864:	24a5cf8c 	addiu	a1,a1,-12404
  40b868:	8c670000 	lw	a3,0(v1)
  40b86c:	0255a821 	addu	s5,s2,s5
  40b870:	8f83813c 	lw	v1,-32452(gp)
  40b874:	00074203 	sra	t0,a3,0x8
[31m  40b878:	8f998090 	lw	t9,sprintf[0m
  40b87c:	afa3001c 	sw	v1,28(sp)
  40b880:	00071c03 	sra	v1,a3,0x10
--
  40b8f8:	8f958170 	lw	s5,-32400(gp)
  40b8fc:	8f998068 	lw	t9,strlen
  40b900:	0320f809 	jalr	t9
  40b904:	26a40002 	addiu	a0,s5,2
  40b908:	0262182b 	sltu	v1,s3,v0
  40b90c:	8fbc0038 	lw	gp,56(sp)
  40b910:	14600034 	bnez	v1,40b9e4 <UPnPIPAddressListChanged@@Base+0x1848>
  40b914:	00403021 	move	a2,v0
  40b918:	8f9980d4 	lw	t9,-32556(gp)
  40b91c:	26a50002 	addiu	a1,s5,2
  40b920:	0320f809 	jalr	t9
  40b924:	02802021 	move	a0,s4
  40b928:	8fbc0038 	lw	gp,56(sp)
  40b92c:	1440002d 	bnez	v0,40b9e4 <UPnPIPAddressListChanged@@Base+0x1848>
  40b930:	26a30002 	addiu	v1,s5,2
  40b934:	8e171068 	lw	s7,4200(s0)
  40b938:	02202021 	move	a0,s1
  40b93c:	8e021060 	lw	v0,4192(s0)
  40b940:	3c050041 	lui	a1,0x41
  40b944:	0017b880 	sll	s7,s7,0x2
  40b948:	8f88813c 	lw	t0,-32452(gp)
  40b94c:	24a5ceec 	addiu	a1,a1,-12564
  40b950:	00571021 	addu	v0,v0,s7
  40b954:	0257b821 	addu	s7,s2,s7
  40b958:	8c460000 	lw	a2,0(v0)
[31m  40b95c:	8f998090 	lw	t9,sprintf[0m
  40b960:	00063a03 	sra	a3,a2,0x8
  40b964:	30c200ff 	andi	v0,a2,0xff
--
  40b9c0:	00403021 	move	a2,v0
  40b9c4:	27a20050 	addiu	v0,sp,80
  40b9c8:	8ee40000 	lw	a0,0(s7)
  40b9cc:	8f9980dc 	lw	t9,-32548(gp)
  40b9d0:	afa20010 	sw	v0,16(sp)
  40b9d4:	24020010 	li	v0,16
  40b9d8:	0320f809 	jalr	t9
  40b9dc:	afa20014 	sw	v0,20(sp)
  40b9e0:	8fbc0038 	lw	gp,56(sp)
  40b9e4:	2a730027 	slti	s3,s3,39
  40b9e8:	16600037 	bnez	s3,40bac8 <UPnPIPAddressListChanged@@Base+0x192c>
  40b9ec:	3c150041 	lui	s5,0x41
  40b9f0:	8f9980d4 	lw	t9,-32556(gp)
  40b9f4:	02802021 	move	a0,s4
  40b9f8:	26a5c338 	addiu	a1,s5,-15560
  40b9fc:	0320f809 	jalr	t9
  40ba00:	24060027 	li	a2,39
  40ba04:	8fbc0038 	lw	gp,56(sp)
  40ba08:	1440002f 	bnez	v0,40bac8 <UPnPIPAddressListChanged@@Base+0x192c>
  40ba0c:	26b5c338 	addiu	s5,s5,-15560
  40ba10:	8e131068 	lw	s3,4200(s0)
  40ba14:	02202021 	move	a0,s1
  40ba18:	8e021060 	lw	v0,4192(s0)
  40ba1c:	3c050041 	lui	a1,0x41
  40ba20:	00139880 	sll	s3,s3,0x2
[31m  40ba24:	8f998090 	lw	t9,sprintf[0m
  40ba28:	24a5ceec 	addiu	a1,a1,-12564
  40ba2c:	00531021 	addu	v0,v0,s3

[0m
[[0;33m*[0m] Function [0;33msprintf[0m used [0;33m47[0m times [0;33mupnp[0m

