[[0;33m*[0m] Binary protection state of [0;33miptables[0m
[REF] s12

  	RELRO          CANARY            NX           PIE       RPATH        RUNPATH      SYMBOLS      
  	[31mNo RELRO[0m       [31mNo Canary found[0m   [31mNX disabled[0m  [31mNo PIE[0m       [32mNo RPATH[0m     [32mNo RUNPATH[0m   [32mNo Symbols[0m

[0m
[[0;33m*[0m] Function [0;33mstrcpy[0m tear down of [0;33miptables[0m

  4070e0:	1440000e 	bnez	v0,40711c <iptables_main@@Base+0x102c>
  4070e4:	00000000 	nop
  4070e8:	1620000e 	bnez	s1,407124 <iptables_main@@Base+0x1034>
  4070ec:	32420010 	andi	v0,s2,0x10
  4070f0:	10400004 	beqz	v0,407104 <iptables_main@@Base+0x1014>
  4070f4:	00000000 	nop
  4070f8:	3c040043 	lui	a0,0x43
  4070fc:	10000003 	b	40710c <iptables_main@@Base+0x101c>
  407100:	2484184c 	addiu	a0,a0,6220
  407104:	3c040043 	lui	a0,0x43
  407108:	24841770 	addiu	a0,a0,6000
  40710c:	3c050043 	lui	a1,0x43
  407110:	8f998438 	lw	t9,-31688(gp)
  407114:	10000021 	b	40719c <iptables_main@@Base+0x10ac>
  407118:	24a51778 	addiu	a1,a1,6008
  40711c:	12200004 	beqz	s1,407130 <iptables_main@@Base+0x1040>
  407120:	00000000 	nop
  407124:	8f998344 	lw	t9,-31932(gp)
  407128:	10000002 	b	407134 <iptables_main@@Base+0x1044>
  40712c:	00000000 	nop
  407130:	8f998148 	lw	t9,-32440(gp)
  407134:	0320f809 	jalr	t9
  407138:	02002021 	move	a0,s0
  40713c:	27a4002c 	addiu	a0,sp,44
  407140:	8fbc0010 	lw	gp,16(sp)
[31m  407144:	8f998454 	lw	t9,strcpy[0m
  407148:	0320f809 	jalr	t9
  40714c:	00402821 	move	a1,v0
--
  407224:	1440000e 	bnez	v0,407260 <iptables_main@@Base+0x1170>
  407228:	00000000 	nop
  40722c:	1620000e 	bnez	s1,407268 <iptables_main@@Base+0x1178>
  407230:	32420010 	andi	v0,s2,0x10
  407234:	10400004 	beqz	v0,407248 <iptables_main@@Base+0x1158>
  407238:	00000000 	nop
  40723c:	3c040043 	lui	a0,0x43
  407240:	10000003 	b	407250 <iptables_main@@Base+0x1160>
  407244:	24841784 	addiu	a0,a0,6020
  407248:	3c040043 	lui	a0,0x43
  40724c:	24841770 	addiu	a0,a0,6000
  407250:	3c050043 	lui	a1,0x43
  407254:	8f998438 	lw	t9,-31688(gp)
  407258:	10000021 	b	4072e0 <iptables_main@@Base+0x11f0>
  40725c:	24a51778 	addiu	a1,a1,6008
  407260:	12200004 	beqz	s1,407274 <iptables_main@@Base+0x1184>
  407264:	00000000 	nop
  407268:	8f998344 	lw	t9,-31932(gp)
  40726c:	10000002 	b	407278 <iptables_main@@Base+0x1188>
  407270:	00000000 	nop
  407274:	8f998148 	lw	t9,-32440(gp)
  407278:	0320f809 	jalr	t9
  40727c:	26040004 	addiu	a0,s0,4
  407280:	27a4002c 	addiu	a0,sp,44
  407284:	8fbc0010 	lw	gp,16(sp)
[31m  407288:	8f998454 	lw	t9,strcpy[0m
  40728c:	0320f809 	jalr	t9
  407290:	00402821 	move	a1,v0
--
  4078ec:	26520001 	addiu	s2,s2,1
  4078f0:	8fbc0010 	lw	gp,16(sp)
  4078f4:	8f998420 	lw	t9,-31712(gp)
  4078f8:	1440fffb 	bnez	v0,4078e8 <for_each_chain@@Base+0x64>
  4078fc:	02002021 	move	a0,s0
  407900:	8f9982ac 	lw	t9,-32084(gp)
  407904:	0320f809 	jalr	t9
  407908:	00122140 	sll	a0,s2,0x5
  40790c:	02002021 	move	a0,s0
  407910:	8fbc0010 	lw	gp,16(sp)
  407914:	0040a021 	move	s4,v0
  407918:	00408821 	move	s1,v0
  40791c:	8f99826c 	lw	t9,-32148(gp)
  407920:	0320f809 	jalr	t9
  407924:	02809821 	move	s3,s4
  407928:	8fbc0010 	lw	gp,16(sp)
  40792c:	10000008 	b	407950 <for_each_chain@@Base+0xcc>
  407930:	00000000 	nop
  407934:	0320f809 	jalr	t9
  407938:	26730020 	addiu	s3,s3,32
  40793c:	8fbc0010 	lw	gp,16(sp)
  407940:	8f998420 	lw	t9,-31712(gp)
  407944:	0320f809 	jalr	t9
  407948:	02002021 	move	a0,s0
  40794c:	8fbc0010 	lw	gp,16(sp)
[31m  407950:	8f998454 	lw	t9,strcpy[0m
  407954:	00402821 	move	a1,v0
  407958:	1440fff6 	bnez	v0,407934 <for_each_chain@@Base+0xb0>
--
  408668:	0c1018d3 	jal	40634c <iptables_main@@Base+0x25c>
  40866c:	02c02021 	move	a0,s6
  408670:	8ea40000 	lw	a0,0(s5)
  408674:	0c1019df 	jal	40677c <iptables_main@@Base+0x68c>
  408678:	00000000 	nop
  40867c:	24050002 	li	a1,2
  408680:	8fbc0038 	lw	gp,56(sp)
  408684:	00402021 	move	a0,v0
  408688:	8f998450 	lw	t9,-31664(gp)
  40868c:	0320f809 	jalr	t9
  408690:	afa200f0 	sw	v0,240(sp)
  408694:	8fbc0038 	lw	gp,56(sp)
  408698:	10400203 	beqz	v0,408ea8 <do_command@@Base+0x1238>
  40869c:	00409821 	move	s3,v0
  4086a0:	8c510010 	lw	s1,16(v0)
  4086a4:	24040001 	li	a0,1
  4086a8:	8f9983e8 	lw	t9,-31768(gp)
  4086ac:	26310020 	addiu	s1,s1,32
  4086b0:	0320f809 	jalr	t9
  4086b4:	02202821 	move	a1,s1
  4086b8:	8fbc0038 	lw	gp,56(sp)
  4086bc:	8fa500f0 	lw	a1,240(sp)
  4086c0:	ae620038 	sw	v0,56(s3)
  4086c4:	a4510000 	sh	s1,0(v0)
  4086c8:	8e640038 	lw	a0,56(s3)
[31m  4086cc:	8f998454 	lw	t9,strcpy[0m
  4086d0:	0320f809 	jalr	t9
  4086d4:	24840002 	addiu	a0,a0,2
--
  40883c:	24a50001 	addiu	a1,a1,1
  408840:	10000199 	b	408ea8 <do_command@@Base+0x1238>
  408844:	afa50110 	sw	a1,272(sp)
  408848:	8fa20040 	lw	v0,64(sp)
  40884c:	10400003 	beqz	v0,40885c <do_command@@Base+0xbec>
  408850:	3c050043 	lui	a1,0x43
  408854:	1000ff47 	b	408574 <do_command@@Base+0x904>
  408858:	24a52380 	addiu	a1,a1,9088
  40885c:	8fa60120 	lw	a2,288(sp)
  408860:	8f998190 	lw	t9,-32368(gp)
  408864:	8ea40000 	lw	a0,0(s5)
  408868:	0320f809 	jalr	t9
  40886c:	24050003 	li	a1,3
  408870:	24040001 	li	a0,1
  408874:	8fbc0038 	lw	gp,56(sp)
  408878:	00408821 	move	s1,v0
  40887c:	8c430010 	lw	v1,16(v0)
  408880:	8f9983e8 	lw	t9,-31768(gp)
  408884:	24630020 	addiu	v1,v1,32
  408888:	00602821 	move	a1,v1
  40888c:	0320f809 	jalr	t9
  408890:	afa30138 	sw	v1,312(sp)
  408894:	8fbc0038 	lw	gp,56(sp)
  408898:	ae220038 	sw	v0,56(s1)
  40889c:	8fa30138 	lw	v1,312(sp)
[31m  4088a0:	8f998454 	lw	t9,strcpy[0m
  4088a4:	a4430000 	sh	v1,0(v0)
  4088a8:	8e240038 	lw	a0,56(s1)
--
  408d18:	104005a2 	beqz	v0,40a3a4 <do_command@@Base+0x2734>
  408d1c:	2402003f 	li	v0,63
  408d20:	8fa20118 	lw	v0,280(sp)
  408d24:	1440059f 	bnez	v0,40a3a4 <do_command@@Base+0x2734>
  408d28:	2402003f 	li	v0,63
  408d2c:	8fa60054 	lw	a2,84(sp)
  408d30:	24050002 	li	a1,2
  408d34:	8fa400f8 	lw	a0,248(sp)
  408d38:	8fa70120 	lw	a3,288(sp)
  408d3c:	0c101a9b 	jal	406a6c <iptables_main@@Base+0x97c>
  408d40:	30c60001 	andi	a2,a2,0x1
  408d44:	8fbc0038 	lw	gp,56(sp)
  408d48:	10400595 	beqz	v0,40a3a0 <do_command@@Base+0x2730>
  408d4c:	24040001 	li	a0,1
  408d50:	8c510010 	lw	s1,16(v0)
  408d54:	8f9983e8 	lw	t9,-31768(gp)
  408d58:	26310020 	addiu	s1,s1,32
  408d5c:	02202821 	move	a1,s1
  408d60:	0320f809 	jalr	t9
  408d64:	afa20138 	sw	v0,312(sp)
  408d68:	8fa30138 	lw	v1,312(sp)
  408d6c:	8fbc0038 	lw	gp,56(sp)
  408d70:	ac620038 	sw	v0,56(v1)
  408d74:	a4510000 	sh	s1,0(v0)
  408d78:	8c640038 	lw	a0,56(v1)
[31m  408d7c:	8f998454 	lw	t9,strcpy[0m
  408d80:	8c650008 	lw	a1,8(v1)
  408d84:	24840002 	addiu	a0,a0,2
--
  40949c:	8f9980ec 	lw	t9,-32532(gp)
  4094a0:	8ec50000 	lw	a1,0(s6)
  4094a4:	0320f809 	jalr	t9
  4094a8:	00602021 	move	a0,v1
  4094ac:	8fbc0038 	lw	gp,56(sp)
  4094b0:	1040002e 	beqz	v0,40956c <do_command@@Base+0x18fc>
  4094b4:	00000000 	nop
  4094b8:	8f998450 	lw	t9,-31664(gp)
  4094bc:	3c040044 	lui	a0,0x44
  4094c0:	2484d7ac 	addiu	a0,a0,-10324
  4094c4:	0320f809 	jalr	t9
  4094c8:	24050003 	li	a1,3
  4094cc:	24040001 	li	a0,1
  4094d0:	8fbc0038 	lw	gp,56(sp)
  4094d4:	00409821 	move	s3,v0
  4094d8:	8c510010 	lw	s1,16(v0)
  4094dc:	8f9983e8 	lw	t9,-31768(gp)
  4094e0:	26310020 	addiu	s1,s1,32
  4094e4:	0320f809 	jalr	t9
  4094e8:	02202821 	move	a1,s1
  4094ec:	8fbc0038 	lw	gp,56(sp)
  4094f0:	8fa500f0 	lw	a1,240(sp)
  4094f4:	ae620038 	sw	v0,56(s3)
  4094f8:	a4510000 	sh	s1,0(v0)
  4094fc:	8e640038 	lw	a0,56(s3)
[31m  409500:	8f998454 	lw	t9,strcpy[0m
  409504:	0320f809 	jalr	t9
  409508:	24840002 	addiu	a0,a0,2
--
  40ab54:	1000000b 	b	40ab84 <xtables_ip6mask_to_numeric@@Base+0x60>
  40ab58:	00003021 	move	a2,zero
  40ab5c:	00034040 	sll	t0,v1,0x1
  40ab60:	24c60001 	addiu	a2,a2,1
  40ab64:	000527c2 	srl	a0,a1,0x1f
  40ab68:	00031fc2 	srl	v1,v1,0x1f
  40ab6c:	00024fc2 	srl	t1,v0,0x1f
  40ab70:	00055040 	sll	t2,a1,0x1
  40ab74:	006a2825 	or	a1,v1,t2
  40ab78:	00872025 	or	a0,a0,a3
  40ab7c:	01281825 	or	v1,t1,t0
  40ab80:	00021040 	sll	v0,v0,0x1
  40ab84:	0480fff5 	bltz	a0,40ab5c <xtables_ip6mask_to_numeric@@Base+0x38>
  40ab88:	00043840 	sll	a3,a0,0x1
  40ab8c:	14a0000a 	bnez	a1,40abb8 <xtables_ip6mask_to_numeric@@Base+0x94>
  40ab90:	00000000 	nop
  40ab94:	14800008 	bnez	a0,40abb8 <xtables_ip6mask_to_numeric@@Base+0x94>
  40ab98:	00000000 	nop
  40ab9c:	14600006 	bnez	v1,40abb8 <xtables_ip6mask_to_numeric@@Base+0x94>
  40aba0:	00000000 	nop
  40aba4:	14400004 	bnez	v0,40abb8 <xtables_ip6mask_to_numeric@@Base+0x94>
  40aba8:	00000000 	nop
  40abac:	2402ffff 	li	v0,-1
  40abb0:	14c20010 	bne	a2,v0,40abf4 <xtables_ip6mask_to_numeric@@Base+0xd0>
  40abb4:	00000000 	nop
[31m  40abb8:	8f998454 	lw	t9,strcpy[0m
  40abbc:	3c11004a 	lui	s1,0x4a
  40abc0:	3c050043 	lui	a1,0x43
--
  40afa4:	02402021 	move	a0,s2
  40afa8:	24060010 	li	a2,16
  40afac:	00408021 	move	s0,v0
  40afb0:	8f9981e4 	lw	t9,-32284(gp)
  40afb4:	0320f809 	jalr	t9
  40afb8:	26140001 	addiu	s4,s0,1
  40afbc:	02202021 	move	a0,s1
  40afc0:	00002821 	move	a1,zero
  40afc4:	8fbc0010 	lw	gp,16(sp)
  40afc8:	8f9981e4 	lw	t9,-32284(gp)
  40afcc:	0320f809 	jalr	t9
  40afd0:	24060010 	li	a2,16
  40afd4:	2a820011 	slti	v0,s4,17
  40afd8:	8fbc0010 	lw	gp,16(sp)
  40afdc:	1440000a 	bnez	v0,40b008 <xtables_parse_interface@@Base+0xa8>
  40afe0:	02602821 	move	a1,s3
  40afe4:	3c02004a 	lui	v0,0x4a
  40afe8:	3c050043 	lui	a1,0x43
  40afec:	02603021 	move	a2,s3
  40aff0:	8c425730 	lw	v0,22320(v0)
  40aff4:	24a52c5c 	addiu	a1,a1,11356
  40aff8:	24040002 	li	a0,2
  40affc:	8c590014 	lw	t9,20(v0)
  40b000:	0320f809 	jalr	t9
  40b004:	2407000f 	li	a3,15
[31m  40b008:	8f998454 	lw	t9,strcpy[0m
  40b00c:	0320f809 	jalr	t9
  40b010:	02202021 	move	a0,s1
--
  40bcf4:	02203021 	move	a2,s1
  40bcf8:	8f9982cc 	lw	t9,-32052(gp)
  40bcfc:	8c440000 	lw	a0,0(v0)
  40bd00:	0320f809 	jalr	t9
  40bd04:	24a52d60 	addiu	a1,a1,11616
  40bd08:	10000050 	b	40be4c <xtables_load_ko@@Base+0x248>
  40bd0c:	24020001 	li	v0,1
  40bd10:	8f99841c 	lw	t9,-31716(gp)
  40bd14:	8f828158 	lw	v0,-32424(gp)
  40bd18:	8c500000 	lw	s0,0(v0)
  40bd1c:	0320f809 	jalr	t9
  40bd20:	00000000 	nop
  40bd24:	3c050043 	lui	a1,0x43
  40bd28:	8fbc0018 	lw	gp,24(sp)
  40bd2c:	02002021 	move	a0,s0
  40bd30:	8f9982cc 	lw	t9,-32052(gp)
  40bd34:	1000003b 	b	40be24 <xtables_load_ko@@Base+0x220>
  40bd38:	24a52da8 	addiu	a1,a1,11688
  40bd3c:	8f8283cc 	lw	v0,-31796(gp)
  40bd40:	24050001 	li	a1,1
  40bd44:	8c440000 	lw	a0,0(v0)
  40bd48:	0c102f01 	jal	40bc04 <xtables_load_ko@@Base>
  40bd4c:	27b20024 	addiu	s2,sp,36
  40bd50:	02a02821 	move	a1,s5
  40bd54:	8fbc0018 	lw	gp,24(sp)
[31m  40bd58:	8f998454 	lw	t9,strcpy[0m
  40bd5c:	0320f809 	jalr	t9
  40bd60:	02402021 	move	a0,s2
--
  40c1a0:	8f9982ec 	lw	t9,-32020(gp)
  40c1a4:	0320f809 	jalr	t9
  40c1a8:	a3a0013b 	sb	zero,315(sp)
  40c1ac:	10400003 	beqz	v0,40c1bc <xtables_ip6parse_any@@Base+0x78>
  40c1b0:	00002021 	move	a0,zero
  40c1b4:	a0400000 	sb	zero,0(v0)
  40c1b8:	24440001 	addiu	a0,v0,1
  40c1bc:	0c102d06 	jal	40b418 <xtables_parse_protocol@@Base+0x13c>
  40c1c0:	00000000 	nop
  40c1c4:	24060010 	li	a2,16
  40c1c8:	02202021 	move	a0,s1
  40c1cc:	8fbc0010 	lw	gp,16(sp)
  40c1d0:	8f9983b4 	lw	t9,-31820(gp)
  40c1d4:	0320f809 	jalr	t9
  40c1d8:	00402821 	move	a1,v0
  40c1dc:	3c05004a 	lui	a1,0x4a
  40c1e0:	02202021 	move	a0,s1
  40c1e4:	8fbc0010 	lw	gp,16(sp)
  40c1e8:	24a55734 	addiu	a1,a1,22324
  40c1ec:	8f99821c 	lw	t9,-32228(gp)
  40c1f0:	0320f809 	jalr	t9
  40c1f4:	24060010 	li	a2,16
  40c1f8:	8fbc0010 	lw	gp,16(sp)
  40c1fc:	14400007 	bnez	v0,40c21c <xtables_ip6parse_any@@Base+0xd8>
  40c200:	27b5003c 	addiu	s5,sp,60
[31m  40c204:	8f998454 	lw	t9,strcpy[0m
  40c208:	3c050043 	lui	a1,0x43
  40c20c:	24a52f00 	addiu	a1,a1,12032
--
  40c994:	8f998258 	lw	t9,-32168(gp)
  40c998:	27b10018 	addiu	s1,sp,24
  40c99c:	00a09021 	move	s2,a1
  40c9a0:	00c08021 	move	s0,a2
  40c9a4:	240600ff 	li	a2,255
  40c9a8:	00802821 	move	a1,a0
  40c9ac:	02202021 	move	a0,s1
  40c9b0:	0320f809 	jalr	t9
  40c9b4:	00e09821 	move	s3,a3
  40c9b8:	2405002f 	li	a1,47
  40c9bc:	8fbc0010 	lw	gp,16(sp)
  40c9c0:	02202021 	move	a0,s1
  40c9c4:	8f9982ec 	lw	t9,-32020(gp)
  40c9c8:	0320f809 	jalr	t9
  40c9cc:	a3a00117 	sb	zero,279(sp)
  40c9d0:	10400003 	beqz	v0,40c9e0 <xtables_ipparse_any@@Base+0x80>
  40c9d4:	00002021 	move	a0,zero
  40c9d8:	a0400000 	sb	zero,0(v0)
  40c9dc:	24440001 	addiu	a0,v0,1
  40c9e0:	0c102db8 	jal	40b6e0 <xtables_numeric_to_ipaddr@@Base+0xc>
  40c9e4:	00000000 	nop
  40c9e8:	8c420000 	lw	v0,0(v0)
  40c9ec:	8fbc0010 	lw	gp,16(sp)
  40c9f0:	14400006 	bnez	v0,40ca0c <xtables_ipparse_any@@Base+0xac>
  40c9f4:	ae020000 	sw	v0,0(s0)
[31m  40c9f8:	8f998454 	lw	t9,strcpy[0m
  40c9fc:	3c050043 	lui	a1,0x43
  40ca00:	24a53028 	addiu	a1,a1,12328
--
  40d0f8:	afbc0010 	sw	gp,16(sp)
  40d0fc:	94820080 	lhu	v0,128(a0)
  40d100:	24910028 	addiu	s1,a0,40
  40d104:	00808021 	move	s0,a0
  40d108:	02228821 	addu	s1,s1,v0
  40d10c:	24020028 	li	v0,40
  40d110:	96230000 	lhu	v1,0(s1)
  40d114:	10620008 	beq	v1,v0,40d138 <iptc_strerror@@Base+0x24c>
  40d118:	00a09821 	move	s3,a1
  40d11c:	8f9980e4 	lw	t9,-32540(gp)
  40d120:	0320f809 	jalr	t9
  40d124:	00000000 	nop
  40d128:	24030016 	li	v1,22
  40d12c:	ac430000 	sw	v1,0(v0)
  40d130:	10000010 	b	40d174 <iptc_strerror@@Base+0x288>
  40d134:	00001021 	move	v0,zero
  40d138:	8f9981e4 	lw	t9,-32284(gp)
  40d13c:	26320002 	addiu	s2,s1,2
  40d140:	00002821 	move	a1,zero
  40d144:	02402021 	move	a0,s2
  40d148:	0320f809 	jalr	t9
  40d14c:	2406001e 	li	a2,30
  40d150:	3c050044 	lui	a1,0x44
  40d154:	02402021 	move	a0,s2
  40d158:	8fbc0010 	lw	gp,16(sp)
[31m  40d15c:	8f998454 	lw	t9,strcpy[0m
  40d160:	0320f809 	jalr	t9
  40d164:	24a5d7ac 	addiu	a1,a1,-10324
--
  40d3b4:	0014a900 	sll	s5,s4,0x4
  40d3b8:	8f99838c 	lw	t9,-31860(gp)
  40d3bc:	26b50028 	addiu	s5,s5,40
  40d3c0:	0320f809 	jalr	t9
  40d3c4:	02a02021 	move	a0,s5
  40d3c8:	8fbc0018 	lw	gp,24(sp)
  40d3cc:	14400008 	bnez	v0,40d3f0 <iptc_commit@@Base+0x19c>
  40d3d0:	00408821 	move	s1,v0
  40d3d4:	8f9980e4 	lw	t9,-32540(gp)
  40d3d8:	0320f809 	jalr	t9
  40d3dc:	00000000 	nop
  40d3e0:	2403000c 	li	v1,12
  40d3e4:	8fbc0018 	lw	gp,24(sp)
  40d3e8:	10000172 	b	40d9b4 <iptc_commit@@Base+0x760>
  40d3ec:	ac430000 	sw	v1,0(v0)
  40d3f0:	8f9981e4 	lw	t9,-32284(gp)
  40d3f4:	00402021 	move	a0,v0
  40d3f8:	26020060 	addiu	v0,s0,96
  40d3fc:	00002821 	move	a1,zero
  40d400:	02a03021 	move	a2,s5
  40d404:	26760028 	addiu	s6,s3,40
  40d408:	0320f809 	jalr	t9
  40d40c:	afa20020 	sw	v0,32(sp)
  40d410:	02002021 	move	a0,s0
  40d414:	8fbc0018 	lw	gp,24(sp)
[31m  40d418:	8f998454 	lw	t9,strcpy[0m
  40d41c:	0320f809 	jalr	t9
  40d420:	02c02821 	move	a1,s6
  40d424:	8e630074 	lw	v1,116(s3)
  40d428:	8e620048 	lw	v0,72(s3)
  40d42c:	ae120028 	sw	s2,40(s0)
  40d430:	ae030054 	sw	v1,84(s0)
  40d434:	ae020020 	sw	v0,32(s0)
  40d438:	ae140024 	sw	s4,36(s0)
  40d43c:	8fbc0018 	lw	gp,24(sp)
  40d440:	8e720008 	lw	s2,8(s3)
  40d444:	10000074 	b	40d618 <iptc_commit@@Base+0x3c4>
  40d448:	00000000 	nop
  40d44c:	8e420028 	lw	v0,40(s2)
  40d450:	8e570060 	lw	s7,96(s2)
  40d454:	14400016 	bnez	v0,40d4b0 <iptc_commit@@Base+0x25c>
  40d458:	24420009 	addiu	v0,v0,9
  40d45c:	8fa30020 	lw	v1,32(sp)
  40d460:	24020070 	li	v0,112
[31m  40d464:	8f998454 	lw	t9,strcpy[0m
  40d468:	3c050043 	lui	a1,0x43
  40d46c:	0077b821 	addu	s7,v1,s7
  40d470:	240300b0 	li	v1,176
  40d474:	24a531f0 	addiu	a1,a1,12784
  40d478:	26e40072 	addiu	a0,s7,114
  40d47c:	a6e3005a 	sh	v1,90(s7)
  40d480:	0320f809 	jalr	t9
  40d484:	a6e20058 	sh	v0,88(s7)
  40d488:	24020040 	li	v0,64
  40d48c:	8fbc0018 	lw	gp,24(sp)
  40d490:	26e40090 	addiu	a0,s7,144
  40d494:	26450008 	addiu	a1,s2,8
[31m  40d498:	8f998454 	lw	t9,strcpy[0m
  40d49c:	0320f809 	jalr	t9
  40d4a0:	a6e20070 	sh	v0,112(s7)
--
  40d4c8:	00021080 	sll	v0,v0,0x2
  40d4cc:	02021021 	addu	v0,s0,v0
  40d4d0:	ac430000 	sw	v1,0(v0)
  40d4d4:	26430054 	addiu	v1,s2,84
  40d4d8:	8e570054 	lw	s7,84(s2)
  40d4dc:	1000002e 	b	40d598 <iptc_commit@@Base+0x344>
  40d4e0:	afa30024 	sw	v1,36(sp)
  40d4e4:	8ee2001c 	lw	v0,28(s7)
  40d4e8:	1444001a 	bne	v0,a0,40d554 <iptc_commit@@Base+0x300>
  40d4ec:	24050002 	li	a1,2
  40d4f0:	96e20080 	lhu	v0,128(s7)
  40d4f4:	26e30028 	addiu	v1,s7,40
  40d4f8:	8f9981e4 	lw	t9,-32284(gp)
  40d4fc:	00002821 	move	a1,zero
  40d500:	00621821 	addu	v1,v1,v0
  40d504:	2406001e 	li	a2,30
  40d508:	24670002 	addiu	a3,v1,2
  40d50c:	00e02021 	move	a0,a3
  40d510:	afa3002c 	sw	v1,44(sp)
  40d514:	0320f809 	jalr	t9
  40d518:	afa70028 	sw	a3,40(sp)
  40d51c:	3c050044 	lui	a1,0x44
  40d520:	8fbc0018 	lw	gp,24(sp)
  40d524:	24a5d7ac 	addiu	a1,a1,-10324
  40d528:	8fa70028 	lw	a3,40(sp)
[31m  40d52c:	8f998454 	lw	t9,strcpy[0m
  40d530:	0320f809 	jalr	t9
  40d534:	00e02021 	move	a0,a3
--
  40d550:	ac620020 	sw	v0,32(v1)
  40d554:	14450007 	bne	v0,a1,40d574 <iptc_commit@@Base+0x320>
  40d558:	00000000 	nop
  40d55c:	96e20080 	lhu	v0,128(s7)
  40d560:	8ee40024 	lw	a0,36(s7)
  40d564:	8ee30018 	lw	v1,24(s7)
  40d568:	02e21021 	addu	v0,s7,v0
  40d56c:	00831821 	addu	v1,a0,v1
  40d570:	ac430048 	sw	v1,72(v0)
  40d574:	8ee40018 	lw	a0,24(s7)
  40d578:	26e50028 	addiu	a1,s7,40
  40d57c:	8fa20020 	lw	v0,32(sp)
  40d580:	8f9983b4 	lw	t9,-31820(gp)
  40d584:	8ee60024 	lw	a2,36(s7)
  40d588:	0320f809 	jalr	t9
  40d58c:	00442021 	addu	a0,v0,a0
  40d590:	8fbc0018 	lw	gp,24(sp)
  40d594:	8ef70000 	lw	s7,0(s7)
  40d598:	8fa30024 	lw	v1,36(sp)
  40d59c:	16e3ffd1 	bne	s7,v1,40d4e4 <iptc_commit@@Base+0x290>
  40d5a0:	24040003 	li	a0,3
  40d5a4:	8fa40020 	lw	a0,32(sp)
  40d5a8:	24020070 	li	v0,112
  40d5ac:	8e570068 	lw	s7,104(s2)
  40d5b0:	24030098 	li	v1,152
[31m  40d5b4:	8f998454 	lw	t9,strcpy[0m
  40d5b8:	3c050044 	lui	a1,0x44
  40d5bc:	0097b821 	addu	s7,a0,s7
--
  40d5e4:	10400004 	beqz	v0,40d5f8 <iptc_commit@@Base+0x3a4>
  40d5e8:	2405fffb 	li	a1,-5
  40d5ec:	8e420030 	lw	v0,48(s2)
  40d5f0:	10000002 	b	40d5fc <iptc_commit@@Base+0x3a8>
  40d5f4:	aee20090 	sw	v0,144(s7)
  40d5f8:	aee50090 	sw	a1,144(s7)
  40d5fc:	8f9983b4 	lw	t9,-31820(gp)
  40d600:	26450038 	addiu	a1,s2,56
  40d604:	26e40060 	addiu	a0,s7,96
  40d608:	0320f809 	jalr	t9
  40d60c:	24060010 	li	a2,16
  40d610:	8fbc0018 	lw	gp,24(sp)
  40d614:	8e520000 	lw	s2,0(s2)
  40d618:	165eff8c 	bne	s2,s8,40d44c <iptc_commit@@Base+0x1f8>
  40d61c:	00000000 	nop
  40d620:	8e170028 	lw	s7,40(s0)
  40d624:	3c1e0043 	lui	s8,0x43
  40d628:	8fa20020 	lw	v0,32(sp)
  40d62c:	27de31f0 	addiu	s8,s8,12784
  40d630:	26f7ff50 	addiu	s7,s7,-176
  40d634:	03c02821 	move	a1,s8
  40d638:	0057b821 	addu	s7,v0,s7
  40d63c:	24020070 	li	v0,112
  40d640:	a6e20058 	sh	v0,88(s7)
  40d644:	240200b0 	li	v0,176
[31m  40d648:	8f998454 	lw	t9,strcpy[0m
  40d64c:	26e40072 	addiu	a0,s7,114
  40d650:	a6e2005a 	sh	v0,90(s7)
  40d654:	24020040 	li	v0,64
  40d658:	0320f809 	jalr	t9
  40d65c:	a6e20070 	sh	v0,112(s7)
  40d660:	26e40090 	addiu	a0,s7,144
  40d664:	8fbc0018 	lw	gp,24(sp)
[31m  40d668:	8f998454 	lw	t9,strcpy[0m
  40d66c:	0320f809 	jalr	t9
  40d670:	03c02821 	move	a1,s8
  40d674:	00002821 	move	a1,zero
  40d678:	02003821 	move	a3,s0
  40d67c:	8fbc0018 	lw	gp,24(sp)
  40d680:	24060040 	li	a2,64
  40d684:	8e020028 	lw	v0,40(s0)
  40d688:	8f99829c 	lw	t9,-32100(gp)
  40d68c:	8e640000 	lw	a0,0(s3)
  40d690:	24420060 	addiu	v0,v0,96
  40d694:	0320f809 	jalr	t9
  40d698:	afa20010 	sw	v0,16(sp)
  40d69c:	8fbc0018 	lw	gp,24(sp)
  40d6a0:	044000c0 	bltz	v0,40d9a4 <iptc_commit@@Base+0x750>
  40d6a4:	26230028 	addiu	v1,s1,40
[31m  40d6a8:	8f998454 	lw	t9,strcpy[0m
  40d6ac:	02c02821 	move	a1,s6
  40d6b0:	afa30020 	sw	v1,32(sp)
--
  410058:	2c420020 	sltiu	v0,v0,32
  41005c:	8fbc0018 	lw	gp,24(sp)
  410060:	14400007 	bnez	v0,410080 <iptc_init@@Base+0x7c>
  410064:	24040002 	li	a0,2
  410068:	8f9980e4 	lw	t9,-32540(gp)
  41006c:	0320f809 	jalr	t9
  410070:	00009021 	move	s2,zero
  410074:	24030016 	li	v1,22
  410078:	1000015b 	b	4105e8 <iptc_init@@Base+0x5e4>
  41007c:	ac430000 	sw	v1,0(v0)
  410080:	8f99835c 	lw	t9,-31908(gp)
  410084:	24050003 	li	a1,3
  410088:	0320f809 	jalr	t9
  41008c:	240600ff 	li	a2,255
  410090:	8fbc0018 	lw	gp,24(sp)
  410094:	04400153 	bltz	v0,4105e4 <iptc_init@@Base+0x5e0>
  410098:	00409821 	move	s3,v0
  41009c:	27a20024 	addiu	v0,sp,36
  4100a0:	27a40028 	addiu	a0,sp,40
  4100a4:	27a5002c 	addiu	a1,sp,44
  4100a8:	27b40030 	addiu	s4,sp,48
  4100ac:	afa2008c 	sw	v0,140(sp)
  4100b0:	24150001 	li	s5,1
  4100b4:	afa40088 	sw	a0,136(sp)
  4100b8:	afa50090 	sw	a1,144(sp)
[31m  4100bc:	8f998454 	lw	t9,strcpy[0m
  4100c0:	24020054 	li	v0,84
  4100c4:	02802021 	move	a0,s4
--
  410108:	8fb10080 	lw	s1,128(sp)
  41010c:	0320f809 	jalr	t9
  410110:	24040080 	li	a0,128
  410114:	8fbc0018 	lw	gp,24(sp)
  410118:	00408021 	move	s0,v0
  41011c:	14400008 	bnez	v0,410140 <iptc_init@@Base+0x13c>
  410120:	00409021 	move	s2,v0
  410124:	8f9980e4 	lw	t9,-32540(gp)
  410128:	0320f809 	jalr	t9
  41012c:	00000000 	nop
  410130:	2403000c 	li	v1,12
  410134:	8fbc0018 	lw	gp,24(sp)
  410138:	1000003b 	b	410228 <iptc_init@@Base+0x224>
  41013c:	ac430000 	sw	v1,0(v0)
  410140:	8f9981e4 	lw	t9,-32284(gp)
  410144:	24060080 	li	a2,128
  410148:	00402021 	move	a0,v0
  41014c:	00002821 	move	a1,zero
  410150:	0320f809 	jalr	t9
  410154:	24560008 	addiu	s6,v0,8
  410158:	26170028 	addiu	s7,s0,40
  41015c:	02802821 	move	a1,s4
  410160:	8fbc0018 	lw	gp,24(sp)
  410164:	02e02021 	move	a0,s7
  410168:	ae160008 	sw	s6,8(s0)
[31m  41016c:	8f998454 	lw	t9,strcpy[0m
  410170:	0320f809 	jalr	t9
  410174:	ae16000c 	sw	s6,12(s0)
  410178:	8fbc0018 	lw	gp,24(sp)
  41017c:	8f99838c 	lw	t9,-31860(gp)
  410180:	0320f809 	jalr	t9
  410184:	26240028 	addiu	a0,s1,40
  410188:	8fbc0018 	lw	gp,24(sp)
  41018c:	10400022 	beqz	v0,410218 <iptc_init@@Base+0x214>
  410190:	ae02007c 	sw	v0,124(s0)
[31m  410194:	8f998454 	lw	t9,strcpy[0m
  410198:	00402021 	move	a0,v0
  41019c:	0320f809 	jalr	t9
--
  41136c:	8c420000 	lw	v0,0(v0)
  411370:	8c590014 	lw	t9,20(v0)
  411374:	0320f809 	jalr	t9
  411378:	24040002 	li	a0,2
  41137c:	8e020000 	lw	v0,0(s0)
  411380:	8f9980a0 	lw	t9,strlen
  411384:	2442ffff 	addiu	v0,v0,-1
  411388:	00021080 	sll	v0,v0,0x2
  41138c:	02228821 	addu	s1,s1,v0
  411390:	8e250000 	lw	a1,0(s1)
  411394:	00a02021 	move	a0,a1
  411398:	0320f809 	jalr	t9
  41139c:	afa50018 	sw	a1,24(sp)
  4113a0:	28420100 	slti	v0,v0,256
  4113a4:	8fbc0010 	lw	gp,16(sp)
  4113a8:	8fa50018 	lw	a1,24(sp)
  4113ac:	14400008 	bnez	v0,4113d0 <libxt_comment_init@@Base+0x1a0>
  4113b0:	24040002 	li	a0,2
  4113b4:	8f82807c 	lw	v0,-32644(gp)
  4113b8:	3c050043 	lui	a1,0x43
  4113bc:	24a53d88 	addiu	a1,a1,15752
  4113c0:	8c420000 	lw	v0,0(v0)
  4113c4:	8c590014 	lw	t9,20(v0)
  4113c8:	0320f809 	jalr	t9
  4113cc:	24060100 	li	a2,256
[31m  4113d0:	8f998454 	lw	t9,strcpy[0m
  4113d4:	0320f809 	jalr	t9
  4113d8:	26640020 	addiu	a0,s3,32
--
  415540:	afb01018 	sw	s0,4120(sp)
  415544:	3c1c0046 	lui	gp,0x46
  415548:	279cc040 	addiu	gp,gp,-16320
  41554c:	afbc0010 	sw	gp,16(sp)
  415550:	8ca20000 	lw	v0,0(a1)
  415554:	00a08021 	move	s0,a1
  415558:	14400008 	bnez	v0,41557c <libxt_conntrack_init@@Base+0x20cc>
  41555c:	00801821 	move	v1,a0
  415560:	14c00008 	bnez	a2,415584 <libxt_conntrack_init@@Base+0x20d4>
  415564:	3c050043 	lui	a1,0x43
  415568:	3c040043 	lui	a0,0x43
  41556c:	8f998438 	lw	t9,-31688(gp)
  415570:	2484184c 	addiu	a0,a0,6220
  415574:	1000001d 	b	4155ec <libxt_conntrack_init@@Base+0x213c>
  415578:	24a51778 	addiu	a1,a1,6008
  41557c:	10c00004 	beqz	a2,415590 <libxt_conntrack_init@@Base+0x20e0>
  415580:	00000000 	nop
  415584:	8f998344 	lw	t9,-31932(gp)
  415588:	10000002 	b	415594 <libxt_conntrack_init@@Base+0x20e4>
  41558c:	00602021 	move	a0,v1
  415590:	8f998148 	lw	t9,-32440(gp)
  415594:	0320f809 	jalr	t9
  415598:	00000000 	nop
  41559c:	27a40018 	addiu	a0,sp,24
  4155a0:	8fbc0010 	lw	gp,16(sp)
[31m  4155a4:	8f998454 	lw	t9,strcpy[0m
  4155a8:	0320f809 	jalr	t9
  4155ac:	00402821 	move	a1,v0
--
  41caec:	2c420040 	sltiu	v0,v0,64
  41caf0:	14400009 	bnez	v0,41cb18 <libxt_NFLOG_init@@Base+0x2e4>
  41caf4:	00000000 	nop
  41caf8:	8f82807c 	lw	v0,-32644(gp)
  41cafc:	3c050043 	lui	a1,0x43
  41cb00:	24a57a34 	addiu	a1,a1,31284
  41cb04:	24040002 	li	a0,2
  41cb08:	8c420000 	lw	v0,0(v0)
  41cb0c:	8c590014 	lw	t9,20(v0)
  41cb10:	0320f809 	jalr	t9
  41cb14:	2406003f 	li	a2,63
  41cb18:	8f998224 	lw	t9,-32220(gp)
  41cb1c:	3c050043 	lui	a1,0x43
  41cb20:	02a02021 	move	a0,s5
  41cb24:	0320f809 	jalr	t9
  41cb28:	24a51b88 	addiu	a1,a1,7048
  41cb2c:	8fbc0010 	lw	gp,16(sp)
  41cb30:	8f9980a0 	lw	t9,strlen
  41cb34:	0320f809 	jalr	t9
  41cb38:	00402021 	move	a0,v0
  41cb3c:	8fbc0010 	lw	gp,16(sp)
  41cb40:	12820003 	beq	s4,v0,41cb50 <libxt_NFLOG_init@@Base+0x31c>
  41cb44:	3c050043 	lui	a1,0x43
  41cb48:	1000ffbb 	b	41ca38 <libxt_NFLOG_init@@Base+0x204>
  41cb4c:	24a57a60 	addiu	a1,a1,31328
[31m  41cb50:	8f998454 	lw	t9,strcpy[0m
  41cb54:	8e650000 	lw	a1,0(s3)
  41cb58:	0320f809 	jalr	t9
--
  422c30:	24a5a5c8 	addiu	a1,a1,-23096
  422c34:	8c420000 	lw	v0,0(v0)
  422c38:	8c590014 	lw	t9,20(v0)
  422c3c:	0320f809 	jalr	t9
  422c40:	24040002 	li	a0,2
  422c44:	a2220020 	sb	v0,32(s1)
  422c48:	8f828384 	lw	v0,-31868(gp)
  422c4c:	8f9980a0 	lw	t9,strlen
  422c50:	8c450000 	lw	a1,0(v0)
  422c54:	00a02021 	move	a0,a1
  422c58:	0320f809 	jalr	t9
  422c5c:	afa50018 	sw	a1,24(sp)
  422c60:	2c430100 	sltiu	v1,v0,256
  422c64:	8fbc0010 	lw	gp,16(sp)
  422c68:	8fa50018 	lw	a1,24(sp)
  422c6c:	14600009 	bnez	v1,422c94 <libxt_SECMARK_init@@Base+0x1a4>
  422c70:	00403821 	move	a3,v0
  422c74:	8f82807c 	lw	v0,-32644(gp)
  422c78:	3c050044 	lui	a1,0x44
  422c7c:	24a5a5f8 	addiu	a1,a1,-23048
  422c80:	24040002 	li	a0,2
  422c84:	8c420000 	lw	v0,0(v0)
  422c88:	8c590014 	lw	t9,20(v0)
  422c8c:	0320f809 	jalr	t9
  422c90:	240600ff 	li	a2,255
[31m  422c94:	8f998454 	lw	t9,strcpy[0m
  422c98:	0320f809 	jalr	t9
  422c9c:	26240028 	addiu	a0,s1,40
--
  42bb88:	26520001 	addiu	s2,s2,1
  42bb8c:	1657ffe3 	bne	s2,s7,42bb1c <libipt_icmp_init@@Base+0x30c>
  42bb90:	26940008 	addiu	s4,s4,8
  42bb94:	1232000b 	beq	s1,s2,42bbc4 <libipt_icmp_init@@Base+0x3b4>
  42bb98:	3c020045 	lui	v0,0x45
  42bb9c:	001188c0 	sll	s1,s1,0x3
  42bba0:	24421354 	addiu	v0,v0,4948
  42bba4:	02228821 	addu	s1,s1,v0
  42bba8:	92230006 	lbu	v1,6(s1)
  42bbac:	92240004 	lbu	a0,4(s1)
  42bbb0:	92220005 	lbu	v0,5(s1)
  42bbb4:	a2a40000 	sb	a0,0(s5)
  42bbb8:	a2030001 	sb	v1,1(s0)
  42bbbc:	10000044 	b	42bcd0 <libipt_icmp_init@@Base+0x4c0>
  42bbc0:	a2020000 	sb	v0,0(s0)
  42bbc4:	8f9980a0 	lw	t9,strlen
  42bbc8:	02602021 	move	a0,s3
  42bbcc:	0320f809 	jalr	t9
  42bbd0:	03a0b021 	move	s6,sp
  42bbd4:	02602821 	move	a1,s3
  42bbd8:	2442000f 	addiu	v0,v0,15
  42bbdc:	000210c2 	srl	v0,v0,0x3
  42bbe0:	8fdc0018 	lw	gp,24(s8)
  42bbe4:	000210c0 	sll	v0,v0,0x3
  42bbe8:	03a2e823 	subu	sp,sp,v0
[31m  42bbec:	8f998454 	lw	t9,strcpy[0m
  42bbf0:	27b20018 	addiu	s2,sp,24
  42bbf4:	0320f809 	jalr	t9
--
  42c458:	24040002 	li	a0,2
  42c45c:	8c420000 	lw	v0,0(v0)
  42c460:	2406001d 	li	a2,29
  42c464:	8c590014 	lw	t9,20(v0)
  42c468:	0320f809 	jalr	t9
  42c46c:	00000000 	nop
  42c470:	82820000 	lb	v0,0(s4)
  42c474:	14400004 	bnez	v0,42c488 <libipt_LOG_init@@Base+0x57c>
  42c478:	02802021 	move	a0,s4
  42c47c:	3c050044 	lui	a1,0x44
  42c480:	1000ff9d 	b	42c2f8 <libipt_LOG_init@@Base+0x3ec>
  42c484:	24a5e1d0 	addiu	a1,a1,-7728
  42c488:	8f998224 	lw	t9,-32220(gp)
  42c48c:	3c050043 	lui	a1,0x43
  42c490:	0320f809 	jalr	t9
  42c494:	24a51b88 	addiu	a1,a1,7048
  42c498:	8fbc0018 	lw	gp,24(sp)
  42c49c:	8f9980a0 	lw	t9,strlen
  42c4a0:	0320f809 	jalr	t9
  42c4a4:	00402021 	move	a0,v0
  42c4a8:	8fbc0018 	lw	gp,24(sp)
  42c4ac:	12620003 	beq	s3,v0,42c4bc <libipt_LOG_init@@Base+0x5b0>
  42c4b0:	3c050044 	lui	a1,0x44
  42c4b4:	1000ff90 	b	42c2f8 <libipt_LOG_init@@Base+0x3ec>
  42c4b8:	24a5e1f8 	addiu	a1,a1,-7688
[31m  42c4bc:	8f998454 	lw	t9,strcpy[0m
  42c4c0:	8e250000 	lw	a1,0(s1)
  42c4c4:	0320f809 	jalr	t9
--
  4304dc:	24a5f758 	addiu	a1,a1,-2216
  4304e0:	24040002 	li	a0,2
  4304e4:	8c420000 	lw	v0,0(v0)
  4304e8:	8c590014 	lw	t9,20(v0)
  4304ec:	0320f809 	jalr	t9
  4304f0:	2406001f 	li	a2,31
  4304f4:	82820000 	lb	v0,0(s4)
  4304f8:	14400004 	bnez	v0,43050c <libipt_ULOG_init@@Base+0x41c>
  4304fc:	02802021 	move	a0,s4
  430500:	3c050044 	lui	a1,0x44
  430504:	1000ffc2 	b	430410 <libipt_ULOG_init@@Base+0x320>
  430508:	24a5f784 	addiu	a1,a1,-2172
  43050c:	8f998224 	lw	t9,-32220(gp)
  430510:	3c050043 	lui	a1,0x43
  430514:	0320f809 	jalr	t9
  430518:	24a51b88 	addiu	a1,a1,7048
  43051c:	8fbc0010 	lw	gp,16(sp)
  430520:	8f9980a0 	lw	t9,strlen
  430524:	0320f809 	jalr	t9
  430528:	00402021 	move	a0,v0
  43052c:	8fbc0010 	lw	gp,16(sp)
  430530:	12620003 	beq	s3,v0,430540 <libipt_ULOG_init@@Base+0x450>
  430534:	3c050044 	lui	a1,0x44
  430538:	1000ffb5 	b	430410 <libipt_ULOG_init@@Base+0x320>
  43053c:	24a5f7ac 	addiu	a1,a1,-2132
[31m  430540:	8f998454 	lw	t9,strcpy[0m
  430544:	8e450000 	lw	a1,0(s2)
  430548:	0320f809 	jalr	t9

[0m
[[0;33m*[0m] Function [0;33mstrcpy[0m used [0;33m31[0m times [0;33miptables[0m

