[[0;33m*[0m] Binary protection state of [0;33mrtkmib[0m
[REF] s12

  	RELRO          CANARY            NX           PIE       RPATH        RUNPATH      SYMBOLS      
  	[31mNo RELRO[0m       [31mNo Canary found[0m   [31mNX disabled[0m  [31mNo PIE[0m       [32mNo RPATH[0m     [32mNo RUNPATH[0m   [32mNo Symbols[0m

[0m
[[0;33m*[0m] Function [0;33mprintf[0m tear down of [0;33mrtkmib[0m

  400944:	8fbf001c 	lw	ra,28(sp)
  400948:	2484104c 	addiu	a0,a0,4172
  40094c:	03200008 	jr	t9
  400950:	27bd0020 	addiu	sp,sp,32
  400954:	8fbf001c 	lw	ra,28(sp)
  400958:	03e00008 	jr	ra
  40095c:	27bd0020 	addiu	sp,sp,32
  400960:	27bdffe0 	addiu	sp,sp,-32
  400964:	afbf001c 	sw	ra,28(sp)
  400968:	afb00018 	sw	s0,24(sp)
  40096c:	3c1c0042 	lui	gp,0x42
  400970:	279c9060 	addiu	gp,gp,-28576
  400974:	afbc0010 	sw	gp,16(sp)
  400978:	00808021 	move	s0,a0
  40097c:	3c040040 	lui	a0,0x40
  400980:	8f998074 	lw	t9,-32652(gp)
  400984:	0320f809 	jalr	t9
  400988:	24840f00 	addiu	a0,a0,3840
  40098c:	8fbc0010 	lw	gp,16(sp)
  400990:	8f998080 	lw	t9,-32640(gp)
  400994:	0320f809 	jalr	t9
  400998:	02002021 	move	a0,s0
  40099c:	8fbc0010 	lw	gp,16(sp)
  4009a0:	3c040040 	lui	a0,0x40
  4009a4:	24840f08 	addiu	a0,a0,3848
[31m  4009a8:	8f998084 	lw	t9,printf[0m
  4009ac:	0320f809 	jalr	t9
  4009b0:	00402821 	move	a1,v0
  4009b4:	8fbc0010 	lw	gp,16(sp)
  4009b8:	8f998080 	lw	t9,-32640(gp)
  4009bc:	0320f809 	jalr	t9
  4009c0:	02002021 	move	a0,s0
  4009c4:	8fbc0010 	lw	gp,16(sp)
  4009c8:	3c040040 	lui	a0,0x40
  4009cc:	24840f38 	addiu	a0,a0,3896
[31m  4009d0:	8f998084 	lw	t9,printf[0m
  4009d4:	0320f809 	jalr	t9
  4009d8:	00402821 	move	a1,v0
  4009dc:	8fbc0010 	lw	gp,16(sp)
  4009e0:	8f998080 	lw	t9,-32640(gp)
  4009e4:	0320f809 	jalr	t9
  4009e8:	02002021 	move	a0,s0
  4009ec:	8fbc0010 	lw	gp,16(sp)
  4009f0:	3c040040 	lui	a0,0x40
  4009f4:	24840f68 	addiu	a0,a0,3944
[31m  4009f8:	8f998084 	lw	t9,printf[0m
  4009fc:	0320f809 	jalr	t9
  400a00:	00402821 	move	a1,v0
  400a04:	8fbc0010 	lw	gp,16(sp)
  400a08:	8f998080 	lw	t9,-32640(gp)
  400a0c:	0320f809 	jalr	t9
  400a10:	02002021 	move	a0,s0
  400a14:	8fbc0010 	lw	gp,16(sp)
  400a18:	3c040040 	lui	a0,0x40
  400a1c:	24840f98 	addiu	a0,a0,3992
[31m  400a20:	8f998084 	lw	t9,printf[0m
  400a24:	0320f809 	jalr	t9
  400a28:	00402821 	move	a1,v0
--
  400abc:	3c050040 	lui	a1,0x40
  400ac0:	8f998048 	lw	t9,-32696(gp)
  400ac4:	0320f809 	jalr	t9
  400ac8:	24a50fec 	addiu	a1,a1,4076
  400acc:	8fbc0020 	lw	gp,32(sp)
  400ad0:	14400062 	bnez	v0,400c5c <main@@Base+0x210>
  400ad4:	02002021 	move	a0,s0
  400ad8:	24020002 	li	v0,2
  400adc:	16220015 	bne	s1,v0,400b34 <main@@Base+0xe8>
  400ae0:	26720008 	addiu	s2,s3,8
  400ae4:	8f99803c 	lw	t9,-32708(gp)
  400ae8:	0320f809 	jalr	t9
  400aec:	27a40030 	addiu	a0,sp,48
  400af0:	8fbc0020 	lw	gp,32(sp)
  400af4:	04400091 	bltz	v0,400d3c <main@@Base+0x2f0>
  400af8:	3c040040 	lui	a0,0x40
  400afc:	93a50030 	lbu	a1,48(sp)
  400b00:	93a60031 	lbu	a2,49(sp)
  400b04:	93a70032 	lbu	a3,50(sp)
  400b08:	93a20033 	lbu	v0,51(sp)
  400b0c:	afa20010 	sw	v0,16(sp)
  400b10:	93a20034 	lbu	v0,52(sp)
  400b14:	afa20014 	sw	v0,20(sp)
  400b18:	93a20035 	lbu	v0,53(sp)
  400b1c:	afa20018 	sw	v0,24(sp)
[31m  400b20:	8f998084 	lw	t9,printf[0m
  400b24:	0320f809 	jalr	t9
  400b28:	24840ff0 	addiu	a0,a0,4080
--
  400c3c:	26310001 	addiu	s1,s1,1
  400c40:	8f99804c 	lw	t9,-32692(gp)
  400c44:	0320f809 	jalr	t9
  400c48:	27a40030 	addiu	a0,sp,48
  400c4c:	04410039 	bgez	v0,400d34 <main@@Base+0x2e8>
  400c50:	00000000 	nop
  400c54:	1000003a 	b	400d40 <main@@Base+0x2f4>
  400c58:	2402ffff 	li	v0,-1
  400c5c:	3c050040 	lui	a1,0x40
  400c60:	8f998048 	lw	t9,-32696(gp)
  400c64:	0320f809 	jalr	t9
  400c68:	24a5102c 	addiu	a1,a1,4140
  400c6c:	8fbc0020 	lw	gp,32(sp)
  400c70:	1440001e 	bnez	v0,400cec <main@@Base+0x2a0>
  400c74:	00000000 	nop
  400c78:	24020002 	li	v0,2
  400c7c:	1622000d 	bne	s1,v0,400cb4 <main@@Base+0x268>
  400c80:	3c050040 	lui	a1,0x40
  400c84:	8f998078 	lw	t9,-32648(gp)
  400c88:	0320f809 	jalr	t9
  400c8c:	27a40028 	addiu	a0,sp,40
  400c90:	8fbc0020 	lw	gp,32(sp)
  400c94:	04400029 	bltz	v0,400d3c <main@@Base+0x2f0>
  400c98:	3c040040 	lui	a0,0x40
  400c9c:	93a50028 	lbu	a1,40(sp)
[31m  400ca0:	8f998084 	lw	t9,printf[0m
  400ca4:	0320f809 	jalr	t9
  400ca8:	24841034 	addiu	a0,a0,4148

[0m
[[0;33m*[0m] Function [0;33mprintf[0m used [0;33m6[0m times [0;33mrtkmib[0m

