[[0;33m*[0m] Binary protection state of [0;33mqueryconf.cgi[0m
[REF] s12

  	RELRO          CANARY            NX           PIE       RPATH        RUNPATH      SYMBOLS      
  	[31mNo RELRO[0m       [31mNo Canary found[0m   [31mNX disabled[0m  [31mNo PIE[0m       [32mNo RPATH[0m     [32mNo RUNPATH[0m   [32mNo Symbols[0m

[0m
[[0;33m*[0m] Function [0;33mfprintf[0m tear down of [0;33mqueryconf.cgi[0m

  400b50:	0320f809 	jalr	t9
  400b54:	02003821 	move	a3,s0
  400b58:	8fbc0010 	lw	gp,16(sp)
  400b5c:	10000009 	b	400b84 <_ftext@@Base+0x2f4>
  400b60:	a3a00018 	sb	zero,24(sp)
  400b64:	248411a0 	addiu	a0,a0,4512
  400b68:	24050001 	li	a1,1
  400b6c:	2406000d 	li	a2,13
  400b70:	8f99803c 	lw	t9,-32708(gp)
  400b74:	0320f809 	jalr	t9
  400b78:	02003821 	move	a3,s0
  400b7c:	8fbc0010 	lw	gp,16(sp)
  400b80:	a3a00018 	sb	zero,24(sp)
  400b84:	3c120040 	lui	s2,0x40
  400b88:	26441178 	addiu	a0,s2,4472
  400b8c:	3c050040 	lui	a1,0x40
  400b90:	24a511b0 	addiu	a1,a1,4528
  400b94:	27b30018 	addiu	s3,sp,24
  400b98:	8f998038 	lw	t9,-32712(gp)
  400b9c:	0320f809 	jalr	t9
  400ba0:	02603021 	move	a2,s3
  400ba4:	8fbc0010 	lw	gp,16(sp)
  400ba8:	02002021 	move	a0,s0
  400bac:	3c050040 	lui	a1,0x40
  400bb0:	93a60018 	lbu	a2,24(sp)
[31m  400bb4:	8f99805c 	lw	t9,fprintf[0m
  400bb8:	0320f809 	jalr	t9
  400bbc:	24a511bc 	addiu	a1,a1,4540
  400bc0:	8fbc0010 	lw	gp,16(sp)
  400bc4:	27b10020 	addiu	s1,sp,32
  400bc8:	02202021 	move	a0,s1
  400bcc:	00002821 	move	a1,zero
  400bd0:	8f998050 	lw	t9,-32688(gp)
  400bd4:	0320f809 	jalr	t9
  400bd8:	24060100 	li	a2,256
  400bdc:	8fbc0010 	lw	gp,16(sp)
  400be0:	26441178 	addiu	a0,s2,4472
  400be4:	3c050040 	lui	a1,0x40
  400be8:	24a511cc 	addiu	a1,a1,4556
  400bec:	8f998038 	lw	t9,-32712(gp)
  400bf0:	0320f809 	jalr	t9
  400bf4:	02203021 	move	a2,s1
  400bf8:	8fbc0010 	lw	gp,16(sp)
  400bfc:	02002021 	move	a0,s0
  400c00:	3c050040 	lui	a1,0x40
  400c04:	24a511d4 	addiu	a1,a1,4564
[31m  400c08:	8f99805c 	lw	t9,fprintf[0m
  400c0c:	0320f809 	jalr	t9
  400c10:	02203021 	move	a2,s1
  400c14:	8fbc0010 	lw	gp,16(sp)
  400c18:	02202021 	move	a0,s1
  400c1c:	00002821 	move	a1,zero
  400c20:	8f998050 	lw	t9,-32688(gp)
  400c24:	0320f809 	jalr	t9
  400c28:	24060100 	li	a2,256
  400c2c:	8fbc0010 	lw	gp,16(sp)
  400c30:	26441178 	addiu	a0,s2,4472
  400c34:	3c050040 	lui	a1,0x40
  400c38:	24a511e4 	addiu	a1,a1,4580
  400c3c:	8f998038 	lw	t9,-32712(gp)
  400c40:	0320f809 	jalr	t9
  400c44:	02203021 	move	a2,s1
  400c48:	8fbc0010 	lw	gp,16(sp)
  400c4c:	02002021 	move	a0,s0
  400c50:	3c050040 	lui	a1,0x40
  400c54:	24a511f0 	addiu	a1,a1,4592
[31m  400c58:	8f99805c 	lw	t9,fprintf[0m
  400c5c:	0320f809 	jalr	t9
  400c60:	02203021 	move	a2,s1
  400c64:	8fbc0010 	lw	gp,16(sp)
  400c68:	02202021 	move	a0,s1
  400c6c:	00002821 	move	a1,zero
  400c70:	8f998050 	lw	t9,-32688(gp)
  400c74:	0320f809 	jalr	t9
  400c78:	24060100 	li	a2,256
  400c7c:	8fbc0010 	lw	gp,16(sp)
  400c80:	26441178 	addiu	a0,s2,4472
  400c84:	3c050040 	lui	a1,0x40
  400c88:	24a51204 	addiu	a1,a1,4612
  400c8c:	8f998038 	lw	t9,-32712(gp)
  400c90:	0320f809 	jalr	t9
  400c94:	02203021 	move	a2,s1
  400c98:	8fbc0010 	lw	gp,16(sp)
  400c9c:	02002021 	move	a0,s0
  400ca0:	3c050040 	lui	a1,0x40
  400ca4:	24a51214 	addiu	a1,a1,4628
[31m  400ca8:	8f99805c 	lw	t9,fprintf[0m
  400cac:	0320f809 	jalr	t9
  400cb0:	02203021 	move	a2,s1
--
  400d0c:	24841248 	addiu	a0,a0,4680
  400d10:	24050001 	li	a1,1
  400d14:	24060010 	li	a2,16
  400d18:	8f99803c 	lw	t9,-32708(gp)
  400d1c:	0320f809 	jalr	t9
  400d20:	02003821 	move	a3,s0
  400d24:	8fbc0010 	lw	gp,16(sp)
  400d28:	27b10020 	addiu	s1,sp,32
  400d2c:	02202021 	move	a0,s1
  400d30:	00002821 	move	a1,zero
  400d34:	8f998050 	lw	t9,-32688(gp)
  400d38:	0320f809 	jalr	t9
  400d3c:	24060100 	li	a2,256
  400d40:	8fbc0010 	lw	gp,16(sp)
  400d44:	3c120040 	lui	s2,0x40
  400d48:	26441178 	addiu	a0,s2,4472
  400d4c:	3c050040 	lui	a1,0x40
  400d50:	24a5125c 	addiu	a1,a1,4700
  400d54:	8f998038 	lw	t9,-32712(gp)
  400d58:	0320f809 	jalr	t9
  400d5c:	02203021 	move	a2,s1
  400d60:	8fbc0010 	lw	gp,16(sp)
  400d64:	02002021 	move	a0,s0
  400d68:	3c050040 	lui	a1,0x40
  400d6c:	24a51270 	addiu	a1,a1,4720
[31m  400d70:	8f99805c 	lw	t9,fprintf[0m
  400d74:	0320f809 	jalr	t9
  400d78:	02203021 	move	a2,s1
  400d7c:	8fbc0010 	lw	gp,16(sp)
  400d80:	02202021 	move	a0,s1
  400d84:	00002821 	move	a1,zero
  400d88:	8f998050 	lw	t9,-32688(gp)
  400d8c:	0320f809 	jalr	t9
  400d90:	24060100 	li	a2,256
  400d94:	8fbc0010 	lw	gp,16(sp)
  400d98:	26441178 	addiu	a0,s2,4472
  400d9c:	3c050040 	lui	a1,0x40
  400da0:	24a51284 	addiu	a1,a1,4740
  400da4:	8f998038 	lw	t9,-32712(gp)
  400da8:	0320f809 	jalr	t9
  400dac:	02203021 	move	a2,s1
  400db0:	8fbc0010 	lw	gp,16(sp)
  400db4:	02002021 	move	a0,s0
  400db8:	3c050040 	lui	a1,0x40
  400dbc:	24a51298 	addiu	a1,a1,4760
[31m  400dc0:	8f99805c 	lw	t9,fprintf[0m
  400dc4:	0320f809 	jalr	t9
  400dc8:	02203021 	move	a2,s1
  400dcc:	8fbc0010 	lw	gp,16(sp)
  400dd0:	afa0001c 	sw	zero,28(sp)
  400dd4:	26441178 	addiu	a0,s2,4472
  400dd8:	3c050040 	lui	a1,0x40
  400ddc:	24a512ac 	addiu	a1,a1,4780
  400de0:	8f998038 	lw	t9,-32712(gp)
  400de4:	0320f809 	jalr	t9
  400de8:	27a6001c 	addiu	a2,sp,28
  400dec:	8fbc0010 	lw	gp,16(sp)
  400df0:	02002021 	move	a0,s0
  400df4:	3c050040 	lui	a1,0x40
  400df8:	8fa6001c 	lw	a2,28(sp)
[31m  400dfc:	8f99805c 	lw	t9,fprintf[0m
  400e00:	0320f809 	jalr	t9
  400e04:	24a512c0 	addiu	a1,a1,4800
  400e08:	8fbc0010 	lw	gp,16(sp)
  400e0c:	02202021 	move	a0,s1
  400e10:	00002821 	move	a1,zero
  400e14:	8f998050 	lw	t9,-32688(gp)
  400e18:	0320f809 	jalr	t9
  400e1c:	24060100 	li	a2,256
  400e20:	8fbc0010 	lw	gp,16(sp)
  400e24:	26441178 	addiu	a0,s2,4472
  400e28:	3c050040 	lui	a1,0x40
  400e2c:	24a512d0 	addiu	a1,a1,4816
  400e30:	8f998038 	lw	t9,-32712(gp)
  400e34:	0320f809 	jalr	t9
  400e38:	02203021 	move	a2,s1
  400e3c:	8fbc0010 	lw	gp,16(sp)
  400e40:	02002021 	move	a0,s0
  400e44:	3c050040 	lui	a1,0x40
  400e48:	24a512e0 	addiu	a1,a1,4832
[31m  400e4c:	8f99805c 	lw	t9,fprintf[0m
  400e50:	0320f809 	jalr	t9
  400e54:	02203021 	move	a2,s1

[0m
[[0;33m*[0m] Function [0;33mfprintf[0m used [0;33m8[0m times [0;33mqueryconf.cgi[0m

