[[0;33m*[0m] Binary protection state of [0;33muserconfig[0m
[REF] s12

  	RELRO          CANARY            NX           PIE       RPATH        RUNPATH      SYMBOLS      
  	[31mNo RELRO[0m       [31mNo Canary found[0m   [31mNX disabled[0m  [31mNo PIE[0m       [32mNo RPATH[0m     [32mNo RUNPATH[0m   [32mNo Symbols[0m

[0m
[[0;33m*[0m] Function [0;33mprintf[0m tear down of [0;33muserconfig[0m

  4017a4:	8fb10644 	lw	s1,1604(sp)
  4017a8:	8fb00640 	lw	s0,1600(sp)
  4017ac:	03e00008 	jr	ra
  4017b0:	27bd0668 	addiu	sp,sp,1640
  4017b4:	27bdffc0 	addiu	sp,sp,-64
  4017b8:	afbf003c 	sw	ra,60(sp)
  4017bc:	afb70038 	sw	s7,56(sp)
  4017c0:	afb60034 	sw	s6,52(sp)
  4017c4:	afb50030 	sw	s5,48(sp)
  4017c8:	afb4002c 	sw	s4,44(sp)
  4017cc:	afb30028 	sw	s3,40(sp)
  4017d0:	afb20024 	sw	s2,36(sp)
  4017d4:	afb10020 	sw	s1,32(sp)
  4017d8:	afb0001c 	sw	s0,28(sp)
  4017dc:	3c1c0042 	lui	gp,0x42
  4017e0:	279cb030 	addiu	gp,gp,-20432
  4017e4:	afbc0010 	sw	gp,16(sp)
  4017e8:	8f998050 	lw	t9,-32688(gp)
  4017ec:	0320f809 	jalr	t9
  4017f0:	00808021 	move	s0,a0
  4017f4:	8fbc0010 	lw	gp,16(sp)
  4017f8:	04410008 	bgez	v0,40181c <_ftext@@Base+0xcdc>
  4017fc:	00409021 	move	s2,v0
  401800:	3c040040 	lui	a0,0x40
  401804:	24842c84 	addiu	a0,a0,11396
[31m  401808:	8f9980e4 	lw	t9,printf[0m
  40180c:	0320f809 	jalr	t9
  401810:	02002821 	move	a1,s0
  401814:	1000003a 	b	401900 <_ftext@@Base+0xdc0>
  401818:	2402ffff 	li	v0,-1
  40181c:	3c040040 	lui	a0,0x40
  401820:	24842cac 	addiu	a0,a0,11436
[31m  401824:	8f9980e4 	lw	t9,printf[0m
  401828:	0320f809 	jalr	t9
  40182c:	02002821 	move	a1,s0
--
  40183c:	26d62cb8 	addiu	s6,s6,11448
  401840:	3c130040 	lui	s3,0x40
  401844:	26732cbc 	addiu	s3,s3,11452
  401848:	3c148000 	lui	s4,0x8000
  40184c:	36940003 	ori	s4,s4,0x3
  401850:	2417fffc 	li	s7,-4
  401854:	24150003 	li	s5,3
  401858:	02402021 	move	a0,s2
  40185c:	8f998080 	lw	t9,-32640(gp)
  401860:	0320f809 	jalr	t9
  401864:	02202821 	move	a1,s1
  401868:	8fbc0010 	lw	gp,16(sp)
  40186c:	14400009 	bnez	v0,401894 <_ftext@@Base+0xd54>
  401870:	00408021 	move	s0,v0
  401874:	32310003 	andi	s1,s1,0x3
  401878:	12200020 	beqz	s1,4018fc <_ftext@@Base+0xdbc>
  40187c:	00000000 	nop
  401880:	8f9980f0 	lw	t9,-32528(gp)
  401884:	0320f809 	jalr	t9
  401888:	2404000a 	li	a0,10
  40188c:	1000001c 	b	401900 <_ftext@@Base+0xdc0>
  401890:	00001021 	move	v0,zero
  401894:	32220003 	andi	v0,s1,0x3
  401898:	14400006 	bnez	v0,4018b4 <_ftext@@Base+0xd74>
  40189c:	02602021 	move	a0,s3
[31m  4018a0:	8f9980e4 	lw	t9,printf[0m
  4018a4:	0320f809 	jalr	t9
  4018a8:	02c02021 	move	a0,s6
  4018ac:	8fbc0010 	lw	gp,16(sp)
  4018b0:	02602021 	move	a0,s3
[31m  4018b4:	8f9980e4 	lw	t9,printf[0m
  4018b8:	0320f809 	jalr	t9
  4018bc:	02002821 	move	a1,s0
--
  401964:	36520003 	ori	s2,s2,0x3
  401968:	2414fffc 	li	s4,-4
  40196c:	24130003 	li	s3,3
  401970:	8f998098 	lw	t9,-32616(gp)
  401974:	0320f809 	jalr	t9
  401978:	02002021 	move	a0,s0
  40197c:	8fbc0010 	lw	gp,16(sp)
  401980:	14400010 	bnez	v0,4019c4 <_ftext@@Base+0xe84>
  401984:	00000000 	nop
  401988:	32100003 	andi	s0,s0,0x3
  40198c:	12000005 	beqz	s0,4019a4 <_ftext@@Base+0xe64>
  401990:	00001021 	move	v0,zero
  401994:	8f9980f0 	lw	t9,-32528(gp)
  401998:	0320f809 	jalr	t9
  40199c:	2404000a 	li	a0,10
  4019a0:	00001021 	move	v0,zero
  4019a4:	8fbf002c 	lw	ra,44(sp)
  4019a8:	8fb40028 	lw	s4,40(sp)
  4019ac:	8fb30024 	lw	s3,36(sp)
  4019b0:	8fb20020 	lw	s2,32(sp)
  4019b4:	8fb1001c 	lw	s1,28(sp)
  4019b8:	8fb00018 	lw	s0,24(sp)
  4019bc:	03e00008 	jr	ra
  4019c0:	27bd0030 	addiu	sp,sp,48
  4019c4:	02202021 	move	a0,s1
[31m  4019c8:	8f9980e4 	lw	t9,printf[0m
  4019cc:	0320f809 	jalr	t9
  4019d0:	00402821 	move	a1,v0
--
  401a00:	2404000a 	li	a0,10
  401a04:	8fbc0010 	lw	gp,16(sp)
  401a08:	1000ffd9 	b	401970 <_ftext@@Base+0xe30>
  401a0c:	26100001 	addiu	s0,s0,1
  401a10:	27bdffd0 	addiu	sp,sp,-48
  401a14:	afbf002c 	sw	ra,44(sp)
  401a18:	afb30028 	sw	s3,40(sp)
  401a1c:	afb20024 	sw	s2,36(sp)
  401a20:	afb10020 	sw	s1,32(sp)
  401a24:	afb0001c 	sw	s0,28(sp)
  401a28:	3c1c0042 	lui	gp,0x42
  401a2c:	279cb030 	addiu	gp,gp,-20432
  401a30:	afbc0010 	sw	gp,16(sp)
  401a34:	2ca20015 	sltiu	v0,a1,21
  401a38:	1040004b 	beqz	v0,401b68 <_ftext@@Base+0x1028>
  401a3c:	00c08821 	move	s1,a2
  401a40:	00051880 	sll	v1,a1,0x2
  401a44:	3c020040 	lui	v0,0x40
  401a48:	24422ef4 	addiu	v0,v0,12020
  401a4c:	00431021 	addu	v0,v0,v1
  401a50:	8c420000 	lw	v0,0(v0)
  401a54:	00400008 	jr	v0
  401a58:	00000000 	nop
  401a5c:	3c040040 	lui	a0,0x40
  401a60:	8cc50000 	lw	a1,0(a2)
[31m  401a64:	8f9980e4 	lw	t9,printf[0m
  401a68:	0320f809 	jalr	t9
  401a6c:	24842cc0 	addiu	a0,a0,11456
  401a70:	1000003d 	b	401b68 <_ftext@@Base+0x1028>
  401a74:	00000000 	nop
  401a78:	3c040040 	lui	a0,0x40
  401a7c:	84c50000 	lh	a1,0(a2)
[31m  401a80:	8f9980e4 	lw	t9,printf[0m
  401a84:	0320f809 	jalr	t9
  401a88:	24842cc0 	addiu	a0,a0,11456
  401a8c:	10000036 	b	401b68 <_ftext@@Base+0x1028>
  401a90:	00000000 	nop
  401a94:	3c040040 	lui	a0,0x40
  401a98:	80c50000 	lb	a1,0(a2)
[31m  401a9c:	8f9980e4 	lw	t9,printf[0m
  401aa0:	0320f809 	jalr	t9
  401aa4:	24842cc0 	addiu	a0,a0,11456
  401aa8:	1000002f 	b	401b68 <_ftext@@Base+0x1028>
  401aac:	00000000 	nop
  401ab0:	3c040040 	lui	a0,0x40
  401ab4:	8cc50000 	lw	a1,0(a2)
[31m  401ab8:	8f9980e4 	lw	t9,printf[0m
  401abc:	0320f809 	jalr	t9
  401ac0:	24842cc4 	addiu	a0,a0,11460
  401ac4:	10000028 	b	401b68 <_ftext@@Base+0x1028>
  401ac8:	00000000 	nop
  401acc:	3c040040 	lui	a0,0x40
  401ad0:	94c50000 	lhu	a1,0(a2)
[31m  401ad4:	8f9980e4 	lw	t9,printf[0m
  401ad8:	0320f809 	jalr	t9
  401adc:	24842ccc 	addiu	a0,a0,11468
  401ae0:	10000021 	b	401b68 <_ftext@@Base+0x1028>
  401ae4:	00000000 	nop
  401ae8:	3c040040 	lui	a0,0x40
  401aec:	90c50000 	lbu	a1,0(a2)
[31m  401af0:	8f9980e4 	lw	t9,printf[0m
  401af4:	0320f809 	jalr	t9
  401af8:	24842cd4 	addiu	a0,a0,11476
  401afc:	1000001a 	b	401b68 <_ftext@@Base+0x1028>
  401b00:	00000000 	nop
  401b04:	8f9980d0 	lw	t9,-32560(gp)
  401b08:	0320f809 	jalr	t9
  401b0c:	00c02021 	move	a0,a2
  401b10:	10000015 	b	401b68 <_ftext@@Base+0x1028>
  401b14:	00000000 	nop
  401b18:	24a5fffb 	addiu	a1,a1,-5
  401b1c:	24120001 	li	s2,1
  401b20:	00b29004 	sllv	s2,s2,a1
  401b24:	1a40000d 	blez	s2,401b5c <_ftext@@Base+0x101c>
  401b28:	00008021 	move	s0,zero
  401b2c:	3c130040 	lui	s3,0x40
  401b30:	26732cdc 	addiu	s3,s3,11484
  401b34:	02301021 	addu	v0,s1,s0
  401b38:	90450000 	lbu	a1,0(v0)
[31m  401b3c:	8f9980e4 	lw	t9,printf[0m
  401b40:	0320f809 	jalr	t9
  401b44:	02602021 	move	a0,s3
--
  401c6c:	3c170040 	lui	s7,0x40
  401c70:	26f72cac 	addiu	s7,s7,11436
  401c74:	0000f021 	move	s8,zero
  401c78:	3c160040 	lui	s6,0x40
  401c7c:	26d62ce4 	addiu	s6,s6,11492
  401c80:	27b40018 	addiu	s4,sp,24
  401c84:	8f998098 	lw	t9,-32616(gp)
  401c88:	0320f809 	jalr	t9
  401c8c:	02602021 	move	a0,s3
  401c90:	8fbc0010 	lw	gp,16(sp)
  401c94:	1440000d 	bnez	v0,401ccc <_ftext@@Base+0x118c>
  401c98:	00000000 	nop
  401c9c:	8fbf023c 	lw	ra,572(sp)
  401ca0:	8fbe0238 	lw	s8,568(sp)
  401ca4:	8fb70234 	lw	s7,564(sp)
  401ca8:	8fb60230 	lw	s6,560(sp)
  401cac:	8fb5022c 	lw	s5,556(sp)
  401cb0:	8fb40228 	lw	s4,552(sp)
  401cb4:	8fb30224 	lw	s3,548(sp)
  401cb8:	8fb20220 	lw	s2,544(sp)
  401cbc:	8fb1021c 	lw	s1,540(sp)
  401cc0:	8fb00218 	lw	s0,536(sp)
  401cc4:	03e00008 	jr	ra
  401cc8:	27bd0240 	addiu	sp,sp,576
  401ccc:	02e02021 	move	a0,s7
[31m  401cd0:	8f9980e4 	lw	t9,printf[0m
  401cd4:	0320f809 	jalr	t9
  401cd8:	00402821 	move	a1,v0
--
  401ce4:	02602021 	move	a0,s3
  401ce8:	8f998080 	lw	t9,-32640(gp)
  401cec:	0320f809 	jalr	t9
  401cf0:	02202821 	move	a1,s1
  401cf4:	8fbc0010 	lw	gp,16(sp)
  401cf8:	1040001d 	beqz	v0,401d70 <_ftext@@Base+0x1230>
  401cfc:	00409021 	move	s2,v0
  401d00:	02602021 	move	a0,s3
  401d04:	8f9980bc 	lw	t9,-32580(gp)
  401d08:	0320f809 	jalr	t9
  401d0c:	02202821 	move	a1,s1
  401d10:	8fbc0010 	lw	gp,16(sp)
  401d14:	00408021 	move	s0,v0
  401d18:	8f99806c 	lw	t9,-32660(gp)
  401d1c:	0320f809 	jalr	t9
  401d20:	00402021 	move	a0,v0
  401d24:	8fbc0010 	lw	gp,16(sp)
  401d28:	0040a821 	move	s5,v0
  401d2c:	02002021 	move	a0,s0
  401d30:	8f998038 	lw	t9,-32712(gp)
  401d34:	0320f809 	jalr	t9
  401d38:	02802821 	move	a1,s4
  401d3c:	8fbc0010 	lw	gp,16(sp)
  401d40:	0440000b 	bltz	v0,401d70 <_ftext@@Base+0x1230>
  401d44:	02c02021 	move	a0,s6
[31m  401d48:	8f9980e4 	lw	t9,printf[0m
  401d4c:	0320f809 	jalr	t9
  401d50:	02402821 	move	a1,s2
--
  401d64:	8fbc0010 	lw	gp,16(sp)
  401d68:	1000ffde 	b	401ce4 <_ftext@@Base+0x11a4>
  401d6c:	26310001 	addiu	s1,s1,1
  401d70:	1000ffc4 	b	401c84 <_ftext@@Base+0x1144>
  401d74:	26730001 	addiu	s3,s3,1
  401d78:	27bdfdc8 	addiu	sp,sp,-568
  401d7c:	afbf0234 	sw	ra,564(sp)
  401d80:	afb60230 	sw	s6,560(sp)
  401d84:	afb5022c 	sw	s5,556(sp)
  401d88:	afb40228 	sw	s4,552(sp)
  401d8c:	afb30224 	sw	s3,548(sp)
  401d90:	afb20220 	sw	s2,544(sp)
  401d94:	afb1021c 	sw	s1,540(sp)
  401d98:	afb00218 	sw	s0,536(sp)
  401d9c:	3c1c0042 	lui	gp,0x42
  401da0:	279cb030 	addiu	gp,gp,-20432
  401da4:	afbc0010 	sw	gp,16(sp)
  401da8:	8f998050 	lw	t9,-32688(gp)
  401dac:	0320f809 	jalr	t9
  401db0:	00808021 	move	s0,a0
  401db4:	8fbc0010 	lw	gp,16(sp)
  401db8:	04410008 	bgez	v0,401ddc <_ftext@@Base+0x129c>
  401dbc:	00409821 	move	s3,v0
  401dc0:	3c040040 	lui	a0,0x40
  401dc4:	24842c84 	addiu	a0,a0,11396
[31m  401dc8:	8f9980e4 	lw	t9,printf[0m
  401dcc:	0320f809 	jalr	t9
  401dd0:	02002821 	move	a1,s0
  401dd4:	1000002f 	b	401e94 <_ftext@@Base+0x1354>
  401dd8:	2402ffff 	li	v0,-1
  401ddc:	3c040040 	lui	a0,0x40
  401de0:	24842cac 	addiu	a0,a0,11436
[31m  401de4:	8f9980e4 	lw	t9,printf[0m
  401de8:	0320f809 	jalr	t9
  401dec:	02002821 	move	a1,s0
--
  401e04:	02602021 	move	a0,s3
  401e08:	8f998080 	lw	t9,-32640(gp)
  401e0c:	0320f809 	jalr	t9
  401e10:	02202821 	move	a1,s1
  401e14:	8fbc0010 	lw	gp,16(sp)
  401e18:	1040001d 	beqz	v0,401e90 <_ftext@@Base+0x1350>
  401e1c:	00409021 	move	s2,v0
  401e20:	02602021 	move	a0,s3
  401e24:	8f9980bc 	lw	t9,-32580(gp)
  401e28:	0320f809 	jalr	t9
  401e2c:	02202821 	move	a1,s1
  401e30:	8fbc0010 	lw	gp,16(sp)
  401e34:	00408021 	move	s0,v0
  401e38:	8f99806c 	lw	t9,-32660(gp)
  401e3c:	0320f809 	jalr	t9
  401e40:	00402021 	move	a0,v0
  401e44:	8fbc0010 	lw	gp,16(sp)
  401e48:	0040a021 	move	s4,v0
  401e4c:	02002021 	move	a0,s0
  401e50:	8f998038 	lw	t9,-32712(gp)
  401e54:	0320f809 	jalr	t9
  401e58:	02a02821 	move	a1,s5
  401e5c:	8fbc0010 	lw	gp,16(sp)
  401e60:	0440000b 	bltz	v0,401e90 <_ftext@@Base+0x1350>
  401e64:	02c02021 	move	a0,s6
[31m  401e68:	8f9980e4 	lw	t9,printf[0m
  401e6c:	0320f809 	jalr	t9
  401e70:	02402821 	move	a1,s2

[0m
[[0;33m*[0m] Function [0;33mprintf[0m used [0;33m17[0m times [0;33muserconfig[0m

