[[0;33m*[0m] Binary protection state of [0;33mrscam_uvc[0m
[REF] s12

  	RELRO          CANARY            NX           PIE       RPATH        RUNPATH      SYMBOLS      
  	[31mNo RELRO[0m       [31mNo Canary found[0m   [31mNX disabled[0m  [31mNo PIE[0m       [32mNo RPATH[0m     [32mNo RUNPATH[0m   [31mSymbols[0m

[0m
[[0;33m*[0m] Function [0;33mfprintf[0m tear down of [0;33mrscam_uvc[0m

  404ffc:	0320f809 	jalr	t9
  405000:	00000000 	nop
  405004:	8fdc0018 	lw	gp,24(s8)
  405008:	3043ffff 	andi	v1,v0,0xffff
  40500c:	8fc20020 	lw	v0,32(s8)
  405010:	a443000a 	sh	v1,10(v0)
  405014:	8fc20020 	lw	v0,32(s8)
  405018:	00402021 	move	a0,v0
  40501c:	8f858058 	lw	a1,-32680(gp)
  405020:	8f828028 	lw	v0,-32728(gp)
  405024:	24423dcc 	addiu	v0,v0,15820
  405028:	0040c821 	move	t9,v0
  40502c:	0320f809 	jalr	t9
  405030:	00000000 	nop
  405034:	8fdc0018 	lw	gp,24(s8)
  405038:	1000002e 	b	4050f4 <parse_option+0x1008>
  40503c:	00000000 	nop
  405040:	8f8280cc 	lw	v0,-32564(gp)
  405044:	8c440000 	lw	a0,0(v0)
  405048:	8f82802c 	lw	v0,-32724(gp)
  40504c:	244373b4 	addiu	v1,v0,29620
  405050:	8f8280b4 	lw	v0,-32588(gp)
  405054:	8c420000 	lw	v0,0(v0)
  405058:	00602821 	move	a1,v1
  40505c:	00403021 	move	a2,v0
[31m  405060:	8f82819c 	lw	v0,fprintf[0m
  405064:	0040c821 	move	t9,v0
  405068:	0320f809 	jalr	t9
  40506c:	00000000 	nop
  405070:	8fdc0018 	lw	gp,24(s8)
  405074:	24040001 	li	a0,1
  405078:	8f82807c 	lw	v0,-32644(gp)
  40507c:	0040c821 	move	t9,v0
  405080:	0320f809 	jalr	t9
  405084:	00000000 	nop
  405088:	8f8280cc 	lw	v0,-32564(gp)
  40508c:	8c440000 	lw	a0,0(v0)
  405090:	8f82802c 	lw	v0,-32724(gp)
  405094:	244373cc 	addiu	v1,v0,29644
  405098:	8f8280b4 	lw	v0,-32588(gp)
  40509c:	8c420000 	lw	v0,0(v0)
  4050a0:	00602821 	move	a1,v1
  4050a4:	00403021 	move	a2,v0
[31m  4050a8:	8f82819c 	lw	v0,fprintf[0m
  4050ac:	0040c821 	move	t9,v0
  4050b0:	0320f809 	jalr	t9
--
  405740:	0040c821 	move	t9,v0
  405744:	0320f809 	jalr	t9
  405748:	00000000 	nop
  40574c:	8fdc0010 	lw	gp,16(s8)
  405750:	8f8280cc 	lw	v0,-32564(gp)
  405754:	8c520000 	lw	s2,0(v0)
  405758:	8f82802c 	lw	v0,-32724(gp)
  40575c:	24517428 	addiu	s1,v0,29736
  405760:	8fc20048 	lw	v0,72(s8)
  405764:	94420008 	lhu	v0,8(v0)
  405768:	00408021 	move	s0,v0
  40576c:	8fc4001c 	lw	a0,28(s8)
  405770:	8fc50020 	lw	a1,32(s8)
  405774:	8fc60024 	lw	a2,36(s8)
  405778:	8fc70028 	lw	a3,40(s8)
  40577c:	8f828028 	lw	v0,-32728(gp)
  405780:	24425154 	addiu	v0,v0,20820
  405784:	0040c821 	move	t9,v0
  405788:	0320f809 	jalr	t9
  40578c:	00000000 	nop
  405790:	8fdc0010 	lw	gp,16(s8)
  405794:	02402021 	move	a0,s2
  405798:	02202821 	move	a1,s1
  40579c:	02003021 	move	a2,s0
  4057a0:	00403821 	move	a3,v0
[31m  4057a4:	8f82819c 	lw	v0,fprintf[0m
  4057a8:	0040c821 	move	t9,v0
  4057ac:	0320f809 	jalr	t9
--
  4057d0:	0040c821 	move	t9,v0
  4057d4:	0320f809 	jalr	t9
  4057d8:	00000000 	nop
  4057dc:	8fdc0010 	lw	gp,16(s8)
  4057e0:	8f82824c 	lw	v0,-32180(gp)
  4057e4:	8c520000 	lw	s2,0(v0)
  4057e8:	8f82802c 	lw	v0,-32724(gp)
  4057ec:	24517444 	addiu	s1,v0,29764
  4057f0:	8fc20048 	lw	v0,72(s8)
  4057f4:	94420008 	lhu	v0,8(v0)
  4057f8:	00408021 	move	s0,v0
  4057fc:	8fc4001c 	lw	a0,28(s8)
  405800:	8fc50020 	lw	a1,32(s8)
  405804:	8fc60024 	lw	a2,36(s8)
  405808:	8fc70028 	lw	a3,40(s8)
  40580c:	8f828028 	lw	v0,-32728(gp)
  405810:	24425154 	addiu	v0,v0,20820
  405814:	0040c821 	move	t9,v0
  405818:	0320f809 	jalr	t9
  40581c:	00000000 	nop
  405820:	8fdc0010 	lw	gp,16(s8)
  405824:	02402021 	move	a0,s2
  405828:	02202821 	move	a1,s1
  40582c:	02003021 	move	a2,s0
  405830:	00403821 	move	a3,v0
[31m  405834:	8f82819c 	lw	v0,fprintf[0m
  405838:	0040c821 	move	t9,v0
  40583c:	0320f809 	jalr	t9
--
  406250:	0040c821 	move	t9,v0
  406254:	0320f809 	jalr	t9
  406258:	00000000 	nop
  40625c:	8fdc0010 	lw	gp,16(s8)
  406260:	27c20020 	addiu	v0,s8,32
  406264:	8fc40030 	lw	a0,48(s8)
  406268:	3405fe21 	li	a1,0xfe21
  40626c:	24060002 	li	a2,2
  406270:	00403821 	move	a3,v0
  406274:	8f8281cc 	lw	v0,-32308(gp)
  406278:	0040c821 	move	t9,v0
  40627c:	0320f809 	jalr	t9
  406280:	00000000 	nop
  406284:	8fdc0010 	lw	gp,16(s8)
  406288:	afc2001c 	sw	v0,28(s8)
  40628c:	8fc2001c 	lw	v0,28(s8)
  406290:	10400018 	beqz	v0,4062f4 <rts_reset_preset+0x110>
  406294:	00000000 	nop
  406298:	8f82824c 	lw	v0,-32180(gp)
  40629c:	8c430000 	lw	v1,0(v0)
  4062a0:	8f82802c 	lw	v0,-32724(gp)
  4062a4:	244277c0 	addiu	v0,v0,30656
  4062a8:	00602021 	move	a0,v1
  4062ac:	00402821 	move	a1,v0
  4062b0:	8fc6001c 	lw	a2,28(s8)
[31m  4062b4:	8f82819c 	lw	v0,fprintf[0m
  4062b8:	0040c821 	move	t9,v0
  4062bc:	0320f809 	jalr	t9
--
  406b90:	80a50000 	lb	a1,0(a1)
  406b94:	24420001 	addiu	v0,v0,1
  406b98:	304600ff 	andi	a2,v0,0xff
  406b9c:	8f828018 	lw	v0,-32744(gp)
  406ba0:	a0469530 	sb	a2,-27344(v0)
  406ba4:	8fc20030 	lw	v0,48(s8)
  406ba8:	00021080 	sll	v0,v0,0x2
  406bac:	00023080 	sll	a2,v0,0x2
  406bb0:	00461021 	addu	v0,v0,a2
  406bb4:	00023080 	sll	a2,v0,0x2
  406bb8:	00463021 	addu	a2,v0,a2
  406bbc:	8fc20090 	lw	v0,144(s8)
  406bc0:	00c2001b 	divu	zero,a2,v0
  406bc4:	14400002 	bnez	v0,406bd0 <uvc_download_fm+0x364>
  406bc8:	00000000 	nop
  406bcc:	0007000d 	break	0x7
  406bd0:	00003010 	mfhi	a2
  406bd4:	00001012 	mflo	v0
  406bd8:	afa50010 	sw	a1,16(sp)
  406bdc:	afa20014 	sw	v0,20(sp)
  406be0:	00602821 	move	a1,v1
  406be4:	8f82802c 	lw	v0,-32724(gp)
  406be8:	24467888 	addiu	a2,v0,30856
  406bec:	8f82802c 	lw	v0,-32724(gp)
  406bf0:	24477890 	addiu	a3,v0,30864
[31m  406bf4:	8f82819c 	lw	v0,fprintf[0m
  406bf8:	0040c821 	move	t9,v0
  406bfc:	0320f809 	jalr	t9
--
  406c64:	1462003c 	bne	v1,v0,406d58 <uvc_download_fm+0x4ec>
  406c68:	00000000 	nop
  406c6c:	8f82824c 	lw	v0,-32180(gp)
  406c70:	8c440000 	lw	a0,0(v0)
  406c74:	8f82802c 	lw	v0,-32724(gp)
  406c78:	244378a4 	addiu	v1,v0,30884
  406c7c:	8fc20030 	lw	v0,48(s8)
  406c80:	00021080 	sll	v0,v0,0x2
  406c84:	00022880 	sll	a1,v0,0x2
  406c88:	00451021 	addu	v0,v0,a1
  406c8c:	00022880 	sll	a1,v0,0x2
  406c90:	00452821 	addu	a1,v0,a1
  406c94:	8fc20090 	lw	v0,144(s8)
  406c98:	00a2001b 	divu	zero,a1,v0
  406c9c:	14400002 	bnez	v0,406ca8 <uvc_download_fm+0x43c>
  406ca0:	00000000 	nop
  406ca4:	0007000d 	break	0x7
  406ca8:	00002810 	mfhi	a1
  406cac:	00001012 	mflo	v0
  406cb0:	afa20010 	sw	v0,16(sp)
  406cb4:	00602821 	move	a1,v1
  406cb8:	8f82802c 	lw	v0,-32724(gp)
  406cbc:	24467888 	addiu	a2,v0,30856
  406cc0:	8f82802c 	lw	v0,-32724(gp)
  406cc4:	24477890 	addiu	a3,v0,30864
[31m  406cc8:	8f82819c 	lw	v0,fprintf[0m
  406ccc:	0040c821 	move	t9,v0
  406cd0:	0320f809 	jalr	t9
  406cd4:	00000000 	nop
  406cd8:	8fdc0018 	lw	gp,24(s8)
  406cdc:	8f82824c 	lw	v0,-32180(gp)
  406ce0:	8c420000 	lw	v0,0(v0)
  406ce4:	00402021 	move	a0,v0
  406ce8:	8f8281d8 	lw	v0,-32296(gp)
  406cec:	0040c821 	move	t9,v0
  406cf0:	0320f809 	jalr	t9
  406cf4:	00000000 	nop
  406cf8:	8fdc0018 	lw	gp,24(s8)
  406cfc:	8f82824c 	lw	v0,-32180(gp)
  406d00:	8c430000 	lw	v1,0(v0)
  406d04:	8f82802c 	lw	v0,-32724(gp)
  406d08:	244278b0 	addiu	v0,v0,30896
  406d0c:	00602021 	move	a0,v1
  406d10:	00402821 	move	a1,v0
  406d14:	8f82802c 	lw	v0,-32724(gp)
  406d18:	24467888 	addiu	a2,v0,30856
  406d1c:	8f82802c 	lw	v0,-32724(gp)
  406d20:	24477890 	addiu	a3,v0,30864
[31m  406d24:	8f82819c 	lw	v0,fprintf[0m
  406d28:	0040c821 	move	t9,v0
  406d2c:	0320f809 	jalr	t9
--
  406e9c:	80a50000 	lb	a1,0(a1)
  406ea0:	24420001 	addiu	v0,v0,1
  406ea4:	304600ff 	andi	a2,v0,0xff
  406ea8:	8f828018 	lw	v0,-32744(gp)
  406eac:	a0469530 	sb	a2,-27344(v0)
  406eb0:	8fc20030 	lw	v0,48(s8)
  406eb4:	00021080 	sll	v0,v0,0x2
  406eb8:	00023080 	sll	a2,v0,0x2
  406ebc:	00461021 	addu	v0,v0,a2
  406ec0:	00023080 	sll	a2,v0,0x2
  406ec4:	00463021 	addu	a2,v0,a2
  406ec8:	8fc20090 	lw	v0,144(s8)
  406ecc:	00c2001b 	divu	zero,a2,v0
  406ed0:	14400002 	bnez	v0,406edc <uvc_download_fm+0x670>
  406ed4:	00000000 	nop
  406ed8:	0007000d 	break	0x7
  406edc:	00003010 	mfhi	a2
  406ee0:	00001012 	mflo	v0
  406ee4:	afa50010 	sw	a1,16(sp)
  406ee8:	afa20014 	sw	v0,20(sp)
  406eec:	00602821 	move	a1,v1
  406ef0:	8f82802c 	lw	v0,-32724(gp)
  406ef4:	24467888 	addiu	a2,v0,30856
  406ef8:	8f82802c 	lw	v0,-32724(gp)
  406efc:	244778e0 	addiu	a3,v0,30944
[31m  406f00:	8f82819c 	lw	v0,fprintf[0m
  406f04:	0040c821 	move	t9,v0
  406f08:	0320f809 	jalr	t9
--
  406f70:	1462003c 	bne	v1,v0,407064 <uvc_download_fm+0x7f8>
  406f74:	00000000 	nop
  406f78:	8f82824c 	lw	v0,-32180(gp)
  406f7c:	8c440000 	lw	a0,0(v0)
  406f80:	8f82802c 	lw	v0,-32724(gp)
  406f84:	244378a4 	addiu	v1,v0,30884
  406f88:	8fc20030 	lw	v0,48(s8)
  406f8c:	00021080 	sll	v0,v0,0x2
  406f90:	00022880 	sll	a1,v0,0x2
  406f94:	00451021 	addu	v0,v0,a1
  406f98:	00022880 	sll	a1,v0,0x2
  406f9c:	00452821 	addu	a1,v0,a1
  406fa0:	8fc20090 	lw	v0,144(s8)
  406fa4:	00a2001b 	divu	zero,a1,v0
  406fa8:	14400002 	bnez	v0,406fb4 <uvc_download_fm+0x748>
  406fac:	00000000 	nop
  406fb0:	0007000d 	break	0x7
  406fb4:	00002810 	mfhi	a1
  406fb8:	00001012 	mflo	v0
  406fbc:	afa20010 	sw	v0,16(sp)
  406fc0:	00602821 	move	a1,v1
  406fc4:	8f82802c 	lw	v0,-32724(gp)
  406fc8:	24467888 	addiu	a2,v0,30856
  406fcc:	8f82802c 	lw	v0,-32724(gp)
  406fd0:	244778e0 	addiu	a3,v0,30944
[31m  406fd4:	8f82819c 	lw	v0,fprintf[0m
  406fd8:	0040c821 	move	t9,v0
  406fdc:	0320f809 	jalr	t9
  406fe0:	00000000 	nop
  406fe4:	8fdc0018 	lw	gp,24(s8)
  406fe8:	8f82824c 	lw	v0,-32180(gp)
  406fec:	8c420000 	lw	v0,0(v0)
  406ff0:	00402021 	move	a0,v0
  406ff4:	8f8281d8 	lw	v0,-32296(gp)
  406ff8:	0040c821 	move	t9,v0
  406ffc:	0320f809 	jalr	t9
  407000:	00000000 	nop
  407004:	8fdc0018 	lw	gp,24(s8)
  407008:	8f82824c 	lw	v0,-32180(gp)
  40700c:	8c430000 	lw	v1,0(v0)
  407010:	8f82802c 	lw	v0,-32724(gp)
  407014:	244278b0 	addiu	v0,v0,30896
  407018:	00602021 	move	a0,v1
  40701c:	00402821 	move	a1,v0
  407020:	8f82802c 	lw	v0,-32724(gp)
  407024:	24467888 	addiu	a2,v0,30856
  407028:	8f82802c 	lw	v0,-32724(gp)
  40702c:	244778e0 	addiu	a3,v0,30944
[31m  407030:	8f82819c 	lw	v0,fprintf[0m
  407034:	0040c821 	move	t9,v0
  407038:	0320f809 	jalr	t9
--
  4070cc:	8f82808c 	lw	v0,-32628(gp)
  4070d0:	0040c821 	move	t9,v0
  4070d4:	0320f809 	jalr	t9
  4070d8:	00000000 	nop
  4070dc:	8fdc0018 	lw	gp,24(s8)
  4070e0:	8f82824c 	lw	v0,-32180(gp)
  4070e4:	8c420000 	lw	v0,0(v0)
  4070e8:	00402021 	move	a0,v0
  4070ec:	8f8281d8 	lw	v0,-32296(gp)
  4070f0:	0040c821 	move	t9,v0
  4070f4:	0320f809 	jalr	t9
  4070f8:	00000000 	nop
  4070fc:	8fdc0018 	lw	gp,24(s8)
  407100:	10000032 	b	4071cc <uvc_download_fm+0x960>
  407104:	00000000 	nop
  407108:	8f82824c 	lw	v0,-32180(gp)
  40710c:	8c430000 	lw	v1,0(v0)
  407110:	8f82802c 	lw	v0,-32724(gp)
  407114:	244278b0 	addiu	v0,v0,30896
  407118:	00602021 	move	a0,v1
  40711c:	00402821 	move	a1,v0
  407120:	8f82802c 	lw	v0,-32724(gp)
  407124:	24467888 	addiu	a2,v0,30856
  407128:	8f82802c 	lw	v0,-32724(gp)
  40712c:	2447791c 	addiu	a3,v0,31004
[31m  407130:	8f82819c 	lw	v0,fprintf[0m
  407134:	0040c821 	move	t9,v0
  407138:	0320f809 	jalr	t9
--
  407b38:	afbe0038 	sw	s8,56(sp)
  407b3c:	afb10034 	sw	s1,52(sp)
  407b40:	afb00030 	sw	s0,48(sp)
  407b44:	03a0f021 	move	s8,sp
  407b48:	afbc0010 	sw	gp,16(sp)
  407b4c:	afc40040 	sw	a0,64(s8)
  407b50:	afc50044 	sw	a1,68(s8)
  407b54:	2402ffff 	li	v0,-1
  407b58:	afc20028 	sw	v0,40(s8)
  407b5c:	afc00024 	sw	zero,36(s8)
  407b60:	afc00020 	sw	zero,32(s8)
  407b64:	afc0001c 	sw	zero,28(s8)
  407b68:	afc00018 	sw	zero,24(s8)
  407b6c:	8f82824c 	lw	v0,-32180(gp)
  407b70:	8c510000 	lw	s1,0(v0)
  407b74:	8f82802c 	lw	v0,-32724(gp)
  407b78:	24507a2c 	addiu	s0,v0,31276
  407b7c:	8f82809c 	lw	v0,-32612(gp)
  407b80:	0040c821 	move	t9,v0
  407b84:	0320f809 	jalr	t9
  407b88:	00000000 	nop
  407b8c:	8fdc0010 	lw	gp,16(s8)
  407b90:	02202021 	move	a0,s1
  407b94:	02002821 	move	a1,s0
  407b98:	00403021 	move	a2,v0
[31m  407b9c:	8f82819c 	lw	v0,fprintf[0m
  407ba0:	0040c821 	move	t9,v0
  407ba4:	0320f809 	jalr	t9
--
  407bb0:	8f82824c 	lw	v0,-32180(gp)
  407bb4:	8c420000 	lw	v0,0(v0)
  407bb8:	00402021 	move	a0,v0
  407bbc:	8f8281d8 	lw	v0,-32296(gp)
  407bc0:	0040c821 	move	t9,v0
  407bc4:	0320f809 	jalr	t9
  407bc8:	00000000 	nop
  407bcc:	8fdc0010 	lw	gp,16(s8)
  407bd0:	8fc40040 	lw	a0,64(s8)
  407bd4:	8f828140 	lw	v0,-32448(gp)
  407bd8:	0040c821 	move	t9,v0
  407bdc:	0320f809 	jalr	t9
  407be0:	00000000 	nop
  407be4:	8fdc0010 	lw	gp,16(s8)
  407be8:	afc20024 	sw	v0,36(s8)
  407bec:	8fc20024 	lw	v0,36(s8)
  407bf0:	04410011 	bgez	v0,407c38 <download_fw+0x114>
  407bf4:	00000000 	nop
  407bf8:	8f8280cc 	lw	v0,-32564(gp)
  407bfc:	8c430000 	lw	v1,0(v0)
  407c00:	8f82802c 	lw	v0,-32724(gp)
  407c04:	24427a50 	addiu	v0,v0,31312
  407c08:	00602021 	move	a0,v1
  407c0c:	00402821 	move	a1,v0
  407c10:	8fc60040 	lw	a2,64(s8)
[31m  407c14:	8f82819c 	lw	v0,fprintf[0m
  407c18:	0040c821 	move	t9,v0
  407c1c:	0320f809 	jalr	t9
--
  407f64:	0320f809 	jalr	t9
  407f68:	00000000 	nop
  407f6c:	8fdc0010 	lw	gp,16(s8)
  407f70:	afc20028 	sw	v0,40(s8)
  407f74:	10000005 	b	407f8c <download_fw+0x468>
  407f78:	00000000 	nop
  407f7c:	00000000 	nop
  407f80:	10000002 	b	407f8c <download_fw+0x468>
  407f84:	00000000 	nop
  407f88:	00000000 	nop
  407f8c:	8fc20028 	lw	v0,40(s8)
  407f90:	14400021 	bnez	v0,408018 <download_fw+0x4f4>
  407f94:	00000000 	nop
  407f98:	8f82824c 	lw	v0,-32180(gp)
  407f9c:	8c510000 	lw	s1,0(v0)
  407fa0:	8f82802c 	lw	v0,-32724(gp)
  407fa4:	24507aec 	addiu	s0,v0,31468
  407fa8:	8f82809c 	lw	v0,-32612(gp)
  407fac:	0040c821 	move	t9,v0
  407fb0:	0320f809 	jalr	t9
  407fb4:	00000000 	nop
  407fb8:	8fdc0010 	lw	gp,16(s8)
  407fbc:	02202021 	move	a0,s1
  407fc0:	02002821 	move	a1,s0
  407fc4:	00403021 	move	a2,v0
[31m  407fc8:	8f82819c 	lw	v0,fprintf[0m
  407fcc:	0040c821 	move	t9,v0
  407fd0:	0320f809 	jalr	t9
--
  407fe4:	00402021 	move	a0,v0
  407fe8:	8f8281d8 	lw	v0,-32296(gp)
  407fec:	0040c821 	move	t9,v0
  407ff0:	0320f809 	jalr	t9
  407ff4:	00000000 	nop
  407ff8:	8fdc0010 	lw	gp,16(s8)
  407ffc:	8f828188 	lw	v0,-32376(gp)
  408000:	0040c821 	move	t9,v0
  408004:	0320f809 	jalr	t9
  408008:	00000000 	nop
  40800c:	8fdc0010 	lw	gp,16(s8)
  408010:	1000001f 	b	408090 <download_fw+0x56c>
  408014:	00000000 	nop
  408018:	8f82824c 	lw	v0,-32180(gp)
  40801c:	8c510000 	lw	s1,0(v0)
  408020:	8f82802c 	lw	v0,-32724(gp)
  408024:	24507b14 	addiu	s0,v0,31508
  408028:	8f82809c 	lw	v0,-32612(gp)
  40802c:	0040c821 	move	t9,v0
  408030:	0320f809 	jalr	t9
  408034:	00000000 	nop
  408038:	8fdc0010 	lw	gp,16(s8)
  40803c:	02202021 	move	a0,s1
  408040:	02002821 	move	a1,s0
  408044:	00403021 	move	a2,v0
[31m  408048:	8f82819c 	lw	v0,fprintf[0m
  40804c:	0040c821 	move	t9,v0
  408050:	0320f809 	jalr	t9
--
  4087e4:	8f82808c 	lw	v0,-32628(gp)
  4087e8:	0040c821 	move	t9,v0
  4087ec:	0320f809 	jalr	t9
  4087f0:	00000000 	nop
  4087f4:	8fdc0010 	lw	gp,16(s8)
  4087f8:	10000031 	b	4088c0 <erase_blk+0x1c0>
  4087fc:	00000000 	nop
  408800:	8fc40018 	lw	a0,24(s8)
  408804:	8fc5002c 	lw	a1,44(s8)
  408808:	8f8280f8 	lw	v0,-32520(gp)
  40880c:	0040c821 	move	t9,v0
  408810:	0320f809 	jalr	t9
  408814:	00000000 	nop
  408818:	8fdc0010 	lw	gp,16(s8)
  40881c:	afc2001c 	sw	v0,28(s8)
  408820:	8fc2001c 	lw	v0,28(s8)
  408824:	1040000d 	beqz	v0,40885c <erase_blk+0x15c>
  408828:	00000000 	nop
  40882c:	8f8280cc 	lw	v0,-32564(gp)
  408830:	8c430000 	lw	v1,0(v0)
  408834:	8f82802c 	lw	v0,-32724(gp)
  408838:	24427c30 	addiu	v0,v0,31792
  40883c:	00602021 	move	a0,v1
  408840:	00402821 	move	a1,v0
  408844:	8fc6001c 	lw	a2,28(s8)
[31m  408848:	8f82819c 	lw	v0,fprintf[0m
  40884c:	0040c821 	move	t9,v0
  408850:	0320f809 	jalr	t9
--
  408960:	279c8944 	addiu	gp,gp,-30396
  408964:	0399e021 	addu	gp,gp,t9
  408968:	27bdffd8 	addiu	sp,sp,-40
  40896c:	afbf0024 	sw	ra,36(sp)
  408970:	afbe0020 	sw	s8,32(sp)
  408974:	03a0f021 	move	s8,sp
  408978:	afbc0010 	sw	gp,16(sp)
  40897c:	afc40028 	sw	a0,40(s8)
  408980:	afc5002c 	sw	a1,44(s8)
  408984:	afc00018 	sw	zero,24(s8)
  408988:	24020001 	li	v0,1
  40898c:	afc20018 	sw	v0,24(s8)
  408990:	10000030 	b	408a54 <dump_data+0xf8>
  408994:	00000000 	nop
  408998:	8f82824c 	lw	v0,-32180(gp)
  40899c:	8c440000 	lw	a0,0(v0)
  4089a0:	8f82802c 	lw	v0,-32724(gp)
  4089a4:	24437c48 	addiu	v1,v0,31816
  4089a8:	8fc20018 	lw	v0,24(s8)
  4089ac:	2442ffff 	addiu	v0,v0,-1
  4089b0:	8fc50028 	lw	a1,40(s8)
  4089b4:	00a21021 	addu	v0,a1,v0
  4089b8:	90420000 	lbu	v0,0(v0)
  4089bc:	00602821 	move	a1,v1
  4089c0:	00403021 	move	a2,v0
[31m  4089c4:	8f82819c 	lw	v0,fprintf[0m
  4089c8:	0040c821 	move	t9,v0
  4089cc:	0320f809 	jalr	t9
--
  408d34:	afc20020 	sw	v0,32(s8)
  408d38:	10000027 	b	408dd8 <read_mem+0x1b0>
  408d3c:	00000000 	nop
  408d40:	97c30034 	lhu	v1,52(s8)
  408d44:	97c20038 	lhu	v0,56(s8)
  408d48:	8fc4001c 	lw	a0,28(s8)
  408d4c:	00602821 	move	a1,v1
  408d50:	00403021 	move	a2,v0
  408d54:	8fc70018 	lw	a3,24(s8)
  408d58:	8f8281cc 	lw	v0,-32308(gp)
  408d5c:	0040c821 	move	t9,v0
  408d60:	0320f809 	jalr	t9
  408d64:	00000000 	nop
  408d68:	8fdc0010 	lw	gp,16(s8)
  408d6c:	afc20020 	sw	v0,32(s8)
  408d70:	8fc20020 	lw	v0,32(s8)
  408d74:	1040000f 	beqz	v0,408db4 <read_mem+0x18c>
  408d78:	00000000 	nop
  408d7c:	8f8280cc 	lw	v0,-32564(gp)
  408d80:	8c430000 	lw	v1,0(v0)
  408d84:	8f82802c 	lw	v0,-32724(gp)
  408d88:	24427c7c 	addiu	v0,v0,31868
  408d8c:	00602021 	move	a0,v1
  408d90:	00402821 	move	a1,v0
  408d94:	8fc60020 	lw	a2,32(s8)
[31m  408d98:	8f82819c 	lw	v0,fprintf[0m
  408d9c:	0040c821 	move	t9,v0
  408da0:	0320f809 	jalr	t9
--
  408f40:	0320f809 	jalr	t9
  408f44:	00000000 	nop
  408f48:	8fdc0010 	lw	gp,16(s8)
  408f4c:	97c3002c 	lhu	v1,44(s8)
  408f50:	97c20030 	lhu	v0,48(s8)
  408f54:	8fc40018 	lw	a0,24(s8)
  408f58:	00602821 	move	a1,v1
  408f5c:	00403021 	move	a2,v0
  408f60:	8fc70034 	lw	a3,52(s8)
  408f64:	8f828040 	lw	v0,-32704(gp)
  408f68:	0040c821 	move	t9,v0
  408f6c:	0320f809 	jalr	t9
  408f70:	00000000 	nop
  408f74:	8fdc0010 	lw	gp,16(s8)
  408f78:	afc2001c 	sw	v0,28(s8)
  408f7c:	8fc2001c 	lw	v0,28(s8)
  408f80:	1040000d 	beqz	v0,408fb8 <write_mem+0x178>
  408f84:	00000000 	nop
  408f88:	8f8280cc 	lw	v0,-32564(gp)
  408f8c:	8c430000 	lw	v1,0(v0)
  408f90:	8f82802c 	lw	v0,-32724(gp)
  408f94:	24427c9c 	addiu	v0,v0,31900
  408f98:	00602021 	move	a0,v1
  408f9c:	00402821 	move	a1,v0
  408fa0:	8fc6001c 	lw	a2,28(s8)
[31m  408fa4:	8f82819c 	lw	v0,fprintf[0m
  408fa8:	0040c821 	move	t9,v0
  408fac:	0320f809 	jalr	t9
--
  409088:	8fc20018 	lw	v0,24(s8)
  40908c:	afc2001c 	sw	v0,28(s8)
  409090:	10000029 	b	409138 <read_sensor_reg+0x140>
  409094:	00000000 	nop
  409098:	97c30034 	lhu	v1,52(s8)
  40909c:	27c20020 	addiu	v0,s8,32
  4090a0:	8fc40018 	lw	a0,24(s8)
  4090a4:	00602821 	move	a1,v1
  4090a8:	00403021 	move	a2,v0
  4090ac:	8f82812c 	lw	v0,-32468(gp)
  4090b0:	0040c821 	move	t9,v0
  4090b4:	0320f809 	jalr	t9
  4090b8:	00000000 	nop
  4090bc:	8fdc0010 	lw	gp,16(s8)
  4090c0:	afc2001c 	sw	v0,28(s8)
  4090c4:	8fc2001c 	lw	v0,28(s8)
  4090c8:	1040000f 	beqz	v0,409108 <read_sensor_reg+0x110>
  4090cc:	00000000 	nop
  4090d0:	8f8280cc 	lw	v0,-32564(gp)
  4090d4:	8c430000 	lw	v1,0(v0)
  4090d8:	8f82802c 	lw	v0,-32724(gp)
  4090dc:	24427cb8 	addiu	v0,v0,31928
  4090e0:	00602021 	move	a0,v1
  4090e4:	00402821 	move	a1,v0
  4090e8:	8fc6001c 	lw	a2,28(s8)
[31m  4090ec:	8f82819c 	lw	v0,fprintf[0m
  4090f0:	0040c821 	move	t9,v0
  4090f4:	0320f809 	jalr	t9
  4090f8:	00000000 	nop
  4090fc:	8fdc0010 	lw	gp,16(s8)
  409100:	1000000d 	b	409138 <read_sensor_reg+0x140>
  409104:	00000000 	nop
  409108:	8f82824c 	lw	v0,-32180(gp)
  40910c:	8c440000 	lw	a0,0(v0)
  409110:	8f82802c 	lw	v0,-32724(gp)
  409114:	24437cd8 	addiu	v1,v0,31960
  409118:	97c20020 	lhu	v0,32(s8)
  40911c:	00602821 	move	a1,v1
  409120:	00403021 	move	a2,v0
[31m  409124:	8f82819c 	lw	v0,fprintf[0m
  409128:	0040c821 	move	t9,v0
  40912c:	0320f809 	jalr	t9
--
  409210:	8fc20018 	lw	v0,24(s8)
  409214:	afc2001c 	sw	v0,28(s8)
  409218:	1000001b 	b	409288 <write_sensor_reg+0x110>
  40921c:	00000000 	nop
  409220:	97c3002c 	lhu	v1,44(s8)
  409224:	97c20030 	lhu	v0,48(s8)
  409228:	8fc40018 	lw	a0,24(s8)
  40922c:	00602821 	move	a1,v1
  409230:	00403021 	move	a2,v0
  409234:	8f828174 	lw	v0,-32396(gp)
  409238:	0040c821 	move	t9,v0
  40923c:	0320f809 	jalr	t9
  409240:	00000000 	nop
  409244:	8fdc0010 	lw	gp,16(s8)
  409248:	afc2001c 	sw	v0,28(s8)
  40924c:	8fc2001c 	lw	v0,28(s8)
  409250:	1040000d 	beqz	v0,409288 <write_sensor_reg+0x110>
  409254:	00000000 	nop
  409258:	8f8280cc 	lw	v0,-32564(gp)
  40925c:	8c430000 	lw	v1,0(v0)
  409260:	8f82802c 	lw	v0,-32724(gp)
  409264:	24427ce0 	addiu	v0,v0,31968
  409268:	00602021 	move	a0,v1
  40926c:	00402821 	move	a1,v0
  409270:	8fc6001c 	lw	a2,28(s8)
[31m  409274:	8f82819c 	lw	v0,fprintf[0m
  409278:	0040c821 	move	t9,v0
  40927c:	0320f809 	jalr	t9
--
  409348:	00000000 	nop
  40934c:	8fdc0010 	lw	gp,16(s8)
  409350:	8fc20018 	lw	v0,24(s8)
  409354:	afc2001c 	sw	v0,28(s8)
  409358:	10000024 	b	4093ec <sf_read_id+0x124>
  40935c:	00000000 	nop
  409360:	27c20020 	addiu	v0,s8,32
  409364:	8fc40018 	lw	a0,24(s8)
  409368:	00402821 	move	a1,v0
  40936c:	8f828118 	lw	v0,-32488(gp)
  409370:	0040c821 	move	t9,v0
  409374:	0320f809 	jalr	t9
  409378:	00000000 	nop
  40937c:	8fdc0010 	lw	gp,16(s8)
  409380:	afc2001c 	sw	v0,28(s8)
  409384:	8fc2001c 	lw	v0,28(s8)
  409388:	1040000f 	beqz	v0,4093c8 <sf_read_id+0x100>
  40938c:	00000000 	nop
  409390:	8f8280cc 	lw	v0,-32564(gp)
  409394:	8c430000 	lw	v1,0(v0)
  409398:	8f82802c 	lw	v0,-32724(gp)
  40939c:	24427d00 	addiu	v0,v0,32000
  4093a0:	00602021 	move	a0,v1
  4093a4:	00402821 	move	a1,v0
  4093a8:	8fc6001c 	lw	a2,28(s8)
[31m  4093ac:	8f82819c 	lw	v0,fprintf[0m
  4093b0:	0040c821 	move	t9,v0
  4093b4:	0320f809 	jalr	t9
--
  4094ac:	00000000 	nop
  4094b0:	8fdc0010 	lw	gp,16(s8)
  4094b4:	8fc20018 	lw	v0,24(s8)
  4094b8:	afc2001c 	sw	v0,28(s8)
  4094bc:	10000027 	b	40955c <sf_read_sr+0x130>
  4094c0:	00000000 	nop
  4094c4:	27c20020 	addiu	v0,s8,32
  4094c8:	8fc40018 	lw	a0,24(s8)
  4094cc:	00402821 	move	a1,v0
  4094d0:	8f828148 	lw	v0,-32440(gp)
  4094d4:	0040c821 	move	t9,v0
  4094d8:	0320f809 	jalr	t9
  4094dc:	00000000 	nop
  4094e0:	8fdc0010 	lw	gp,16(s8)
  4094e4:	afc2001c 	sw	v0,28(s8)
  4094e8:	8fc2001c 	lw	v0,28(s8)
  4094ec:	1040000f 	beqz	v0,40952c <sf_read_sr+0x100>
  4094f0:	00000000 	nop
  4094f4:	8f8280cc 	lw	v0,-32564(gp)
  4094f8:	8c430000 	lw	v1,0(v0)
  4094fc:	8f82802c 	lw	v0,-32724(gp)
  409500:	24427d20 	addiu	v0,v0,32032
  409504:	00602021 	move	a0,v1
  409508:	00402821 	move	a1,v0
  40950c:	8fc6001c 	lw	a2,28(s8)
[31m  409510:	8f82819c 	lw	v0,fprintf[0m
  409514:	0040c821 	move	t9,v0
  409518:	0320f809 	jalr	t9
  40951c:	00000000 	nop
  409520:	8fdc0010 	lw	gp,16(s8)
  409524:	1000000d 	b	40955c <sf_read_sr+0x130>
  409528:	00000000 	nop
  40952c:	8f82824c 	lw	v0,-32180(gp)
  409530:	8c440000 	lw	a0,0(v0)
  409534:	8f82802c 	lw	v0,-32724(gp)
  409538:	24437d44 	addiu	v1,v0,32068
  40953c:	93c20020 	lbu	v0,32(s8)
  409540:	00602821 	move	a1,v1
  409544:	00403021 	move	a2,v0
[31m  409548:	8f82819c 	lw	v0,fprintf[0m
  40954c:	0040c821 	move	t9,v0
  409550:	0320f809 	jalr	t9
--
  409690:	0040c821 	move	t9,v0
  409694:	0320f809 	jalr	t9
  409698:	00000000 	nop
  40969c:	8fdc0010 	lw	gp,16(s8)
  4096a0:	10000019 	b	409708 <sf_write_sr+0x16c>
  4096a4:	00000000 	nop
  4096a8:	93c20018 	lbu	v0,24(s8)
  4096ac:	8fc4001c 	lw	a0,28(s8)
  4096b0:	00402821 	move	a1,v0
  4096b4:	8f82816c 	lw	v0,-32404(gp)
  4096b8:	0040c821 	move	t9,v0
  4096bc:	0320f809 	jalr	t9
  4096c0:	00000000 	nop
  4096c4:	8fdc0010 	lw	gp,16(s8)
  4096c8:	afc20020 	sw	v0,32(s8)
  4096cc:	8fc20020 	lw	v0,32(s8)
  4096d0:	1040000d 	beqz	v0,409708 <sf_write_sr+0x16c>
  4096d4:	00000000 	nop
  4096d8:	8f8280cc 	lw	v0,-32564(gp)
  4096dc:	8c430000 	lw	v1,0(v0)
  4096e0:	8f82802c 	lw	v0,-32724(gp)
  4096e4:	24427d54 	addiu	v0,v0,32084
  4096e8:	00602021 	move	a0,v1
  4096ec:	00402821 	move	a1,v0
  4096f0:	8fc60020 	lw	a2,32(s8)
[31m  4096f4:	8f82819c 	lw	v0,fprintf[0m
  4096f8:	0040c821 	move	t9,v0
  4096fc:	0320f809 	jalr	t9
--
  4098a8:	2402ffff 	li	v0,-1
  4098ac:	afc20020 	sw	v0,32(s8)
  4098b0:	10000026 	b	40994c <sf_read+0x1a8>
  4098b4:	00000000 	nop
  4098b8:	97c20038 	lhu	v0,56(s8)
  4098bc:	8fc4001c 	lw	a0,28(s8)
  4098c0:	8fc50034 	lw	a1,52(s8)
  4098c4:	00403021 	move	a2,v0
  4098c8:	8fc70018 	lw	a3,24(s8)
  4098cc:	8f828154 	lw	v0,-32428(gp)
  4098d0:	0040c821 	move	t9,v0
  4098d4:	0320f809 	jalr	t9
  4098d8:	00000000 	nop
  4098dc:	8fdc0010 	lw	gp,16(s8)
  4098e0:	afc20020 	sw	v0,32(s8)
  4098e4:	8fc20020 	lw	v0,32(s8)
  4098e8:	1040000f 	beqz	v0,409928 <sf_read+0x184>
  4098ec:	00000000 	nop
  4098f0:	8f8280cc 	lw	v0,-32564(gp)
  4098f4:	8c430000 	lw	v1,0(v0)
  4098f8:	8f82802c 	lw	v0,-32724(gp)
  4098fc:	24427d78 	addiu	v0,v0,32120
  409900:	00602021 	move	a0,v1
  409904:	00402821 	move	a1,v0
  409908:	8fc60020 	lw	a2,32(s8)
[31m  40990c:	8f82819c 	lw	v0,fprintf[0m
  409910:	0040c821 	move	t9,v0
  409914:	0320f809 	jalr	t9
--
  409ab0:	00000000 	nop
  409ab4:	8fdc0010 	lw	gp,16(s8)
  409ab8:	1000001b 	b	409b28 <sf_write+0x174>
  409abc:	00000000 	nop
  409ac0:	97c20030 	lhu	v0,48(s8)
  409ac4:	8fc40018 	lw	a0,24(s8)
  409ac8:	8fc5002c 	lw	a1,44(s8)
  409acc:	00403021 	move	a2,v0
  409ad0:	8fc70034 	lw	a3,52(s8)
  409ad4:	8f828130 	lw	v0,-32464(gp)
  409ad8:	0040c821 	move	t9,v0
  409adc:	0320f809 	jalr	t9
  409ae0:	00000000 	nop
  409ae4:	8fdc0010 	lw	gp,16(s8)
  409ae8:	afc2001c 	sw	v0,28(s8)
  409aec:	8fc2001c 	lw	v0,28(s8)
  409af0:	1040000d 	beqz	v0,409b28 <sf_write+0x174>
  409af4:	00000000 	nop
  409af8:	8f8280cc 	lw	v0,-32564(gp)
  409afc:	8c430000 	lw	v1,0(v0)
  409b00:	8f82802c 	lw	v0,-32724(gp)
  409b04:	24427d98 	addiu	v0,v0,32152
  409b08:	00602021 	move	a0,v1
  409b0c:	00402821 	move	a1,v0
  409b10:	8fc6001c 	lw	a2,28(s8)
[31m  409b14:	8f82819c 	lw	v0,fprintf[0m
  409b18:	0040c821 	move	t9,v0
  409b1c:	0320f809 	jalr	t9
--
  40a07c:	00803821 	move	a3,a0
  40a080:	93c40082 	lbu	a0,130(s8)
  40a084:	00803021 	move	a2,a0
  40a088:	93c40083 	lbu	a0,131(s8)
  40a08c:	00802821 	move	a1,a0
  40a090:	27c400bc 	addiu	a0,s8,188
  40a094:	afa80010 	sw	t0,16(sp)
  40a098:	afa70014 	sw	a3,20(sp)
  40a09c:	afa60018 	sw	a2,24(sp)
  40a0a0:	afa5001c 	sw	a1,28(sp)
  40a0a4:	24050010 	li	a1,16
  40a0a8:	00603021 	move	a2,v1
  40a0ac:	00403821 	move	a3,v0
  40a0b0:	8f828234 	lw	v0,-32204(gp)
  40a0b4:	0040c821 	move	t9,v0
  40a0b8:	0320f809 	jalr	t9
  40a0bc:	00000000 	nop
  40a0c0:	8fdc0020 	lw	gp,32(s8)
  40a0c4:	8f82824c 	lw	v0,-32180(gp)
  40a0c8:	8c440000 	lw	a0,0(v0)
  40a0cc:	8f82802c 	lw	v0,-32724(gp)
  40a0d0:	24437dec 	addiu	v1,v0,32236
  40a0d4:	27c200bc 	addiu	v0,s8,188
  40a0d8:	00602821 	move	a1,v1
  40a0dc:	00403021 	move	a2,v0
[31m  40a0e0:	8f82819c 	lw	v0,fprintf[0m
  40a0e4:	0040c821 	move	t9,v0
  40a0e8:	0320f809 	jalr	t9
--
  40a218:	00403821 	move	a3,v0
  40a21c:	8f82808c 	lw	v0,-32628(gp)
  40a220:	0040c821 	move	t9,v0
  40a224:	0320f809 	jalr	t9
  40a228:	00000000 	nop
  40a22c:	8fdc0018 	lw	gp,24(s8)
  40a230:	2402ffff 	li	v0,-1
  40a234:	100000eb 	b	40a5e4 <get_device_modalias+0x4b0>
  40a238:	00000000 	nop
  40a23c:	8fc40190 	lw	a0,400(s8)
  40a240:	00002821 	move	a1,zero
  40a244:	8f828088 	lw	v0,-32632(gp)
  40a248:	0040c821 	move	t9,v0
  40a24c:	0320f809 	jalr	t9
  40a250:	00000000 	nop
  40a254:	8fdc0018 	lw	gp,24(s8)
  40a258:	10400010 	beqz	v0,40a29c <get_device_modalias+0x168>
  40a25c:	00000000 	nop
  40a260:	8f8280cc 	lw	v0,-32564(gp)
  40a264:	8c430000 	lw	v1,0(v0)
  40a268:	8f82802c 	lw	v0,-32724(gp)
  40a26c:	24427e04 	addiu	v0,v0,32260
  40a270:	00602021 	move	a0,v1
  40a274:	00402821 	move	a1,v0
  40a278:	8fc60190 	lw	a2,400(s8)
[31m  40a27c:	8f82819c 	lw	v0,fprintf[0m
  40a280:	0040c821 	move	t9,v0
  40a284:	0320f809 	jalr	t9
  40a288:	00000000 	nop
  40a28c:	8fdc0018 	lw	gp,24(s8)
  40a290:	2402ffff 	li	v0,-1
  40a294:	100000d3 	b	40a5e4 <get_device_modalias+0x4b0>
  40a298:	00000000 	nop
  40a29c:	8fc40190 	lw	a0,400(s8)
  40a2a0:	8f828068 	lw	v0,strlen
  40a2a4:	0040c821 	move	t9,v0
  40a2a8:	0320f809 	jalr	t9
  40a2ac:	00000000 	nop
  40a2b0:	8fdc0018 	lw	gp,24(s8)
  40a2b4:	2c420046 	sltiu	v0,v0,70
  40a2b8:	14400010 	bnez	v0,40a2fc <get_device_modalias+0x1c8>
  40a2bc:	00000000 	nop
  40a2c0:	8f8280cc 	lw	v0,-32564(gp)
  40a2c4:	8c430000 	lw	v1,0(v0)
  40a2c8:	8f82802c 	lw	v0,-32724(gp)
  40a2cc:	24427e18 	addiu	v0,v0,32280
  40a2d0:	00602021 	move	a0,v1
  40a2d4:	00402821 	move	a1,v0
  40a2d8:	8fc60190 	lw	a2,400(s8)
[31m  40a2dc:	8f82819c 	lw	v0,fprintf[0m
  40a2e0:	0040c821 	move	t9,v0
  40a2e4:	0320f809 	jalr	t9
--
  40a334:	00403021 	move	a2,v0
  40a338:	8f828134 	lw	v0,-32460(gp)
  40a33c:	0040c821 	move	t9,v0
  40a340:	0320f809 	jalr	t9
  40a344:	00000000 	nop
  40a348:	8fdc0018 	lw	gp,24(s8)
  40a34c:	27c20024 	addiu	v0,s8,36
  40a350:	8f83802c 	lw	v1,-32724(gp)
  40a354:	24647e30 	addiu	a0,v1,32304
  40a358:	00402821 	move	a1,v0
  40a35c:	24060005 	li	a2,5
  40a360:	8f82813c 	lw	v0,-32452(gp)
  40a364:	0040c821 	move	t9,v0
  40a368:	0320f809 	jalr	t9
  40a36c:	00000000 	nop
  40a370:	8fdc0018 	lw	gp,24(s8)
  40a374:	10400010 	beqz	v0,40a3b8 <get_device_modalias+0x284>
  40a378:	00000000 	nop
  40a37c:	8f8280cc 	lw	v0,-32564(gp)
  40a380:	8c430000 	lw	v1,0(v0)
  40a384:	8f82802c 	lw	v0,-32724(gp)
  40a388:	24427e38 	addiu	v0,v0,32312
  40a38c:	00602021 	move	a0,v1
  40a390:	00402821 	move	a1,v0
  40a394:	8fc60190 	lw	a2,400(s8)
[31m  40a398:	8f82819c 	lw	v0,fprintf[0m
  40a39c:	0040c821 	move	t9,v0
  40a3a0:	0320f809 	jalr	t9
--
  40a3cc:	00603021 	move	a2,v1
  40a3d0:	00403821 	move	a3,v0
  40a3d4:	8f828234 	lw	v0,-32204(gp)
  40a3d8:	0040c821 	move	t9,v0
  40a3dc:	0320f809 	jalr	t9
  40a3e0:	00000000 	nop
  40a3e4:	8fdc0018 	lw	gp,24(s8)
  40a3e8:	27c20064 	addiu	v0,s8,100
  40a3ec:	00402021 	move	a0,v0
  40a3f0:	8f828028 	lw	v0,-32728(gp)
  40a3f4:	24427860 	addiu	v0,v0,30816
  40a3f8:	0040c821 	move	t9,v0
  40a3fc:	0320f809 	jalr	t9
  40a400:	00000000 	nop
  40a404:	8fdc0018 	lw	gp,24(s8)
  40a408:	28420013 	slti	v0,v0,19
  40a40c:	10400010 	beqz	v0,40a450 <get_device_modalias+0x31c>
  40a410:	00000000 	nop
  40a414:	8f8280cc 	lw	v0,-32564(gp)
  40a418:	8c440000 	lw	a0,0(v0)
  40a41c:	8f82802c 	lw	v0,-32724(gp)
  40a420:	24437e80 	addiu	v1,v0,32384
  40a424:	27c20024 	addiu	v0,s8,36
  40a428:	00602821 	move	a1,v1
  40a42c:	00403021 	move	a2,v0
[31m  40a430:	8f82819c 	lw	v0,fprintf[0m
  40a434:	0040c821 	move	t9,v0
  40a438:	0320f809 	jalr	t9
--
  40a440:	8fdc0018 	lw	gp,24(s8)
  40a444:	2402ffff 	li	v0,-1
  40a448:	10000066 	b	40a5e4 <get_device_modalias+0x4b0>
  40a44c:	00000000 	nop
  40a450:	27c30064 	addiu	v1,s8,100
  40a454:	8f82802c 	lw	v0,-32724(gp)
  40a458:	24427a88 	addiu	v0,v0,31368
  40a45c:	00602021 	move	a0,v1
  40a460:	00402821 	move	a1,v0
  40a464:	8f828110 	lw	v0,-32496(gp)
  40a468:	0040c821 	move	t9,v0
  40a46c:	0320f809 	jalr	t9
  40a470:	00000000 	nop
  40a474:	8fdc0018 	lw	gp,24(s8)
  40a478:	afc20020 	sw	v0,32(s8)
  40a47c:	8fc20020 	lw	v0,32(s8)
  40a480:	14400010 	bnez	v0,40a4c4 <get_device_modalias+0x390>
  40a484:	00000000 	nop
  40a488:	8f8280cc 	lw	v0,-32564(gp)
  40a48c:	8c440000 	lw	a0,0(v0)
  40a490:	8f82802c 	lw	v0,-32724(gp)
  40a494:	24437ea0 	addiu	v1,v0,32416
  40a498:	27c20064 	addiu	v0,s8,100
  40a49c:	00602821 	move	a1,v1
  40a4a0:	00403021 	move	a2,v0
[31m  40a4a4:	8f82819c 	lw	v0,fprintf[0m
  40a4a8:	0040c821 	move	t9,v0
  40a4ac:	0320f809 	jalr	t9
--
  40a514:	27c30178 	addiu	v1,s8,376
  40a518:	27c2017c 	addiu	v0,s8,380
  40a51c:	27c60180 	addiu	a2,s8,384
  40a520:	afa60010 	sw	a2,16(sp)
  40a524:	00603021 	move	a2,v1
  40a528:	00403821 	move	a3,v0
  40a52c:	8f828134 	lw	v0,-32460(gp)
  40a530:	0040c821 	move	t9,v0
  40a534:	0320f809 	jalr	t9
  40a538:	00000000 	nop
  40a53c:	8fdc0018 	lw	gp,24(s8)
  40a540:	8f82824c 	lw	v0,-32180(gp)
  40a544:	8c440000 	lw	a0,0(v0)
  40a548:	8f82802c 	lw	v0,-32724(gp)
  40a54c:	24457ec4 	addiu	a1,v0,32452
  40a550:	8fc30178 	lw	v1,376(s8)
  40a554:	8fc2017c 	lw	v0,380(s8)
  40a558:	8fc60180 	lw	a2,384(s8)
  40a55c:	00063a03 	sra	a3,a2,0x8
  40a560:	8fc60180 	lw	a2,384(s8)
  40a564:	30c600ff 	andi	a2,a2,0xff
  40a568:	afa70010 	sw	a3,16(sp)
  40a56c:	afa60014 	sw	a2,20(sp)
  40a570:	00603021 	move	a2,v1
  40a574:	00403821 	move	a3,v0
[31m  40a578:	8f82819c 	lw	v0,fprintf[0m
  40a57c:	0040c821 	move	t9,v0
  40a580:	0320f809 	jalr	t9
--
  40aaf0:	93c20048 	lbu	v0,72(s8)
  40aaf4:	14400010 	bnez	v0,40ab38 <rts_pepple_sensor_setting_set+0xbc>
  40aaf8:	00000000 	nop
  40aafc:	8f82802c 	lw	v0,-32724(gp)
  40ab00:	24437f18 	addiu	v1,v0,32536
  40ab04:	8f8280cc 	lw	v0,-32564(gp)
  40ab08:	8c420000 	lw	v0,0(v0)
  40ab0c:	00602021 	move	a0,v1
  40ab10:	24050001 	li	a1,1
  40ab14:	24060018 	li	a2,24
  40ab18:	00403821 	move	a3,v0
  40ab1c:	8f82808c 	lw	v0,-32628(gp)
  40ab20:	0040c821 	move	t9,v0
  40ab24:	0320f809 	jalr	t9
  40ab28:	00000000 	nop
  40ab2c:	8fdc0010 	lw	gp,16(s8)
  40ab30:	10000120 	b	40afb4 <rts_pepple_sensor_setting_set+0x538>
  40ab34:	00000000 	nop
  40ab38:	8f82824c 	lw	v0,-32180(gp)
  40ab3c:	8c440000 	lw	a0,0(v0)
  40ab40:	8f82802c 	lw	v0,-32724(gp)
  40ab44:	24437f34 	addiu	v1,v0,32564
  40ab48:	97c20024 	lhu	v0,36(s8)
  40ab4c:	00602821 	move	a1,v1
  40ab50:	00403021 	move	a2,v0
[31m  40ab54:	8f82819c 	lw	v0,fprintf[0m
  40ab58:	0040c821 	move	t9,v0
  40ab5c:	0320f809 	jalr	t9
  40ab60:	00000000 	nop
  40ab64:	8fdc0010 	lw	gp,16(s8)
  40ab68:	97c20024 	lhu	v0,36(s8)
  40ab6c:	2c420004 	sltiu	v0,v0,4
  40ab70:	14400005 	bnez	v0,40ab88 <rts_pepple_sensor_setting_set+0x10c>
  40ab74:	00000000 	nop
  40ab78:	97c20024 	lhu	v0,36(s8)
  40ab7c:	2c421001 	sltiu	v0,v0,4097
  40ab80:	1440000f 	bnez	v0,40abc0 <rts_pepple_sensor_setting_set+0x144>
  40ab84:	00000000 	nop
  40ab88:	8f8280cc 	lw	v0,-32564(gp)
  40ab8c:	8c440000 	lw	a0,0(v0)
  40ab90:	8f82802c 	lw	v0,-32724(gp)
  40ab94:	24437f44 	addiu	v1,v0,32580
  40ab98:	97c20024 	lhu	v0,36(s8)
  40ab9c:	00602821 	move	a1,v1
  40aba0:	00403021 	move	a2,v0
[31m  40aba4:	8f82819c 	lw	v0,fprintf[0m
  40aba8:	0040c821 	move	t9,v0
  40abac:	0320f809 	jalr	t9
--
  40ae54:	8fc2002c 	lw	v0,44(s8)
  40ae58:	0043102a 	slt	v0,v0,v1
  40ae5c:	1440ffd2 	bnez	v0,40ada8 <rts_pepple_sensor_setting_set+0x32c>
  40ae60:	00000000 	nop
  40ae64:	8fc20030 	lw	v0,48(s8)
  40ae68:	24420001 	addiu	v0,v0,1
  40ae6c:	afc20030 	sw	v0,48(s8)
  40ae70:	93c30048 	lbu	v1,72(s8)
  40ae74:	8fc20030 	lw	v0,48(s8)
  40ae78:	0043102a 	slt	v0,v0,v1
  40ae7c:	1440ff89 	bnez	v0,40aca4 <rts_pepple_sensor_setting_set+0x228>
  40ae80:	00000000 	nop
  40ae84:	afc00030 	sw	zero,48(s8)
  40ae88:	1000003a 	b	40af74 <rts_pepple_sensor_setting_set+0x4f8>
  40ae8c:	00000000 	nop
  40ae90:	8f82824c 	lw	v0,-32180(gp)
  40ae94:	8c440000 	lw	a0,0(v0)
  40ae98:	8f82802c 	lw	v0,-32724(gp)
  40ae9c:	24437c48 	addiu	v1,v0,31816
  40aea0:	8fc20030 	lw	v0,48(s8)
  40aea4:	8fc50034 	lw	a1,52(s8)
  40aea8:	00a21021 	addu	v0,a1,v0
  40aeac:	90420000 	lbu	v0,0(v0)
  40aeb0:	00602821 	move	a1,v1
  40aeb4:	00403021 	move	a2,v0
[31m  40aeb8:	8f82819c 	lw	v0,fprintf[0m
  40aebc:	0040c821 	move	t9,v0
  40aec0:	0320f809 	jalr	t9
--
  40b088:	00000000 	nop
  40b08c:	8fdc0010 	lw	gp,16(s8)
  40b090:	8fc2001c 	lw	v0,28(s8)
  40b094:	afc20018 	sw	v0,24(s8)
  40b098:	10000019 	b	40b100 <rts_mjpeg_q_set+0x108>
  40b09c:	00000000 	nop
  40b0a0:	93c2002c 	lbu	v0,44(s8)
  40b0a4:	8fc4001c 	lw	a0,28(s8)
  40b0a8:	00402821 	move	a1,v0
  40b0ac:	8f828190 	lw	v0,-32368(gp)
  40b0b0:	0040c821 	move	t9,v0
  40b0b4:	0320f809 	jalr	t9
  40b0b8:	00000000 	nop
  40b0bc:	8fdc0010 	lw	gp,16(s8)
  40b0c0:	afc20018 	sw	v0,24(s8)
  40b0c4:	8fc20018 	lw	v0,24(s8)
  40b0c8:	0441000d 	bgez	v0,40b100 <rts_mjpeg_q_set+0x108>
  40b0cc:	00000000 	nop
  40b0d0:	8f8280cc 	lw	v0,-32564(gp)
  40b0d4:	8c430000 	lw	v1,0(v0)
  40b0d8:	8f82802c 	lw	v0,-32724(gp)
  40b0dc:	24427f94 	addiu	v0,v0,32660
  40b0e0:	00602021 	move	a0,v1
  40b0e4:	00402821 	move	a1,v0
  40b0e8:	8fc60018 	lw	a2,24(s8)
[31m  40b0ec:	8f82819c 	lw	v0,fprintf[0m
  40b0f0:	0040c821 	move	t9,v0
  40b0f4:	0320f809 	jalr	t9
--
  40b1cc:	00000000 	nop
  40b1d0:	8fdc0010 	lw	gp,16(s8)
  40b1d4:	8fc2001c 	lw	v0,28(s8)
  40b1d8:	afc20018 	sw	v0,24(s8)
  40b1dc:	1000002d 	b	40b294 <rts_mjpeg_q_get+0x154>
  40b1e0:	00000000 	nop
  40b1e4:	27c20020 	addiu	v0,s8,32
  40b1e8:	8fc4001c 	lw	a0,28(s8)
  40b1ec:	00402821 	move	a1,v0
  40b1f0:	8f828150 	lw	v0,-32432(gp)
  40b1f4:	0040c821 	move	t9,v0
  40b1f8:	0320f809 	jalr	t9
  40b1fc:	00000000 	nop
  40b200:	8fdc0010 	lw	gp,16(s8)
  40b204:	afc20018 	sw	v0,24(s8)
  40b208:	8fc20018 	lw	v0,24(s8)
  40b20c:	0441000f 	bgez	v0,40b24c <rts_mjpeg_q_get+0x10c>
  40b210:	00000000 	nop
  40b214:	8f8280cc 	lw	v0,-32564(gp)
  40b218:	8c430000 	lw	v1,0(v0)
  40b21c:	8f82802c 	lw	v0,-32724(gp)
  40b220:	24427fbc 	addiu	v0,v0,32700
  40b224:	00602021 	move	a0,v1
  40b228:	00402821 	move	a1,v0
  40b22c:	8fc60018 	lw	a2,24(s8)
[31m  40b230:	8f82819c 	lw	v0,fprintf[0m
  40b234:	0040c821 	move	t9,v0
  40b238:	0320f809 	jalr	t9
  40b23c:	00000000 	nop
  40b240:	8fdc0010 	lw	gp,16(s8)
  40b244:	10000013 	b	40b294 <rts_mjpeg_q_get+0x154>
  40b248:	00000000 	nop
  40b24c:	8f82824c 	lw	v0,-32180(gp)
  40b250:	8c440000 	lw	a0,0(v0)
  40b254:	8f82802c 	lw	v0,-32724(gp)
  40b258:	24437fe4 	addiu	v1,v0,32740
  40b25c:	93c20020 	lbu	v0,32(s8)
  40b260:	00602821 	move	a1,v1
  40b264:	00403021 	move	a2,v0
[31m  40b268:	8f82819c 	lw	v0,fprintf[0m
  40b26c:	0040c821 	move	t9,v0
  40b270:	0320f809 	jalr	t9
--
  40b374:	8fc2001c 	lw	v0,28(s8)
  40b378:	afc20018 	sw	v0,24(s8)
  40b37c:	1000001b 	b	40b3ec <rts_crop_start_set+0x118>
  40b380:	00000000 	nop
  40b384:	97c3002c 	lhu	v1,44(s8)
  40b388:	97c20030 	lhu	v0,48(s8)
  40b38c:	8fc4001c 	lw	a0,28(s8)
  40b390:	00602821 	move	a1,v1
  40b394:	00403021 	move	a2,v0
  40b398:	8f8281d4 	lw	v0,-32300(gp)
  40b39c:	0040c821 	move	t9,v0
  40b3a0:	0320f809 	jalr	t9
  40b3a4:	00000000 	nop
  40b3a8:	8fdc0010 	lw	gp,16(s8)
  40b3ac:	afc20018 	sw	v0,24(s8)
  40b3b0:	8fc20018 	lw	v0,24(s8)
  40b3b4:	0441000d 	bgez	v0,40b3ec <rts_crop_start_set+0x118>
  40b3b8:	00000000 	nop
  40b3bc:	8f8280cc 	lw	v0,-32564(gp)
  40b3c0:	8c430000 	lw	v1,0(v0)
  40b3c4:	8f82802c 	lw	v0,-32724(gp)
  40b3c8:	24427ff8 	addiu	v0,v0,32760
  40b3cc:	00602021 	move	a0,v1
  40b3d0:	00402821 	move	a1,v0
  40b3d4:	8fc60018 	lw	a2,24(s8)
[31m  40b3d8:	8f82819c 	lw	v0,fprintf[0m
  40b3dc:	0040c821 	move	t9,v0
  40b3e0:	0320f809 	jalr	t9
--
  40b4c4:	8fc2001c 	lw	v0,28(s8)
  40b4c8:	afc20018 	sw	v0,24(s8)
  40b4cc:	10000037 	b	40b5ac <rts_crop_start_get+0x180>
  40b4d0:	00000000 	nop
  40b4d4:	27c30020 	addiu	v1,s8,32
  40b4d8:	27c20022 	addiu	v0,s8,34
  40b4dc:	8fc4001c 	lw	a0,28(s8)
  40b4e0:	00602821 	move	a1,v1
  40b4e4:	00403021 	move	a2,v0
  40b4e8:	8f8281dc 	lw	v0,-32292(gp)
  40b4ec:	0040c821 	move	t9,v0
  40b4f0:	0320f809 	jalr	t9
  40b4f4:	00000000 	nop
  40b4f8:	8fdc0010 	lw	gp,16(s8)
  40b4fc:	afc20018 	sw	v0,24(s8)
  40b500:	8fc20018 	lw	v0,24(s8)
  40b504:	0441000f 	bgez	v0,40b544 <rts_crop_start_get+0x118>
  40b508:	00000000 	nop
  40b50c:	8f8280cc 	lw	v0,-32564(gp)
  40b510:	8c430000 	lw	v1,0(v0)
  40b514:	8f828024 	lw	v0,-32732(gp)
  40b518:	24428024 	addiu	v0,v0,-32732
  40b51c:	00602021 	move	a0,v1
  40b520:	00402821 	move	a1,v0
  40b524:	8fc60018 	lw	a2,24(s8)
[31m  40b528:	8f82819c 	lw	v0,fprintf[0m
  40b52c:	0040c821 	move	t9,v0
  40b530:	0320f809 	jalr	t9
  40b534:	00000000 	nop
  40b538:	8fdc0010 	lw	gp,16(s8)
  40b53c:	1000001b 	b	40b5ac <rts_crop_start_get+0x180>
  40b540:	00000000 	nop
  40b544:	8f82824c 	lw	v0,-32180(gp)
  40b548:	8c440000 	lw	a0,0(v0)
  40b54c:	8f828024 	lw	v0,-32732(gp)
  40b550:	24458050 	addiu	a1,v0,-32688
  40b554:	97c20020 	lhu	v0,32(s8)
  40b558:	00401821 	move	v1,v0
  40b55c:	97c20022 	lhu	v0,34(s8)
  40b560:	00603021 	move	a2,v1
  40b564:	00403821 	move	a3,v0
[31m  40b568:	8f82819c 	lw	v0,fprintf[0m
  40b56c:	0040c821 	move	t9,v0
  40b570:	0320f809 	jalr	t9
--
  40b608:	afbc0018 	sw	gp,24(sp)
  40b60c:	afc40070 	sw	a0,112(s8)
  40b610:	afc50074 	sw	a1,116(s8)
  40b614:	2402ffff 	li	v0,-1
  40b618:	afc20040 	sw	v0,64(s8)
  40b61c:	2402ffff 	li	v0,-1
  40b620:	afc2003c 	sw	v0,60(s8)
  40b624:	afc00030 	sw	zero,48(s8)
  40b628:	24020400 	li	v0,1024
  40b62c:	afc2002c 	sw	v0,44(s8)
  40b630:	afc00028 	sw	zero,40(s8)
  40b634:	24020040 	li	v0,64
  40b638:	afc20038 	sw	v0,56(s8)
  40b63c:	10000010 	b	40b680 <rts_dump_fw_uvc+0x94>
  40b640:	00000000 	nop
  40b644:	8fc20038 	lw	v0,56(s8)
  40b648:	00021040 	sll	v0,v0,0x1
  40b64c:	afc20038 	sw	v0,56(s8)
  40b650:	8f82824c 	lw	v0,-32180(gp)
  40b654:	8c430000 	lw	v1,0(v0)
  40b658:	8f828024 	lw	v0,-32732(gp)
  40b65c:	2442806c 	addiu	v0,v0,-32660
  40b660:	00602021 	move	a0,v1
  40b664:	00402821 	move	a1,v0
  40b668:	8fc60038 	lw	a2,56(s8)
[31m  40b66c:	8f82819c 	lw	v0,fprintf[0m
  40b670:	0040c821 	move	t9,v0
  40b674:	0320f809 	jalr	t9
--
  40b75c:	8f82802c 	lw	v0,-32724(gp)
  40b760:	24437ad8 	addiu	v1,v0,31448
  40b764:	8f8280cc 	lw	v0,-32564(gp)
  40b768:	8c420000 	lw	v0,0(v0)
  40b76c:	00602021 	move	a0,v1
  40b770:	24050001 	li	a1,1
  40b774:	24060011 	li	a2,17
  40b778:	00403821 	move	a3,v0
  40b77c:	8f82808c 	lw	v0,-32628(gp)
  40b780:	0040c821 	move	t9,v0
  40b784:	0320f809 	jalr	t9
  40b788:	00000000 	nop
  40b78c:	8fdc0018 	lw	gp,24(s8)
  40b790:	8fc20040 	lw	v0,64(s8)
  40b794:	afc2003c 	sw	v0,60(s8)
  40b798:	1000005a 	b	40b904 <rts_dump_fw_uvc+0x318>
  40b79c:	00000000 	nop
  40b7a0:	8f82824c 	lw	v0,-32180(gp)
  40b7a4:	8c440000 	lw	a0,0(v0)
  40b7a8:	8f828024 	lw	v0,-32732(gp)
  40b7ac:	24438090 	addiu	v1,v0,-32624
  40b7b0:	27c20044 	addiu	v0,s8,68
  40b7b4:	00602821 	move	a1,v1
  40b7b8:	8fc60070 	lw	a2,112(s8)
  40b7bc:	00403821 	move	a3,v0
[31m  40b7c0:	8f82819c 	lw	v0,fprintf[0m
  40b7c4:	0040c821 	move	t9,v0
  40b7c8:	0320f809 	jalr	t9
--
  40b830:	8fc20024 	lw	v0,36(s8)
  40b834:	00821021 	addu	v0,a0,v0
  40b838:	8fc40040 	lw	a0,64(s8)
  40b83c:	8fc50024 	lw	a1,36(s8)
  40b840:	00603021 	move	a2,v1
  40b844:	00403821 	move	a3,v0
  40b848:	8f828154 	lw	v0,-32428(gp)
  40b84c:	0040c821 	move	t9,v0
  40b850:	0320f809 	jalr	t9
  40b854:	00000000 	nop
  40b858:	8fdc0018 	lw	gp,24(s8)
  40b85c:	afc2003c 	sw	v0,60(s8)
  40b860:	8fc2003c 	lw	v0,60(s8)
  40b864:	04410012 	bgez	v0,40b8b0 <rts_dump_fw_uvc+0x2c4>
  40b868:	00000000 	nop
  40b86c:	8f8280cc 	lw	v0,-32564(gp)
  40b870:	8c440000 	lw	a0,0(v0)
  40b874:	8f828024 	lw	v0,-32732(gp)
  40b878:	244380b0 	addiu	v1,v0,-32592
  40b87c:	97c20020 	lhu	v0,32(s8)
  40b880:	8fc5003c 	lw	a1,60(s8)
  40b884:	afa50010 	sw	a1,16(sp)
  40b888:	00602821 	move	a1,v1
  40b88c:	8fc60024 	lw	a2,36(s8)
  40b890:	00403821 	move	a3,v0
[31m  40b894:	8f82819c 	lw	v0,fprintf[0m
  40b898:	0040c821 	move	t9,v0
  40b89c:	0320f809 	jalr	t9
--
  40bac0:	8f82802c 	lw	v0,-32724(gp)
  40bac4:	24457788 	addiu	a1,v0,30600
  40bac8:	240605a9 	li	a2,1449
  40bacc:	8f828024 	lw	v0,-32732(gp)
  40bad0:	24478454 	addiu	a3,v0,-31660
  40bad4:	8f82805c 	lw	v0,-32676(gp)
  40bad8:	0040c821 	move	t9,v0
  40badc:	0320f809 	jalr	t9
  40bae0:	00000000 	nop
  40bae4:	8fdc0010 	lw	gp,16(s8)
  40bae8:	8fc2002c 	lw	v0,44(s8)
  40baec:	2842fff4 	slti	v0,v0,-12
  40baf0:	14400005 	bnez	v0,40bb08 <set_dmic_volume+0x88>
  40baf4:	00000000 	nop
  40baf8:	8fc2002c 	lw	v0,44(s8)
  40bafc:	2842000d 	slti	v0,v0,13
  40bb00:	14400010 	bnez	v0,40bb44 <set_dmic_volume+0xc4>
  40bb04:	00000000 	nop
  40bb08:	8f8280cc 	lw	v0,-32564(gp)
  40bb0c:	8c430000 	lw	v1,0(v0)
  40bb10:	8f828024 	lw	v0,-32732(gp)
  40bb14:	244280dc 	addiu	v0,v0,-32548
  40bb18:	00602021 	move	a0,v1
  40bb1c:	00402821 	move	a1,v0
  40bb20:	8fc6002c 	lw	a2,44(s8)
[31m  40bb24:	8f82819c 	lw	v0,fprintf[0m
  40bb28:	0040c821 	move	t9,v0
  40bb2c:	0320f809 	jalr	t9
--
  40bdb8:	0040c821 	move	t9,v0
  40bdbc:	0320f809 	jalr	t9
  40bdc0:	00000000 	nop
  40bdc4:	8fdc0010 	lw	gp,16(s8)
  40bdc8:	a3c20019 	sb	v0,25(s8)
  40bdcc:	93c20034 	lbu	v0,52(s8)
  40bdd0:	00402021 	move	a0,v0
  40bdd4:	24050001 	li	a1,1
  40bdd8:	8f82823c 	lw	v0,-32196(gp)
  40bddc:	0040c821 	move	t9,v0
  40bde0:	0320f809 	jalr	t9
  40bde4:	00000000 	nop
  40bde8:	8fdc0010 	lw	gp,16(s8)
  40bdec:	a3c20018 	sb	v0,24(s8)
  40bdf0:	93c3001a 	lbu	v1,26(s8)
  40bdf4:	240200ff 	li	v0,255
  40bdf8:	14620010 	bne	v1,v0,40be3c <rts_set_boost_gain+0x130>
  40bdfc:	00000000 	nop
  40be00:	8f8280cc 	lw	v0,-32564(gp)
  40be04:	8c440000 	lw	a0,0(v0)
  40be08:	8f828024 	lw	v0,-32732(gp)
  40be0c:	2443810c 	addiu	v1,v0,-32500
  40be10:	93c2002c 	lbu	v0,44(s8)
  40be14:	00602821 	move	a1,v1
  40be18:	00403021 	move	a2,v0
[31m  40be1c:	8f82819c 	lw	v0,fprintf[0m
  40be20:	0040c821 	move	t9,v0
  40be24:	0320f809 	jalr	t9
  40be28:	00000000 	nop
  40be2c:	8fdc0010 	lw	gp,16(s8)
  40be30:	2402ffff 	li	v0,-1
  40be34:	10000049 	b	40bf5c <rts_set_boost_gain+0x250>
  40be38:	00000000 	nop
  40be3c:	93c30019 	lbu	v1,25(s8)
  40be40:	240200ff 	li	v0,255
  40be44:	14620010 	bne	v1,v0,40be88 <rts_set_boost_gain+0x17c>
  40be48:	00000000 	nop
  40be4c:	8f8280cc 	lw	v0,-32564(gp)
  40be50:	8c440000 	lw	a0,0(v0)
  40be54:	8f828024 	lw	v0,-32732(gp)
  40be58:	24438144 	addiu	v1,v0,-32444
  40be5c:	93c20030 	lbu	v0,48(s8)
  40be60:	00602821 	move	a1,v1
  40be64:	00403021 	move	a2,v0
[31m  40be68:	8f82819c 	lw	v0,fprintf[0m
  40be6c:	0040c821 	move	t9,v0
  40be70:	0320f809 	jalr	t9
  40be74:	00000000 	nop
  40be78:	8fdc0010 	lw	gp,16(s8)
  40be7c:	2402ffff 	li	v0,-1
  40be80:	10000036 	b	40bf5c <rts_set_boost_gain+0x250>
  40be84:	00000000 	nop
  40be88:	93c30018 	lbu	v1,24(s8)
  40be8c:	240200ff 	li	v0,255
  40be90:	14620010 	bne	v1,v0,40bed4 <rts_set_boost_gain+0x1c8>
  40be94:	00000000 	nop
  40be98:	8f8280cc 	lw	v0,-32564(gp)
  40be9c:	8c440000 	lw	a0,0(v0)
  40bea0:	8f828024 	lw	v0,-32732(gp)
  40bea4:	24438180 	addiu	v1,v0,-32384
  40bea8:	93c20034 	lbu	v0,52(s8)
  40beac:	00602821 	move	a1,v1
  40beb0:	00403021 	move	a2,v0
[31m  40beb4:	8f82819c 	lw	v0,fprintf[0m
  40beb8:	0040c821 	move	t9,v0
  40bebc:	0320f809 	jalr	t9
--
  40c104:	240605f8 	li	a2,1528
  40c108:	8f828024 	lw	v0,-32732(gp)
  40c10c:	2447842c 	addiu	a3,v0,-31700
  40c110:	8f82805c 	lw	v0,-32676(gp)
  40c114:	0040c821 	move	t9,v0
  40c118:	0320f809 	jalr	t9
  40c11c:	00000000 	nop
  40c120:	8fdc0010 	lw	gp,16(s8)
  40c124:	97c20024 	lhu	v0,36(s8)
  40c128:	00402021 	move	a0,v0
  40c12c:	8f82802c 	lw	v0,-32724(gp)
  40c130:	2442c054 	addiu	v0,v0,-16300
  40c134:	0040c821 	move	t9,v0
  40c138:	0320f809 	jalr	t9
  40c13c:	00000000 	nop
  40c140:	8fdc0010 	lw	gp,16(s8)
  40c144:	04410010 	bgez	v0,40c188 <rts_write_mem_sp+0xd4>
  40c148:	00000000 	nop
  40c14c:	8f8280cc 	lw	v0,-32564(gp)
  40c150:	8c440000 	lw	a0,0(v0)
  40c154:	8f828024 	lw	v0,-32732(gp)
  40c158:	244381b8 	addiu	v1,v0,-32328
  40c15c:	97c20024 	lhu	v0,36(s8)
  40c160:	00602821 	move	a1,v1
  40c164:	00403021 	move	a2,v0
[31m  40c168:	8f82819c 	lw	v0,fprintf[0m
  40c16c:	0040c821 	move	t9,v0
  40c170:	0320f809 	jalr	t9
--
  40c9b0:	8f82802c 	lw	v0,-32724(gp)
  40c9b4:	24457788 	addiu	a1,v0,30600
  40c9b8:	24060653 	li	a2,1619
  40c9bc:	8f828024 	lw	v0,-32732(gp)
  40c9c0:	244783c8 	addiu	a3,v0,-31800
  40c9c4:	8f82805c 	lw	v0,-32676(gp)
  40c9c8:	0040c821 	move	t9,v0
  40c9cc:	0320f809 	jalr	t9
  40c9d0:	00000000 	nop
  40c9d4:	8fdc0010 	lw	gp,16(s8)
  40c9d8:	8fc4002c 	lw	a0,44(s8)
  40c9dc:	8f8280a8 	lw	v0,-32600(gp)
  40c9e0:	0040c821 	move	t9,v0
  40c9e4:	0320f809 	jalr	t9
  40c9e8:	00000000 	nop
  40c9ec:	8fdc0010 	lw	gp,16(s8)
  40c9f0:	04410010 	bgez	v0,40ca34 <rts_gpio_dir_get+0xc8>
  40c9f4:	00000000 	nop
  40c9f8:	8f8280cc 	lw	v0,-32564(gp)
  40c9fc:	8c430000 	lw	v1,0(v0)
  40ca00:	8f828024 	lw	v0,-32732(gp)
  40ca04:	24428220 	addiu	v0,v0,-32224
  40ca08:	00602021 	move	a0,v1
  40ca0c:	00402821 	move	a1,v0
  40ca10:	8fc6002c 	lw	a2,44(s8)
[31m  40ca14:	8f82819c 	lw	v0,fprintf[0m
  40ca18:	0040c821 	move	t9,v0
  40ca1c:	0320f809 	jalr	t9
--
  40cb4c:	8f82802c 	lw	v0,-32724(gp)
  40cb50:	24457788 	addiu	a1,v0,30600
  40cb54:	2406066b 	li	a2,1643
  40cb58:	8f828024 	lw	v0,-32732(gp)
  40cb5c:	244783b4 	addiu	a3,v0,-31820
  40cb60:	8f82805c 	lw	v0,-32676(gp)
  40cb64:	0040c821 	move	t9,v0
  40cb68:	0320f809 	jalr	t9
  40cb6c:	00000000 	nop
  40cb70:	8fdc0010 	lw	gp,16(s8)
  40cb74:	8fc4002c 	lw	a0,44(s8)
  40cb78:	8f8280a8 	lw	v0,-32600(gp)
  40cb7c:	0040c821 	move	t9,v0
  40cb80:	0320f809 	jalr	t9
  40cb84:	00000000 	nop
  40cb88:	8fdc0010 	lw	gp,16(s8)
  40cb8c:	04410010 	bgez	v0,40cbd0 <rts_gpio_dir_set+0xc8>
  40cb90:	00000000 	nop
  40cb94:	8f8280cc 	lw	v0,-32564(gp)
  40cb98:	8c430000 	lw	v1,0(v0)
  40cb9c:	8f828024 	lw	v0,-32732(gp)
  40cba0:	24428220 	addiu	v0,v0,-32224
  40cba4:	00602021 	move	a0,v1
  40cba8:	00402821 	move	a1,v0
  40cbac:	8fc6002c 	lw	a2,44(s8)
[31m  40cbb0:	8f82819c 	lw	v0,fprintf[0m
  40cbb4:	0040c821 	move	t9,v0
  40cbb8:	0320f809 	jalr	t9
--
  40ccb0:	8f82802c 	lw	v0,-32724(gp)
  40ccb4:	24457788 	addiu	a1,v0,30600
  40ccb8:	2406067f 	li	a2,1663
  40ccbc:	8f828024 	lw	v0,-32732(gp)
  40ccc0:	2447839c 	addiu	a3,v0,-31844
  40ccc4:	8f82805c 	lw	v0,-32676(gp)
  40ccc8:	0040c821 	move	t9,v0
  40cccc:	0320f809 	jalr	t9
  40ccd0:	00000000 	nop
  40ccd4:	8fdc0010 	lw	gp,16(s8)
  40ccd8:	8fc4002c 	lw	a0,44(s8)
  40ccdc:	8f8280a8 	lw	v0,-32600(gp)
  40cce0:	0040c821 	move	t9,v0
  40cce4:	0320f809 	jalr	t9
  40cce8:	00000000 	nop
  40ccec:	8fdc0010 	lw	gp,16(s8)
  40ccf0:	04410010 	bgez	v0,40cd34 <rts_gpio_pull_ctrl_get+0xc8>
  40ccf4:	00000000 	nop
  40ccf8:	8f8280cc 	lw	v0,-32564(gp)
  40ccfc:	8c430000 	lw	v1,0(v0)
  40cd00:	8f828024 	lw	v0,-32732(gp)
  40cd04:	24428220 	addiu	v0,v0,-32224
  40cd08:	00602021 	move	a0,v1
  40cd0c:	00402821 	move	a1,v0
  40cd10:	8fc6002c 	lw	a2,44(s8)
[31m  40cd14:	8f82819c 	lw	v0,fprintf[0m
  40cd18:	0040c821 	move	t9,v0
  40cd1c:	0320f809 	jalr	t9
--
  40ce6c:	8f82802c 	lw	v0,-32724(gp)
  40ce70:	24457788 	addiu	a1,v0,30600
  40ce74:	2406069b 	li	a2,1691
  40ce78:	8f828024 	lw	v0,-32732(gp)
  40ce7c:	24478384 	addiu	a3,v0,-31868
  40ce80:	8f82805c 	lw	v0,-32676(gp)
  40ce84:	0040c821 	move	t9,v0
  40ce88:	0320f809 	jalr	t9
  40ce8c:	00000000 	nop
  40ce90:	8fdc0010 	lw	gp,16(s8)
  40ce94:	8fc4002c 	lw	a0,44(s8)
  40ce98:	8f8280a8 	lw	v0,-32600(gp)
  40ce9c:	0040c821 	move	t9,v0
  40cea0:	0320f809 	jalr	t9
  40cea4:	00000000 	nop
  40cea8:	8fdc0010 	lw	gp,16(s8)
  40ceac:	04410010 	bgez	v0,40cef0 <rts_gpio_pull_ctrl_set+0xc8>
  40ceb0:	00000000 	nop
  40ceb4:	8f8280cc 	lw	v0,-32564(gp)
  40ceb8:	8c430000 	lw	v1,0(v0)
  40cebc:	8f828024 	lw	v0,-32732(gp)
  40cec0:	24428220 	addiu	v0,v0,-32224
  40cec4:	00602021 	move	a0,v1
  40cec8:	00402821 	move	a1,v0
  40cecc:	8fc6002c 	lw	a2,44(s8)
[31m  40ced0:	8f82819c 	lw	v0,fprintf[0m
  40ced4:	0040c821 	move	t9,v0
  40ced8:	0320f809 	jalr	t9
--
  40cff0:	8f82802c 	lw	v0,-32724(gp)
  40cff4:	24457788 	addiu	a1,v0,30600
  40cff8:	240606b2 	li	a2,1714
  40cffc:	8f828024 	lw	v0,-32732(gp)
  40d000:	24478374 	addiu	a3,v0,-31884
  40d004:	8f82805c 	lw	v0,-32676(gp)
  40d008:	0040c821 	move	t9,v0
  40d00c:	0320f809 	jalr	t9
  40d010:	00000000 	nop
  40d014:	8fdc0010 	lw	gp,16(s8)
  40d018:	8fc4002c 	lw	a0,44(s8)
  40d01c:	8f8280a8 	lw	v0,-32600(gp)
  40d020:	0040c821 	move	t9,v0
  40d024:	0320f809 	jalr	t9
  40d028:	00000000 	nop
  40d02c:	8fdc0010 	lw	gp,16(s8)
  40d030:	04410010 	bgez	v0,40d074 <rts_gpio_read+0xc8>
  40d034:	00000000 	nop
  40d038:	8f8280cc 	lw	v0,-32564(gp)
  40d03c:	8c430000 	lw	v1,0(v0)
  40d040:	8f828024 	lw	v0,-32732(gp)
  40d044:	24428220 	addiu	v0,v0,-32224
  40d048:	00602021 	move	a0,v1
  40d04c:	00402821 	move	a1,v0
  40d050:	8fc6002c 	lw	a2,44(s8)
[31m  40d054:	8f82819c 	lw	v0,fprintf[0m
  40d058:	0040c821 	move	t9,v0
  40d05c:	0320f809 	jalr	t9
--
  40d188:	8f82802c 	lw	v0,-32724(gp)
  40d18c:	24457788 	addiu	a1,v0,30600
  40d190:	240606c9 	li	a2,1737
  40d194:	8f828024 	lw	v0,-32732(gp)
  40d198:	24478364 	addiu	a3,v0,-31900
  40d19c:	8f82805c 	lw	v0,-32676(gp)
  40d1a0:	0040c821 	move	t9,v0
  40d1a4:	0320f809 	jalr	t9
  40d1a8:	00000000 	nop
  40d1ac:	8fdc0010 	lw	gp,16(s8)
  40d1b0:	8fc4002c 	lw	a0,44(s8)
  40d1b4:	8f8280a8 	lw	v0,-32600(gp)
  40d1b8:	0040c821 	move	t9,v0
  40d1bc:	0320f809 	jalr	t9
  40d1c0:	00000000 	nop
  40d1c4:	8fdc0010 	lw	gp,16(s8)
  40d1c8:	04410010 	bgez	v0,40d20c <rts_gpio_write+0xc8>
  40d1cc:	00000000 	nop
  40d1d0:	8f8280cc 	lw	v0,-32564(gp)
  40d1d4:	8c430000 	lw	v1,0(v0)
  40d1d8:	8f828024 	lw	v0,-32732(gp)
  40d1dc:	24428220 	addiu	v0,v0,-32224
  40d1e0:	00602021 	move	a0,v1
  40d1e4:	00402821 	move	a1,v0
  40d1e8:	8fc6002c 	lw	a2,44(s8)
[31m  40d1ec:	8f82819c 	lw	v0,fprintf[0m
  40d1f0:	0040c821 	move	t9,v0
  40d1f4:	0320f809 	jalr	t9
--
  40d368:	8f82802c 	lw	v0,-32724(gp)
  40d36c:	24457788 	addiu	a1,v0,30600
  40d370:	240606e7 	li	a2,1767
  40d374:	8f828024 	lw	v0,-32732(gp)
  40d378:	24478350 	addiu	a3,v0,-31920
  40d37c:	8f82805c 	lw	v0,-32676(gp)
  40d380:	0040c821 	move	t9,v0
  40d384:	0320f809 	jalr	t9
  40d388:	00000000 	nop
  40d38c:	8fdc0010 	lw	gp,16(s8)
  40d390:	8fc4002c 	lw	a0,44(s8)
  40d394:	8f8281f4 	lw	v0,-32268(gp)
  40d398:	0040c821 	move	t9,v0
  40d39c:	0320f809 	jalr	t9
  40d3a0:	00000000 	nop
  40d3a4:	8fdc0010 	lw	gp,16(s8)
  40d3a8:	04410010 	bgez	v0,40d3ec <rts_gpio_al_dir_get+0xc8>
  40d3ac:	00000000 	nop
  40d3b0:	8f8280cc 	lw	v0,-32564(gp)
  40d3b4:	8c430000 	lw	v1,0(v0)
  40d3b8:	8f828024 	lw	v0,-32732(gp)
  40d3bc:	2442823c 	addiu	v0,v0,-32196
  40d3c0:	00602021 	move	a0,v1
  40d3c4:	00402821 	move	a1,v0
  40d3c8:	8fc6002c 	lw	a2,44(s8)
[31m  40d3cc:	8f82819c 	lw	v0,fprintf[0m
  40d3d0:	0040c821 	move	t9,v0
  40d3d4:	0320f809 	jalr	t9
--
  40d4b4:	8f82802c 	lw	v0,-32724(gp)
  40d4b8:	24457788 	addiu	a1,v0,30600
  40d4bc:	240606f9 	li	a2,1785
  40d4c0:	8f828024 	lw	v0,-32732(gp)
  40d4c4:	2447833c 	addiu	a3,v0,-31940
  40d4c8:	8f82805c 	lw	v0,-32676(gp)
  40d4cc:	0040c821 	move	t9,v0
  40d4d0:	0320f809 	jalr	t9
  40d4d4:	00000000 	nop
  40d4d8:	8fdc0010 	lw	gp,16(s8)
  40d4dc:	8fc40024 	lw	a0,36(s8)
  40d4e0:	8f8281f4 	lw	v0,-32268(gp)
  40d4e4:	0040c821 	move	t9,v0
  40d4e8:	0320f809 	jalr	t9
  40d4ec:	00000000 	nop
  40d4f0:	8fdc0010 	lw	gp,16(s8)
  40d4f4:	04410010 	bgez	v0,40d538 <rts_gpio_al_dir_set+0xc4>
  40d4f8:	00000000 	nop
  40d4fc:	8f8280cc 	lw	v0,-32564(gp)
  40d500:	8c430000 	lw	v1,0(v0)
  40d504:	8f828024 	lw	v0,-32732(gp)
  40d508:	2442823c 	addiu	v0,v0,-32196
  40d50c:	00602021 	move	a0,v1
  40d510:	00402821 	move	a1,v0
  40d514:	8fc60024 	lw	a2,36(s8)
[31m  40d518:	8f82819c 	lw	v0,fprintf[0m
  40d51c:	0040c821 	move	t9,v0
  40d520:	0320f809 	jalr	t9
--
  40d5cc:	8f82802c 	lw	v0,-32724(gp)
  40d5d0:	24457788 	addiu	a1,v0,30600
  40d5d4:	24060707 	li	a2,1799
  40d5d8:	8f828024 	lw	v0,-32732(gp)
  40d5dc:	24478328 	addiu	a3,v0,-31960
  40d5e0:	8f82805c 	lw	v0,-32676(gp)
  40d5e4:	0040c821 	move	t9,v0
  40d5e8:	0320f809 	jalr	t9
  40d5ec:	00000000 	nop
  40d5f0:	8fdc0010 	lw	gp,16(s8)
  40d5f4:	8fc4002c 	lw	a0,44(s8)
  40d5f8:	8f8281f4 	lw	v0,-32268(gp)
  40d5fc:	0040c821 	move	t9,v0
  40d600:	0320f809 	jalr	t9
  40d604:	00000000 	nop
  40d608:	8fdc0010 	lw	gp,16(s8)
  40d60c:	04410010 	bgez	v0,40d650 <rts_gpio_al_read+0xc8>
  40d610:	00000000 	nop
  40d614:	8f8280cc 	lw	v0,-32564(gp)
  40d618:	8c430000 	lw	v1,0(v0)
  40d61c:	8f828024 	lw	v0,-32732(gp)
  40d620:	2442823c 	addiu	v0,v0,-32196
  40d624:	00602021 	move	a0,v1
  40d628:	00402821 	move	a1,v0
  40d62c:	8fc6002c 	lw	a2,44(s8)
[31m  40d630:	8f82819c 	lw	v0,fprintf[0m
  40d634:	0040c821 	move	t9,v0
  40d638:	0320f809 	jalr	t9
--
  40d720:	8f82802c 	lw	v0,-32724(gp)
  40d724:	24457788 	addiu	a1,v0,30600
  40d728:	24060719 	li	a2,1817
  40d72c:	8f828024 	lw	v0,-32732(gp)
  40d730:	24478314 	addiu	a3,v0,-31980
  40d734:	8f82805c 	lw	v0,-32676(gp)
  40d738:	0040c821 	move	t9,v0
  40d73c:	0320f809 	jalr	t9
  40d740:	00000000 	nop
  40d744:	8fdc0010 	lw	gp,16(s8)
  40d748:	8fc40024 	lw	a0,36(s8)
  40d74c:	8f8281f4 	lw	v0,-32268(gp)
  40d750:	0040c821 	move	t9,v0
  40d754:	0320f809 	jalr	t9
  40d758:	00000000 	nop
  40d75c:	8fdc0010 	lw	gp,16(s8)
  40d760:	04410010 	bgez	v0,40d7a4 <rts_gpio_al_write+0xc8>
  40d764:	00000000 	nop
  40d768:	8f8280cc 	lw	v0,-32564(gp)
  40d76c:	8c430000 	lw	v1,0(v0)
  40d770:	8f828024 	lw	v0,-32732(gp)
  40d774:	2442823c 	addiu	v0,v0,-32196
  40d778:	00602021 	move	a0,v1
  40d77c:	00402821 	move	a1,v0
  40d780:	8fc60024 	lw	a2,36(s8)
[31m  40d784:	8f82819c 	lw	v0,fprintf[0m
  40d788:	0040c821 	move	t9,v0
  40d78c:	0320f809 	jalr	t9
--
  40d83c:	8f82802c 	lw	v0,-32724(gp)
  40d840:	24457788 	addiu	a1,v0,30600
  40d844:	24060728 	li	a2,1832
  40d848:	8f828024 	lw	v0,-32732(gp)
  40d84c:	244782f8 	addiu	a3,v0,-32008
  40d850:	8f82805c 	lw	v0,-32676(gp)
  40d854:	0040c821 	move	t9,v0
  40d858:	0320f809 	jalr	t9
  40d85c:	00000000 	nop
  40d860:	8fdc0010 	lw	gp,16(s8)
  40d864:	8fc4002c 	lw	a0,44(s8)
  40d868:	8f8281f4 	lw	v0,-32268(gp)
  40d86c:	0040c821 	move	t9,v0
  40d870:	0320f809 	jalr	t9
  40d874:	00000000 	nop
  40d878:	8fdc0010 	lw	gp,16(s8)
  40d87c:	04410010 	bgez	v0,40d8c0 <rts_gpio_al_pull_ctl_get+0xc8>
  40d880:	00000000 	nop
  40d884:	8f8280cc 	lw	v0,-32564(gp)
  40d888:	8c430000 	lw	v1,0(v0)
  40d88c:	8f828024 	lw	v0,-32732(gp)
  40d890:	2442823c 	addiu	v0,v0,-32196
  40d894:	00602021 	move	a0,v1
  40d898:	00402821 	move	a1,v0
  40d89c:	8fc6002c 	lw	a2,44(s8)
[31m  40d8a0:	8f82819c 	lw	v0,fprintf[0m
  40d8a4:	0040c821 	move	t9,v0
  40d8a8:	0320f809 	jalr	t9
--
  40d988:	8f82802c 	lw	v0,-32724(gp)
  40d98c:	24457788 	addiu	a1,v0,30600
  40d990:	24060739 	li	a2,1849
  40d994:	8f828024 	lw	v0,-32732(gp)
  40d998:	244782dc 	addiu	a3,v0,-32036
  40d99c:	8f82805c 	lw	v0,-32676(gp)
  40d9a0:	0040c821 	move	t9,v0
  40d9a4:	0320f809 	jalr	t9
  40d9a8:	00000000 	nop
  40d9ac:	8fdc0010 	lw	gp,16(s8)
  40d9b0:	8fc40024 	lw	a0,36(s8)
  40d9b4:	8f8281f4 	lw	v0,-32268(gp)
  40d9b8:	0040c821 	move	t9,v0
  40d9bc:	0320f809 	jalr	t9
  40d9c0:	00000000 	nop
  40d9c4:	8fdc0010 	lw	gp,16(s8)
  40d9c8:	04410010 	bgez	v0,40da0c <rts_gpio_al_pull_ctl_set+0xc4>
  40d9cc:	00000000 	nop
  40d9d0:	8f8280cc 	lw	v0,-32564(gp)
  40d9d4:	8c430000 	lw	v1,0(v0)
  40d9d8:	8f828024 	lw	v0,-32732(gp)
  40d9dc:	2442823c 	addiu	v0,v0,-32196
  40d9e0:	00602021 	move	a0,v1
  40d9e4:	00402821 	move	a1,v0
  40d9e8:	8fc60024 	lw	a2,36(s8)
[31m  40d9ec:	8f82819c 	lw	v0,fprintf[0m
  40d9f0:	0040c821 	move	t9,v0
  40d9f4:	0320f809 	jalr	t9
--
  40daa0:	8f82802c 	lw	v0,-32724(gp)
  40daa4:	24457788 	addiu	a1,v0,30600
  40daa8:	24060747 	li	a2,1863
  40daac:	8f828024 	lw	v0,-32732(gp)
  40dab0:	244782b8 	addiu	a3,v0,-32072
  40dab4:	8f82805c 	lw	v0,-32676(gp)
  40dab8:	0040c821 	move	t9,v0
  40dabc:	0320f809 	jalr	t9
  40dac0:	00000000 	nop
  40dac4:	8fdc0010 	lw	gp,16(s8)
  40dac8:	8fc4002c 	lw	a0,44(s8)
  40dacc:	8f8281f4 	lw	v0,-32268(gp)
  40dad0:	0040c821 	move	t9,v0
  40dad4:	0320f809 	jalr	t9
  40dad8:	00000000 	nop
  40dadc:	8fdc0010 	lw	gp,16(s8)
  40dae0:	04410010 	bgez	v0,40db24 <rts_gpio_al_driving_strength_get+0xc8>
  40dae4:	00000000 	nop
  40dae8:	8f8280cc 	lw	v0,-32564(gp)
  40daec:	8c430000 	lw	v1,0(v0)
  40daf0:	8f828024 	lw	v0,-32732(gp)
  40daf4:	2442823c 	addiu	v0,v0,-32196
  40daf8:	00602021 	move	a0,v1
  40dafc:	00402821 	move	a1,v0
  40db00:	8fc6002c 	lw	a2,44(s8)
[31m  40db04:	8f82819c 	lw	v0,fprintf[0m
  40db08:	0040c821 	move	t9,v0
  40db0c:	0320f809 	jalr	t9
--
  40dbe0:	8f82802c 	lw	v0,-32724(gp)
  40dbe4:	24457788 	addiu	a1,v0,30600
  40dbe8:	24060757 	li	a2,1879
  40dbec:	8f828024 	lw	v0,-32732(gp)
  40dbf0:	24478294 	addiu	a3,v0,-32108
  40dbf4:	8f82805c 	lw	v0,-32676(gp)
  40dbf8:	0040c821 	move	t9,v0
  40dbfc:	0320f809 	jalr	t9
  40dc00:	00000000 	nop
  40dc04:	8fdc0010 	lw	gp,16(s8)
  40dc08:	8fc40024 	lw	a0,36(s8)
  40dc0c:	8f8281f4 	lw	v0,-32268(gp)
  40dc10:	0040c821 	move	t9,v0
  40dc14:	0320f809 	jalr	t9
  40dc18:	00000000 	nop
  40dc1c:	8fdc0010 	lw	gp,16(s8)
  40dc20:	04410010 	bgez	v0,40dc64 <rts_gpio_al_driving_strength_set+0xc4>
  40dc24:	00000000 	nop
  40dc28:	8f8280cc 	lw	v0,-32564(gp)
  40dc2c:	8c430000 	lw	v1,0(v0)
  40dc30:	8f828024 	lw	v0,-32732(gp)
  40dc34:	2442823c 	addiu	v0,v0,-32196
  40dc38:	00602021 	move	a0,v1
  40dc3c:	00402821 	move	a1,v0
  40dc40:	8fc60024 	lw	a2,36(s8)
[31m  40dc44:	8f82819c 	lw	v0,fprintf[0m
  40dc48:	0040c821 	move	t9,v0
  40dc4c:	0320f809 	jalr	t9
--
  40dcec:	8f82802c 	lw	v0,-32724(gp)
  40dcf0:	24457788 	addiu	a1,v0,30600
  40dcf4:	24060765 	li	a2,1893
  40dcf8:	8f828024 	lw	v0,-32732(gp)
  40dcfc:	24478278 	addiu	a3,v0,-32136
  40dd00:	8f82805c 	lw	v0,-32676(gp)
  40dd04:	0040c821 	move	t9,v0
  40dd08:	0320f809 	jalr	t9
  40dd0c:	00000000 	nop
  40dd10:	8fdc0010 	lw	gp,16(s8)
  40dd14:	8fc4002c 	lw	a0,44(s8)
  40dd18:	8f8281f4 	lw	v0,-32268(gp)
  40dd1c:	0040c821 	move	t9,v0
  40dd20:	0320f809 	jalr	t9
  40dd24:	00000000 	nop
  40dd28:	8fdc0010 	lw	gp,16(s8)
  40dd2c:	04410010 	bgez	v0,40dd70 <rts_gpio_al_slew_rate_get+0xc8>
  40dd30:	00000000 	nop
  40dd34:	8f8280cc 	lw	v0,-32564(gp)
  40dd38:	8c430000 	lw	v1,0(v0)
  40dd3c:	8f828024 	lw	v0,-32732(gp)
  40dd40:	2442823c 	addiu	v0,v0,-32196
  40dd44:	00602021 	move	a0,v1
  40dd48:	00402821 	move	a1,v0
  40dd4c:	8fc6002c 	lw	a2,44(s8)
[31m  40dd50:	8f82819c 	lw	v0,fprintf[0m
  40dd54:	0040c821 	move	t9,v0
  40dd58:	0320f809 	jalr	t9
--
  40de2c:	8f82802c 	lw	v0,-32724(gp)
  40de30:	24457788 	addiu	a1,v0,30600
  40de34:	24060775 	li	a2,1909
  40de38:	8f828024 	lw	v0,-32732(gp)
  40de3c:	2447825c 	addiu	a3,v0,-32164
  40de40:	8f82805c 	lw	v0,-32676(gp)
  40de44:	0040c821 	move	t9,v0
  40de48:	0320f809 	jalr	t9
  40de4c:	00000000 	nop
  40de50:	8fdc0010 	lw	gp,16(s8)
  40de54:	8fc40024 	lw	a0,36(s8)
  40de58:	8f8281f4 	lw	v0,-32268(gp)
  40de5c:	0040c821 	move	t9,v0
  40de60:	0320f809 	jalr	t9
  40de64:	00000000 	nop
  40de68:	8fdc0010 	lw	gp,16(s8)
  40de6c:	04410010 	bgez	v0,40deb0 <rts_gpio_al_slew_rate_set+0xc4>
  40de70:	00000000 	nop
  40de74:	8f8280cc 	lw	v0,-32564(gp)
  40de78:	8c430000 	lw	v1,0(v0)
  40de7c:	8f828024 	lw	v0,-32732(gp)
  40de80:	2442823c 	addiu	v0,v0,-32196
  40de84:	00602021 	move	a0,v1
  40de88:	00402821 	move	a1,v0
  40de8c:	8fc60024 	lw	a2,36(s8)
[31m  40de90:	8f82819c 	lw	v0,fprintf[0m
  40de94:	0040c821 	move	t9,v0
  40de98:	0320f809 	jalr	t9
--
  40e244:	8fdc0010 	lw	gp,16(s8)
  40e248:	1000001c 	b	40e2bc <translate_error_code+0x3bc>
  40e24c:	00000000 	nop
  40e250:	8f828024 	lw	v0,-32732(gp)
  40e254:	24438574 	addiu	v1,v0,-31372
  40e258:	8f82824c 	lw	v0,-32180(gp)
  40e25c:	8c420000 	lw	v0,0(v0)
  40e260:	00602021 	move	a0,v1
  40e264:	24050001 	li	a1,1
  40e268:	24060014 	li	a2,20
  40e26c:	00403821 	move	a3,v0
  40e270:	8f82808c 	lw	v0,-32628(gp)
  40e274:	0040c821 	move	t9,v0
  40e278:	0320f809 	jalr	t9
  40e27c:	00000000 	nop
  40e280:	8fdc0010 	lw	gp,16(s8)
  40e284:	1000000d 	b	40e2bc <translate_error_code+0x3bc>
  40e288:	00000000 	nop
  40e28c:	8f82824c 	lw	v0,-32180(gp)
  40e290:	8c440000 	lw	a0,0(v0)
  40e294:	8f828024 	lw	v0,-32732(gp)
  40e298:	2443858c 	addiu	v1,v0,-31348
  40e29c:	97c20028 	lhu	v0,40(s8)
  40e2a0:	00602821 	move	a1,v1
  40e2a4:	00403021 	move	a2,v0
[31m  40e2a8:	8f82819c 	lw	v0,fprintf[0m
  40e2ac:	0040c821 	move	t9,v0
  40e2b0:	0320f809 	jalr	t9
--
  40e338:	03a0f021 	move	s8,sp
  40e33c:	afbc0010 	sw	gp,16(sp)
  40e340:	8f828024 	lw	v0,-32732(gp)
  40e344:	244385ac 	addiu	v1,v0,-31316
  40e348:	8f82824c 	lw	v0,-32180(gp)
  40e34c:	8c420000 	lw	v0,0(v0)
  40e350:	00602021 	move	a0,v1
  40e354:	24050001 	li	a1,1
  40e358:	24060039 	li	a2,57
  40e35c:	00403821 	move	a3,v0
  40e360:	8f82808c 	lw	v0,-32628(gp)
  40e364:	0040c821 	move	t9,v0
  40e368:	0320f809 	jalr	t9
  40e36c:	00000000 	nop
  40e370:	8fdc0010 	lw	gp,16(s8)
  40e374:	8f82824c 	lw	v0,-32180(gp)
  40e378:	8c430000 	lw	v1,0(v0)
  40e37c:	8f828024 	lw	v0,-32732(gp)
  40e380:	244285e8 	addiu	v0,v0,-31256
  40e384:	00602021 	move	a0,v1
  40e388:	00402821 	move	a1,v0
  40e38c:	8f828024 	lw	v0,-32732(gp)
  40e390:	244685f8 	addiu	a2,v0,-31240
  40e394:	8f828024 	lw	v0,-32732(gp)
  40e398:	24478604 	addiu	a3,v0,-31228
[31m  40e39c:	8f82819c 	lw	v0,fprintf[0m
  40e3a0:	0040c821 	move	t9,v0
  40e3a4:	0320f809 	jalr	t9
--
  40e3e4:	afbc0010 	sw	gp,16(sp)
  40e3e8:	afc40028 	sw	a0,40(s8)
  40e3ec:	afc5002c 	sw	a1,44(s8)
  40e3f0:	2402ffff 	li	v0,-1
  40e3f4:	afc2001c 	sw	v0,28(s8)
  40e3f8:	afc00018 	sw	zero,24(s8)
  40e3fc:	8fc40028 	lw	a0,40(s8)
  40e400:	8fc5002c 	lw	a1,44(s8)
  40e404:	8f828064 	lw	v0,-32668(gp)
  40e408:	0040c821 	move	t9,v0
  40e40c:	0320f809 	jalr	t9
  40e410:	00000000 	nop
  40e414:	8fdc0010 	lw	gp,16(s8)
  40e418:	afc2001c 	sw	v0,28(s8)
  40e41c:	8fc2001c 	lw	v0,28(s8)
  40e420:	04410011 	bgez	v0,40e468 <uvc_open+0xa0>
  40e424:	00000000 	nop
  40e428:	8f8280cc 	lw	v0,-32564(gp)
  40e42c:	8c430000 	lw	v1,0(v0)
  40e430:	8f828024 	lw	v0,-32732(gp)
  40e434:	24428610 	addiu	v0,v0,-31216
  40e438:	00602021 	move	a0,v1
  40e43c:	00402821 	move	a1,v0
  40e440:	8fc60028 	lw	a2,40(s8)
  40e444:	8fc7001c 	lw	a3,28(s8)
[31m  40e448:	8f82819c 	lw	v0,fprintf[0m
  40e44c:	0040c821 	move	t9,v0
  40e450:	0320f809 	jalr	t9
--
  40ec90:	27bdffc0 	addiu	sp,sp,-64
  40ec94:	afbf003c 	sw	ra,60(sp)
  40ec98:	afbe0038 	sw	s8,56(sp)
  40ec9c:	03a0f021 	move	s8,sp
  40eca0:	afbc0020 	sw	gp,32(sp)
  40eca4:	afc40040 	sw	a0,64(s8)
  40eca8:	00c02021 	move	a0,a2
  40ecac:	afc7004c 	sw	a3,76(s8)
  40ecb0:	8fc30050 	lw	v1,80(s8)
  40ecb4:	8fc20054 	lw	v0,84(s8)
  40ecb8:	a7c50044 	sh	a1,68(s8)
  40ecbc:	a7c40048 	sh	a0,72(s8)
  40ecc0:	a7c30030 	sh	v1,48(s8)
  40ecc4:	a7c20034 	sh	v0,52(s8)
  40ecc8:	afc0002c 	sw	zero,44(s8)
  40eccc:	8fc20040 	lw	v0,64(s8)
  40ecd0:	04410010 	bgez	v0,40ed14 <uvc_exec_vendor_cmd+0x90>
  40ecd4:	00000000 	nop
  40ecd8:	8f8280cc 	lw	v0,-32564(gp)
  40ecdc:	8c430000 	lw	v1,0(v0)
  40ece0:	8f828024 	lw	v0,-32732(gp)
  40ece4:	24428678 	addiu	v0,v0,-31112
  40ece8:	00602021 	move	a0,v1
  40ecec:	00402821 	move	a1,v0
  40ecf0:	8fc60040 	lw	a2,64(s8)
[31m  40ecf4:	8f82819c 	lw	v0,fprintf[0m
  40ecf8:	0040c821 	move	t9,v0
  40ecfc:	0320f809 	jalr	t9
--
  40ee48:	27bd0028 	addiu	sp,sp,40
  40ee4c:	03e00008 	jr	ra
  40ee50:	00000000 	nop

0040ee54 <uvc_reset_only>:
  40ee54:	3c1c0002 	lui	gp,0x2
  40ee58:	279c244c 	addiu	gp,gp,9292
  40ee5c:	0399e021 	addu	gp,gp,t9
  40ee60:	27bdffc8 	addiu	sp,sp,-56
  40ee64:	afbf0034 	sw	ra,52(sp)
  40ee68:	afbe0030 	sw	s8,48(sp)
  40ee6c:	03a0f021 	move	s8,sp
  40ee70:	afbc0020 	sw	gp,32(sp)
  40ee74:	afc40038 	sw	a0,56(s8)
  40ee78:	afc0002c 	sw	zero,44(s8)
  40ee7c:	8fc20038 	lw	v0,56(s8)
  40ee80:	04410010 	bgez	v0,40eec4 <uvc_reset_only+0x70>
  40ee84:	00000000 	nop
  40ee88:	8f8280cc 	lw	v0,-32564(gp)
  40ee8c:	8c430000 	lw	v1,0(v0)
  40ee90:	8f828024 	lw	v0,-32732(gp)
  40ee94:	24428678 	addiu	v0,v0,-31112
  40ee98:	00602021 	move	a0,v1
  40ee9c:	00402821 	move	a1,v0
  40eea0:	8fc60038 	lw	a2,56(s8)
[31m  40eea4:	8f82819c 	lw	v0,fprintf[0m
  40eea8:	0040c821 	move	t9,v0
  40eeac:	0320f809 	jalr	t9
--
  40ef6c:	0040c821 	move	t9,v0
  40ef70:	0320f809 	jalr	t9
  40ef74:	00000000 	nop
  40ef78:	8fdc0010 	lw	gp,16(s8)
  40ef7c:	afc20018 	sw	v0,24(s8)
  40ef80:	8fc20018 	lw	v0,24(s8)
  40ef84:	1440000b 	bnez	v0,40efb4 <uvc_error_process+0x88>
  40ef88:	00000000 	nop
  40ef8c:	97c2001c 	lhu	v0,28(s8)
  40ef90:	00402021 	move	a0,v0
  40ef94:	8f82802c 	lw	v0,-32724(gp)
  40ef98:	2442df00 	addiu	v0,v0,-8448
  40ef9c:	0040c821 	move	t9,v0
  40efa0:	0320f809 	jalr	t9
  40efa4:	00000000 	nop
  40efa8:	8fdc0010 	lw	gp,16(s8)
  40efac:	1000000d 	b	40efe4 <uvc_error_process+0xb8>
  40efb0:	00000000 	nop
  40efb4:	8f8280cc 	lw	v0,-32564(gp)
  40efb8:	8c430000 	lw	v1,0(v0)
  40efbc:	8f828024 	lw	v0,-32732(gp)
  40efc0:	244286b0 	addiu	v0,v0,-31056
  40efc4:	00602021 	move	a0,v1
  40efc8:	00402821 	move	a1,v0
  40efcc:	8fc60018 	lw	a2,24(s8)
[31m  40efd0:	8f82819c 	lw	v0,fprintf[0m
  40efd4:	0040c821 	move	t9,v0
  40efd8:	0320f809 	jalr	t9
  40efdc:	00000000 	nop
  40efe0:	8fdc0010 	lw	gp,16(s8)
  40efe4:	8fc40028 	lw	a0,40(s8)
  40efe8:	8f82804c 	lw	v0,-32692(gp)
  40efec:	0040c821 	move	t9,v0
  40eff0:	0320f809 	jalr	t9
  40eff4:	00000000 	nop
  40eff8:	8fdc0010 	lw	gp,16(s8)
  40effc:	afc20018 	sw	v0,24(s8)
  40f000:	8fc20018 	lw	v0,24(s8)
  40f004:	1040000d 	beqz	v0,40f03c <uvc_error_process+0x110>
  40f008:	00000000 	nop
  40f00c:	8f8280cc 	lw	v0,-32564(gp)
  40f010:	8c430000 	lw	v1,0(v0)
  40f014:	8f828024 	lw	v0,-32732(gp)
  40f018:	244286d0 	addiu	v0,v0,-31024
  40f01c:	00602021 	move	a0,v1
  40f020:	00402821 	move	a1,v0
  40f024:	8fc60018 	lw	a2,24(s8)
[31m  40f028:	8f82819c 	lw	v0,fprintf[0m
  40f02c:	0040c821 	move	t9,v0
  40f030:	0320f809 	jalr	t9
--
  40f2e4:	0040c821 	move	t9,v0
  40f2e8:	0320f809 	jalr	t9
  40f2ec:	00000000 	nop
  40f2f0:	8fdc0010 	lw	gp,16(s8)
  40f2f4:	afc20018 	sw	v0,24(s8)
  40f2f8:	1000001a 	b	40f364 <uvc_reset_dev+0x14c>
  40f2fc:	00000000 	nop
  40f300:	8fc40028 	lw	a0,40(s8)
  40f304:	24050003 	li	a1,3
  40f308:	00003021 	move	a2,zero
  40f30c:	8f828198 	lw	v0,-32360(gp)
  40f310:	0040c821 	move	t9,v0
  40f314:	0320f809 	jalr	t9
  40f318:	00000000 	nop
  40f31c:	8fdc0010 	lw	gp,16(s8)
  40f320:	afc20018 	sw	v0,24(s8)
  40f324:	1000000f 	b	40f364 <uvc_reset_dev+0x14c>
  40f328:	00000000 	nop
  40f32c:	8f8280cc 	lw	v0,-32564(gp)
  40f330:	8c430000 	lw	v1,0(v0)
  40f334:	8f828024 	lw	v0,-32732(gp)
  40f338:	244286f4 	addiu	v0,v0,-30988
  40f33c:	00602021 	move	a0,v1
  40f340:	00402821 	move	a1,v0
  40f344:	8fc6002c 	lw	a2,44(s8)
[31m  40f348:	8f82819c 	lw	v0,fprintf[0m
  40f34c:	0040c821 	move	t9,v0
  40f350:	0320f809 	jalr	t9
--
0040fa8c <uvc_read_sfr>:
  40fa8c:	3c1c0002 	lui	gp,0x2
  40fa90:	279c1814 	addiu	gp,gp,6164
  40fa94:	0399e021 	addu	gp,gp,t9
  40fa98:	27bdffd0 	addiu	sp,sp,-48
  40fa9c:	afbf002c 	sw	ra,44(sp)
  40faa0:	afbe0028 	sw	s8,40(sp)
  40faa4:	03a0f021 	move	s8,sp
  40faa8:	afbc0018 	sw	gp,24(sp)
  40faac:	afc40030 	sw	a0,48(s8)
  40fab0:	00a01021 	move	v0,a1
  40fab4:	afc60038 	sw	a2,56(s8)
  40fab8:	a3c20034 	sb	v0,52(s8)
  40fabc:	2402ffea 	li	v0,-22
  40fac0:	afc20020 	sw	v0,32(s8)
  40fac4:	83c20034 	lb	v0,52(s8)
  40fac8:	04400010 	bltz	v0,40fb0c <uvc_read_sfr+0x80>
  40facc:	00000000 	nop
  40fad0:	8f8280cc 	lw	v0,-32564(gp)
  40fad4:	8c440000 	lw	a0,0(v0)
  40fad8:	8f828024 	lw	v0,-32732(gp)
  40fadc:	2443870c 	addiu	v1,v0,-30964
  40fae0:	93c20034 	lbu	v0,52(s8)
  40fae4:	00602821 	move	a1,v1
  40fae8:	00403021 	move	a2,v0
[31m  40faec:	8f82819c 	lw	v0,fprintf[0m
  40faf0:	0040c821 	move	t9,v0
  40faf4:	0320f809 	jalr	t9
--
  40fb60:	3c1c0002 	lui	gp,0x2
  40fb64:	279c1740 	addiu	gp,gp,5952
  40fb68:	0399e021 	addu	gp,gp,t9
  40fb6c:	27bdffd0 	addiu	sp,sp,-48
  40fb70:	afbf002c 	sw	ra,44(sp)
  40fb74:	afbe0028 	sw	s8,40(sp)
  40fb78:	03a0f021 	move	s8,sp
  40fb7c:	afbc0018 	sw	gp,24(sp)
  40fb80:	afc40030 	sw	a0,48(s8)
  40fb84:	00a01821 	move	v1,a1
  40fb88:	00c01021 	move	v0,a2
  40fb8c:	a3c30034 	sb	v1,52(s8)
  40fb90:	a3c20038 	sb	v0,56(s8)
  40fb94:	2402ffea 	li	v0,-22
  40fb98:	afc20020 	sw	v0,32(s8)
  40fb9c:	83c20034 	lb	v0,52(s8)
  40fba0:	04400010 	bltz	v0,40fbe4 <uvc_write_sfr+0x84>
  40fba4:	00000000 	nop
  40fba8:	8f8280cc 	lw	v0,-32564(gp)
  40fbac:	8c440000 	lw	a0,0(v0)
  40fbb0:	8f828024 	lw	v0,-32732(gp)
  40fbb4:	2443870c 	addiu	v1,v0,-30964
  40fbb8:	93c20034 	lbu	v0,52(s8)
  40fbbc:	00602821 	move	a1,v1
  40fbc0:	00403021 	move	a2,v0
[31m  40fbc4:	8f82819c 	lw	v0,fprintf[0m
  40fbc8:	0040c821 	move	t9,v0
  40fbcc:	0320f809 	jalr	t9
--
0040fe64 <uvc_set_jpeg_qtable>:
  40fe64:	3c1c0002 	lui	gp,0x2
  40fe68:	279c143c 	addiu	gp,gp,5180
  40fe6c:	0399e021 	addu	gp,gp,t9
  40fe70:	27bdffd0 	addiu	sp,sp,-48
  40fe74:	afbf002c 	sw	ra,44(sp)
  40fe78:	afbe0028 	sw	s8,40(sp)
  40fe7c:	03a0f021 	move	s8,sp
  40fe80:	afbc0018 	sw	gp,24(sp)
  40fe84:	afc40030 	sw	a0,48(s8)
  40fe88:	00a01021 	move	v0,a1
  40fe8c:	afc60038 	sw	a2,56(s8)
  40fe90:	a3c20034 	sb	v0,52(s8)
  40fe94:	2402ffea 	li	v0,-22
  40fe98:	afc20020 	sw	v0,32(s8)
  40fe9c:	83c20034 	lb	v0,52(s8)
  40fea0:	04410010 	bgez	v0,40fee4 <uvc_set_jpeg_qtable+0x80>
  40fea4:	00000000 	nop
  40fea8:	8f8280cc 	lw	v0,-32564(gp)
  40feac:	8c440000 	lw	a0,0(v0)
  40feb0:	8f828024 	lw	v0,-32732(gp)
  40feb4:	2443870c 	addiu	v1,v0,-30964
  40feb8:	93c20034 	lbu	v0,52(s8)
  40febc:	00602821 	move	a1,v1
  40fec0:	00403021 	move	a2,v0
[31m  40fec4:	8f82819c 	lw	v0,fprintf[0m
  40fec8:	0040c821 	move	t9,v0
  40fecc:	0320f809 	jalr	t9
--
0040ff38 <uvc_get_jpeg_qtable>:
  40ff38:	3c1c0002 	lui	gp,0x2
  40ff3c:	279c1368 	addiu	gp,gp,4968
  40ff40:	0399e021 	addu	gp,gp,t9
  40ff44:	27bdffd0 	addiu	sp,sp,-48
  40ff48:	afbf002c 	sw	ra,44(sp)
  40ff4c:	afbe0028 	sw	s8,40(sp)
  40ff50:	03a0f021 	move	s8,sp
  40ff54:	afbc0018 	sw	gp,24(sp)
  40ff58:	afc40030 	sw	a0,48(s8)
  40ff5c:	00a01021 	move	v0,a1
  40ff60:	afc60038 	sw	a2,56(s8)
  40ff64:	a3c20034 	sb	v0,52(s8)
  40ff68:	2402ffea 	li	v0,-22
  40ff6c:	afc20020 	sw	v0,32(s8)
  40ff70:	83c20034 	lb	v0,52(s8)
  40ff74:	04410010 	bgez	v0,40ffb8 <uvc_get_jpeg_qtable+0x80>
  40ff78:	00000000 	nop
  40ff7c:	8f8280cc 	lw	v0,-32564(gp)
  40ff80:	8c440000 	lw	a0,0(v0)
  40ff84:	8f828024 	lw	v0,-32732(gp)
  40ff88:	2443870c 	addiu	v1,v0,-30964
  40ff8c:	93c20034 	lbu	v0,52(s8)
  40ff90:	00602821 	move	a1,v1
  40ff94:	00403021 	move	a2,v0
[31m  40ff98:	8f82819c 	lw	v0,fprintf[0m
  40ff9c:	0040c821 	move	t9,v0
  40ffa0:	0320f809 	jalr	t9
--
  4107b8:	3c1c0002 	lui	gp,0x2
  4107bc:	279c0ae8 	addiu	gp,gp,2792
  4107c0:	0399e021 	addu	gp,gp,t9
  4107c4:	27bdffd0 	addiu	sp,sp,-48
  4107c8:	afbf002c 	sw	ra,44(sp)
  4107cc:	afbe0028 	sw	s8,40(sp)
  4107d0:	03a0f021 	move	s8,sp
  4107d4:	afbc0018 	sw	gp,24(sp)
  4107d8:	afc40030 	sw	a0,48(s8)
  4107dc:	00a01021 	move	v0,a1
  4107e0:	afc60038 	sw	a2,56(s8)
  4107e4:	a3c20034 	sb	v0,52(s8)
  4107e8:	2402ffea 	li	v0,-22
  4107ec:	afc20020 	sw	v0,32(s8)
  4107f0:	93c20034 	lbu	v0,52(s8)
  4107f4:	2c420041 	sltiu	v0,v0,65
  4107f8:	14400010 	bnez	v0,41083c <uvc_read_bar_info+0x84>
  4107fc:	00000000 	nop
  410800:	8f8280cc 	lw	v0,-32564(gp)
  410804:	8c440000 	lw	a0,0(v0)
  410808:	8f828024 	lw	v0,-32732(gp)
  41080c:	2443870c 	addiu	v1,v0,-30964
  410810:	93c20034 	lbu	v0,52(s8)
  410814:	00602821 	move	a1,v1
  410818:	00403021 	move	a2,v0
[31m  41081c:	8f82819c 	lw	v0,fprintf[0m
  410820:	0040c821 	move	t9,v0
  410824:	0320f809 	jalr	t9
--

00412f74 <uvc_set_osd_sram>:
  412f74:	3c1c0002 	lui	gp,0x2
  412f78:	279ce32c 	addiu	gp,gp,-7380
  412f7c:	0399e021 	addu	gp,gp,t9
  412f80:	27bdffd8 	addiu	sp,sp,-40
  412f84:	afbf0024 	sw	ra,36(sp)
  412f88:	afbe0020 	sw	s8,32(sp)
  412f8c:	03a0f021 	move	s8,sp
  412f90:	afbc0018 	sw	gp,24(sp)
  412f94:	afc40028 	sw	a0,40(s8)
  412f98:	afc5002c 	sw	a1,44(s8)
  412f9c:	00c01021 	move	v0,a2
  412fa0:	a7c20030 	sh	v0,48(s8)
  412fa4:	97c20030 	lhu	v0,48(s8)
  412fa8:	30420003 	andi	v0,v0,0x3
  412fac:	10400010 	beqz	v0,412ff0 <uvc_set_osd_sram+0x7c>
  412fb0:	00000000 	nop
  412fb4:	8f8280cc 	lw	v0,-32564(gp)
  412fb8:	8c440000 	lw	a0,0(v0)
  412fbc:	8f828024 	lw	v0,-32732(gp)
  412fc0:	24438728 	addiu	v1,v0,-30936
  412fc4:	97c20030 	lhu	v0,48(s8)
  412fc8:	00602821 	move	a1,v1
  412fcc:	00403021 	move	a2,v0
[31m  412fd0:	8f82819c 	lw	v0,fprintf[0m
  412fd4:	0040c821 	move	t9,v0
  412fd8:	0320f809 	jalr	t9
--
  413290:	afbf0024 	sw	ra,36(sp)
  413294:	afbe0020 	sw	s8,32(sp)
  413298:	03a0f021 	move	s8,sp
  41329c:	afbc0018 	sw	gp,24(sp)
  4132a0:	afc40028 	sw	a0,40(s8)
  4132a4:	afc5002c 	sw	a1,44(s8)
  4132a8:	afc60030 	sw	a2,48(s8)
  4132ac:	00e01021 	move	v0,a3
  4132b0:	a7c20034 	sh	v0,52(s8)
  4132b4:	8fc2002c 	lw	v0,44(s8)
  4132b8:	30420007 	andi	v0,v0,0x7
  4132bc:	14400005 	bnez	v0,4132d4 <uvc_ddr_data_read+0x54>
  4132c0:	00000000 	nop
  4132c4:	97c20034 	lhu	v0,52(s8)
  4132c8:	30420007 	andi	v0,v0,0x7
  4132cc:	10400011 	beqz	v0,413314 <uvc_ddr_data_read+0x94>
  4132d0:	00000000 	nop
  4132d4:	8f8280cc 	lw	v0,-32564(gp)
  4132d8:	8c440000 	lw	a0,0(v0)
  4132dc:	8f828024 	lw	v0,-32732(gp)
  4132e0:	24438740 	addiu	v1,v0,-30912
  4132e4:	97c20034 	lhu	v0,52(s8)
  4132e8:	00602821 	move	a1,v1
  4132ec:	8fc6002c 	lw	a2,44(s8)
  4132f0:	00403821 	move	a3,v0
[31m  4132f4:	8f82819c 	lw	v0,fprintf[0m
  4132f8:	0040c821 	move	t9,v0
  4132fc:	0320f809 	jalr	t9
--
  413380:	afbf0024 	sw	ra,36(sp)
  413384:	afbe0020 	sw	s8,32(sp)
  413388:	03a0f021 	move	s8,sp
  41338c:	afbc0018 	sw	gp,24(sp)
  413390:	afc40028 	sw	a0,40(s8)
  413394:	afc5002c 	sw	a1,44(s8)
  413398:	afc60030 	sw	a2,48(s8)
  41339c:	00e01021 	move	v0,a3
  4133a0:	a7c20034 	sh	v0,52(s8)
  4133a4:	8fc2002c 	lw	v0,44(s8)
  4133a8:	30420007 	andi	v0,v0,0x7
  4133ac:	14400005 	bnez	v0,4133c4 <uvc_ddr_data_write+0x54>
  4133b0:	00000000 	nop
  4133b4:	97c20034 	lhu	v0,52(s8)
  4133b8:	30420007 	andi	v0,v0,0x7
  4133bc:	10400011 	beqz	v0,413404 <uvc_ddr_data_write+0x94>
  4133c0:	00000000 	nop
  4133c4:	8f8280cc 	lw	v0,-32564(gp)
  4133c8:	8c440000 	lw	a0,0(v0)
  4133cc:	8f828024 	lw	v0,-32732(gp)
  4133d0:	24438740 	addiu	v1,v0,-30912
  4133d4:	97c20034 	lhu	v0,52(s8)
  4133d8:	00602821 	move	a1,v1
  4133dc:	8fc6002c 	lw	a2,44(s8)
  4133e0:	00403821 	move	a3,v0
[31m  4133e4:	8f82819c 	lw	v0,fprintf[0m
  4133e8:	0040c821 	move	t9,v0
  4133ec:	0320f809 	jalr	t9
--
  414ca0:	00000000 	nop

00414ca4 <uvc_set_vscmd_osd_char_len>:
  414ca4:	3c1c0002 	lui	gp,0x2
  414ca8:	279cc5fc 	addiu	gp,gp,-14852
  414cac:	0399e021 	addu	gp,gp,t9
  414cb0:	27bdffd8 	addiu	sp,sp,-40
  414cb4:	afbf0024 	sw	ra,36(sp)
  414cb8:	afbe0020 	sw	s8,32(sp)
  414cbc:	03a0f021 	move	s8,sp
  414cc0:	afbc0018 	sw	gp,24(sp)
  414cc4:	afc40028 	sw	a0,40(s8)
  414cc8:	00a01021 	move	v0,a1
  414ccc:	a3c2002c 	sb	v0,44(s8)
  414cd0:	93c2002c 	lbu	v0,44(s8)
  414cd4:	2c420041 	sltiu	v0,v0,65
  414cd8:	14400010 	bnez	v0,414d1c <uvc_set_vscmd_osd_char_len+0x78>
  414cdc:	00000000 	nop
  414ce0:	8f8280cc 	lw	v0,-32564(gp)
  414ce4:	8c440000 	lw	a0,0(v0)
  414ce8:	8f828024 	lw	v0,-32732(gp)
  414cec:	24438764 	addiu	v1,v0,-30876
  414cf0:	93c2002c 	lbu	v0,44(s8)
  414cf4:	00602821 	move	a1,v1
  414cf8:	00403021 	move	a2,v0
[31m  414cfc:	8f82819c 	lw	v0,fprintf[0m
  414d00:	0040c821 	move	t9,v0
  414d04:	0320f809 	jalr	t9
--
  4151d4:	03e00008 	jr	ra
  4151d8:	00000000 	nop

004151dc <uvc_set_vscmd_jpeg_qtable_scale>:
  4151dc:	3c1c0002 	lui	gp,0x2
  4151e0:	279cc0c4 	addiu	gp,gp,-16188
  4151e4:	0399e021 	addu	gp,gp,t9
  4151e8:	27bdffd8 	addiu	sp,sp,-40
  4151ec:	afbf0024 	sw	ra,36(sp)
  4151f0:	afbe0020 	sw	s8,32(sp)
  4151f4:	03a0f021 	move	s8,sp
  4151f8:	afbc0018 	sw	gp,24(sp)
  4151fc:	afc40028 	sw	a0,40(s8)
  415200:	00a01021 	move	v0,a1
  415204:	a3c2002c 	sb	v0,44(s8)
  415208:	93c2002c 	lbu	v0,44(s8)
  41520c:	14400010 	bnez	v0,415250 <uvc_set_vscmd_jpeg_qtable_scale+0x74>
  415210:	00000000 	nop
  415214:	8f8280cc 	lw	v0,-32564(gp)
  415218:	8c440000 	lw	a0,0(v0)
  41521c:	8f828024 	lw	v0,-32732(gp)
  415220:	2443879c 	addiu	v1,v0,-30820
  415224:	93c2002c 	lbu	v0,44(s8)
  415228:	00602821 	move	a1,v1
  41522c:	00403021 	move	a2,v0
[31m  415230:	8f82819c 	lw	v0,fprintf[0m
  415234:	0040c821 	move	t9,v0
  415238:	0320f809 	jalr	t9
--
  41565c:	2402ffff 	li	v0,-1
  415660:	a7c20018 	sh	v0,24(s8)
  415664:	27c20028 	addiu	v0,s8,40
  415668:	8fc40040 	lw	a0,64(s8)
  41566c:	3405fea0 	li	a1,0xfea0
  415670:	24060001 	li	a2,1
  415674:	00403821 	move	a3,v0
  415678:	8f8281cc 	lw	v0,-32308(gp)
  41567c:	0040c821 	move	t9,v0
  415680:	0320f809 	jalr	t9
  415684:	00000000 	nop
  415688:	8fdc0010 	lw	gp,16(s8)
  41568c:	afc20024 	sw	v0,36(s8)
  415690:	8fc20024 	lw	v0,36(s8)
  415694:	04410012 	bgez	v0,4156e0 <uvc_spi_sf_disable_wp+0xc4>
  415698:	00000000 	nop
  41569c:	8f82824c 	lw	v0,-32180(gp)
  4156a0:	8c430000 	lw	v1,0(v0)
  4156a4:	8f828024 	lw	v0,-32732(gp)
  4156a8:	244287c4 	addiu	v0,v0,-30780
  4156ac:	00602021 	move	a0,v1
  4156b0:	00402821 	move	a1,v0
  4156b4:	8f828024 	lw	v0,-32732(gp)
  4156b8:	244687f8 	addiu	a2,v0,-30728
  4156bc:	24070621 	li	a3,1569
[31m  4156c0:	8f82819c 	lw	v0,fprintf[0m
  4156c4:	0040c821 	move	t9,v0
  4156c8:	0320f809 	jalr	t9
--
  4156d8:	1000018e 	b	415d14 <uvc_spi_sf_disable_wp+0x6f8>
  4156dc:	00000000 	nop
  4156e0:	27c20029 	addiu	v0,s8,41
  4156e4:	8fc40040 	lw	a0,64(s8)
  4156e8:	3405fea6 	li	a1,0xfea6
  4156ec:	24060001 	li	a2,1
  4156f0:	00403821 	move	a3,v0
  4156f4:	8f8281cc 	lw	v0,-32308(gp)
  4156f8:	0040c821 	move	t9,v0
  4156fc:	0320f809 	jalr	t9
  415700:	00000000 	nop
  415704:	8fdc0010 	lw	gp,16(s8)
  415708:	afc20024 	sw	v0,36(s8)
  41570c:	8fc20024 	lw	v0,36(s8)
  415710:	04410012 	bgez	v0,41575c <uvc_spi_sf_disable_wp+0x140>
  415714:	00000000 	nop
  415718:	8f82824c 	lw	v0,-32180(gp)
  41571c:	8c430000 	lw	v1,0(v0)
  415720:	8f828024 	lw	v0,-32732(gp)
  415724:	244287c4 	addiu	v0,v0,-30780
  415728:	00602021 	move	a0,v1
  41572c:	00402821 	move	a1,v0
  415730:	8f828024 	lw	v0,-32732(gp)
  415734:	244687f8 	addiu	a2,v0,-30728
  415738:	24070627 	li	a3,1575
[31m  41573c:	8f82819c 	lw	v0,fprintf[0m
  415740:	0040c821 	move	t9,v0
  415744:	0320f809 	jalr	t9
--
  415774:	304200ff 	andi	v0,v0,0xff
  415778:	a3c20029 	sb	v0,41(s8)
  41577c:	27c20028 	addiu	v0,s8,40
  415780:	8fc40040 	lw	a0,64(s8)
  415784:	3405fea0 	li	a1,0xfea0
  415788:	24060001 	li	a2,1
  41578c:	00403821 	move	a3,v0
  415790:	8f828040 	lw	v0,-32704(gp)
  415794:	0040c821 	move	t9,v0
  415798:	0320f809 	jalr	t9
  41579c:	00000000 	nop
  4157a0:	8fdc0010 	lw	gp,16(s8)
  4157a4:	afc20024 	sw	v0,36(s8)
  4157a8:	8fc20024 	lw	v0,36(s8)
  4157ac:	04410012 	bgez	v0,4157f8 <uvc_spi_sf_disable_wp+0x1dc>
  4157b0:	00000000 	nop
  4157b4:	8f82824c 	lw	v0,-32180(gp)
  4157b8:	8c430000 	lw	v1,0(v0)
  4157bc:	8f828024 	lw	v0,-32732(gp)
  4157c0:	244287c4 	addiu	v0,v0,-30780
  4157c4:	00602021 	move	a0,v1
  4157c8:	00402821 	move	a1,v0
  4157cc:	8f828024 	lw	v0,-32732(gp)
  4157d0:	244687f8 	addiu	a2,v0,-30728
  4157d4:	2407062f 	li	a3,1583
[31m  4157d8:	8f82819c 	lw	v0,fprintf[0m
  4157dc:	0040c821 	move	t9,v0
  4157e0:	0320f809 	jalr	t9
--
  4157f0:	10000148 	b	415d14 <uvc_spi_sf_disable_wp+0x6f8>
  4157f4:	00000000 	nop
  4157f8:	27c20029 	addiu	v0,s8,41
  4157fc:	8fc40040 	lw	a0,64(s8)
  415800:	3405fea6 	li	a1,0xfea6
  415804:	24060001 	li	a2,1
  415808:	00403821 	move	a3,v0
  41580c:	8f828040 	lw	v0,-32704(gp)
  415810:	0040c821 	move	t9,v0
  415814:	0320f809 	jalr	t9
  415818:	00000000 	nop
  41581c:	8fdc0010 	lw	gp,16(s8)
  415820:	afc20024 	sw	v0,36(s8)
  415824:	8fc20024 	lw	v0,36(s8)
  415828:	04410012 	bgez	v0,415874 <uvc_spi_sf_disable_wp+0x258>
  41582c:	00000000 	nop
  415830:	8f82824c 	lw	v0,-32180(gp)
  415834:	8c430000 	lw	v1,0(v0)
  415838:	8f828024 	lw	v0,-32732(gp)
  41583c:	244287c4 	addiu	v0,v0,-30780
  415840:	00602021 	move	a0,v1
  415844:	00402821 	move	a1,v0
  415848:	8f828024 	lw	v0,-32732(gp)
  41584c:	244687f8 	addiu	a2,v0,-30728
  415850:	24070635 	li	a3,1589
[31m  415854:	8f82819c 	lw	v0,fprintf[0m
  415858:	0040c821 	move	t9,v0
  41585c:	0320f809 	jalr	t9
--
  41586c:	10000129 	b	415d14 <uvc_spi_sf_disable_wp+0x6f8>
  415870:	00000000 	nop
  415874:	27c20030 	addiu	v0,s8,48
  415878:	8fc40040 	lw	a0,64(s8)
  41587c:	3405fe21 	li	a1,0xfe21
  415880:	24060002 	li	a2,2
  415884:	00403821 	move	a3,v0
  415888:	8f8281cc 	lw	v0,-32308(gp)
  41588c:	0040c821 	move	t9,v0
  415890:	0320f809 	jalr	t9
  415894:	00000000 	nop
  415898:	8fdc0010 	lw	gp,16(s8)
  41589c:	afc20024 	sw	v0,36(s8)
  4158a0:	8fc20024 	lw	v0,36(s8)
  4158a4:	04410012 	bgez	v0,4158f0 <uvc_spi_sf_disable_wp+0x2d4>
  4158a8:	00000000 	nop
  4158ac:	8f82824c 	lw	v0,-32180(gp)
  4158b0:	8c430000 	lw	v1,0(v0)
  4158b4:	8f828024 	lw	v0,-32732(gp)
  4158b8:	244287c4 	addiu	v0,v0,-30780
  4158bc:	00602021 	move	a0,v1
  4158c0:	00402821 	move	a1,v0
  4158c4:	8f828024 	lw	v0,-32732(gp)
  4158c8:	244687f8 	addiu	a2,v0,-30728
  4158cc:	2407063b 	li	a3,1595
[31m  4158d0:	8f82819c 	lw	v0,fprintf[0m
  4158d4:	0040c821 	move	t9,v0
  4158d8:	0320f809 	jalr	t9
--
  415968:	10400085 	beqz	v0,415b80 <uvc_spi_sf_disable_wp+0x564>
  41596c:	00000000 	nop
  415970:	27c2002b 	addiu	v0,s8,43
  415974:	8fc40040 	lw	a0,64(s8)
  415978:	3405fea1 	li	a1,0xfea1
  41597c:	24060001 	li	a2,1
  415980:	00403821 	move	a3,v0
  415984:	8f8281cc 	lw	v0,-32308(gp)
  415988:	0040c821 	move	t9,v0
  41598c:	0320f809 	jalr	t9
  415990:	00000000 	nop
  415994:	8fdc0010 	lw	gp,16(s8)
  415998:	afc20024 	sw	v0,36(s8)
  41599c:	8fc20024 	lw	v0,36(s8)
  4159a0:	04410012 	bgez	v0,4159ec <uvc_spi_sf_disable_wp+0x3d0>
  4159a4:	00000000 	nop
  4159a8:	8f82824c 	lw	v0,-32180(gp)
  4159ac:	8c430000 	lw	v1,0(v0)
  4159b0:	8f828024 	lw	v0,-32732(gp)
  4159b4:	244287c4 	addiu	v0,v0,-30780
  4159b8:	00602021 	move	a0,v1
  4159bc:	00402821 	move	a1,v0
  4159c0:	8f828024 	lw	v0,-32732(gp)
  4159c4:	244687f8 	addiu	a2,v0,-30728
  4159c8:	24070648 	li	a3,1608
[31m  4159cc:	8f82819c 	lw	v0,fprintf[0m
  4159d0:	0040c821 	move	t9,v0
  4159d4:	0320f809 	jalr	t9
--
  4159e4:	100000cb 	b	415d14 <uvc_spi_sf_disable_wp+0x6f8>
  4159e8:	00000000 	nop
  4159ec:	27c2002c 	addiu	v0,s8,44
  4159f0:	8fc40040 	lw	a0,64(s8)
  4159f4:	3405fea7 	li	a1,0xfea7
  4159f8:	24060001 	li	a2,1
  4159fc:	00403821 	move	a3,v0
  415a00:	8f8281cc 	lw	v0,-32308(gp)
  415a04:	0040c821 	move	t9,v0
  415a08:	0320f809 	jalr	t9
  415a0c:	00000000 	nop
  415a10:	8fdc0010 	lw	gp,16(s8)
  415a14:	afc20024 	sw	v0,36(s8)
  415a18:	8fc20024 	lw	v0,36(s8)
  415a1c:	04410012 	bgez	v0,415a68 <uvc_spi_sf_disable_wp+0x44c>
  415a20:	00000000 	nop
  415a24:	8f82824c 	lw	v0,-32180(gp)
  415a28:	8c430000 	lw	v1,0(v0)
  415a2c:	8f828024 	lw	v0,-32732(gp)
  415a30:	244287c4 	addiu	v0,v0,-30780
  415a34:	00602021 	move	a0,v1
  415a38:	00402821 	move	a1,v0
  415a3c:	8f828024 	lw	v0,-32732(gp)
  415a40:	244687f8 	addiu	a2,v0,-30728
  415a44:	2407064d 	li	a3,1613
[31m  415a48:	8f82819c 	lw	v0,fprintf[0m
  415a4c:	0040c821 	move	t9,v0
  415a50:	0320f809 	jalr	t9
--
  415a80:	304200ff 	andi	v0,v0,0xff
  415a84:	a3c2002c 	sb	v0,44(s8)
  415a88:	27c2002b 	addiu	v0,s8,43
  415a8c:	8fc40040 	lw	a0,64(s8)
  415a90:	3405fea1 	li	a1,0xfea1
  415a94:	24060001 	li	a2,1
  415a98:	00403821 	move	a3,v0
  415a9c:	8f828040 	lw	v0,-32704(gp)
  415aa0:	0040c821 	move	t9,v0
  415aa4:	0320f809 	jalr	t9
  415aa8:	00000000 	nop
  415aac:	8fdc0010 	lw	gp,16(s8)
  415ab0:	afc20024 	sw	v0,36(s8)
  415ab4:	8fc20024 	lw	v0,36(s8)
  415ab8:	04410012 	bgez	v0,415b04 <uvc_spi_sf_disable_wp+0x4e8>
  415abc:	00000000 	nop
  415ac0:	8f82824c 	lw	v0,-32180(gp)
  415ac4:	8c430000 	lw	v1,0(v0)
  415ac8:	8f828024 	lw	v0,-32732(gp)
  415acc:	244287c4 	addiu	v0,v0,-30780
  415ad0:	00602021 	move	a0,v1
  415ad4:	00402821 	move	a1,v0
  415ad8:	8f828024 	lw	v0,-32732(gp)
  415adc:	244687f8 	addiu	a2,v0,-30728
  415ae0:	24070654 	li	a3,1620
[31m  415ae4:	8f82819c 	lw	v0,fprintf[0m
  415ae8:	0040c821 	move	t9,v0
  415aec:	0320f809 	jalr	t9
--
  415afc:	10000085 	b	415d14 <uvc_spi_sf_disable_wp+0x6f8>
  415b00:	00000000 	nop
  415b04:	27c2002c 	addiu	v0,s8,44
  415b08:	8fc40040 	lw	a0,64(s8)
  415b0c:	3405fea7 	li	a1,0xfea7
  415b10:	24060001 	li	a2,1
  415b14:	00403821 	move	a3,v0
  415b18:	8f828040 	lw	v0,-32704(gp)
  415b1c:	0040c821 	move	t9,v0
  415b20:	0320f809 	jalr	t9
  415b24:	00000000 	nop
  415b28:	8fdc0010 	lw	gp,16(s8)
  415b2c:	afc20024 	sw	v0,36(s8)
  415b30:	8fc20024 	lw	v0,36(s8)
  415b34:	04410012 	bgez	v0,415b80 <uvc_spi_sf_disable_wp+0x564>
  415b38:	00000000 	nop
  415b3c:	8f82824c 	lw	v0,-32180(gp)
  415b40:	8c430000 	lw	v1,0(v0)
  415b44:	8f828024 	lw	v0,-32732(gp)
  415b48:	244287c4 	addiu	v0,v0,-30780
  415b4c:	00602021 	move	a0,v1
  415b50:	00402821 	move	a1,v0
  415b54:	8f828024 	lw	v0,-32732(gp)
  415b58:	244687f8 	addiu	a2,v0,-30728
  415b5c:	24070659 	li	a3,1625
[31m  415b60:	8f82819c 	lw	v0,fprintf[0m
  415b64:	0040c821 	move	t9,v0
  415b68:	0320f809 	jalr	t9
  415b6c:	00000000 	nop
  415b70:	8fdc0010 	lw	gp,16(s8)
  415b74:	8fc20024 	lw	v0,36(s8)
  415b78:	10000066 	b	415d14 <uvc_spi_sf_disable_wp+0x6f8>
  415b7c:	00000000 	nop
  415b80:	8fc40040 	lw	a0,64(s8)
  415b84:	00002821 	move	a1,zero
  415b88:	8f82816c 	lw	v0,-32404(gp)
  415b8c:	0040c821 	move	t9,v0
  415b90:	0320f809 	jalr	t9
  415b94:	00000000 	nop
  415b98:	8fdc0010 	lw	gp,16(s8)
  415b9c:	afc20024 	sw	v0,36(s8)
  415ba0:	8fc20024 	lw	v0,36(s8)
  415ba4:	04410012 	bgez	v0,415bf0 <uvc_spi_sf_disable_wp+0x5d4>
  415ba8:	00000000 	nop
  415bac:	8f82824c 	lw	v0,-32180(gp)
  415bb0:	8c430000 	lw	v1,0(v0)
  415bb4:	8f828024 	lw	v0,-32732(gp)
  415bb8:	244287c4 	addiu	v0,v0,-30780
  415bbc:	00602021 	move	a0,v1
  415bc0:	00402821 	move	a1,v0
  415bc4:	8f828024 	lw	v0,-32732(gp)
  415bc8:	244687f8 	addiu	a2,v0,-30728
  415bcc:	24070660 	li	a3,1632
[31m  415bd0:	8f82819c 	lw	v0,fprintf[0m
  415bd4:	0040c821 	move	t9,v0
  415bd8:	0320f809 	jalr	t9
--
  415bec:	00000000 	nop
  415bf0:	afc00020 	sw	zero,32(s8)
  415bf4:	1000002b 	b	415ca4 <uvc_spi_sf_disable_wp+0x688>
  415bf8:	00000000 	nop
  415bfc:	27c2002a 	addiu	v0,s8,42
  415c00:	8fc40040 	lw	a0,64(s8)
  415c04:	00402821 	move	a1,v0
  415c08:	8f828148 	lw	v0,-32440(gp)
  415c0c:	0040c821 	move	t9,v0
  415c10:	0320f809 	jalr	t9
  415c14:	00000000 	nop
  415c18:	8fdc0010 	lw	gp,16(s8)
  415c1c:	afc20024 	sw	v0,36(s8)
  415c20:	8fc20024 	lw	v0,36(s8)
  415c24:	04410012 	bgez	v0,415c70 <uvc_spi_sf_disable_wp+0x654>
  415c28:	00000000 	nop
  415c2c:	8f82824c 	lw	v0,-32180(gp)
  415c30:	8c430000 	lw	v1,0(v0)
  415c34:	8f828024 	lw	v0,-32732(gp)
  415c38:	244287c4 	addiu	v0,v0,-30780
  415c3c:	00602021 	move	a0,v1
  415c40:	00402821 	move	a1,v0
  415c44:	8f828024 	lw	v0,-32732(gp)
  415c48:	244687f8 	addiu	a2,v0,-30728
  415c4c:	24070668 	li	a3,1640
[31m  415c50:	8f82819c 	lw	v0,fprintf[0m
  415c54:	0040c821 	move	t9,v0
  415c58:	0320f809 	jalr	t9
--
  415d68:	2402ffff 	li	v0,-1
  415d6c:	a7c20018 	sh	v0,24(s8)
  415d70:	27c20028 	addiu	v0,s8,40
  415d74:	8fc40040 	lw	a0,64(s8)
  415d78:	3405fea0 	li	a1,0xfea0
  415d7c:	24060001 	li	a2,1
  415d80:	00403821 	move	a3,v0
  415d84:	8f8281cc 	lw	v0,-32308(gp)
  415d88:	0040c821 	move	t9,v0
  415d8c:	0320f809 	jalr	t9
  415d90:	00000000 	nop
  415d94:	8fdc0010 	lw	gp,16(s8)
  415d98:	afc20024 	sw	v0,36(s8)
  415d9c:	8fc20024 	lw	v0,36(s8)
  415da0:	04410012 	bgez	v0,415dec <uvc_spi_sf_enable_wp+0xc0>
  415da4:	00000000 	nop
  415da8:	8f82824c 	lw	v0,-32180(gp)
  415dac:	8c430000 	lw	v1,0(v0)
  415db0:	8f828024 	lw	v0,-32732(gp)
  415db4:	244287c4 	addiu	v0,v0,-30780
  415db8:	00602021 	move	a0,v1
  415dbc:	00402821 	move	a1,v0
  415dc0:	8f828024 	lw	v0,-32732(gp)
  415dc4:	244687e0 	addiu	a2,v0,-30752
  415dc8:	24070684 	li	a3,1668
[31m  415dcc:	8f82819c 	lw	v0,fprintf[0m
  415dd0:	0040c821 	move	t9,v0
  415dd4:	0320f809 	jalr	t9
--
  415de4:	10000178 	b	4163c8 <uvc_spi_sf_enable_wp+0x69c>
  415de8:	00000000 	nop
  415dec:	27c20029 	addiu	v0,s8,41
  415df0:	8fc40040 	lw	a0,64(s8)
  415df4:	3405fea6 	li	a1,0xfea6
  415df8:	24060001 	li	a2,1
  415dfc:	00403821 	move	a3,v0
  415e00:	8f8281cc 	lw	v0,-32308(gp)
  415e04:	0040c821 	move	t9,v0
  415e08:	0320f809 	jalr	t9
  415e0c:	00000000 	nop
  415e10:	8fdc0010 	lw	gp,16(s8)
  415e14:	afc20024 	sw	v0,36(s8)
  415e18:	8fc20024 	lw	v0,36(s8)
  415e1c:	04410012 	bgez	v0,415e68 <uvc_spi_sf_enable_wp+0x13c>
  415e20:	00000000 	nop
  415e24:	8f82824c 	lw	v0,-32180(gp)
  415e28:	8c430000 	lw	v1,0(v0)
  415e2c:	8f828024 	lw	v0,-32732(gp)
  415e30:	244287c4 	addiu	v0,v0,-30780
  415e34:	00602021 	move	a0,v1
  415e38:	00402821 	move	a1,v0
  415e3c:	8f828024 	lw	v0,-32732(gp)
  415e40:	244687e0 	addiu	a2,v0,-30752
  415e44:	24070689 	li	a3,1673
[31m  415e48:	8f82819c 	lw	v0,fprintf[0m
  415e4c:	0040c821 	move	t9,v0
  415e50:	0320f809 	jalr	t9
--
  415e7c:	304200fe 	andi	v0,v0,0xfe
  415e80:	a3c20029 	sb	v0,41(s8)
  415e84:	27c20028 	addiu	v0,s8,40
  415e88:	8fc40040 	lw	a0,64(s8)
  415e8c:	3405fea0 	li	a1,0xfea0
  415e90:	24060001 	li	a2,1
  415e94:	00403821 	move	a3,v0
  415e98:	8f828040 	lw	v0,-32704(gp)
  415e9c:	0040c821 	move	t9,v0
  415ea0:	0320f809 	jalr	t9
  415ea4:	00000000 	nop
  415ea8:	8fdc0010 	lw	gp,16(s8)
  415eac:	afc20024 	sw	v0,36(s8)
  415eb0:	8fc20024 	lw	v0,36(s8)
  415eb4:	04410012 	bgez	v0,415f00 <uvc_spi_sf_enable_wp+0x1d4>
  415eb8:	00000000 	nop
  415ebc:	8f82824c 	lw	v0,-32180(gp)
  415ec0:	8c430000 	lw	v1,0(v0)
  415ec4:	8f828024 	lw	v0,-32732(gp)
  415ec8:	244287c4 	addiu	v0,v0,-30780
  415ecc:	00602021 	move	a0,v1
  415ed0:	00402821 	move	a1,v0
  415ed4:	8f828024 	lw	v0,-32732(gp)
  415ed8:	244687e0 	addiu	a2,v0,-30752
  415edc:	24070692 	li	a3,1682
[31m  415ee0:	8f82819c 	lw	v0,fprintf[0m
  415ee4:	0040c821 	move	t9,v0
  415ee8:	0320f809 	jalr	t9
--
  415ef8:	10000133 	b	4163c8 <uvc_spi_sf_enable_wp+0x69c>
  415efc:	00000000 	nop
  415f00:	27c20029 	addiu	v0,s8,41
  415f04:	8fc40040 	lw	a0,64(s8)
  415f08:	3405fea6 	li	a1,0xfea6
  415f0c:	24060001 	li	a2,1
  415f10:	00403821 	move	a3,v0
  415f14:	8f828040 	lw	v0,-32704(gp)
  415f18:	0040c821 	move	t9,v0
  415f1c:	0320f809 	jalr	t9
  415f20:	00000000 	nop
  415f24:	8fdc0010 	lw	gp,16(s8)
  415f28:	afc20024 	sw	v0,36(s8)
  415f2c:	8fc20024 	lw	v0,36(s8)
  415f30:	04410012 	bgez	v0,415f7c <uvc_spi_sf_enable_wp+0x250>
  415f34:	00000000 	nop
  415f38:	8f82824c 	lw	v0,-32180(gp)
  415f3c:	8c430000 	lw	v1,0(v0)
  415f40:	8f828024 	lw	v0,-32732(gp)
  415f44:	244287c4 	addiu	v0,v0,-30780
  415f48:	00602021 	move	a0,v1
  415f4c:	00402821 	move	a1,v0
  415f50:	8f828024 	lw	v0,-32732(gp)
  415f54:	244687e0 	addiu	a2,v0,-30752
  415f58:	24070697 	li	a3,1687
[31m  415f5c:	8f82819c 	lw	v0,fprintf[0m
  415f60:	0040c821 	move	t9,v0
  415f64:	0320f809 	jalr	t9
--
  416020:	10400084 	beqz	v0,416234 <uvc_spi_sf_enable_wp+0x508>
  416024:	00000000 	nop
  416028:	27c2002b 	addiu	v0,s8,43
  41602c:	8fc40040 	lw	a0,64(s8)
  416030:	3405fea1 	li	a1,0xfea1
  416034:	24060001 	li	a2,1
  416038:	00403821 	move	a3,v0
  41603c:	8f8281cc 	lw	v0,-32308(gp)
  416040:	0040c821 	move	t9,v0
  416044:	0320f809 	jalr	t9
  416048:	00000000 	nop
  41604c:	8fdc0010 	lw	gp,16(s8)
  416050:	afc20024 	sw	v0,36(s8)
  416054:	8fc20024 	lw	v0,36(s8)
  416058:	04410012 	bgez	v0,4160a4 <uvc_spi_sf_enable_wp+0x378>
  41605c:	00000000 	nop
  416060:	8f82824c 	lw	v0,-32180(gp)
  416064:	8c430000 	lw	v1,0(v0)
  416068:	8f828024 	lw	v0,-32732(gp)
  41606c:	244287c4 	addiu	v0,v0,-30780
  416070:	00602021 	move	a0,v1
  416074:	00402821 	move	a1,v0
  416078:	8f828024 	lw	v0,-32732(gp)
  41607c:	244687e0 	addiu	a2,v0,-30752
  416080:	240706a6 	li	a3,1702
[31m  416084:	8f82819c 	lw	v0,fprintf[0m
  416088:	0040c821 	move	t9,v0
  41608c:	0320f809 	jalr	t9
--
  41609c:	100000ca 	b	4163c8 <uvc_spi_sf_enable_wp+0x69c>
  4160a0:	00000000 	nop
  4160a4:	27c2002c 	addiu	v0,s8,44
  4160a8:	8fc40040 	lw	a0,64(s8)
  4160ac:	3405fea7 	li	a1,0xfea7
  4160b0:	24060001 	li	a2,1
  4160b4:	00403821 	move	a3,v0
  4160b8:	8f8281cc 	lw	v0,-32308(gp)
  4160bc:	0040c821 	move	t9,v0
  4160c0:	0320f809 	jalr	t9
  4160c4:	00000000 	nop
  4160c8:	8fdc0010 	lw	gp,16(s8)
  4160cc:	afc20024 	sw	v0,36(s8)
  4160d0:	8fc20024 	lw	v0,36(s8)
  4160d4:	04410012 	bgez	v0,416120 <uvc_spi_sf_enable_wp+0x3f4>
  4160d8:	00000000 	nop
  4160dc:	8f82824c 	lw	v0,-32180(gp)
  4160e0:	8c430000 	lw	v1,0(v0)
  4160e4:	8f828024 	lw	v0,-32732(gp)
  4160e8:	244287c4 	addiu	v0,v0,-30780
  4160ec:	00602021 	move	a0,v1
  4160f0:	00402821 	move	a1,v0
  4160f4:	8f828024 	lw	v0,-32732(gp)
  4160f8:	244687e0 	addiu	a2,v0,-30752
  4160fc:	240706ab 	li	a3,1707
[31m  416100:	8f82819c 	lw	v0,fprintf[0m
  416104:	0040c821 	move	t9,v0
  416108:	0320f809 	jalr	t9
--
  416134:	304200fb 	andi	v0,v0,0xfb
  416138:	a3c2002c 	sb	v0,44(s8)
  41613c:	27c2002b 	addiu	v0,s8,43
  416140:	8fc40040 	lw	a0,64(s8)
  416144:	3405fea1 	li	a1,0xfea1
  416148:	24060001 	li	a2,1
  41614c:	00403821 	move	a3,v0
  416150:	8f828040 	lw	v0,-32704(gp)
  416154:	0040c821 	move	t9,v0
  416158:	0320f809 	jalr	t9
  41615c:	00000000 	nop
  416160:	8fdc0010 	lw	gp,16(s8)
  416164:	afc20024 	sw	v0,36(s8)
  416168:	8fc20024 	lw	v0,36(s8)
  41616c:	04410012 	bgez	v0,4161b8 <uvc_spi_sf_enable_wp+0x48c>
  416170:	00000000 	nop
  416174:	8f82824c 	lw	v0,-32180(gp)
  416178:	8c430000 	lw	v1,0(v0)
  41617c:	8f828024 	lw	v0,-32732(gp)
  416180:	244287c4 	addiu	v0,v0,-30780
  416184:	00602021 	move	a0,v1
  416188:	00402821 	move	a1,v0
  41618c:	8f828024 	lw	v0,-32732(gp)
  416190:	244687e0 	addiu	a2,v0,-30752
  416194:	240706b2 	li	a3,1714
[31m  416198:	8f82819c 	lw	v0,fprintf[0m
  41619c:	0040c821 	move	t9,v0
  4161a0:	0320f809 	jalr	t9
--
  4161b0:	10000085 	b	4163c8 <uvc_spi_sf_enable_wp+0x69c>
  4161b4:	00000000 	nop
  4161b8:	27c2002c 	addiu	v0,s8,44
  4161bc:	8fc40040 	lw	a0,64(s8)
  4161c0:	3405fea7 	li	a1,0xfea7
  4161c4:	24060001 	li	a2,1
  4161c8:	00403821 	move	a3,v0
  4161cc:	8f828040 	lw	v0,-32704(gp)
  4161d0:	0040c821 	move	t9,v0
  4161d4:	0320f809 	jalr	t9
  4161d8:	00000000 	nop
  4161dc:	8fdc0010 	lw	gp,16(s8)
  4161e0:	afc20024 	sw	v0,36(s8)
  4161e4:	8fc20024 	lw	v0,36(s8)
  4161e8:	04410012 	bgez	v0,416234 <uvc_spi_sf_enable_wp+0x508>
  4161ec:	00000000 	nop
  4161f0:	8f82824c 	lw	v0,-32180(gp)
  4161f4:	8c430000 	lw	v1,0(v0)
  4161f8:	8f828024 	lw	v0,-32732(gp)
  4161fc:	244287c4 	addiu	v0,v0,-30780
  416200:	00602021 	move	a0,v1
  416204:	00402821 	move	a1,v0
  416208:	8f828024 	lw	v0,-32732(gp)
  41620c:	244687e0 	addiu	a2,v0,-30752
  416210:	240706b7 	li	a3,1719
[31m  416214:	8f82819c 	lw	v0,fprintf[0m
  416218:	0040c821 	move	t9,v0
  41621c:	0320f809 	jalr	t9
  416220:	00000000 	nop
  416224:	8fdc0010 	lw	gp,16(s8)
  416228:	8fc20024 	lw	v0,36(s8)
  41622c:	10000066 	b	4163c8 <uvc_spi_sf_enable_wp+0x69c>
  416230:	00000000 	nop
  416234:	8fc40040 	lw	a0,64(s8)
  416238:	2405008c 	li	a1,140
  41623c:	8f82816c 	lw	v0,-32404(gp)
  416240:	0040c821 	move	t9,v0
  416244:	0320f809 	jalr	t9
  416248:	00000000 	nop
  41624c:	8fdc0010 	lw	gp,16(s8)
  416250:	afc20024 	sw	v0,36(s8)
  416254:	8fc20024 	lw	v0,36(s8)
  416258:	04410012 	bgez	v0,4162a4 <uvc_spi_sf_enable_wp+0x578>
  41625c:	00000000 	nop
  416260:	8f82824c 	lw	v0,-32180(gp)
  416264:	8c430000 	lw	v1,0(v0)
  416268:	8f828024 	lw	v0,-32732(gp)
  41626c:	244287c4 	addiu	v0,v0,-30780
  416270:	00602021 	move	a0,v1
  416274:	00402821 	move	a1,v0
  416278:	8f828024 	lw	v0,-32732(gp)
  41627c:	244687e0 	addiu	a2,v0,-30752
  416280:	240706bf 	li	a3,1727
[31m  416284:	8f82819c 	lw	v0,fprintf[0m
  416288:	0040c821 	move	t9,v0
  41628c:	0320f809 	jalr	t9
--
  4162a0:	00000000 	nop
  4162a4:	afc00020 	sw	zero,32(s8)
  4162a8:	1000002b 	b	416358 <uvc_spi_sf_enable_wp+0x62c>
  4162ac:	00000000 	nop
  4162b0:	27c2002a 	addiu	v0,s8,42
  4162b4:	8fc40040 	lw	a0,64(s8)
  4162b8:	00402821 	move	a1,v0
  4162bc:	8f828148 	lw	v0,-32440(gp)
  4162c0:	0040c821 	move	t9,v0
  4162c4:	0320f809 	jalr	t9
  4162c8:	00000000 	nop
  4162cc:	8fdc0010 	lw	gp,16(s8)
  4162d0:	afc20024 	sw	v0,36(s8)
  4162d4:	8fc20024 	lw	v0,36(s8)
  4162d8:	04410012 	bgez	v0,416324 <uvc_spi_sf_enable_wp+0x5f8>
  4162dc:	00000000 	nop
  4162e0:	8f82824c 	lw	v0,-32180(gp)
  4162e4:	8c430000 	lw	v1,0(v0)
  4162e8:	8f828024 	lw	v0,-32732(gp)
  4162ec:	244287c4 	addiu	v0,v0,-30780
  4162f0:	00602021 	move	a0,v1
  4162f4:	00402821 	move	a1,v0
  4162f8:	8f828024 	lw	v0,-32732(gp)
  4162fc:	244687e0 	addiu	a2,v0,-30752
  416300:	240706c6 	li	a3,1734
[31m  416304:	8f82819c 	lw	v0,fprintf[0m
  416308:	0040c821 	move	t9,v0
  41630c:	0320f809 	jalr	t9
--
  416548:	00441023 	subu	v0,v0,a0
  41654c:	000210c0 	sll	v0,v0,0x3
  416550:	00401821 	move	v1,v0
  416554:	8f828138 	lw	v0,-32456(gp)
  416558:	00621021 	addu	v0,v1,v0
  41655c:	8fc40078 	lw	a0,120(s8)
  416560:	3c03c058 	lui	v1,0xc058
  416564:	34657520 	ori	a1,v1,0x7520
  416568:	00403021 	move	a2,v0
  41656c:	8f828254 	lw	v0,-32172(gp)
  416570:	0040c821 	move	t9,v0
  416574:	0320f809 	jalr	t9
  416578:	00000000 	nop
  41657c:	8fdc0010 	lw	gp,16(s8)
  416580:	afc2001c 	sw	v0,28(s8)
  416584:	8fc2001c 	lw	v0,28(s8)
  416588:	10400010 	beqz	v0,4165cc <add_xu_ctrls+0x1ec>
  41658c:	00000000 	nop
  416590:	8f8280cc 	lw	v0,-32564(gp)
  416594:	8c430000 	lw	v1,0(v0)
  416598:	8f828024 	lw	v0,-32732(gp)
  41659c:	2442899c 	addiu	v0,v0,-30308
  4165a0:	00602021 	move	a0,v1
  4165a4:	00402821 	move	a1,v0
  4165a8:	8fc60018 	lw	a2,24(s8)
[31m  4165ac:	8f82819c 	lw	v0,fprintf[0m
  4165b0:	0040c821 	move	t9,v0
  4165b4:	0320f809 	jalr	t9

[0m
[[0;33m*[0m] Function [0;33mfprintf[0m used [0;33m109[0m times [0;33mrscam_uvc[0m

