[[0;33m*[0m] Binary protection state of [0;33macltd[0m
[REF] s12

  	RELRO          CANARY            NX           PIE       RPATH        RUNPATH      SYMBOLS      
  	[31mNo RELRO[0m       [31mNo Canary found[0m   [31mNX disabled[0m  [31mNo PIE[0m       [32mNo RPATH[0m     [32mNo RUNPATH[0m   [32mNo Symbols[0m

[0m
[[0;33m*[0m] Function [0;33mstrcpy[0m tear down of [0;33macltd[0m

  4013e0:	00000000 	nop
  4013e4:	8fc2002c 	lw	v0,44(s8)
  4013e8:	00000000 	nop
  4013ec:	00021880 	sll	v1,v0,0x2
  4013f0:	8f828068 	lw	v0,-32664(gp)
  4013f4:	00000000 	nop
  4013f8:	00628021 	addu	s0,v1,v0
  4013fc:	24040014 	li	a0,20
  401400:	8f9980a8 	lw	t9,-32600(gp)
  401404:	00000000 	nop
  401408:	0320f809 	jalr	t9
  40140c:	00000000 	nop
  401410:	8fdc0010 	lw	gp,16(s8)
  401414:	ae020000 	sw	v0,0(s0)
  401418:	8fc2002c 	lw	v0,44(s8)
  40141c:	00000000 	nop
  401420:	24420001 	addiu	v0,v0,1
  401424:	1000ffe8 	b	4013c8 <main+0x34>
  401428:	afc2002c 	sw	v0,44(s8)
  40142c:	8f848068 	lw	a0,-32664(gp)
  401430:	00000000 	nop
  401434:	8c840000 	lw	a0,0(a0)
  401438:	8f85801c 	lw	a1,-32740(gp)
  40143c:	00000000 	nop
  401440:	24a51c64 	addiu	a1,a1,7268
[31m  401444:	8f9980c8 	lw	t9,strcpy[0m
  401448:	00000000 	nop
  40144c:	0320f809 	jalr	t9
  401450:	00000000 	nop
  401454:	8fdc0010 	lw	gp,16(s8)
  401458:	00000000 	nop
  40145c:	8f848068 	lw	a0,-32664(gp)
  401460:	00000000 	nop
  401464:	8c840004 	lw	a0,4(a0)
  401468:	8f85801c 	lw	a1,-32740(gp)
  40146c:	00000000 	nop
  401470:	24a51c70 	addiu	a1,a1,7280
[31m  401474:	8f9980c8 	lw	t9,strcpy[0m
  401478:	00000000 	nop
  40147c:	0320f809 	jalr	t9
  401480:	00000000 	nop
  401484:	8fdc0010 	lw	gp,16(s8)
  401488:	00000000 	nop
  40148c:	8f848068 	lw	a0,-32664(gp)
  401490:	00000000 	nop
  401494:	8c840008 	lw	a0,8(a0)
  401498:	8f85801c 	lw	a1,-32740(gp)
  40149c:	00000000 	nop
  4014a0:	24a51c7c 	addiu	a1,a1,7292
[31m  4014a4:	8f9980c8 	lw	t9,strcpy[0m
  4014a8:	00000000 	nop
  4014ac:	0320f809 	jalr	t9
  4014b0:	00000000 	nop
  4014b4:	8fdc0010 	lw	gp,16(s8)
  4014b8:	00000000 	nop
  4014bc:	8f848068 	lw	a0,-32664(gp)
  4014c0:	00000000 	nop
  4014c4:	8c84000c 	lw	a0,12(a0)
  4014c8:	8f85801c 	lw	a1,-32740(gp)
  4014cc:	00000000 	nop
  4014d0:	24a51c8c 	addiu	a1,a1,7308
[31m  4014d4:	8f9980c8 	lw	t9,strcpy[0m
  4014d8:	00000000 	nop
  4014dc:	0320f809 	jalr	t9
  4014e0:	00000000 	nop
  4014e4:	8fdc0010 	lw	gp,16(s8)
  4014e8:	00000000 	nop
  4014ec:	8f848068 	lw	a0,-32664(gp)
  4014f0:	00000000 	nop
  4014f4:	8c840010 	lw	a0,16(a0)
  4014f8:	8f85801c 	lw	a1,-32740(gp)
  4014fc:	00000000 	nop
  401500:	24a51c98 	addiu	a1,a1,7320
[31m  401504:	8f9980c8 	lw	t9,strcpy[0m
  401508:	00000000 	nop
  40150c:	0320f809 	jalr	t9
  401510:	00000000 	nop
  401514:	8fdc0010 	lw	gp,16(s8)
  401518:	00000000 	nop
  40151c:	8f848068 	lw	a0,-32664(gp)
  401520:	00000000 	nop
  401524:	8c840014 	lw	a0,20(a0)
  401528:	8f85801c 	lw	a1,-32740(gp)
  40152c:	00000000 	nop
  401530:	24a51ca0 	addiu	a1,a1,7328
[31m  401534:	8f9980c8 	lw	t9,strcpy[0m
  401538:	00000000 	nop
  40153c:	0320f809 	jalr	t9
  401540:	00000000 	nop
  401544:	8fdc0010 	lw	gp,16(s8)
  401548:	00000000 	nop
  40154c:	8f848068 	lw	a0,-32664(gp)
  401550:	00000000 	nop
  401554:	8c840018 	lw	a0,24(a0)
  401558:	8f85801c 	lw	a1,-32740(gp)
  40155c:	00000000 	nop
  401560:	24a51cac 	addiu	a1,a1,7340
[31m  401564:	8f9980c8 	lw	t9,strcpy[0m
  401568:	00000000 	nop
  40156c:	0320f809 	jalr	t9
  401570:	00000000 	nop
  401574:	8fdc0010 	lw	gp,16(s8)
  401578:	00000000 	nop
  40157c:	8f848068 	lw	a0,-32664(gp)
  401580:	00000000 	nop
  401584:	8c84001c 	lw	a0,28(a0)
  401588:	8f85801c 	lw	a1,-32740(gp)
  40158c:	00000000 	nop
  401590:	24a51cb8 	addiu	a1,a1,7352
[31m  401594:	8f9980c8 	lw	t9,strcpy[0m
  401598:	00000000 	nop
  40159c:	0320f809 	jalr	t9
  4015a0:	00000000 	nop
  4015a4:	8fdc0010 	lw	gp,16(s8)
  4015a8:	00000000 	nop
  4015ac:	8f848068 	lw	a0,-32664(gp)
  4015b0:	00000000 	nop
  4015b4:	8c840020 	lw	a0,32(a0)
  4015b8:	8f85801c 	lw	a1,-32740(gp)
  4015bc:	00000000 	nop
  4015c0:	24a51cc4 	addiu	a1,a1,7364
[31m  4015c4:	8f9980c8 	lw	t9,strcpy[0m
  4015c8:	00000000 	nop
  4015cc:	0320f809 	jalr	t9
  4015d0:	00000000 	nop
  4015d4:	8fdc0010 	lw	gp,16(s8)
  4015d8:	00000000 	nop
  4015dc:	8f848068 	lw	a0,-32664(gp)
  4015e0:	00000000 	nop
  4015e4:	8c840024 	lw	a0,36(a0)
  4015e8:	8f85801c 	lw	a1,-32740(gp)
  4015ec:	00000000 	nop
  4015f0:	24a51cd0 	addiu	a1,a1,7376
[31m  4015f4:	8f9980c8 	lw	t9,strcpy[0m
  4015f8:	00000000 	nop
  4015fc:	0320f809 	jalr	t9
  401600:	00000000 	nop
  401604:	8fdc0010 	lw	gp,16(s8)
  401608:	00000000 	nop
  40160c:	8f848068 	lw	a0,-32664(gp)
  401610:	00000000 	nop
  401614:	8c840028 	lw	a0,40(a0)
  401618:	8f85801c 	lw	a1,-32740(gp)
  40161c:	00000000 	nop
  401620:	24a51ce4 	addiu	a1,a1,7396
[31m  401624:	8f9980c8 	lw	t9,strcpy[0m
  401628:	00000000 	nop
  40162c:	0320f809 	jalr	t9

[0m
[[0;33m*[0m] Function [0;33mstrcpy[0m used [0;33m11[0m times [0;33macltd[0m

