[[0;33m*[0m] Binary protection state of [0;33mlibipt_addrtype.so[0m
[REF] s12

  	RELRO          CANARY            NX           PIE       RPATH        RUNPATH      SYMBOLS      
  	[31mNo RELRO[0m       [31mNo Canary found[0m   [32mNX enabled[0m   [33mDSO[0m          [32mNo RPATH[0m     [32mNo RUNPATH[0m   [31mSymbols
	[31mNo RELRO[0m       [31mNo Canary found[0m   [32mNX enabled[0m   [33mDSO[0m          [32mNo RPATH[0m     [32mNo RUNPATH[0m   [32mNo Symbols[0m

[0m
[[0;33m*[0m] Function [0;33mprintf[0m tear down of [0;33mlibipt_addrtype.so[0m

 a10:	e3a04000 	mov	r4, #0
 a14:	e08f3003 	add	r3, pc, r3
 a18:	e59f2060 	ldr	r2, [pc, #96]	; a80 <__register_frame_info@plt+0x414>
 a1c:	e59f1060 	ldr	r1, [pc, #96]	; a84 <__register_frame_info@plt+0x418>
 a20:	e0835005 	add	r5, r3, r5
 a24:	e59f805c 	ldr	r8, [pc, #92]	; a88 <__register_frame_info@plt+0x41c>
 a28:	e59f705c 	ldr	r7, [pc, #92]	; a8c <__register_frame_info@plt+0x420>
 a2c:	e0832002 	add	r2, r3, r2
 a30:	e0831001 	add	r1, r3, r1
 a34:	e0838008 	add	r8, r3, r8
 a38:	e0837007 	add	r7, r3, r7
 a3c:	ea000002 	b	a4c <__register_frame_info@plt+0x3e0>
 a40:	e5b52004 	ldr	r2, [r5, #4]!
 a44:	e3520000 	cmp	r2, #0
 a48:	0a000009 	beq	a74 <__register_frame_info@plt+0x408>
 a4c:	e1a03456 	asr	r3, r6, r4
 a50:	e2844001 	add	r4, r4, #1
 a54:	e3130001 	tst	r3, #1
 a58:	0afffff8 	beq	a40 <__register_frame_info@plt+0x3d4>
 a5c:	e1a00008 	mov	r0, r8
[31m a60:	ebfffee6 	bl	600 <printf@plt>[0m
 a64:	e5b52004 	ldr	r2, [r5, #4]!
 a68:	e1a01007 	mov	r1, r7
--
 a74:	e8bd81f0 	pop	{r4, r5, r6, r7, r8, pc}
 a78:	00008aa0 	andeq	r8, r0, r0, lsr #21
 a7c:	fffffdc4 			; <UNDEFINED> instruction: 0xfffffdc4
 a80:	ffff79fc 			; <UNDEFINED> instruction: 0xffff79fc
 a84:	ffff7a50 			; <UNDEFINED> instruction: 0xffff7a50
 a88:	ffff7a38 			; <UNDEFINED> instruction: 0xffff7a38
 a8c:	ffff7a34 			; <UNDEFINED> instruction: 0xffff7a34
 a90:	e1d132b0 	ldrh	r3, [r1, #32]
 a94:	e92d4070 	push	{r4, r5, r6, lr}
 a98:	e1a06001 	mov	r6, r1
 a9c:	e59f40b8 	ldr	r4, [pc, #184]	; b5c <__register_frame_info@plt+0x4f0>
 aa0:	e2815020 	add	r5, r1, #32
 aa4:	e3530000 	cmp	r3, #0
 aa8:	e08f4004 	add	r4, pc, r4
 aac:	0a000007 	beq	ad0 <__register_frame_info@plt+0x464>
 ab0:	e5953004 	ldr	r3, [r5, #4]
 ab4:	e3130001 	tst	r3, #1
 ab8:	1a000023 	bne	b4c <__register_frame_info@plt+0x4e0>
 abc:	e59f009c 	ldr	r0, [pc, #156]	; b60 <__register_frame_info@plt+0x4f4>
 ac0:	e0840000 	add	r0, r4, r0
[31m ac4:	ebfffecd 	bl	600 <printf@plt>[0m
 ac8:	e1d602b0 	ldrh	r0, [r6, #32]
 acc:	ebffffcb 	bl	a00 <__register_frame_info@plt+0x394>
 ad0:	e1d530b2 	ldrh	r3, [r5, #2]
 ad4:	e3530000 	cmp	r3, #0
 ad8:	0a000007 	beq	afc <__register_frame_info@plt+0x490>
 adc:	e5953004 	ldr	r3, [r5, #4]
 ae0:	e3130002 	tst	r3, #2
 ae4:	1a000014 	bne	b3c <__register_frame_info@plt+0x4d0>
 ae8:	e59f0074 	ldr	r0, [pc, #116]	; b64 <__register_frame_info@plt+0x4f8>
 aec:	e0840000 	add	r0, r4, r0
[31m af0:	ebfffec2 	bl	600 <printf@plt>[0m
 af4:	e1d500b2 	ldrh	r0, [r5, #2]
 af8:	ebffffc0 	bl	a00 <__register_frame_info@plt+0x394>
 afc:	e5953004 	ldr	r3, [r5, #4]
 b00:	e3130004 	tst	r3, #4
 b04:	1a000005 	bne	b20 <__register_frame_info@plt+0x4b4>
 b08:	e3130008 	tst	r3, #8
 b0c:	08bd8070 	popeq	{r4, r5, r6, pc}
 b10:	e59f0050 	ldr	r0, [pc, #80]	; b68 <__register_frame_info@plt+0x4fc>
 b14:	e0840000 	add	r0, r4, r0
 b18:	e8bd4070 	pop	{r4, r5, r6, lr}
[31m b1c:	eafffeb7 	b	600 <printf@plt>[0m
 b20:	e59f0044 	ldr	r0, [pc, #68]	; b6c <__register_frame_info@plt+0x500>
 b24:	e0840000 	add	r0, r4, r0
[31m b28:	ebfffeb4 	bl	600 <printf@plt>[0m
 b2c:	e5953004 	ldr	r3, [r5, #4]
 b30:	e3130008 	tst	r3, #8
 b34:	08bd8070 	popeq	{r4, r5, r6, pc}
 b38:	eafffff4 	b	b10 <__register_frame_info@plt+0x4a4>
 b3c:	e59f002c 	ldr	r0, [pc, #44]	; b70 <__register_frame_info@plt+0x504>
 b40:	e0840000 	add	r0, r4, r0
[31m b44:	ebfffead 	bl	600 <printf@plt>[0m
 b48:	eaffffe6 	b	ae8 <__register_frame_info@plt+0x47c>
 b4c:	e59f001c 	ldr	r0, [pc, #28]	; b70 <__register_frame_info@plt+0x504>
 b50:	e0840000 	add	r0, r4, r0
[31m b54:	ebfffea9 	bl	600 <printf@plt>[0m
 b58:	eaffffd7 	b	abc <__register_frame_info@plt+0x450>
 b5c:	00008a0c 	andeq	r8, r0, ip, lsl #20
 b60:	ffff7a44 			; <UNDEFINED> instruction: 0xffff7a44
 b64:	ffff7a54 			; <UNDEFINED> instruction: 0xffff7a54
 b68:	ffff7a78 			; <UNDEFINED> instruction: 0xffff7a78
 b6c:	ffff7a64 			; <UNDEFINED> instruction: 0xffff7a64
 b70:	ffff7a40 			; <UNDEFINED> instruction: 0xffff7a40
 b74:	e92d4038 	push	{r3, r4, r5, lr}
 b78:	e59f3030 	ldr	r3, [pc, #48]	; bb0 <__register_frame_info@plt+0x544>
 b7c:	e59f4030 	ldr	r4, [pc, #48]	; bb4 <__register_frame_info@plt+0x548>
 b80:	e59f1030 	ldr	r1, [pc, #48]	; bb8 <__register_frame_info@plt+0x54c>
 b84:	e08f3003 	add	r3, pc, r3
 b88:	e59f502c 	ldr	r5, [pc, #44]	; bbc <__register_frame_info@plt+0x550>
 b8c:	e0834004 	add	r4, r3, r4
 b90:	e0831001 	add	r1, r3, r1
 b94:	e0835005 	add	r5, r3, r5
 b98:	e1a00005 	mov	r0, r5
[31m b9c:	ebfffe97 	bl	600 <printf@plt>[0m
 ba0:	e5b41004 	ldr	r1, [r4, #4]!
 ba4:	e3510000 	cmp	r1, #0
 ba8:	1afffffa 	bne	b98 <__register_frame_info@plt+0x52c>
 bac:	e8bd8038 	pop	{r3, r4, r5, pc}
 bb0:	00008930 	andeq	r8, r0, r0, lsr r9
 bb4:	fffffdc4 			; <UNDEFINED> instruction: 0xfffffdc4
 bb8:	ffff79fc 			; <UNDEFINED> instruction: 0xffff79fc
 bbc:	ffff7a8c 			; <UNDEFINED> instruction: 0xffff7a8c
 bc0:	e1d132b0 	ldrh	r3, [r1, #32]
 bc4:	e92d4070 	push	{r4, r5, r6, lr}
 bc8:	e1a06001 	mov	r6, r1
 bcc:	e59f407c 	ldr	r4, [pc, #124]	; c50 <__register_frame_info@plt+0x5e4>
 bd0:	e2815020 	add	r5, r1, #32
 bd4:	e3530000 	cmp	r3, #0
 bd8:	e08f4004 	add	r4, pc, r4
 bdc:	0a000007 	beq	c00 <__register_frame_info@plt+0x594>
 be0:	e5953004 	ldr	r3, [r5, #4]
 be4:	e3530000 	cmp	r3, #0
 be8:	1a000014 	bne	c40 <__register_frame_info@plt+0x5d4>
 bec:	e59f0060 	ldr	r0, [pc, #96]	; c54 <__register_frame_info@plt+0x5e8>
 bf0:	e0840000 	add	r0, r4, r0
[31m bf4:	ebfffe81 	bl	600 <printf@plt>[0m
 bf8:	e1d602b0 	ldrh	r0, [r6, #32]
 bfc:	ebffff7f 	bl	a00 <__register_frame_info@plt+0x394>
 c00:	e1d530b2 	ldrh	r3, [r5, #2]
 c04:	e3530000 	cmp	r3, #0
 c08:	08bd8070 	popeq	{r4, r5, r6, pc}
 c0c:	e5953008 	ldr	r3, [r5, #8]
 c10:	e3530000 	cmp	r3, #0
 c14:	1a000005 	bne	c30 <__register_frame_info@plt+0x5c4>
 c18:	e59f0038 	ldr	r0, [pc, #56]	; c58 <__register_frame_info@plt+0x5ec>
 c1c:	e0840000 	add	r0, r4, r0
[31m c20:	ebfffe76 	bl	600 <printf@plt>[0m
 c24:	e1d500b2 	ldrh	r0, [r5, #2]
 c28:	e8bd4070 	pop	{r4, r5, r6, lr}
 c2c:	eaffff73 	b	a00 <__register_frame_info@plt+0x394>
 c30:	e59f0024 	ldr	r0, [pc, #36]	; c5c <__register_frame_info@plt+0x5f0>
 c34:	e0840000 	add	r0, r4, r0
[31m c38:	ebfffe70 	bl	600 <printf@plt>[0m
 c3c:	eafffff5 	b	c18 <__register_frame_info@plt+0x5ac>
 c40:	e59f0014 	ldr	r0, [pc, #20]	; c5c <__register_frame_info@plt+0x5f0>
 c44:	e0840000 	add	r0, r4, r0
[31m c48:	ebfffe6c 	bl	600 <printf@plt>[0m
 c4c:	eaffffe6 	b	bec <__register_frame_info@plt+0x580>
 c50:	000088dc 	ldrdeq	r8, [r0], -ip
 c54:	ffff7a44 			; <UNDEFINED> instruction: 0xffff7a44
 c58:	ffff7a54 			; <UNDEFINED> instruction: 0xffff7a54
 c5c:	ffff7a40 			; <UNDEFINED> instruction: 0xffff7a40
 c60:	e92d4070 	push	{r4, r5, r6, lr}
 c64:	e1a06001 	mov	r6, r1
 c68:	e59f40c8 	ldr	r4, [pc, #200]	; d38 <__register_frame_info@plt+0x6cc>
 c6c:	e2815020 	add	r5, r1, #32
 c70:	e59f00c4 	ldr	r0, [pc, #196]	; d3c <__register_frame_info@plt+0x6d0>
 c74:	e08f4004 	add	r4, pc, r4
 c78:	e0840000 	add	r0, r4, r0
[31m c7c:	ebfffe5f 	bl	600 <printf@plt>[0m
 c80:	e1d632b0 	ldrh	r3, [r6, #32]
 c84:	e3530000 	cmp	r3, #0
 c88:	1a00001b 	bne	cfc <__register_frame_info@plt+0x690>
 c8c:	e1d530b2 	ldrh	r3, [r5, #2]
 c90:	e3530000 	cmp	r3, #0
 c94:	1a00000f 	bne	cd8 <__register_frame_info@plt+0x66c>
 c98:	e5953004 	ldr	r3, [r5, #4]
 c9c:	e3130004 	tst	r3, #4
 ca0:	1a000005 	bne	cbc <__register_frame_info@plt+0x650>
 ca4:	e3130008 	tst	r3, #8
 ca8:	08bd8070 	popeq	{r4, r5, r6, pc}
 cac:	e59f008c 	ldr	r0, [pc, #140]	; d40 <__register_frame_info@plt+0x6d4>
 cb0:	e0840000 	add	r0, r4, r0
 cb4:	e8bd4070 	pop	{r4, r5, r6, lr}
[31m cb8:	eafffe50 	b	600 <printf@plt>[0m
 cbc:	e59f0080 	ldr	r0, [pc, #128]	; d44 <__register_frame_info@plt+0x6d8>
 cc0:	e0840000 	add	r0, r4, r0
[31m cc4:	ebfffe4d 	bl	600 <printf@plt>[0m
 cc8:	e5953004 	ldr	r3, [r5, #4]
 ccc:	e3130008 	tst	r3, #8
 cd0:	08bd8070 	popeq	{r4, r5, r6, pc}
 cd4:	eafffff4 	b	cac <__register_frame_info@plt+0x640>
 cd8:	e59f0068 	ldr	r0, [pc, #104]	; d48 <__register_frame_info@plt+0x6dc>
 cdc:	e0840000 	add	r0, r4, r0
[31m ce0:	ebfffe46 	bl	600 <printf@plt>[0m
 ce4:	e5953004 	ldr	r3, [r5, #4]
 ce8:	e3130002 	tst	r3, #2
 cec:	1a00000b 	bne	d20 <__register_frame_info@plt+0x6b4>
 cf0:	e1d500b2 	ldrh	r0, [r5, #2]
 cf4:	ebffff41 	bl	a00 <__register_frame_info@plt+0x394>
 cf8:	eaffffe6 	b	c98 <__register_frame_info@plt+0x62c>
 cfc:	e59f0048 	ldr	r0, [pc, #72]	; d4c <__register_frame_info@plt+0x6e0>
 d00:	e0840000 	add	r0, r4, r0
[31m d04:	ebfffe3d 	bl	600 <printf@plt>[0m
 d08:	e5953004 	ldr	r3, [r5, #4]
 d0c:	e3130001 	tst	r3, #1
--
 d1c:	eaffffda 	b	c8c <__register_frame_info@plt+0x620>
 d20:	e3a00021 	mov	r0, #33	; 0x21
 d24:	ebfffe32 	bl	5f4 <putchar@plt>
 d28:	eafffff0 	b	cf0 <__register_frame_info@plt+0x684>
 d2c:	e3a00021 	mov	r0, #33	; 0x21
 d30:	ebfffe2f 	bl	5f4 <putchar@plt>
 d34:	eafffff6 	b	d14 <__register_frame_info@plt+0x6a8>
 d38:	00008840 	andeq	r8, r0, r0, asr #16
 d3c:	ffff7ab0 			; <UNDEFINED> instruction: 0xffff7ab0
 d40:	ffff7ae4 			; <UNDEFINED> instruction: 0xffff7ae4
 d44:	ffff7ad8 			; <UNDEFINED> instruction: 0xffff7ad8
 d48:	ffff7acc 			; <UNDEFINED> instruction: 0xffff7acc
 d4c:	ffff7ac0 			; <UNDEFINED> instruction: 0xffff7ac0
 d50:	e92d4070 	push	{r4, r5, r6, lr}
 d54:	e1a05001 	mov	r5, r1
 d58:	e59f4094 	ldr	r4, [pc, #148]	; df4 <__register_frame_info@plt+0x788>
 d5c:	e2816020 	add	r6, r1, #32
 d60:	e59f0090 	ldr	r0, [pc, #144]	; df8 <__register_frame_info@plt+0x78c>
 d64:	e08f4004 	add	r4, pc, r4
 d68:	e0840000 	add	r0, r4, r0
[31m d6c:	ebfffe23 	bl	600 <printf@plt>[0m
 d70:	e1d532b0 	ldrh	r3, [r5, #32]
 d74:	e3530000 	cmp	r3, #0
 d78:	1a00000b 	bne	dac <__register_frame_info@plt+0x740>
 d7c:	e1d630b2 	ldrh	r3, [r6, #2]
 d80:	e3530000 	cmp	r3, #0
 d84:	08bd8070 	popeq	{r4, r5, r6, pc}
 d88:	e59f006c 	ldr	r0, [pc, #108]	; dfc <__register_frame_info@plt+0x790>
 d8c:	e0840000 	add	r0, r4, r0
[31m d90:	ebfffe1a 	bl	600 <printf@plt>[0m
 d94:	e5963008 	ldr	r3, [r6, #8]
 d98:	e3530000 	cmp	r3, #0
 d9c:	1a00000e 	bne	ddc <__register_frame_info@plt+0x770>
 da0:	e1d600b2 	ldrh	r0, [r6, #2]
 da4:	e8bd4070 	pop	{r4, r5, r6, lr}
 da8:	eaffff14 	b	a00 <__register_frame_info@plt+0x394>
 dac:	e59f004c 	ldr	r0, [pc, #76]	; e00 <__register_frame_info@plt+0x794>
 db0:	e0840000 	add	r0, r4, r0
[31m db4:	ebfffe11 	bl	600 <printf@plt>[0m
 db8:	e5963004 	ldr	r3, [r6, #4]
 dbc:	e3530000 	cmp	r3, #0

[0m
[[0;33m*[0m] Function [0;33mprintf[0m used [0;33m18[0m times [0;33mlibipt_addrtype.so[0m

