[[0;33m*[0m] Binary protection state of [0;33mdnsmasq[0m
[REF] s12

  	RELRO          CANARY            NX           PIE       RPATH        RUNPATH      SYMBOLS      
  	[31mNo RELRO[0m       [31mNo Canary found[0m   [32mNX enabled[0m   [31mNo PIE[0m       [32mNo RPATH[0m     [32mNo RUNPATH[0m   [32mNo Symbols[0m

[0m
[[0;33m*[0m] Function [0;33mstrcpy[0m tear down of [0;33mdnsmasq[0m

    a664:	ebfffcbf 	bl	9968 <strchr@plt>
    a668:	e58d001c 	str	r0, [sp, #28]
    a66c:	e1a00004 	mov	r0, r4
    a670:	eb001079 	bl	e85c <_start+0x4e64>
    a674:	e3500000 	cmp	r0, #0
    a678:	0a000030 	beq	a740 <_start+0xd48>
    a67c:	e3570000 	cmp	r7, #0
    a680:	13590000 	cmpne	r9, #0
    a684:	0a000002 	beq	a694 <_start+0xc9c>
    a688:	e59d301c 	ldr	r3, [sp, #28]
    a68c:	e3530000 	cmp	r3, #0
    a690:	0a00003d 	beq	a78c <_start+0xd94>
    a694:	e1a00004 	mov	r0, r4
    a698:	ebfffcac 	bl	9950 <strlen@plt>
    a69c:	e2800029 	add	r0, r0, #41	; 0x29
    a6a0:	eb0010cf 	bl	e9e4 <_start+0x4fec>
    a6a4:	e1a01004 	mov	r1, r4
    a6a8:	e2504000 	subs	r4, r0, #0
    a6ac:	e2840028 	add	r0, r4, #40	; 0x28
    a6b0:	0affffe2 	beq	a640 <_start+0xc48>
[31m    a6b4:	ebfffb73 	bl	9488 <strcpy@plt>[0m
    a6b8:	e59dc080 	ldr	ip, [sp, #128]	; 0x80
    a6bc:	e1a00004 	mov	r0, r4
--
    a784:	0affffa6 	beq	a624 <_start+0xc2c>
    a788:	eaffff9f 	b	a60c <_start+0xc14>
    a78c:	e1a00004 	mov	r0, r4
    a790:	ebfffc6e 	bl	9950 <strlen@plt>
    a794:	e1a03000 	mov	r3, r0
    a798:	e1a00007 	mov	r0, r7
    a79c:	e58d3014 	str	r3, [sp, #20]
    a7a0:	ebfffc6a 	bl	9950 <strlen@plt>
    a7a4:	e59d3014 	ldr	r3, [sp, #20]
    a7a8:	e0830000 	add	r0, r3, r0
    a7ac:	e280002a 	add	r0, r0, #42	; 0x2a
    a7b0:	eb00108b 	bl	e9e4 <_start+0x4fec>
    a7b4:	e250c000 	subs	ip, r0, #0
    a7b8:	e1a01004 	mov	r1, r4
    a7bc:	e28c3028 	add	r3, ip, #40	; 0x28
    a7c0:	e1a00003 	mov	r0, r3
    a7c4:	0affffb2 	beq	a694 <_start+0xc9c>
    a7c8:	e58dc018 	str	ip, [sp, #24]
    a7cc:	e2855001 	add	r5, r5, #1
    a7d0:	e58d3014 	str	r3, [sp, #20]
[31m    a7d4:	ebfffb2b 	bl	9488 <strcpy@plt>[0m
    a7d8:	e59d3014 	ldr	r3, [sp, #20]
    a7dc:	e1a00003 	mov	r0, r3
--
    ad18:	e1c372b4 	strh	r7, [r3, #36]	; 0x24
    ad1c:	03877001 	orreq	r7, r7, #1
    ad20:	01c372b4 	strheq	r7, [r3, #36]	; 0x24
    ad24:	e1a00003 	mov	r0, r3
    ad28:	1583600c 	strne	r6, [r3, #12]
    ad2c:	e5834028 	str	r4, [r3, #40]	; 0x28
    ad30:	e5832014 	str	r2, [r3, #20]
    ad34:	e28dd008 	add	sp, sp, #8
    ad38:	e8bd41f0 	pop	{r4, r5, r6, r7, r8, lr}
    ad3c:	eafffb7d 	b	9b38 <_start+0x140>
    ad40:	e5970014 	ldr	r0, [r7, #20]
    ad44:	e5953000 	ldr	r3, [r5]
    ad48:	e1500003 	cmp	r0, r3
    ad4c:	0a00001d 	beq	adc8 <_start+0x13d0>
    ad50:	e59f60cc 	ldr	r6, [pc, #204]	; ae24 <_start+0x142c>
    ad54:	e5963000 	ldr	r3, [r6]
    ad58:	e59380c4 	ldr	r8, [r3, #196]	; 0xc4
    ad5c:	ebfffab0 	bl	9824 <inet_ntoa@plt>
    ad60:	e1a01000 	mov	r1, r0
    ad64:	e1a00008 	mov	r0, r8
[31m    ad68:	ebfff9c6 	bl	9488 <strcpy@plt>[0m
    ad6c:	e5950000 	ldr	r0, [r5]
    ad70:	ebfffaab 	bl	9824 <inet_ntoa@plt>
--
    b4d4:	e1c472b4 	strh	r7, [r4, #36]	; 0x24
    b4d8:	e3530000 	cmp	r3, #0
    b4dc:	15941000 	ldrne	r1, [r4]
    b4e0:	05941000 	ldreq	r1, [r4]
    b4e4:	15831000 	strne	r1, [r3]
    b4e8:	15941000 	ldrne	r1, [r4]
    b4ec:	05851010 	streq	r1, [r5, #16]
    b4f0:	e3510000 	cmp	r1, #0
    b4f4:	15813004 	strne	r3, [r1, #4]
    b4f8:	0585300c 	streq	r3, [r5, #12]
    b4fc:	e3520000 	cmp	r2, #0
    b500:	13877c02 	orrne	r7, r7, #512	; 0x200
    b504:	15842028 	strne	r2, [r4, #40]	; 0x28
    b508:	11c472b4 	strhne	r7, [r4, #36]	; 0x24
    b50c:	e3560000 	cmp	r6, #0
    b510:	0a000020 	beq	b598 <_start+0x1ba0>
    b514:	e3170c02 	tst	r7, #512	; 0x200
    b518:	0a00000d 	beq	b554 <_start+0x1b5c>
    b51c:	e5940028 	ldr	r0, [r4, #40]	; 0x28
    b520:	e1a01006 	mov	r1, r6
[31m    b524:	ebfff7d7 	bl	9488 <strcpy@plt>[0m
    b528:	e3580000 	cmp	r8, #0
    b52c:	e08b9009 	add	r9, fp, r9
--
    ddbc:	e340e002 	movt	lr, #2
    ddc0:	e59e3000 	ldr	r3, [lr]
    ddc4:	e0682002 	rsb	r2, r8, r2
    ddc8:	e58d2058 	str	r2, [sp, #88]	; 0x58
    ddcc:	eaffffba 	b	dcbc <_start+0x42c4>
    ddd0:	e5940014 	ldr	r0, [r4, #20]
    ddd4:	e59d1044 	ldr	r1, [sp, #68]	; 0x44
    ddd8:	e59d20c0 	ldr	r2, [sp, #192]	; 0xc0
    dddc:	eb000364 	bl	eb74 <_start+0x517c>
    dde0:	e3500000 	cmp	r0, #0
    dde4:	0affff8b 	beq	dc18 <_start+0x4220>
    dde8:	e1d4c2b4 	ldrh	ip, [r4, #36]	; 0x24
    ddec:	e20c2050 	and	r2, ip, #80	; 0x50
    ddf0:	eaffffa2 	b	dc80 <_start+0x4288>
    ddf4:	e3560000 	cmp	r6, #0
    ddf8:	0a00005a 	beq	df68 <_start+0x4570>
    ddfc:	e5940014 	ldr	r0, [r4, #20]
    de00:	ebfff0c3 	bl	a114 <_start+0x71c>
    de04:	e1a01000 	mov	r1, r0
    de08:	e1a00005 	mov	r0, r5
[31m    de0c:	ebffed9d 	bl	9488 <strcpy@plt>[0m
    de10:	eafffe85 	b	d82c <_start+0x3e34>
    de14:	e1a00005 	mov	r0, r5
--
    f0c4:	e5c03000 	strb	r3, [r0]
    f0c8:	e5f03001 	ldrb	r3, [r0, #1]!
    f0cc:	e3530000 	cmp	r3, #0
    f0d0:	1afffff9 	bne	f0bc <_start+0x56c4>
    f0d4:	e12fff1e 	bx	lr
    f0d8:	0001fb14 	andeq	pc, r1, r4, lsl fp	; <UNPREDICTABLE>
    f0dc:	e92d4038 	push	{r3, r4, r5, lr}
    f0e0:	e2505000 	subs	r5, r0, #0
    f0e4:	01a04005 	moveq	r4, r5
    f0e8:	1a000001 	bne	f0f4 <_start+0x56fc>
    f0ec:	e1a00004 	mov	r0, r4
    f0f0:	e8bd8038 	pop	{r3, r4, r5, pc}
    f0f4:	e5d54000 	ldrb	r4, [r5]
    f0f8:	e3540000 	cmp	r4, #0
    f0fc:	0afffffa 	beq	f0ec <_start+0x56f4>
    f100:	ebffea12 	bl	9950 <strlen@plt>
    f104:	e2800001 	add	r0, r0, #1
    f108:	ebfffe28 	bl	e9b0 <_start+0x4fb8>
    f10c:	e1a01005 	mov	r1, r5
    f110:	e1a04000 	mov	r4, r0
[31m    f114:	ebffe8db 	bl	9488 <strcpy@plt>[0m
    f118:	e1a00004 	mov	r0, r4
    f11c:	ebffffe0 	bl	f0a4 <_start+0x56ac>
--
    fef4:	e1a00004 	mov	r0, r4
    fef8:	ebffe694 	bl	9950 <strlen@plt>
    fefc:	e2509000 	subs	r9, r0, #0
    ff00:	0afffff6 	beq	fee0 <_start+0x64e8>
    ff04:	e0873009 	add	r3, r7, r9
    ff08:	e5d3300a 	ldrb	r3, [r3, #10]
    ff0c:	e353007e 	cmp	r3, #126	; 0x7e
    ff10:	0afffff2 	beq	fee0 <_start+0x64e8>
    ff14:	e5d7200b 	ldrb	r2, [r7, #11]
    ff18:	e3520023 	cmp	r2, #35	; 0x23
    ff1c:	0a000514 	beq	11374 <_start+0x797c>
    ff20:	e352002e 	cmp	r2, #46	; 0x2e
    ff24:	0affffed 	beq	fee0 <_start+0x64e8>
    ff28:	e1a00006 	mov	r0, r6
    ff2c:	e2899002 	add	r9, r9, #2
    ff30:	ebffe686 	bl	9950 <strlen@plt>
    ff34:	e0890000 	add	r0, r9, r0
    ff38:	ebfffa9c 	bl	e9b0 <_start+0x4fb8>
    ff3c:	e1a01006 	mov	r1, r6
    ff40:	e1a07000 	mov	r7, r0
[31m    ff44:	ebffe54f 	bl	9488 <strcpy@plt>[0m
    ff48:	e1a00007 	mov	r0, r7
    ff4c:	ebffe67f 	bl	9950 <strlen@plt>
--
   10418:	0a000475 	beq	115f4 <_start+0x7bfc>
   1041c:	e1a00006 	mov	r0, r6
   10420:	e59f1434 	ldr	r1, [pc, #1076]	; 1085c <_start+0x6e64>
   10424:	ebffe4c2 	bl	9734 <strstr@plt>
   10428:	e1560000 	cmp	r6, r0
   1042c:	1affffdb 	bne	103a0 <_start+0x69a8>
   10430:	e2866004 	add	r6, r6, #4
   10434:	e1a00006 	mov	r0, r6
   10438:	ebffe544 	bl	9950 <strlen@plt>
   1043c:	e3540e11 	cmp	r4, #272	; 0x110
   10440:	e2800001 	add	r0, r0, #1
   10444:	0a000468 	beq	115ec <_start+0x7bf4>
   10448:	ebfff958 	bl	e9b0 <_start+0x4fb8>
   1044c:	e3500000 	cmp	r0, #0
   10450:	e5880028 	str	r0, [r8, #40]	; 0x28
   10454:	0affffdc 	beq	103cc <_start+0x69d4>
   10458:	e5983000 	ldr	r3, [r8]
   1045c:	e1a01006 	mov	r1, r6
   10460:	e3833040 	orr	r3, r3, #64	; 0x40
   10464:	e5883000 	str	r3, [r8]
[31m   10468:	ebffe406 	bl	9488 <strcpy@plt>[0m
   1046c:	e5980028 	ldr	r0, [r8, #40]	; 0x28
   10470:	ebfffb0b 	bl	f0a4 <_start+0x56ac>
--
   11ca8:	05883000 	streq	r3, [r8]
   11cac:	0afff9c6 	beq	103cc <_start+0x69d4>
   11cb0:	e1a00006 	mov	r0, r6
   11cb4:	ebffdf25 	bl	9950 <strlen@plt>
   11cb8:	e1a07000 	mov	r7, r0
   11cbc:	e1a00006 	mov	r0, r6
   11cc0:	ebfff57d 	bl	f2bc <_start+0x58c4>
   11cc4:	e3500000 	cmp	r0, #0
   11cc8:	0a000013 	beq	11d1c <_start+0x8324>
   11ccc:	e3540e11 	cmp	r4, #272	; 0x110
   11cd0:	e2870001 	add	r0, r7, #1
   11cd4:	0a00000e 	beq	11d14 <_start+0x831c>
   11cd8:	ebfff334 	bl	e9b0 <_start+0x4fb8>
   11cdc:	e3500000 	cmp	r0, #0
   11ce0:	e5880024 	str	r0, [r8, #36]	; 0x24
   11ce4:	0afff9b8 	beq	103cc <_start+0x69d4>
   11ce8:	e5983000 	ldr	r3, [r8]
   11cec:	e1a01006 	mov	r1, r6
   11cf0:	e3833010 	orr	r3, r3, #16
   11cf4:	e5883000 	str	r3, [r8]
[31m   11cf8:	ebffdde2 	bl	9488 <strcpy@plt>[0m
   11cfc:	eafff9b2 	b	103cc <_start+0x69d4>
   11d00:	e59f33c0 	ldr	r3, [pc, #960]	; 120c8 <_start+0x86d0>
--
   1253c:	e1570000 	cmp	r7, r0
   12540:	0a00000f 	beq	12584 <_start+0x8b8c>
   12544:	e595501c 	ldr	r5, [r5, #28]
   12548:	e3550000 	cmp	r5, #0
   1254c:	1affffee 	bne	1250c <_start+0x8b14>
   12550:	e28dd0ac 	add	sp, sp, #172	; 0xac
   12554:	e8bd8ff0 	pop	{r4, r5, r6, r7, r8, r9, sl, fp, pc}
   12558:	e5963018 	ldr	r3, [r6, #24]
   1255c:	e3a02005 	mov	r2, #5
   12560:	e59f02d4 	ldr	r0, [pc, #724]	; 1283c <_start+0x8e44>
   12564:	e5931010 	ldr	r1, [r3, #16]
   12568:	eb0032d8 	bl	1f0d0 <_start+0x156d8>
   1256c:	e59f3278 	ldr	r3, [pc, #632]	; 127ec <_start+0x8df4>
   12570:	e5936000 	ldr	r6, [r3]
   12574:	e596303c 	ldr	r3, [r6, #60]	; 0x3c
   12578:	e3530000 	cmp	r3, #0
   1257c:	1affffdf 	bne	12500 <_start+0x8b08>
   12580:	eafffff2 	b	12550 <_start+0x8b58>
   12584:	e1a01006 	mov	r1, r6
   12588:	e1a00004 	mov	r0, r4
[31m   1258c:	ebffdbbd 	bl	9488 <strcpy@plt>[0m
   12590:	e1a00004 	mov	r0, r4
   12594:	ebffdced 	bl	9950 <strlen@plt>
--
   126ac:	e28d7078 	add	r7, sp, #120	; 0x78
   126b0:	e1a0e007 	mov	lr, r7
   126b4:	e59f519c 	ldr	r5, [pc, #412]	; 12858 <_start+0x8e60>
   126b8:	e28d6014 	add	r6, sp, #20
   126bc:	e8bc000f 	ldm	ip!, {r0, r1, r2, r3}
   126c0:	e8ae000f 	stmia	lr!, {r0, r1, r2, r3}
   126c4:	e8bc000f 	ldm	ip!, {r0, r1, r2, r3}
   126c8:	e8ae000f 	stmia	lr!, {r0, r1, r2, r3}
   126cc:	e28c4018 	add	r4, ip, #24
   126d0:	e89c000f 	ldm	ip, {r0, r1, r2, r3}
   126d4:	e88e000f 	stm	lr, {r0, r1, r2, r3}
   126d8:	e59f017c 	ldr	r0, [pc, #380]	; 1285c <_start+0x8e64>
   126dc:	ebffdbb4 	bl	95b4 <puts@plt>
   126e0:	e59f0178 	ldr	r0, [pc, #376]	; 12860 <_start+0x8e68>
   126e4:	ebffdbb2 	bl	95b4 <puts@plt>
   126e8:	e594a000 	ldr	sl, [r4]
   126ec:	e35a0000 	cmp	sl, #0
   126f0:	0a00000c 	beq	12728 <_start+0x8d30>
   126f4:	e1a00006 	mov	r0, r6
   126f8:	e1a0100a 	mov	r1, sl
[31m   126fc:	ebffdb61 	bl	9488 <strcpy@plt>[0m
   12700:	e5dd3078 	ldrb	r3, [sp, #120]	; 0x78
   12704:	e3530000 	cmp	r3, #0
--
   14560:	e2530000 	subs	r0, r3, #0
   14564:	0a000002 	beq	14574 <_start+0xab7c>
   14568:	ebffd4b6 	bl	9848 <strcmp@plt>
   1456c:	e3500000 	cmp	r0, #0
   14570:	0a00002c 	beq	14628 <_start+0xac30>
   14574:	e59aa028 	ldr	sl, [sl, #40]	; 0x28
   14578:	e35a0000 	cmp	sl, #0
   1457c:	1afffff5 	bne	14558 <_start+0xab60>
   14580:	e3a0002c 	mov	r0, #44	; 0x2c
   14584:	ebffe916 	bl	e9e4 <_start+0x4fec>
   14588:	e250a000 	subs	sl, r0, #0
   1458c:	0affffcc 	beq	144c4 <_start+0xaacc>
   14590:	e1a0000d 	mov	r0, sp
   14594:	ebffd4ed 	bl	9950 <strlen@plt>
   14598:	e2800001 	add	r0, r0, #1
   1459c:	ebffe910 	bl	e9e4 <_start+0x4fec>
   145a0:	e3500000 	cmp	r0, #0
   145a4:	e58a0000 	str	r0, [sl]
   145a8:	0affffc5 	beq	144c4 <_start+0xaacc>
   145ac:	e1a0100d 	mov	r1, sp
[31m   145b0:	ebffd3b4 	bl	9488 <strcpy@plt>[0m
   145b4:	e5973000 	ldr	r3, [r7]
   145b8:	e3a02001 	mov	r2, #1
--
   16110:	e5934084 	ldr	r4, [r3, #132]	; 0x84
   16114:	e3540000 	cmp	r4, #0
   16118:	0a000029 	beq	161c4 <_start+0xc7cc>
   1611c:	e59fab70 	ldr	sl, [pc, #2928]	; 16c94 <_start+0xd29c>
   16120:	e1a07006 	mov	r7, r6
   16124:	e59f9b6c 	ldr	r9, [pc, #2924]	; 16c98 <_start+0xd2a0>
   16128:	e30cc4c4 	movw	ip, #50372	; 0xc4c4
   1612c:	e5941000 	ldr	r1, [r4]
   16130:	e340c002 	movt	ip, #2
   16134:	e59c3000 	ldr	r3, [ip]
   16138:	e593014c 	ldr	r0, [r3, #332]	; 0x14c
   1613c:	ebffe2a4 	bl	ebd4 <_start+0x51dc>
   16140:	e30ce4c4 	movw	lr, #50372	; 0xc4c4
   16144:	e5940018 	ldr	r0, [r4, #24]
   16148:	e340e002 	movt	lr, #2
   1614c:	e59e3000 	ldr	r3, [lr]
   16150:	e5936148 	ldr	r6, [r3, #328]	; 0x148
   16154:	ebffcdb2 	bl	9824 <inet_ntoa@plt>
   16158:	e1a01000 	mov	r1, r0
   1615c:	e1a00006 	mov	r0, r6
[31m   16160:	ebffccc8 	bl	9488 <strcpy@plt>[0m
   16164:	e30c04c4 	movw	r0, #50372	; 0xc4c4
   16168:	e5942020 	ldr	r2, [r4, #32]
--
   171a0:	e1530005 	cmp	r3, r5
   171a4:	0a000024 	beq	1723c <_start+0xd844>
   171a8:	e1a00006 	mov	r0, r6
   171ac:	e5941018 	ldr	r1, [r4, #24]
   171b0:	e1a02005 	mov	r2, r5
   171b4:	ebffde6e 	bl	eb74 <_start+0x517c>
   171b8:	e3500000 	cmp	r0, #0
   171bc:	0a000005 	beq	171d8 <_start+0xd7e0>
   171c0:	e1a00006 	mov	r0, r6
   171c4:	e594101c 	ldr	r1, [r4, #28]
   171c8:	e1a02005 	mov	r2, r5
   171cc:	ebffde68 	bl	eb74 <_start+0x517c>
   171d0:	e3500000 	cmp	r0, #0
   171d4:	1a000018 	bne	1723c <_start+0xd844>
   171d8:	e5973000 	ldr	r3, [r7]
   171dc:	e5940018 	ldr	r0, [r4, #24]
   171e0:	e593a148 	ldr	sl, [r3, #328]	; 0x148
   171e4:	ebffc98e 	bl	9824 <inet_ntoa@plt>
   171e8:	e1a01000 	mov	r1, r0
   171ec:	e1a0000a 	mov	r0, sl
[31m   171f0:	ebffc8a4 	bl	9488 <strcpy@plt>[0m
   171f4:	e5973000 	ldr	r3, [r7]
   171f8:	e594001c 	ldr	r0, [r4, #28]
   171fc:	e593a14c 	ldr	sl, [r3, #332]	; 0x14c
   17200:	ebffc987 	bl	9824 <inet_ntoa@plt>
   17204:	e1a01000 	mov	r1, r0
   17208:	e1a0000a 	mov	r0, sl
[31m   1720c:	ebffc89d 	bl	9488 <strcpy@plt>[0m
   17210:	e5973000 	ldr	r3, [r7]
   17214:	e1a00005 	mov	r0, r5
--
   18834:	e3a03010 	mov	r3, #16
   18838:	eaffffdf 	b	187bc <_start+0xedc4>
   1883c:	e3a03020 	mov	r3, #32
   18840:	eaffffdd 	b	187bc <_start+0xedc4>
   18844:	e1a00005 	mov	r0, r5
   18848:	e58d3008 	str	r3, [sp, #8]
   1884c:	e58dc00c 	str	ip, [sp, #12]
   18850:	ebffc43e 	bl	9950 <strlen@plt>
   18854:	e2800001 	add	r0, r0, #1
   18858:	ebffd861 	bl	e9e4 <_start+0x4fec>
   1885c:	e3500000 	cmp	r0, #0
   18860:	e1a02000 	mov	r2, r0
   18864:	05982000 	ldreq	r2, [r8]
   18868:	e59d3008 	ldr	r3, [sp, #8]
   1886c:	e59dc00c 	ldr	ip, [sp, #12]
   18870:	03c22010 	biceq	r2, r2, #16
   18874:	e5880024 	str	r0, [r8, #36]	; 0x24
   18878:	05882000 	streq	r2, [r8]
   1887c:	0affff78 	beq	18664 <_start+0xec6c>
   18880:	e1a01005 	mov	r1, r5
[31m   18884:	ebffc2ff 	bl	9488 <strcpy@plt>[0m
   18888:	e59d3008 	ldr	r3, [sp, #8]
   1888c:	e59dc00c 	ldr	ip, [sp, #12]
--
   19350:	0a000009 	beq	1937c <_start+0xf984>
   19354:	e59a3008 	ldr	r3, [sl, #8]
   19358:	e1a01009 	mov	r1, r9
   1935c:	e2530000 	subs	r0, r3, #0
   19360:	0a000002 	beq	19370 <_start+0xf978>
   19364:	ebffd5dd 	bl	eae0 <_start+0x50e8>
   19368:	e3500000 	cmp	r0, #0
   1936c:	1a000022 	bne	193fc <_start+0xfa04>
   19370:	e59aa04c 	ldr	sl, [sl, #76]	; 0x4c
   19374:	e35a0000 	cmp	sl, #0
   19378:	1afffff5 	bne	19354 <_start+0xf95c>
   1937c:	e3a0b001 	mov	fp, #1
   19380:	e1a0800a 	mov	r8, sl
   19384:	e1a00009 	mov	r0, r9
   19388:	ebffc170 	bl	9950 <strlen@plt>
   1938c:	e2800001 	add	r0, r0, #1
   19390:	ebffd593 	bl	e9e4 <_start+0x4fec>
   19394:	e250a000 	subs	sl, r0, #0
   19398:	0a000001 	beq	193a4 <_start+0xf9ac>
   1939c:	e1a01009 	mov	r1, r9
[31m   193a0:	ebffc038 	bl	9488 <strcpy@plt>[0m
   193a4:	e3550000 	cmp	r5, #0
   193a8:	03a0b000 	moveq	fp, #0
--
   19450:	e3590000 	cmp	r9, #0
   19454:	1affffb8 	bne	1933c <_start+0xf944>
   19458:	e5943008 	ldr	r3, [r4, #8]
   1945c:	e3530000 	cmp	r3, #0
   19460:	08bd8ff8 	popeq	{r3, r4, r5, r6, r7, r8, r9, sl, fp, pc}
   19464:	e1a08009 	mov	r8, r9
   19468:	e59f6070 	ldr	r6, [pc, #112]	; 194e0 <_start+0xfae8>
   1946c:	e1a0a009 	mov	sl, r9
   19470:	eaffffd3 	b	193c4 <_start+0xf9cc>
   19474:	e1a00009 	mov	r0, r9
   19478:	ebffc134 	bl	9950 <strlen@plt>
   1947c:	e1a08000 	mov	r8, r0
   19480:	e1a00005 	mov	r0, r5
   19484:	ebffc131 	bl	9950 <strlen@plt>
   19488:	e0880000 	add	r0, r8, r0
   1948c:	e2800002 	add	r0, r0, #2
   19490:	ebffd553 	bl	e9e4 <_start+0x4fec>
   19494:	e2508000 	subs	r8, r0, #0
   19498:	0affffc6 	beq	193b8 <_start+0xf9c0>
   1949c:	e1a01009 	mov	r1, r9
[31m   194a0:	ebffbff8 	bl	9488 <strcpy@plt>[0m
   194a4:	e1a00008 	mov	r0, r8
   194a8:	ebffc128 	bl	9950 <strlen@plt>
--
   195e0:	e3a00c01 	mov	r0, #256	; 0x100
   195e4:	e5954000 	ldr	r4, [r5]
   195e8:	ebffd4f0 	bl	e9b0 <_start+0x4fb8>
   195ec:	e5956000 	ldr	r6, [r5]
   195f0:	e5840148 	str	r0, [r4, #328]	; 0x148
   195f4:	e3a00c01 	mov	r0, #256	; 0x100
   195f8:	ebffd4ec 	bl	e9b0 <_start+0x4fb8>
   195fc:	e5954000 	ldr	r4, [r5]
   19600:	e30c1484 	movw	r1, #50308	; 0xc484
   19604:	e3401002 	movt	r1, #2
   19608:	e586014c 	str	r0, [r6, #332]	; 0x14c
   1960c:	e5942000 	ldr	r2, [r4]
   19610:	e59430a8 	ldr	r3, [r4, #168]	; 0xa8
   19614:	e3120501 	tst	r2, #4194304	; 0x400000
   19618:	e5813010 	str	r3, [r1, #16]
   1961c:	0a000092 	beq	1986c <_start+0xfe74>
   19620:	e5941044 	ldr	r1, [r4, #68]	; 0x44
   19624:	e3510000 	cmp	r1, #0
   19628:	0a000099 	beq	19894 <_start+0xfe9c>
   1962c:	e5940148 	ldr	r0, [r4, #328]	; 0x148
[31m   19630:	ebffbf94 	bl	9488 <strcpy@plt>[0m
   19634:	e5953000 	ldr	r3, [r5]
   19638:	e5934148 	ldr	r4, [r3, #328]	; 0x148
--
   1b910:	eb000c7b 	bl	1eb04 <_start+0x1510c>
   1b914:	ea00000b 	b	1b948 <_start+0x11f50>
   1b918:	e59a3000 	ldr	r3, [sl]
   1b91c:	e5950008 	ldr	r0, [r5, #8]
   1b920:	e59340c4 	ldr	r4, [r3, #196]	; 0xc4
   1b924:	ebffb7be 	bl	9824 <inet_ntoa@plt>
   1b928:	e59f171c 	ldr	r1, [pc, #1820]	; 1c04c <_start+0x12654>
   1b92c:	e1a03000 	mov	r3, r0
   1b930:	e1a02004 	mov	r2, r4
   1b934:	e3a00006 	mov	r0, #6
   1b938:	eb000c71 	bl	1eb04 <_start+0x1510c>
   1b93c:	e5955034 	ldr	r5, [r5, #52]	; 0x34
   1b940:	e3550000 	cmp	r5, #0
   1b944:	0a000329 	beq	1c5f0 <_start+0x12bf8>
   1b948:	e5963000 	ldr	r3, [r6]
   1b94c:	e5950018 	ldr	r0, [r5, #24]
   1b950:	e59340c4 	ldr	r4, [r3, #196]	; 0xc4
   1b954:	ebffb7b2 	bl	9824 <inet_ntoa@plt>
   1b958:	e1a01000 	mov	r1, r0
   1b95c:	e1a00004 	mov	r0, r4
[31m   1b960:	ebffb6c8 	bl	9488 <strcpy@plt>[0m
   1b964:	e5953020 	ldr	r3, [r5, #32]
   1b968:	e3130001 	tst	r3, #1
--
   1e510:	e1a08000 	mov	r8, r0
   1e514:	eafffebf 	b	1e018 <_start+0x14620>
   1e518:	e1a0600c 	mov	r6, ip
   1e51c:	e1a00008 	mov	r0, r8
   1e520:	ebffad0a 	bl	9950 <strlen@plt>
   1e524:	e2800021 	add	r0, r0, #33	; 0x21
   1e528:	ebffc12d 	bl	e9e4 <_start+0x4fec>
   1e52c:	e250a000 	subs	sl, r0, #0
   1e530:	0a00005f 	beq	1e6b4 <_start+0x14cbc>
   1e534:	e59d303c 	ldr	r3, [sp, #60]	; 0x3c
   1e538:	e1a0000a 	mov	r0, sl
   1e53c:	e59d200c 	ldr	r2, [sp, #12]
   1e540:	e1a01008 	mov	r1, r8
   1e544:	e98a000c 	stmib	sl, {r2, r3}
   1e548:	e1cd21d0 	ldrd	r2, [sp, #16]
   1e54c:	e1ca21f0 	strd	r2, [sl, #16]
   1e550:	e3a03001 	mov	r3, #1
   1e554:	e480301c 	str	r3, [r0], #28
   1e558:	e59d301c 	ldr	r3, [sp, #28]
   1e55c:	e58a3018 	str	r3, [sl, #24]
[31m   1e560:	ebffabc8 	bl	9488 <strcpy@plt>[0m
   1e564:	e584a028 	str	sl, [r4, #40]	; 0x28
   1e568:	eaffffda 	b	1e4d8 <_start+0x14ae0>

[0m
[[0;33m*[0m] Function [0;33mstrcpy[0m used [0;33m21[0m times [0;33mdnsmasq[0m

