[[0;33m*[0m] Binary protection state of [0;33mlibip6tc.so.0.0.0[0m
[REF] s12

  	RELRO          CANARY            NX           PIE       RPATH        RUNPATH      SYMBOLS      
  	[31mNo RELRO[0m       [31mNo Canary found[0m   [32mNX enabled[0m   [33mDSO[0m          [32mNo RPATH[0m     [32mNo RUNPATH[0m   [31mSymbols[0m

[0m
[[0;33m*[0m] Function [0;33mprintf[0m tear down of [0;33mlibip6tc.so.0.0.0[0m

    3fa8:	e1a00003 	mov	r0, r3
    3fac:	e8bd0010 	ldmfd	sp!, {r4}
    3fb0:	e12fff1e 	bx	lr

00003fb4 <dump_entries6>:
    3fb4:	e92d4ff0 	push	{r4, r5, r6, r7, r8, r9, sl, fp, lr}
    3fb8:	e24dd074 	sub	sp, sp, #116	; 0x74
    3fbc:	e59f54d8 	ldr	r5, [pc, #1240]	; 449c <dump_entries6+0x4e8>
    3fc0:	e590307c 	ldr	r3, [r0, #124]	; 0x7c
    3fc4:	e59f24d4 	ldr	r2, [pc, #1236]	; 44a0 <dump_entries6+0x4ec>
    3fc8:	e08f5005 	add	r5, pc, r5
    3fcc:	e58d000c 	str	r0, [sp, #12]
    3fd0:	e59f04cc 	ldr	r0, [pc, #1228]	; 44a4 <dump_entries6+0x4f0>
    3fd4:	e7951002 	ldr	r1, [r5, r2]
    3fd8:	e5932020 	ldr	r2, [r3, #32]
    3fdc:	e59f34c4 	ldr	r3, [pc, #1220]	; 44a8 <dump_entries6+0x4f4>
    3fe0:	e0850000 	add	r0, r5, r0
    3fe4:	e7851003 	str	r1, [r5, r3]
    3fe8:	e59f14bc 	ldr	r1, [pc, #1212]	; 44ac <dump_entries6+0x4f8>
    3fec:	e0851001 	add	r1, r5, r1
[31m    3ff0:	ebfff392 	bl	e40 <printf@plt>[0m
    3ff4:	e59d000c 	ldr	r0, [sp, #12]
    3ff8:	e2801028 	add	r1, r0, #40	; 0x28
    3ffc:	e59f04ac 	ldr	r0, [pc, #1196]	; 44b0 <dump_entries6+0x4fc>
    4000:	e0850000 	add	r0, r5, r0
[31m    4004:	ebfff38d 	bl	e40 <printf@plt>[0m
    4008:	e59d000c 	ldr	r0, [sp, #12]
    400c:	e59d200c 	ldr	r2, [sp, #12]
    4010:	e5903054 	ldr	r3, [r0, #84]	; 0x54
    4014:	e590e058 	ldr	lr, [r0, #88]	; 0x58
    4018:	e590c05c 	ldr	ip, [r0, #92]	; 0x5c
    401c:	e59f0490 	ldr	r0, [pc, #1168]	; 44b4 <dump_entries6+0x500>
    4020:	e592104c 	ldr	r1, [r2, #76]	; 0x4c
    4024:	e5922050 	ldr	r2, [r2, #80]	; 0x50
    4028:	e0850000 	add	r0, r5, r0
    402c:	e58de000 	str	lr, [sp]
    4030:	e58dc004 	str	ip, [sp, #4]
[31m    4034:	ebfff381 	bl	e40 <printf@plt>[0m
    4038:	e59d000c 	ldr	r0, [sp, #12]
    403c:	e59d200c 	ldr	r2, [sp, #12]
    4040:	e5903068 	ldr	r3, [r0, #104]	; 0x68
    4044:	e590e06c 	ldr	lr, [r0, #108]	; 0x6c
    4048:	e590c070 	ldr	ip, [r0, #112]	; 0x70
    404c:	e59f0464 	ldr	r0, [pc, #1124]	; 44b8 <dump_entries6+0x504>
    4050:	e5921060 	ldr	r1, [r2, #96]	; 0x60
    4054:	e5922064 	ldr	r2, [r2, #100]	; 0x64
    4058:	e0850000 	add	r0, r5, r0
    405c:	e58de000 	str	lr, [sp]
    4060:	e58dc004 	str	ip, [sp, #4]
[31m    4064:	ebfff375 	bl	e40 <printf@plt>[0m
    4068:	e59d100c 	ldr	r1, [sp, #12]
    406c:	e591207c 	ldr	r2, [r1, #124]	; 0x7c
--
    40d8:	e59f0400 	ldr	r0, [pc, #1024]	; 44e0 <dump_entries6+0x52c>
    40dc:	e58d3020 	str	r3, [sp, #32]
    40e0:	e59f33fc 	ldr	r3, [pc, #1020]	; 44e4 <dump_entries6+0x530>
    40e4:	e58d0030 	str	r0, [sp, #48]	; 0x30
    40e8:	e59f03f8 	ldr	r0, [pc, #1016]	; 44e8 <dump_entries6+0x534>
    40ec:	e0853003 	add	r3, r5, r3
    40f0:	e58d3040 	str	r3, [sp, #64]	; 0x40
    40f4:	e59f33f0 	ldr	r3, [pc, #1008]	; 44ec <dump_entries6+0x538>
    40f8:	e58d003c 	str	r0, [sp, #60]	; 0x3c
    40fc:	e59f03ec 	ldr	r0, [pc, #1004]	; 44f0 <dump_entries6+0x53c>
    4100:	e58d3028 	str	r3, [sp, #40]	; 0x28
    4104:	e59f33e8 	ldr	r3, [pc, #1000]	; 44f4 <dump_entries6+0x540>
    4108:	e58d0038 	str	r0, [sp, #56]	; 0x38
    410c:	e58d3034 	str	r3, [sp, #52]	; 0x34
    4110:	e59f33e0 	ldr	r3, [pc, #992]	; 44f8 <dump_entries6+0x544>
    4114:	e58d302c 	str	r3, [sp, #44]	; 0x2c
    4118:	e59d3014 	ldr	r3, [sp, #20]
    411c:	e0622004 	rsb	r2, r2, r4
    4120:	e284a020 	add	sl, r4, #32
    4124:	e0850003 	add	r0, r5, r3
[31m    4128:	ebfff344 	bl	e40 <printf@plt>[0m
    412c:	e59d1010 	ldr	r1, [sp, #16]
    4130:	e0850001 	add	r0, r5, r1
    4134:	ebfff34d 	bl	e70 <puts@plt>
    4138:	e1a02007 	mov	r2, r7
    413c:	e3a03028 	mov	r3, #40	; 0x28
    4140:	e1a01004 	mov	r1, r4
    4144:	e3a0000a 	mov	r0, #10
    4148:	ebfff37e 	bl	f48 <inet_ntop@plt>
    414c:	e1a00007 	mov	r0, r7
    4150:	ebfff346 	bl	e70 <puts@plt>
    4154:	e7953009 	ldr	r3, [r5, r9]
    4158:	e3a0002f 	mov	r0, #47	; 0x2f
    415c:	e5931000 	ldr	r1, [r3]
    4160:	ebfff36f 	bl	f24 <fputc@plt>
    4164:	e1a0000a 	mov	r0, sl
    4168:	ebfff361 	bl	ef4 <ipv6_prefix_length@plt>
    416c:	e3700001 	cmn	r0, #1
    4170:	e1a01000 	mov	r1, r0
    4174:	0a0000af 	beq	4438 <dump_entries6+0x484>
    4178:	e59d0018 	ldr	r0, [sp, #24]
[31m    417c:	ebfff32f 	bl	e40 <printf@plt>[0m
    4180:	e795a009 	ldr	sl, [r5, r9]
    4184:	e3a0000a 	mov	r0, #10
--
    4190:	ebfff363 	bl	f24 <fputc@plt>
    4194:	e59d201c 	ldr	r2, [sp, #28]
    4198:	e0850002 	add	r0, r5, r2
    419c:	ebfff333 	bl	e70 <puts@plt>
    41a0:	e1a02007 	mov	r2, r7
    41a4:	e3a03028 	mov	r3, #40	; 0x28
    41a8:	e2841010 	add	r1, r4, #16
    41ac:	e3a0000a 	mov	r0, #10
    41b0:	ebfff364 	bl	f48 <inet_ntop@plt>
    41b4:	e1a00007 	mov	r0, r7
    41b8:	ebfff32c 	bl	e70 <puts@plt>
    41bc:	e59a1000 	ldr	r1, [sl]
    41c0:	e3a0002f 	mov	r0, #47	; 0x2f
    41c4:	ebfff356 	bl	f24 <fputc@plt>
    41c8:	e1a0000b 	mov	r0, fp
    41cc:	ebfff348 	bl	ef4 <ipv6_prefix_length@plt>
    41d0:	e3700001 	cmn	r0, #1
    41d4:	e1a01000 	mov	r1, r0
    41d8:	0a00008e 	beq	4418 <dump_entries6+0x464>
    41dc:	e59d0018 	ldr	r0, [sp, #24]
[31m    41e0:	ebfff316 	bl	e40 <printf@plt>[0m
    41e4:	e7953009 	ldr	r3, [r5, r9]
    41e8:	e3a0000a 	mov	r0, #10
    41ec:	e284b05f 	add	fp, r4, #95	; 0x5f
    41f0:	e3a0a000 	mov	sl, #0
    41f4:	e5931000 	ldr	r1, [r3]
    41f8:	ebfff349 	bl	f24 <fputc@plt>
    41fc:	e59d3020 	ldr	r3, [sp, #32]
    4200:	e2841040 	add	r1, r4, #64	; 0x40
    4204:	e0850003 	add	r0, r5, r3
[31m    4208:	ebfff30c 	bl	e40 <printf@plt>[0m
    420c:	e5fb0001 	ldrb	r0, [fp, #1]!
    4210:	e28aa001 	add	sl, sl, #1
    4214:	e3500000 	cmp	r0, #0
    4218:	03a0002e 	moveq	r0, #46	; 0x2e
    421c:	13a00058 	movne	r0, #88	; 0x58
    4220:	ebfff300 	bl	e28 <putchar@plt>
    4224:	e35a0010 	cmp	sl, #16
    4228:	1afffff7 	bne	420c <dump_entries6+0x258>
    422c:	e59d1024 	ldr	r1, [sp, #36]	; 0x24
    4230:	e284b06f 	add	fp, r4, #111	; 0x6f
    4234:	e3a0a000 	mov	sl, #0
    4238:	e0850001 	add	r0, r5, r1
    423c:	e2841050 	add	r1, r4, #80	; 0x50
[31m    4240:	ebfff2fe 	bl	e40 <printf@plt>[0m
    4244:	e5fb0001 	ldrb	r0, [fp, #1]!
    4248:	e28aa001 	add	sl, sl, #1
    424c:	e3500000 	cmp	r0, #0
    4250:	03a0002e 	moveq	r0, #46	; 0x2e
    4254:	13a00058 	movne	r0, #88	; 0x58
    4258:	ebfff2f2 	bl	e28 <putchar@plt>
    425c:	e35a0010 	cmp	sl, #16
    4260:	1afffff7 	bne	4244 <dump_entries6+0x290>
    4264:	e59d2028 	ldr	r2, [sp, #40]	; 0x28
    4268:	e1d418b0 	ldrh	r1, [r4, #128]	; 0x80
    426c:	e0850002 	add	r0, r5, r2
[31m    4270:	ebfff2f2 	bl	e40 <printf@plt>[0m
    4274:	e5d41083 	ldrb	r1, [r4, #131]	; 0x83
    4278:	e3110002 	tst	r1, #2
    427c:	1a000060 	bne	4404 <dump_entries6+0x450>
    4280:	e59d3030 	ldr	r3, [sp, #48]	; 0x30
    4284:	e0850003 	add	r0, r5, r3
[31m    4288:	ebfff2ec 	bl	e40 <printf@plt>[0m
    428c:	e59d2034 	ldr	r2, [sp, #52]	; 0x34
    4290:	e5d41084 	ldrb	r1, [r4, #132]	; 0x84
    4294:	e0850002 	add	r0, r5, r2
[31m    4298:	ebfff2e8 	bl	e40 <printf@plt>[0m
    429c:	e59d103c 	ldr	r1, [sp, #60]	; 0x3c
    42a0:	e1c4aad0 	ldrd	sl, [r4, #160]	; 0xa0
    42a4:	e1c429d8 	ldrd	r2, [r4, #152]	; 0x98
    42a8:	e0850001 	add	r0, r5, r1
    42ac:	e1cda0f0 	strd	sl, [sp]
[31m    42b0:	ebfff2e2 	bl	e40 <printf@plt>[0m
    42b4:	e59d202c 	ldr	r2, [sp, #44]	; 0x2c
    42b8:	e5941088 	ldr	r1, [r4, #136]	; 0x88
    42bc:	e0850002 	add	r0, r5, r2
[31m    42c0:	ebfff2de 	bl	e40 <printf@plt>[0m
    42c4:	e1d438bc 	ldrh	r3, [r4, #140]	; 0x8c
    42c8:	e35300a8 	cmp	r3, #168	; 0xa8
    42cc:	9a000009 	bls	42f8 <dump_entries6+0x344>
    42d0:	e3a0a0a8 	mov	sl, #168	; 0xa8
    42d4:	e084100a 	add	r1, r4, sl
    42d8:	e1a00006 	mov	r0, r6
    42dc:	e2811002 	add	r1, r1, #2
[31m    42e0:	ebfff2d6 	bl	e40 <printf@plt>[0m
    42e4:	e19420ba 	ldrh	r2, [r4, sl]
    42e8:	e1d438bc 	ldrh	r3, [r4, #140]	; 0x8c
    42ec:	e08aa002 	add	sl, sl, r2
    42f0:	e15a0003 	cmp	sl, r3
    42f4:	3afffff6 	bcc	42d4 <dump_entries6+0x320>
    42f8:	e59d1038 	ldr	r1, [sp, #56]	; 0x38
    42fc:	e084a003 	add	sl, r4, r3
    4300:	e28ab002 	add	fp, sl, #2
    4304:	e19420b3 	ldrh	r2, [r4, r3]
    4308:	e0850001 	add	r0, r5, r1
    430c:	e1a0100b 	mov	r1, fp
[31m    4310:	ebfff2ca 	bl	e40 <printf@plt>[0m
    4314:	e5da3002 	ldrb	r3, [sl, #2]
    4318:	e3530000 	cmp	r3, #0
    431c:	1a00002e 	bne	43dc <dump_entries6+0x428>
    4320:	e59a1020 	ldr	r1, [sl, #32]
    4324:	e3510000 	cmp	r1, #0
    4328:	aa00004a 	bge	4458 <dump_entries6+0x4a4>
    432c:	e3710002 	cmn	r1, #2
    4330:	0a000051 	beq	447c <dump_entries6+0x4c8>
    4334:	e3710001 	cmn	r1, #1
    4338:	0a00004c 	beq	4470 <dump_entries6+0x4bc>
    433c:	e3710005 	cmn	r1, #5
    4340:	0a000052 	beq	4490 <dump_entries6+0x4dc>
    4344:	e59f11b0 	ldr	r1, [pc, #432]	; 44fc <dump_entries6+0x548>
    4348:	e0851001 	add	r1, r5, r1
    434c:	e59f01ac 	ldr	r0, [pc, #428]	; 4500 <dump_entries6+0x54c>
    4350:	e0850000 	add	r0, r5, r0
[31m    4354:	ebfff2b9 	bl	e40 <printf@plt>[0m
    4358:	e3a0000a 	mov	r0, #10
    435c:	ebfff2b1 	bl	e28 <putchar@plt>
--
    43ac:	e1dcc8be 	ldrh	ip, [ip, #142]	; 0x8e
    43b0:	e080000c 	add	r0, r0, ip
    43b4:	e1530000 	cmp	r3, r0
    43b8:	8afffff7 	bhi	439c <dump_entries6+0x3e8>
    43bc:	e59f3140 	ldr	r3, [pc, #320]	; 4504 <dump_entries6+0x550>
    43c0:	e0622004 	rsb	r2, r2, r4
    43c4:	e59f113c 	ldr	r1, [pc, #316]	; 4508 <dump_entries6+0x554>
    43c8:	e7953003 	ldr	r3, [r5, r3]
    43cc:	e0851001 	add	r1, r5, r1
    43d0:	e5930000 	ldr	r0, [r3]
[31m    43d4:	ebfff2b7 	bl	eb8 <fprintf@plt>[0m
    43d8:	ebfff2b0 	bl	ea0 <abort@plt>
    43dc:	e1a0000b 	mov	r0, fp
    43e0:	e59d1040 	ldr	r1, [sp, #64]	; 0x40
    43e4:	ebfff2c8 	bl	f0c <strcmp@plt>
    43e8:	e3500000 	cmp	r0, #0
    43ec:	1affffd9 	bne	4358 <dump_entries6+0x3a4>
    43f0:	e59f0114 	ldr	r0, [pc, #276]	; 450c <dump_entries6+0x558>
    43f4:	e28a1020 	add	r1, sl, #32
    43f8:	e0850000 	add	r0, r5, r0
[31m    43fc:	ebfff28f 	bl	e40 <printf@plt>[0m
    4400:	eaffffd4 	b	4358 <dump_entries6+0x3a4>
    4404:	e5d41082 	ldrb	r1, [r4, #130]	; 0x82
    4408:	e59d0044 	ldr	r0, [sp, #68]	; 0x44
[31m    440c:	ebfff28b 	bl	e40 <printf@plt>[0m
    4410:	e5d41083 	ldrb	r1, [r4, #131]	; 0x83
    4414:	eaffff99 	b	4280 <dump_entries6+0x2cc>
    4418:	e1a0100b 	mov	r1, fp
    441c:	e1a02007 	mov	r2, r7
    4420:	e3a03028 	mov	r3, #40	; 0x28
    4424:	e3a0000a 	mov	r0, #10
    4428:	ebfff2c6 	bl	f48 <inet_ntop@plt>
    442c:	e1a00007 	mov	r0, r7
    4430:	ebfff28e 	bl	e70 <puts@plt>
    4434:	eaffff6a 	b	41e4 <dump_entries6+0x230>
    4438:	e1a0100a 	mov	r1, sl
    443c:	e1a02007 	mov	r2, r7
    4440:	e3a03028 	mov	r3, #40	; 0x28
    4444:	e3a0000a 	mov	r0, #10
    4448:	ebfff2be 	bl	f48 <inet_ntop@plt>
    444c:	e1a00007 	mov	r0, r7
    4450:	ebfff286 	bl	e70 <puts@plt>
    4454:	eaffff49 	b	4180 <dump_entries6+0x1cc>
    4458:	e59f00b0 	ldr	r0, [pc, #176]	; 4510 <dump_entries6+0x55c>
    445c:	e0850000 	add	r0, r5, r0
[31m    4460:	ebfff276 	bl	e40 <printf@plt>[0m
    4464:	eaffffbb 	b	4358 <dump_entries6+0x3a4>
    4468:	e28dd074 	add	sp, sp, #116	; 0x74

[0m
[[0;33m*[0m] Function [0;33mprintf[0m used [0;33m20[0m times [0;33mlibip6tc.so.0.0.0[0m

