[[0;33m*[0m] Binary protection state of [0;33mlibnetconf.so[0m
[REF] s12

  	RELRO          CANARY            NX           PIE       RPATH        RUNPATH      SYMBOLS      
  	[31mNo RELRO[0m       [31mNo Canary found[0m   [32mNX enabled[0m   [33mDSO[0m          [32mNo RPATH[0m     [32mNo RUNPATH[0m   [32mNo Symbols[0m

[0m
[[0;33m*[0m] Function [0;33mprintf[0m tear down of [0;33mlibnetconf.so[0m

    6d50:	00000134 	andeq	r0, r0, r4, lsr r1
    6d54:	ffff7944 			; <UNDEFINED> instruction: 0xffff7944
    6d58:	fffffe54 			; <UNDEFINED> instruction: 0xfffffe54

00006d5c <dump_entries>:
    6d5c:	e92d4ff0 	push	{r4, r5, r6, r7, r8, r9, sl, fp, lr}
    6d60:	e24dd064 	sub	sp, sp, #100	; 0x64
    6d64:	e59f7474 	ldr	r7, [pc, #1140]	; 71e0 <dump_entries+0x484>
    6d68:	e590307c 	ldr	r3, [r0, #124]	; 0x7c
    6d6c:	e59f2470 	ldr	r2, [pc, #1136]	; 71e4 <dump_entries+0x488>
    6d70:	e08f7007 	add	r7, pc, r7
    6d74:	e58d0024 	str	r0, [sp, #36]	; 0x24
    6d78:	e59f0468 	ldr	r0, [pc, #1128]	; 71e8 <dump_entries+0x48c>
    6d7c:	e7971002 	ldr	r1, [r7, r2]
    6d80:	e5932020 	ldr	r2, [r3, #32]
    6d84:	e59f3460 	ldr	r3, [pc, #1120]	; 71ec <dump_entries+0x490>
    6d88:	e0870000 	add	r0, r7, r0
    6d8c:	e7871003 	str	r1, [r7, r3]
    6d90:	e59f1458 	ldr	r1, [pc, #1112]	; 71f0 <dump_entries+0x494>
    6d94:	e0871001 	add	r1, r7, r1
[31m    6d98:	ebffe886 	bl	fb8 <printf@plt>[0m
    6d9c:	e59d0024 	ldr	r0, [sp, #36]	; 0x24
    6da0:	e2801028 	add	r1, r0, #40	; 0x28
    6da4:	e59f0448 	ldr	r0, [pc, #1096]	; 71f4 <dump_entries+0x498>
    6da8:	e0870000 	add	r0, r7, r0
[31m    6dac:	ebffe881 	bl	fb8 <printf@plt>[0m
    6db0:	e59d8024 	ldr	r8, [sp, #36]	; 0x24
    6db4:	e59d2024 	ldr	r2, [sp, #36]	; 0x24
    6db8:	e59f0438 	ldr	r0, [pc, #1080]	; 71f8 <dump_entries+0x49c>
    6dbc:	e598e058 	ldr	lr, [r8, #88]	; 0x58
    6dc0:	e598c05c 	ldr	ip, [r8, #92]	; 0x5c
    6dc4:	e592104c 	ldr	r1, [r2, #76]	; 0x4c
    6dc8:	e0870000 	add	r0, r7, r0
    6dcc:	e5922050 	ldr	r2, [r2, #80]	; 0x50
    6dd0:	e5983054 	ldr	r3, [r8, #84]	; 0x54
    6dd4:	e58de000 	str	lr, [sp]
    6dd8:	e58dc004 	str	ip, [sp, #4]
[31m    6ddc:	ebffe875 	bl	fb8 <printf@plt>[0m
    6de0:	e59f0414 	ldr	r0, [pc, #1044]	; 71fc <dump_entries+0x4a0>
    6de4:	e598e06c 	ldr	lr, [r8, #108]	; 0x6c
    6de8:	e598c070 	ldr	ip, [r8, #112]	; 0x70
    6dec:	e5982064 	ldr	r2, [r8, #100]	; 0x64
    6df0:	e0870000 	add	r0, r7, r0
    6df4:	e5983068 	ldr	r3, [r8, #104]	; 0x68
    6df8:	e5981060 	ldr	r1, [r8, #96]	; 0x60
    6dfc:	e58de000 	str	lr, [sp]
    6e00:	e58dc004 	str	ip, [sp, #4]
[31m    6e04:	ebffe86b 	bl	fb8 <printf@plt>[0m
    6e08:	e598207c 	ldr	r2, [r8, #124]	; 0x7c
    6e0c:	e5923020 	ldr	r3, [r2, #32]
--
    6e74:	e0873003 	add	r3, r7, r3
    6e78:	e59f83a8 	ldr	r8, [pc, #936]	; 7228 <dump_entries+0x4cc>
    6e7c:	e58d3058 	str	r3, [sp, #88]	; 0x58
    6e80:	e59f33a4 	ldr	r3, [pc, #932]	; 722c <dump_entries+0x4d0>
    6e84:	e58d003c 	str	r0, [sp, #60]	; 0x3c
    6e88:	e0878008 	add	r8, r7, r8
    6e8c:	e58d9044 	str	r9, [sp, #68]	; 0x44
    6e90:	e58d3040 	str	r3, [sp, #64]	; 0x40
    6e94:	e59f0394 	ldr	r0, [pc, #916]	; 7230 <dump_entries+0x4d4>
    6e98:	e59f3394 	ldr	r3, [pc, #916]	; 7234 <dump_entries+0x4d8>
    6e9c:	e59f9394 	ldr	r9, [pc, #916]	; 7238 <dump_entries+0x4dc>
    6ea0:	e58d0048 	str	r0, [sp, #72]	; 0x48
    6ea4:	e58d304c 	str	r3, [sp, #76]	; 0x4c
    6ea8:	e58d9050 	str	r9, [sp, #80]	; 0x50
    6eac:	e58d801c 	str	r8, [sp, #28]
    6eb0:	e59d902c 	ldr	r9, [sp, #44]	; 0x2c
    6eb4:	e0622004 	rsb	r2, r2, r4
    6eb8:	e284602f 	add	r6, r4, #47	; 0x2f
    6ebc:	e3a05000 	mov	r5, #0
    6ec0:	e0870009 	add	r0, r7, r9
[31m    6ec4:	ebffe83b 	bl	fb8 <printf@plt>[0m
    6ec8:	e594c008 	ldr	ip, [r4, #8]
    6ecc:	e5943000 	ldr	r3, [r4]
    6ed0:	e59d1030 	ldr	r1, [sp, #48]	; 0x30
    6ed4:	e6bfcf3c 	rev	ip, ip
    6ed8:	e6bf3f33 	rev	r3, r3
    6edc:	e1a0ec2c 	lsr	lr, ip, #24
    6ee0:	e20320ff 	and	r2, r3, #255	; 0xff
    6ee4:	e7e7985c 	ubfx	r9, ip, #16, #8
    6ee8:	e7e7a45c 	ubfx	sl, ip, #8, #8
    6eec:	e0870001 	add	r0, r7, r1
    6ef0:	e20cc0ff 	and	ip, ip, #255	; 0xff
    6ef4:	e1a01c23 	lsr	r1, r3, #24
    6ef8:	e58d2000 	str	r2, [sp]
    6efc:	e7e72853 	ubfx	r2, r3, #16, #8
    6f00:	e58de004 	str	lr, [sp, #4]
    6f04:	e7e73453 	ubfx	r3, r3, #8, #8
    6f08:	e58d9008 	str	r9, [sp, #8]
    6f0c:	e58da00c 	str	sl, [sp, #12]
    6f10:	e58dc010 	str	ip, [sp, #16]
[31m    6f14:	ebffe827 	bl	fb8 <printf@plt>[0m
    6f18:	e594c00c 	ldr	ip, [r4, #12]
    6f1c:	e5943004 	ldr	r3, [r4, #4]
    6f20:	e59d2034 	ldr	r2, [sp, #52]	; 0x34
    6f24:	e6bfcf3c 	rev	ip, ip
    6f28:	e6bf3f33 	rev	r3, r3
    6f2c:	e1a0ec2c 	lsr	lr, ip, #24
    6f30:	e0870002 	add	r0, r7, r2
    6f34:	e1a01c23 	lsr	r1, r3, #24
    6f38:	e20320ff 	and	r2, r3, #255	; 0xff
    6f3c:	e58de004 	str	lr, [sp, #4]
    6f40:	e7e7985c 	ubfx	r9, ip, #16, #8
    6f44:	e58d2000 	str	r2, [sp]
    6f48:	e7e7a45c 	ubfx	sl, ip, #8, #8
    6f4c:	e7e72853 	ubfx	r2, r3, #16, #8
    6f50:	e20cc0ff 	and	ip, ip, #255	; 0xff
    6f54:	e7e73453 	ubfx	r3, r3, #8, #8
    6f58:	e58dc010 	str	ip, [sp, #16]
    6f5c:	e58d9008 	str	r9, [sp, #8]
    6f60:	e58da00c 	str	sl, [sp, #12]
[31m    6f64:	ebffe813 	bl	fb8 <printf@plt>[0m
    6f68:	e59d3028 	ldr	r3, [sp, #40]	; 0x28
    6f6c:	e2841010 	add	r1, r4, #16
    6f70:	e0870003 	add	r0, r7, r3
[31m    6f74:	ebffe80f 	bl	fb8 <printf@plt>[0m
    6f78:	e59d801c 	ldr	r8, [sp, #28]
    6f7c:	e5f60001 	ldrb	r0, [r6, #1]!
    6f80:	e2855001 	add	r5, r5, #1
    6f84:	e3500000 	cmp	r0, #0
    6f88:	03a0002e 	moveq	r0, #46	; 0x2e
    6f8c:	13a00058 	movne	r0, #88	; 0x58
    6f90:	ebffe802 	bl	fa0 <putchar@plt>
    6f94:	e3550010 	cmp	r5, #16
    6f98:	1afffff7 	bne	6f7c <dump_entries+0x220>
    6f9c:	e58d801c 	str	r8, [sp, #28]
    6fa0:	e2841020 	add	r1, r4, #32
    6fa4:	e59d8038 	ldr	r8, [sp, #56]	; 0x38
    6fa8:	e284603f 	add	r6, r4, #63	; 0x3f
    6fac:	e3a05000 	mov	r5, #0
    6fb0:	e0870008 	add	r0, r7, r8
[31m    6fb4:	ebffe7ff 	bl	fb8 <printf@plt>[0m
    6fb8:	e59d801c 	ldr	r8, [sp, #28]
    6fbc:	e5f60001 	ldrb	r0, [r6, #1]!
    6fc0:	e2855001 	add	r5, r5, #1
    6fc4:	e3500000 	cmp	r0, #0
    6fc8:	03a0002e 	moveq	r0, #46	; 0x2e
    6fcc:	13a00058 	movne	r0, #88	; 0x58
    6fd0:	ebffe7f2 	bl	fa0 <putchar@plt>
    6fd4:	e3550010 	cmp	r5, #16
    6fd8:	1afffff7 	bne	6fbc <dump_entries+0x260>
    6fdc:	e59d903c 	ldr	r9, [sp, #60]	; 0x3c
    6fe0:	e1d415b0 	ldrh	r1, [r4, #80]	; 0x50
    6fe4:	e58d801c 	str	r8, [sp, #28]
    6fe8:	e0870009 	add	r0, r7, r9
[31m    6fec:	ebffe7f1 	bl	fb8 <printf@plt>[0m
    6ff0:	e59d2040 	ldr	r2, [sp, #64]	; 0x40
    6ff4:	e5d41052 	ldrb	r1, [r4, #82]	; 0x52
    6ff8:	e0870002 	add	r0, r7, r2
[31m    6ffc:	ebffe7ed 	bl	fb8 <printf@plt>[0m
    7000:	e59d3044 	ldr	r3, [sp, #68]	; 0x44
    7004:	e5d41053 	ldrb	r1, [r4, #83]	; 0x53
    7008:	e0870003 	add	r0, r7, r3
[31m    700c:	ebffe7e9 	bl	fb8 <printf@plt>[0m
    7010:	e1c486d0 	ldrd	r8, [r4, #96]	; 0x60
    7014:	e59d1048 	ldr	r1, [sp, #72]	; 0x48
    7018:	e1a03009 	mov	r3, r9
    701c:	e1a02008 	mov	r2, r8
    7020:	e1c486d8 	ldrd	r8, [r4, #104]	; 0x68
    7024:	e0870001 	add	r0, r7, r1
    7028:	e1cd80f0 	strd	r8, [sp]
[31m    702c:	ebffe7e1 	bl	fb8 <printf@plt>[0m
    7030:	e59d904c 	ldr	r9, [sp, #76]	; 0x4c
    7034:	e5941054 	ldr	r1, [r4, #84]	; 0x54
    7038:	e0870009 	add	r0, r7, r9
[31m    703c:	ebffe7dd 	bl	fb8 <printf@plt>[0m
    7040:	e1d435b8 	ldrh	r3, [r4, #88]	; 0x58
    7044:	e3530070 	cmp	r3, #112	; 0x70
    7048:	9a00000b 	bls	707c <dump_entries+0x320>
    704c:	e59d801c 	ldr	r8, [sp, #28]
    7050:	e3a05070 	mov	r5, #112	; 0x70
    7054:	e0841005 	add	r1, r4, r5
    7058:	e1a00008 	mov	r0, r8
    705c:	e2811002 	add	r1, r1, #2
[31m    7060:	ebffe7d4 	bl	fb8 <printf@plt>[0m
    7064:	e19420b5 	ldrh	r2, [r4, r5]
    7068:	e1d435b8 	ldrh	r3, [r4, #88]	; 0x58
    706c:	e0855002 	add	r5, r5, r2
    7070:	e1550003 	cmp	r5, r3
    7074:	3afffff6 	bcc	7054 <dump_entries+0x2f8>
    7078:	e58d801c 	str	r8, [sp, #28]
    707c:	e59d1050 	ldr	r1, [sp, #80]	; 0x50
    7080:	e0845003 	add	r5, r4, r3
    7084:	e2856002 	add	r6, r5, #2
    7088:	e19420b3 	ldrh	r2, [r4, r3]
    708c:	e0870001 	add	r0, r7, r1
    7090:	e1a01006 	mov	r1, r6
[31m    7094:	ebffe7c7 	bl	fb8 <printf@plt>[0m
    7098:	e5d53002 	ldrb	r3, [r5, #2]
    709c:	e3530000 	cmp	r3, #0
    70a0:	1a00002a 	bne	7150 <dump_entries+0x3f4>
    70a4:	e5951020 	ldr	r1, [r5, #32]
    70a8:	e3510000 	cmp	r1, #0
    70ac:	aa000038 	bge	7194 <dump_entries+0x438>
    70b0:	e3710002 	cmn	r1, #2
    70b4:	0a00003e 	beq	71b4 <dump_entries+0x458>
    70b8:	e3710001 	cmn	r1, #1
    70bc:	0a000039 	beq	71a8 <dump_entries+0x44c>
    70c0:	e3710004 	cmn	r1, #4
    70c4:	0a00003f 	beq	71c8 <dump_entries+0x46c>
    70c8:	e3710005 	cmn	r1, #5
    70cc:	0a000040 	beq	71d4 <dump_entries+0x478>
    70d0:	e59f1164 	ldr	r1, [pc, #356]	; 723c <dump_entries+0x4e0>
    70d4:	e0871001 	add	r1, r7, r1
    70d8:	e59f0160 	ldr	r0, [pc, #352]	; 7240 <dump_entries+0x4e4>
    70dc:	e0870000 	add	r0, r7, r0
[31m    70e0:	ebffe7b4 	bl	fb8 <printf@plt>[0m
    70e4:	e3a0000a 	mov	r0, #10
    70e8:	ebffe7ac 	bl	fa0 <putchar@plt>
--
    711c:	e3a01000 	mov	r1, #0
    7120:	e1a0c002 	mov	ip, r2
    7124:	e1a00001 	mov	r0, r1
    7128:	e1dcc5ba 	ldrh	ip, [ip, #90]	; 0x5a
    712c:	e080000c 	add	r0, r0, ip
    7130:	e1530000 	cmp	r3, r0
    7134:	9a00000e 	bls	7174 <dump_entries+0x418>
    7138:	e082c000 	add	ip, r2, r0
    713c:	e2811001 	add	r1, r1, #1
    7140:	e154000c 	cmp	r4, ip
    7144:	1afffff7 	bne	7128 <dump_entries+0x3cc>
    7148:	e58d801c 	str	r8, [sp, #28]
    714c:	eaffff57 	b	6eb0 <dump_entries+0x154>
    7150:	e1a00006 	mov	r0, r6
    7154:	e59d1054 	ldr	r1, [sp, #84]	; 0x54
    7158:	ebffe7e1 	bl	10e4 <strcmp@plt>
    715c:	e3500000 	cmp	r0, #0
    7160:	1affffdf 	bne	70e4 <dump_entries+0x388>
    7164:	e59d005c 	ldr	r0, [sp, #92]	; 0x5c
    7168:	e2851020 	add	r1, r5, #32
[31m    716c:	ebffe791 	bl	fb8 <printf@plt>[0m
    7170:	eaffffdb 	b	70e4 <dump_entries+0x388>
    7174:	e59f30c8 	ldr	r3, [pc, #200]	; 7244 <dump_entries+0x4e8>
    7178:	e0622004 	rsb	r2, r2, r4
    717c:	e59f10c4 	ldr	r1, [pc, #196]	; 7248 <dump_entries+0x4ec>
    7180:	e7973003 	ldr	r3, [r7, r3]
    7184:	e0871001 	add	r1, r7, r1
    7188:	e5930000 	ldr	r0, [r3]
[31m    718c:	ebffe7b3 	bl	1060 <fprintf@plt>[0m
    7190:	ebffe7a9 	bl	103c <abort@plt>
    7194:	e59d0058 	ldr	r0, [sp, #88]	; 0x58
[31m    7198:	ebffe786 	bl	fb8 <printf@plt>[0m
    719c:	eaffffd0 	b	70e4 <dump_entries+0x388>
    71a0:	e28dd064 	add	sp, sp, #100	; 0x64

[0m
[[0;33m*[0m] Function [0;33mprintf[0m used [0;33m19[0m times [0;33mlibnetconf.so[0m

