[[0;33m*[0m] Binary protection state of [0;33mrc[0m
[REF] s12

  	RELRO          CANARY            NX           PIE       RPATH        RUNPATH      SYMBOLS      
  	[31mNo RELRO[0m       [31mNo Canary found[0m   [32mNX enabled[0m   [31mNo PIE[0m       [32mNo RPATH[0m     [32mNo RUNPATH[0m   [32mNo Symbols[0m

[0m
[[0;33m*[0m] Function [0;33mstrcat[0m tear down of [0;33mrc[0m

    ad6c:	ebfffd0f 	bl	a1b0 <snprintf@plt>
    ad70:	e5994000 	ldr	r4, [r9]
    ad74:	e3540000 	cmp	r4, #0
    ad78:	0a000015 	beq	add4 <_start@@Base+0x6d8>
    ad7c:	e59f5c5c 	ldr	r5, [pc, #3164]	; b9e0 <_start@@Base+0x12e4>
    ad80:	ea000002 	b	ad90 <_start@@Base+0x694>
    ad84:	e5b5400c 	ldr	r4, [r5, #12]!
    ad88:	e3540000 	cmp	r4, #0
    ad8c:	0a000010 	beq	add4 <_start@@Base+0x6d8>
    ad90:	e3a02003 	mov	r2, #3
    ad94:	e1a00004 	mov	r0, r4
    ad98:	e59f1c74 	ldr	r1, [pc, #3188]	; ba14 <_start@@Base+0x1318>
    ad9c:	ebfffcd6 	bl	a0fc <strncmp@plt>
    ada0:	e3500000 	cmp	r0, #0
    ada4:	1afffff6 	bne	ad84 <_start@@Base+0x688>
    ada8:	e1a01006 	mov	r1, r6
    adac:	e1a00007 	mov	r0, r7
    adb0:	ebfffe42 	bl	a6c0 <strcpy@plt>
    adb4:	e2841003 	add	r1, r4, #3
    adb8:	e1a00007 	mov	r0, r7
[31m    adbc:	ebfffca4 	bl	a054 <strcat@plt>[0m
    adc0:	e1a00007 	mov	r0, r7
    adc4:	ebfffce4 	bl	a15c <nvram_unset@plt>
--
    ade4:	ebfffcf1 	bl	a1b0 <snprintf@plt>
    ade8:	e5994000 	ldr	r4, [r9]
    adec:	e3540000 	cmp	r4, #0
    adf0:	0a000015 	beq	ae4c <_start@@Base+0x750>
    adf4:	e59f5be4 	ldr	r5, [pc, #3044]	; b9e0 <_start@@Base+0x12e4>
    adf8:	ea000002 	b	ae08 <_start@@Base+0x70c>
    adfc:	e5b5400c 	ldr	r4, [r5, #12]!
    ae00:	e3540000 	cmp	r4, #0
    ae04:	0a000010 	beq	ae4c <_start@@Base+0x750>
    ae08:	e3a02004 	mov	r2, #4
    ae0c:	e1a00004 	mov	r0, r4
    ae10:	e59f1c04 	ldr	r1, [pc, #3076]	; ba1c <_start@@Base+0x1320>
    ae14:	ebfffcb8 	bl	a0fc <strncmp@plt>
    ae18:	e3500000 	cmp	r0, #0
    ae1c:	1afffff6 	bne	adfc <_start@@Base+0x700>
    ae20:	e1a01006 	mov	r1, r6
    ae24:	e1a00007 	mov	r0, r7
    ae28:	ebfffe24 	bl	a6c0 <strcpy@plt>
    ae2c:	e2841004 	add	r1, r4, #4
    ae30:	e1a00007 	mov	r0, r7
[31m    ae34:	ebfffc86 	bl	a054 <strcat@plt>[0m
    ae38:	e1a00007 	mov	r0, r7
    ae3c:	ebfffcc6 	bl	a15c <nvram_unset@plt>
--
    d608:	ebfff2e8 	bl	a1b0 <snprintf@plt>
    d60c:	e5994000 	ldr	r4, [r9]
    d610:	e3540000 	cmp	r4, #0
    d614:	0a000015 	beq	d670 <_start@@Base+0x2f74>
    d618:	e59f8788 	ldr	r8, [pc, #1928]	; dda8 <_start@@Base+0x36ac>
    d61c:	ea000002 	b	d62c <_start@@Base+0x2f30>
    d620:	e5b8400c 	ldr	r4, [r8, #12]!
    d624:	e3540000 	cmp	r4, #0
    d628:	0a000010 	beq	d670 <_start@@Base+0x2f74>
    d62c:	e3a02004 	mov	r2, #4
    d630:	e1a00004 	mov	r0, r4
    d634:	e59f1770 	ldr	r1, [pc, #1904]	; ddac <_start@@Base+0x36b0>
    d638:	ebfff2af 	bl	a0fc <strncmp@plt>
    d63c:	e3500000 	cmp	r0, #0
    d640:	1afffff6 	bne	d620 <_start@@Base+0x2f24>
    d644:	e1a0100a 	mov	r1, sl
    d648:	e1a00005 	mov	r0, r5
    d64c:	ebfff41b 	bl	a6c0 <strcpy@plt>
    d650:	e2841004 	add	r1, r4, #4
    d654:	e1a00005 	mov	r0, r5
[31m    d658:	ebfff27d 	bl	a054 <strcat@plt>[0m
    d65c:	e1a00005 	mov	r0, r5
    d660:	ebfff2bd 	bl	a15c <nvram_unset@plt>
--
    d730:	e59f1684 	ldr	r1, [pc, #1668]	; ddbc <_start@@Base+0x36c0>
    d734:	ebfff3d2 	bl	a684 <nvram_set@plt>
    d738:	e1a01004 	mov	r1, r4
    d73c:	e1a00005 	mov	r0, r5
    d740:	ebfff3de 	bl	a6c0 <strcpy@plt>
    d744:	e1a00005 	mov	r0, r5
    d748:	ebfff27d 	bl	a144 <strlen@plt>
    d74c:	e59f166c 	ldr	r1, [pc, #1644]	; ddc0 <_start@@Base+0x36c4>
    d750:	e0850000 	add	r0, r5, r0
    d754:	e3a02008 	mov	r2, #8
    d758:	ebfff222 	bl	9fe8 <memcpy@plt>
    d75c:	e1a00005 	mov	r0, r5
    d760:	e59f15cc 	ldr	r1, [pc, #1484]	; dd34 <_start@@Base+0x3638>
    d764:	ebfff3c6 	bl	a684 <nvram_set@plt>
    d768:	eafffdd1 	b	ceb4 <_start@@Base+0x27b8>
    d76c:	e1a01004 	mov	r1, r4
    d770:	e1a00005 	mov	r0, r5
    d774:	ebfff3d1 	bl	a6c0 <strcpy@plt>
    d778:	e2861004 	add	r1, r6, #4
    d77c:	e1a00005 	mov	r0, r5
[31m    d780:	ebfff233 	bl	a054 <strcat@plt>[0m
    d784:	e1a00005 	mov	r0, r5
    d788:	ebfff2b2 	bl	a258 <nvram_get@plt>
--
   1d9d8:	0affffe6 	beq	1d978 <_start@@Base+0x1327c>
   1d9dc:	e3a01000 	mov	r1, #0
   1d9e0:	e59d0058 	ldr	r0, [sp, #88]	; 0x58
   1d9e4:	e3a02080 	mov	r2, #128	; 0x80
   1d9e8:	e1a05001 	mov	r5, r1
   1d9ec:	e1a0b007 	mov	fp, r7
   1d9f0:	e1a07004 	mov	r7, r4
   1d9f4:	ebffb292 	bl	a444 <memset@plt>
   1d9f8:	e59d82b8 	ldr	r8, [sp, #696]	; 0x2b8
   1d9fc:	e59d4058 	ldr	r4, [sp, #88]	; 0x58
   1da00:	ea000002 	b	1da10 <_start@@Base+0x13314>
   1da04:	e2855001 	add	r5, r5, #1
   1da08:	e3550007 	cmp	r5, #7
   1da0c:	0a00021e 	beq	1e28c <_start@@Base+0x13b90>
   1da10:	e3a0c001 	mov	ip, #1
   1da14:	e018c51c 	ands	ip, r8, ip, lsl r5
   1da18:	0afffff9 	beq	1da04 <_start@@Base+0x13308>
   1da1c:	e59de064 	ldr	lr, [sp, #100]	; 0x64
   1da20:	e1a00004 	mov	r0, r4
   1da24:	e79e1105 	ldr	r1, [lr, r5, lsl #2]
[31m   1da28:	ebffb189 	bl	a054 <strcat@plt>[0m
   1da2c:	e1a00004 	mov	r0, r4
   1da30:	ebffb1c3 	bl	a144 <strlen@plt>
--
   1eefc:	e3a01000 	mov	r1, #0
   1ef00:	e59d0058 	ldr	r0, [sp, #88]	; 0x58
   1ef04:	e3a02080 	mov	r2, #128	; 0x80
   1ef08:	e1a05001 	mov	r5, r1
   1ef0c:	e3a0b001 	mov	fp, #1
   1ef10:	ebffad4b 	bl	a444 <memset@plt>
   1ef14:	e1a03007 	mov	r3, r7
   1ef18:	e59d92b8 	ldr	r9, [sp, #696]	; 0x2b8
   1ef1c:	e1a07004 	mov	r7, r4
   1ef20:	e59d4058 	ldr	r4, [sp, #88]	; 0x58
   1ef24:	ea000002 	b	1ef34 <_start@@Base+0x14838>
   1ef28:	e2855001 	add	r5, r5, #1
   1ef2c:	e3550007 	cmp	r5, #7
   1ef30:	0a000073 	beq	1f104 <_start@@Base+0x14a08>
   1ef34:	e019e51b 	ands	lr, r9, fp, lsl r5
   1ef38:	0afffffa 	beq	1ef28 <_start@@Base+0x1482c>
   1ef3c:	e59d0064 	ldr	r0, [sp, #100]	; 0x64
   1ef40:	e7901105 	ldr	r1, [r0, r5, lsl #2]
   1ef44:	e1a00004 	mov	r0, r4
   1ef48:	e58d3040 	str	r3, [sp, #64]	; 0x40
[31m   1ef4c:	ebffac40 	bl	a054 <strcat@plt>[0m
   1ef50:	e1a00004 	mov	r0, r4
   1ef54:	ebffac7a 	bl	a144 <strlen@plt>
--
   2221c:	e1cc30b0 	strh	r3, [ip]
   22220:	e5c5200e 	strb	r2, [r5, #14]
   22224:	ebffffd9 	bl	22190 <_start@@Base+0x17a94>
   22228:	e2503000 	subs	r3, r0, #0
   2222c:	b3e00000 	mvnlt	r0, #0
   22230:	ba0000c2 	blt	22540 <_start@@Base+0x17e44>
   22234:	e3a0100f 	mov	r1, #15
   22238:	e59f2454 	ldr	r2, [pc, #1108]	; 22694 <_start@@Base+0x17f98>
   2223c:	e1a00005 	mov	r0, r5
   22240:	e28d4f43 	add	r4, sp, #268	; 0x10c
   22244:	ebff9fd9 	bl	a1b0 <snprintf@plt>
   22248:	e59f3448 	ldr	r3, [pc, #1096]	; 22698 <_start@@Base+0x17f9c>
   2224c:	e1a0c004 	mov	ip, r4
   22250:	e893000f 	ldm	r3, {r0, r1, r2, r3}
   22254:	e8ac0007 	stmia	ip!, {r0, r1, r2}
   22258:	e1a01007 	mov	r1, r7
   2225c:	e1a02823 	lsr	r2, r3, #16
   22260:	e1cc30b0 	strh	r3, [ip]
   22264:	e1a00004 	mov	r0, r4
   22268:	e5cd211a 	strb	r2, [sp, #282]	; 0x11a
[31m   2226c:	ebff9f78 	bl	a054 <strcat@plt>[0m
   22270:	e1a00004 	mov	r0, r4
   22274:	e59f1420 	ldr	r1, [pc, #1056]	; 2269c <_start@@Base+0x17fa0>
--
   22744:	ebfffe91 	bl	22190 <_start@@Base+0x17a94>
   22748:	e2503000 	subs	r3, r0, #0
   2274c:	b3e00000 	mvnlt	r0, #0
   22750:	ba000038 	blt	22838 <_start@@Base+0x1813c>
   22754:	e3a0100f 	mov	r1, #15
   22758:	e59f2268 	ldr	r2, [pc, #616]	; 229c8 <_start@@Base+0x182cc>
   2275c:	e1a00005 	mov	r0, r5
   22760:	e28d4004 	add	r4, sp, #4
   22764:	ebff9e91 	bl	a1b0 <snprintf@plt>
   22768:	e1a00006 	mov	r0, r6
   2276c:	ebffc451 	bl	138b8 <_start@@Base+0x91bc>
   22770:	e59f3254 	ldr	r3, [pc, #596]	; 229cc <_start@@Base+0x182d0>
   22774:	e1a0c004 	mov	ip, r4
   22778:	e893000f 	ldm	r3, {r0, r1, r2, r3}
   2277c:	e8ac0007 	stmia	ip!, {r0, r1, r2}
   22780:	e1a01006 	mov	r1, r6
   22784:	e1a02823 	lsr	r2, r3, #16
   22788:	e1cc30b0 	strh	r3, [ip]
   2278c:	e1a00004 	mov	r0, r4
   22790:	e5cd2012 	strb	r2, [sp, #18]
[31m   22794:	ebff9e2e 	bl	a054 <strcat@plt>[0m
   22798:	e1a00004 	mov	r0, r4
   2279c:	ebff9f1f 	bl	a420 <unlink@plt>

[0m
[[0;33m*[0m] Function [0;33mstrcat[0m used [0;33m8[0m times [0;33mrc[0m

