[[0;33m*[0m] Binary protection state of [0;33mlibipt_ECN.so[0m
[REF] s12

  	RELRO          CANARY            NX           PIE       RPATH        RUNPATH      SYMBOLS      
  	[31mNo RELRO[0m       [31mNo Canary found[0m   [32mNX enabled[0m   [33mDSO[0m          [32mNo RPATH[0m     [32mNo RUNPATH[0m   [31mSymbols
	[31mNo RELRO[0m       [31mNo Canary found[0m   [32mNX enabled[0m   [33mDSO[0m          [32mNo RPATH[0m     [32mNo RUNPATH[0m   [32mNo Symbols[0m

[0m
[[0;33m*[0m] Function [0;33mprintf[0m tear down of [0;33mlibipt_ECN.so[0m

 6b0:	e5c53000 	strb	r3, [r5]
 6b4:	e5d43014 	ldrb	r3, [r4, #20]
 6b8:	e3530000 	cmp	r3, #0
 6bc:	15d53001 	ldrbne	r3, [r5, #1]
 6c0:	13833010 	orrne	r3, r3, #16
 6c4:	15c53001 	strbne	r3, [r5, #1]
 6c8:	e8bd8038 	pop	{r3, r4, r5, pc}
 6cc:	e92d4070 	push	{r4, r5, r6, lr}
 6d0:	e1a05001 	mov	r5, r1
 6d4:	e5d13020 	ldrb	r3, [r1, #32]
 6d8:	e2816020 	add	r6, r1, #32
 6dc:	e59f40a0 	ldr	r4, [pc, #160]	; 784 <__register_frame_info@plt+0x298>
 6e0:	e3130010 	tst	r3, #16
 6e4:	e08f4004 	add	r4, pc, r4
 6e8:	0a000006 	beq	708 <__register_frame_info@plt+0x21c>
 6ec:	e5d63001 	ldrb	r3, [r6, #1]
 6f0:	e3130010 	tst	r3, #16
 6f4:	1a00001a 	bne	764 <__register_frame_info@plt+0x278>
 6f8:	e59f0088 	ldr	r0, [pc, #136]	; 788 <__register_frame_info@plt+0x29c>
 6fc:	e0840000 	add	r0, r4, r0
[31m 700:	ebffff67 	bl	4a4 <printf@plt>[0m
 704:	e5d53020 	ldrb	r3, [r5, #32]
 708:	e3130020 	tst	r3, #32
 70c:	0a000006 	beq	72c <__register_frame_info@plt+0x240>
 710:	e5d63001 	ldrb	r3, [r6, #1]
 714:	e3130020 	tst	r3, #32
 718:	1a000015 	bne	774 <__register_frame_info@plt+0x288>
 71c:	e59f0068 	ldr	r0, [pc, #104]	; 78c <__register_frame_info@plt+0x2a0>
 720:	e0840000 	add	r0, r4, r0
[31m 724:	ebffff5e 	bl	4a4 <printf@plt>[0m
 728:	e5d53020 	ldrb	r3, [r5, #32]
 72c:	e3130001 	tst	r3, #1
 730:	08bd8070 	popeq	{r4, r5, r6, pc}
 734:	e5d63001 	ldrb	r3, [r6, #1]
 738:	e3130001 	tst	r3, #1
 73c:	1a000004 	bne	754 <__register_frame_info@plt+0x268>
 740:	e59f0048 	ldr	r0, [pc, #72]	; 790 <__register_frame_info@plt+0x2a4>
 744:	e5d61002 	ldrb	r1, [r6, #2]
 748:	e0840000 	add	r0, r4, r0
 74c:	e8bd4070 	pop	{r4, r5, r6, lr}
[31m 750:	eaffff53 	b	4a4 <printf@plt>[0m
 754:	e59f0038 	ldr	r0, [pc, #56]	; 794 <__register_frame_info@plt+0x2a8>
 758:	e0840000 	add	r0, r4, r0
[31m 75c:	ebffff50 	bl	4a4 <printf@plt>[0m
 760:	eafffff6 	b	740 <__register_frame_info@plt+0x254>
 764:	e59f0028 	ldr	r0, [pc, #40]	; 794 <__register_frame_info@plt+0x2a8>
 768:	e0840000 	add	r0, r4, r0
[31m 76c:	ebffff4c 	bl	4a4 <printf@plt>[0m
 770:	eaffffe0 	b	6f8 <__register_frame_info@plt+0x20c>
 774:	e59f0018 	ldr	r0, [pc, #24]	; 794 <__register_frame_info@plt+0x2a8>
 778:	e0840000 	add	r0, r4, r0
[31m 77c:	ebffff48 	bl	4a4 <printf@plt>[0m
 780:	eaffffe5 	b	71c <__register_frame_info@plt+0x230>
 784:	000084c4 	andeq	r8, r0, r4, asr #9
 788:	ffff7d40 			; <UNDEFINED> instruction: 0xffff7d40
 78c:	ffff7d50 			; <UNDEFINED> instruction: 0xffff7d50
 790:	ffff7d60 			; <UNDEFINED> instruction: 0xffff7d60
 794:	ffff7d3c 			; <UNDEFINED> instruction: 0xffff7d3c
 798:	e92d4070 	push	{r4, r5, r6, lr}
 79c:	e1a05001 	mov	r5, r1
 7a0:	e59f40c0 	ldr	r4, [pc, #192]	; 868 <__register_frame_info@plt+0x37c>
 7a4:	e2816020 	add	r6, r1, #32
 7a8:	e59f00bc 	ldr	r0, [pc, #188]	; 86c <__register_frame_info@plt+0x380>
 7ac:	e08f4004 	add	r4, pc, r4
 7b0:	e0840000 	add	r0, r4, r0
[31m 7b4:	ebffff3a 	bl	4a4 <printf@plt>[0m
 7b8:	e5d53020 	ldrb	r3, [r5, #32]
 7bc:	e3130010 	tst	r3, #16
 7c0:	0a000008 	beq	7e8 <__register_frame_info@plt+0x2fc>
 7c4:	e5d63001 	ldrb	r3, [r6, #1]
 7c8:	e3130010 	tst	r3, #16
 7cc:	1a000022 	bne	85c <__register_frame_info@plt+0x370>
 7d0:	e59f1098 	ldr	r1, [pc, #152]	; 870 <__register_frame_info@plt+0x384>
 7d4:	e0841001 	add	r1, r4, r1
 7d8:	e59f0094 	ldr	r0, [pc, #148]	; 874 <__register_frame_info@plt+0x388>
 7dc:	e0840000 	add	r0, r4, r0
[31m 7e0:	ebffff2f 	bl	4a4 <printf@plt>[0m
 7e4:	e5d53020 	ldrb	r3, [r5, #32]
 7e8:	e3130020 	tst	r3, #32
 7ec:	0a000008 	beq	814 <__register_frame_info@plt+0x328>
 7f0:	e5d63001 	ldrb	r3, [r6, #1]
 7f4:	e3130020 	tst	r3, #32
 7f8:	1a000014 	bne	850 <__register_frame_info@plt+0x364>
 7fc:	e59f106c 	ldr	r1, [pc, #108]	; 870 <__register_frame_info@plt+0x384>
 800:	e0841001 	add	r1, r4, r1
 804:	e59f006c 	ldr	r0, [pc, #108]	; 878 <__register_frame_info@plt+0x38c>
 808:	e0840000 	add	r0, r4, r0
[31m 80c:	ebffff24 	bl	4a4 <printf@plt>[0m
 810:	e5d53020 	ldrb	r3, [r5, #32]
 814:	e3130001 	tst	r3, #1

[0m
[[0;33m*[0m] Function [0;33mprintf[0m used [0;33m8[0m times [0;33mlibipt_ECN.so[0m

