[[0;33m*[0m] Binary protection state of [0;33mum_check_default[0m
[REF] s12

  	RELRO          CANARY            NX           PIE       RPATH        RUNPATH      SYMBOLS      
  	[31mNo RELRO[0m       [31mNo Canary found[0m   [32mNX enabled[0m   [31mNo PIE[0m       [32mNo RPATH[0m     [32mNo RUNPATH[0m   [31mSymbols[0m

[0m
[[0;33m*[0m] Function [0;33mstrcpy[0m tear down of [0;33mum_check_default[0m

    8ba4:	e3a03000 	mov	r3, #0
    8ba8:	e284c008 	add	ip, r4, #8
    8bac:	e2851004 	add	r1, r5, #4
    8bb0:	e28d20b0 	add	r2, sp, #176	; 0xb0
    8bb4:	e59f73bc 	ldr	r7, [pc, #956]	; 8f78 <check_wan_linkstatus+0x3e4>
    8bb8:	e5a23004 	str	r3, [r2, #4]!
    8bbc:	e4813004 	str	r3, [r1], #4
    8bc0:	e5a23004 	str	r3, [r2, #4]!
    8bc4:	e1c130b0 	strh	r3, [r1]
    8bc8:	e5823000 	str	r3, [r2]
    8bcc:	e58c3000 	str	r3, [ip]
    8bd0:	e59f03a4 	ldr	r0, [pc, #932]	; 8f7c <check_wan_linkstatus+0x3e8>
    8bd4:	e58d30bc 	str	r3, [sp, #188]	; 0xbc
    8bd8:	e58d30ac 	str	r3, [sp, #172]	; 0xac
    8bdc:	e58d30b0 	str	r3, [sp, #176]	; 0xb0
    8be0:	ebffff83 	bl	89f4 <nvram_get@plt>
    8be4:	e3500000 	cmp	r0, #0
    8be8:	11a01000 	movne	r1, r0
    8bec:	01a01007 	moveq	r1, r7
    8bf0:	e1a00004 	mov	r0, r4
[31m    8bf4:	ebffff30 	bl	88bc <strcpy@plt>[0m
    8bf8:	e1a02004 	mov	r2, r4
    8bfc:	e59f137c 	ldr	r1, [pc, #892]	; 8f80 <check_wan_linkstatus+0x3ec>
    8c00:	e1a00004 	mov	r0, r4
    8c04:	ebffff8f 	bl	8a48 <sprintf@plt>
    8c08:	e1a00004 	mov	r0, r4
    8c0c:	ebffff78 	bl	89f4 <nvram_get@plt>
    8c10:	e3500000 	cmp	r0, #0
    8c14:	11a01000 	movne	r1, r0
    8c18:	01a01007 	moveq	r1, r7
    8c1c:	e1a00005 	mov	r0, r5
[31m    8c20:	ebffff25 	bl	88bc <strcpy@plt>[0m
    8c24:	e59f1358 	ldr	r1, [pc, #856]	; 8f84 <check_wan_linkstatus+0x3f0>
    8c28:	e1a00005 	mov	r0, r5
--
    8d6c:	e48c5004 	str	r5, [ip], #4
    8d70:	e1a0300a 	mov	r3, sl
    8d74:	e48c5004 	str	r5, [ip], #4
    8d78:	e48e5004 	str	r5, [lr], #4
    8d7c:	e28d6004 	add	r6, sp, #4
    8d80:	e48c5004 	str	r5, [ip], #4
    8d84:	e3a01010 	mov	r1, #16
    8d88:	e48c5004 	str	r5, [ip], #4
    8d8c:	e1a00008 	mov	r0, r8
    8d90:	e48c5004 	str	r5, [ip], #4
    8d94:	e48e5004 	str	r5, [lr], #4
    8d98:	e48c5004 	str	r5, [ip], #4
    8d9c:	e58e5000 	str	r5, [lr]
    8da0:	e58c5000 	str	r5, [ip]
    8da4:	e59f2204 	ldr	r2, [pc, #516]	; 8fb0 <check_wan_linkstatus+0x41c>
    8da8:	e58d509c 	str	r5, [sp, #156]	; 0x9c
    8dac:	e58d5004 	str	r5, [sp, #4]
    8db0:	ebfffed0 	bl	88f8 <snprintf@plt>
    8db4:	e1a01008 	mov	r1, r8
    8db8:	e1a00006 	mov	r0, r6
[31m    8dbc:	ebfffebe 	bl	88bc <strcpy@plt>[0m
    8dc0:	e1a00006 	mov	r0, r6
    8dc4:	ebffff28 	bl	8a6c <strlen@plt>
    8dc8:	e3a02007 	mov	r2, #7
    8dcc:	e59f11e0 	ldr	r1, [pc, #480]	; 8fb4 <check_wan_linkstatus+0x420>
    8dd0:	e0860000 	add	r0, r6, r0
    8dd4:	ebfffed3 	bl	8928 <memcpy@plt>
    8dd8:	e1a00006 	mov	r0, r6
    8ddc:	ebffff04 	bl	89f4 <nvram_get@plt>
    8de0:	e3500000 	cmp	r0, #0
    8de4:	e1a01008 	mov	r1, r8
    8de8:	11a0a000 	movne	sl, r0
    8dec:	e1a00006 	mov	r0, r6
    8df0:	01a0a007 	moveq	sl, r7
[31m    8df4:	ebfffeb0 	bl	88bc <strcpy@plt>[0m
    8df8:	e1a00006 	mov	r0, r6
    8dfc:	ebffff1a 	bl	8a6c <strlen@plt>
    8e00:	e59f11b0 	ldr	r1, [pc, #432]	; 8fb8 <check_wan_linkstatus+0x424>
    8e04:	e3a02008 	mov	r2, #8
    8e08:	e0860000 	add	r0, r6, r0
    8e0c:	ebfffec5 	bl	8928 <memcpy@plt>
    8e10:	e1a00006 	mov	r0, r6
    8e14:	ebfffef6 	bl	89f4 <nvram_get@plt>
    8e18:	e3500000 	cmp	r0, #0
    8e1c:	11a09000 	movne	r9, r0
    8e20:	01a09007 	moveq	r9, r7
    8e24:	e3540000 	cmp	r4, #0
    8e28:	0a000038 	beq	8f10 <check_wan_linkstatus+0x37c>
    8e2c:	e1a01008 	mov	r1, r8
    8e30:	e1a00006 	mov	r0, r6
[31m    8e34:	ebfffea0 	bl	88bc <strcpy@plt>[0m
    8e38:	e1a00006 	mov	r0, r6
    8e3c:	e28d4084 	add	r4, sp, #132	; 0x84
    8e40:	ebffff09 	bl	8a6c <strlen@plt>
    8e44:	e3a02007 	mov	r2, #7
    8e48:	e59f116c 	ldr	r1, [pc, #364]	; 8fbc <check_wan_linkstatus+0x428>
    8e4c:	e0860000 	add	r0, r6, r0
    8e50:	ebfffeb4 	bl	8928 <memcpy@plt>
    8e54:	e1a00006 	mov	r0, r6
    8e58:	ebfffee5 	bl	89f4 <nvram_get@plt>
    8e5c:	e3500000 	cmp	r0, #0
    8e60:	e1a01008 	mov	r1, r8
    8e64:	11a08000 	movne	r8, r0
    8e68:	e1a00006 	mov	r0, r6
    8e6c:	01a08007 	moveq	r8, r7
[31m    8e70:	ebfffe91 	bl	88bc <strcpy@plt>[0m
    8e74:	e1a00006 	mov	r0, r6
    8e78:	ebfffefb 	bl	8a6c <strlen@plt>
--
    9080:	ebfffe79 	bl	8a6c <strlen@plt>
    9084:	e2800001 	add	r0, r0, #1
    9088:	e0200996 	mla	r0, r6, r9, r0
    908c:	ebfffe2e 	bl	894c <malloc@plt>
    9090:	e2506000 	subs	r6, r0, #0
    9094:	0affffd8 	beq	8ffc <str_replace+0x1c>
    9098:	e3590000 	cmp	r9, #0
    909c:	01a0b006 	moveq	fp, r6
    90a0:	0a000011 	beq	90ec <str_replace+0x10c>
    90a4:	e1a0b006 	mov	fp, r6
    90a8:	e1a00004 	mov	r0, r4
    90ac:	e1a01005 	mov	r1, r5
    90b0:	ebfffe3d 	bl	89ac <strstr@plt>
    90b4:	e0647000 	rsb	r7, r4, r0
    90b8:	e1a01004 	mov	r1, r4
    90bc:	e1a02007 	mov	r2, r7
    90c0:	e1a0000b 	mov	r0, fp
    90c4:	ebfffe3e 	bl	89c4 <strncpy@plt>
    90c8:	e1a01008 	mov	r1, r8
    90cc:	e0800007 	add	r0, r0, r7
[31m    90d0:	ebfffdf9 	bl	88bc <strcpy@plt>[0m
    90d4:	e59d3004 	ldr	r3, [sp, #4]
    90d8:	e2599001 	subs	r9, r9, #1
    90dc:	e087700a 	add	r7, r7, sl
    90e0:	e0844007 	add	r4, r4, r7
    90e4:	e080b003 	add	fp, r0, r3
    90e8:	1affffee 	bne	90a8 <str_replace+0xc8>
    90ec:	e1a0000b 	mov	r0, fp
    90f0:	e1a01004 	mov	r1, r4
[31m    90f4:	ebfffdf0 	bl	88bc <strcpy@plt>[0m
    90f8:	eaffffbf 	b	8ffc <str_replace+0x1c>
    90fc:	e1a06008 	mov	r6, r8
    9100:	e59f8024 	ldr	r8, [pc, #36]	; 912c <str_replace+0x14c>
    9104:	e58d6004 	str	r6, [sp, #4]
    9108:	eaffffd1 	b	9054 <str_replace+0x74>
    910c:	e1a00004 	mov	r0, r4
    9110:	ebfffe55 	bl	8a6c <strlen@plt>
    9114:	e2800001 	add	r0, r0, #1
    9118:	ebfffe0b 	bl	894c <malloc@plt>
    911c:	e1a01004 	mov	r1, r4
    9120:	e1a06000 	mov	r6, r0
[31m    9124:	ebfffde4 	bl	88bc <strcpy@plt>[0m
    9128:	eaffffb3 	b	8ffc <str_replace+0x1c>
    912c:	00009738 	.word	0x00009738
--
    9224:	e3a03002 	mov	r3, #2
    9228:	e28dcc01 	add	ip, sp, #256	; 0x100
    922c:	e1a08000 	mov	r8, r0
    9230:	e1cc3bb0 	strh	r3, [ip, #176]	; 0xb0
    9234:	e3a0200f 	mov	r2, #15
    9238:	e59f1244 	ldr	r1, [pc, #580]	; 9484 <check_mdnspr_nmbd+0x2ec>
    923c:	e1a0000a 	mov	r0, sl
    9240:	ebfffddf 	bl	89c4 <strncpy@plt>
    9244:	e59f6234 	ldr	r6, [pc, #564]	; 9480 <check_mdnspr_nmbd+0x2e8>
    9248:	e1a0200a 	mov	r2, sl
    924c:	e3081915 	movw	r1, #35093	; 0x8915
    9250:	e1a00008 	mov	r0, r8
    9254:	ebfffd9b 	bl	88c8 <ioctl@plt>
    9258:	e1a00008 	mov	r0, r8
    925c:	ebfffe08 	bl	8a84 <close@plt>
    9260:	e59f0220 	ldr	r0, [pc, #544]	; 9488 <check_mdnspr_nmbd+0x2f0>
    9264:	e59d91b4 	ldr	r9, [sp, #436]	; 0x1b4
    9268:	ebfffde1 	bl	89f4 <nvram_get@plt>
    926c:	e1a01000 	mov	r1, r0
    9270:	e2860010 	add	r0, r6, #16
[31m    9274:	ebfffd90 	bl	88bc <strcpy@plt>[0m
    9278:	e1a00007 	mov	r0, r7
    927c:	e2861010 	add	r1, r6, #16
[31m    9280:	ebfffd8d 	bl	88bc <strcpy@plt>[0m
    9284:	e2861010 	add	r1, r6, #16
    9288:	e1a00004 	mov	r0, r4
[31m    928c:	ebfffd8a 	bl	88bc <strcpy@plt>[0m
    9290:	e1a00007 	mov	r0, r7
    9294:	e59f11f0 	ldr	r1, [pc, #496]	; 948c <check_mdnspr_nmbd+0x2f4>
--
    92f4:	e3530000 	cmp	r3, #0
    92f8:	1a000053 	bne	944c <check_mdnspr_nmbd+0x2b4>
    92fc:	e59a0004 	ldr	r0, [sl, #4]
    9300:	ebfffdc4 	bl	8a18 <inet_ntoa@plt>
    9304:	e59fc18c 	ldr	ip, [pc, #396]	; 9498 <check_mdnspr_nmbd+0x300>
    9308:	e1a02000 	mov	r2, r0
    930c:	e1a03008 	mov	r3, r8
    9310:	e59f1184 	ldr	r1, [pc, #388]	; 949c <check_mdnspr_nmbd+0x304>
    9314:	e1a00006 	mov	r0, r6
    9318:	e88d1080 	stm	sp, {r7, ip}
    931c:	e3a0c050 	mov	ip, #80	; 0x50
    9320:	e58dc008 	str	ip, [sp, #8]
    9324:	ebfffdc7 	bl	8a48 <sprintf@plt>
    9328:	e1a00006 	mov	r0, r6
    932c:	ebfffd80 	bl	8934 <puts@plt>
    9330:	e1a00006 	mov	r0, r6
    9334:	ebfffd81 	bl	8940 <system@plt>
    9338:	e59f0160 	ldr	r0, [pc, #352]	; 94a0 <check_mdnspr_nmbd+0x308>
    933c:	e1a01004 	mov	r1, r4
    9340:	e5859030 	str	r9, [r5, #48]	; 0x30
[31m    9344:	ebfffd5c 	bl	88bc <strcpy@plt>[0m
    9348:	e3a03000 	mov	r3, #0
    934c:	e59f0150 	ldr	r0, [pc, #336]	; 94a4 <check_mdnspr_nmbd+0x30c>
--
    9420:	e0600009 	rsb	r0, r0, r9
    9424:	e3500031 	cmp	r0, #49	; 0x31
    9428:	daffff77 	ble	920c <check_mdnspr_nmbd+0x74>
    942c:	e59f007c 	ldr	r0, [pc, #124]	; 94b0 <check_mdnspr_nmbd+0x318>
    9430:	ebfffd42 	bl	8940 <system@plt>
    9434:	e3a03000 	mov	r3, #0
    9438:	e5853004 	str	r3, [r5, #4]
    943c:	e5ca3004 	strb	r3, [sl, #4]
    9440:	e3a03001 	mov	r3, #1
    9444:	e585300c 	str	r3, [r5, #12]
    9448:	eaffff6f 	b	920c <check_mdnspr_nmbd+0x74>
    944c:	e59f005c 	ldr	r0, [pc, #92]	; 94b0 <check_mdnspr_nmbd+0x318>
    9450:	ebfffd3a 	bl	8940 <system@plt>
    9454:	eaffffa8 	b	92fc <check_mdnspr_nmbd+0x164>
    9458:	e59f5020 	ldr	r5, [pc, #32]	; 9480 <check_mdnspr_nmbd+0x2e8>
    945c:	e5850004 	str	r0, [r5, #4]
    9460:	e5c50008 	strb	r0, [r5, #8]
    9464:	eaffff68 	b	920c <check_mdnspr_nmbd+0x74>
    9468:	e2850004 	add	r0, r5, #4
    946c:	e1a0100a 	mov	r1, sl
[31m    9470:	ebfffd11 	bl	88bc <strcpy@plt>[0m
    9474:	eaffff64 	b	920c <check_mdnspr_nmbd+0x74>
    9478:	00011a84 	.word	0x00011a84

[0m
[[0;33m*[0m] Function [0;33mstrcpy[0m used [0;33m14[0m times [0;33mum_check_default[0m

