[[0;33m*[0m] Binary protection state of [0;33mlibxt_iprange.so[0m
[REF] s12

  	RELRO          CANARY            NX           PIE       RPATH        RUNPATH      SYMBOLS      
  	[31mNo RELRO[0m       [31mNo Canary found[0m   [32mNX enabled[0m   [33mDSO[0m          [32mNo RPATH[0m     [32mNo RUNPATH[0m   [31mSymbols
	[31mNo RELRO[0m       [31mNo Canary found[0m   [32mNX enabled[0m   [33mDSO[0m          [32mNo RPATH[0m     [32mNo RUNPATH[0m   [32mNo Symbols[0m

[0m
[[0;33m*[0m] Function [0;33mprintf[0m tear down of [0;33mlibxt_iprange.so[0m

     cc0:	e92d40f0 	push	{r4, r5, r6, r7, lr}
     cc4:	e280e004 	add	lr, r0, #4
     cc8:	e5d01000 	ldrb	r1, [r0]
     ccc:	e1a04000 	mov	r4, r0
     cd0:	e08fc00c 	add	ip, pc, ip
     cd4:	e24dd01c 	sub	sp, sp, #28
     cd8:	e5d02001 	ldrb	r2, [r0, #1]
     cdc:	e5d03002 	ldrb	r3, [r0, #2]
     ce0:	e59f0038 	ldr	r0, [pc, #56]	; d20 <free@plt+0x56c>
     ce4:	e5d47003 	ldrb	r7, [r4, #3]
     ce8:	e5d46004 	ldrb	r6, [r4, #4]
     cec:	e5de5001 	ldrb	r5, [lr, #1]
     cf0:	e08c0000 	add	r0, ip, r0
     cf4:	e5de4002 	ldrb	r4, [lr, #2]
     cf8:	e5dec003 	ldrb	ip, [lr, #3]
     cfc:	e58d7000 	str	r7, [sp]
     d00:	e58d6004 	str	r6, [sp, #4]
     d04:	e58d5008 	str	r5, [sp, #8]
     d08:	e58d400c 	str	r4, [sp, #12]
     d0c:	e58dc010 	str	ip, [sp, #16]
[31m     d10:	ebfffe77 	bl	6f4 <printf@plt>[0m
     d14:	e28dd01c 	add	sp, sp, #28
     d18:	e8bd80f0 	pop	{r4, r5, r6, r7, pc}
     d1c:	000088c4 	andeq	r8, r0, r4, asr #17
     d20:	ffff7d54 			; <UNDEFINED> instruction: 0xffff7d54
     d24:	e92d4070 	push	{r4, r5, r6, lr}
     d28:	e2815020 	add	r5, r1, #32
     d2c:	e5d53010 	ldrb	r3, [r5, #16]
     d30:	e59f4070 	ldr	r4, [pc, #112]	; da8 <free@plt+0x5f4>
     d34:	e3130001 	tst	r3, #1
     d38:	e08f4004 	add	r4, pc, r4
     d3c:	0a000007 	beq	d60 <free@plt+0x5ac>
     d40:	e3130010 	tst	r3, #16
     d44:	1a000013 	bne	d98 <free@plt+0x5e4>
     d48:	e59f005c 	ldr	r0, [pc, #92]	; dac <free@plt+0x5f8>
     d4c:	e0840000 	add	r0, r4, r0
[31m     d50:	ebfffe67 	bl	6f4 <printf@plt>[0m
     d54:	e1a00005 	mov	r0, r5
     d58:	ebffffd7 	bl	cbc <free@plt+0x508>
     d5c:	e5d53010 	ldrb	r3, [r5, #16]
     d60:	e3130002 	tst	r3, #2
     d64:	08bd8070 	popeq	{r4, r5, r6, pc}
     d68:	e3130020 	tst	r3, #32
     d6c:	1a000005 	bne	d88 <free@plt+0x5d4>
     d70:	e59f0038 	ldr	r0, [pc, #56]	; db0 <free@plt+0x5fc>
     d74:	e0840000 	add	r0, r4, r0
[31m     d78:	ebfffe5d 	bl	6f4 <printf@plt>[0m
     d7c:	e2850008 	add	r0, r5, #8
     d80:	e8bd4070 	pop	{r4, r5, r6, lr}
     d84:	eaffffcc 	b	cbc <free@plt+0x508>
     d88:	e59f0024 	ldr	r0, [pc, #36]	; db4 <free@plt+0x600>
     d8c:	e0840000 	add	r0, r4, r0
[31m     d90:	ebfffe57 	bl	6f4 <printf@plt>[0m
     d94:	eafffff5 	b	d70 <free@plt+0x5bc>
     d98:	e59f0014 	ldr	r0, [pc, #20]	; db4 <free@plt+0x600>
     d9c:	e0840000 	add	r0, r4, r0
[31m     da0:	ebfffe53 	bl	6f4 <printf@plt>[0m
     da4:	eaffffe7 	b	d48 <free@plt+0x594>
     da8:	0000885c 	andeq	r8, r0, ip, asr r8
     dac:	ffff7d74 			; <UNDEFINED> instruction: 0xffff7d74
     db0:	ffff7d84 			; <UNDEFINED> instruction: 0xffff7d84
     db4:	ffff7d70 			; <UNDEFINED> instruction: 0xffff7d70
     db8:	e92d4070 	push	{r4, r5, r6, lr}
     dbc:	e2815020 	add	r5, r1, #32
     dc0:	e5d53010 	ldrb	r3, [r5, #16]
     dc4:	e59f4084 	ldr	r4, [pc, #132]	; e50 <free@plt+0x69c>
     dc8:	e3130001 	tst	r3, #1
     dcc:	e08f4004 	add	r4, pc, r4
     dd0:	1a00000a 	bne	e00 <free@plt+0x64c>
     dd4:	e3130002 	tst	r3, #2
     dd8:	08bd8070 	popeq	{r4, r5, r6, pc}
     ddc:	e59f0070 	ldr	r0, [pc, #112]	; e54 <free@plt+0x6a0>
     de0:	e0840000 	add	r0, r4, r0
[31m     de4:	ebfffe42 	bl	6f4 <printf@plt>[0m
     de8:	e5d53010 	ldrb	r3, [r5, #16]
     dec:	e3130020 	tst	r3, #32
     df0:	1a00000e 	bne	e30 <free@plt+0x67c>
     df4:	e2850008 	add	r0, r5, #8
     df8:	e8bd4070 	pop	{r4, r5, r6, lr}
     dfc:	eaffffae 	b	cbc <free@plt+0x508>
     e00:	e59f0050 	ldr	r0, [pc, #80]	; e58 <free@plt+0x6a4>
     e04:	e0840000 	add	r0, r4, r0
[31m     e08:	ebfffe39 	bl	6f4 <printf@plt>[0m
     e0c:	e5d53010 	ldrb	r3, [r5, #16]
     e10:	e3130010 	tst	r3, #16
     e14:	1a000009 	bne	e40 <free@plt+0x68c>
     e18:	e1a00005 	mov	r0, r5
     e1c:	ebffffa6 	bl	cbc <free@plt+0x508>
     e20:	e5d53010 	ldrb	r3, [r5, #16]
     e24:	e3130002 	tst	r3, #2
     e28:	08bd8070 	popeq	{r4, r5, r6, pc}
     e2c:	eaffffea 	b	ddc <free@plt+0x628>
     e30:	e59f0024 	ldr	r0, [pc, #36]	; e5c <free@plt+0x6a8>
     e34:	e0840000 	add	r0, r4, r0
[31m     e38:	ebfffe2d 	bl	6f4 <printf@plt>[0m
     e3c:	eaffffec 	b	df4 <free@plt+0x640>
     e40:	e59f0014 	ldr	r0, [pc, #20]	; e5c <free@plt+0x6a8>
     e44:	e0840000 	add	r0, r4, r0
[31m     e48:	ebfffe29 	bl	6f4 <printf@plt>[0m
     e4c:	eafffff1 	b	e18 <free@plt+0x664>
     e50:	000087c8 	andeq	r8, r0, r8, asr #15
     e54:	ffff7da8 			; <UNDEFINED> instruction: 0xffff7da8
     e58:	ffff7d94 			; <UNDEFINED> instruction: 0xffff7d94
     e5c:	ffff7d70 			; <UNDEFINED> instruction: 0xffff7d70
     e60:	e92d4070 	push	{r4, r5, r6, lr}
     e64:	e2815020 	add	r5, r1, #32
     e68:	e5d53040 	ldrb	r3, [r5, #64]	; 0x40
     e6c:	e59f40a8 	ldr	r4, [pc, #168]	; f1c <free@plt+0x768>
     e70:	e3130001 	tst	r3, #1
     e74:	e08f4004 	add	r4, pc, r4
     e78:	0a00000e 	beq	eb8 <free@plt+0x704>
     e7c:	e3130010 	tst	r3, #16
     e80:	1a000021 	bne	f0c <free@plt+0x758>
     e84:	e1a00005 	mov	r0, r5
     e88:	ebfffe25 	bl	724 <xtables_ip6addr_to_numeric@plt>
     e8c:	e1a01000 	mov	r1, r0
     e90:	e59f0088 	ldr	r0, [pc, #136]	; f20 <free@plt+0x76c>
     e94:	e0840000 	add	r0, r4, r0
[31m     e98:	ebfffe15 	bl	6f4 <printf@plt>[0m
     e9c:	e2850010 	add	r0, r5, #16
     ea0:	ebfffe1f 	bl	724 <xtables_ip6addr_to_numeric@plt>
     ea4:	e1a01000 	mov	r1, r0
     ea8:	e59f0074 	ldr	r0, [pc, #116]	; f24 <free@plt+0x770>
     eac:	e0840000 	add	r0, r4, r0
[31m     eb0:	ebfffe0f 	bl	6f4 <printf@plt>[0m
     eb4:	e5d53040 	ldrb	r3, [r5, #64]	; 0x40
     eb8:	e3130002 	tst	r3, #2
     ebc:	08bd8070 	popeq	{r4, r5, r6, pc}
     ec0:	e3130020 	tst	r3, #32
     ec4:	1a00000c 	bne	efc <free@plt+0x748>
     ec8:	e2850020 	add	r0, r5, #32
     ecc:	ebfffe14 	bl	724 <xtables_ip6addr_to_numeric@plt>
     ed0:	e1a01000 	mov	r1, r0
     ed4:	e59f004c 	ldr	r0, [pc, #76]	; f28 <free@plt+0x774>
     ed8:	e0840000 	add	r0, r4, r0
[31m     edc:	ebfffe04 	bl	6f4 <printf@plt>[0m
     ee0:	e2850030 	add	r0, r5, #48	; 0x30
     ee4:	ebfffe0e 	bl	724 <xtables_ip6addr_to_numeric@plt>
     ee8:	e1a01000 	mov	r1, r0
     eec:	e59f0030 	ldr	r0, [pc, #48]	; f24 <free@plt+0x770>
     ef0:	e0840000 	add	r0, r4, r0
     ef4:	e8bd4070 	pop	{r4, r5, r6, lr}
[31m     ef8:	eafffdfd 	b	6f4 <printf@plt>[0m
     efc:	e59f0028 	ldr	r0, [pc, #40]	; f2c <free@plt+0x778>
     f00:	e0840000 	add	r0, r4, r0
[31m     f04:	ebfffdfa 	bl	6f4 <printf@plt>[0m
     f08:	eaffffee 	b	ec8 <free@plt+0x714>
     f0c:	e59f0018 	ldr	r0, [pc, #24]	; f2c <free@plt+0x778>
     f10:	e0840000 	add	r0, r4, r0
[31m     f14:	ebfffdf6 	bl	6f4 <printf@plt>[0m
     f18:	eaffffd9 	b	e84 <free@plt+0x6d0>
     f1c:	00008720 	andeq	r8, r0, r0, lsr #14
     f20:	ffff7dc0 			; <UNDEFINED> instruction: 0xffff7dc0
     f24:	ffff7dd0 			; <UNDEFINED> instruction: 0xffff7dd0
     f28:	ffff7dd4 			; <UNDEFINED> instruction: 0xffff7dd4
     f2c:	ffff7d70 			; <UNDEFINED> instruction: 0xffff7d70
     f30:	e92d4070 	push	{r4, r5, r6, lr}
     f34:	e2815020 	add	r5, r1, #32
     f38:	e5d53040 	ldrb	r3, [r5, #64]	; 0x40
     f3c:	e59f40d4 	ldr	r4, [pc, #212]	; 1018 <free@plt+0x864>
     f40:	e3130001 	tst	r3, #1
     f44:	e08f4004 	add	r4, pc, r4
     f48:	1a000014 	bne	fa0 <free@plt+0x7ec>
     f4c:	e3130002 	tst	r3, #2
     f50:	08bd8070 	popeq	{r4, r5, r6, pc}
     f54:	e59f00c0 	ldr	r0, [pc, #192]	; 101c <free@plt+0x868>
     f58:	e0840000 	add	r0, r4, r0
[31m     f5c:	ebfffde4 	bl	6f4 <printf@plt>[0m
     f60:	e5d53040 	ldrb	r3, [r5, #64]	; 0x40
     f64:	e3130020 	tst	r3, #32
     f68:	1a000022 	bne	ff8 <free@plt+0x844>
     f6c:	e2850020 	add	r0, r5, #32
     f70:	ebfffdeb 	bl	724 <xtables_ip6addr_to_numeric@plt>
     f74:	e1a01000 	mov	r1, r0
     f78:	e59f00a0 	ldr	r0, [pc, #160]	; 1020 <free@plt+0x86c>
     f7c:	e0840000 	add	r0, r4, r0
[31m     f80:	ebfffddb 	bl	6f4 <printf@plt>[0m
     f84:	e2850030 	add	r0, r5, #48	; 0x30
     f88:	ebfffde5 	bl	724 <xtables_ip6addr_to_numeric@plt>
     f8c:	e1a01000 	mov	r1, r0
     f90:	e59f008c 	ldr	r0, [pc, #140]	; 1024 <free@plt+0x870>
     f94:	e0840000 	add	r0, r4, r0
     f98:	e8bd4070 	pop	{r4, r5, r6, lr}
[31m     f9c:	eafffdd4 	b	6f4 <printf@plt>[0m
     fa0:	e59f0080 	ldr	r0, [pc, #128]	; 1028 <free@plt+0x874>
     fa4:	e0840000 	add	r0, r4, r0
[31m     fa8:	ebfffdd1 	bl	6f4 <printf@plt>[0m
     fac:	e5d53040 	ldrb	r3, [r5, #64]	; 0x40
     fb0:	e3130010 	tst	r3, #16
     fb4:	1a000013 	bne	1008 <free@plt+0x854>
     fb8:	e1a00005 	mov	r0, r5
     fbc:	ebfffdd8 	bl	724 <xtables_ip6addr_to_numeric@plt>
     fc0:	e1a01000 	mov	r1, r0
     fc4:	e59f0054 	ldr	r0, [pc, #84]	; 1020 <free@plt+0x86c>
     fc8:	e0840000 	add	r0, r4, r0
[31m     fcc:	ebfffdc8 	bl	6f4 <printf@plt>[0m
     fd0:	e2850010 	add	r0, r5, #16
     fd4:	ebfffdd2 	bl	724 <xtables_ip6addr_to_numeric@plt>
     fd8:	e1a01000 	mov	r1, r0
     fdc:	e59f0040 	ldr	r0, [pc, #64]	; 1024 <free@plt+0x870>
     fe0:	e0840000 	add	r0, r4, r0
[31m     fe4:	ebfffdc2 	bl	6f4 <printf@plt>[0m
     fe8:	e5d53040 	ldrb	r3, [r5, #64]	; 0x40
     fec:	e3130002 	tst	r3, #2
     ff0:	08bd8070 	popeq	{r4, r5, r6, pc}
     ff4:	eaffffd6 	b	f54 <free@plt+0x7a0>
     ff8:	e59f002c 	ldr	r0, [pc, #44]	; 102c <free@plt+0x878>
     ffc:	e0840000 	add	r0, r4, r0
[31m    1000:	ebfffdbb 	bl	6f4 <printf@plt>[0m
    1004:	eaffffd8 	b	f6c <free@plt+0x7b8>
    1008:	e59f001c 	ldr	r0, [pc, #28]	; 102c <free@plt+0x878>
    100c:	e0840000 	add	r0, r4, r0
[31m    1010:	ebfffdb7 	bl	6f4 <printf@plt>[0m
    1014:	eaffffe7 	b	fb8 <free@plt+0x804>
    1018:	00008650 	andeq	r8, r0, r0, asr r6
    101c:	ffff7da8 			; <UNDEFINED> instruction: 0xffff7da8
    1020:	ffff7dcc 			; <UNDEFINED> instruction: 0xffff7dcc
    1024:	ffff7dd0 			; <UNDEFINED> instruction: 0xffff7dd0
    1028:	ffff7d94 			; <UNDEFINED> instruction: 0xffff7d94
    102c:	ffff7d70 			; <UNDEFINED> instruction: 0xffff7d70
    1030:	e92d4070 	push	{r4, r5, r6, lr}
    1034:	e2815020 	add	r5, r1, #32
    1038:	e5d53040 	ldrb	r3, [r5, #64]	; 0x40
    103c:	e59f40a8 	ldr	r4, [pc, #168]	; 10ec <free@plt+0x938>
    1040:	e3130001 	tst	r3, #1
    1044:	e08f4004 	add	r4, pc, r4
    1048:	0a00000e 	beq	1088 <free@plt+0x8d4>
    104c:	e3130010 	tst	r3, #16
    1050:	1a000021 	bne	10dc <free@plt+0x928>
    1054:	e1a00005 	mov	r0, r5
    1058:	ebfffdb4 	bl	730 <xtables_ipaddr_to_numeric@plt>
    105c:	e1a01000 	mov	r1, r0
    1060:	e59f0088 	ldr	r0, [pc, #136]	; 10f0 <free@plt+0x93c>
    1064:	e0840000 	add	r0, r4, r0
[31m    1068:	ebfffda1 	bl	6f4 <printf@plt>[0m
    106c:	e2850010 	add	r0, r5, #16
    1070:	ebfffdae 	bl	730 <xtables_ipaddr_to_numeric@plt>
    1074:	e1a01000 	mov	r1, r0
    1078:	e59f0074 	ldr	r0, [pc, #116]	; 10f4 <free@plt+0x940>
    107c:	e0840000 	add	r0, r4, r0
[31m    1080:	ebfffd9b 	bl	6f4 <printf@plt>[0m
    1084:	e5d53040 	ldrb	r3, [r5, #64]	; 0x40
    1088:	e3130002 	tst	r3, #2
    108c:	08bd8070 	popeq	{r4, r5, r6, pc}
    1090:	e3130020 	tst	r3, #32
    1094:	1a00000c 	bne	10cc <free@plt+0x918>
    1098:	e2850020 	add	r0, r5, #32
    109c:	ebfffda3 	bl	730 <xtables_ipaddr_to_numeric@plt>
    10a0:	e1a01000 	mov	r1, r0
    10a4:	e59f004c 	ldr	r0, [pc, #76]	; 10f8 <free@plt+0x944>
    10a8:	e0840000 	add	r0, r4, r0
[31m    10ac:	ebfffd90 	bl	6f4 <printf@plt>[0m
    10b0:	e2850030 	add	r0, r5, #48	; 0x30
    10b4:	ebfffd9d 	bl	730 <xtables_ipaddr_to_numeric@plt>
    10b8:	e1a01000 	mov	r1, r0
    10bc:	e59f0030 	ldr	r0, [pc, #48]	; 10f4 <free@plt+0x940>
    10c0:	e0840000 	add	r0, r4, r0
    10c4:	e8bd4070 	pop	{r4, r5, r6, lr}
[31m    10c8:	eafffd89 	b	6f4 <printf@plt>[0m
    10cc:	e59f0028 	ldr	r0, [pc, #40]	; 10fc <free@plt+0x948>
    10d0:	e0840000 	add	r0, r4, r0
[31m    10d4:	ebfffd86 	bl	6f4 <printf@plt>[0m
    10d8:	eaffffee 	b	1098 <free@plt+0x8e4>
    10dc:	e59f0018 	ldr	r0, [pc, #24]	; 10fc <free@plt+0x948>
    10e0:	e0840000 	add	r0, r4, r0
[31m    10e4:	ebfffd82 	bl	6f4 <printf@plt>[0m
    10e8:	eaffffd9 	b	1054 <free@plt+0x8a0>
    10ec:	00008550 	andeq	r8, r0, r0, asr r5
    10f0:	ffff7dc0 			; <UNDEFINED> instruction: 0xffff7dc0
    10f4:	ffff7dd0 			; <UNDEFINED> instruction: 0xffff7dd0
    10f8:	ffff7dd4 			; <UNDEFINED> instruction: 0xffff7dd4
    10fc:	ffff7d70 			; <UNDEFINED> instruction: 0xffff7d70
    1100:	e92d4070 	push	{r4, r5, r6, lr}
    1104:	e2815020 	add	r5, r1, #32
    1108:	e5d53040 	ldrb	r3, [r5, #64]	; 0x40
    110c:	e59f40d4 	ldr	r4, [pc, #212]	; 11e8 <free@plt+0xa34>
    1110:	e3130001 	tst	r3, #1
    1114:	e08f4004 	add	r4, pc, r4
    1118:	1a000014 	bne	1170 <free@plt+0x9bc>
    111c:	e3130002 	tst	r3, #2
    1120:	08bd8070 	popeq	{r4, r5, r6, pc}
    1124:	e59f00c0 	ldr	r0, [pc, #192]	; 11ec <free@plt+0xa38>
    1128:	e0840000 	add	r0, r4, r0
[31m    112c:	ebfffd70 	bl	6f4 <printf@plt>[0m
    1130:	e5d53040 	ldrb	r3, [r5, #64]	; 0x40
    1134:	e3130020 	tst	r3, #32
    1138:	1a000022 	bne	11c8 <free@plt+0xa14>
    113c:	e2850020 	add	r0, r5, #32
    1140:	ebfffd7a 	bl	730 <xtables_ipaddr_to_numeric@plt>
    1144:	e1a01000 	mov	r1, r0
    1148:	e59f00a0 	ldr	r0, [pc, #160]	; 11f0 <free@plt+0xa3c>
    114c:	e0840000 	add	r0, r4, r0
[31m    1150:	ebfffd67 	bl	6f4 <printf@plt>[0m
    1154:	e2850030 	add	r0, r5, #48	; 0x30
    1158:	ebfffd74 	bl	730 <xtables_ipaddr_to_numeric@plt>
    115c:	e1a01000 	mov	r1, r0
    1160:	e59f008c 	ldr	r0, [pc, #140]	; 11f4 <free@plt+0xa40>
    1164:	e0840000 	add	r0, r4, r0
    1168:	e8bd4070 	pop	{r4, r5, r6, lr}
[31m    116c:	eafffd60 	b	6f4 <printf@plt>[0m
    1170:	e59f0080 	ldr	r0, [pc, #128]	; 11f8 <free@plt+0xa44>
    1174:	e0840000 	add	r0, r4, r0
[31m    1178:	ebfffd5d 	bl	6f4 <printf@plt>[0m
    117c:	e5d53040 	ldrb	r3, [r5, #64]	; 0x40
    1180:	e3130010 	tst	r3, #16
    1184:	1a000013 	bne	11d8 <free@plt+0xa24>
    1188:	e1a00005 	mov	r0, r5
    118c:	ebfffd67 	bl	730 <xtables_ipaddr_to_numeric@plt>
    1190:	e1a01000 	mov	r1, r0
    1194:	e59f0054 	ldr	r0, [pc, #84]	; 11f0 <free@plt+0xa3c>
    1198:	e0840000 	add	r0, r4, r0
[31m    119c:	ebfffd54 	bl	6f4 <printf@plt>[0m
    11a0:	e2850010 	add	r0, r5, #16
    11a4:	ebfffd61 	bl	730 <xtables_ipaddr_to_numeric@plt>
    11a8:	e1a01000 	mov	r1, r0
    11ac:	e59f0040 	ldr	r0, [pc, #64]	; 11f4 <free@plt+0xa40>
    11b0:	e0840000 	add	r0, r4, r0
[31m    11b4:	ebfffd4e 	bl	6f4 <printf@plt>[0m
    11b8:	e5d53040 	ldrb	r3, [r5, #64]	; 0x40
    11bc:	e3130002 	tst	r3, #2
    11c0:	08bd8070 	popeq	{r4, r5, r6, pc}
    11c4:	eaffffd6 	b	1124 <free@plt+0x970>
    11c8:	e59f002c 	ldr	r0, [pc, #44]	; 11fc <free@plt+0xa48>
    11cc:	e0840000 	add	r0, r4, r0
[31m    11d0:	ebfffd47 	bl	6f4 <printf@plt>[0m
    11d4:	eaffffd8 	b	113c <free@plt+0x988>
    11d8:	e59f001c 	ldr	r0, [pc, #28]	; 11fc <free@plt+0xa48>
    11dc:	e0840000 	add	r0, r4, r0
[31m    11e0:	ebfffd43 	bl	6f4 <printf@plt>[0m
    11e4:	eaffffe7 	b	1188 <free@plt+0x9d4>
    11e8:	00008480 	andeq	r8, r0, r0, lsl #9

[0m
[[0;33m*[0m] Function [0;33mprintf[0m used [0;33m33[0m times [0;33mlibxt_iprange.so[0m

