[[0;33m*[0m] Binary protection state of [0;33mses_cl.svn-base[0m
[REF] s12

  	RELRO          CANARY            NX           PIE       RPATH        RUNPATH      SYMBOLS      
  	[31mNo RELRO[0m       [31mNo Canary found[0m   [32mNX enabled[0m   [31mNo PIE[0m       [32mNo RPATH[0m     [32mNo RUNPATH[0m   [32mNo Symbols[0m

[0m
[[0;33m*[0m] Function [0;33msprintf[0m tear down of [0;33mses_cl.svn-base[0m

    946c:	00011824 	andeq	r1, r1, r4, lsr #16
    9470:	e3510001 	cmp	r1, #1
    9474:	e92d41f0 	push	{r4, r5, r6, r7, r8, lr}
    9478:	e1a08001 	mov	r8, r1
    947c:	e24ddf82 	sub	sp, sp, #520	; 0x208
    9480:	e1a04000 	mov	r4, r0
    9484:	da000025 	ble	9520 <_start@@Base+0x1e0>
    9488:	e28d7f81 	add	r7, sp, #516	; 0x204
    948c:	e1a05001 	mov	r5, r1
    9490:	e28d6004 	add	r6, sp, #4
    9494:	e2877002 	add	r7, r7, #2
    9498:	ea000011 	b	94e4 <_start@@Base+0x1a4>
    949c:	e1a00004 	mov	r0, r4
    94a0:	e1a01007 	mov	r1, r7
    94a4:	e3a02002 	mov	r2, #2
    94a8:	e2455002 	sub	r5, r5, #2
    94ac:	ebfffeec 	bl	9064 <memcpy@plt>
    94b0:	e5d42000 	ldrb	r2, [r4]
    94b4:	e1a00006 	mov	r0, r6
    94b8:	e59f10dc 	ldr	r1, [pc, #220]	; 959c <_start@@Base+0x25c>
[31m    94bc:	ebffff63 	bl	9250 <sprintf@plt>[0m
    94c0:	e0866000 	add	r6, r6, r0
    94c4:	e5d42001 	ldrb	r2, [r4, #1]
    94c8:	e1a00006 	mov	r0, r6
    94cc:	e59f10c8 	ldr	r1, [pc, #200]	; 959c <_start@@Base+0x25c>
[31m    94d0:	ebffff5e 	bl	9250 <sprintf@plt>[0m
    94d4:	e3550001 	cmp	r5, #1
    94d8:	e2844002 	add	r4, r4, #2
--
    9504:	e1a01004 	mov	r1, r4
    9508:	e1a02008 	mov	r2, r8
    950c:	ebffff1c 	bl	9184 <read@plt>
    9510:	e3700001 	cmn	r0, #1
    9514:	0a00001b 	beq	9588 <_start@@Base+0x248>
    9518:	e28ddf82 	add	sp, sp, #520	; 0x208
    951c:	e8bd81f0 	pop	{r4, r5, r6, r7, r8, pc}
    9520:	e1a05001 	mov	r5, r1
    9524:	e28d6004 	add	r6, sp, #4
    9528:	e3550001 	cmp	r5, #1
    952c:	1afffff9 	bne	9518 <_start@@Base+0x1d8>
    9530:	e28d0f81 	add	r0, sp, #516	; 0x204
    9534:	e2800002 	add	r0, r0, #2
    9538:	ebffffb8 	bl	9420 <_start@@Base+0xe0>
    953c:	e3500000 	cmp	r0, #0
    9540:	1affffeb 	bne	94f4 <_start@@Base+0x1b4>
    9544:	e5dd2206 	ldrb	r2, [sp, #518]	; 0x206
    9548:	e1a00006 	mov	r0, r6
    954c:	e59f1048 	ldr	r1, [pc, #72]	; 959c <_start@@Base+0x25c>
    9550:	e5c42000 	strb	r2, [r4]
[31m    9554:	ebffff3d 	bl	9250 <sprintf@plt>[0m
    9558:	eaffffee 	b	9518 <_start@@Base+0x1d8>
    955c:	e59f0040 	ldr	r0, [pc, #64]	; 95a4 <_start@@Base+0x264>
--
    d57c:	1affffe1 	bne	d508 <_start@@Base+0x41c8>
    d580:	e5944004 	ldr	r4, [r4, #4]
    d584:	e3540000 	cmp	r4, #0
    d588:	0affffe6 	beq	d528 <_start@@Base+0x41e8>
    d58c:	ea000012 	b	d5dc <_start@@Base+0x429c>
    d590:	e3500002 	cmp	r0, #2
    d594:	0a000004 	beq	d5ac <_start@@Base+0x426c>
    d598:	e59f00a4 	ldr	r0, [pc, #164]	; d644 <_start@@Base+0x4304>
    d59c:	e3a02fad 	mov	r2, #692	; 0x2b4
    d5a0:	e59f10a0 	ldr	r1, [pc, #160]	; d648 <_start@@Base+0x4308>
    d5a4:	e59f30a0 	ldr	r3, [pc, #160]	; d64c <_start@@Base+0x430c>
    d5a8:	ebffef4f 	bl	92ec <__assert@plt>
    d5ac:	e59f009c 	ldr	r0, [pc, #156]	; d650 <_start@@Base+0x4310>
    d5b0:	ebffeeae 	bl	9070 <puts@plt>
    d5b4:	e5944000 	ldr	r4, [r4]
    d5b8:	eafffff1 	b	d584 <_start@@Base+0x4244>
    d5bc:	e28d5010 	add	r5, sp, #16
    d5c0:	e59f108c 	ldr	r1, [pc, #140]	; d654 <_start@@Base+0x4314>
    d5c4:	e1a00005 	mov	r0, r5
    d5c8:	e3a02000 	mov	r2, #0
[31m    d5cc:	ebffef1f 	bl	9250 <sprintf@plt>[0m
    d5d0:	e1a01005 	mov	r1, r5
    d5d4:	e59f0064 	ldr	r0, [pc, #100]	; d640 <_start@@Base+0x4300>

[0m
[[0;33m*[0m] Function [0;33msprintf[0m used [0;33m4[0m times [0;33mses_cl.svn-base[0m

