[[0;33m*[0m] Binary protection state of [0;33mipsec.so[0m
[REF] s12

  	RELRO          CANARY            NX           PIE       RPATH        RUNPATH      SYMBOLS      
  	[31mNo RELRO[0m       [31mNo Canary found[0m   [32mNX enabled[0m   [33mDSO[0m          [32mNo RPATH[0m     [32mNo RUNPATH[0m   [31mSymbols[0m

[0m
[[0;33m*[0m] Function [0;33mfprintf[0m tear down of [0;33mipsec.so[0m

     d10:	e51b304c 	ldr	r3, [fp, #-76]	; 0xffffffb4
     d14:	e1d330b2 	ldrh	r3, [r3, #2]
     d18:	e1a00003 	mov	r0, r3
     d1c:	ebfffef3 	bl	8f0 <ntohs@plt>
     d20:	e1a03000 	mov	r3, r0
     d24:	e1a05003 	mov	r5, r3
     d28:	e51b3050 	ldr	r3, [fp, #-80]	; 0xffffffb0
     d2c:	e1d330b2 	ldrh	r3, [r3, #2]
     d30:	e1a00003 	mov	r0, r3
     d34:	ebfffeed 	bl	8f0 <ntohs@plt>
     d38:	e1a03000 	mov	r3, r0
     d3c:	e1a02003 	mov	r2, r3
     d40:	e24b3034 	sub	r3, fp, #52	; 0x34
     d44:	e24b1044 	sub	r1, fp, #68	; 0x44
     d48:	e58d1000 	str	r1, [sp]
     d4c:	e58d2004 	str	r2, [sp, #4]
     d50:	e51b001c 	ldr	r0, [fp, #-28]	; 0xffffffe4
     d54:	e1a01006 	mov	r1, r6
     d58:	e1a02003 	mov	r2, r3
     d5c:	e1a03005 	mov	r3, r5
[31m     d60:	ebfffed0 	bl	8a8 <fprintf@plt>[0m
     d64:	e59f341c 	ldr	r3, [pc, #1052]	; 1188 <ipsec_spd_delete+0x534>
     d68:	e7943003 	ldr	r3, [r4, r3]
--
     ea8:	e51b3050 	ldr	r3, [fp, #-80]	; 0xffffffb0
     eac:	e1d330b2 	ldrh	r3, [r3, #2]
     eb0:	e1a00003 	mov	r0, r3
     eb4:	ebfffe8d 	bl	8f0 <ntohs@plt>
     eb8:	e1a03000 	mov	r3, r0
     ebc:	e1a05003 	mov	r5, r3
     ec0:	e51b304c 	ldr	r3, [fp, #-76]	; 0xffffffb4
     ec4:	e1d330b2 	ldrh	r3, [r3, #2]
     ec8:	e1a00003 	mov	r0, r3
     ecc:	ebfffe87 	bl	8f0 <ntohs@plt>
     ed0:	e1a03000 	mov	r3, r0
     ed4:	e1a02003 	mov	r2, r3
     ed8:	e24b3044 	sub	r3, fp, #68	; 0x44
     edc:	e24b1034 	sub	r1, fp, #52	; 0x34
     ee0:	e58d1000 	str	r1, [sp]
     ee4:	e58d2004 	str	r2, [sp, #4]
     ee8:	e51b001c 	ldr	r0, [fp, #-28]	; 0xffffffe4
     eec:	e1a01006 	mov	r1, r6
     ef0:	e1a02003 	mov	r2, r3
     ef4:	e1a03005 	mov	r3, r5
[31m     ef8:	ebfffe6a 	bl	8a8 <fprintf@plt>[0m
     efc:	e59f3284 	ldr	r3, [pc, #644]	; 1188 <ipsec_spd_delete+0x534>
     f00:	e7943003 	ldr	r3, [r4, r3]
--
    130c:	e51b304c 	ldr	r3, [fp, #-76]	; 0xffffffb4
    1310:	e1d330b2 	ldrh	r3, [r3, #2]
    1314:	e1a00003 	mov	r0, r3
    1318:	ebfffd74 	bl	8f0 <ntohs@plt>
    131c:	e1a03000 	mov	r3, r0
    1320:	e1a05003 	mov	r5, r3
    1324:	e51b3050 	ldr	r3, [fp, #-80]	; 0xffffffb0
    1328:	e1d330b2 	ldrh	r3, [r3, #2]
    132c:	e1a00003 	mov	r0, r3
    1330:	ebfffd6e 	bl	8f0 <ntohs@plt>
    1334:	e1a03000 	mov	r3, r0
    1338:	e1a02003 	mov	r2, r3
    133c:	e24b3034 	sub	r3, fp, #52	; 0x34
    1340:	e24b1044 	sub	r1, fp, #68	; 0x44
    1344:	e58d1000 	str	r1, [sp]
    1348:	e58d2004 	str	r2, [sp, #4]
    134c:	e51b001c 	ldr	r0, [fp, #-28]	; 0xffffffe4
    1350:	e1a01006 	mov	r1, r6
    1354:	e1a02003 	mov	r2, r3
    1358:	e1a03005 	mov	r3, r5
[31m    135c:	ebfffd51 	bl	8a8 <fprintf@plt>[0m
    1360:	e59f3420 	ldr	r3, [pc, #1056]	; 1788 <ipsec_spd_add+0x5d0>
    1364:	e7943003 	ldr	r3, [r4, r3]
--
    14a4:	e51b3050 	ldr	r3, [fp, #-80]	; 0xffffffb0
    14a8:	e1d330b2 	ldrh	r3, [r3, #2]
    14ac:	e1a00003 	mov	r0, r3
    14b0:	ebfffd0e 	bl	8f0 <ntohs@plt>
    14b4:	e1a03000 	mov	r3, r0
    14b8:	e1a05003 	mov	r5, r3
    14bc:	e51b304c 	ldr	r3, [fp, #-76]	; 0xffffffb4
    14c0:	e1d330b2 	ldrh	r3, [r3, #2]
    14c4:	e1a00003 	mov	r0, r3
    14c8:	ebfffd08 	bl	8f0 <ntohs@plt>
    14cc:	e1a03000 	mov	r3, r0
    14d0:	e1a02003 	mov	r2, r3
    14d4:	e24b3044 	sub	r3, fp, #68	; 0x44
    14d8:	e24b1034 	sub	r1, fp, #52	; 0x34
    14dc:	e58d1000 	str	r1, [sp]
    14e0:	e58d2004 	str	r2, [sp, #4]
    14e4:	e51b001c 	ldr	r0, [fp, #-28]	; 0xffffffe4
    14e8:	e1a01006 	mov	r1, r6
    14ec:	e1a02003 	mov	r2, r3
    14f0:	e1a03005 	mov	r3, r5
[31m    14f4:	ebfffceb 	bl	8a8 <fprintf@plt>[0m
    14f8:	e59f3288 	ldr	r3, [pc, #648]	; 1788 <ipsec_spd_add+0x5d0>
    14fc:	e7943003 	ldr	r3, [r4, r3]
--
    1838:	e51b303c 	ldr	r3, [fp, #-60]	; 0xffffffc4
    183c:	e5930004 	ldr	r0, [r3, #4]
    1840:	ebfffc2d 	bl	8fc <inet_ntoa@plt>
    1844:	e50b0020 	str	r0, [fp, #-32]	; 0xffffffe0
    1848:	e51b3020 	ldr	r3, [fp, #-32]	; 0xffffffe0
    184c:	e24b2030 	sub	r2, fp, #48	; 0x30
    1850:	e1a00002 	mov	r0, r2
    1854:	e1a01003 	mov	r1, r3
    1858:	ebfffbf4 	bl	830 <strcpy@plt>
    185c:	e59f3238 	ldr	r3, [pc, #568]	; 1a9c <ipsec_spd_add_outbound+0x2e4>
    1860:	e0843003 	add	r3, r4, r3
    1864:	e1a05003 	mov	r5, r3
    1868:	e51b303c 	ldr	r3, [fp, #-60]	; 0xffffffc4
    186c:	e1d330b2 	ldrh	r3, [r3, #2]
    1870:	e1a00003 	mov	r0, r3
    1874:	ebfffc1d 	bl	8f0 <ntohs@plt>
    1878:	e1a03000 	mov	r3, r0
    187c:	e24b2030 	sub	r2, fp, #48	; 0x30
    1880:	e51b001c 	ldr	r0, [fp, #-28]	; 0xffffffe4
    1884:	e1a01005 	mov	r1, r5
[31m    1888:	ebfffc06 	bl	8a8 <fprintf@plt>[0m
    188c:	e59f320c 	ldr	r3, [pc, #524]	; 1aa0 <ipsec_spd_add_outbound+0x2e8>
    1890:	e7943003 	ldr	r3, [r4, r3]

[0m
[[0;33m*[0m] Function [0;33mfprintf[0m used [0;33m5[0m times [0;33mipsec.so[0m

