[[0;33m*[0m] Binary protection state of [0;33mepi_ttcp.svn-base[0m
[REF] s12

  	RELRO          CANARY            NX           PIE       RPATH        RUNPATH      SYMBOLS      
  	[31mNo RELRO[0m       [31mNo Canary found[0m   [32mNX enabled[0m   [31mNo PIE[0m       [32mNo RPATH[0m     [32mNo RUNPATH[0m   [32mNo Symbols[0m

[0m
[[0;33m*[0m] Function [0;33mfprintf[0m tear down of [0;33mepi_ttcp.svn-base[0m

    8e10:	e12fff33 	blx	r3
    8e14:	e8bd8008 	pop	{r3, pc}
    8e18:	00000000 	andeq	r0, r0, r0
    8e1c:	0000f3c0 	andeq	pc, r0, r0, asr #7
    8e20:	000175a0 	andeq	r7, r1, r0, lsr #11
    8e24:	000173cc 	andeq	r7, r1, ip, asr #7
    8e28:	00000000 	andeq	r0, r0, r0
    8e2c:	e92d4010 	push	{r4, lr}
    8e30:	e24dde82 	sub	sp, sp, #2080	; 0x820
    8e34:	e28d4010 	add	r4, sp, #16
    8e38:	e30d12a0 	movw	r1, #53920	; 0xd2a0
    8e3c:	e244400c 	sub	r4, r4, #12
    8e40:	e3401000 	movt	r1, #0
    8e44:	e1a00004 	mov	r0, r4
    8e48:	e300281b 	movw	r2, #2075	; 0x81b
    8e4c:	ebffff31 	bl	8b18 <memcpy@plt>
    8e50:	e3073598 	movw	r3, #30104	; 0x7598
    8e54:	e1a01004 	mov	r1, r4
    8e58:	e3403001 	movt	r3, #1
    8e5c:	e5930000 	ldr	r0, [r3]
[31m    8e60:	ebffff4d 	bl	8b9c <fprintf@plt>[0m
    8e64:	e28dde82 	add	sp, sp, #2080	; 0x820
    8e68:	e8bd8010 	pop	{r4, pc}
--
    8fb4:	e1a00004 	mov	r0, r4
    8fb8:	e1a01005 	mov	r1, r5
    8fbc:	e3a02000 	mov	r2, #0
    8fc0:	e34431e0 	movt	r3, #16864	; 0x41e0
    8fc4:	eb00106e 	bl	d184 <err+0x302c>
    8fc8:	e3500000 	cmp	r0, #0
    8fcc:	1a000007 	bne	8ff0 <_start+0x298>
    8fd0:	e3a03000 	mov	r3, #0
    8fd4:	e1a00004 	mov	r0, r4
    8fd8:	e1a01005 	mov	r1, r5
    8fdc:	e3a02000 	mov	r2, #0
    8fe0:	e34c31e0 	movt	r3, #49632	; 0xc1e0
    8fe4:	eb001057 	bl	d148 <err+0x2ff0>
    8fe8:	e3500000 	cmp	r0, #0
    8fec:	0a0000a5 	beq	9288 <_start+0x530>
    8ff0:	e59f32f8 	ldr	r3, [pc, #760]	; 92f0 <_start+0x598>
    8ff4:	e3a07001 	mov	r7, #1
    8ff8:	e59f22f4 	ldr	r2, [pc, #756]	; 92f4 <_start+0x59c>
    8ffc:	e59f12f4 	ldr	r1, [pc, #756]	; 92f8 <_start+0x5a0>
    9000:	e5930000 	ldr	r0, [r3]
[31m    9004:	ebfffee4 	bl	8b9c <fprintf@plt>[0m
    9008:	e3a03901 	mov	r3, #16384	; 0x4000
    900c:	e1a00004 	mov	r0, r4
--
    9210:	eb000e79 	bl	cbfc <err+0x2aa4>
    9214:	e1a04000 	mov	r4, r0
    9218:	e1a05001 	mov	r5, r1
    921c:	eaffff63 	b	8fb0 <_start+0x258>
    9220:	e3a08001 	mov	r8, #1
    9224:	e59fa0ec 	ldr	sl, [pc, #236]	; 9318 <_start+0x5c0>
    9228:	eaffff60 	b	8fb0 <_start+0x258>
    922c:	e3a04000 	mov	r4, #0
    9230:	e3a05000 	mov	r5, #0
    9234:	e3a07000 	mov	r7, #0
    9238:	e3a08001 	mov	r8, #1
    923c:	e59fa0d8 	ldr	sl, [pc, #216]	; 931c <_start+0x5c4>
    9240:	eaffff82 	b	9050 <_start+0x2f8>
    9244:	e59fa0cc 	ldr	sl, [pc, #204]	; 9318 <_start+0x5c0>
    9248:	e3a08000 	mov	r8, #0
    924c:	eaffff57 	b	8fb0 <_start+0x258>
    9250:	e59f3098 	ldr	r3, [pc, #152]	; 92f0 <_start+0x598>
    9254:	e59f109c 	ldr	r1, [pc, #156]	; 92f8 <_start+0x5a0>
    9258:	e59f20c0 	ldr	r2, [pc, #192]	; 9320 <_start+0x5c8>
    925c:	e5930000 	ldr	r0, [r3]
[31m    9260:	ebfffe4d 	bl	8b9c <fprintf@plt>[0m
    9264:	e3580000 	cmp	r8, #0
    9268:	e3a03000 	mov	r3, #0
--
    9454:	e0cc649c 	smull	r6, ip, ip, r4
    9458:	e06ec34c 	rsb	ip, lr, ip, asr #6
    945c:	e3a06ffa 	mov	r6, #1000	; 0x3e8
    9460:	e3a03901 	mov	r3, #16384	; 0x4000
    9464:	e026c596 	mla	r6, r6, r5, ip
    9468:	e3a02000 	mov	r2, #0
    946c:	e344308f 	movt	r3, #16527	; 0x408f
    9470:	e1a08000 	mov	r8, r0
    9474:	e1a09001 	mov	r9, r1
    9478:	eb000e7a 	bl	ce68 <err+0x2d10>
    947c:	e1a04000 	mov	r4, r0
    9480:	e1a05001 	mov	r5, r1
    9484:	eb000f43 	bl	d198 <err+0x3040>
    9488:	e1560000 	cmp	r6, r0
    948c:	0a000005 	beq	94a8 <_start+0x750>
    9490:	e59f3024 	ldr	r3, [pc, #36]	; 94bc <_start+0x764>
    9494:	e1a02006 	mov	r2, r6
    9498:	e1cd40f0 	strd	r4, [sp]
    949c:	e59f101c 	ldr	r1, [pc, #28]	; 94c0 <_start+0x768>
    94a0:	e5930000 	ldr	r0, [r3]
[31m    94a4:	ebfffdbc 	bl	8b9c <fprintf@plt>[0m
    94a8:	e1a00008 	mov	r0, r8
    94ac:	e1a01009 	mov	r1, r9
--
    958c:	e0cc649c 	smull	r6, ip, ip, r4
    9590:	e06ec34c 	rsb	ip, lr, ip, asr #6
    9594:	e3a06ffa 	mov	r6, #1000	; 0x3e8
    9598:	e3a03901 	mov	r3, #16384	; 0x4000
    959c:	e026c596 	mla	r6, r6, r5, ip
    95a0:	e3a02000 	mov	r2, #0
    95a4:	e344308f 	movt	r3, #16527	; 0x408f
    95a8:	e1a08000 	mov	r8, r0
    95ac:	e1a09001 	mov	r9, r1
    95b0:	eb000e2c 	bl	ce68 <err+0x2d10>
    95b4:	e1a04000 	mov	r4, r0
    95b8:	e1a05001 	mov	r5, r1
    95bc:	eb000ef5 	bl	d198 <err+0x3040>
    95c0:	e1560000 	cmp	r6, r0
    95c4:	0a000005 	beq	95e0 <_start+0x888>
    95c8:	e59f3024 	ldr	r3, [pc, #36]	; 95f4 <_start+0x89c>
    95cc:	e1a02006 	mov	r2, r6
    95d0:	e1cd40f0 	strd	r4, [sp]
    95d4:	e59f101c 	ldr	r1, [pc, #28]	; 95f8 <_start+0x8a0>
    95d8:	e5930000 	ldr	r0, [r3]
[31m    95dc:	ebfffd6e 	bl	8b9c <fprintf@plt>[0m
    95e0:	e1a00008 	mov	r0, r8
    95e4:	e1a01009 	mov	r1, r9
--
    9744:	03a0a000 	moveq	sl, #0
    9748:	eb000e8d 	bl	d184 <err+0x302c>
    974c:	e3500000 	cmp	r0, #0
    9750:	e6efa07a 	uxtb	sl, sl
    9754:	03a06000 	moveq	r6, #0
    9758:	e6ef6076 	uxtb	r6, r6
    975c:	e3540000 	cmp	r4, #0
    9760:	1a000006 	bne	9780 <_start+0xa28>
    9764:	e3a03000 	mov	r3, #0
    9768:	e1cd02d0 	ldrd	r0, [sp, #32]
    976c:	e3a02000 	mov	r2, #0
    9770:	e34c31e0 	movt	r3, #49632	; 0xc1e0
    9774:	eb000e73 	bl	d148 <err+0x2ff0>
    9778:	e3500000 	cmp	r0, #0
    977c:	0a00013c 	beq	9c74 <_start+0xf1c>
    9780:	e3a09000 	mov	r9, #0
    9784:	e5950000 	ldr	r0, [r5]
    9788:	e59f192c 	ldr	r1, [pc, #2348]	; a0bc <_start+0x1364>
    978c:	e59f292c 	ldr	r2, [pc, #2348]	; a0c0 <_start+0x1368>
    9790:	e58d9040 	str	r9, [sp, #64]	; 0x40
[31m    9794:	ebfffd00 	bl	8b9c <fprintf@plt>[0m
    9798:	e35b0000 	cmp	fp, #0
    979c:	1a000006 	bne	97bc <_start+0xa64>
    97a0:	e3a03000 	mov	r3, #0
    97a4:	e1cd03d8 	ldrd	r0, [sp, #56]	; 0x38
    97a8:	e3a02000 	mov	r2, #0
    97ac:	e34c31e0 	movt	r3, #49632	; 0xc1e0
    97b0:	eb000e64 	bl	d148 <err+0x2ff0>
    97b4:	e3500000 	cmp	r0, #0
    97b8:	0a000129 	beq	9c64 <_start+0xf0c>
    97bc:	e3a02000 	mov	r2, #0
    97c0:	e5950000 	ldr	r0, [r5]
    97c4:	e58d2044 	str	r2, [sp, #68]	; 0x44
    97c8:	e59f18ec 	ldr	r1, [pc, #2284]	; a0bc <_start+0x1364>
    97cc:	e59f28f0 	ldr	r2, [pc, #2288]	; a0c4 <_start+0x136c>
[31m    97d0:	ebfffcf1 	bl	8b9c <fprintf@plt>[0m
    97d4:	e35a0000 	cmp	sl, #0
    97d8:	1a000006 	bne	97f8 <_start+0xaa0>
    97dc:	e3a03000 	mov	r3, #0
    97e0:	e1cd03d0 	ldrd	r0, [sp, #48]	; 0x30
    97e4:	e3a02000 	mov	r2, #0
    97e8:	e34c31e0 	movt	r3, #49632	; 0xc1e0
    97ec:	eb000e55 	bl	d148 <err+0x2ff0>
    97f0:	e3500000 	cmp	r0, #0
    97f4:	0a00010f 	beq	9c38 <_start+0xee0>
    97f8:	e3a04000 	mov	r4, #0
    97fc:	e5950000 	ldr	r0, [r5]
    9800:	e59f18b4 	ldr	r1, [pc, #2228]	; a0bc <_start+0x1364>
    9804:	e59f28bc 	ldr	r2, [pc, #2236]	; a0c8 <_start+0x1370>
    9808:	e58d4030 	str	r4, [sp, #48]	; 0x30
[31m    980c:	ebfffce2 	bl	8b9c <fprintf@plt>[0m
    9810:	e3560000 	cmp	r6, #0
    9814:	1a000006 	bne	9834 <_start+0xadc>
    9818:	e3a03000 	mov	r3, #0
    981c:	e1cd02d8 	ldrd	r0, [sp, #40]	; 0x28
    9820:	e3a02000 	mov	r2, #0
    9824:	e34c31e0 	movt	r3, #49632	; 0xc1e0
    9828:	eb000e46 	bl	d148 <err+0x2ff0>
    982c:	e3500000 	cmp	r0, #0
    9830:	0a0000f7 	beq	9c14 <_start+0xebc>
    9834:	e3a01000 	mov	r1, #0
    9838:	e5950000 	ldr	r0, [r5]
    983c:	e58d1028 	str	r1, [sp, #40]	; 0x28
    9840:	e59f2884 	ldr	r2, [pc, #2180]	; a0cc <_start+0x1374>
    9844:	e59f1870 	ldr	r1, [pc, #2160]	; a0bc <_start+0x1364>
[31m    9848:	ebfffcd3 	bl	8b9c <fprintf@plt>[0m
    984c:	e3070770 	movw	r0, #30576	; 0x7770
    9850:	e3a03000 	mov	r3, #0
--
    9888:	e58d6000 	str	r6, [sp]
    988c:	ebfffd7e 	bl	8e8c <_start+0x134>
    9890:	e59fb838 	ldr	fp, [pc, #2104]	; a0d0 <_start+0x1378>
    9894:	e28d1068 	add	r1, sp, #104	; 0x68
    9898:	e595c000 	ldr	ip, [r5]
    989c:	e1cd24d8 	ldrd	r2, [sp, #72]	; 0x48
    98a0:	e5db0000 	ldrb	r0, [fp]
    98a4:	e58d1000 	str	r1, [sp]
    98a8:	e58dc01c 	str	ip, [sp, #28]
    98ac:	ebfffd76 	bl	8e8c <_start+0x134>
    98b0:	e59dc01c 	ldr	ip, [sp, #28]
    98b4:	e1a03006 	mov	r3, r6
    98b8:	e58d0008 	str	r0, [sp, #8]
    98bc:	e1a02008 	mov	r2, r8
    98c0:	e59fa80c 	ldr	sl, [pc, #2060]	; a0d4 <_start+0x137c>
    98c4:	e1a0000c 	mov	r0, ip
    98c8:	e59dc040 	ldr	ip, [sp, #64]	; 0x40
    98cc:	e59f1804 	ldr	r1, [pc, #2052]	; a0d8 <_start+0x1380>
    98d0:	e58d9004 	str	r9, [sp, #4]
    98d4:	e58dc000 	str	ip, [sp]
[31m    98d8:	ebfffcaf 	bl	8b9c <fprintf@plt>[0m
    98dc:	e59a3000 	ldr	r3, [sl]
    98e0:	e3530000 	cmp	r3, #0
    98e4:	1a000127 	bne	9d88 <_start+0x1030>
    98e8:	e59dc030 	ldr	ip, [sp, #48]	; 0x30
    98ec:	e1a02008 	mov	r2, r8
    98f0:	e5950000 	ldr	r0, [r5]
    98f4:	e5973000 	ldr	r3, [r7]
    98f8:	e58dc000 	str	ip, [sp]
    98fc:	e59dc028 	ldr	ip, [sp, #40]	; 0x28
    9900:	e59f17d4 	ldr	r1, [pc, #2004]	; a0dc <_start+0x1384>
    9904:	e98d1010 	stmib	sp, {r4, ip}
    9908:	e58d400c 	str	r4, [sp, #12]
[31m    990c:	ebfffca2 	bl	8b9c <fprintf@plt>[0m
    9910:	e1a02008 	mov	r2, r8
    9914:	e59f17c4 	ldr	r1, [pc, #1988]	; a0e0 <_start+0x1388>
    9918:	e5950000 	ldr	r0, [r5]
[31m    991c:	ebfffc9e 	bl	8b9c <fprintf@plt>[0m
    9920:	ebfffee7 	bl	94c4 <_start+0x76c>
    9924:	e1cd02f8 	strd	r0, [sp, #40]	; 0x28
--
    9a10:	e5951000 	ldr	r1, [r5]
    9a14:	ebfffcae 	bl	8cd4 <fputc@plt>
    9a18:	e59a3000 	ldr	r3, [sl]
    9a1c:	e3530000 	cmp	r3, #0
    9a20:	1a00009f 	bne	9ca4 <_start+0xf4c>
    9a24:	e59f46c4 	ldr	r4, [pc, #1732]	; a0f0 <_start+0x1398>
    9a28:	e5940000 	ldr	r0, [r4]
    9a2c:	e3500000 	cmp	r0, #0
    9a30:	0a000047 	beq	9b54 <_start+0xdfc>
    9a34:	e59f56b0 	ldr	r5, [pc, #1712]	; a0ec <_start+0x1394>
    9a38:	e5951054 	ldr	r1, [r5, #84]	; 0x54
    9a3c:	e595300c 	ldr	r3, [r5, #12]
    9a40:	e595c050 	ldr	ip, [r5, #80]	; 0x50
    9a44:	e5952008 	ldr	r2, [r5, #8]
    9a48:	e0513003 	subs	r3, r1, r3
    9a4c:	e59f16a0 	ldr	r1, [pc, #1696]	; a0f4 <_start+0x139c>
    9a50:	4283393d 	addmi	r3, r3, #999424	; 0xf4000
    9a54:	e062200c 	rsb	r2, r2, ip
    9a58:	42833d09 	addmi	r3, r3, #576	; 0x240
    9a5c:	42422001 	submi	r2, r2, #1
[31m    9a60:	ebfffc4d 	bl	8b9c <fprintf@plt>[0m
    9a64:	e595105c 	ldr	r1, [r5, #92]	; 0x5c
    9a68:	e5953014 	ldr	r3, [r5, #20]
    9a6c:	e5950010 	ldr	r0, [r5, #16]
    9a70:	e5952058 	ldr	r2, [r5, #88]	; 0x58
    9a74:	e0513003 	subs	r3, r1, r3
    9a78:	e59f1674 	ldr	r1, [pc, #1652]	; a0f4 <_start+0x139c>
    9a7c:	4283393d 	addmi	r3, r3, #999424	; 0xf4000
    9a80:	e0602002 	rsb	r2, r0, r2
    9a84:	42833d09 	addmi	r3, r3, #576	; 0x240
    9a88:	42422001 	submi	r2, r2, #1
    9a8c:	e5940000 	ldr	r0, [r4]
[31m    9a90:	ebfffc41 	bl	8b9c <fprintf@plt>[0m
    9a94:	e1cd22d0 	ldrd	r2, [sp, #32]
    9a98:	e1cd03d8 	ldrd	r0, [sp, #56]	; 0x38
    9a9c:	eb000cf1 	bl	ce68 <err+0x2d10>
    9aa0:	e5945000 	ldr	r5, [r4]
    9aa4:	e3a03000 	mov	r3, #0
    9aa8:	e3a02000 	mov	r2, #0
    9aac:	e3443059 	movt	r3, #16473	; 0x4059
    9ab0:	eb000c51 	bl	cbfc <err+0x2aa4>
    9ab4:	e1a02000 	mov	r2, r0
    9ab8:	e1a03001 	mov	r3, r1
    9abc:	e1a00005 	mov	r0, r5
    9ac0:	e59f1630 	ldr	r1, [pc, #1584]	; a0f8 <_start+0x13a0>
[31m    9ac4:	ebfffc34 	bl	8b9c <fprintf@plt>[0m
    9ac8:	e3a03000 	mov	r3, #0
    9acc:	e1cd02d0 	ldrd	r0, [sp, #32]
    9ad0:	e3a02000 	mov	r2, #0
    9ad4:	e3443024 	movt	r3, #16420	; 0x4024
    9ad8:	eb000d95 	bl	d134 <err+0x2fdc>
    9adc:	e5943000 	ldr	r3, [r4]
    9ae0:	e3500000 	cmp	r0, #0
    9ae4:	e59f2610 	ldr	r2, [pc, #1552]	; a0fc <_start+0x13a4>
    9ae8:	e59f1610 	ldr	r1, [pc, #1552]	; a100 <_start+0x13a8>
    9aec:	e1a00003 	mov	r0, r3
    9af0:	01a01002 	moveq	r1, r2
[31m    9af4:	ebfffc28 	bl	8b9c <fprintf@plt>[0m
    9af8:	e3083480 	movw	r3, #33920	; 0x8480
    9afc:	e3a02000 	mov	r2, #0
    9b00:	e344312e 	movt	r3, #16686	; 0x412e
    9b04:	e1cd02d0 	ldrd	r0, [sp, #32]
    9b08:	eb000cd6 	bl	ce68 <err+0x2d10>
    9b0c:	e307c770 	movw	ip, #30576	; 0x7770
    9b10:	e3a03000 	mov	r3, #0
    9b14:	e340c001 	movt	ip, #1
    9b18:	e5946000 	ldr	r6, [r4]
    9b1c:	e3a02000 	mov	r2, #0
    9b20:	e1cd00f0 	strd	r0, [sp]
    9b24:	e3433eb0 	movt	r3, #16048	; 0x3eb0
    9b28:	e1cc40d0 	ldrd	r4, [ip]
    9b2c:	e1cd04d8 	ldrd	r0, [sp, #72]	; 0x48
    9b30:	eb000c31 	bl	cbfc <err+0x2aa4>
    9b34:	e597c000 	ldr	ip, [r7]
    9b38:	e1a02004 	mov	r2, r4
    9b3c:	e1cd00f8 	strd	r0, [sp, #8]
    9b40:	e1a03005 	mov	r3, r5
    9b44:	e1a00006 	mov	r0, r6
    9b48:	e59f15b4 	ldr	r1, [pc, #1460]	; a104 <_start+0x13ac>
    9b4c:	e58dc010 	str	ip, [sp, #16]
[31m    9b50:	ebfffc11 	bl	8b9c <fprintf@plt>[0m
    9b54:	e28dd0d4 	add	sp, sp, #212	; 0xd4
    9b58:	e8bd8ff0 	pop	{r4, r5, r6, r7, r8, r9, sl, fp, pc}
--
    9c90:	e0622943 	rsb	r2, r2, r3, asr #18
    9c94:	e340900f 	movt	r9, #15
    9c98:	e58d2040 	str	r2, [sp, #64]	; 0x40
    9c9c:	e0690299 	mls	r9, r9, r2, r0
    9ca0:	eafffebc 	b	9798 <_start+0xa40>
    9ca4:	e59f345c 	ldr	r3, [pc, #1116]	; a108 <_start+0x13b0>
    9ca8:	e1a01008 	mov	r1, r8
    9cac:	e59f0458 	ldr	r0, [pc, #1112]	; a10c <_start+0x13b4>
    9cb0:	e5932000 	ldr	r2, [r3]
    9cb4:	ebfffb88 	bl	8adc <printf@plt>
    9cb8:	eaffff59 	b	9a24 <_start+0xccc>
    9cbc:	e3a03000 	mov	r3, #0
    9cc0:	e3a02000 	mov	r2, #0
    9cc4:	e3443024 	movt	r3, #16420	; 0x4024
    9cc8:	e5950000 	ldr	r0, [r5]
    9ccc:	e1cd22f0 	strd	r2, [sp, #32]
    9cd0:	e1a02008 	mov	r2, r8
    9cd4:	e59f1434 	ldr	r1, [pc, #1076]	; a110 <_start+0x13b8>
    9cd8:	e3a0300a 	mov	r3, #10
    9cdc:	e3a04000 	mov	r4, #0
[31m    9ce0:	ebfffbad 	bl	8b9c <fprintf@plt>[0m
    9ce4:	eafffe72 	b	96b4 <_start+0x95c>
    9ce8:	e59f53c4 	ldr	r5, [pc, #964]	; a0b4 <_start+0x135c>
    9cec:	e3a01000 	mov	r1, #0
    9cf0:	e3a00000 	mov	r0, #0
    9cf4:	e3441024 	movt	r1, #16420	; 0x4024
    9cf8:	e1cd03f8 	strd	r0, [sp, #56]	; 0x38
    9cfc:	e1a02008 	mov	r2, r8
    9d00:	e59f140c 	ldr	r1, [pc, #1036]	; a114 <_start+0x13bc>
    9d04:	e3a0300a 	mov	r3, #10
    9d08:	e5950000 	ldr	r0, [r5]
    9d0c:	e3a0b000 	mov	fp, #0
[31m    9d10:	ebfffba1 	bl	8b9c <fprintf@plt>[0m
    9d14:	eafffe56 	b	9674 <_start+0x91c>
    9d18:	e59f43cc 	ldr	r4, [pc, #972]	; a0ec <_start+0x1394>
--
    9dc8:	e58d1000 	str	r1, [sp]
    9dcc:	ebfffc2e 	bl	8e8c <_start+0x134>
    9dd0:	e59d3044 	ldr	r3, [sp, #68]	; 0x44
    9dd4:	e58d0008 	str	r0, [sp, #8]
    9dd8:	e59d0044 	ldr	r0, [sp, #68]	; 0x44
    9ddc:	e59dc044 	ldr	ip, [sp, #68]	; 0x44
    9de0:	e1a02fc3 	asr	r2, r3, #31
    9de4:	e30d3e83 	movw	r3, #56963	; 0xde83
    9de8:	e344331b 	movt	r3, #17179	; 0x431b
    9dec:	e0c3cc93 	smull	ip, r3, r3, ip
    9df0:	e304c240 	movw	ip, #16960	; 0x4240
    9df4:	e0623943 	rsb	r3, r2, r3, asr #18
    9df8:	e340c00f 	movt	ip, #15
    9dfc:	e59f1330 	ldr	r1, [pc, #816]	; a134 <_start+0x13dc>
    9e00:	e06c039c 	mls	ip, ip, r3, r0
    9e04:	e58d3000 	str	r3, [sp]
    9e08:	e1a00009 	mov	r0, r9
    9e0c:	e1a02008 	mov	r2, r8
    9e10:	e1a03006 	mov	r3, r6
    9e14:	e58dc004 	str	ip, [sp, #4]
[31m    9e18:	ebfffb5f 	bl	8b9c <fprintf@plt>[0m
    9e1c:	eafffeb1 	b	98e8 <_start+0xb90>
    9e20:	e59d0040 	ldr	r0, [sp, #64]	; 0x40
    9e24:	e5953000 	ldr	r3, [r5]
    9e28:	e3500000 	cmp	r0, #0
    9e2c:	0a000095 	beq	a088 <_start+0x1330>
    9e30:	e5960064 	ldr	r0, [r6, #100]	; 0x64
    9e34:	e59d1040 	ldr	r1, [sp, #64]	; 0x40
    9e38:	e596201c 	ldr	r2, [r6, #28]
    9e3c:	e0620000 	rsb	r0, r2, r0
    9e40:	e58d301c 	str	r3, [sp, #28]
    9e44:	eb000a3f 	bl	c748 <err+0x25f0>
    9e48:	e59d301c 	ldr	r3, [sp, #28]
    9e4c:	e1a02000 	mov	r2, r0
    9e50:	e1a00003 	mov	r0, r3
    9e54:	e59f12dc 	ldr	r1, [pc, #732]	; a138 <_start+0x13e0>
[31m    9e58:	ebfffb4f 	bl	8b9c <fprintf@plt>[0m
    9e5c:	eaffff40 	b	9b64 <_start+0xe0c>
    9e60:	e5961090 	ldr	r1, [r6, #144]	; 0x90
    9e64:	e5962048 	ldr	r2, [r6, #72]	; 0x48
    9e68:	e596c094 	ldr	ip, [r6, #148]	; 0x94
    9e6c:	e596304c 	ldr	r3, [r6, #76]	; 0x4c
    9e70:	e0622001 	rsb	r2, r2, r1
    9e74:	e5950000 	ldr	r0, [r5]
    9e78:	e59f12bc 	ldr	r1, [pc, #700]	; a13c <_start+0x13e4>
    9e7c:	e063300c 	rsb	r3, r3, ip
[31m    9e80:	ebfffb45 	bl	8b9c <fprintf@plt>[0m
    9e84:	eaffff36 	b	9b64 <_start+0xe0c>
    9e88:	e59d1040 	ldr	r1, [sp, #64]	; 0x40
    9e8c:	e5953000 	ldr	r3, [r5]
    9e90:	e3510000 	cmp	r1, #0
    9e94:	0a00007b 	beq	a088 <_start+0x1330>
    9e98:	e596c06c 	ldr	ip, [r6, #108]	; 0x6c
    9e9c:	e5960068 	ldr	r0, [r6, #104]	; 0x68
    9ea0:	e596e020 	ldr	lr, [r6, #32]
    9ea4:	e5962024 	ldr	r2, [r6, #36]	; 0x24
    9ea8:	e08c0000 	add	r0, ip, r0
    9eac:	e06e0000 	rsb	r0, lr, r0
    9eb0:	eaffffe1 	b	9e3c <_start+0x10e4>
    9eb4:	e59d2044 	ldr	r2, [sp, #68]	; 0x44
    9eb8:	e3520000 	cmp	r2, #0
    9ebc:	0a000073 	beq	a090 <_start+0x1338>
    9ec0:	e5950000 	ldr	r0, [r5]
    9ec4:	e59f1274 	ldr	r1, [pc, #628]	; a140 <_start+0x13e8>
[31m    9ec8:	ebfffb33 	bl	8b9c <fprintf@plt>[0m
    9ecc:	e5950000 	ldr	r0, [r5]
    9ed0:	e1a0200b 	mov	r2, fp
    9ed4:	e59f1268 	ldr	r1, [pc, #616]	; a144 <_start+0x13ec>
    9ed8:	e59d3054 	ldr	r3, [sp, #84]	; 0x54
[31m    9edc:	ebfffb2e 	bl	8b9c <fprintf@plt>[0m
    9ee0:	eaffff1f 	b	9b64 <_start+0xe0c>
    9ee4:	e5962074 	ldr	r2, [r6, #116]	; 0x74
    9ee8:	e596302c 	ldr	r3, [r6, #44]	; 0x2c
    9eec:	e5950000 	ldr	r0, [r5]
    9ef0:	e59f1240 	ldr	r1, [pc, #576]	; a138 <_start+0x13e0>
    9ef4:	e0632002 	rsb	r2, r3, r2
[31m    9ef8:	ebfffb27 	bl	8b9c <fprintf@plt>[0m
    9efc:	eaffff18 	b	9b64 <_start+0xe0c>
    9f00:	e596207c 	ldr	r2, [r6, #124]	; 0x7c
    9f04:	e5963034 	ldr	r3, [r6, #52]	; 0x34
    9f08:	e5950000 	ldr	r0, [r5]
    9f0c:	e59f1224 	ldr	r1, [pc, #548]	; a138 <_start+0x13e0>
    9f10:	e0632002 	rsb	r2, r3, r2
[31m    9f14:	ebfffb20 	bl	8b9c <fprintf@plt>[0m
    9f18:	eaffff11 	b	9b64 <_start+0xe0c>
    9f1c:	e59d2040 	ldr	r2, [sp, #64]	; 0x40
    9f20:	e5953000 	ldr	r3, [r5]
    9f24:	e3520000 	cmp	r2, #0
    9f28:	0a000056 	beq	a088 <_start+0x1330>
    9f2c:	e5960064 	ldr	r0, [r6, #100]	; 0x64
    9f30:	e1a01002 	mov	r1, r2
    9f34:	e596c06c 	ldr	ip, [r6, #108]	; 0x6c
    9f38:	e5962068 	ldr	r2, [r6, #104]	; 0x68
    9f3c:	e596e020 	ldr	lr, [r6, #32]
    9f40:	e08cc000 	add	ip, ip, r0
    9f44:	e596001c 	ldr	r0, [r6, #28]
    9f48:	e08cc002 	add	ip, ip, r2
    9f4c:	e5962024 	ldr	r2, [r6, #36]	; 0x24
    9f50:	e06ec00c 	rsb	ip, lr, ip
    9f54:	e060000c 	rsb	r0, r0, ip
    9f58:	eaffffb7 	b	9e3c <_start+0x10e4>
    9f5c:	e5963060 	ldr	r3, [r6, #96]	; 0x60
    9f60:	e5950000 	ldr	r0, [r5]
    9f64:	e59f11cc 	ldr	r1, [pc, #460]	; a138 <_start+0x13e0>
    9f68:	e0833fa3 	add	r3, r3, r3, lsr #31
    9f6c:	e1a020c3 	asr	r2, r3, #1
[31m    9f70:	ebfffb09 	bl	8b9c <fprintf@plt>[0m
    9f74:	eafffefa 	b	9b64 <_start+0xe0c>
    9f78:	e5962080 	ldr	r2, [r6, #128]	; 0x80
    9f7c:	e5963038 	ldr	r3, [r6, #56]	; 0x38
    9f80:	e5950000 	ldr	r0, [r5]
    9f84:	e59f11ac 	ldr	r1, [pc, #428]	; a138 <_start+0x13e0>
    9f88:	e0632002 	rsb	r2, r3, r2
[31m    9f8c:	ebfffb02 	bl	8b9c <fprintf@plt>[0m
    9f90:	eafffef3 	b	9b64 <_start+0xe0c>
    9f94:	e3a03000 	mov	r3, #0
--
    9fa0:	e1cd02d8 	ldrd	r0, [sp, #40]	; 0x28
    9fa4:	eb000b14 	bl	cbfc <err+0x2aa4>
    9fa8:	e595c000 	ldr	ip, [r5]
    9fac:	e3a03000 	mov	r3, #0
    9fb0:	e1cd06f0 	strd	r0, [sp, #96]	; 0x60
    9fb4:	e3a02000 	mov	r2, #0
    9fb8:	e1cd03d0 	ldrd	r0, [sp, #48]	; 0x30
    9fbc:	e58dc05c 	str	ip, [sp, #92]	; 0x5c
    9fc0:	eb000c5b 	bl	d134 <err+0x2fdc>
    9fc4:	e3500000 	cmp	r0, #0
    9fc8:	13a03000 	movne	r3, #0
    9fcc:	13a02000 	movne	r2, #0
    9fd0:	13433ff0 	movtne	r3, #16368	; 0x3ff0
    9fd4:	01cd23d0 	ldrdeq	r2, [sp, #48]	; 0x30
    9fd8:	e1cd06d0 	ldrd	r0, [sp, #96]	; 0x60
    9fdc:	eb000ba1 	bl	ce68 <err+0x2d10>
    9fe0:	e1a02000 	mov	r2, r0
    9fe4:	e1a03001 	mov	r3, r1
    9fe8:	e59d005c 	ldr	r0, [sp, #92]	; 0x5c
    9fec:	e59f1154 	ldr	r1, [pc, #340]	; a148 <_start+0x13f0>
[31m    9ff0:	ebfffae9 	bl	8b9c <fprintf@plt>[0m
    9ff4:	eafffeda 	b	9b64 <_start+0xe0c>
    9ff8:	e5962070 	ldr	r2, [r6, #112]	; 0x70
    9ffc:	e5963028 	ldr	r3, [r6, #40]	; 0x28
    a000:	e5950000 	ldr	r0, [r5]
    a004:	e59f112c 	ldr	r1, [pc, #300]	; a138 <_start+0x13e0>
    a008:	e0632002 	rsb	r2, r3, r2
[31m    a00c:	ebfffae2 	bl	8b9c <fprintf@plt>[0m
    a010:	eafffed3 	b	9b64 <_start+0xe0c>
    a014:	e596105c 	ldr	r1, [r6, #92]	; 0x5c
    a018:	e5963014 	ldr	r3, [r6, #20]
    a01c:	e5960058 	ldr	r0, [r6, #88]	; 0x58
    a020:	e5962010 	ldr	r2, [r6, #16]
    a024:	e0513003 	subs	r3, r1, r3
    a028:	e0622000 	rsb	r2, r2, r0
    a02c:	4a00000a 	bmi	a05c <_start+0x1304>
    a030:	e5950000 	ldr	r0, [r5]
    a034:	e59f1110 	ldr	r1, [pc, #272]	; a14c <_start+0x13f4>
[31m    a038:	ebfffad7 	bl	8b9c <fprintf@plt>[0m
    a03c:	eafffec8 	b	9b64 <_start+0xe0c>
    a040:	e5961054 	ldr	r1, [r6, #84]	; 0x54
    a044:	e596300c 	ldr	r3, [r6, #12]
    a048:	e5960050 	ldr	r0, [r6, #80]	; 0x50
    a04c:	e5962008 	ldr	r2, [r6, #8]
    a050:	e0513003 	subs	r3, r1, r3
    a054:	e0622000 	rsb	r2, r2, r0
    a058:	5afffff4 	bpl	a030 <_start+0x12d8>
    a05c:	e283393d 	add	r3, r3, #999424	; 0xf4000
    a060:	e2422001 	sub	r2, r2, #1
    a064:	e2833d09 	add	r3, r3, #576	; 0x240
    a068:	eafffff0 	b	a030 <_start+0x12d8>
    a06c:	e5962078 	ldr	r2, [r6, #120]	; 0x78
    a070:	e5963030 	ldr	r3, [r6, #48]	; 0x30
    a074:	e5950000 	ldr	r0, [r5]
    a078:	e59f10d0 	ldr	r1, [pc, #208]	; a150 <_start+0x13f8>
    a07c:	e0632002 	rsb	r2, r3, r2
[31m    a080:	ebfffac5 	bl	8b9c <fprintf@plt>[0m
    a084:	eafffeb6 	b	9b64 <_start+0xe0c>
    a088:	e59d2040 	ldr	r2, [sp, #64]	; 0x40
    a08c:	eaffff6f 	b	9e50 <_start+0x10f8>
    a090:	e5950000 	ldr	r0, [r5]
    a094:	e1a02009 	mov	r2, r9
    a098:	e59f10b4 	ldr	r1, [pc, #180]	; a154 <_start+0x13fc>
    a09c:	e59d3058 	ldr	r3, [sp, #88]	; 0x58
[31m    a0a0:	ebfffabd 	bl	8b9c <fprintf@plt>[0m
    a0a4:	eafffeae 	b	9b64 <_start+0xe0c>
    a0a8:	00017784 	andeq	r7, r1, r4, lsl #15
--
    a14c:	0000ddd8 	ldrdeq	sp, [r0], -r8
    a150:	0000de04 	andeq	sp, r0, r4, lsl #28
    a154:	0000ddf4 	strdeq	sp, [r0], -r4

0000a158 <err>:
    a158:	e59f1060 	ldr	r1, [pc, #96]	; a1c0 <err+0x68>
    a15c:	e30d2b98 	movw	r2, #56216	; 0xdb98
    a160:	e92d4070 	push	{r4, r5, r6, lr}
    a164:	e30d3b90 	movw	r3, #56208	; 0xdb90
    a168:	e59f4054 	ldr	r4, [pc, #84]	; a1c4 <err+0x6c>
    a16c:	e3403000 	movt	r3, #0
    a170:	e3402000 	movt	r2, #0
    a174:	e1a06000 	mov	r6, r0
    a178:	e5915000 	ldr	r5, [r1]
    a17c:	e5940000 	ldr	r0, [r4]
    a180:	e59f1040 	ldr	r1, [pc, #64]	; a1c8 <err+0x70>
    a184:	e3550000 	cmp	r5, #0
    a188:	11a05003 	movne	r5, r3
    a18c:	01a05002 	moveq	r5, r2
    a190:	e1a02005 	mov	r2, r5
[31m    a194:	ebfffa80 	bl	8b9c <fprintf@plt>[0m
    a198:	e1a00006 	mov	r0, r6
    a19c:	ebfffa60 	bl	8b24 <perror@plt>
    a1a0:	ebfffad7 	bl	8d04 <__errno_location@plt>
    a1a4:	e1a02005 	mov	r2, r5
    a1a8:	e5903000 	ldr	r3, [r0]
    a1ac:	e59f1018 	ldr	r1, [pc, #24]	; a1cc <err+0x74>
    a1b0:	e5940000 	ldr	r0, [r4]
[31m    a1b4:	ebfffa78 	bl	8b9c <fprintf@plt>[0m
    a1b8:	e3a00001 	mov	r0, #1
    a1bc:	ebfffad3 	bl	8d10 <exit@plt>
--
    aa0c:	e307c6a0 	movw	ip, #30368	; 0x76a0
    aa10:	e592e000 	ldr	lr, [r2]
    aa14:	e340c001 	movt	ip, #1
    aa18:	e5910000 	ldr	r0, [r1]
    aa1c:	e3071748 	movw	r1, #30536	; 0x7748
    aa20:	e3401001 	movt	r1, #1
    aa24:	e30727a0 	movw	r2, #30624	; 0x77a0
    aa28:	e5911000 	ldr	r1, [r1]
    aa2c:	e3402001 	movt	r2, #1
    aa30:	e5993000 	ldr	r3, [r9]
    aa34:	e35e0000 	cmp	lr, #0
    aa38:	e59c7000 	ldr	r7, [ip]
    aa3c:	e58d1008 	str	r1, [sp, #8]
    aa40:	e59f1c40 	ldr	r1, [pc, #3136]	; b688 <err+0x1530>
    aa44:	e1d2c0f0 	ldrsh	ip, [r2]
    aa48:	e59f2c9c 	ldr	r2, [pc, #3228]	; b6ec <err+0x1594>
    aa4c:	11a02001 	movne	r2, r1
    aa50:	e59f1b40 	ldr	r1, [pc, #2880]	; b598 <err+0x1440>
    aa54:	e88d0180 	stm	sp, {r7, r8}
    aa58:	e58dc00c 	str	ip, [sp, #12]
[31m    aa5c:	ebfff84e 	bl	8b9c <fprintf@plt>[0m
    aa60:	e5963000 	ldr	r3, [r6]
    aa64:	e3530000 	cmp	r3, #0
--
    ab94:	e28d6d1f 	add	r6, sp, #1984	; 0x7c0
    ab98:	e2477008 	sub	r7, r7, #8
    ab9c:	e59f49f0 	ldr	r4, [pc, #2544]	; b594 <err+0x143c>
    aba0:	e59f19f4 	ldr	r1, [pc, #2548]	; b59c <err+0x1444>
    aba4:	e3002784 	movw	r2, #1924	; 0x784
    aba8:	e2466004 	sub	r6, r6, #4
    abac:	e1a00007 	mov	r0, r7
    abb0:	e28d5ec5 	add	r5, sp, #3152	; 0xc50
    abb4:	ebfff7d7 	bl	8b18 <memcpy@plt>
    abb8:	e285500c 	add	r5, r5, #12
    abbc:	e59f19dc 	ldr	r1, [pc, #2524]	; b5a0 <err+0x1448>
    abc0:	e300249f 	movw	r2, #1183	; 0x49f
    abc4:	e1a00006 	mov	r0, r6
    abc8:	ebfff7d2 	bl	8b18 <memcpy@plt>
    abcc:	e3a020fe 	mov	r2, #254	; 0xfe
    abd0:	e59f19cc 	ldr	r1, [pc, #2508]	; b5a4 <err+0x144c>
    abd4:	e1a00005 	mov	r0, r5
    abd8:	ebfff7ce 	bl	8b18 <memcpy@plt>
    abdc:	e1a01007 	mov	r1, r7
    abe0:	e5940000 	ldr	r0, [r4]
[31m    abe4:	ebfff7ec 	bl	8b9c <fprintf@plt>[0m
    abe8:	e1a01006 	mov	r1, r6
    abec:	e5940000 	ldr	r0, [r4]
[31m    abf0:	ebfff7e9 	bl	8b9c <fprintf@plt>[0m
    abf4:	e5940000 	ldr	r0, [r4]
    abf8:	e1a01005 	mov	r1, r5
[31m    abfc:	ebfff7e6 	bl	8b9c <fprintf@plt>[0m
    ac00:	e3a00001 	mov	r0, #1
    ac04:	ebfff841 	bl	8d10 <exit@plt>
--
    ac0c:	e307c788 	movw	ip, #30600	; 0x7788
    ac10:	e340c001 	movt	ip, #1
    ac14:	e5d33000 	ldrb	r3, [r3]
    ac18:	e5cc3000 	strb	r3, [ip]
    ac1c:	eafffec2 	b	a72c <err+0x5d4>
    ac20:	e59b3000 	ldr	r3, [fp]
    ac24:	e3833001 	orr	r3, r3, #1
    ac28:	e58b3000 	str	r3, [fp]
    ac2c:	eafffebe 	b	a72c <err+0x5d4>
    ac30:	e5980000 	ldr	r0, [r8]
    ac34:	ebfff838 	bl	8d1c <atoi@plt>
    ac38:	e3073750 	movw	r3, #30544	; 0x7750
    ac3c:	e3403001 	movt	r3, #1
    ac40:	e5830000 	str	r0, [r3]
    ac44:	eafffeb8 	b	a72c <err+0x5d4>
    ac48:	e59f2958 	ldr	r2, [pc, #2392]	; b5a8 <err+0x1450>
    ac4c:	e59f0abc 	ldr	r0, [pc, #2748]	; b710 <err+0x15b8>
    ac50:	e59f1954 	ldr	r1, [pc, #2388]	; b5ac <err+0x1454>
    ac54:	e282302c 	add	r3, r2, #44	; 0x2c
    ac58:	e5900000 	ldr	r0, [r0]
[31m    ac5c:	ebfff7ce 	bl	8b9c <fprintf@plt>[0m
    ac60:	e3a00000 	mov	r0, #0
    ac64:	ebfff829 	bl	8d10 <exit@plt>
--
    ad40:	e307367c 	movw	r3, #30332	; 0x767c
    ad44:	e3403001 	movt	r3, #1
    ad48:	e583a000 	str	sl, [r3]
    ad4c:	eafffe76 	b	a72c <err+0x5d4>
    ad50:	e5980000 	ldr	r0, [r8]
    ad54:	ebfff7f0 	bl	8d1c <atoi@plt>
    ad58:	e3071794 	movw	r1, #30612	; 0x7794
    ad5c:	e3401001 	movt	r1, #1
    ad60:	e5810000 	str	r0, [r1]
    ad64:	eafffe70 	b	a72c <err+0x5d4>
    ad68:	e5980000 	ldr	r0, [r8]
    ad6c:	ebfff7ea 	bl	8d1c <atoi@plt>
    ad70:	e3072710 	movw	r2, #30480	; 0x7710
    ad74:	e3402001 	movt	r2, #1
    ad78:	e5820000 	str	r0, [r2]
    ad7c:	eafffe6a 	b	a72c <err+0x5d4>
    ad80:	e59f380c 	ldr	r3, [pc, #2060]	; b594 <err+0x143c>
    ad84:	e1a02007 	mov	r2, r7
    ad88:	e59f1820 	ldr	r1, [pc, #2080]	; b5b0 <err+0x1458>
    ad8c:	e5930000 	ldr	r0, [r3]
[31m    ad90:	ebfff781 	bl	8b9c <fprintf@plt>[0m
    ad94:	ebfff824 	bl	8e2c <_start+0xd4>
    ad98:	e3a00001 	mov	r0, #1
--
    aea0:	e3530000 	cmp	r3, #0
    aea4:	0a000017 	beq	af08 <err+0xdb0>
    aea8:	e3071784 	movw	r1, #30596	; 0x7784
    aeac:	e59f370c 	ldr	r3, [pc, #1804]	; b5c0 <err+0x1468>
    aeb0:	e3401001 	movt	r1, #1
    aeb4:	e28d8ed6 	add	r8, sp, #3424	; 0xd60
    aeb8:	e5912000 	ldr	r2, [r1]
    aebc:	e288800c 	add	r8, r8, #12
    aec0:	e59fa6fc 	ldr	sl, [pc, #1788]	; b5c4 <err+0x146c>
    aec4:	e1a00008 	mov	r0, r8
    aec8:	e59f4840 	ldr	r4, [pc, #2112]	; b710 <err+0x15b8>
    aecc:	e3520000 	cmp	r2, #0
    aed0:	01a0a003 	moveq	sl, r3
    aed4:	ebfff76f 	bl	8c98 <time@plt>
    aed8:	e1a00008 	mov	r0, r8
    aedc:	ebfff731 	bl	8ba8 <ctime@plt>
    aee0:	e59f16e0 	ldr	r1, [pc, #1760]	; b5c8 <err+0x1470>
    aee4:	e1a03000 	mov	r3, r0
    aee8:	e1a0200a 	mov	r2, sl
    aeec:	e5940000 	ldr	r0, [r4]
[31m    aef0:	ebfff729 	bl	8b9c <fprintf@plt>[0m
    aef4:	e5940000 	ldr	r0, [r4]
    aef8:	e1a0200a 	mov	r2, sl
    aefc:	e59f16c8 	ldr	r1, [pc, #1736]	; b5cc <err+0x1474>
    af00:	e5973000 	ldr	r3, [r7]
[31m    af04:	ebfff724 	bl	8b9c <fprintf@plt>[0m
    af08:	e5970000 	ldr	r0, [r7]
    af0c:	e3a02010 	mov	r2, #16
--
    af60:	e1a03004 	mov	r3, r4
    af64:	e1a0000c 	mov	r0, ip
    af68:	ebfff71a 	bl	8bd8 <setsockopt@plt>
    af6c:	e3500000 	cmp	r0, #0
    af70:	ba000154 	blt	b4c8 <err+0x1370>
    af74:	e5942000 	ldr	r2, [r4]
    af78:	e3520000 	cmp	r2, #0
    af7c:	1a0000cb 	bne	b2b0 <err+0x1158>
    af80:	e5963000 	ldr	r3, [r6]
    af84:	e3530000 	cmp	r3, #0
    af88:	0a000009 	beq	afb4 <err+0xe5c>
    af8c:	e3073750 	movw	r3, #30544	; 0x7750
    af90:	e3403001 	movt	r3, #1
    af94:	e5932000 	ldr	r2, [r3]
    af98:	e3520000 	cmp	r2, #0
    af9c:	0a00010c 	beq	b3d4 <err+0x127c>
    afa0:	e307a730 	movw	sl, #30512	; 0x7730
    afa4:	e59f1628 	ldr	r1, [pc, #1576]	; b5d4 <err+0x147c>
    afa8:	e340a001 	movt	sl, #1
    afac:	e59a0000 	ldr	r0, [sl]
[31m    afb0:	ebfff6f9 	bl	8b9c <fprintf@plt>[0m
    afb4:	e5970000 	ldr	r0, [r7]
    afb8:	e3a0c004 	mov	ip, #4
--
    afc4:	e59f360c 	ldr	r3, [pc, #1548]	; b5d8 <err+0x1480>
    afc8:	e58dc000 	str	ip, [sp]
    afcc:	ebfff701 	bl	8bd8 <setsockopt@plt>
    afd0:	e3500000 	cmp	r0, #0
    afd4:	ba000145 	blt	b4f0 <err+0x1398>
    afd8:	e307e784 	movw	lr, #30596	; 0x7784
    afdc:	e340e001 	movt	lr, #1
    afe0:	e59e3000 	ldr	r3, [lr]
    afe4:	e3530000 	cmp	r3, #0
    afe8:	0a000071 	beq	b1b4 <err+0x105c>
    afec:	e595c000 	ldr	ip, [r5]
    aff0:	e59f35e4 	ldr	r3, [pc, #1508]	; b5dc <err+0x1484>
    aff4:	e59d1018 	ldr	r1, [sp, #24]
    aff8:	e35c0000 	cmp	ip, #0
    affc:	e59f26d8 	ldr	r2, [pc, #1752]	; b6dc <err+0x1584>
    b000:	11a02003 	movne	r2, r3
    b004:	e59f35a8 	ldr	r3, [pc, #1448]	; b5b4 <err+0x145c>
    b008:	e5910000 	ldr	r0, [r1]
    b00c:	e59f15cc 	ldr	r1, [pc, #1484]	; b5e0 <err+0x1488>
    b010:	e5933000 	ldr	r3, [r3]
[31m    b014:	ebfff6e0 	bl	8b9c <fprintf@plt>[0m
    b018:	e5953000 	ldr	r3, [r5]
    b01c:	e3530000 	cmp	r3, #0
--
    b184:	eaffff0f 	b	adc8 <err+0xc70>
    b188:	e307c7a0 	movw	ip, #30624	; 0x77a0
    b18c:	e59f2424 	ldr	r2, [pc, #1060]	; b5b8 <err+0x1460>
    b190:	e340c001 	movt	ip, #1
    b194:	e3a0e002 	mov	lr, #2
    b198:	e1dc00b0 	ldrh	r0, [ip]
    b19c:	e1c2e0b0 	strh	lr, [r2]
    b1a0:	e5823004 	str	r3, [r2, #4]
    b1a4:	e1a01400 	lsl	r1, r0, #8
    b1a8:	e1811420 	orr	r1, r1, r0, lsr #8
    b1ac:	e1c210b2 	strh	r1, [r2, #2]
    b1b0:	eaffff2c 	b	ae68 <err+0xd10>
    b1b4:	e595c000 	ldr	ip, [r5]
    b1b8:	e59d2018 	ldr	r2, [sp, #24]
    b1bc:	e59f3418 	ldr	r3, [pc, #1048]	; b5dc <err+0x1484>
    b1c0:	e35c0000 	cmp	ip, #0
    b1c4:	e59f1424 	ldr	r1, [pc, #1060]	; b5f0 <err+0x1498>
    b1c8:	e5920000 	ldr	r0, [r2]
    b1cc:	e59f2508 	ldr	r2, [pc, #1288]	; b6dc <err+0x1584>
    b1d0:	11a02003 	movne	r2, r3
[31m    b1d4:	ebfff670 	bl	8b9c <fprintf@plt>[0m
    b1d8:	eaffff8e 	b	b018 <err+0xec0>
    b1dc:	e597c000 	ldr	ip, [r7]
--
    b204:	e59f03e8 	ldr	r0, [pc, #1000]	; b5f4 <err+0x149c>
    b208:	ebfffbd2 	bl	a158 <err>
    b20c:	e5942000 	ldr	r2, [r4]
    b210:	eaffff58 	b	af78 <err+0xe20>
    b214:	e59f33dc 	ldr	r3, [pc, #988]	; b5f8 <err+0x14a0>
    b218:	e59f73dc 	ldr	r7, [pc, #988]	; b5fc <err+0x14a4>
    b21c:	e59f13dc 	ldr	r1, [pc, #988]	; b600 <err+0x14a8>
    b220:	e5932000 	ldr	r2, [r3]
    b224:	e59f3368 	ldr	r3, [pc, #872]	; b594 <err+0x143c>
    b228:	e59f044c 	ldr	r0, [pc, #1100]	; b67c <err+0x1524>
    b22c:	e3520000 	cmp	r2, #0
    b230:	e59f23cc 	ldr	r2, [pc, #972]	; b604 <err+0x14ac>
    b234:	e58d3018 	str	r3, [sp, #24]
    b238:	e59f33c8 	ldr	r3, [pc, #968]	; b608 <err+0x14b0>
    b23c:	01a03007 	moveq	r3, r7
    b240:	ebfff69a 	bl	8cb0 <sprintf@plt>
    b244:	e59dc018 	ldr	ip, [sp, #24]
    b248:	e59f13bc 	ldr	r1, [pc, #956]	; b60c <err+0x14b4>
    b24c:	e59f2428 	ldr	r2, [pc, #1064]	; b67c <err+0x1524>
    b250:	e59c0000 	ldr	r0, [ip]
[31m    b254:	ebfff650 	bl	8b9c <fprintf@plt>[0m
    b258:	e1a01007 	mov	r1, r7
    b25c:	e59f0418 	ldr	r0, [pc, #1048]	; b67c <err+0x1524>
    b260:	ebfff67d 	bl	8c5c <fopen@plt>
    b264:	e3077730 	movw	r7, #30512	; 0x7730
    b268:	e3500000 	cmp	r0, #0
    b26c:	e3407001 	movt	r7, #1
    b270:	e5870000 	str	r0, [r7]
    b274:	0a00005e 	beq	b3f4 <err+0x129c>
    b278:	ebfff680 	bl	8c80 <fclose@plt>
    b27c:	e59f03f8 	ldr	r0, [pc, #1016]	; b67c <err+0x1524>
    b280:	e59f1388 	ldr	r1, [pc, #904]	; b610 <err+0x14b8>
    b284:	ebfff674 	bl	8c5c <fopen@plt>
    b288:	e3500000 	cmp	r0, #0
    b28c:	e5870000 	str	r0, [r7]
    b290:	1afffda1 	bne	a91c <err+0x7c4>
    b294:	e59d1018 	ldr	r1, [sp, #24]
    b298:	e59f23dc 	ldr	r2, [pc, #988]	; b67c <err+0x1524>
    b29c:	e5910000 	ldr	r0, [r1]
    b2a0:	e59f136c 	ldr	r1, [pc, #876]	; b614 <err+0x14bc>
[31m    b2a4:	ebfff63c 	bl	8b9c <fprintf@plt>[0m
    b2a8:	e3a00001 	mov	r0, #1
    b2ac:	ebfff697 	bl	8d10 <exit@plt>
    b2b0:	e59d1018 	ldr	r1, [sp, #24]
    b2b4:	e5910000 	ldr	r0, [r1]
    b2b8:	e59f1358 	ldr	r1, [pc, #856]	; b618 <err+0x14c0>
[31m    b2bc:	ebfff636 	bl	8b9c <fprintf@plt>[0m
    b2c0:	eaffff2e 	b	af80 <err+0xe28>
    b2c4:	e3073730 	movw	r3, #30512	; 0x7730
    b2c8:	e307c794 	movw	ip, #30612	; 0x7794
    b2cc:	e3403001 	movt	r3, #1
    b2d0:	e340c001 	movt	ip, #1
    b2d4:	e5930000 	ldr	r0, [r3]
    b2d8:	e59f3290 	ldr	r3, [pc, #656]	; b570 <err+0x1418>
    b2dc:	e59ce000 	ldr	lr, [ip]
    b2e0:	e5932000 	ldr	r2, [r3]
    b2e4:	e59f3330 	ldr	r3, [pc, #816]	; b61c <err+0x14c4>
    b2e8:	e5931000 	ldr	r1, [r3]
    b2ec:	e59f332c 	ldr	r3, [pc, #812]	; b620 <err+0x14c8>
    b2f0:	e5937000 	ldr	r7, [r3]
    b2f4:	e59f3328 	ldr	r3, [pc, #808]	; b624 <err+0x14cc>
    b2f8:	e1d3c0f0 	ldrsh	ip, [r3]
    b2fc:	e1a03001 	mov	r3, r1
    b300:	e59f1320 	ldr	r1, [pc, #800]	; b628 <err+0x14d0>
    b304:	e58de000 	str	lr, [sp]
    b308:	e98d1080 	stmib	sp, {r7, ip}
[31m    b30c:	ebfff622 	bl	8b9c <fprintf@plt>[0m
    b310:	eafffdd5 	b	aa6c <err+0x914>
    b314:	e5970000 	ldr	r0, [r7]
--
    b368:	e28d3ed7 	add	r3, sp, #3440	; 0xd70
    b36c:	e5970000 	ldr	r0, [r7]
    b370:	e3a01001 	mov	r1, #1
    b374:	e3a02008 	mov	r2, #8
    b378:	e2833004 	add	r3, r3, #4
    b37c:	e58d8d70 	str	r8, [sp, #3440]	; 0xd70
    b380:	e58da000 	str	sl, [sp]
    b384:	ebfff658 	bl	8cec <getsockopt@plt>
    b388:	e59d3d78 	ldr	r3, [sp, #3448]	; 0xd78
    b38c:	e59d1d74 	ldr	r1, [sp, #3444]	; 0xd74
    b390:	e0812003 	add	r2, r1, r3
    b394:	e1530001 	cmp	r3, r1
    b398:	e0822fa2 	add	r2, r2, r2, lsr #31
    b39c:	e1a020c2 	asr	r2, r2, #1
    b3a0:	e5842000 	str	r2, [r4]
    b3a4:	0afffef3 	beq	af78 <err+0xe20>
    b3a8:	e59dc018 	ldr	ip, [sp, #24]
    b3ac:	e1a02003 	mov	r2, r3
    b3b0:	e59f1274 	ldr	r1, [pc, #628]	; b62c <err+0x14d4>
    b3b4:	e59c0000 	ldr	r0, [ip]
[31m    b3b8:	ebfff5f7 	bl	8b9c <fprintf@plt>[0m
    b3bc:	e59de018 	ldr	lr, [sp, #24]
    b3c0:	e59f1268 	ldr	r1, [pc, #616]	; b630 <err+0x14d8>
    b3c4:	e59d2d74 	ldr	r2, [sp, #3444]	; 0xd74
    b3c8:	e59e0000 	ldr	r0, [lr]
[31m    b3cc:	ebfff5f2 	bl	8b9c <fprintf@plt>[0m
    b3d0:	eafffee7 	b	af74 <err+0xe1c>
    b3d4:	e307c730 	movw	ip, #30512	; 0x7730
--
    b414:	e3a01001 	mov	r1, #1
    b418:	e3a02011 	mov	r2, #17
    b41c:	e59f0214 	ldr	r0, [pc, #532]	; b638 <err+0x14e0>
    b420:	ebfff634 	bl	8cf8 <fwrite@plt>
    b424:	e28800a0 	add	r0, r8, #160	; 0xa0
    b428:	ebfff61a 	bl	8c98 <time@plt>
    b42c:	e28800a0 	add	r0, r8, #160	; 0xa0
    b430:	ebfff60f 	bl	8c74 <localtime@plt>
    b434:	e5902014 	ldr	r2, [r0, #20]
    b438:	e1a03000 	mov	r3, r0
    b43c:	e58830a4 	str	r3, [r8, #164]	; 0xa4
    b440:	e5970000 	ldr	r0, [r7]
    b444:	e58d2000 	str	r2, [sp]
    b448:	e5932008 	ldr	r2, [r3, #8]
    b44c:	e59f11e8 	ldr	r1, [pc, #488]	; b63c <err+0x14e4>
    b450:	e58d2004 	str	r2, [sp, #4]
    b454:	e5932004 	ldr	r2, [r3, #4]
    b458:	e58d2008 	str	r2, [sp, #8]
    b45c:	e593200c 	ldr	r2, [r3, #12]
    b460:	e5933010 	ldr	r3, [r3, #16]
[31m    b464:	ebfff5cc 	bl	8b9c <fprintf@plt>[0m
    b468:	e5973000 	ldr	r3, [r7]
    b46c:	e3a01001 	mov	r1, #1
    b470:	e3a02007 	mov	r2, #7
    b474:	e59f01c4 	ldr	r0, [pc, #452]	; b640 <err+0x14e8>
    b478:	ebfff61e 	bl	8cf8 <fwrite@plt>
    b47c:	e5973000 	ldr	r3, [r7]
    b480:	e3a01001 	mov	r1, #1
    b484:	e3a02034 	mov	r2, #52	; 0x34
    b488:	e59f01b4 	ldr	r0, [pc, #436]	; b644 <err+0x14ec>
    b48c:	ebfff619 	bl	8cf8 <fwrite@plt>
    b490:	e5973000 	ldr	r3, [r7]
    b494:	e3a02038 	mov	r2, #56	; 0x38
    b498:	e3a01001 	mov	r1, #1
    b49c:	e59f01a4 	ldr	r0, [pc, #420]	; b648 <err+0x14f0>
    b4a0:	ebfff614 	bl	8cf8 <fwrite@plt>
    b4a4:	e5970000 	ldr	r0, [r7]
    b4a8:	e59f119c 	ldr	r1, [pc, #412]	; b64c <err+0x14f4>
[31m    b4ac:	ebfff5ba 	bl	8b9c <fprintf@plt>[0m
    b4b0:	e3a01001 	mov	r1, #1
    b4b4:	e3a02032 	mov	r2, #50	; 0x32
--
    b6f4:	0000d298 	muleq	r0, r8, r2
    b6f8:	0000e450 	andeq	lr, r0, r0, asr r4
    b6fc:	0000e59c 	muleq	r0, ip, r5
    b700:	0000e5c8 	andeq	lr, r0, r8, asr #11
    b704:	0000dafc 	strdeq	sp, [r0], -ip
    b708:	0000e5dc 	ldrdeq	lr, [r0], -ip
    b70c:	0000e610 	andeq	lr, r0, r0, lsl r6
    b710:	00017588 	andeq	r7, r1, r8, lsl #11
    b714:	0000e42c 	andeq	lr, r0, ip, lsr #8
    b718:	0000e53c 	andeq	lr, r0, ip, lsr r5
    b71c:	0000e55c 	andeq	lr, r0, ip, asr r5
    b720:	0000e594 	muleq	r0, r4, r5
    b724:	0000e4d0 	ldrdeq	lr, [r0], -r0
    b728:	0000e48c 	andeq	lr, r0, ip, lsl #9
    b72c:	0000d29c 	muleq	r0, ip, r2
    b730:	0000d214 	andeq	sp, r0, r4, lsl r2
    b734:	e59de018 	ldr	lr, [sp, #24]
    b738:	e51f10c8 	ldr	r1, [pc, #-200]	; b678 <err+0x1520>
    b73c:	e51f20c8 	ldr	r2, [pc, #-200]	; b67c <err+0x1524>
    b740:	e59e0000 	ldr	r0, [lr]
[31m    b744:	ebfff514 	bl	8b9c <fprintf@plt>[0m
    b748:	e3a00001 	mov	r0, #1
    b74c:	eafffed6 	b	b2ac <err+0x1154>
--
    ba10:	e59c3000 	ldr	r3, [ip]
    ba14:	e5d32000 	ldrb	r2, [r3]
    ba18:	e2822001 	add	r2, r2, #1
    ba1c:	e5c32000 	strb	r2, [r3]
    ba20:	e307e714 	movw	lr, #30484	; 0x7714
    ba24:	e340e001 	movt	lr, #1
    ba28:	e59e3000 	ldr	r3, [lr]
    ba2c:	e3530000 	cmp	r3, #0
    ba30:	0a00000b 	beq	ba64 <err+0x190c>
    ba34:	e59d1028 	ldr	r1, [sp, #40]	; 0x28
    ba38:	e30706a0 	movw	r0, #30368	; 0x76a0
    ba3c:	e3400001 	movt	r0, #1
    ba40:	e1a0300a 	mov	r3, sl
    ba44:	e590c000 	ldr	ip, [r0]
    ba48:	e2811001 	add	r1, r1, #1
    ba4c:	e5980000 	ldr	r0, [r8]
    ba50:	e58d1028 	str	r1, [sp, #40]	; 0x28
    ba54:	e1a02001 	mov	r2, r1
    ba58:	e51f13bc 	ldr	r1, [pc, #-956]	; b6a4 <err+0x154c>
    ba5c:	e58dc000 	str	ip, [sp]
[31m    ba60:	ebfff44d 	bl	8b9c <fprintf@plt>[0m
    ba64:	e59d201c 	ldr	r2, [sp, #28]
    ba68:	e307a770 	movw	sl, #30576	; 0x7770
--
    bad4:	e5930000 	ldr	r0, [r3]
    bad8:	e5973000 	ldr	r3, [r7]
    badc:	e1530000 	cmp	r3, r0
    bae0:	0a000000 	beq	bae8 <err+0x1990>
    bae4:	ebfff495 	bl	8d40 <close@plt>
    bae8:	e307a69c 	movw	sl, #30364	; 0x769c
    baec:	e340a001 	movt	sl, #1
    baf0:	e59a3000 	ldr	r3, [sl]
    baf4:	e3530000 	cmp	r3, #0
    baf8:	0a00000a 	beq	bb28 <err+0x19d0>
    bafc:	e307e784 	movw	lr, #30596	; 0x7784
    bb00:	e51f3480 	ldr	r3, [pc, #-1152]	; b688 <err+0x1530>
    bb04:	e340e001 	movt	lr, #1
    bb08:	e51f2424 	ldr	r2, [pc, #-1060]	; b6ec <err+0x1594>
    bb0c:	e59ec000 	ldr	ip, [lr]
    bb10:	e5940000 	ldr	r0, [r4]
    bb14:	e51f1490 	ldr	r1, [pc, #-1168]	; b68c <err+0x1534>
    bb18:	e35c0000 	cmp	ip, #0
    bb1c:	11a02003 	movne	r2, r3
    bb20:	e5973000 	ldr	r3, [r7]
[31m    bb24:	ebfff41c 	bl	8b9c <fprintf@plt>[0m
    bb28:	e5963000 	ldr	r3, [r6]
    bb2c:	e3530000 	cmp	r3, #0
    bb30:	0a000017 	beq	bb94 <err+0x1a3c>
    bb34:	e51f54ac 	ldr	r5, [pc, #-1196]	; b690 <err+0x1538>
    bb38:	e3076730 	movw	r6, #30512	; 0x7730
    bb3c:	e3406001 	movt	r6, #1
    bb40:	e28500a8 	add	r0, r5, #168	; 0xa8
    bb44:	ebfff453 	bl	8c98 <time@plt>
    bb48:	e28500a8 	add	r0, r5, #168	; 0xa8
    bb4c:	ebfff448 	bl	8c74 <localtime@plt>
    bb50:	e1a03000 	mov	r3, r0
    bb54:	e5900004 	ldr	r0, [r0, #4]
    bb58:	e3a0c03c 	mov	ip, #60	; 0x3c
    bb5c:	e593e008 	ldr	lr, [r3, #8]
    bb60:	e5932000 	ldr	r2, [r3]
    bb64:	e58530a4 	str	r3, [r5, #164]	; 0xa4
    bb68:	e3a03ee1 	mov	r3, #3600	; 0xe10
    bb6c:	e00c009c 	mul	ip, ip, r0
    bb70:	e51f14e4 	ldr	r1, [pc, #-1252]	; b694 <err+0x153c>
    bb74:	e5960000 	ldr	r0, [r6]
    bb78:	e023ce93 	mla	r3, r3, lr, ip
    bb7c:	e0832002 	add	r2, r3, r2
[31m    bb80:	ebfff405 	bl	8b9c <fprintf@plt>[0m
    bb84:	e5960000 	ldr	r0, [r6]
    bb88:	ebfff43c 	bl	8c80 <fclose@plt>
--
    bccc:	e340e001 	movt	lr, #1
    bcd0:	e59e2000 	ldr	r2, [lr]
    bcd4:	e5d21000 	ldrb	r1, [r2]
    bcd8:	e2811001 	add	r1, r1, #1
    bcdc:	e5c21000 	strb	r1, [r2]
    bce0:	e3070714 	movw	r0, #30484	; 0x7714
    bce4:	e30716a0 	movw	r1, #30368	; 0x76a0
    bce8:	e3400001 	movt	r0, #1
    bcec:	e3401001 	movt	r1, #1
    bcf0:	e5902000 	ldr	r2, [r0]
    bcf4:	e591c000 	ldr	ip, [r1]
    bcf8:	e3520000 	cmp	r2, #0
    bcfc:	e28cc001 	add	ip, ip, #1
    bd00:	e581c000 	str	ip, [r1]
    bd04:	0a000005 	beq	bd20 <err+0x1bc8>
    bd08:	e28aa001 	add	sl, sl, #1
    bd0c:	e5980000 	ldr	r0, [r8]
    bd10:	e51f1674 	ldr	r1, [pc, #-1652]	; b6a4 <err+0x154c>
    bd14:	e1a0200a 	mov	r2, sl
    bd18:	e58dc000 	str	ip, [sp]
[31m    bd1c:	ebfff39e 	bl	8b9c <fprintf@plt>[0m
    bd20:	e59d201c 	ldr	r2, [sp, #28]
    bd24:	e1a00004 	mov	r0, r4
--
    bec4:	aa000001 	bge	bed0 <err+0x1d78>
    bec8:	e51f081c 	ldr	r0, [pc, #-2076]	; b6b4 <err+0x155c>
    becc:	ebfff8a1 	bl	a158 <err>
    bed0:	e28d1ed5 	add	r1, sp, #3408	; 0xd50
    bed4:	e28d2ed7 	add	r2, sp, #3440	; 0xd70
    bed8:	e5970000 	ldr	r0, [r7]
    bedc:	e281100c 	add	r1, r1, #12
    bee0:	e282200c 	add	r2, r2, #12
    bee4:	ebfff374 	bl	8cbc <getpeername@plt>
    bee8:	e3500000 	cmp	r0, #0
    beec:	aa000001 	bge	bef8 <err+0x1da0>
    bef0:	e51f0840 	ldr	r0, [pc, #-2112]	; b6b8 <err+0x1560>
    bef4:	ebfff897 	bl	a158 <err>
    bef8:	e59de018 	ldr	lr, [sp, #24]
    befc:	e59d0d60 	ldr	r0, [sp, #3424]	; 0xd60
    bf00:	e59e4000 	ldr	r4, [lr]
    bf04:	ebfff360 	bl	8c8c <inet_ntoa@plt>
    bf08:	e51f1854 	ldr	r1, [pc, #-2132]	; b6bc <err+0x1564>
    bf0c:	e1a02000 	mov	r2, r0
    bf10:	e1a00004 	mov	r0, r4
[31m    bf14:	ebfff320 	bl	8b9c <fprintf@plt>[0m
    bf18:	eafffe54 	b	b870 <err+0x1718>
    bf1c:	ebfff3c2 	bl	8e2c <_start+0xd4>
--
    c058:	e51fa974 	ldr	sl, [pc, #-2420]	; b6ec <err+0x1594>
    c05c:	ea000021 	b	c0e8 <err+0x1f90>
    c060:	e3070714 	movw	r0, #30484	; 0x7714
    c064:	e3400001 	movt	r0, #1
    c068:	e5903000 	ldr	r3, [r0]
    c06c:	e3530000 	cmp	r3, #0
    c070:	0a00000d 	beq	c0ac <err+0x1f54>
    c074:	e3071784 	movw	r1, #30596	; 0x7784
    c078:	e30dcb94 	movw	ip, #56212	; 0xdb94
    c07c:	e3401001 	movt	r1, #1
    c080:	e340c000 	movt	ip, #0
    c084:	e5912000 	ldr	r2, [r1]
    c088:	e2888001 	add	r8, r8, #1
    c08c:	e5940000 	ldr	r0, [r4]
    c090:	e1a03008 	mov	r3, r8
    c094:	e51f19ac 	ldr	r1, [pc, #-2476]	; b6f0 <err+0x1598>
    c098:	e3520000 	cmp	r2, #0
    c09c:	e58d5000 	str	r5, [sp]
    c0a0:	01a0c00a 	moveq	ip, sl
    c0a4:	e1a0200c 	mov	r2, ip
[31m    c0a8:	ebfff2bb 	bl	8b9c <fprintf@plt>[0m
    c0ac:	e1a00005 	mov	r0, r5
    c0b0:	eb00029a 	bl	cb20 <err+0x29c8>
--
    c1d0:	0a0000c6 	beq	c4f0 <err+0x2398>
    c1d4:	e3540002 	cmp	r4, #2
    c1d8:	0a000066 	beq	c378 <err+0x2220>
    c1dc:	e59dc018 	ldr	ip, [sp, #24]
    c1e0:	e3a01001 	mov	r1, #1
    c1e4:	e3a02039 	mov	r2, #57	; 0x39
    c1e8:	e51f0af8 	ldr	r0, [pc, #-2808]	; b6f8 <err+0x15a0>
    c1ec:	e59db024 	ldr	fp, [sp, #36]	; 0x24
    c1f0:	e59c3000 	ldr	r3, [ip]
    c1f4:	ebfff2bf 	bl	8cf8 <fwrite@plt>
    c1f8:	ebfff472 	bl	93c8 <_start+0x670>
    c1fc:	ebfff453 	bl	9350 <_start+0x5f8>
    c200:	ebfff4fd 	bl	95fc <_start+0x8a4>
    c204:	e59d1018 	ldr	r1, [sp, #24]
    c208:	e1a0200a 	mov	r2, sl
    c20c:	e59dc034 	ldr	ip, [sp, #52]	; 0x34
    c210:	e59d3030 	ldr	r3, [sp, #48]	; 0x30
    c214:	e5910000 	ldr	r0, [r1]
    c218:	e51f1b24 	ldr	r1, [pc, #-2852]	; b6fc <err+0x15a4>
    c21c:	e58dc000 	str	ip, [sp]
[31m    c220:	ebfff25d 	bl	8b9c <fprintf@plt>[0m
    c224:	e59de01c 	ldr	lr, [sp, #28]
    c228:	e35e0000 	cmp	lr, #0
--
    c27c:	e3a02000 	mov	r2, #0
    c280:	e34431e0 	movt	r3, #16864	; 0x41e0
    c284:	e1a08000 	mov	r8, r0
    c288:	e1a09001 	mov	r9, r1
    c28c:	eb0003bc 	bl	d184 <err+0x302c>
    c290:	e3500000 	cmp	r0, #0
    c294:	1a000007 	bne	c2b8 <err+0x2160>
    c298:	e3a03000 	mov	r3, #0
    c29c:	e1a00008 	mov	r0, r8
    c2a0:	e1a01009 	mov	r1, r9
    c2a4:	e3a02000 	mov	r2, #0
    c2a8:	e34c31e0 	movt	r3, #49632	; 0xc1e0
    c2ac:	eb0003a5 	bl	d148 <err+0x2ff0>
    c2b0:	e3500000 	cmp	r0, #0
    c2b4:	0a0000d9 	beq	c620 <err+0x24c8>
    c2b8:	e59d1018 	ldr	r1, [sp, #24]
    c2bc:	e3a04000 	mov	r4, #0
    c2c0:	e51f2bc8 	ldr	r2, [pc, #-3016]	; b700 <err+0x15a8>
    c2c4:	e5910000 	ldr	r0, [r1]
    c2c8:	e51f1bcc 	ldr	r1, [pc, #-3020]	; b704 <err+0x15ac>
[31m    c2cc:	ebfff232 	bl	8b9c <fprintf@plt>[0m
    c2d0:	e1a00004 	mov	r0, r4
    c2d4:	eb000211 	bl	cb20 <err+0x29c8>
--
    c2fc:	e3a03000 	mov	r3, #0
    c300:	e3a02000 	mov	r2, #0
    c304:	e34431e0 	movt	r3, #16864	; 0x41e0
    c308:	e1a08000 	mov	r8, r0
    c30c:	e1a09001 	mov	r9, r1
    c310:	eb00039b 	bl	d184 <err+0x302c>
    c314:	e3500000 	cmp	r0, #0
    c318:	1a000007 	bne	c33c <err+0x21e4>
    c31c:	e3a03000 	mov	r3, #0
    c320:	e1a00008 	mov	r0, r8
    c324:	e1a01009 	mov	r1, r9
    c328:	e3a02000 	mov	r2, #0
    c32c:	e34c31e0 	movt	r3, #49632	; 0xc1e0
    c330:	eb000384 	bl	d148 <err+0x2ff0>
    c334:	e3500000 	cmp	r0, #0
    c338:	0a000048 	beq	c460 <err+0x2308>
    c33c:	e59d2018 	ldr	r2, [sp, #24]
    c340:	e51f1c44 	ldr	r1, [pc, #-3140]	; b704 <err+0x15ac>
    c344:	e5920000 	ldr	r0, [r2]
    c348:	e51f2c48 	ldr	r2, [pc, #-3144]	; b708 <err+0x15b0>
[31m    c34c:	ebfff212 	bl	8b9c <fprintf@plt>[0m
    c350:	e3a03000 	mov	r3, #0
    c354:	e59dc018 	ldr	ip, [sp, #24]
    c358:	e1a02004 	mov	r2, r4
    c35c:	e59de01c 	ldr	lr, [sp, #28]
    c360:	e51f1c5c 	ldr	r1, [pc, #-3164]	; b70c <err+0x15b4>
    c364:	e59c0000 	ldr	r0, [ip]
    c368:	e51f4c60 	ldr	r4, [pc, #-3168]	; b710 <err+0x15b8>
    c36c:	e88d4400 	stm	sp, {sl, lr}
[31m    c370:	ebfff209 	bl	8b9c <fprintf@plt>[0m
    c374:	eafffe1a 	b	bbe4 <err+0x1a8c>
    c378:	e59d0018 	ldr	r0, [sp, #24]
    c37c:	e3a01001 	mov	r1, #1
    c380:	e3a02020 	mov	r2, #32
    c384:	e5903000 	ldr	r3, [r0]
    c388:	e51f0c7c 	ldr	r0, [pc, #-3196]	; b714 <err+0x15bc>
    c38c:	ebfff259 	bl	8cf8 <fwrite@plt>
    c390:	ebfff3e4 	bl	9328 <_start+0x5d0>
    c394:	e3070714 	movw	r0, #30484	; 0x7714
    c398:	e3400001 	movt	r0, #1
    c39c:	e5903000 	ldr	r3, [r0]
    c3a0:	e3530000 	cmp	r3, #0
    c3a4:	0a000006 	beq	c3c4 <err+0x226c>
    c3a8:	e59d1018 	ldr	r1, [sp, #24]
    c3ac:	e2855001 	add	r5, r5, #1
    c3b0:	e1a02005 	mov	r2, r5
    c3b4:	e59d302c 	ldr	r3, [sp, #44]	; 0x2c
    c3b8:	e5910000 	ldr	r0, [r1]
    c3bc:	e51f1cac 	ldr	r1, [pc, #-3244]	; b718 <err+0x15c0>
[31m    c3c0:	ebfff1f5 	bl	8b9c <fprintf@plt>[0m
    c3c4:	e59d002c 	ldr	r0, [sp, #44]	; 0x2c
    c3c8:	eb0001d4 	bl	cb20 <err+0x29c8>
--
    c3e0:	e3072770 	movw	r2, #30576	; 0x7770
    c3e4:	e340e001 	movt	lr, #1
    c3e8:	e3402001 	movt	r2, #1
    c3ec:	e59e3000 	ldr	r3, [lr]
    c3f0:	e1c200f0 	strd	r0, [r2]
    c3f4:	e3530000 	cmp	r3, #0
    c3f8:	0a000010 	beq	c440 <err+0x22e8>
    c3fc:	e307c77c 	movw	ip, #30588	; 0x777c
    c400:	e59de028 	ldr	lr, [sp, #40]	; 0x28
    c404:	e340c001 	movt	ip, #1
    c408:	e59c3000 	ldr	r3, [ip]
    c40c:	e5d34000 	ldrb	r4, [r3]
    c410:	e154000e 	cmp	r4, lr
    c414:	0a000006 	beq	c434 <err+0x22dc>
    c418:	e59d1018 	ldr	r1, [sp, #24]
    c41c:	e1a0200a 	mov	r2, sl
    c420:	e1a03004 	mov	r3, r4
    c424:	e5910000 	ldr	r0, [r1]
    c428:	e51f1d14 	ldr	r1, [pc, #-3348]	; b71c <err+0x15c4>
    c42c:	e58de000 	str	lr, [sp]
[31m    c430:	ebfff1d9 	bl	8b9c <fprintf@plt>[0m
    c434:	e2844001 	add	r4, r4, #1
    c438:	e6ef4074 	uxtb	r4, r4

[0m
[[0;33m*[0m] Function [0;33mfprintf[0m used [0;33m67[0m times [0;33mepi_ttcp.svn-base[0m

