[[0;33m*[0m] Binary protection state of [0;33memf.svn-base[0m
[REF] s12

  	RELRO          CANARY            NX           PIE       RPATH        RUNPATH      SYMBOLS      
  	[31mNo RELRO[0m       [31mNo Canary found[0m   [32mNX enabled[0m   [31mNo PIE[0m       [32mNo RPATH[0m     [32mNo RUNPATH[0m   [32mNo Symbols[0m

[0m
[[0;33m*[0m] Function [0;33mfprintf[0m tear down of [0;33memf.svn-base[0m

    884c:	e59f309c 	ldr	r3, [pc, #156]	; 88f0 <_start+0x1d8>
    8850:	e5931000 	ldr	r1, [r3]
    8854:	ebffffa0 	bl	86dc <fputs@plt>
    8858:	e3e00000 	mvn	r0, #0
    885c:	ea00001e 	b	88dc <_start+0x1c4>
    8860:	e59f508c 	ldr	r5, [pc, #140]	; 88f4 <_start+0x1dc>
    8864:	e28d4030 	add	r4, sp, #48	; 0x30
    8868:	e59f0088 	ldr	r0, [pc, #136]	; 88f8 <_start+0x1e0>
    886c:	e5951000 	ldr	r1, [r5]
    8870:	ebffff99 	bl	86dc <fputs@plt>
    8874:	e5943018 	ldr	r3, [r4, #24]
    8878:	e59f107c 	ldr	r1, [pc, #124]	; 88fc <_start+0x1e4>
    887c:	e5950000 	ldr	r0, [r5]
    8880:	e58d3000 	str	r3, [sp]
    8884:	e594301c 	ldr	r3, [r4, #28]
    8888:	e58d3004 	str	r3, [sp, #4]
    888c:	e5943020 	ldr	r3, [r4, #32]
    8890:	e58d3008 	str	r3, [sp, #8]
    8894:	e5942010 	ldr	r2, [r4, #16]
    8898:	e5943014 	ldr	r3, [r4, #20]
[31m    889c:	ebffff6d 	bl	8658 <fprintf@plt>[0m
    88a0:	e5951000 	ldr	r1, [r5]
    88a4:	e59f0054 	ldr	r0, [pc, #84]	; 8900 <_start+0x1e8>
    88a8:	ebffff8b 	bl	86dc <fputs@plt>
    88ac:	e5943008 	ldr	r3, [r4, #8]
    88b0:	e5950000 	ldr	r0, [r5]
    88b4:	e59f1040 	ldr	r1, [pc, #64]	; 88fc <_start+0x1e4>
    88b8:	e58d3000 	str	r3, [sp]
    88bc:	e5943024 	ldr	r3, [r4, #36]	; 0x24
    88c0:	e59d2030 	ldr	r2, [sp, #48]	; 0x30
    88c4:	e58d3004 	str	r3, [sp, #4]
    88c8:	e5943028 	ldr	r3, [r4, #40]	; 0x28
    88cc:	e58d3008 	str	r3, [sp, #8]
    88d0:	e5943004 	ldr	r3, [r4, #4]
[31m    88d4:	ebffff5f 	bl	8658 <fprintf@plt>[0m
    88d8:	e3a00000 	mov	r0, #0
    88dc:	e28dd034 	add	sp, sp, #52	; 0x34
--
    8954:	e59d3018 	ldr	r3, [sp, #24]
    8958:	e3530001 	cmp	r3, #1
    895c:	0a000005 	beq	8978 <_start+0x260>
    8960:	e59f0088 	ldr	r0, [pc, #136]	; 89f0 <_start+0x2d8>
    8964:	e59f3088 	ldr	r3, [pc, #136]	; 89f4 <_start+0x2dc>
    8968:	e5931000 	ldr	r1, [r3]
    896c:	ebffff5a 	bl	86dc <fputs@plt>
    8970:	e3e00000 	mvn	r0, #0
    8974:	ea00001a 	b	89e4 <_start+0x2cc>
    8978:	e59f6078 	ldr	r6, [pc, #120]	; 89f8 <_start+0x2e0>
    897c:	e1a05007 	mov	r5, r7
    8980:	e59f0074 	ldr	r0, [pc, #116]	; 89fc <_start+0x2e4>
    8984:	e3a04000 	mov	r4, #0
    8988:	e3a08018 	mov	r8, #24
    898c:	e5961000 	ldr	r1, [r6]
    8990:	ebffff51 	bl	86dc <fputs@plt>
    8994:	ea00000d 	b	89d0 <_start+0x2b8>
    8998:	e59f1060 	ldr	r1, [pc, #96]	; 8a00 <_start+0x2e8>
    899c:	e5152014 	ldr	r2, [r5, #-20]	; 0xffffffec
    89a0:	e5960000 	ldr	r0, [r6]
[31m    89a4:	ebffff2b 	bl	8658 <fprintf@plt>[0m
    89a8:	e0227498 	mla	r2, r8, r4, r7
    89ac:	e59f1050 	ldr	r1, [pc, #80]	; 8a04 <_start+0x2ec>
    89b0:	e5960000 	ldr	r0, [r6]
    89b4:	e2844001 	add	r4, r4, #1
    89b8:	e2822008 	add	r2, r2, #8
[31m    89bc:	ebffff25 	bl	8658 <fprintf@plt>[0m
    89c0:	e5960000 	ldr	r0, [r6]
    89c4:	e59f103c 	ldr	r1, [pc, #60]	; 8a08 <_start+0x2f0>
    89c8:	e5952000 	ldr	r2, [r5]
[31m    89cc:	ebffff21 	bl	8658 <fprintf@plt>[0m
    89d0:	e5973000 	ldr	r3, [r7]
    89d4:	e2855018 	add	r5, r5, #24
--
    8a44:	e58d3010 	str	r3, [sp, #16]
    8a48:	e3a01e42 	mov	r1, #1056	; 0x420
    8a4c:	e3a03002 	mov	r3, #2
    8a50:	e58d3014 	str	r3, [sp, #20]
    8a54:	eb000320 	bl	96dc <_start+0xfc4>
    8a58:	e3500000 	cmp	r0, #0
    8a5c:	aa000004 	bge	8a74 <_start+0x35c>
    8a60:	e59f3040 	ldr	r3, [pc, #64]	; 8aa8 <_start+0x390>
    8a64:	e59f0040 	ldr	r0, [pc, #64]	; 8aac <_start+0x394>
    8a68:	e5931000 	ldr	r1, [r3]
    8a6c:	ebffff1a 	bl	86dc <fputs@plt>
    8a70:	ea000008 	b	8a98 <_start+0x380>
    8a74:	e59d3018 	ldr	r3, [sp, #24]
    8a78:	e3530001 	cmp	r3, #1
    8a7c:	03a00000 	moveq	r0, #0
    8a80:	0a000005 	beq	8a9c <_start+0x384>
    8a84:	e59f301c 	ldr	r3, [pc, #28]	; 8aa8 <_start+0x390>
    8a88:	e28d2020 	add	r2, sp, #32
    8a8c:	e59f101c 	ldr	r1, [pc, #28]	; 8ab0 <_start+0x398>
    8a90:	e5930000 	ldr	r0, [r3]
[31m    8a94:	ebfffeef 	bl	8658 <fprintf@plt>[0m
    8a98:	e3e00000 	mvn	r0, #0
    8a9c:	e28dd024 	add	sp, sp, #36	; 0x24
--
    8aec:	e58d3010 	str	r3, [sp, #16]
    8af0:	e3a01e42 	mov	r1, #1056	; 0x420
    8af4:	e3a03002 	mov	r3, #2
    8af8:	e58d3014 	str	r3, [sp, #20]
    8afc:	eb0002f6 	bl	96dc <_start+0xfc4>
    8b00:	e3500000 	cmp	r0, #0
    8b04:	aa000004 	bge	8b1c <_start+0x404>
    8b08:	e59f3040 	ldr	r3, [pc, #64]	; 8b50 <_start+0x438>
    8b0c:	e59f0040 	ldr	r0, [pc, #64]	; 8b54 <_start+0x43c>
    8b10:	e5931000 	ldr	r1, [r3]
    8b14:	ebfffef0 	bl	86dc <fputs@plt>
    8b18:	ea000008 	b	8b40 <_start+0x428>
    8b1c:	e59d3018 	ldr	r3, [sp, #24]
    8b20:	e3530001 	cmp	r3, #1
    8b24:	03a00000 	moveq	r0, #0
    8b28:	0a000005 	beq	8b44 <_start+0x42c>
    8b2c:	e59f301c 	ldr	r3, [pc, #28]	; 8b50 <_start+0x438>
    8b30:	e28d2020 	add	r2, sp, #32
    8b34:	e59f101c 	ldr	r1, [pc, #28]	; 8b58 <_start+0x440>
    8b38:	e5930000 	ldr	r0, [r3]
[31m    8b3c:	ebfffec5 	bl	8658 <fprintf@plt>[0m
    8b40:	e3e00000 	mvn	r0, #0
    8b44:	e28dd024 	add	sp, sp, #36	; 0x24
--
    8b94:	e58d3010 	str	r3, [sp, #16]
    8b98:	e3a01e42 	mov	r1, #1056	; 0x420
    8b9c:	e3a03002 	mov	r3, #2
    8ba0:	e58d3014 	str	r3, [sp, #20]
    8ba4:	eb0002cc 	bl	96dc <_start+0xfc4>
    8ba8:	e3500000 	cmp	r0, #0
    8bac:	aa000004 	bge	8bc4 <_start+0x4ac>
    8bb0:	e59f3040 	ldr	r3, [pc, #64]	; 8bf8 <_start+0x4e0>
    8bb4:	e59f0040 	ldr	r0, [pc, #64]	; 8bfc <_start+0x4e4>
    8bb8:	e5931000 	ldr	r1, [r3]
    8bbc:	ebfffec6 	bl	86dc <fputs@plt>
    8bc0:	ea000008 	b	8be8 <_start+0x4d0>
    8bc4:	e59d3018 	ldr	r3, [sp, #24]
    8bc8:	e3530001 	cmp	r3, #1
    8bcc:	03a00000 	moveq	r0, #0
    8bd0:	0a000005 	beq	8bec <_start+0x4d4>
    8bd4:	e59f301c 	ldr	r3, [pc, #28]	; 8bf8 <_start+0x4e0>
    8bd8:	e28d2020 	add	r2, sp, #32
    8bdc:	e59f101c 	ldr	r1, [pc, #28]	; 8c00 <_start+0x4e8>
    8be0:	e5930000 	ldr	r0, [r3]
[31m    8be4:	ebfffe9b 	bl	8658 <fprintf@plt>[0m
    8be8:	e3e00000 	mvn	r0, #0
    8bec:	e28dd024 	add	sp, sp, #36	; 0x24
--
    8c34:	e3a03001 	mov	r3, #1
    8c38:	e1a0000d 	mov	r0, sp
    8c3c:	e3a01e42 	mov	r1, #1056	; 0x420
    8c40:	e58d3010 	str	r3, [sp, #16]
    8c44:	e58d3014 	str	r3, [sp, #20]
    8c48:	eb0002a3 	bl	96dc <_start+0xfc4>
    8c4c:	e3500000 	cmp	r0, #0
    8c50:	aa000004 	bge	8c68 <_start+0x550>
    8c54:	e59f3068 	ldr	r3, [pc, #104]	; 8cc4 <_start+0x5ac>
    8c58:	e59f0068 	ldr	r0, [pc, #104]	; 8cc8 <_start+0x5b0>
    8c5c:	e5931000 	ldr	r1, [r3]
    8c60:	ebfffe9d 	bl	86dc <fputs@plt>
    8c64:	ea000007 	b	8c88 <_start+0x570>
    8c68:	e59d3018 	ldr	r3, [sp, #24]
    8c6c:	e3530001 	cmp	r3, #1
    8c70:	0a000006 	beq	8c90 <_start+0x578>
    8c74:	e59f3048 	ldr	r3, [pc, #72]	; 8cc4 <_start+0x5ac>
    8c78:	e28d2020 	add	r2, sp, #32
    8c7c:	e59f1048 	ldr	r1, [pc, #72]	; 8ccc <_start+0x5b4>
    8c80:	e5930000 	ldr	r0, [r3]
[31m    8c84:	ebfffe73 	bl	8658 <fprintf@plt>[0m
    8c88:	e3e00000 	mvn	r0, #0
    8c8c:	ea000009 	b	8cb8 <_start+0x5a0>
    8c90:	e59f3038 	ldr	r3, [pc, #56]	; 8cd0 <_start+0x5b8>
    8c94:	e5ddc020 	ldrb	ip, [sp, #32]
    8c98:	e59f2034 	ldr	r2, [pc, #52]	; 8cd4 <_start+0x5bc>
    8c9c:	e5930000 	ldr	r0, [r3]
    8ca0:	e59f3030 	ldr	r3, [pc, #48]	; 8cd8 <_start+0x5c0>
    8ca4:	e35c0000 	cmp	ip, #0
    8ca8:	e59f102c 	ldr	r1, [pc, #44]	; 8cdc <_start+0x5c4>
    8cac:	11a02003 	movne	r2, r3
[31m    8cb0:	ebfffe68 	bl	8658 <fprintf@plt>[0m
    8cb4:	e3a00000 	mov	r0, #0
    8cb8:	e28dd024 	add	sp, sp, #36	; 0x24
--
    8d24:	e3a01e42 	mov	r1, #1056	; 0x420
    8d28:	e0833003 	add	r3, r3, r3
    8d2c:	e5cd5020 	strb	r5, [sp, #32]
    8d30:	e58d3014 	str	r3, [sp, #20]
    8d34:	eb000268 	bl	96dc <_start+0xfc4>
    8d38:	e1500005 	cmp	r0, r5
    8d3c:	aa000004 	bge	8d54 <_start+0x63c>
    8d40:	e59f3040 	ldr	r3, [pc, #64]	; 8d88 <_start+0x670>
    8d44:	e59f0040 	ldr	r0, [pc, #64]	; 8d8c <_start+0x674>
    8d48:	e5931000 	ldr	r1, [r3]
    8d4c:	ebfffe62 	bl	86dc <fputs@plt>
    8d50:	ea000008 	b	8d78 <_start+0x660>
    8d54:	e59d3018 	ldr	r3, [sp, #24]
    8d58:	e3530001 	cmp	r3, #1
    8d5c:	01a00005 	moveq	r0, r5
    8d60:	0a000005 	beq	8d7c <_start+0x664>
    8d64:	e59f301c 	ldr	r3, [pc, #28]	; 8d88 <_start+0x670>
    8d68:	e28d2020 	add	r2, sp, #32
    8d6c:	e59f101c 	ldr	r1, [pc, #28]	; 8d90 <_start+0x678>
    8d70:	e5930000 	ldr	r0, [r3]
[31m    8d74:	ebfffe37 	bl	8658 <fprintf@plt>[0m
    8d78:	e3e00000 	mvn	r0, #0
    8d7c:	e28dd024 	add	sp, sp, #36	; 0x24
--
    8dd4:	e58d3010 	str	r3, [sp, #16]
    8dd8:	e58d301c 	str	r3, [sp, #28]
    8ddc:	e58d2014 	str	r2, [sp, #20]
    8de0:	e5cd3020 	strb	r3, [sp, #32]
    8de4:	eb00023c 	bl	96dc <_start+0xfc4>
    8de8:	e3500000 	cmp	r0, #0
    8dec:	aa000004 	bge	8e04 <_start+0x6ec>
    8df0:	e59f3040 	ldr	r3, [pc, #64]	; 8e38 <_start+0x720>
    8df4:	e59f0040 	ldr	r0, [pc, #64]	; 8e3c <_start+0x724>
    8df8:	e5931000 	ldr	r1, [r3]
    8dfc:	ebfffe36 	bl	86dc <fputs@plt>
    8e00:	ea000008 	b	8e28 <_start+0x710>
    8e04:	e59d3018 	ldr	r3, [sp, #24]
    8e08:	e3530001 	cmp	r3, #1
    8e0c:	03a00000 	moveq	r0, #0
    8e10:	0a000005 	beq	8e2c <_start+0x714>
    8e14:	e59f301c 	ldr	r3, [pc, #28]	; 8e38 <_start+0x720>
    8e18:	e28d2020 	add	r2, sp, #32
    8e1c:	e59f101c 	ldr	r1, [pc, #28]	; 8e40 <_start+0x728>
    8e20:	e5930000 	ldr	r0, [r3]
[31m    8e24:	ebfffe0b 	bl	8658 <fprintf@plt>[0m
    8e28:	e3e00000 	mvn	r0, #0
    8e2c:	e28dd024 	add	sp, sp, #36	; 0x24
--
    8ebc:	e58d3024 	str	r3, [sp, #36]	; 0x24
    8ec0:	ebfffdf3 	bl	8694 <strncpy@plt>
    8ec4:	e1a00004 	mov	r0, r4
    8ec8:	e3a01e42 	mov	r1, #1056	; 0x420
    8ecc:	eb000202 	bl	96dc <_start+0xfc4>
    8ed0:	e3500000 	cmp	r0, #0
    8ed4:	aa000004 	bge	8eec <_start+0x7d4>
    8ed8:	e59f0044 	ldr	r0, [pc, #68]	; 8f24 <_start+0x80c>
    8edc:	e59f3044 	ldr	r3, [pc, #68]	; 8f28 <_start+0x810>
    8ee0:	e5931000 	ldr	r1, [r3]
    8ee4:	ebfffdfc 	bl	86dc <fputs@plt>
    8ee8:	ea000008 	b	8f10 <_start+0x7f8>
    8eec:	e59d301c 	ldr	r3, [sp, #28]
    8ef0:	e3530001 	cmp	r3, #1
    8ef4:	03a00000 	moveq	r0, #0
    8ef8:	0a000005 	beq	8f14 <_start+0x7fc>
    8efc:	e59f3024 	ldr	r3, [pc, #36]	; 8f28 <_start+0x810>
    8f00:	e1a02006 	mov	r2, r6
    8f04:	e59f1020 	ldr	r1, [pc, #32]	; 8f2c <_start+0x814>
    8f08:	e5930000 	ldr	r0, [r3]
[31m    8f0c:	ebfffdd1 	bl	8658 <fprintf@plt>[0m
    8f10:	e3e00000 	mvn	r0, #0
    8f14:	e28dd028 	add	sp, sp, #40	; 0x28
--
    8fa4:	e58d3024 	str	r3, [sp, #36]	; 0x24
    8fa8:	ebfffdb9 	bl	8694 <strncpy@plt>
    8fac:	e1a00004 	mov	r0, r4
    8fb0:	e3a01e42 	mov	r1, #1056	; 0x420
    8fb4:	eb0001c8 	bl	96dc <_start+0xfc4>
    8fb8:	e3500000 	cmp	r0, #0
    8fbc:	aa000004 	bge	8fd4 <_start+0x8bc>
    8fc0:	e59f0044 	ldr	r0, [pc, #68]	; 900c <_start+0x8f4>
    8fc4:	e59f3044 	ldr	r3, [pc, #68]	; 9010 <_start+0x8f8>
    8fc8:	e5931000 	ldr	r1, [r3]
    8fcc:	ebfffdc2 	bl	86dc <fputs@plt>
    8fd0:	ea000008 	b	8ff8 <_start+0x8e0>
    8fd4:	e59d301c 	ldr	r3, [sp, #28]
    8fd8:	e3530001 	cmp	r3, #1
    8fdc:	03a00000 	moveq	r0, #0
    8fe0:	0a000005 	beq	8ffc <_start+0x8e4>
    8fe4:	e59f3024 	ldr	r3, [pc, #36]	; 9010 <_start+0x8f8>
    8fe8:	e1a02006 	mov	r2, r6
    8fec:	e59f1020 	ldr	r1, [pc, #32]	; 9014 <_start+0x8fc>
    8ff0:	e5930000 	ldr	r0, [r3]
[31m    8ff4:	ebfffd97 	bl	8658 <fprintf@plt>[0m
    8ff8:	e3e00000 	mvn	r0, #0
    8ffc:	e28dd028 	add	sp, sp, #40	; 0x28
--
    9068:	ebfffd89 	bl	8694 <strncpy@plt>
    906c:	e1a0000d 	mov	r0, sp
    9070:	e3a01e42 	mov	r1, #1056	; 0x420
    9074:	e5cd602f 	strb	r6, [sp, #47]	; 0x2f
    9078:	eb000197 	bl	96dc <_start+0xfc4>
    907c:	e1500006 	cmp	r0, r6
    9080:	aa000004 	bge	9098 <_start+0x980>
    9084:	e59f303c 	ldr	r3, [pc, #60]	; 90c8 <_start+0x9b0>
    9088:	e59f003c 	ldr	r0, [pc, #60]	; 90cc <_start+0x9b4>
    908c:	e5931000 	ldr	r1, [r3]
    9090:	ebfffd91 	bl	86dc <fputs@plt>
    9094:	ea000008 	b	90bc <_start+0x9a4>
    9098:	e59d3018 	ldr	r3, [sp, #24]
    909c:	e3530001 	cmp	r3, #1
    90a0:	01a00006 	moveq	r0, r6
    90a4:	0a000005 	beq	90c0 <_start+0x9a8>
    90a8:	e59f3018 	ldr	r3, [pc, #24]	; 90c8 <_start+0x9b0>
    90ac:	e1a02005 	mov	r2, r5
    90b0:	e59f1018 	ldr	r1, [pc, #24]	; 90d0 <_start+0x9b8>
    90b4:	e5930000 	ldr	r0, [r3]
[31m    90b8:	ebfffd66 	bl	8658 <fprintf@plt>[0m
    90bc:	e3e00000 	mvn	r0, #0
    90c0:	e28dde42 	add	sp, sp, #1056	; 0x420
--
    9124:	ebfffd5a 	bl	8694 <strncpy@plt>
    9128:	e1a0000d 	mov	r0, sp
    912c:	e3a01e42 	mov	r1, #1056	; 0x420
    9130:	e5cd602f 	strb	r6, [sp, #47]	; 0x2f
    9134:	eb000168 	bl	96dc <_start+0xfc4>
    9138:	e1500006 	cmp	r0, r6
    913c:	aa000004 	bge	9154 <_start+0xa3c>
    9140:	e59f303c 	ldr	r3, [pc, #60]	; 9184 <_start+0xa6c>
    9144:	e59f003c 	ldr	r0, [pc, #60]	; 9188 <_start+0xa70>
    9148:	e5931000 	ldr	r1, [r3]
    914c:	ebfffd62 	bl	86dc <fputs@plt>
    9150:	ea000008 	b	9178 <_start+0xa60>
    9154:	e59d3018 	ldr	r3, [sp, #24]
    9158:	e3530001 	cmp	r3, #1
    915c:	01a00006 	moveq	r0, r6
    9160:	0a000005 	beq	917c <_start+0xa64>
    9164:	e59f3018 	ldr	r3, [pc, #24]	; 9184 <_start+0xa6c>
    9168:	e1a02005 	mov	r2, r5
    916c:	e59f1018 	ldr	r1, [pc, #24]	; 918c <_start+0xa74>
    9170:	e5930000 	ldr	r0, [r3]
[31m    9174:	ebfffd37 	bl	8658 <fprintf@plt>[0m
    9178:	e3e00000 	mvn	r0, #0
    917c:	e28dde42 	add	sp, sp, #1056	; 0x420
--
    920c:	e3a03002 	mov	r3, #2
    9210:	e1a0000d 	mov	r0, sp
    9214:	e3a01e42 	mov	r1, #1056	; 0x420
    9218:	e58d3014 	str	r3, [sp, #20]
    921c:	eb00012e 	bl	96dc <_start+0xfc4>
    9220:	e3500000 	cmp	r0, #0
    9224:	aa000004 	bge	923c <_start+0xb24>
    9228:	e59f3044 	ldr	r3, [pc, #68]	; 9274 <_start+0xb5c>
    922c:	e59f0044 	ldr	r0, [pc, #68]	; 9278 <_start+0xb60>
    9230:	e5931000 	ldr	r1, [r3]
    9234:	ebfffd28 	bl	86dc <fputs@plt>
    9238:	ea000008 	b	9260 <_start+0xb48>
    923c:	e59d3018 	ldr	r3, [sp, #24]
    9240:	e3530001 	cmp	r3, #1
    9244:	03a00000 	moveq	r0, #0
    9248:	0a000005 	beq	9264 <_start+0xb4c>
    924c:	e59f3020 	ldr	r3, [pc, #32]	; 9274 <_start+0xb5c>
    9250:	e28d2020 	add	r2, sp, #32
    9254:	e59f1020 	ldr	r1, [pc, #32]	; 927c <_start+0xb64>
    9258:	e5930000 	ldr	r0, [r3]
[31m    925c:	ebfffcfd 	bl	8658 <fprintf@plt>[0m
    9260:	e3e00000 	mvn	r0, #0
    9264:	e28dd024 	add	sp, sp, #36	; 0x24
--
    9300:	e3a03002 	mov	r3, #2
    9304:	e1a0000d 	mov	r0, sp
    9308:	e3a01e42 	mov	r1, #1056	; 0x420
    930c:	e58d3014 	str	r3, [sp, #20]
    9310:	eb0000f1 	bl	96dc <_start+0xfc4>
    9314:	e3500000 	cmp	r0, #0
    9318:	aa000004 	bge	9330 <_start+0xc18>
    931c:	e59f3044 	ldr	r3, [pc, #68]	; 9368 <_start+0xc50>
    9320:	e59f0044 	ldr	r0, [pc, #68]	; 936c <_start+0xc54>
    9324:	e5931000 	ldr	r1, [r3]
    9328:	ebfffceb 	bl	86dc <fputs@plt>
    932c:	ea000008 	b	9354 <_start+0xc3c>
    9330:	e59d3018 	ldr	r3, [sp, #24]
    9334:	e3530001 	cmp	r3, #1
    9338:	03a00000 	moveq	r0, #0
    933c:	0a000005 	beq	9358 <_start+0xc40>
    9340:	e59f3020 	ldr	r3, [pc, #32]	; 9368 <_start+0xc50>
    9344:	e28d2020 	add	r2, sp, #32
    9348:	e59f1020 	ldr	r1, [pc, #32]	; 9370 <_start+0xc58>
    934c:	e5930000 	ldr	r0, [r3]
[31m    9350:	ebfffcc0 	bl	8658 <fprintf@plt>[0m
    9354:	e3e00000 	mvn	r0, #0
    9358:	e28dd024 	add	sp, sp, #36	; 0x24
--
    93c8:	e3a03001 	mov	r3, #1
    93cc:	e58d3014 	str	r3, [sp, #20]
    93d0:	e1a0000d 	mov	r0, sp
    93d4:	e3a03b01 	mov	r3, #1024	; 0x400
    93d8:	e58d301c 	str	r3, [sp, #28]
    93dc:	eb0000be 	bl	96dc <_start+0xfc4>
    93e0:	e3500000 	cmp	r0, #0
    93e4:	aa000004 	bge	93fc <_start+0xce4>
    93e8:	e59f30fc 	ldr	r3, [pc, #252]	; 94ec <_start+0xdd4>
    93ec:	e59f00fc 	ldr	r0, [pc, #252]	; 94f0 <_start+0xdd8>
    93f0:	e5931000 	ldr	r1, [r3]
    93f4:	ebfffcb8 	bl	86dc <fputs@plt>
    93f8:	ea000007 	b	941c <_start+0xd04>
    93fc:	e59d3018 	ldr	r3, [sp, #24]
    9400:	e3530001 	cmp	r3, #1
    9404:	0a000006 	beq	9424 <_start+0xd0c>
    9408:	e59f30dc 	ldr	r3, [pc, #220]	; 94ec <_start+0xdd4>
    940c:	e28d2020 	add	r2, sp, #32
    9410:	e59f10dc 	ldr	r1, [pc, #220]	; 94f4 <_start+0xddc>
    9414:	e5930000 	ldr	r0, [r3]
[31m    9418:	ebfffc8e 	bl	8658 <fprintf@plt>[0m
    941c:	e3e00000 	mvn	r0, #0
    9420:	ea00002d 	b	94dc <_start+0xdc4>
    9424:	e5940008 	ldr	r0, [r4, #8]
    9428:	e3a02004 	mov	r2, #4
    942c:	e59f10b4 	ldr	r1, [pc, #180]	; 94e8 <_start+0xdd0>
    9430:	e28d6020 	add	r6, sp, #32
    9434:	ebfffc93 	bl	8688 <strncmp@plt>
    9438:	e2507000 	subs	r7, r0, #0
    943c:	e59f50b4 	ldr	r5, [pc, #180]	; 94f8 <_start+0xde0>
    9440:	1a000010 	bne	9488 <_start+0xd70>
    9444:	e594200c 	ldr	r2, [r4, #12]
    9448:	e1a04007 	mov	r4, r7
    944c:	e5950000 	ldr	r0, [r5]
    9450:	e3a07014 	mov	r7, #20
    9454:	e59f10a0 	ldr	r1, [pc, #160]	; 94fc <_start+0xde4>
[31m    9458:	ebfffc7e 	bl	8658 <fprintf@plt>[0m
    945c:	ea000005 	b	9478 <_start+0xd60>
    9460:	e0226497 	mla	r2, r7, r4, r6
    9464:	e5950000 	ldr	r0, [r5]
    9468:	e59f1090 	ldr	r1, [pc, #144]	; 9500 <_start+0xde8>
    946c:	e2844001 	add	r4, r4, #1
    9470:	e2822004 	add	r2, r2, #4
[31m    9474:	ebfffc77 	bl	8658 <fprintf@plt>[0m
    9478:	e5963000 	ldr	r3, [r6]
    947c:	e1540003 	cmp	r4, r3
    9480:	3afffff6 	bcc	9460 <_start+0xd48>
    9484:	ea00000f 	b	94c8 <_start+0xdb0>
    9488:	e594200c 	ldr	r2, [r4, #12]
    948c:	e3a07014 	mov	r7, #20
    9490:	e5950000 	ldr	r0, [r5]
    9494:	e3a04000 	mov	r4, #0
    9498:	e59f1064 	ldr	r1, [pc, #100]	; 9504 <_start+0xdec>
[31m    949c:	ebfffc6d 	bl	8658 <fprintf@plt>[0m
    94a0:	ea000005 	b	94bc <_start+0xda4>
    94a4:	e0226497 	mla	r2, r7, r4, r6
    94a8:	e5950000 	ldr	r0, [r5]
    94ac:	e59f104c 	ldr	r1, [pc, #76]	; 9500 <_start+0xde8>
    94b0:	e2844001 	add	r4, r4, #1
    94b4:	e2822004 	add	r2, r2, #4
[31m    94b8:	ebfffc66 	bl	8658 <fprintf@plt>[0m
    94bc:	e5963000 	ldr	r3, [r6]
    94c0:	e1540003 	cmp	r4, r3
--
    9548:	e58d3014 	str	r3, [sp, #20]
    954c:	e3a01e42 	mov	r1, #1056	; 0x420
    9550:	e3a03b01 	mov	r3, #1024	; 0x400
    9554:	e58d301c 	str	r3, [sp, #28]
    9558:	eb00005f 	bl	96dc <_start+0xfc4>
    955c:	e3500000 	cmp	r0, #0
    9560:	aa000004 	bge	9578 <_start+0xe60>
    9564:	e59f3098 	ldr	r3, [pc, #152]	; 9604 <_start+0xeec>
    9568:	e59f0098 	ldr	r0, [pc, #152]	; 9608 <_start+0xef0>
    956c:	e5931000 	ldr	r1, [r3]
    9570:	ebfffc59 	bl	86dc <fputs@plt>
    9574:	ea000008 	b	959c <_start+0xe84>
    9578:	e59d3018 	ldr	r3, [sp, #24]
    957c:	e28d5020 	add	r5, sp, #32
    9580:	e3530001 	cmp	r3, #1
    9584:	0a000006 	beq	95a4 <_start+0xe8c>
    9588:	e59f3074 	ldr	r3, [pc, #116]	; 9604 <_start+0xeec>
    958c:	e1a02005 	mov	r2, r5
    9590:	e59f1074 	ldr	r1, [pc, #116]	; 960c <_start+0xef4>
    9594:	e5930000 	ldr	r0, [r3]
[31m    9598:	ebfffc2e 	bl	8658 <fprintf@plt>[0m
    959c:	e3e00000 	mvn	r0, #0
    95a0:	ea000014 	b	95f8 <_start+0xee0>
    95a4:	e59f6064 	ldr	r6, [pc, #100]	; 9610 <_start+0xef8>
    95a8:	e3a04000 	mov	r4, #0
    95ac:	e59f1060 	ldr	r1, [pc, #96]	; 9614 <_start+0xefc>
    95b0:	e597200c 	ldr	r2, [r7, #12]
    95b4:	e5960000 	ldr	r0, [r6]
[31m    95b8:	ebfffc26 	bl	8658 <fprintf@plt>[0m
    95bc:	ea000005 	b	95d8 <_start+0xec0>
    95c0:	e0852204 	add	r2, r5, r4, lsl #4
    95c4:	e2844001 	add	r4, r4, #1
    95c8:	e5960000 	ldr	r0, [r6]
    95cc:	e59f1044 	ldr	r1, [pc, #68]	; 9618 <_start+0xf00>
    95d0:	e2822004 	add	r2, r2, #4
[31m    95d4:	ebfffc1f 	bl	8658 <fprintf@plt>[0m
    95d8:	e5953000 	ldr	r3, [r5]
    95dc:	e1540003 	cmp	r4, r3
--
    96c8:	e8bd80f8 	pop	{r3, r4, r5, r6, r7, pc}
    96cc:	000098e0 	andeq	r9, r0, r0, ror #17
    96d0:	000098d4 	ldrdeq	r9, [r0], -r4
    96d4:	0001217c 	andeq	r2, r1, ip, ror r1
    96d8:	00009c5c 	andeq	r9, r0, ip, asr ip
    96dc:	e92d4ff0 	push	{r4, r5, r6, r7, r8, r9, sl, fp, lr}
    96e0:	e2705001 	rsbs	r5, r0, #1
    96e4:	33a05000 	movcc	r5, #0
    96e8:	e3510e42 	cmp	r1, #1056	; 0x420
    96ec:	83855001 	orrhi	r5, r5, #1
    96f0:	e24dd04c 	sub	sp, sp, #76	; 0x4c
    96f4:	e3550000 	cmp	r5, #0
    96f8:	e1a08001 	mov	r8, r1
    96fc:	e1a0a000 	mov	sl, r0
    9700:	0a000006 	beq	9720 <_start+0x1008>
    9704:	e59f31a0 	ldr	r3, [pc, #416]	; 98ac <_start+0x1194>
    9708:	e1a0200a 	mov	r2, sl
    970c:	e59f119c 	ldr	r1, [pc, #412]	; 98b0 <_start+0x1198>
    9710:	e5930000 	ldr	r0, [r3]
    9714:	e1a03008 	mov	r3, r8
[31m    9718:	ebfffbce 	bl	8658 <fprintf@plt>[0m
    971c:	ea000009 	b	9748 <_start+0x1030>
    9720:	e3a00010 	mov	r0, #16

[0m
[[0;33m*[0m] Function [0;33mfprintf[0m used [0;33m27[0m times [0;33memf.svn-base[0m

