[[0;33m*[0m] Binary protection state of [0;33mlibip6tc.so.0.0.0.svn-base[0m
[REF] s12

  	RELRO          CANARY            NX           PIE       RPATH        RUNPATH      SYMBOLS      
  	[31mNo RELRO[0m       [31mNo Canary found[0m   [32mNX enabled[0m   [33mDSO[0m          [32mNo RPATH[0m     [32mNo RUNPATH[0m   [31mSymbols[0m

[0m
[[0;33m*[0m] Function [0;33mfprintf[0m tear down of [0;33mlibip6tc.so.0.0.0.svn-base[0m

    1438:	e2882001 	add	r2, r8, #1
    143c:	e1a0000c 	mov	r0, ip
    1440:	e7991102 	ldr	r1, [r9, r2, lsl #2]
    1444:	e88d1008 	stm	sp, {r3, ip}
    1448:	e2811008 	add	r1, r1, #8
    144c:	ebfffeae 	bl	f0c <strcmp@plt>
    1450:	e89d1008 	ldm	sp, {r3, ip}
    1454:	e3500000 	cmp	r0, #0
    1458:	aa000012 	bge	14a8 <__iptcc_bsearch_chain_index+0x100>
    145c:	e1a00007 	mov	r0, r7
    1460:	e28dd00c 	add	sp, sp, #12
    1464:	e8bd8ff0 	pop	{r4, r5, r6, r7, r8, r9, sl, fp, pc}
    1468:	e35a0001 	cmp	sl, #1
    146c:	0a000007 	beq	1490 <__iptcc_bsearch_chain_index+0xe8>
    1470:	e59f3094 	ldr	r3, [pc, #148]	; 150c <__iptcc_bsearch_chain_index+0x164>
    1474:	e1a0200a 	mov	r2, sl
    1478:	e59f1090 	ldr	r1, [pc, #144]	; 1510 <__iptcc_bsearch_chain_index+0x168>
    147c:	e7943003 	ldr	r3, [r4, r3]
    1480:	e0841001 	add	r1, r4, r1
    1484:	e5930000 	ldr	r0, [r3]
[31m    1488:	ebfffe8a 	bl	eb8 <fprintf@plt>[0m
    148c:	ebfffe83 	bl	ea0 <abort@plt>
    1490:	e5970060 	ldr	r0, [r7, #96]	; 0x60
--
    14b0:	eaffffcb 	b	13e4 <__iptcc_bsearch_chain_index+0x3c>
    14b4:	e3580000 	cmp	r8, #0
    14b8:	0affffe7 	beq	145c <__iptcc_bsearch_chain_index+0xb4>
    14bc:	e1a06008 	mov	r6, r8
    14c0:	e595901c 	ldr	r9, [r5, #28]
    14c4:	e1a080a8 	lsr	r8, r8, #1
    14c8:	eaffffc5 	b	13e4 <__iptcc_bsearch_chain_index+0x3c>
    14cc:	e595901c 	ldr	r9, [r5, #28]
    14d0:	e2882001 	add	r2, r8, #1
    14d4:	e7992102 	ldr	r2, [r9, r2, lsl #2]
    14d8:	e5920060 	ldr	r0, [r2, #96]	; 0x60
    14dc:	e0600003 	rsb	r0, r0, r3
    14e0:	eaffffdb 	b	1454 <__iptcc_bsearch_chain_index+0xac>
    14e4:	e59f3020 	ldr	r3, [pc, #32]	; 150c <__iptcc_bsearch_chain_index+0x164>
    14e8:	e1a02008 	mov	r2, r8
    14ec:	e59f1020 	ldr	r1, [pc, #32]	; 1514 <__iptcc_bsearch_chain_index+0x16c>
    14f0:	e2857008 	add	r7, r5, #8
    14f4:	e7943003 	ldr	r3, [r4, r3]
    14f8:	e0841001 	add	r1, r4, r1
    14fc:	e5930000 	ldr	r0, [r3]
[31m    1500:	ebfffe6c 	bl	eb8 <fprintf@plt>[0m
    1504:	eaffffd4 	b	145c <__iptcc_bsearch_chain_index+0xb4>
    1508:	0000b89c 	.word	0x0000b89c
--
    2024:	ea000003 	b	2038 <standard_target_map+0x3c>
    2028:	eaffffff 	b	202c <standard_target_map+0x30>
    202c:	e59f004c 	ldr	r0, [pc, #76]	; 2080 <standard_target_map+0x84>
    2030:	e0830000 	add	r0, r3, r0
    2034:	e8bd8008 	pop	{r3, pc}
    2038:	e59f0044 	ldr	r0, [pc, #68]	; 2084 <standard_target_map+0x88>
    203c:	e0830000 	add	r0, r3, r0
    2040:	e8bd8008 	pop	{r3, pc}
    2044:	e59f003c 	ldr	r0, [pc, #60]	; 2088 <standard_target_map+0x8c>
    2048:	e0830000 	add	r0, r3, r0
    204c:	e8bd8008 	pop	{r3, pc}
    2050:	e59f0034 	ldr	r0, [pc, #52]	; 208c <standard_target_map+0x90>
    2054:	e0830000 	add	r0, r3, r0
    2058:	e8bd8008 	pop	{r3, pc}
    205c:	e59f102c 	ldr	r1, [pc, #44]	; 2090 <standard_target_map+0x94>
    2060:	e1a02000 	mov	r2, r0
    2064:	e7930001 	ldr	r0, [r3, r1]
    2068:	e59f1024 	ldr	r1, [pc, #36]	; 2094 <standard_target_map+0x98>
    206c:	e5900000 	ldr	r0, [r0]
    2070:	e0831001 	add	r1, r3, r1
[31m    2074:	ebfffb8f 	bl	eb8 <fprintf@plt>[0m
    2078:	ebfffb88 	bl	ea0 <abort@plt>
    207c:	0000ac68 	.word	0x0000ac68
--
    2ea0:	e5f14001 	ldrb	r4, [r1, #1]!
    2ea4:	e5f20001 	ldrb	r0, [r2, #1]!
    2ea8:	e0284004 	eor	r4, r8, r4
    2eac:	e1140000 	tst	r4, r0
    2eb0:	1a000010 	bne	2ef8 <delete_entry+0x464>
    2eb4:	e2833001 	add	r3, r3, #1
    2eb8:	e153000a 	cmp	r3, sl
    2ebc:	3afffff6 	bcc	2e9c <delete_entry+0x408>
    2ec0:	eaffffc2 	b	2dd0 <delete_entry+0x33c>
    2ec4:	e5952020 	ldr	r2, [r5, #32]
    2ec8:	e5963020 	ldr	r3, [r6, #32]
    2ecc:	e1520003 	cmp	r2, r3
    2ed0:	13a03000 	movne	r3, #0
    2ed4:	03a03001 	moveq	r3, #1
    2ed8:	eaffffba 	b	2dc8 <delete_entry+0x334>
    2edc:	e59f30f4 	ldr	r3, [pc, #244]	; 2fd8 <delete_entry+0x544>
    2ee0:	e59f10f4 	ldr	r1, [pc, #244]	; 2fdc <delete_entry+0x548>
    2ee4:	e79b3003 	ldr	r3, [fp, r3]
    2ee8:	e08b1001 	add	r1, fp, r1
    2eec:	e5930000 	ldr	r0, [r3]
[31m    2ef0:	ebfff7f0 	bl	eb8 <fprintf@plt>[0m
    2ef4:	ebfff7e9 	bl	ea0 <abort@plt>
    2ef8:	e1a0800b 	mov	r8, fp
--
    4384:	e1520004 	cmp	r2, r4
    4388:	13a01000 	movne	r1, #0
    438c:	11a0c002 	movne	ip, r2
    4390:	11a00001 	movne	r0, r1
    4394:	1a000004 	bne	43ac <dump_entries6+0x3f8>
    4398:	ea00003a 	b	4488 <dump_entries6+0x4d4>
    439c:	e082c000 	add	ip, r2, r0
    43a0:	e2811001 	add	r1, r1, #1
    43a4:	e154000c 	cmp	r4, ip
    43a8:	0affff5a 	beq	4118 <dump_entries6+0x164>
    43ac:	e1dcc8be 	ldrh	ip, [ip, #142]	; 0x8e
    43b0:	e080000c 	add	r0, r0, ip
    43b4:	e1530000 	cmp	r3, r0
    43b8:	8afffff7 	bhi	439c <dump_entries6+0x3e8>
    43bc:	e59f3140 	ldr	r3, [pc, #320]	; 4504 <dump_entries6+0x550>
    43c0:	e0622004 	rsb	r2, r2, r4
    43c4:	e59f113c 	ldr	r1, [pc, #316]	; 4508 <dump_entries6+0x554>
    43c8:	e7953003 	ldr	r3, [r5, r3]
    43cc:	e0851001 	add	r1, r5, r1
    43d0:	e5930000 	ldr	r0, [r3]
[31m    43d4:	ebfff2b7 	bl	eb8 <fprintf@plt>[0m
    43d8:	ebfff2b0 	bl	ea0 <abort@plt>
    43dc:	e1a0000b 	mov	r0, fp

[0m
[[0;33m*[0m] Function [0;33mfprintf[0m used [0;33m5[0m times [0;33mlibip6tc.so.0.0.0.svn-base[0m

