[[0;33m*[0m] Binary protection state of [0;33mtc[0m
[REF] s12

  	RELRO          CANARY            NX           PIE       RPATH        RUNPATH      SYMBOLS      
  	[31mNo RELRO[0m       [31mNo Canary found[0m   [32mNX enabled[0m   [31mNo PIE[0m       [32mNo RPATH[0m     [32mNo RUNPATH[0m   [32mNo Symbols[0m

[0m
[[0;33m*[0m] Function [0;33mprintf[0m tear down of [0;33mtc[0m

    d12c:	eb008cee 	bl	304ec <matches@@Base>
    d130:	e3500000 	cmp	r0, #0
    d134:	05963000 	ldreq	r3, [r6]
    d138:	02833001 	addeq	r3, r3, #1
    d13c:	05863000 	streq	r3, [r6]
    d140:	0affff9c 	beq	cfb8 <main@@Base+0x48>
    d144:	e5950000 	ldr	r0, [r5]
    d148:	e59f10b0 	ldr	r1, [pc, #176]	; d200 <main@@Base+0x290>
    d14c:	eb008ce6 	bl	304ec <matches@@Base>
    d150:	e3500000 	cmp	r0, #0
    d154:	1a000012 	bne	d1a4 <main@@Base+0x234>
    d158:	e3540002 	cmp	r4, #2
    d15c:	e3a0a001 	mov	sl, #1
    d160:	15978008 	ldrne	r8, [r7, #8]
    d164:	e2444001 	sub	r4, r4, #1
    d168:	e2855004 	add	r5, r5, #4
    d16c:	eaffff91 	b	cfb8 <main@@Base+0x48>
    d170:	e59f108c 	ldr	r1, [pc, #140]	; d204 <main@@Base+0x294>
    d174:	e1a04003 	mov	r4, r3
    d178:	e59f0088 	ldr	r0, [pc, #136]	; d208 <main@@Base+0x298>
[31m    d17c:	ebfffd6e 	bl	c73c <printf@plt>[0m
    d180:	eaffffb9 	b	d06c <main@@Base+0xfc>
    d184:	e59f3080 	ldr	r3, [pc, #128]	; d20c <main@@Base+0x29c>
--
   14d1c:	e3530002 	cmp	r3, #2
   14d20:	0a000021 	beq	14dac <print_ematch_tree@@Base+0xcc>
   14d24:	e5955018 	ldr	r5, [r5, #24]
   14d28:	e3550000 	cmp	r5, #0
   14d2c:	0a00001a 	beq	14d9c <print_ematch_tree@@Base+0xbc>
   14d30:	e5953008 	ldr	r3, [r5, #8]
   14d34:	e3530000 	cmp	r3, #0
   14d38:	1a000018 	bne	14da0 <print_ematch_tree@@Base+0xc0>
   14d3c:	e5953014 	ldr	r3, [r5, #20]
   14d40:	e3530000 	cmp	r3, #0
   14d44:	1affffeb 	bne	14cf8 <print_ematch_tree@@Base+0x18>
   14d48:	e5954000 	ldr	r4, [r5]
   14d4c:	e3540000 	cmp	r4, #0
   14d50:	0affffee 	beq	14d10 <print_ematch_tree@@Base+0x30>
   14d54:	e594200c 	ldr	r2, [r4, #12]
   14d58:	e5941000 	ldr	r1, [r4]
   14d5c:	e59f005c 	ldr	r0, [pc, #92]	; 14dc0 <print_ematch_tree@@Base+0xe0>
   14d60:	e3520000 	cmp	r2, #0
   14d64:	01a02007 	moveq	r2, r7
   14d68:	11a02006 	movne	r2, r6
[31m   14d6c:	ebffde72 	bl	c73c <printf@plt>[0m
   14d70:	e594400c 	ldr	r4, [r4, #12]
   14d74:	e3540000 	cmp	r4, #0
   14d78:	1afffff5 	bne	14d54 <print_ematch_tree@@Base+0x74>
   14d7c:	e595300c 	ldr	r3, [r5, #12]
   14d80:	e3530001 	cmp	r3, #1
   14d84:	1affffe4 	bne	14d1c <print_ematch_tree@@Base+0x3c>
   14d88:	e59f0034 	ldr	r0, [pc, #52]	; 14dc4 <print_ematch_tree@@Base+0xe4>
[31m   14d8c:	ebffde6a 	bl	c73c <printf@plt>[0m
   14d90:	e5955018 	ldr	r5, [r5, #24]
   14d94:	e3550000 	cmp	r5, #0
   14d98:	1affffe4 	bne	14d30 <print_ematch_tree@@Base+0x50>
   14d9c:	e8bd80f8 	pop	{r3, r4, r5, r6, r7, pc}
   14da0:	e59f0020 	ldr	r0, [pc, #32]	; 14dc8 <print_ematch_tree@@Base+0xe8>
[31m   14da4:	ebffde64 	bl	c73c <printf@plt>[0m
   14da8:	eaffffe3 	b	14d3c <print_ematch_tree@@Base+0x5c>
   14dac:	e59f0018 	ldr	r0, [pc, #24]	; 14dcc <print_ematch_tree@@Base+0xec>
[31m   14db0:	ebffde61 	bl	c73c <printf@plt>[0m
   14db4:	eaffffda 	b	14d24 <print_ematch_tree@@Base+0x44>
   14db8:	0003ace8 	andeq	sl, r3, r8, ror #25
--
   19dd4:	e3a02005 	mov	r2, #5
   19dd8:	e1a00007 	mov	r0, r7
   19ddc:	e28d6010 	add	r6, sp, #16
   19de0:	e58dc000 	str	ip, [sp]
   19de4:	eb005506 	bl	2f204 <addattr_l@@Base>
   19de8:	e1a03006 	mov	r3, r6
   19dec:	e3a0cb01 	mov	ip, #1024	; 0x400
   19df0:	e1a00007 	mov	r0, r7
   19df4:	e3a01ebd 	mov	r1, #3024	; 0xbd0
   19df8:	e3a02006 	mov	r2, #6
   19dfc:	e58dc000 	str	ip, [sp]
   19e00:	eb0054ff 	bl	2f204 <addattr_l@@Base>
   19e04:	e59f36b0 	ldr	r3, [pc, #1712]	; 1a4bc <prio_print_opt@@Base+0x19b8>
   19e08:	e5933000 	ldr	r3, [r3]
   19e0c:	e3530000 	cmp	r3, #0
   19e10:	0affffa2 	beq	19ca0 <prio_print_opt@@Base+0x119c>
   19e14:	e2468004 	sub	r8, r6, #4
   19e18:	e2866fff 	add	r6, r6, #1020	; 0x3fc
   19e1c:	e5b81004 	ldr	r1, [r8, #4]!
   19e20:	e59f0698 	ldr	r0, [pc, #1688]	; 1a4c0 <prio_print_opt@@Base+0x19bc>
[31m   19e24:	ebffca44 	bl	c73c <printf@plt>[0m
   19e28:	e1580006 	cmp	r8, r6
   19e2c:	1afffffa 	bne	19e1c <prio_print_opt@@Base+0x1318>
--
   1acf8:	e58dc000 	str	ip, [sp]
   1acfc:	e2866003 	add	r6, r6, #3
   1ad00:	eb00513f 	bl	2f204 <addattr_l@@Base>
   1ad04:	e1a03005 	mov	r3, r5
   1ad08:	e3a0cb01 	mov	ip, #1024	; 0x400
   1ad0c:	e1a00009 	mov	r0, r9
   1ad10:	e3a01ebd 	mov	r1, #3024	; 0xbd0
   1ad14:	e3a02006 	mov	r2, #6
   1ad18:	e58dc000 	str	ip, [sp]
   1ad1c:	eb005138 	bl	2f204 <addattr_l@@Base>
   1ad20:	e59f32cc 	ldr	r3, [pc, #716]	; 1aff4 <prio_print_opt@@Base+0x24f0>
   1ad24:	e3c66003 	bic	r6, r6, #3
   1ad28:	e0898006 	add	r8, r9, r6
   1ad2c:	e5933000 	ldr	r3, [r3]
   1ad30:	e3530000 	cmp	r3, #0
   1ad34:	0a000008 	beq	1ad5c <prio_print_opt@@Base+0x2258>
   1ad38:	e2474010 	sub	r4, r7, #16
   1ad3c:	e2877e3f 	add	r7, r7, #1008	; 0x3f0
   1ad40:	e5b41004 	ldr	r1, [r4, #4]!
   1ad44:	e59f02ac 	ldr	r0, [pc, #684]	; 1aff8 <prio_print_opt@@Base+0x24f4>
[31m   1ad48:	ebffc67b 	bl	c73c <printf@plt>[0m
   1ad4c:	e1540007 	cmp	r4, r7
   1ad50:	1afffffa 	bne	1ad40 <prio_print_opt@@Base+0x223c>
--
   28af4:	e5846004 	str	r6, [r4, #4]
   28af8:	11a06116 	lslne	r6, r6, r1
   28afc:	e28d1010 	add	r1, sp, #16
   28b00:	e0812102 	add	r2, r1, r2, lsl #2
   28b04:	e59f1078 	ldr	r1, [pc, #120]	; 28b84 <pack_key16@@Base+0x10c>
   28b08:	15846004 	strne	r6, [r4, #4]
   28b0c:	e5122010 	ldr	r2, [r2, #-16]
   28b10:	e5911000 	ldr	r1, [r1]
   28b14:	e5843008 	str	r3, [r4, #8]
   28b18:	e1802002 	orr	r2, r0, r2
   28b1c:	e3510000 	cmp	r1, #0
   28b20:	e5842000 	str	r2, [r4]
   28b24:	1a000004 	bne	28b3c <pack_key16@@Base+0xc4>
   28b28:	e1a00005 	mov	r0, r5
   28b2c:	e1a01004 	mov	r1, r4
   28b30:	e28dd010 	add	sp, sp, #16
   28b34:	e8bd41f0 	pop	{r4, r5, r6, r7, r8, lr}
   28b38:	eaffff8a 	b	28968 <pack_key@@Base>
   28b3c:	e5941004 	ldr	r1, [r4, #4]
   28b40:	e59f0040 	ldr	r0, [pc, #64]	; 28b88 <pack_key16@@Base+0x110>
[31m   28b44:	ebff8efc 	bl	c73c <printf@plt>[0m
   28b48:	eafffff6 	b	28b28 <pack_key16@@Base+0xb0>
   28b4c:	e59f3038 	ldr	r3, [pc, #56]	; 28b8c <pack_key16@@Base+0x114>
--
   28be0:	e2013003 	and	r3, r1, #3
   28be4:	e3c11003 	bic	r1, r1, #3
   28be8:	e0802103 	add	r2, r0, r3, lsl #2
   28bec:	e59f0068 	ldr	r0, [pc, #104]	; 28c5c <pack_key8@@Base+0xc4>
   28bf0:	e5841008 	str	r1, [r4, #8]
   28bf4:	e1a03183 	lsl	r3, r3, #3
   28bf8:	e590c000 	ldr	ip, [r0]
   28bfc:	e5120010 	ldr	r0, [r2, #-16]
   28c00:	e1a02315 	lsl	r2, r5, r3
   28c04:	e35c0000 	cmp	ip, #0
   28c08:	e5842004 	str	r2, [r4, #4]
   28c0c:	e1803316 	orr	r3, r0, r6, lsl r3
   28c10:	e5843000 	str	r3, [r4]
   28c14:	1a000004 	bne	28c2c <pack_key8@@Base+0x94>
   28c18:	e1a00007 	mov	r0, r7
   28c1c:	e1a01004 	mov	r1, r4
   28c20:	e28dd014 	add	sp, sp, #20
   28c24:	e8bd40f0 	pop	{r4, r5, r6, r7, lr}
   28c28:	eaffff4e 	b	28968 <pack_key@@Base>
   28c2c:	e59f002c 	ldr	r0, [pc, #44]	; 28c60 <pack_key8@@Base+0xc8>
[31m   28c30:	ebff8ec1 	bl	c73c <printf@plt>[0m
   28c34:	eafffff7 	b	28c18 <pack_key8@@Base+0x80>
   28c38:	e59f0024 	ldr	r0, [pc, #36]	; 28c64 <pack_key8@@Base+0xcc>
--
   28ea8:	e58d3010 	str	r3, [sp, #16]
   28eac:	da00003b 	ble	28fa0 <parse_cmd@@Base+0x2a8>
   28eb0:	e28d0010 	add	r0, sp, #16
   28eb4:	e28d100c 	add	r1, sp, #12
   28eb8:	e28d2040 	add	r2, sp, #64	; 0x40
   28ebc:	e3a03004 	mov	r3, #4
   28ec0:	ebffff69 	bl	28c6c <parse_val@@Base>
   28ec4:	e3500000 	cmp	r0, #0
   28ec8:	1affffcc 	bne	28e00 <parse_cmd@@Base+0x108>
   28ecc:	e59d2010 	ldr	r2, [sp, #16]
   28ed0:	e59d300c 	ldr	r3, [sp, #12]
   28ed4:	e2422001 	sub	r2, r2, #1
   28ed8:	e2833004 	add	r3, r3, #4
   28edc:	e58d2010 	str	r2, [sp, #16]
   28ee0:	e58d300c 	str	r3, [sp, #12]
   28ee4:	eaffffad 	b	28da0 <parse_cmd@@Base+0xa8>
   28ee8:	e5902000 	ldr	r2, [r0]
   28eec:	e5983008 	ldr	r3, [r8, #8]
   28ef0:	e59f00bc 	ldr	r0, [pc, #188]	; 28fb4 <parse_cmd@@Base+0x2bc>
   28ef4:	e58d4000 	str	r4, [sp]
[31m   28ef8:	ebff8e0f 	bl	c73c <printf@plt>[0m
   28efc:	e59d000c 	ldr	r0, [sp, #12]
   28f00:	eaffff90 	b	28d48 <parse_cmd@@Base+0x50>
--
   28f0c:	e5930000 	ldr	r0, [r3]
   28f10:	eb001d75 	bl	304ec <matches@@Base>
   28f14:	e3500000 	cmp	r0, #0
   28f18:	058d9040 	streq	r9, [sp, #64]	; 0x40
   28f1c:	01a0a009 	moveq	sl, r9
   28f20:	0affff96 	beq	28d80 <parse_cmd@@Base+0x88>
   28f24:	e59d300c 	ldr	r3, [sp, #12]
   28f28:	e59f108c 	ldr	r1, [pc, #140]	; 28fbc <parse_cmd@@Base+0x2c4>
   28f2c:	e5930000 	ldr	r0, [r3]
   28f30:	eb001d6d 	bl	304ec <matches@@Base>
   28f34:	e3500000 	cmp	r0, #0
   28f38:	1affffb0 	bne	28e00 <parse_cmd@@Base+0x108>
   28f3c:	e1a0a000 	mov	sl, r0
   28f40:	eaffff8e 	b	28d80 <parse_cmd@@Base+0x88>
   28f44:	e59d200c 	ldr	r2, [sp, #12]
   28f48:	e5983008 	ldr	r3, [r8, #8]
   28f4c:	e59d1010 	ldr	r1, [sp, #16]
   28f50:	e5922000 	ldr	r2, [r2]
   28f54:	e59f0064 	ldr	r0, [pc, #100]	; 28fc0 <parse_cmd@@Base+0x2c8>
   28f58:	e58d4000 	str	r4, [sp]
[31m   28f5c:	ebff8df6 	bl	c73c <printf@plt>[0m
   28f60:	eaffff9d 	b	28ddc <parse_cmd@@Base+0xe4>
   28f64:	e3a030ff 	mov	r3, #255	; 0xff
--
   2dacc:	e28dd0ac 	add	sp, sp, #172	; 0xac
   2dad0:	e8bd8ff0 	pop	{r4, r5, r6, r7, r8, r9, sl, fp, pc}
   2dad4:	e59f31b0 	ldr	r3, [pc, #432]	; 2dc8c <build_st@@Base+0x82c>
   2dad8:	e59f11b0 	ldr	r1, [pc, #432]	; 2dc90 <build_st@@Base+0x830>
   2dadc:	e5932000 	ldr	r2, [r3]
   2dae0:	e59f31ac 	ldr	r3, [pc, #428]	; 2dc94 <build_st@@Base+0x834>
   2dae4:	e5930000 	ldr	r0, [r3]
[31m   2dae8:	ebff7add 	bl	c664 <fprintf@plt>[0m
   2daec:	e3e00000 	mvn	r0, #0
   2daf0:	eafffff5 	b	2dacc <build_st@@Base+0x66c>
   2daf4:	e59f3198 	ldr	r3, [pc, #408]	; 2dc94 <build_st@@Base+0x834>
   2daf8:	e59f1190 	ldr	r1, [pc, #400]	; 2dc90 <build_st@@Base+0x830>
   2dafc:	e5930000 	ldr	r0, [r3]
   2db00:	e59f3184 	ldr	r3, [pc, #388]	; 2dc8c <build_st@@Base+0x82c>
   2db04:	e5932000 	ldr	r2, [r3]
[31m   2db08:	ebff7ad5 	bl	c664 <fprintf@plt>[0m
   2db0c:	e3e00000 	mvn	r0, #0
   2db10:	eaffffed 	b	2dacc <build_st@@Base+0x66c>
   2db14:	e59f017c 	ldr	r0, [pc, #380]	; 2dc98 <build_st@@Base+0x838>
   2db18:	e2841004 	add	r1, r4, #4
[31m   2db1c:	ebff7b06 	bl	c73c <printf@plt>[0m
   2db20:	e3e00000 	mvn	r0, #0
   2db24:	eaffffe8 	b	2dacc <build_st@@Base+0x66c>

[0m
[[0;33m*[0m] Function [0;33mprintf[0m used [0;33m12[0m times [0;33mtc[0m

