[[0;33m*[0m] Binary protection state of [0;33mred[0m
[REF] s12

  	RELRO          CANARY            NX           PIE       RPATH        RUNPATH      SYMBOLS      
  	[31mNo RELRO[0m       [31mNo Canary found[0m   [32mNX enabled[0m   [31mNo PIE[0m       [32mNo RPATH[0m     [32mNo RUNPATH[0m   [32mNo Symbols[0m

[0m
[[0;33m*[0m] Function [0;33msprintf[0m tear down of [0;33mred[0m

    8f80:	e24dd08c 	sub	sp, sp, #140	; 0x8c
    8f84:	e28d5004 	add	r5, sp, #4
    8f88:	e3a01000 	mov	r1, #0
    8f8c:	e3a02064 	mov	r2, #100	; 0x64
    8f90:	e1a00005 	mov	r0, r5
    8f94:	e28d4068 	add	r4, sp, #104	; 0x68
    8f98:	ebfffe2c 	bl	8850 <memset@plt>
    8f9c:	e3a0c000 	mov	ip, #0
    8fa0:	e2843004 	add	r3, r4, #4
    8fa4:	e483c004 	str	ip, [r3], #4
    8fa8:	e1a00005 	mov	r0, r5
    8fac:	e483c004 	str	ip, [r3], #4
    8fb0:	e59f11c0 	ldr	r1, [pc, #448]	; 9178 <_start+0x8c8>
    8fb4:	e483c004 	str	ip, [r3], #4
    8fb8:	e59f21bc 	ldr	r2, [pc, #444]	; 917c <_start+0x8cc>
    8fbc:	e483c004 	str	ip, [r3], #4
    8fc0:	e483c004 	str	ip, [r3], #4
    8fc4:	e483c004 	str	ip, [r3], #4
    8fc8:	e583c000 	str	ip, [r3]
    8fcc:	e58dc068 	str	ip, [sp, #104]	; 0x68
[31m    8fd0:	ebfffe27 	bl	8874 <sprintf@plt>[0m
    8fd4:	e1a00005 	mov	r0, r5
    8fd8:	e59f11a0 	ldr	r1, [pc, #416]	; 9180 <_start+0x8d0>
--
    8ff4:	e1a00006 	mov	r0, r6
    8ff8:	ebfffdde 	bl	8778 <pclose@plt>
    8ffc:	e1a00004 	mov	r0, r4
    9000:	ebfffe24 	bl	8898 <strlen@plt>
    9004:	e3500001 	cmp	r0, #1
    9008:	9a000036 	bls	90e8 <_start+0x838>
    900c:	e59f6174 	ldr	r6, [pc, #372]	; 9188 <_start+0x8d8>
    9010:	e5963000 	ldr	r3, [r6]
    9014:	e3530000 	cmp	r3, #0
    9018:	1a000042 	bne	9128 <_start+0x878>
    901c:	e59f0168 	ldr	r0, [pc, #360]	; 918c <_start+0x8dc>
    9020:	ebfffe07 	bl	8844 <nvram_get@plt>
    9024:	e1a01000 	mov	r1, r0
    9028:	e1a00004 	mov	r0, r4
    902c:	ebfffe0d 	bl	8868 <strcmp@plt>
    9030:	e2507000 	subs	r7, r0, #0
    9034:	13a07001 	movne	r7, #1
    9038:	e59f1150 	ldr	r1, [pc, #336]	; 9190 <_start+0x8e0>
    903c:	e1a00005 	mov	r0, r5
    9040:	e59f2134 	ldr	r2, [pc, #308]	; 917c <_start+0x8cc>
[31m    9044:	ebfffe0a 	bl	8874 <sprintf@plt>[0m
    9048:	e1a00005 	mov	r0, r5
    904c:	e59f112c 	ldr	r1, [pc, #300]	; 9180 <_start+0x8d0>
--
    91b8:	e24dd08c 	sub	sp, sp, #140	; 0x8c
    91bc:	e28d5004 	add	r5, sp, #4
    91c0:	e3a01000 	mov	r1, #0
    91c4:	e3a02064 	mov	r2, #100	; 0x64
    91c8:	e1a00005 	mov	r0, r5
    91cc:	e28d4068 	add	r4, sp, #104	; 0x68
    91d0:	ebfffd9e 	bl	8850 <memset@plt>
    91d4:	e3a0c000 	mov	ip, #0
    91d8:	e2843004 	add	r3, r4, #4
    91dc:	e483c004 	str	ip, [r3], #4
    91e0:	e1a00005 	mov	r0, r5
    91e4:	e483c004 	str	ip, [r3], #4
    91e8:	e59f111c 	ldr	r1, [pc, #284]	; 930c <_start+0xa5c>
    91ec:	e483c004 	str	ip, [r3], #4
    91f0:	e59f2118 	ldr	r2, [pc, #280]	; 9310 <_start+0xa60>
    91f4:	e483c004 	str	ip, [r3], #4
    91f8:	e483c004 	str	ip, [r3], #4
    91fc:	e483c004 	str	ip, [r3], #4
    9200:	e583c000 	str	ip, [r3]
    9204:	e58dc068 	str	ip, [sp, #104]	; 0x68
[31m    9208:	ebfffd99 	bl	8874 <sprintf@plt>[0m
    920c:	e1a00005 	mov	r0, r5
    9210:	e59f10fc 	ldr	r1, [pc, #252]	; 9314 <_start+0xa64>
--
    94d4:	e59f1134 	ldr	r1, [pc, #308]	; 9610 <_start+0xd60>
    94d8:	e3a00000 	mov	r0, #0
    94dc:	ebfffccc 	bl	8814 <strtok@plt>
    94e0:	e2502000 	subs	r2, r0, #0
    94e4:	e2888001 	add	r8, r8, #1
    94e8:	e6ef8078 	uxtb	r8, r8
    94ec:	1affffef 	bne	94b0 <_start+0xc00>
    94f0:	e59d00c4 	ldr	r0, [sp, #196]	; 0xc4
    94f4:	ebfffce4 	bl	888c <atoi@plt>
    94f8:	e3500063 	cmp	r0, #99	; 0x63
    94fc:	ca00002b 	bgt	95b0 <_start+0xd00>
    9500:	e59d80b8 	ldr	r8, [sp, #184]	; 0xb8
    9504:	e3a0c064 	mov	ip, #100	; 0x64
    9508:	e59da0bc 	ldr	sl, [sp, #188]	; 0xbc
    950c:	e1a00006 	mov	r0, r6
    9510:	e59d90c0 	ldr	r9, [sp, #192]	; 0xc0
    9514:	e59f10fc 	ldr	r1, [pc, #252]	; 9618 <_start+0xd68>
    9518:	e1a02008 	mov	r2, r8
    951c:	e1a0300a 	mov	r3, sl
    9520:	e88d1200 	stm	sp, {r9, ip}
[31m    9524:	ebfffcd2 	bl	8874 <sprintf@plt>[0m
    9528:	e3a0c06e 	mov	ip, #110	; 0x6e
    952c:	e1a00005 	mov	r0, r5
    9530:	e59f10e4 	ldr	r1, [pc, #228]	; 961c <_start+0xd6c>
    9534:	e1a02008 	mov	r2, r8
    9538:	e1a0300a 	mov	r3, sl
    953c:	e88d1200 	stm	sp, {r9, ip}
[31m    9540:	ebfffccb 	bl	8874 <sprintf@plt>[0m
    9544:	e59fc0d4 	ldr	ip, [pc, #212]	; 9620 <_start+0xd70>
    9548:	e1a02006 	mov	r2, r6
    954c:	e59f60d0 	ldr	r6, [pc, #208]	; 9624 <_start+0xd74>
    9550:	e1a03005 	mov	r3, r5
    9554:	e59f10cc 	ldr	r1, [pc, #204]	; 9628 <_start+0xd78>
    9558:	e1a00007 	mov	r0, r7
    955c:	e24ce020 	sub	lr, ip, #32
    9560:	e58dc004 	str	ip, [sp, #4]
    9564:	e59fc0c0 	ldr	ip, [pc, #192]	; 962c <_start+0xd7c>
    9568:	e58de008 	str	lr, [sp, #8]
    956c:	e58de00c 	str	lr, [sp, #12]
    9570:	e58dc000 	str	ip, [sp]
    9574:	e3a0c00f 	mov	ip, #15
    9578:	e58dc010 	str	ip, [sp, #16]
    957c:	e58d6014 	str	r6, [sp, #20]
    9580:	ebfffc94 	bl	87d8 <fprintf@plt>
    9584:	e1a00007 	mov	r0, r7
    9588:	ebfffcb3 	bl	885c <fclose@plt>
    958c:	e1a00004 	mov	r0, r4
    9590:	e1a02006 	mov	r2, r6
    9594:	e59f1094 	ldr	r1, [pc, #148]	; 9630 <_start+0xd80>
    9598:	e1a03006 	mov	r3, r6
[31m    959c:	ebfffcb4 	bl	8874 <sprintf@plt>[0m
    95a0:	e1a00004 	mov	r0, r4
    95a4:	ebfffc82 	bl	87b4 <system@plt>
    95a8:	e28dd0c8 	add	sp, sp, #200	; 0xc8
    95ac:	e8bd87f0 	pop	{r4, r5, r6, r7, r8, r9, sl, pc}
    95b0:	e59d80b8 	ldr	r8, [sp, #184]	; 0xb8
    95b4:	e3a0c032 	mov	ip, #50	; 0x32
    95b8:	e59da0bc 	ldr	sl, [sp, #188]	; 0xbc
    95bc:	e1a00006 	mov	r0, r6
    95c0:	e59d90c0 	ldr	r9, [sp, #192]	; 0xc0
    95c4:	e1a02008 	mov	r2, r8
    95c8:	e59f1048 	ldr	r1, [pc, #72]	; 9618 <_start+0xd68>
    95cc:	e1a0300a 	mov	r3, sl
    95d0:	e88d1200 	stm	sp, {r9, ip}
[31m    95d4:	ebfffca6 	bl	8874 <sprintf@plt>[0m
    95d8:	e3a0c03c 	mov	ip, #60	; 0x3c
    95dc:	e1a00005 	mov	r0, r5
    95e0:	e59f1034 	ldr	r1, [pc, #52]	; 961c <_start+0xd6c>
    95e4:	e1a02008 	mov	r2, r8
    95e8:	e1a0300a 	mov	r3, sl
    95ec:	e88d1200 	stm	sp, {r9, ip}
[31m    95f0:	ebfffc9f 	bl	8874 <sprintf@plt>[0m
    95f4:	eaffffd2 	b	9544 <_start+0xc94>
    95f8:	e59f0034 	ldr	r0, [pc, #52]	; 9634 <_start+0xd84>
--
    9694:	e48c3004 	str	r3, [ip], #4
    9698:	e4823004 	str	r3, [r2], #4
    969c:	e59f00d4 	ldr	r0, [pc, #212]	; 9778 <_start+0xec8>
    96a0:	e58c3000 	str	r3, [ip]
    96a4:	e5823000 	str	r3, [r2]
    96a8:	e58d3100 	str	r3, [sp, #256]	; 0x100
    96ac:	e58d30e0 	str	r3, [sp, #224]	; 0xe0
    96b0:	ebfffc72 	bl	8880 <stat@plt>
    96b4:	e3500000 	cmp	r0, #0
    96b8:	0a000010 	beq	9700 <_start+0xe50>
    96bc:	e59f30b8 	ldr	r3, [pc, #184]	; 977c <_start+0xecc>
    96c0:	e5933000 	ldr	r3, [r3]
    96c4:	e3530000 	cmp	r3, #0
    96c8:	1a00001e 	bne	9748 <_start+0xe98>
    96cc:	e59fc0ac 	ldr	ip, [pc, #172]	; 9780 <_start+0xed0>
    96d0:	e1a00004 	mov	r0, r4
    96d4:	e59f10a8 	ldr	r1, [pc, #168]	; 9784 <_start+0xed4>
    96d8:	e59f20a8 	ldr	r2, [pc, #168]	; 9788 <_start+0xed8>
    96dc:	e24c3020 	sub	r3, ip, #32
    96e0:	e58dc000 	str	ip, [sp]
[31m    96e4:	ebfffc62 	bl	8874 <sprintf@plt>[0m
    96e8:	e59f009c 	ldr	r0, [pc, #156]	; 978c <_start+0xedc>
    96ec:	ebfffc30 	bl	87b4 <system@plt>
    96f0:	e1a00004 	mov	r0, r4
    96f4:	ebfffc2e 	bl	87b4 <system@plt>
    96f8:	e28ddf49 	add	sp, sp, #292	; 0x124
    96fc:	e8bd80f0 	pop	{r4, r5, r6, r7, pc}
    9700:	e59f0088 	ldr	r0, [pc, #136]	; 9790 <_start+0xee0>
    9704:	e59f1088 	ldr	r1, [pc, #136]	; 9794 <_start+0xee4>
    9708:	ebfffc4a 	bl	8838 <fopen@plt>
    970c:	e2507000 	subs	r7, r0, #0
    9710:	0a000010 	beq	9758 <_start+0xea8>
    9714:	e1a02006 	mov	r2, r6
    9718:	e1a03005 	mov	r3, r5
    971c:	e59f1074 	ldr	r1, [pc, #116]	; 9798 <_start+0xee8>
    9720:	ebfffc17 	bl	8784 <fscanf@plt>
    9724:	e1a00007 	mov	r0, r7
    9728:	ebfffc4b 	bl	885c <fclose@plt>
    972c:	e1a00004 	mov	r0, r4
    9730:	e59f104c 	ldr	r1, [pc, #76]	; 9784 <_start+0xed4>
    9734:	e59f204c 	ldr	r2, [pc, #76]	; 9788 <_start+0xed8>
    9738:	e1a03006 	mov	r3, r6
    973c:	e58d5000 	str	r5, [sp]
[31m    9740:	ebfffc4b 	bl	8874 <sprintf@plt>[0m
    9744:	eaffffe9 	b	96f0 <_start+0xe40>
    9748:	e1a01004 	mov	r1, r4
    974c:	e59f0048 	ldr	r0, [pc, #72]	; 979c <_start+0xeec>
    9750:	ebfffc05 	bl	876c <printf@plt>
    9754:	eaffffdc 	b	96cc <_start+0xe1c>
    9758:	e59fc020 	ldr	ip, [pc, #32]	; 9780 <_start+0xed0>
    975c:	e1a00004 	mov	r0, r4
    9760:	e59f101c 	ldr	r1, [pc, #28]	; 9784 <_start+0xed4>
    9764:	e59f201c 	ldr	r2, [pc, #28]	; 9788 <_start+0xed8>
    9768:	e24c3020 	sub	r3, ip, #32
    976c:	e58dc000 	str	ip, [sp]
[31m    9770:	ebfffc3f 	bl	8874 <sprintf@plt>[0m
    9774:	eaffffdd 	b	96f0 <_start+0xe40>
    9778:	0000ad6c 	andeq	sl, r0, ip, ror #26
    977c:	00013540 	andeq	r3, r1, r0, asr #10
    9780:	00013564 	andeq	r3, r1, r4, ror #10
    9784:	0000ad98 	muleq	r0, r8, sp
    9788:	0000abe8 	andeq	sl, r0, r8, ror #23
    978c:	0000adc4 	andeq	sl, r0, r4, asr #27
    9790:	0000ad80 	andeq	sl, r0, r0, lsl #27
    9794:	0000a7e4 	andeq	sl, r0, r4, ror #15
    9798:	0000adb4 			; <UNDEFINED> instruction: 0x0000adb4
    979c:	0000adbc 			; <UNDEFINED> instruction: 0x0000adbc
    97a0:	e92d4030 	push	{r4, r5, lr}
    97a4:	e24dd084 	sub	sp, sp, #132	; 0x84
    97a8:	e1a05000 	mov	r5, r0
    97ac:	e3a01000 	mov	r1, #0
    97b0:	e3a02080 	mov	r2, #128	; 0x80
    97b4:	e1a0000d 	mov	r0, sp
    97b8:	ebfffc24 	bl	8850 <memset@plt>
    97bc:	e59f1070 	ldr	r1, [pc, #112]	; 9834 <_start+0xf84>
    97c0:	e1a02005 	mov	r2, r5
    97c4:	e1a0000d 	mov	r0, sp
    97c8:	e1a0400d 	mov	r4, sp
[31m    97cc:	ebfffc28 	bl	8874 <sprintf@plt>[0m
    97d0:	e1a0000d 	mov	r0, sp
    97d4:	ebfffbf6 	bl	87b4 <system@plt>
--
    983c:	0000ae24 	andeq	sl, r0, r4, lsr #28
    9840:	0000ae10 	andeq	sl, r0, r0, lsl lr
    9844:	e92d4010 	push	{r4, lr}
    9848:	e24dd068 	sub	sp, sp, #104	; 0x68
    984c:	e28d4004 	add	r4, sp, #4
    9850:	e3a01000 	mov	r1, #0
    9854:	e3a02064 	mov	r2, #100	; 0x64
    9858:	e1a00004 	mov	r0, r4
    985c:	ebfffbfb 	bl	8850 <memset@plt>
    9860:	e59f0044 	ldr	r0, [pc, #68]	; 98ac <_start+0xffc>
    9864:	ebffffcd 	bl	97a0 <_start+0xef0>
    9868:	e3500000 	cmp	r0, #0
    986c:	0a000009 	beq	9898 <_start+0xfe8>
    9870:	e59f3038 	ldr	r3, [pc, #56]	; 98b0 <_start+0x1000>
    9874:	e5933000 	ldr	r3, [r3]
    9878:	e3530000 	cmp	r3, #0
    987c:	1a000007 	bne	98a0 <_start+0xff0>
    9880:	e1a00004 	mov	r0, r4
    9884:	e59f1028 	ldr	r1, [pc, #40]	; 98b4 <_start+0x1004>
    9888:	e59f2028 	ldr	r2, [pc, #40]	; 98b8 <_start+0x1008>
[31m    988c:	ebfffbf8 	bl	8874 <sprintf@plt>[0m
    9890:	e1a00004 	mov	r0, r4
    9894:	ebfffbc6 	bl	87b4 <system@plt>
--
    9b48:	e3550003 	cmp	r5, #3
    9b4c:	0a000019 	beq	9bb8 <_start+0x1308>
    9b50:	e3550004 	cmp	r5, #4
    9b54:	0a000053 	beq	9ca8 <_start+0x13f8>
    9b58:	e59f3238 	ldr	r3, [pc, #568]	; 9d98 <_start+0x14e8>
    9b5c:	e5930000 	ldr	r0, [r3]
    9b60:	e3500000 	cmp	r0, #0
    9b64:	0a000002 	beq	9b74 <_start+0x12c4>
    9b68:	e59f022c 	ldr	r0, [pc, #556]	; 9d9c <_start+0x14ec>
    9b6c:	ebfffb0d 	bl	87a8 <puts@plt>
    9b70:	e3a00000 	mov	r0, #0
    9b74:	e28dd094 	add	sp, sp, #148	; 0x94
    9b78:	e8bd8030 	pop	{r4, r5, pc}
    9b7c:	e59f5214 	ldr	r5, [pc, #532]	; 9d98 <_start+0x14e8>
    9b80:	e5953000 	ldr	r3, [r5]
    9b84:	e3530000 	cmp	r3, #0
    9b88:	1a000026 	bne	9c28 <_start+0x1378>
    9b8c:	e59f120c 	ldr	r1, [pc, #524]	; 9da0 <_start+0x14f0>
    9b90:	e1a00004 	mov	r0, r4
    9b94:	e59f2208 	ldr	r2, [pc, #520]	; 9da4 <_start+0x14f4>
[31m    9b98:	ebfffb35 	bl	8874 <sprintf@plt>[0m
    9b9c:	e1a00004 	mov	r0, r4
    9ba0:	ebfffb03 	bl	87b4 <system@plt>
    9ba4:	e5953000 	ldr	r3, [r5]
    9ba8:	e3530000 	cmp	r3, #0
    9bac:	1a000019 	bne	9c18 <_start+0x1368>
    9bb0:	e3a00001 	mov	r0, #1
    9bb4:	eaffffee 	b	9b74 <_start+0x12c4>
    9bb8:	e59f51d8 	ldr	r5, [pc, #472]	; 9d98 <_start+0x14e8>
    9bbc:	e5953000 	ldr	r3, [r5]
    9bc0:	e3530000 	cmp	r3, #0
    9bc4:	1a000057 	bne	9d28 <_start+0x1478>
    9bc8:	e59fc1d8 	ldr	ip, [pc, #472]	; 9da8 <_start+0x14f8>
    9bcc:	e1a00004 	mov	r0, r4
    9bd0:	e59f31d4 	ldr	r3, [pc, #468]	; 9dac <_start+0x14fc>
    9bd4:	e59f11d4 	ldr	r1, [pc, #468]	; 9db0 <_start+0x1500>
    9bd8:	e58dc000 	str	ip, [sp]
    9bdc:	e59fc1d0 	ldr	ip, [pc, #464]	; 9db4 <_start+0x1504>
    9be0:	e59f21d0 	ldr	r2, [pc, #464]	; 9db8 <_start+0x1508>
    9be4:	e58dc004 	str	ip, [sp, #4]
    9be8:	e59fc1cc 	ldr	ip, [pc, #460]	; 9dbc <_start+0x150c>
    9bec:	e58dc008 	str	ip, [sp, #8]
[31m    9bf0:	ebfffb1f 	bl	8874 <sprintf@plt>[0m
    9bf4:	e1a00004 	mov	r0, r4
    9bf8:	ebfffaed 	bl	87b4 <system@plt>
--
    9c30:	eaffffd5 	b	9b8c <_start+0x12dc>
    9c34:	e59f515c 	ldr	r5, [pc, #348]	; 9d98 <_start+0x14e8>
    9c38:	e59f018c 	ldr	r0, [pc, #396]	; 9dcc <_start+0x151c>
    9c3c:	ebfffb00 	bl	8844 <nvram_get@plt>
    9c40:	e1a01000 	mov	r1, r0
    9c44:	e2850004 	add	r0, r5, #4
    9c48:	ebfffac1 	bl	8754 <strcpy@plt>
    9c4c:	e59f017c 	ldr	r0, [pc, #380]	; 9dd0 <_start+0x1520>
    9c50:	ebfffafb 	bl	8844 <nvram_get@plt>
    9c54:	e1a01000 	mov	r1, r0
    9c58:	e2850024 	add	r0, r5, #36	; 0x24
    9c5c:	ebfffabc 	bl	8754 <strcpy@plt>
    9c60:	ebfffdd3 	bl	93b4 <_start+0xb04>
    9c64:	e5953000 	ldr	r3, [r5]
    9c68:	e3530000 	cmp	r3, #0
    9c6c:	1a000041 	bne	9d78 <_start+0x14c8>
    9c70:	e59f315c 	ldr	r3, [pc, #348]	; 9dd4 <_start+0x1524>
    9c74:	e1a00004 	mov	r0, r4
    9c78:	e59f1158 	ldr	r1, [pc, #344]	; 9dd8 <_start+0x1528>
    9c7c:	e59f2120 	ldr	r2, [pc, #288]	; 9da4 <_start+0x14f4>
[31m    9c80:	ebfffafb 	bl	8874 <sprintf@plt>[0m
    9c84:	e1a00004 	mov	r0, r4
    9c88:	ebfffac9 	bl	87b4 <system@plt>
    9c8c:	e5953000 	ldr	r3, [r5]
    9c90:	e3530000 	cmp	r3, #0
    9c94:	0affffc5 	beq	9bb0 <_start+0x1300>
    9c98:	e59f013c 	ldr	r0, [pc, #316]	; 9ddc <_start+0x152c>
    9c9c:	ebfffac1 	bl	87a8 <puts@plt>
    9ca0:	e3a00001 	mov	r0, #1
    9ca4:	eaffffb2 	b	9b74 <_start+0x12c4>
    9ca8:	ebffff41 	bl	99b4 <_start+0x1104>
    9cac:	e3500000 	cmp	r0, #0
    9cb0:	1a00001f 	bne	9d34 <_start+0x1484>
    9cb4:	e59f50dc 	ldr	r5, [pc, #220]	; 9d98 <_start+0x14e8>
    9cb8:	e5953000 	ldr	r3, [r5]
    9cbc:	e3530000 	cmp	r3, #0
    9cc0:	1a000029 	bne	9d6c <_start+0x14bc>
    9cc4:	e59f10d4 	ldr	r1, [pc, #212]	; 9da0 <_start+0x14f0>
    9cc8:	e1a00004 	mov	r0, r4
    9ccc:	e59f20e4 	ldr	r2, [pc, #228]	; 9db8 <_start+0x1508>
[31m    9cd0:	ebfffae7 	bl	8874 <sprintf@plt>[0m
    9cd4:	e1a00004 	mov	r0, r4
    9cd8:	ebfffab5 	bl	87b4 <system@plt>

[0m
[[0;33m*[0m] Function [0;33msprintf[0m used [0;33m17[0m times [0;33mred[0m

