[[0;33m*[0m] Binary protection state of [0;33meapd[0m
[REF] s12

  	RELRO          CANARY            NX           PIE       RPATH        RUNPATH      SYMBOLS      
  	[31mNo RELRO[0m       [31mNo Canary found[0m   [32mNX enabled[0m   [31mNo PIE[0m       [32mNo RPATH[0m     [32mNo RUNPATH[0m   [32mNo Symbols[0m

[0m
[[0;33m*[0m] Function [0;33mstrcpy[0m tear down of [0;33meapd[0m

    90a4:	e4837004 	str	r7, [r3], #4
    90a8:	e2811d95 	add	r1, r1, #9536	; 0x2540
    90ac:	e5837000 	str	r7, [r3]
    90b0:	e58d100c 	str	r1, [sp, #12]
    90b4:	e3a02e42 	mov	r2, #1056	; 0x420
    90b8:	e59dc00c 	ldr	ip, [sp, #12]
    90bc:	e1a01007 	mov	r1, r7
    90c0:	e1a00006 	mov	r0, r6
    90c4:	e58d74ac 	str	r7, [sp, #1196]	; 0x4ac
    90c8:	e58d74b0 	str	r7, [sp, #1200]	; 0x4b0
    90cc:	e28cc004 	add	ip, ip, #4
    90d0:	e58dc00c 	str	ip, [sp, #12]
    90d4:	e59dc008 	ldr	ip, [sp, #8]
    90d8:	e28ccda5 	add	ip, ip, #10560	; 0x2940
    90dc:	e58dc01c 	str	ip, [sp, #28]
    90e0:	e28cc03c 	add	ip, ip, #60	; 0x3c
    90e4:	e58dc014 	str	ip, [sp, #20]
    90e8:	ebffff4d 	bl	8e24 <memset@plt>
    90ec:	e59d100c 	ldr	r1, [sp, #12]
    90f0:	e1a00006 	mov	r0, r6
[31m    90f4:	ebfffed8 	bl	8c5c <strcpy@plt>[0m
    90f8:	e59f15a4 	ldr	r1, [pc, #1444]	; 96a4 <_start+0x790>
    90fc:	e59d0014 	ldr	r0, [sp, #20]
--
    9884:	e28d0f47 	add	r0, sp, #284	; 0x11c
    9888:	ebfffd92 	bl	8ed8 <get_ifname_by_wlmac@plt>
    988c:	e2505000 	subs	r5, r0, #0
    9890:	01a00005 	moveq	r0, r5
    9894:	1affffdb 	bne	9808 <_start+0x8f4>
    9898:	eaffff9c 	b	9710 <_start+0x7fc>
    989c:	e3a0003c 	mov	r0, #60	; 0x3c
    98a0:	ebfffd14 	bl	8cf8 <malloc@plt>
    98a4:	e3500000 	cmp	r0, #0
    98a8:	e1a07000 	mov	r7, r0
    98ac:	01a00000 	moveq	r0, r0
    98b0:	0affff96 	beq	9710 <_start+0x7fc>
    98b4:	e3a0203c 	mov	r2, #60	; 0x3c
    98b8:	e3a01000 	mov	r1, #0
    98bc:	ebfffd58 	bl	8e24 <memset@plt>
    98c0:	e5963434 	ldr	r3, [r6, #1076]	; 0x434
    98c4:	e1a00007 	mov	r0, r7
    98c8:	e1a01005 	mov	r1, r5
    98cc:	e5873038 	str	r3, [r7, #56]	; 0x38
    98d0:	e5867434 	str	r7, [r6, #1076]	; 0x434
[31m    98d4:	ebfffce0 	bl	8c5c <strcpy@plt>[0m
    98d8:	e1a00006 	mov	r0, r6
    98dc:	e12fff38 	blx	r8
--
    a3fc:	c8bd8070 	popgt	{r4, r5, r6, pc}
    a400:	e1a06003 	mov	r6, r3
    a404:	e3a02a01 	mov	r2, #4096	; 0x1000
    a408:	e2833001 	add	r3, r3, #1
    a40c:	e7843002 	str	r3, [r4, r2]
    a410:	e2866080 	add	r6, r6, #128	; 0x80
    a414:	e1a01005 	mov	r1, r5
    a418:	e0846286 	add	r6, r4, r6, lsl #5
    a41c:	e3a02000 	mov	r2, #0
    a420:	e2865004 	add	r5, r6, #4
    a424:	e5862004 	str	r2, [r6, #4]
    a428:	e2853008 	add	r3, r5, #8
    a42c:	e5852004 	str	r2, [r5, #4]
    a430:	e1a00005 	mov	r0, r5
    a434:	e4832004 	str	r2, [r3], #4
    a438:	e4832004 	str	r2, [r3], #4
    a43c:	e4832004 	str	r2, [r3], #4
    a440:	e4832004 	str	r2, [r3], #4
    a444:	e4832004 	str	r2, [r3], #4
    a448:	e5832000 	str	r2, [r3]
[31m    a44c:	ebfffa02 	bl	8c5c <strcpy@plt>[0m
    a450:	e1a00004 	mov	r0, r4
    a454:	e1a01005 	mov	r1, r5
--
    bd9c:	e3a00011 	mov	r0, #17
    bda0:	e3a01003 	mov	r1, #3
    bda4:	e3062c88 	movw	r2, #27784	; 0x6c88
    bda8:	ebfff3d8 	bl	8d10 <socket@plt>
    bdac:	e3500000 	cmp	r0, #0
    bdb0:	e1a06000 	mov	r6, r0
    bdb4:	e5840010 	str	r0, [r4, #16]
    bdb8:	bafffff4 	blt	bd90 <_start+0x2e7c>
    bdbc:	e28d7004 	add	r7, sp, #4
    bdc0:	e1a01004 	mov	r1, r4
    bdc4:	e2873008 	add	r3, r7, #8
    bdc8:	e1a00007 	mov	r0, r7
    bdcc:	e4835004 	str	r5, [r3], #4
    bdd0:	e4835004 	str	r5, [r3], #4
    bdd4:	e4835004 	str	r5, [r3], #4
    bdd8:	e4835004 	str	r5, [r3], #4
    bddc:	e4835004 	str	r5, [r3], #4
    bde0:	e5835000 	str	r5, [r3]
    bde4:	e58d5004 	str	r5, [sp, #4]
    bde8:	e58d5008 	str	r5, [sp, #8]
[31m    bdec:	ebfff39a 	bl	8c5c <strcpy@plt>[0m
    bdf0:	e1a00006 	mov	r0, r6
    bdf4:	e3081933 	movw	r1, #35123	; 0x8933
--
    bea8:	e3a00011 	mov	r0, #17
    beac:	e3a01003 	mov	r1, #3
    beb0:	e30c2788 	movw	r2, #51080	; 0xc788
    beb4:	ebfff395 	bl	8d10 <socket@plt>
    beb8:	e3500000 	cmp	r0, #0
    bebc:	e1a06000 	mov	r6, r0
    bec0:	e5840010 	str	r0, [r4, #16]
    bec4:	bafffff4 	blt	be9c <_start+0x2f88>
    bec8:	e28d7004 	add	r7, sp, #4
    becc:	e1a01004 	mov	r1, r4
    bed0:	e2873008 	add	r3, r7, #8
    bed4:	e1a00007 	mov	r0, r7
    bed8:	e4835004 	str	r5, [r3], #4
    bedc:	e4835004 	str	r5, [r3], #4
    bee0:	e4835004 	str	r5, [r3], #4
    bee4:	e4835004 	str	r5, [r3], #4
    bee8:	e4835004 	str	r5, [r3], #4
    beec:	e5835000 	str	r5, [r3]
    bef0:	e58d5004 	str	r5, [sp, #4]
    bef4:	e58d5008 	str	r5, [sp, #8]
[31m    bef8:	ebfff357 	bl	8c5c <strcpy@plt>[0m
    befc:	e1a00006 	mov	r0, r6
    bf00:	e3081933 	movw	r1, #35123	; 0x8933
--
    c268:	e3500000 	cmp	r0, #0
    c26c:	e1a03000 	mov	r3, r0
    c270:	e5840014 	str	r0, [r4, #20]
    c274:	03e00000 	mvneq	r0, #0
    c278:	08bd80f8 	popeq	{r3, r4, r5, r6, r7, pc}
    c27c:	e593201c 	ldr	r2, [r3, #28]
    c280:	e3a05000 	mov	r5, #0
    c284:	e2846018 	add	r6, r4, #24
    c288:	e1a01004 	mov	r1, r4
    c28c:	e1a00006 	mov	r0, r6
    c290:	e3822002 	orr	r2, r2, #2
    c294:	e583201c 	str	r2, [r3, #28]
    c298:	e5845018 	str	r5, [r4, #24]
    c29c:	e584501c 	str	r5, [r4, #28]
    c2a0:	e5845020 	str	r5, [r4, #32]
    c2a4:	e5845024 	str	r5, [r4, #36]	; 0x24
    c2a8:	e5845028 	str	r5, [r4, #40]	; 0x28
    c2ac:	e584502c 	str	r5, [r4, #44]	; 0x2c
    c2b0:	e5845030 	str	r5, [r4, #48]	; 0x30
    c2b4:	e5845034 	str	r5, [r4, #52]	; 0x34
[31m    c2b8:	ebfff267 	bl	8c5c <strcpy@plt>[0m
    c2bc:	e1a00007 	mov	r0, r7
    c2c0:	e1a01006 	mov	r1, r6
--
    c32c:	e3023db0 	movw	r3, #11696	; 0x2db0
    c330:	e3e08000 	mvn	r8, #0
    c334:	e7954003 	ldr	r4, [r5, r3]
    c338:	e3023d9c 	movw	r3, #11676	; 0x2d9c
    c33c:	e7858003 	str	r8, [r5, r3]
    c340:	e3540000 	cmp	r4, #0
    c344:	0a000040 	beq	c44c <_start+0x3538>
    c348:	e3a06000 	mov	r6, #0
    c34c:	ea000013 	b	c3a0 <_start+0x348c>
    c350:	e593201c 	ldr	r2, [r3, #28]
    c354:	e3822002 	orr	r2, r2, #2
    c358:	e583201c 	str	r2, [r3, #28]
    c35c:	e5846018 	str	r6, [r4, #24]
    c360:	e584601c 	str	r6, [r4, #28]
    c364:	e5846020 	str	r6, [r4, #32]
    c368:	e5846024 	str	r6, [r4, #36]	; 0x24
    c36c:	e5846028 	str	r6, [r4, #40]	; 0x28
    c370:	e584602c 	str	r6, [r4, #44]	; 0x2c
    c374:	e5846030 	str	r6, [r4, #48]	; 0x30
    c378:	e5846034 	str	r6, [r4, #52]	; 0x34
[31m    c37c:	ebfff236 	bl	8c5c <strcpy@plt>[0m
    c380:	e1a00005 	mov	r0, r5
    c384:	e1a01007 	mov	r1, r7
--
    c5f0:	ebfff220 	bl	8e78 <wl_ioctl@plt>
    c5f4:	e2507000 	subs	r7, r0, #0
    c5f8:	1affffef 	bne	c5bc <_start+0x36a8>
    c5fc:	e28d6f69 	add	r6, sp, #420	; 0x1a4
    c600:	e1a00004 	mov	r0, r4
    c604:	e1a01006 	mov	r1, r6
    c608:	e3a02008 	mov	r2, #8
    c60c:	ebfff22e 	bl	8ecc <osifname_to_nvifname@plt>
    c610:	e2505000 	subs	r5, r0, #0
    c614:	1affffef 	bne	c5d8 <_start+0x36c4>
    c618:	e1a00006 	mov	r0, r6
    c61c:	e28d4f59 	add	r4, sp, #356	; 0x164
    c620:	ebfff226 	bl	8ec0 <strlen@plt>
    c624:	e3a02002 	mov	r2, #2
    c628:	e59f1354 	ldr	r1, [pc, #852]	; c984 <_start+0x3a70>
    c62c:	e0860000 	add	r0, r6, r0
    c630:	e28d7084 	add	r7, sp, #132	; 0x84
    c634:	ebfff1a6 	bl	8cd4 <memcpy@plt>
    c638:	e1a01006 	mov	r1, r6
    c63c:	e1a00004 	mov	r0, r4
[31m    c640:	ebfff185 	bl	8c5c <strcpy@plt>[0m
    c644:	e1a00004 	mov	r0, r4
    c648:	ebfff21c 	bl	8ec0 <strlen@plt>
    c64c:	e59f1334 	ldr	r1, [pc, #820]	; c988 <_start+0x3a74>
    c650:	e3a02006 	mov	r2, #6
    c654:	e0840000 	add	r0, r4, r0
    c658:	ebfff19d 	bl	8cd4 <memcpy@plt>
    c65c:	e3a01080 	mov	r1, #128	; 0x80
    c660:	e1a02004 	mov	r2, r4
    c664:	e1a00007 	mov	r0, r7
    c668:	ebfffe47 	bl	bf8c <_start+0x3078>
    c66c:	e1a00007 	mov	r0, r7
    c670:	ebfff209 	bl	8e9c <atoi@plt>
    c674:	e3500000 	cmp	r0, #0
    c678:	0affffd0 	beq	c5c0 <_start+0x36ac>
    c67c:	e1a01006 	mov	r1, r6
    c680:	e1a00004 	mov	r0, r4
[31m    c684:	ebfff174 	bl	8c5c <strcpy@plt>[0m
    c688:	e1a00004 	mov	r0, r4
    c68c:	ebfff20b 	bl	8ec0 <strlen@plt>
    c690:	e59f12f4 	ldr	r1, [pc, #756]	; c98c <_start+0x3a78>
    c694:	e3a02005 	mov	r2, #5
    c698:	e0840000 	add	r0, r4, r0
    c69c:	ebfff18c 	bl	8cd4 <memcpy@plt>
    c6a0:	e3a01080 	mov	r1, #128	; 0x80
    c6a4:	e1a02004 	mov	r2, r4
    c6a8:	e1a00007 	mov	r0, r7
    c6ac:	ebfffe36 	bl	bf8c <_start+0x3078>
    c6b0:	e1a00007 	mov	r0, r7
    c6b4:	ebfff1f8 	bl	8e9c <atoi@plt>
    c6b8:	e3500001 	cmp	r0, #1
    c6bc:	0affffbe 	beq	c5bc <_start+0x36a8>
    c6c0:	e1a01006 	mov	r1, r6
    c6c4:	e1a00004 	mov	r0, r4
[31m    c6c8:	ebfff163 	bl	8c5c <strcpy@plt>[0m
    c6cc:	e1a00004 	mov	r0, r4
    c6d0:	ebfff1fa 	bl	8ec0 <strlen@plt>
    c6d4:	e59f12b4 	ldr	r1, [pc, #692]	; c990 <_start+0x3a7c>
    c6d8:	e3a0200c 	mov	r2, #12
    c6dc:	e0840000 	add	r0, r4, r0
    c6e0:	ebfff17b 	bl	8cd4 <memcpy@plt>
    c6e4:	e3a01080 	mov	r1, #128	; 0x80
    c6e8:	e1a02004 	mov	r2, r4
    c6ec:	e1a00007 	mov	r0, r7
    c6f0:	ebfffe25 	bl	bf8c <_start+0x3078>
    c6f4:	e1a00007 	mov	r0, r7
    c6f8:	ebfff1e7 	bl	8e9c <atoi@plt>
    c6fc:	e3500000 	cmp	r0, #0
    c700:	0affffae 	beq	c5c0 <_start+0x36ac>
    c704:	e1a01006 	mov	r1, r6
    c708:	e1a00004 	mov	r0, r4
[31m    c70c:	ebfff152 	bl	8c5c <strcpy@plt>[0m
    c710:	e1a00004 	mov	r0, r4
    c714:	e28d8f51 	add	r8, sp, #324	; 0x144
    c718:	ebfff1e8 	bl	8ec0 <strlen@plt>
    c71c:	e59f1270 	ldr	r1, [pc, #624]	; c994 <_start+0x3a80>
    c720:	e3a0200a 	mov	r2, #10
    c724:	e0840000 	add	r0, r4, r0
    c728:	e28da004 	add	sl, sp, #4
    c72c:	ebfff168 	bl	8cd4 <memcpy@plt>
    c730:	e1a02004 	mov	r2, r4
    c734:	e1a00008 	mov	r0, r8
    c738:	e3a01020 	mov	r1, #32
    c73c:	e28d7f65 	add	r7, sp, #404	; 0x194
    c740:	ebfffe11 	bl	bf8c <_start+0x3078>
    c744:	e1a00008 	mov	r0, r8
    c748:	e59f1248 	ldr	r1, [pc, #584]	; c998 <_start+0x3a84>
    c74c:	ebfff1ba 	bl	8e3c <strcmp@plt>
    c750:	e1a01006 	mov	r1, r6
    c754:	e3500000 	cmp	r0, #0
    c758:	e1a00004 	mov	r0, r4
    c75c:	03a08020 	moveq	r8, #32
    c760:	13a08000 	movne	r8, #0
[31m    c764:	ebfff13c 	bl	8c5c <strcpy@plt>[0m
    c768:	e1a00004 	mov	r0, r4
    c76c:	ebfff1d3 	bl	8ec0 <strlen@plt>
--
    c864:	ebfff156 	bl	8dc4 <strncpy@plt>
    c868:	e59f1130 	ldr	r1, [pc, #304]	; c9a0 <_start+0x3a8c>
    c86c:	e1a00007 	mov	r0, r7
    c870:	ebfff17d 	bl	8e6c <strcspn@plt>
    c874:	e28d2e1b 	add	r2, sp, #432	; 0x1b0
    c878:	e3a01020 	mov	r1, #32
    c87c:	e0823000 	add	r3, r2, r0
    c880:	e1a00005 	mov	r0, r5
    c884:	e543a01c 	strb	sl, [r3, #-28]	; 0xffffffe4
    c888:	e5cda1a3 	strb	sl, [sp, #419]	; 0x1a3
    c88c:	ebfff194 	bl	8ee4 <strchr@plt>
    c890:	e5dd3194 	ldrb	r3, [sp, #404]	; 0x194
    c894:	e1a09000 	mov	r9, r0
    c898:	e3530000 	cmp	r3, #0
    c89c:	1affffd2 	bne	c7ec <_start+0x38d8>
    c8a0:	e3580000 	cmp	r8, #0
    c8a4:	01a00008 	moveq	r0, r8
    c8a8:	0affff44 	beq	c5c0 <_start+0x36ac>
    c8ac:	e1a01006 	mov	r1, r6
    c8b0:	e1a00004 	mov	r0, r4
[31m    c8b4:	ebfff0e8 	bl	8c5c <strcpy@plt>[0m
    c8b8:	e1a00004 	mov	r0, r4
    c8bc:	e28d5f49 	add	r5, sp, #292	; 0x124
    c8c0:	ebfff17e 	bl	8ec0 <strlen@plt>
    c8c4:	e59f10ec 	ldr	r1, [pc, #236]	; c9b8 <_start+0x3aa4>
    c8c8:	e3a02004 	mov	r2, #4
    c8cc:	e0840000 	add	r0, r4, r0
    c8d0:	ebfff0ff 	bl	8cd4 <memcpy@plt>
    c8d4:	e3a01020 	mov	r1, #32
    c8d8:	e1a02004 	mov	r2, r4
    c8dc:	e1a00005 	mov	r0, r5
    c8e0:	ebfffda9 	bl	bf8c <_start+0x3078>
    c8e4:	e1a00005 	mov	r0, r5
    c8e8:	e59f10cc 	ldr	r1, [pc, #204]	; c9bc <_start+0x3aa8>
    c8ec:	ebfff152 	bl	8e3c <strcmp@plt>
    c8f0:	e31800c6 	tst	r8, #198	; 0xc6
    c8f4:	e1a07000 	mov	r7, r0
    c8f8:	1a000002 	bne	c908 <_start+0x39f4>
    c8fc:	e2770001 	rsbs	r0, r7, #1
    c900:	33a00000 	movcc	r0, #0
    c904:	eaffff2d 	b	c5c0 <_start+0x36ac>
    c908:	e1a01006 	mov	r1, r6
    c90c:	e1a00004 	mov	r0, r4
[31m    c910:	ebfff0d1 	bl	8c5c <strcpy@plt>[0m
    c914:	e1a00004 	mov	r0, r4
    c918:	e28d5f41 	add	r5, sp, #260	; 0x104
--
    d1e0:	11a00005 	movne	r0, r5
    d1e4:	1afffff5 	bne	d1c0 <_start+0x42ac>
    d1e8:	e28d60b4 	add	r6, sp, #180	; 0xb4
    d1ec:	e1a00004 	mov	r0, r4
    d1f0:	e1a01006 	mov	r1, r6
    d1f4:	e3a02008 	mov	r2, #8
    d1f8:	ebffef33 	bl	8ecc <osifname_to_nvifname@plt>
    d1fc:	e2508000 	subs	r8, r0, #0
    d200:	11a00007 	movne	r0, r7
    d204:	1affffed 	bne	d1c0 <_start+0x42ac>
    d208:	e1a00006 	mov	r0, r6
    d20c:	e28d4084 	add	r4, sp, #132	; 0x84
    d210:	ebffef2a 	bl	8ec0 <strlen@plt>
    d214:	e3a02002 	mov	r2, #2
    d218:	e59f10b8 	ldr	r1, [pc, #184]	; d2d8 <_start+0x43c4>
    d21c:	e0860000 	add	r0, r6, r0
    d220:	e28d5004 	add	r5, sp, #4
    d224:	ebffeeaa 	bl	8cd4 <memcpy@plt>
    d228:	e1a01006 	mov	r1, r6
    d22c:	e1a00004 	mov	r0, r4
[31m    d230:	ebffee89 	bl	8c5c <strcpy@plt>[0m
    d234:	e1a00004 	mov	r0, r4
    d238:	ebffef20 	bl	8ec0 <strlen@plt>
    d23c:	e59f1098 	ldr	r1, [pc, #152]	; d2dc <_start+0x43c8>
    d240:	e3a0200c 	mov	r2, #12
    d244:	e0840000 	add	r0, r4, r0
    d248:	ebffeea1 	bl	8cd4 <memcpy@plt>
    d24c:	e3a01080 	mov	r1, #128	; 0x80
    d250:	e1a02004 	mov	r2, r4
    d254:	e1a00005 	mov	r0, r5
    d258:	ebfffb4b 	bl	bf8c <_start+0x3078>
    d25c:	e1a00005 	mov	r0, r5
    d260:	e59f1078 	ldr	r1, [pc, #120]	; d2e0 <_start+0x43cc>
    d264:	ebffeef4 	bl	8e3c <strcmp@plt>
    d268:	e3500000 	cmp	r0, #0
    d26c:	11a00008 	movne	r0, r8
    d270:	1affffd2 	bne	d1c0 <_start+0x42ac>
    d274:	e1a01006 	mov	r1, r6
    d278:	e1a00004 	mov	r0, r4
[31m    d27c:	ebffee76 	bl	8c5c <strcpy@plt>[0m
    d280:	e1a00004 	mov	r0, r4
    d284:	ebffef0d 	bl	8ec0 <strlen@plt>
--
    db0c:	ebffecd9 	bl	8e78 <wl_ioctl@plt>
    db10:	e2507000 	subs	r7, r0, #0
    db14:	1affffef 	bne	dad8 <_start+0x4bc4>
    db18:	e28d60b4 	add	r6, sp, #180	; 0xb4
    db1c:	e1a00004 	mov	r0, r4
    db20:	e1a01006 	mov	r1, r6
    db24:	e3a02008 	mov	r2, #8
    db28:	ebffece7 	bl	8ecc <osifname_to_nvifname@plt>
    db2c:	e3500000 	cmp	r0, #0
    db30:	1affffef 	bne	daf4 <_start+0x4be0>
    db34:	e1a00006 	mov	r0, r6
    db38:	e28d4084 	add	r4, sp, #132	; 0x84
    db3c:	ebffecdf 	bl	8ec0 <strlen@plt>
    db40:	e3a02002 	mov	r2, #2
    db44:	e59f1094 	ldr	r1, [pc, #148]	; dbe0 <_start+0x4ccc>
    db48:	e0860000 	add	r0, r6, r0
    db4c:	e28d7004 	add	r7, sp, #4
    db50:	ebffec5f 	bl	8cd4 <memcpy@plt>
    db54:	e1a01006 	mov	r1, r6
    db58:	e1a00004 	mov	r0, r4
[31m    db5c:	ebffec3e 	bl	8c5c <strcpy@plt>[0m
    db60:	e1a00004 	mov	r0, r4
    db64:	ebffecd5 	bl	8ec0 <strlen@plt>
    db68:	e59f1074 	ldr	r1, [pc, #116]	; dbe4 <_start+0x4cd0>
    db6c:	e3a02006 	mov	r2, #6
    db70:	e0840000 	add	r0, r4, r0
    db74:	ebffec56 	bl	8cd4 <memcpy@plt>
    db78:	e3a01080 	mov	r1, #128	; 0x80
    db7c:	e1a02004 	mov	r2, r4
    db80:	e1a00007 	mov	r0, r7
    db84:	ebfff900 	bl	bf8c <_start+0x3078>
    db88:	e1a00007 	mov	r0, r7
    db8c:	ebffecc2 	bl	8e9c <atoi@plt>
    db90:	e3500000 	cmp	r0, #0
    db94:	0affffd0 	beq	dadc <_start+0x4bc8>
    db98:	e1a01006 	mov	r1, r6
    db9c:	e1a00004 	mov	r0, r4
[31m    dba0:	ebffec2d 	bl	8c5c <strcpy@plt>[0m
    dba4:	e1a00004 	mov	r0, r4
    dba8:	ebffecc4 	bl	8ec0 <strlen@plt>

[0m
[[0;33m*[0m] Function [0;33mstrcpy[0m used [0;33m18[0m times [0;33meapd[0m

