[[0;33m*[0m] Binary protection state of [0;33mlibipt_SAME.so[0m
[REF] s12

  	RELRO          CANARY            NX           PIE       RPATH        RUNPATH      SYMBOLS      
  	[31mNo RELRO[0m       [31mNo Canary found[0m   [32mNX enabled[0m   [33mDSO[0m          [32mNo RPATH[0m     [32mNo RUNPATH[0m   [31mSymbols
	[31mNo RELRO[0m       [31mNo Canary found[0m   [32mNX enabled[0m   [33mDSO[0m          [32mNo RPATH[0m     [32mNo RUNPATH[0m   [32mNo Symbols[0m

[0m
[[0;33m*[0m] Function [0;33mprintf[0m tear down of [0;33mlibipt_SAME.so[0m

 8fc:	e59f90c8 	ldr	r9, [pc, #200]	; 9cc <free@plt+0x3d0>
 900:	e3560000 	cmp	r6, #0
 904:	e58d1004 	str	r1, [sp, #4]
 908:	e08f9009 	add	r9, pc, r9
 90c:	0a00001f 	beq	990 <free@plt+0x394>
 910:	e59fa0b8 	ldr	sl, [pc, #184]	; 9d0 <free@plt+0x3d4>
 914:	e3a06000 	mov	r6, #0
 918:	e59fb0b4 	ldr	fp, [pc, #180]	; 9d4 <free@plt+0x3d8>
 91c:	e1a04008 	mov	r4, r8
 920:	e1a05006 	mov	r5, r6
 924:	e28d700c 	add	r7, sp, #12
 928:	e089a00a 	add	sl, r9, sl
 92c:	e089b00b 	add	fp, r9, fp
 930:	e5943014 	ldr	r3, [r4, #20]
 934:	e1a00007 	mov	r0, r7
 938:	e2855001 	add	r5, r5, #1
 93c:	e58d300c 	str	r3, [sp, #12]
 940:	ebffff18 	bl	5a8 <xtables_ipaddr_to_numeric@plt>
 944:	e1a01000 	mov	r1, r0
 948:	e1a0000a 	mov	r0, sl
[31m 94c:	ebffff09 	bl	578 <printf@plt>[0m
 950:	e5943018 	ldr	r3, [r4, #24]
 954:	e1a00007 	mov	r0, r7
 958:	e58d300c 	str	r3, [sp, #12]
 95c:	e5942014 	ldr	r2, [r4, #20]
 960:	e1530002 	cmp	r3, r2
 964:	0a000003 	beq	978 <free@plt+0x37c>
 968:	ebffff0e 	bl	5a8 <xtables_ipaddr_to_numeric@plt>
 96c:	e1a01000 	mov	r1, r0
 970:	e1a0000b 	mov	r0, fp
[31m 974:	ebfffeff 	bl	578 <printf@plt>[0m
 978:	e5b42010 	ldr	r2, [r4, #16]!
 97c:	e5983004 	ldr	r3, [r8, #4]
 980:	e3120004 	tst	r2, #4
 984:	13a06001 	movne	r6, #1
 988:	e1530005 	cmp	r3, r5
 98c:	8affffe7 	bhi	930 <free@plt+0x334>
 990:	e59d2004 	ldr	r2, [sp, #4]
 994:	e5d23020 	ldrb	r3, [r2, #32]
 998:	e3130001 	tst	r3, #1
 99c:	1a000006 	bne	9bc <free@plt+0x3c0>
 9a0:	e3560000 	cmp	r6, #0
 9a4:	0a000002 	beq	9b4 <free@plt+0x3b8>
 9a8:	e59f0028 	ldr	r0, [pc, #40]	; 9d8 <free@plt+0x3dc>
 9ac:	e0890000 	add	r0, r9, r0
[31m 9b0:	ebfffef0 	bl	578 <printf@plt>[0m
 9b4:	e28dd014 	add	sp, sp, #20
 9b8:	e8bd8ff0 	pop	{r4, r5, r6, r7, r8, r9, sl, fp, pc}
 9bc:	e59f0018 	ldr	r0, [pc, #24]	; 9dc <free@plt+0x3e0>
 9c0:	e0890000 	add	r0, r9, r0
[31m 9c4:	ebfffeeb 	bl	578 <printf@plt>[0m
 9c8:	eafffff4 	b	9a0 <free@plt+0x3a4>
 9cc:	00008570 	andeq	r8, r0, r0, ror r5
 9d0:	ffff7d18 			; <UNDEFINED> instruction: 0xffff7d18
 9d4:	ffff7d24 			; <UNDEFINED> instruction: 0xffff7d24
 9d8:	ffff7d34 			; <UNDEFINED> instruction: 0xffff7d34
 9dc:	ffff7d28 			; <UNDEFINED> instruction: 0xffff7d28
 9e0:	e92d4ff0 	push	{r4, r5, r6, r7, r8, r9, sl, fp, lr}
 9e4:	e2818020 	add	r8, r1, #32
 9e8:	e59f90dc 	ldr	r9, [pc, #220]	; acc <free@plt+0x4d0>
 9ec:	e24dd014 	sub	sp, sp, #20
 9f0:	e59f00d8 	ldr	r0, [pc, #216]	; ad0 <free@plt+0x4d4>
 9f4:	e08f9009 	add	r9, pc, r9
 9f8:	e58d1004 	str	r1, [sp, #4]
 9fc:	e0890000 	add	r0, r9, r0
[31m a00:	ebfffedc 	bl	578 <printf@plt>[0m
 a04:	e5986004 	ldr	r6, [r8, #4]
 a08:	e3560000 	cmp	r6, #0
 a0c:	0a00001f 	beq	a90 <free@plt+0x494>
 a10:	e59fa0bc 	ldr	sl, [pc, #188]	; ad4 <free@plt+0x4d8>
 a14:	e3a06000 	mov	r6, #0
 a18:	e59fb0b8 	ldr	fp, [pc, #184]	; ad8 <free@plt+0x4dc>
 a1c:	e1a04008 	mov	r4, r8
 a20:	e1a05006 	mov	r5, r6
 a24:	e28d700c 	add	r7, sp, #12
 a28:	e089a00a 	add	sl, r9, sl
 a2c:	e089b00b 	add	fp, r9, fp
 a30:	e5943014 	ldr	r3, [r4, #20]
 a34:	e1a00007 	mov	r0, r7
 a38:	e2855001 	add	r5, r5, #1
 a3c:	e58d300c 	str	r3, [sp, #12]
 a40:	ebfffed8 	bl	5a8 <xtables_ipaddr_to_numeric@plt>
 a44:	e1a01000 	mov	r1, r0
 a48:	e1a0000a 	mov	r0, sl
[31m a4c:	ebfffec9 	bl	578 <printf@plt>[0m
 a50:	e5943018 	ldr	r3, [r4, #24]
 a54:	e1a00007 	mov	r0, r7
 a58:	e58d300c 	str	r3, [sp, #12]
 a5c:	e5942014 	ldr	r2, [r4, #20]
 a60:	e1530002 	cmp	r3, r2
 a64:	0a000003 	beq	a78 <free@plt+0x47c>
 a68:	ebfffece 	bl	5a8 <xtables_ipaddr_to_numeric@plt>
 a6c:	e1a01000 	mov	r1, r0
 a70:	e1a0000b 	mov	r0, fp
[31m a74:	ebfffebf 	bl	578 <printf@plt>[0m
 a78:	e5b42010 	ldr	r2, [r4, #16]!
 a7c:	e5983004 	ldr	r3, [r8, #4]
 a80:	e3120004 	tst	r2, #4
 a84:	13a06001 	movne	r6, #1
 a88:	e1530005 	cmp	r3, r5
 a8c:	8affffe7 	bhi	a30 <free@plt+0x434>
 a90:	e59d2004 	ldr	r2, [sp, #4]
 a94:	e5d23020 	ldrb	r3, [r2, #32]
 a98:	e3130001 	tst	r3, #1
 a9c:	1a000006 	bne	abc <free@plt+0x4c0>
 aa0:	e3560000 	cmp	r6, #0
 aa4:	0a000002 	beq	ab4 <free@plt+0x4b8>
 aa8:	e59f002c 	ldr	r0, [pc, #44]	; adc <free@plt+0x4e0>
 aac:	e0890000 	add	r0, r9, r0
[31m ab0:	ebfffeb0 	bl	578 <printf@plt>[0m
 ab4:	e28dd014 	add	sp, sp, #20
 ab8:	e8bd8ff0 	pop	{r4, r5, r6, r7, r8, r9, sl, fp, pc}
 abc:	e59f001c 	ldr	r0, [pc, #28]	; ae0 <free@plt+0x4e4>
 ac0:	e0890000 	add	r0, r9, r0
[31m ac4:	ebfffeab 	bl	578 <printf@plt>[0m
 ac8:	eafffff4 	b	aa0 <free@plt+0x4a4>
 acc:	00008484 	andeq	r8, r0, r4, lsl #9

[0m
[[0;33m*[0m] Function [0;33mprintf[0m used [0;33m9[0m times [0;33mlibipt_SAME.so[0m

