[[0;33m*[0m] Binary protection state of [0;33met.ko[0m
[REF] s12

  	RELRO          CANARY            NX           PIE       RPATH        RUNPATH      SYMBOLS      
  	[31mNo RELRO[0m       [31mNo Canary found[0m   [31mNX disabled[0m  [33mREL[0m          [32mNo RPATH[0m     [32mNo RUNPATH[0m   [31mSymbols[0m

[0m
[[0;33m*[0m] Function [0;33msprintf[0m tear down of [0;33met.ko[0m

     42c:	e2800080 	add	r0, r0, #128	; 0x80
     430:	ebfffffe 	bl	0 <memcpy>
     434:	e1a00005 	mov	r0, r5
     438:	e8bd8038 	pop	{r3, r4, r5, pc}
     43c:	e3e0000f 	mvn	r0, #15
     440:	e8bd8038 	pop	{r3, r4, r5, pc}

00000444 <et_get_driver_info>:
     444:	e92d4038 	push	{r3, r4, r5, lr}
     448:	e1a04001 	mov	r4, r1
     44c:	e1a05000 	mov	r5, r0
     450:	e1a00001 	mov	r0, r1
     454:	e3a010c4 	mov	r1, #196	; 0xc4
     458:	ebfffffe 	bl	0 <__memzero>
     45c:	e1a00004 	mov	r0, r4
     460:	e3a03003 	mov	r3, #3
     464:	e4803004 	str	r3, [r0], #4
     468:	e5953380 	ldr	r3, [r5, #896]	; 0x380
     46c:	e59f1020 	ldr	r1, [pc, #32]	; 494 <et_get_driver_info+0x50>
     470:	e5932004 	ldr	r2, [r3, #4]
[31m     474:	ebfffffe 	bl	0 <sprintf>[0m
     478:	e2840024 	add	r0, r4, #36	; 0x24
     47c:	e59f1014 	ldr	r1, [pc, #20]	; 498 <et_get_driver_info+0x54>
--
    3588:	e5850058 	str	r0, [r5, #88]	; 0x58
    358c:	e5940100 	ldr	r0, [r4, #256]	; 0x100
    3590:	ebfffffe 	bl	0 <si_corerev>
    3594:	e585005c 	str	r0, [r5, #92]	; 0x5c
    3598:	e5943100 	ldr	r3, [r4, #256]	; 0x100
    359c:	e5933004 	ldr	r3, [r3, #4]
    35a0:	e2533000 	subs	r3, r3, #0
    35a4:	13a03001 	movne	r3, #1
    35a8:	e5c53060 	strb	r3, [r5, #96]	; 0x60
    35ac:	e5940100 	ldr	r0, [r4, #256]	; 0x100
    35b0:	ebfffffe 	bl	0 <si_coreunit>
    35b4:	e59f1274 	ldr	r1, [pc, #628]	; 3830 <chipattach+0x364>
    35b8:	e5850074 	str	r0, [r5, #116]	; 0x74
    35bc:	e5940104 	ldr	r0, [r4, #260]	; 0x104
    35c0:	ebfffffe 	bl	0 <getintvar>
    35c4:	e59f1268 	ldr	r1, [pc, #616]	; 3834 <chipattach+0x368>
    35c8:	e1a06000 	mov	r6, r0
    35cc:	e5850158 	str	r0, [r5, #344]	; 0x158
    35d0:	e1a00008 	mov	r0, r8
    35d4:	e5952074 	ldr	r2, [r5, #116]	; 0x74
[31m    35d8:	ebfffffe 	bl	0 <sprintf>[0m
    35dc:	e5940104 	ldr	r0, [r4, #260]	; 0x104
    35e0:	e1a01008 	mov	r1, r8
--
    35f8:	ebfffffe 	bl	0 <bcm_ether_atoe>
    35fc:	e5d53086 	ldrb	r3, [r5, #134]	; 0x86
    3600:	e5d52087 	ldrb	r2, [r5, #135]	; 0x87
    3604:	e1822003 	orr	r2, r2, r3
    3608:	e5d53088 	ldrb	r3, [r5, #136]	; 0x88
    360c:	e1822003 	orr	r2, r2, r3
    3610:	e5d53089 	ldrb	r3, [r5, #137]	; 0x89
    3614:	e1822003 	orr	r2, r2, r3
    3618:	e5d5308a 	ldrb	r3, [r5, #138]	; 0x8a
    361c:	e1822003 	orr	r2, r2, r3
    3620:	e5d5308b 	ldrb	r3, [r5, #139]	; 0x8b
    3624:	e1923003 	orrs	r3, r2, r3
    3628:	0a00007a 	beq	3818 <chipattach+0x34c>
    362c:	e1a01009 	mov	r1, r9
    3630:	e3a02006 	mov	r2, #6
    3634:	e2850080 	add	r0, r5, #128	; 0x80
    3638:	ebfffffe 	bl	0 <memcpy>
    363c:	e59f11f4 	ldr	r1, [pc, #500]	; 3838 <chipattach+0x36c>
    3640:	e1a00008 	mov	r0, r8
    3644:	e5952074 	ldr	r2, [r5, #116]	; 0x74
[31m    3648:	ebfffffe 	bl	0 <sprintf>[0m
    364c:	e5940104 	ldr	r0, [r4, #260]	; 0x104
    3650:	e1a01008 	mov	r1, r8
    3654:	ebfffffe 	bl	0 <getvar>
    3658:	e3500000 	cmp	r0, #0
    365c:	0a00006d 	beq	3818 <chipattach+0x34c>
    3660:	ebfffffe 	bl	0 <bcm_atoi>
    3664:	e200001f 	and	r0, r0, #31
    3668:	e350001f 	cmp	r0, #31
    366c:	e5850078 	str	r0, [r5, #120]	; 0x78
    3670:	0a000068 	beq	3818 <chipattach+0x34c>
    3674:	e59f11c0 	ldr	r1, [pc, #448]	; 383c <chipattach+0x370>
    3678:	e1a00008 	mov	r0, r8
    367c:	e5952074 	ldr	r2, [r5, #116]	; 0x74
[31m    3680:	ebfffffe 	bl	0 <sprintf>[0m
    3684:	e5940104 	ldr	r0, [r4, #260]	; 0x104
    3688:	e1a01008 	mov	r1, r8
    368c:	ebfffffe 	bl	0 <getvar>
    3690:	e3500000 	cmp	r0, #0
    3694:	0a00005f 	beq	3818 <chipattach+0x34c>
    3698:	ebfffffe 	bl	0 <bcm_atoi>
    369c:	e585007c 	str	r0, [r5, #124]	; 0x7c
    36a0:	e5949100 	ldr	r9, [r4, #256]	; 0x100
    36a4:	e1a00009 	mov	r0, r9
    36a8:	ebfffffe 	bl	0 <si_coreidx>
    36ac:	e3a01001 	mov	r1, #1
    36b0:	e1a01011 	lsl	r1, r1, r0
    36b4:	e1a00009 	mov	r0, r9
    36b8:	ebfffffe 	bl	0 <si_pci_setup>
    36bc:	e1a00004 	mov	r0, r4
    36c0:	ebfffe39 	bl	2fac <chipreset>
    36c4:	e59f1174 	ldr	r1, [pc, #372]	; 3840 <chipattach+0x374>
    36c8:	e1a00008 	mov	r0, r8
    36cc:	e5952074 	ldr	r2, [r5, #116]	; 0x74
[31m    36d0:	ebfffffe 	bl	0 <sprintf>[0m
    36d4:	e28a3e21 	add	r3, sl, #528	; 0x210
    36d8:	e1a00007 	mov	r0, r7
--
    3b7c:	e5840008 	str	r0, [r4, #8]
    3b80:	e5940000 	ldr	r0, [r4]
    3b84:	ebfffffe 	bl	0 <si_gpiosetcore>
    3b88:	e1a00004 	mov	r0, r4
    3b8c:	e3a01011 	mov	r1, #17
    3b90:	e30f2f30 	movw	r2, #65328	; 0xff30
    3b94:	ebffff42 	bl	38a4 <adm_wreg>
    3b98:	e6ff3075 	uxth	r3, r5
    3b9c:	e59f11c4 	ldr	r1, [pc, #452]	; 3d68 <adm_config_vlan+0x240>
    3ba0:	e3a02005 	mov	r2, #5
    3ba4:	e1a00007 	mov	r0, r7
    3ba8:	e58d3004 	str	r3, [sp, #4]
    3bac:	ebfffffe 	bl	0 <memcpy>
    3bb0:	e59f11b4 	ldr	r1, [pc, #436]	; 3d6c <adm_config_vlan+0x244>
    3bb4:	e3a0200e 	mov	r2, #14
    3bb8:	e1a00009 	mov	r0, r9
    3bbc:	ebfffffe 	bl	0 <memcpy>
    3bc0:	e59f11a8 	ldr	r1, [pc, #424]	; 3d70 <adm_config_vlan+0x248>
    3bc4:	e1a02005 	mov	r2, r5
    3bc8:	e1a00009 	mov	r0, r9
[31m    3bcc:	ebfffffe 	bl	0 <sprintf>[0m
    3bd0:	e5940004 	ldr	r0, [r4, #4]
    3bd4:	e1a01009 	mov	r1, r9
--
    569c:	e2533000 	subs	r3, r3, #0
    56a0:	13a03001 	movne	r3, #1
    56a4:	e5c53060 	strb	r3, [r5, #96]	; 0x60
    56a8:	e5940164 	ldr	r0, [r4, #356]	; 0x164
    56ac:	ebfffffe 	bl	0 <si_coreunit>
    56b0:	e59f1568 	ldr	r1, [pc, #1384]	; 5c20 <chipattach+0x694>
    56b4:	e5850074 	str	r0, [r5, #116]	; 0x74
    56b8:	e5940168 	ldr	r0, [r4, #360]	; 0x168
    56bc:	ebfffffe 	bl	0 <getintvar>
    56c0:	e59f155c 	ldr	r1, [pc, #1372]	; 5c24 <chipattach+0x698>
    56c4:	e1a09000 	mov	r9, r0
    56c8:	e5850158 	str	r0, [r5, #344]	; 0x158
    56cc:	e5940168 	ldr	r0, [r4, #360]	; 0x168
    56d0:	ebfffffe 	bl	0 <getintvar>
    56d4:	e2700001 	rsbs	r0, r0, #1
    56d8:	33a00000 	movcc	r0, #0
    56dc:	e59f1544 	ldr	r1, [pc, #1348]	; 5c28 <chipattach+0x69c>
    56e0:	e5c5000c 	strb	r0, [r5, #12]
    56e4:	e1a00006 	mov	r0, r6
    56e8:	e5952074 	ldr	r2, [r5, #116]	; 0x74
[31m    56ec:	ebfffffe 	bl	0 <sprintf>[0m
    56f0:	e5940168 	ldr	r0, [r4, #360]	; 0x168
    56f4:	e1a01006 	mov	r1, r6
--
    570c:	ebfffffe 	bl	0 <bcm_ether_atoe>
    5710:	e5d53086 	ldrb	r3, [r5, #134]	; 0x86
    5714:	e5d52087 	ldrb	r2, [r5, #135]	; 0x87
    5718:	e1822003 	orr	r2, r2, r3
    571c:	e5d53088 	ldrb	r3, [r5, #136]	; 0x88
    5720:	e1822003 	orr	r2, r2, r3
    5724:	e5d53089 	ldrb	r3, [r5, #137]	; 0x89
    5728:	e1822003 	orr	r2, r2, r3
    572c:	e5d5308a 	ldrb	r3, [r5, #138]	; 0x8a
    5730:	e1822003 	orr	r2, r2, r3
    5734:	e5d5308b 	ldrb	r3, [r5, #139]	; 0x8b
    5738:	e1923003 	orrs	r3, r2, r3
    573c:	0a000131 	beq	5c08 <chipattach+0x67c>
    5740:	e1a01008 	mov	r1, r8
    5744:	e3a02006 	mov	r2, #6
    5748:	e2850080 	add	r0, r5, #128	; 0x80
    574c:	ebfffffe 	bl	0 <memcpy>
    5750:	e59f14d4 	ldr	r1, [pc, #1236]	; 5c2c <chipattach+0x6a0>
    5754:	e1a00006 	mov	r0, r6
    5758:	e5952074 	ldr	r2, [r5, #116]	; 0x74
[31m    575c:	ebfffffe 	bl	0 <sprintf>[0m
    5760:	e5940168 	ldr	r0, [r4, #360]	; 0x168
    5764:	e1a01006 	mov	r1, r6
--
    57d8:	ebfffffe 	bl	0 <si_iscoreup>
    57dc:	e2501000 	subs	r1, r0, #0
    57e0:	1a000002 	bne	57f0 <chipattach+0x264>
    57e4:	e5940164 	ldr	r0, [r4, #356]	; 0x164
    57e8:	e1a02001 	mov	r2, r1
    57ec:	ebfffffe 	bl	0 <si_core_reset>
    57f0:	e2866001 	add	r6, r6, #1
    57f4:	e3560004 	cmp	r6, #4
    57f8:	1afffff1 	bne	57c4 <chipattach+0x238>
    57fc:	e5940164 	ldr	r0, [r4, #356]	; 0x164
    5800:	e300182d 	movw	r1, #2093	; 0x82d
    5804:	e5952004 	ldr	r2, [r5, #4]
    5808:	ebfffffe 	bl	0 <si_setcore>
    580c:	e28da020 	add	sl, sp, #32
    5810:	e1a00004 	mov	r0, r4
    5814:	ebfffe1f 	bl	5098 <chipreset>
    5818:	e59f1410 	ldr	r1, [pc, #1040]	; 5c30 <chipattach+0x6a4>
    581c:	e1a0000a 	mov	r0, sl
    5820:	e5952074 	ldr	r2, [r5, #116]	; 0x74
    5824:	e3a08c02 	mov	r8, #512	; 0x200
[31m    5828:	ebfffffe 	bl	0 <sprintf>[0m
    582c:	e594300c 	ldr	r3, [r4, #12]
    5830:	e3e0b000 	mvn	fp, #0
--
    5a3c:	e12fff33 	blx	r3
    5a40:	e5960024 	ldr	r0, [r6, #36]	; 0x24
    5a44:	e3001101 	movw	r1, #257	; 0x101
    5a48:	e1d720bc 	ldrh	r2, [r7, #12]
    5a4c:	e5903000 	ldr	r3, [r0]
    5a50:	e59330c0 	ldr	r3, [r3, #192]	; 0xc0
    5a54:	e12fff33 	blx	r3
    5a58:	e5960024 	ldr	r0, [r6, #36]	; 0x24
    5a5c:	e3001102 	movw	r1, #258	; 0x102
    5a60:	e1d720be 	ldrh	r2, [r7, #14]
    5a64:	e2866004 	add	r6, r6, #4
    5a68:	e5903000 	ldr	r3, [r0]
    5a6c:	e59330c0 	ldr	r3, [r3, #192]	; 0xc0
    5a70:	e12fff33 	blx	r3
    5a74:	e2588001 	subs	r8, r8, #1
    5a78:	1affffd2 	bne	59c8 <chipattach+0x43c>
    5a7c:	e28d6020 	add	r6, sp, #32
    5a80:	e5952074 	ldr	r2, [r5, #116]	; 0x74
    5a84:	e59f11b0 	ldr	r1, [pc, #432]	; 5c3c <chipattach+0x6b0>
    5a88:	e1a00006 	mov	r0, r6
[31m    5a8c:	ebfffffe 	bl	0 <sprintf>[0m
    5a90:	e1a01006 	mov	r1, r6
    5a94:	e5940168 	ldr	r0, [r4, #360]	; 0x168
--
Disassembly of section .devinit.text:

00000000 <et_probe>:
   0:	e92d4ff0 	push	{r4, r5, r6, r7, r8, r9, sl, fp, lr}
   4:	e1a07000 	mov	r7, r0
   8:	e59f4424 	ldr	r4, [pc, #1060]	; 434 <et_probe+0x434>
   c:	e24dd08c 	sub	sp, sp, #140	; 0x8c
  10:	e1d002b0 	ldrh	r0, [r0, #32]
  14:	e1d712b2 	ldrh	r1, [r7, #34]	; 0x22
  18:	e594b004 	ldr	fp, [r4, #4]
  1c:	ebfffffe 	bl	11b8 <etc_chipmatch>
  20:	e3500000 	cmp	r0, #0
  24:	0a0000f8 	beq	40c <et_probe+0x40c>
  28:	e5943004 	ldr	r3, [r4, #4]
  2c:	e1a0200b 	mov	r2, fp
  30:	e59f1400 	ldr	r1, [pc, #1024]	; 438 <et_probe+0x438>
  34:	e2833001 	add	r3, r3, #1
  38:	e5843004 	str	r3, [r4, #4]
  3c:	e28d4008 	add	r4, sp, #8
  40:	e1a00004 	mov	r0, r4
[31m  44:	ebfffffe 	bl	0 <sprintf>[0m
  48:	e3a00000 	mov	r0, #0
  4c:	e1a01004 	mov	r1, r4

[0m
[[0;33m*[0m] Function [0;33msprintf[0m used [0;33m11[0m times [0;33met.ko[0m

