[[0;33m*[0m] Binary protection state of [0;33mrc[0m
[REF] s12

  	RELRO          CANARY            NX           PIE       RPATH        RUNPATH      SYMBOLS      
  	[31mNo RELRO[0m       [31mNo Canary found[0m   [32mNX enabled[0m   [31mNo PIE[0m       [32mNo RPATH[0m     [32mNo RUNPATH[0m   [32mNo Symbols[0m

[0m
[[0;33m*[0m] Function [0;33msystem[0m tear down of [0;33mrc[0m

    aca8:	e59f1d3c 	ldr	r1, [pc, #3388]	; b9ec <_start@@Base+0x12f0>
    acac:	e59f0d3c 	ldr	r0, [pc, #3388]	; b9f0 <_start@@Base+0x12f4>
    acb0:	ebfffe73 	bl	a684 <nvram_set@plt>
    acb4:	e59f1d38 	ldr	r1, [pc, #3384]	; b9f4 <_start@@Base+0x12f8>
    acb8:	e59f0d38 	ldr	r0, [pc, #3384]	; b9f8 <_start@@Base+0x12fc>
    acbc:	ebfffe70 	bl	a684 <nvram_set@plt>
    acc0:	e59f1d2c 	ldr	r1, [pc, #3372]	; b9f4 <_start@@Base+0x12f8>
    acc4:	e59f0d30 	ldr	r0, [pc, #3376]	; b9fc <_start@@Base+0x1300>
    acc8:	ebfffe6d 	bl	a684 <nvram_set@plt>
    accc:	e59f1d20 	ldr	r1, [pc, #3360]	; b9f4 <_start@@Base+0x12f8>
    acd0:	e59f0d28 	ldr	r0, [pc, #3368]	; ba00 <_start@@Base+0x1304>
    acd4:	ebfffe6a 	bl	a684 <nvram_set@plt>
    acd8:	e59f1d14 	ldr	r1, [pc, #3348]	; b9f4 <_start@@Base+0x12f8>
    acdc:	e59f0d20 	ldr	r0, [pc, #3360]	; ba04 <_start@@Base+0x1308>
    ace0:	ebfffe67 	bl	a684 <nvram_set@plt>
    ace4:	e59f1d08 	ldr	r1, [pc, #3336]	; b9f4 <_start@@Base+0x12f8>
    ace8:	e59f0d18 	ldr	r0, [pc, #3352]	; ba08 <_start@@Base+0x130c>
    acec:	ebfffe64 	bl	a684 <nvram_set@plt>
    acf0:	ebfffcd4 	bl	a048 <nvram_commit@plt>
    acf4:	e59f0d10 	ldr	r0, [pc, #3344]	; ba0c <_start@@Base+0x1310>
[31m    acf8:	ebfffcb7 	bl	9fdc <system@plt>[0m
    acfc:	e1a00008 	mov	r0, r8
    ad00:	ebfffd3f 	bl	a204 <del_filter_client@plt>
--
    c838:	0a00000b 	beq	c86c <_start@@Base+0x2170>
    c83c:	e28d0d4f 	add	r0, sp, #5056	; 0x13c0
    c840:	e3a03ca2 	mov	r3, #41472	; 0xa200
    c844:	e3443eff 	movt	r3, #20223	; 0x4eff
    c848:	e2800010 	add	r0, r0, #16
    c84c:	e5203004 	str	r3, [r0, #-4]!
    c850:	ebfff707 	bl	a474 <stime@plt>
    c854:	e28ddff5 	add	sp, sp, #980	; 0x3d4
    c858:	e28dda01 	add	sp, sp, #4096	; 0x1000
    c85c:	e8bd85f0 	pop	{r4, r5, r6, r7, r8, sl, pc}
    c860:	e59f03a8 	ldr	r0, [pc, #936]	; cc10 <_start@@Base+0x2514>
    c864:	ebfff606 	bl	a084 <rmdir@plt>
    c868:	eaffffbe 	b	c768 <_start@@Base+0x206c>
    c86c:	e59f03cc 	ldr	r0, [pc, #972]	; cc40 <_start@@Base+0x2544>
    c870:	e3a01002 	mov	r1, #2
    c874:	ebfff5cc 	bl	9fac <open@plt>
    c878:	e3500000 	cmp	r0, #0
    c87c:	ba000004 	blt	c894 <_start@@Base+0x2198>
    c880:	ebfff6aa 	bl	a330 <close@plt>
    c884:	e59f03b8 	ldr	r0, [pc, #952]	; cc44 <_start@@Base+0x2548>
[31m    c888:	ebfff5d3 	bl	9fdc <system@plt>[0m
    c88c:	e59f03b4 	ldr	r0, [pc, #948]	; cc48 <_start@@Base+0x254c>
[31m    c890:	ebfff5d1 	bl	9fdc <system@plt>[0m
    c894:	e59f03b0 	ldr	r0, [pc, #944]	; cc4c <_start@@Base+0x2550>
    c898:	e3a03000 	mov	r3, #0
--
    cdb0:	e59f0f64 	ldr	r0, [pc, #3940]	; dd1c <_start@@Base+0x3620>
    cdb4:	ebfff527 	bl	a258 <nvram_get@plt>
    cdb8:	e59f3f60 	ldr	r3, [pc, #3936]	; dd20 <_start@@Base+0x3624>
    cdbc:	e3a01000 	mov	r1, #0
    cdc0:	e1500001 	cmp	r0, r1
    cdc4:	e1a02001 	mov	r2, r1
    cdc8:	01a00003 	moveq	r0, r3
    cdcc:	ebfff4b8 	bl	a0b4 <strtoul@plt>
    cdd0:	e58d0064 	str	r0, [sp, #100]	; 0x64
    cdd4:	eb000793 	bl	ec28 <_start@@Base+0x452c>
    cdd8:	ebfff602 	bl	a5e8 <convert_deprecated@plt>
    cddc:	e59f0f40 	ldr	r0, [pc, #3904]	; dd24 <_start@@Base+0x3628>
    cde0:	ebfff51c 	bl	a258 <nvram_get@plt>
    cde4:	e3500000 	cmp	r0, #0
    cde8:	0a0002e2 	beq	d978 <_start@@Base+0x327c>
    cdec:	ebfff74d 	bl	ab28 <_start@@Base+0x42c>
    cdf0:	eb00579d 	bl	22c6c <_start@@Base+0x18570>
    cdf4:	e3500000 	cmp	r0, #0
    cdf8:	1a000223 	bne	d68c <_start@@Base+0x2f90>
    cdfc:	e59f0f24 	ldr	r0, [pc, #3876]	; dd28 <_start@@Base+0x362c>
[31m    ce00:	ebfff475 	bl	9fdc <system@plt>[0m
    ce04:	eb002e61 	bl	18790 <_start@@Base+0xe094>
    ce08:	e59f0f1c 	ldr	r0, [pc, #3868]	; dd2c <_start@@Base+0x3630>
[31m    ce0c:	ebfff472 	bl	9fdc <system@plt>[0m
    ce10:	e59f0f18 	ldr	r0, [pc, #3864]	; dd30 <_start@@Base+0x3634>
    ce14:	ebfff50f 	bl	a258 <nvram_get@plt>
--
    ce88:	e1a00005 	mov	r0, r5
    ce8c:	e2866001 	add	r6, r6, #1
    ce90:	ebfff4ab 	bl	a144 <strlen@plt>
    ce94:	e59f1ea4 	ldr	r1, [pc, #3748]	; dd40 <_start@@Base+0x3644>
    ce98:	e3a02005 	mov	r2, #5
    ce9c:	e0850000 	add	r0, r5, r0
    cea0:	ebfff450 	bl	9fe8 <memcpy@plt>
    cea4:	e1a00005 	mov	r0, r5
    cea8:	ebfff4ea 	bl	a258 <nvram_get@plt>
    ceac:	e3500000 	cmp	r0, #0
    ceb0:	0affffea 	beq	ce60 <_start@@Base+0x2764>
    ceb4:	e59f0e88 	ldr	r0, [pc, #3720]	; dd44 <_start@@Base+0x3648>
    ceb8:	ebfff4e6 	bl	a258 <nvram_get@plt>
    cebc:	e3500000 	cmp	r0, #0
    cec0:	0a000150 	beq	d408 <_start@@Base+0x2d0c>
    cec4:	e59f1e7c 	ldr	r1, [pc, #3708]	; dd48 <_start@@Base+0x364c>
    cec8:	ebfff5ae 	bl	a588 <strcmp@plt>
    cecc:	e3500000 	cmp	r0, #0
    ced0:	1a00014c 	bne	d408 <_start@@Base+0x2d0c>
    ced4:	e59f0e70 	ldr	r0, [pc, #3696]	; dd4c <_start@@Base+0x3650>
[31m    ced8:	ebfff43f 	bl	9fdc <system@plt>[0m
    cedc:	e59f6e6c 	ldr	r6, [pc, #3692]	; dd50 <_start@@Base+0x3654>
    cee0:	e308e889 	movw	lr, #34953	; 0x8889
    cee4:	e59f0e68 	ldr	r0, [pc, #3688]	; dd54 <_start@@Base+0x3658>
    cee8:	e30c8ccd 	movw	r8, #52429	; 0xcccd
    ceec:	e58de070 	str	lr, [sp, #112]	; 0x70
    cef0:	e34c8ccc 	movt	r8, #52428	; 0xcccc
[31m    cef4:	ebfff438 	bl	9fdc <system@plt>[0m
    cef8:	e59dc070 	ldr	ip, [sp, #112]	; 0x70
    cefc:	e30c0a6b 	movw	r0, #51819	; 0xca6b
--
    d318:	e59f0a48 	ldr	r0, [pc, #2632]	; dd68 <_start@@Base+0x366c>
    d31c:	ebfff4d8 	bl	a684 <nvram_set@plt>
    d320:	ebfff348 	bl	a048 <nvram_commit@plt>
    d324:	eb002e7c 	bl	18d1c <_start@@Base+0xe620>
    d328:	eb001d80 	bl	14930 <_start@@Base+0xa234>
    d32c:	eb002773 	bl	17100 <_start@@Base+0xca04>
    d330:	eb000cf0 	bl	106f8 <_start@@Base+0x5ffc>
    d334:	ebfffe5a 	bl	cca4 <_start@@Base+0x25a8>
    d338:	e5963000 	ldr	r3, [r6]
    d33c:	e3a00004 	mov	r0, #4
    d340:	e5860004 	str	r0, [r6, #4]
    d344:	e3730001 	cmn	r3, #1
    d348:	0a00000a 	beq	d378 <_start@@Base+0x2c7c>
    d34c:	ea000017 	b	d3b0 <_start@@Base+0x2cb4>
    d350:	ebfff4dd 	bl	a6cc <kill@plt>
    d354:	e3500000 	cmp	r0, #0
    d358:	1a00000b 	bne	d38c <_start@@Base+0x2c90>
    d35c:	e1a0000b 	mov	r0, fp
    d360:	ebfff4d0 	bl	a6a8 <sigsuspend@plt>
    d364:	e59f0a18 	ldr	r0, [pc, #2584]	; dd84 <_start@@Base+0x3688>
[31m    d368:	ebfff31b 	bl	9fdc <system@plt>[0m
    d36c:	e5963000 	ldr	r3, [r6]
    d370:	e3730001 	cmn	r3, #1
    d374:	1a00000d 	bne	d3b0 <_start@@Base+0x2cb4>
    d378:	e5971000 	ldr	r1, [r7]
    d37c:	e3510000 	cmp	r1, #0
    d380:	1afffff5 	bne	d35c <_start@@Base+0x2c60>
    d384:	e2550000 	subs	r0, r5, #0
    d388:	1afffff0 	bne	d350 <_start@@Base+0x2c54>
    d38c:	e3a01001 	mov	r1, #1
    d390:	e3a00000 	mov	r0, #0
    d394:	eb0004b6 	bl	e674 <_start@@Base+0x3f78>
    d398:	e1a05000 	mov	r5, r0
    d39c:	e59f09e0 	ldr	r0, [pc, #2528]	; dd84 <_start@@Base+0x3688>
[31m    d3a0:	ebfff30d 	bl	9fdc <system@plt>[0m
    d3a4:	e5963000 	ldr	r3, [r6]
    d3a8:	e3730001 	cmn	r3, #1
--
   1130c:	e286204c 	add	r2, r6, #76	; 0x4c
   11310:	e1a03005 	mov	r3, r5
   11314:	e8920007 	ldm	r2, {r0, r1, r2}
   11318:	e2866058 	add	r6, r6, #88	; 0x58
   1131c:	e8840007 	stm	r4, {r0, r1, r2}
   11320:	e1a02005 	mov	r2, r5
   11324:	e59f1164 	ldr	r1, [pc, #356]	; 11490 <_start@@Base+0x6d94>
   11328:	e1a00004 	mov	r0, r4
   1132c:	ebffe426 	bl	a3cc <_eval@plt>
   11330:	e3a00003 	mov	r0, #3
   11334:	ebffe337 	bl	a018 <sleep@plt>
   11338:	ebffff5c 	bl	110b0 <_start@@Base+0x69b4>
   1133c:	e896000f 	ldm	r6, {r0, r1, r2, r3}
   11340:	e884000f 	stm	r4, {r0, r1, r2, r3}
   11344:	e1a02005 	mov	r2, r5
   11348:	e1a03005 	mov	r3, r5
   1134c:	e59f113c 	ldr	r1, [pc, #316]	; 11490 <_start@@Base+0x6d94>
   11350:	e1a00004 	mov	r0, r4
   11354:	ebffe41c 	bl	a3cc <_eval@plt>
   11358:	e59f0140 	ldr	r0, [pc, #320]	; 114a0 <_start@@Base+0x6da4>
[31m   1135c:	ebffe31e 	bl	9fdc <system@plt>[0m
   11360:	e59f013c 	ldr	r0, [pc, #316]	; 114a4 <_start@@Base+0x6da8>
   11364:	ebffe3bb 	bl	a258 <nvram_get@plt>
--
   11520:	e59f020c 	ldr	r0, [pc, #524]	; 11734 <_start@@Base+0x7038>
   11524:	ebffe34b 	bl	a258 <nvram_get@plt>
   11528:	e3500000 	cmp	r0, #0
   1152c:	0a000003 	beq	11540 <_start@@Base+0x6e44>
   11530:	e59f1208 	ldr	r1, [pc, #520]	; 11740 <_start@@Base+0x7044>
   11534:	ebffe413 	bl	a588 <strcmp@plt>
   11538:	e2507000 	subs	r7, r0, #0
   1153c:	0a00004c 	beq	11674 <_start@@Base+0x6f78>
   11540:	e28dd01c 	add	sp, sp, #28
   11544:	e8bd80f0 	pop	{r4, r5, r6, r7, pc}
   11548:	e59f61f4 	ldr	r6, [pc, #500]	; 11744 <_start@@Base+0x7048>
   1154c:	e1a0500d 	mov	r5, sp
   11550:	e896000f 	ldm	r6, {r0, r1, r2, r3}
   11554:	e885000f 	stm	r5, {r0, r1, r2, r3}
   11558:	e1a0200c 	mov	r2, ip
   1155c:	e59f11e4 	ldr	r1, [pc, #484]	; 11748 <_start@@Base+0x704c>
   11560:	e1a0300c 	mov	r3, ip
   11564:	e1a0000d 	mov	r0, sp
   11568:	ebffe397 	bl	a3cc <_eval@plt>
   1156c:	e59f01d8 	ldr	r0, [pc, #472]	; 1174c <_start@@Base+0x7050>
[31m   11570:	ebffe299 	bl	9fdc <system@plt>[0m
   11574:	e3a00003 	mov	r0, #3
   11578:	ebffe2a6 	bl	a018 <sleep@plt>
--
   1161c:	e1a02005 	mov	r2, r5
   11620:	e1a03005 	mov	r3, r5
   11624:	e1a0000d 	mov	r0, sp
   11628:	e59f1118 	ldr	r1, [pc, #280]	; 11748 <_start@@Base+0x704c>
   1162c:	e1a0600d 	mov	r6, sp
   11630:	e58dc000 	str	ip, [sp]
   11634:	e59fc128 	ldr	ip, [pc, #296]	; 11764 <_start@@Base+0x7068>
   11638:	e58d4004 	str	r4, [sp, #4]
   1163c:	e58d500c 	str	r5, [sp, #12]
   11640:	e58dc008 	str	ip, [sp, #8]
   11644:	ebffe360 	bl	a3cc <_eval@plt>
   11648:	e59f3118 	ldr	r3, [pc, #280]	; 11768 <_start@@Base+0x706c>
   1164c:	e8930007 	ldm	r3, {r0, r1, r2}
   11650:	e1a03005 	mov	r3, r5
   11654:	e8860007 	stm	r6, {r0, r1, r2}
   11658:	e1a02005 	mov	r2, r5
   1165c:	e1a0000d 	mov	r0, sp
   11660:	e59f10e0 	ldr	r1, [pc, #224]	; 11748 <_start@@Base+0x704c>
   11664:	ebffe358 	bl	a3cc <_eval@plt>
   11668:	e59f00dc 	ldr	r0, [pc, #220]	; 1174c <_start@@Base+0x7050>
[31m   1166c:	ebffe25a 	bl	9fdc <system@plt>[0m
   11670:	eaffffb2 	b	11540 <_start@@Base+0x6e44>
   11674:	e59f60f0 	ldr	r6, [pc, #240]	; 1176c <_start@@Base+0x7070>
   11678:	e1a0500d 	mov	r5, sp
   1167c:	e896000f 	ldm	r6, {r0, r1, r2, r3}
   11680:	e885000f 	stm	r5, {r0, r1, r2, r3}
   11684:	e1a02007 	mov	r2, r7
   11688:	e59f10b8 	ldr	r1, [pc, #184]	; 11748 <_start@@Base+0x704c>
   1168c:	e1a03007 	mov	r3, r7
   11690:	e1a0000d 	mov	r0, sp
   11694:	ebffe34c 	bl	a3cc <_eval@plt>
   11698:	e59f00ac 	ldr	r0, [pc, #172]	; 1174c <_start@@Base+0x7050>
[31m   1169c:	ebffe24e 	bl	9fdc <system@plt>[0m
   116a0:	e2863010 	add	r3, r6, #16
   116a4:	e893000f 	ldm	r3, {r0, r1, r2, r3}
   116a8:	e885000f 	stm	r5, {r0, r1, r2, r3}
   116ac:	e1a02007 	mov	r2, r7
   116b0:	e59f1090 	ldr	r1, [pc, #144]	; 11748 <_start@@Base+0x704c>
   116b4:	e1a03007 	mov	r3, r7
   116b8:	e1a0000d 	mov	r0, sp
   116bc:	ebffe342 	bl	a3cc <_eval@plt>
   116c0:	e59f00a8 	ldr	r0, [pc, #168]	; 11770 <_start@@Base+0x7074>
[31m   116c4:	ebffe244 	bl	9fdc <system@plt>[0m
   116c8:	e59f0080 	ldr	r0, [pc, #128]	; 11750 <_start@@Base+0x7054>
   116cc:	ebffe2e1 	bl	a258 <nvram_get@plt>
--
   11b24:	e58dc060 	str	ip, [sp, #96]	; 0x60
   11b28:	e59fc128 	ldr	ip, [pc, #296]	; 11c58 <_start@@Base+0x755c>
   11b2c:	e58da068 	str	sl, [sp, #104]	; 0x68
   11b30:	e58d406c 	str	r4, [sp, #108]	; 0x6c
   11b34:	e58dc064 	str	ip, [sp, #100]	; 0x64
   11b38:	e303ce2c 	movw	ip, #15916	; 0x3e2c
   11b3c:	e340c002 	movt	ip, #2
   11b40:	e58d9070 	str	r9, [sp, #112]	; 0x70
   11b44:	e58dc074 	str	ip, [sp, #116]	; 0x74
   11b48:	e58d5078 	str	r5, [sp, #120]	; 0x78
   11b4c:	ebffe21e 	bl	a3cc <_eval@plt>
   11b50:	e1a01005 	mov	r1, r5
   11b54:	e3a02040 	mov	r2, #64	; 0x40
   11b58:	e1a00004 	mov	r0, r4
   11b5c:	ebffe238 	bl	a444 <memset@plt>
   11b60:	e1a00004 	mov	r0, r4
   11b64:	e3a01040 	mov	r1, #64	; 0x40
   11b68:	e59f20ec 	ldr	r2, [pc, #236]	; 11c5c <_start@@Base+0x7560>
   11b6c:	ebffe18f 	bl	a1b0 <snprintf@plt>
   11b70:	e1a00004 	mov	r0, r4
[31m   11b74:	ebffe118 	bl	9fdc <system@plt>[0m
   11b78:	e1a00008 	mov	r0, r8
   11b7c:	e28dd0c4 	add	sp, sp, #196	; 0xc4
--
   1212c:	0a000002 	beq	1213c <_start@@Base+0x7a40>
   12130:	e5d03000 	ldrb	r3, [r0]
   12134:	e3530000 	cmp	r3, #0
   12138:	1a00001a 	bne	121a8 <_start@@Base+0x7aac>
   1213c:	e59f0e24 	ldr	r0, [pc, #3620]	; 12f68 <_start@@Base+0x886c>
   12140:	ebffe044 	bl	a258 <nvram_get@plt>
   12144:	e3500000 	cmp	r0, #0
   12148:	0a000003 	beq	1215c <_start@@Base+0x7a60>
   1214c:	e59f1df0 	ldr	r1, [pc, #3568]	; 12f44 <_start@@Base+0x8848>
   12150:	ebffe10c 	bl	a588 <strcmp@plt>
   12154:	e3500000 	cmp	r0, #0
   12158:	0a000012 	beq	121a8 <_start@@Base+0x7aac>
   1215c:	e59f0e08 	ldr	r0, [pc, #3592]	; 12f6c <_start@@Base+0x8870>
   12160:	ebffe03c 	bl	a258 <nvram_get@plt>
   12164:	e2502000 	subs	r2, r0, #0
   12168:	0a000004 	beq	12180 <_start@@Base+0x7a84>
   1216c:	e28d0f4a 	add	r0, sp, #296	; 0x128
   12170:	e59f1df8 	ldr	r1, [pc, #3576]	; 12f70 <_start@@Base+0x8874>
   12174:	ebffe0d6 	bl	a4d4 <sprintf@plt>
   12178:	e28d0f4a 	add	r0, sp, #296	; 0x128
[31m   1217c:	ebffdf96 	bl	9fdc <system@plt>[0m
   12180:	e59f0dec 	ldr	r0, [pc, #3564]	; 12f74 <_start@@Base+0x8878>
   12184:	ebffe033 	bl	a258 <nvram_get@plt>
   12188:	ebffe110 	bl	a5d0 <atoi@plt>
   1218c:	e3500001 	cmp	r0, #1
   12190:	0a0003f3 	beq	13164 <_start@@Base+0x8a68>
   12194:	e59f0ddc 	ldr	r0, [pc, #3548]	; 12f78 <_start@@Base+0x887c>
[31m   12198:	ebffdf8f 	bl	9fdc <system@plt>[0m
   1219c:	e28dd04c 	add	sp, sp, #76	; 0x4c
   121a0:	e28ddb01 	add	sp, sp, #1024	; 0x400
--
   12a78:	0a000003 	beq	12a8c <_start@@Base+0x8390>
   12a7c:	e59f14c0 	ldr	r1, [pc, #1216]	; 12f44 <_start@@Base+0x8848>
   12a80:	ebffdec0 	bl	a588 <strcmp@plt>
   12a84:	e3500000 	cmp	r0, #0
   12a88:	0a00017a 	beq	13078 <_start@@Base+0x897c>
   12a8c:	e59d0014 	ldr	r0, [sp, #20]
   12a90:	ebffddf0 	bl	a258 <nvram_get@plt>
   12a94:	e3500000 	cmp	r0, #0
   12a98:	11a04000 	movne	r4, r0
   12a9c:	e59d0010 	ldr	r0, [sp, #16]
   12aa0:	01a0400a 	moveq	r4, sl
   12aa4:	ebffddeb 	bl	a258 <nvram_get@plt>
   12aa8:	e3500000 	cmp	r0, #0
   12aac:	e3011043 	movw	r1, #4163	; 0x1043
   12ab0:	11a03000 	movne	r3, r0
   12ab4:	01a0300a 	moveq	r3, sl
   12ab8:	e1a02004 	mov	r2, r4
   12abc:	e1a00007 	mov	r0, r7
   12ac0:	ebffefa2 	bl	e950 <_start@@Base+0x4254>
   12ac4:	e59f0548 	ldr	r0, [pc, #1352]	; 13014 <_start@@Base+0x8918>
[31m   12ac8:	ebffdd43 	bl	9fdc <system@plt>[0m
   12acc:	e1a00007 	mov	r0, r7
   12ad0:	ebfffc64 	bl	11c68 <_start@@Base+0x756c>
--
   13118:	ebffdcab 	bl	a3cc <_eval@plt>
   1311c:	eafffe6c 	b	12ad4 <_start@@Base+0x83d8>
   13120:	e51f00dc 	ldr	r0, [pc, #-220]	; 1304c <_start@@Base+0x8950>
   13124:	ebffdc4b 	bl	a258 <nvram_get@plt>
   13128:	e2503000 	subs	r3, r0, #0
   1312c:	0a00008e 	beq	1336c <_start@@Base+0x8c70>
   13130:	e28d6028 	add	r6, sp, #40	; 0x28
   13134:	e3a010ff 	mov	r1, #255	; 0xff
   13138:	e1a00006 	mov	r0, r6
   1313c:	e51f20fc 	ldr	r2, [pc, #-252]	; 13048 <_start@@Base+0x894c>
   13140:	e58d4000 	str	r4, [sp]
   13144:	ebffdc19 	bl	a1b0 <snprintf@plt>
   13148:	e1a01006 	mov	r1, r6
   1314c:	e51f0108 	ldr	r0, [pc, #-264]	; 1304c <_start@@Base+0x8950>
   13150:	ebffdd4b 	bl	a684 <nvram_set@plt>
   13154:	eafffce0 	b	124dc <_start@@Base+0x7de0>
   13158:	e51f0100 	ldr	r0, [pc, #-256]	; 13060 <_start@@Base+0x8964>
   1315c:	ebffdcc1 	bl	a468 <perror@plt>
   13160:	eaffff64 	b	12ef8 <_start@@Base+0x87fc>
   13164:	e51f011c 	ldr	r0, [pc, #-284]	; 13050 <_start@@Base+0x8954>
[31m   13168:	ebffdb9b 	bl	9fdc <system@plt>[0m
   1316c:	eafffc0a 	b	1219c <_start@@Base+0x7aa0>
   13170:	e3011243 	movw	r1, #4675	; 0x1243
--
   13da0:	ebffd9f8 	bl	a588 <strcmp@plt>
   13da4:	e250a000 	subs	sl, r0, #0
   13da8:	0a0000fd 	beq	141a4 <_start@@Base+0x9aa8>
   13dac:	e28d2d09 	add	r2, sp, #576	; 0x240
   13db0:	e1a00005 	mov	r0, r5
   13db4:	e58d200c 	str	r2, [sp, #12]
   13db8:	ebfffea7 	bl	1385c <_start@@Base+0x9160>
   13dbc:	e89b000f 	ldm	fp, {r0, r1, r2, r3}
   13dc0:	e28dcd09 	add	ip, sp, #576	; 0x240
   13dc4:	e8ac0007 	stmia	ip!, {r0, r1, r2}
   13dc8:	e1a00005 	mov	r0, r5
   13dcc:	e1a02823 	lsr	r2, r3, #16
   13dd0:	e0cc30b2 	strh	r3, [ip], #2
   13dd4:	e28d1d09 	add	r1, sp, #576	; 0x240
   13dd8:	e5cc2000 	strb	r2, [ip]
   13ddc:	ebfffe91 	bl	13828 <_start@@Base+0x912c>
   13de0:	e3500000 	cmp	r0, #0
   13de4:	b28d6e23 	addlt	r6, sp, #560	; 0x230
   13de8:	ba00008f 	blt	1402c <_start@@Base+0x9930>
   13dec:	e59f0998 	ldr	r0, [pc, #2456]	; 1478c <_start@@Base+0xa090>
[31m   13df0:	ebffd879 	bl	9fdc <system@plt>[0m
   13df4:	e59f0994 	ldr	r0, [pc, #2452]	; 14790 <_start@@Base+0xa094>
   13df8:	e59f1994 	ldr	r1, [pc, #2452]	; 14794 <_start@@Base+0xa098>
--
   145a4:	e58d80a0 	str	r8, [sp, #160]	; 0xa0
   145a8:	e58dc0a8 	str	ip, [sp, #168]	; 0xa8
   145ac:	e303ce2c 	movw	ip, #15916	; 0x3e2c
   145b0:	e340c002 	movt	ip, #2
   145b4:	e58da0ac 	str	sl, [sp, #172]	; 0xac
   145b8:	e58dc0b8 	str	ip, [sp, #184]	; 0xb8
   145bc:	e58d40b0 	str	r4, [sp, #176]	; 0xb0
   145c0:	e58d90b4 	str	r9, [sp, #180]	; 0xb4
   145c4:	e58d50bc 	str	r5, [sp, #188]	; 0xbc
   145c8:	ebffd77f 	bl	a3cc <_eval@plt>
   145cc:	e1a01005 	mov	r1, r5
   145d0:	e3a02080 	mov	r2, #128	; 0x80
   145d4:	e1a00004 	mov	r0, r4
   145d8:	ebffd799 	bl	a444 <memset@plt>
   145dc:	e3a01080 	mov	r1, #128	; 0x80
   145e0:	e59f2254 	ldr	r2, [pc, #596]	; 1483c <_start@@Base+0xa140>
   145e4:	e1a03006 	mov	r3, r6
   145e8:	e1a00004 	mov	r0, r4
   145ec:	ebffd6ef 	bl	a1b0 <snprintf@plt>
   145f0:	e1a00004 	mov	r0, r4
[31m   145f4:	ebffd678 	bl	9fdc <system@plt>[0m
   145f8:	e3a01040 	mov	r1, #64	; 0x40
   145fc:	e59f21b0 	ldr	r2, [pc, #432]	; 147b4 <_start@@Base+0xa0b8>
--
   14c04:	ebffd593 	bl	a258 <nvram_get@plt>
   14c08:	e3500000 	cmp	r0, #0
   14c0c:	0a00000f 	beq	14c50 <_start@@Base+0xa554>
   14c10:	e5d03000 	ldrb	r3, [r0]
   14c14:	e3530000 	cmp	r3, #0
   14c18:	0a00000c 	beq	14c50 <_start@@Base+0xa554>
   14c1c:	e59f0aa0 	ldr	r0, [pc, #2720]	; 156c4 <_start@@Base+0xafc8>
   14c20:	ebffd58c 	bl	a258 <nvram_get@plt>
   14c24:	e59fea9c 	ldr	lr, [pc, #2716]	; 156c8 <_start@@Base+0xafcc>
   14c28:	e3a0c000 	mov	ip, #0
   14c2c:	e58d0a38 	str	r0, [sp, #2616]	; 0xa38
   14c30:	e28d0d29 	add	r0, sp, #2624	; 0xa40
   14c34:	e1a0100c 	mov	r1, ip
   14c38:	e3a02005 	mov	r2, #5
   14c3c:	e240000c 	sub	r0, r0, #12
   14c40:	e1a0300c 	mov	r3, ip
   14c44:	e58dea34 	str	lr, [sp, #2612]	; 0xa34
   14c48:	e58dca3c 	str	ip, [sp, #2620]	; 0xa3c
   14c4c:	ebffd5de 	bl	a3cc <_eval@plt>
   14c50:	e59f0a74 	ldr	r0, [pc, #2676]	; 156cc <_start@@Base+0xafd0>
[31m   14c54:	ebffd4e0 	bl	9fdc <system@plt>[0m
   14c58:	e28ddf9d 	add	sp, sp, #628	; 0x274
   14c5c:	e28ddb03 	add	sp, sp, #3072	; 0xc00
--
   15888:	000252e8 	andeq	r5, r2, r8, ror #5
   1588c:	0002525c 	andeq	r5, r2, ip, asr r2
   15890:	00025610 	andeq	r5, r2, r0, lsl r6
   15894:	00031438 	andeq	r1, r3, r8, lsr r4
   15898:	00025594 	muleq	r2, r4, r5
   1589c:	00024c60 	andeq	r4, r2, r0, ror #24
   158a0:	0002368c 	andeq	r3, r2, ip, lsl #13
   158a4:	0002412c 	andeq	r4, r2, ip, lsr #2
   158a8:	00024978 	andeq	r4, r2, r8, ror r9
   158ac:	00025274 	andeq	r5, r2, r4, ror r2
   158b0:	00025284 	andeq	r5, r2, r4, lsl #5
   158b4:	0002528c 	andeq	r5, r2, ip, lsl #5
   158b8:	000252bc 			; <UNDEFINED> instruction: 0x000252bc
   158bc:	00025570 	andeq	r5, r2, r0, ror r5
   158c0:	000250d4 	ldrdeq	r5, [r2], -r4
   158c4:	e3a0cc01 	mov	ip, #256	; 0x100
   158c8:	e51fa064 	ldr	sl, [pc, #-100]	; 1586c <_start@@Base+0xb170>
   158cc:	e58dc00c 	str	ip, [sp, #12]
   158d0:	ebffec91 	bl	10b1c <_start@@Base+0x6420>
   158d4:	e51f017c 	ldr	r0, [pc, #-380]	; 15760 <_start@@Base+0xb064>
[31m   158d8:	ebffd1bf 	bl	9fdc <system@plt>[0m
   158dc:	e51f0148 	ldr	r0, [pc, #-328]	; 1579c <_start@@Base+0xb0a0>
   158e0:	ebffd25c 	bl	a258 <nvram_get@plt>
   158e4:	e3500000 	cmp	r0, #0
   158e8:	11a0b000 	movne	fp, r0
   158ec:	e51f0190 	ldr	r0, [pc, #-400]	; 15764 <_start@@Base+0xb068>
   158f0:	01a0b00a 	moveq	fp, sl
   158f4:	ebffd257 	bl	a258 <nvram_get@plt>
   158f8:	e3500000 	cmp	r0, #0
   158fc:	e1a0200b 	mov	r2, fp
   15900:	11a03000 	movne	r3, r0
   15904:	01a0300a 	moveq	r3, sl
   15908:	e51f112c 	ldr	r1, [pc, #-300]	; 157e4 <_start@@Base+0xb0e8>
   1590c:	e1a00005 	mov	r0, r5
   15910:	ebffd2ef 	bl	a4d4 <sprintf@plt>
   15914:	e1a00005 	mov	r0, r5
[31m   15918:	ebffd1af 	bl	9fdc <system@plt>[0m
   1591c:	e51f0188 	ldr	r0, [pc, #-392]	; 1579c <_start@@Base+0xb0a0>
   15920:	ebffd24c 	bl	a258 <nvram_get@plt>
   15924:	e3500000 	cmp	r0, #0
   15928:	11a0b000 	movne	fp, r0
   1592c:	e51f01d0 	ldr	r0, [pc, #-464]	; 15764 <_start@@Base+0xb068>
   15930:	01a0b00a 	moveq	fp, sl
   15934:	ebffd247 	bl	a258 <nvram_get@plt>
   15938:	e3500000 	cmp	r0, #0
   1593c:	e1a0200b 	mov	r2, fp
   15940:	11a03000 	movne	r3, r0
   15944:	01a0300a 	moveq	r3, sl
   15948:	e51f1168 	ldr	r1, [pc, #-360]	; 157e8 <_start@@Base+0xb0ec>
   1594c:	e1a00005 	mov	r0, r5
   15950:	ebffd2df 	bl	a4d4 <sprintf@plt>
   15954:	e1a00005 	mov	r0, r5
[31m   15958:	ebffd19f 	bl	9fdc <system@plt>[0m
   1595c:	e30011ff 	movw	r1, #511	; 0x1ff
   15960:	e51f0200 	ldr	r0, [pc, #-512]	; 15768 <_start@@Base+0xb06c>
--
   15c10:	e51fe37c 	ldr	lr, [pc, #-892]	; 1589c <_start@@Base+0xb1a0>
   15c14:	e3a0c000 	mov	ip, #0
   15c18:	e150000c 	cmp	r0, ip
   15c1c:	e1a0200c 	mov	r2, ip
   15c20:	11a08000 	movne	r8, r0
   15c24:	e1a0300c 	mov	r3, ip
   15c28:	e58dea34 	str	lr, [sp, #2612]	; 0xa34
   15c2c:	e51fe408 	ldr	lr, [pc, #-1032]	; 1582c <_start@@Base+0xb130>
   15c30:	e51f1398 	ldr	r1, [pc, #-920]	; 158a0 <_start@@Base+0xb1a4>
   15c34:	e59d0018 	ldr	r0, [sp, #24]
   15c38:	e58dea40 	str	lr, [sp, #2624]	; 0xa40
   15c3c:	e51fe39c 	ldr	lr, [pc, #-924]	; 158a8 <_start@@Base+0xb1ac>
   15c40:	e58d9a38 	str	r9, [sp, #2616]	; 0xa38
   15c44:	e58daa3c 	str	sl, [sp, #2620]	; 0xa3c
   15c48:	e58d8a44 	str	r8, [sp, #2628]	; 0xa44
   15c4c:	e58dea48 	str	lr, [sp, #2632]	; 0xa48
   15c50:	e58dca4c 	str	ip, [sp, #2636]	; 0xa4c
   15c54:	ebffd1dc 	bl	a3cc <_eval@plt>
   15c58:	e28d0ed3 	add	r0, sp, #3376	; 0xd30
   15c5c:	e2800008 	add	r0, r0, #8
[31m   15c60:	ebffd0dd 	bl	9fdc <system@plt>[0m
   15c64:	ebffecfc 	bl	1105c <_start@@Base+0x6960>
   15c68:	e51f04a0 	ldr	r0, [pc, #-1184]	; 157d0 <_start@@Base+0xb0d4>
--
   15c78:	e51f1408 	ldr	r1, [pc, #-1032]	; 15878 <_start@@Base+0xb17c>
   15c7c:	ebffd241 	bl	a588 <strcmp@plt>
   15c80:	e250c000 	subs	ip, r0, #0
   15c84:	0a000143 	beq	16198 <_start@@Base+0xba9c>
   15c88:	e1a01007 	mov	r1, r7
   15c8c:	e1a00004 	mov	r0, r4
   15c90:	ebffd28a 	bl	a6c0 <strcpy@plt>
   15c94:	e1a00004 	mov	r0, r4
   15c98:	ebffd129 	bl	a144 <strlen@plt>
   15c9c:	e51f14d0 	ldr	r1, [pc, #-1232]	; 157d4 <_start@@Base+0xb0d8>
   15ca0:	e3a0200c 	mov	r2, #12
   15ca4:	e0840000 	add	r0, r4, r0
   15ca8:	ebffd0ce 	bl	9fe8 <memcpy@plt>
   15cac:	e1a00004 	mov	r0, r4
   15cb0:	e51f944c 	ldr	r9, [pc, #-1100]	; 1586c <_start@@Base+0xb170>
   15cb4:	ebffd167 	bl	a258 <nvram_get@plt>
   15cb8:	e3500000 	cmp	r0, #0
   15cbc:	11a09000 	movne	r9, r0
   15cc0:	eafffc53 	b	14e14 <_start@@Base+0xa718>
   15cc4:	e51f04f4 	ldr	r0, [pc, #-1268]	; 157d8 <_start@@Base+0xb0dc>
[31m   15cc8:	ebffd0c3 	bl	9fdc <system@plt>[0m
   15ccc:	e3a00001 	mov	r0, #1
   15cd0:	ebffd0d0 	bl	a018 <sleep@plt>
--
   15cf0:	e1a0300a 	mov	r3, sl
   15cf4:	e1a0000e 	mov	r0, lr
   15cf8:	e1a0200a 	mov	r2, sl
   15cfc:	e51f1464 	ldr	r1, [pc, #-1124]	; 158a0 <_start@@Base+0xb1a4>
   15d00:	ebffd1b1 	bl	a3cc <_eval@plt>
   15d04:	e51f0508 	ldr	r0, [pc, #-1288]	; 15804 <_start@@Base+0xb108>
   15d08:	ebffd152 	bl	a258 <nvram_get@plt>
   15d0c:	e3500000 	cmp	r0, #0
   15d10:	11a0a000 	movne	sl, r0
   15d14:	e51f0514 	ldr	r0, [pc, #-1300]	; 15808 <_start@@Base+0xb10c>
   15d18:	01a0a008 	moveq	sl, r8
   15d1c:	ebffd14d 	bl	a258 <nvram_get@plt>
   15d20:	e3500000 	cmp	r0, #0
   15d24:	e1a0200a 	mov	r2, sl
   15d28:	11a03000 	movne	r3, r0
   15d2c:	01a03008 	moveq	r3, r8
   15d30:	e51f1558 	ldr	r1, [pc, #-1368]	; 157e0 <_start@@Base+0xb0e4>
   15d34:	e59d0024 	ldr	r0, [sp, #36]	; 0x24
   15d38:	ebffd1e5 	bl	a4d4 <sprintf@plt>
   15d3c:	e59d0024 	ldr	r0, [sp, #36]	; 0x24
[31m   15d40:	ebffd0a5 	bl	9fdc <system@plt>[0m
   15d44:	e51f0548 	ldr	r0, [pc, #-1352]	; 15804 <_start@@Base+0xb108>
   15d48:	ebffd142 	bl	a258 <nvram_get@plt>
   15d4c:	e3500000 	cmp	r0, #0
   15d50:	11a0a000 	movne	sl, r0
   15d54:	e51f0554 	ldr	r0, [pc, #-1364]	; 15808 <_start@@Base+0xb10c>
   15d58:	01a0a008 	moveq	sl, r8
   15d5c:	ebffd13d 	bl	a258 <nvram_get@plt>
   15d60:	e3500000 	cmp	r0, #0
   15d64:	e1a0200a 	mov	r2, sl
   15d68:	11a03000 	movne	r3, r0
   15d6c:	01a03008 	moveq	r3, r8
   15d70:	e51f1594 	ldr	r1, [pc, #-1428]	; 157e4 <_start@@Base+0xb0e8>
   15d74:	e59d0024 	ldr	r0, [sp, #36]	; 0x24
   15d78:	ebffd1d5 	bl	a4d4 <sprintf@plt>
   15d7c:	e59d0024 	ldr	r0, [sp, #36]	; 0x24
[31m   15d80:	ebffd095 	bl	9fdc <system@plt>[0m
   15d84:	e51f0588 	ldr	r0, [pc, #-1416]	; 15804 <_start@@Base+0xb108>
   15d88:	ebffd132 	bl	a258 <nvram_get@plt>
   15d8c:	e3500000 	cmp	r0, #0
   15d90:	11a0a000 	movne	sl, r0
   15d94:	e51f0594 	ldr	r0, [pc, #-1428]	; 15808 <_start@@Base+0xb10c>
   15d98:	01a0a008 	moveq	sl, r8
   15d9c:	ebffd12d 	bl	a258 <nvram_get@plt>
   15da0:	e3500000 	cmp	r0, #0
   15da4:	e1a0200a 	mov	r2, sl
   15da8:	11a03000 	movne	r3, r0
   15dac:	01a03008 	moveq	r3, r8
   15db0:	e51f15d0 	ldr	r1, [pc, #-1488]	; 157e8 <_start@@Base+0xb0ec>
   15db4:	e59d0024 	ldr	r0, [sp, #36]	; 0x24
   15db8:	ebffd1c5 	bl	a4d4 <sprintf@plt>
   15dbc:	e59d0024 	ldr	r0, [sp, #36]	; 0x24
[31m   15dc0:	ebffd085 	bl	9fdc <system@plt>[0m
   15dc4:	e51f05e0 	ldr	r0, [pc, #-1504]	; 157ec <_start@@Base+0xb0f0>
[31m   15dc8:	ebffd083 	bl	9fdc <system@plt>[0m
   15dcc:	e30011ff 	movw	r1, #511	; 0x1ff
   15dd0:	e51f05e8 	ldr	r0, [pc, #-1512]	; 157f0 <_start@@Base+0xb0f4>
--
   15f78:	e1a0300c 	mov	r3, ip
   15f7c:	e51f16e4 	ldr	r1, [pc, #-1764]	; 158a0 <_start@@Base+0xb1a4>
   15f80:	e59d0018 	ldr	r0, [sp, #24]
   15f84:	e58dea48 	str	lr, [sp, #2632]	; 0xa48
   15f88:	e58dca4c 	str	ip, [sp, #2636]	; 0xa4c
   15f8c:	e58d9a38 	str	r9, [sp, #2616]	; 0xa38
   15f90:	e58dba3c 	str	fp, [sp, #2620]	; 0xa3c
   15f94:	e58daa40 	str	sl, [sp, #2624]	; 0xa40
   15f98:	ebffd10b 	bl	a3cc <_eval@plt>
   15f9c:	e51f0774 	ldr	r0, [pc, #-1908]	; 15830 <_start@@Base+0xb134>
   15fa0:	ebffd0ac 	bl	a258 <nvram_get@plt>
   15fa4:	e3500000 	cmp	r0, #0
   15fa8:	e51f177c 	ldr	r1, [pc, #-1916]	; 15834 <_start@@Base+0xb138>
   15fac:	11a02000 	movne	r2, r0
   15fb0:	e28d0ed3 	add	r0, sp, #3376	; 0xd30
   15fb4:	01a02008 	moveq	r2, r8
   15fb8:	e2800008 	add	r0, r0, #8
   15fbc:	ebffd144 	bl	a4d4 <sprintf@plt>
   15fc0:	e28d0ed3 	add	r0, sp, #3376	; 0xd30
   15fc4:	e2800008 	add	r0, r0, #8
[31m   15fc8:	ebffd003 	bl	9fdc <system@plt>[0m
   15fcc:	e28d8ec3 	add	r8, sp, #3120	; 0xc30
   15fd0:	e3a01000 	mov	r1, #0
--
   15fec:	e1a00005 	mov	r0, r5
   15ff0:	ebffd113 	bl	a444 <memset@plt>
   15ff4:	e51f07b8 	ldr	r0, [pc, #-1976]	; 15844 <_start@@Base+0xb148>
   15ff8:	ebffd096 	bl	a258 <nvram_get@plt>
   15ffc:	e3500000 	cmp	r0, #0
   16000:	0a000041 	beq	1610c <_start@@Base+0xba10>
   16004:	e51f1790 	ldr	r1, [pc, #-1936]	; 1587c <_start@@Base+0xb180>
   16008:	ebffd15e 	bl	a588 <strcmp@plt>
   1600c:	e3500000 	cmp	r0, #0
   16010:	1a00003d 	bne	1610c <_start@@Base+0xba10>
   16014:	e51fe7e4 	ldr	lr, [pc, #-2020]	; 15838 <_start@@Base+0xb13c>
   16018:	e1a0c005 	mov	ip, r5
   1601c:	e8be000f 	ldm	lr!, {r0, r1, r2, r3}
   16020:	e8ac000f 	stmia	ip!, {r0, r1, r2, r3}
   16024:	e89e000f 	ldm	lr, {r0, r1, r2, r3}
   16028:	e8ac0007 	stmia	ip!, {r0, r1, r2}
   1602c:	e1cc30b0 	strh	r3, [ip]
   16030:	e51f07c4 	ldr	r0, [pc, #-1988]	; 15874 <_start@@Base+0xb178>
   16034:	ebffd087 	bl	a258 <nvram_get@plt>
   16038:	e51f0804 	ldr	r0, [pc, #-2052]	; 1583c <_start@@Base+0xb140>
[31m   1603c:	ebffcfe6 	bl	9fdc <system@plt>[0m
   16040:	e51f0808 	ldr	r0, [pc, #-2056]	; 15840 <_start@@Base+0xb144>
[31m   16044:	ebffcfe4 	bl	9fdc <system@plt>[0m
   16048:	e51f080c 	ldr	r0, [pc, #-2060]	; 15844 <_start@@Base+0xb148>
   1604c:	ebffd081 	bl	a258 <nvram_get@plt>
--
   160a4:	e3500000 	cmp	r0, #0
   160a8:	01a0000a 	moveq	r0, sl
   160ac:	ebffd147 	bl	a5d0 <atoi@plt>
   160b0:	e3500001 	cmp	r0, #1
   160b4:	e1a01000 	mov	r1, r0
   160b8:	1afffea8 	bne	15b60 <_start@@Base+0xb464>
   160bc:	e1a03008 	mov	r3, r8
   160c0:	e3a02007 	mov	r2, #7
   160c4:	e51f087c 	ldr	r0, [pc, #-2172]	; 15850 <_start@@Base+0xb154>
   160c8:	ebffcfbd 	bl	9fc4 <fwrite@plt>
   160cc:	e51f0880 	ldr	r0, [pc, #-2176]	; 15854 <_start@@Base+0xb158>
   160d0:	ebffd060 	bl	a258 <nvram_get@plt>
   160d4:	e3500000 	cmp	r0, #0
   160d8:	01a0000a 	moveq	r0, sl
   160dc:	ebffd13b 	bl	a5d0 <atoi@plt>
   160e0:	e51f1890 	ldr	r1, [pc, #-2192]	; 15858 <_start@@Base+0xb15c>
   160e4:	e1a02000 	mov	r2, r0
   160e8:	e1a00008 	mov	r0, r8
   160ec:	ebffd0e6 	bl	a48c <fprintf@plt>
   160f0:	e51f089c 	ldr	r0, [pc, #-2204]	; 1585c <_start@@Base+0xb160>
[31m   160f4:	ebffcfb8 	bl	9fdc <system@plt>[0m
   160f8:	e51f08a0 	ldr	r0, [pc, #-2208]	; 15860 <_start@@Base+0xb164>
[31m   160fc:	ebffcfb6 	bl	9fdc <system@plt>[0m
   16100:	e51f08a4 	ldr	r0, [pc, #-2212]	; 15864 <_start@@Base+0xb168>
[31m   16104:	ebffcfb4 	bl	9fdc <system@plt>[0m
   16108:	eafffe94 	b	15b60 <_start@@Base+0xb464>
   1610c:	e51fc8ac 	ldr	ip, [pc, #-2220]	; 15868 <_start@@Base+0xb16c>
--
   16260:	ebffcffc 	bl	a258 <nvram_get@plt>
   16264:	e3500000 	cmp	r0, #0
   16268:	11a01000 	movne	r1, r0
   1626c:	01a0100b 	moveq	r1, fp
   16270:	e59d0018 	ldr	r0, [sp, #24]
   16274:	ebffd111 	bl	a6c0 <strcpy@plt>
   16278:	e59d2018 	ldr	r2, [sp, #24]
   1627c:	e1a0000a 	mov	r0, sl
   16280:	e51f19d8 	ldr	r1, [pc, #-2520]	; 158b0 <_start@@Base+0xb1b4>
   16284:	ebffd092 	bl	a4d4 <sprintf@plt>
   16288:	e1a01008 	mov	r1, r8
   1628c:	e59d0018 	ldr	r0, [sp, #24]
   16290:	e3a02c02 	mov	r2, #512	; 0x200
   16294:	ebffd06a 	bl	a444 <memset@plt>
   16298:	e59d0018 	ldr	r0, [sp, #24]
   1629c:	e1a02009 	mov	r2, r9
   162a0:	e51f19f4 	ldr	r1, [pc, #-2548]	; 158b4 <_start@@Base+0xb1b8>
   162a4:	e1a0300a 	mov	r3, sl
   162a8:	ebffd089 	bl	a4d4 <sprintf@plt>
   162ac:	e59d0018 	ldr	r0, [sp, #24]
[31m   162b0:	ebffcf49 	bl	9fdc <system@plt>[0m
   162b4:	eafffe6a 	b	15c64 <_start@@Base+0xb568>
   162b8:	e1a00008 	mov	r0, r8
   162bc:	e51f1a34 	ldr	r1, [pc, #-2612]	; 15890 <_start@@Base+0xb194>
   162c0:	e1a02005 	mov	r2, r5
   162c4:	ebffd082 	bl	a4d4 <sprintf@plt>
   162c8:	e1a00008 	mov	r0, r8
[31m   162cc:	ebffcf42 	bl	9fdc <system@plt>[0m
   162d0:	eaffff64 	b	16068 <_start@@Base+0xb96c>
   162d4:	e51f3a48 	ldr	r3, [pc, #-2632]	; 15894 <_start@@Base+0xb198>
--
   16370:	ebffcfb8 	bl	a258 <nvram_get@plt>
   16374:	e3500000 	cmp	r0, #0
   16378:	11a01000 	movne	r1, r0
   1637c:	01a0100b 	moveq	r1, fp
   16380:	e59d001c 	ldr	r0, [sp, #28]
   16384:	ebffd0cd 	bl	a6c0 <strcpy@plt>
   16388:	e59d201c 	ldr	r2, [sp, #28]
   1638c:	e59d0018 	ldr	r0, [sp, #24]
   16390:	e51f1ae8 	ldr	r1, [pc, #-2792]	; 158b0 <_start@@Base+0xb1b4>
   16394:	ebffd04e 	bl	a4d4 <sprintf@plt>
   16398:	e1a0100a 	mov	r1, sl
   1639c:	e59d001c 	ldr	r0, [sp, #28]
   163a0:	e3a02c02 	mov	r2, #512	; 0x200
   163a4:	ebffd026 	bl	a444 <memset@plt>
   163a8:	e59d001c 	ldr	r0, [sp, #28]
   163ac:	e1a02009 	mov	r2, r9
   163b0:	e51f1b04 	ldr	r1, [pc, #-2820]	; 158b4 <_start@@Base+0xb1b8>
   163b4:	e59d3018 	ldr	r3, [sp, #24]
   163b8:	ebffd045 	bl	a4d4 <sprintf@plt>
   163bc:	e59d001c 	ldr	r0, [sp, #28]
[31m   163c0:	ebffcf05 	bl	9fdc <system@plt>[0m
   163c4:	eaffff00 	b	15fcc <_start@@Base+0xb8d0>
   163c8:	e28d8ec3 	add	r8, sp, #3120	; 0xc30
   163cc:	e28d0ec3 	add	r0, sp, #3120	; 0xc30
   163d0:	e2888004 	add	r8, r8, #4
   163d4:	e1a0100a 	mov	r1, sl
   163d8:	e3a02c01 	mov	r2, #256	; 0x100
   163dc:	e2800008 	add	r0, r0, #8
   163e0:	e58dac34 	str	sl, [sp, #3124]	; 0xc34
   163e4:	ebffd016 	bl	a444 <memset@plt>
   163e8:	e1a0100a 	mov	r1, sl
   163ec:	e3a02f41 	mov	r2, #260	; 0x104
   163f0:	e1a00008 	mov	r0, r8
   163f4:	ebffd012 	bl	a444 <memset@plt>
   163f8:	e1a00008 	mov	r0, r8
   163fc:	e51f1b4c 	ldr	r1, [pc, #-2892]	; 158b8 <_start@@Base+0xb1bc>
   16400:	e1a02009 	mov	r2, r9
   16404:	ebffd032 	bl	a4d4 <sprintf@plt>
   16408:	e1a00008 	mov	r0, r8
[31m   1640c:	ebffcef2 	bl	9fdc <system@plt>[0m
   16410:	eafffe13 	b	15c64 <_start@@Base+0xb568>
   16414:	e28dad29 	add	sl, sp, #2624	; 0xa40
   16418:	e1a01008 	mov	r1, r8
   1641c:	e24a0008 	sub	r0, sl, #8
   16420:	e3a02c01 	mov	r2, #256	; 0x100
   16424:	e58d8a34 	str	r8, [sp, #2612]	; 0xa34
   16428:	ebffd005 	bl	a444 <memset@plt>
   1642c:	e1a01008 	mov	r1, r8
   16430:	e59d0018 	ldr	r0, [sp, #24]
   16434:	e3a02f41 	mov	r2, #260	; 0x104
   16438:	ebffd001 	bl	a444 <memset@plt>
   1643c:	e59d0018 	ldr	r0, [sp, #24]
   16440:	e1a02009 	mov	r2, r9
   16444:	e51f1b94 	ldr	r1, [pc, #-2964]	; 158b8 <_start@@Base+0xb1bc>
   16448:	ebffd021 	bl	a4d4 <sprintf@plt>
   1644c:	e59d0018 	ldr	r0, [sp, #24]
[31m   16450:	ebffcee1 	bl	9fdc <system@plt>[0m
   16454:	eafffedc 	b	15fcc <_start@@Base+0xb8d0>
   16458:	e51f0ba4 	ldr	r0, [pc, #-2980]	; 158bc <_start@@Base+0xb1c0>
--
   16cc0:	e1a00005 	mov	r0, r5
   16cc4:	ebffcd39 	bl	a1b0 <snprintf@plt>
   16cc8:	e1a00005 	mov	r0, r5
   16ccc:	e2844001 	add	r4, r4, #1
   16cd0:	ebffcd60 	bl	a258 <nvram_get@plt>
   16cd4:	e3500000 	cmp	r0, #0
   16cd8:	11a0c000 	movne	ip, r0
   16cdc:	01a0c007 	moveq	ip, r7
   16ce0:	e5dc3000 	ldrb	r3, [ip]
   16ce4:	e3530000 	cmp	r3, #0
   16ce8:	1a00000d 	bne	16d24 <_start@@Base+0xc628>
   16cec:	e3540002 	cmp	r4, #2
   16cf0:	1affffea 	bne	16ca0 <_start@@Base+0xc5a4>
   16cf4:	e28d400c 	add	r4, sp, #12
   16cf8:	e59f1070 	ldr	r1, [pc, #112]	; 16d70 <_start@@Base+0xc674>
   16cfc:	e1a02006 	mov	r2, r6
   16d00:	e28d3f63 	add	r3, sp, #396	; 0x18c
   16d04:	e1a00004 	mov	r0, r4
   16d08:	ebffcdf1 	bl	a4d4 <sprintf@plt>
   16d0c:	e1a00004 	mov	r0, r4
[31m   16d10:	ebffccb1 	bl	9fdc <system@plt>[0m
   16d14:	e28ddf99 	add	sp, sp, #612	; 0x264
   16d18:	e8bd80f0 	pop	{r4, r5, r6, r7, pc}
--
   16e1c:	e3a02000 	mov	r2, #0
   16e20:	e303168c 	movw	r1, #13964	; 0x368c
   16e24:	e1a00003 	mov	r0, r3
   16e28:	e3401002 	movt	r1, #2
   16e2c:	e1a03002 	mov	r3, r2
   16e30:	ebffcd65 	bl	a3cc <_eval@plt>
   16e34:	e28dd014 	add	sp, sp, #20
   16e38:	e8bd8000 	ldmfd	sp!, {pc}
   16e3c:	0002570c 	andeq	r5, r2, ip, lsl #14
   16e40:	e92d4030 	push	{r4, r5, lr}
   16e44:	e24dd014 	sub	sp, sp, #20
   16e48:	e59f0094 	ldr	r0, [pc, #148]	; 16ee4 <_start@@Base+0xc7e8>
   16e4c:	ebffcd01 	bl	a258 <nvram_get@plt>
   16e50:	e3500000 	cmp	r0, #0
   16e54:	0a000003 	beq	16e68 <_start@@Base+0xc76c>
   16e58:	e59f1088 	ldr	r1, [pc, #136]	; 16ee8 <_start@@Base+0xc7ec>
   16e5c:	ebffcdc9 	bl	a588 <strcmp@plt>
   16e60:	e2505000 	subs	r5, r0, #0
   16e64:	0a00000c 	beq	16e9c <_start@@Base+0xc7a0>
   16e68:	e59f007c 	ldr	r0, [pc, #124]	; 16eec <_start@@Base+0xc7f0>
[31m   16e6c:	ebffcc5a 	bl	9fdc <system@plt>[0m
   16e70:	e59f3078 	ldr	r3, [pc, #120]	; 16ef0 <_start@@Base+0xc7f4>
   16e74:	e1a0c00d 	mov	ip, sp
--
   186d8:	e28dd014 	add	sp, sp, #20
   186dc:	e8bd8000 	ldmfd	sp!, {pc}
   186e0:	0002581c 	andeq	r5, r2, ip, lsl r8
   186e4:	e92d4038 	push	{r3, r4, r5, lr}
   186e8:	e1a05000 	mov	r5, r0
   186ec:	e3a00040 	mov	r0, #64	; 0x40
   186f0:	ebffc678 	bl	a0d8 <malloc@plt>
   186f4:	e2504000 	subs	r4, r0, #0
   186f8:	0a000011 	beq	18744 <_start@@Base+0xe048>
   186fc:	e3a0c000 	mov	ip, #0
   18700:	e1a03004 	mov	r3, r4
   18704:	e4c3c001 	strb	ip, [r3], #1
   18708:	e2833001 	add	r3, r3, #1
   1870c:	e5c4c001 	strb	ip, [r4, #1]
   18710:	e1a02005 	mov	r2, r5
   18714:	e4c3c001 	strb	ip, [r3], #1
   18718:	e59f102c 	ldr	r1, [pc, #44]	; 1874c <_start@@Base+0xe050>
   1871c:	e5c3c000 	strb	ip, [r3]
   18720:	ebffc76b 	bl	a4d4 <sprintf@plt>
   18724:	e1a00004 	mov	r0, r4
[31m   18728:	ebffc62b 	bl	9fdc <system@plt>[0m
   1872c:	e1a05000 	mov	r5, r0
   18730:	e1a00004 	mov	r0, r4
--
   18a30:	e1500004 	cmp	r0, r4
   18a34:	e59f11b4 	ldr	r1, [pc, #436]	; 18bf0 <_start@@Base+0xe4f4>
   18a38:	11a02000 	movne	r2, r0
   18a3c:	01a02007 	moveq	r2, r7
   18a40:	e1a00006 	mov	r0, r6
   18a44:	ebffc690 	bl	a48c <fprintf@plt>
   18a48:	e1a00004 	mov	r0, r4
   18a4c:	e1a0100d 	mov	r1, sp
   18a50:	ebffc68a 	bl	a480 <get_smb_account@plt>
   18a54:	e3500000 	cmp	r0, #0
   18a58:	e2844001 	add	r4, r4, #1
   18a5c:	0a000002 	beq	18a6c <_start@@Base+0xe370>
   18a60:	e59d3024 	ldr	r3, [sp, #36]	; 0x24
   18a64:	e3530000 	cmp	r3, #0
   18a68:	1a000013 	bne	18abc <_start@@Base+0xe3c0>
   18a6c:	e3540005 	cmp	r4, #5
   18a70:	1afffff4 	bne	18a48 <_start@@Base+0xe34c>
   18a74:	e1a00006 	mov	r0, r6
   18a78:	ebffc602 	bl	a288 <fclose@plt>
   18a7c:	e59f0170 	ldr	r0, [pc, #368]	; 18bf4 <_start@@Base+0xe4f8>
[31m   18a80:	ebffc555 	bl	9fdc <system@plt>[0m
   18a84:	e59f016c 	ldr	r0, [pc, #364]	; 18bf8 <_start@@Base+0xe4fc>
[31m   18a88:	ebffc553 	bl	9fdc <system@plt>[0m
   18a8c:	e3a00000 	mov	r0, #0
   18a90:	e28dd050 	add	sp, sp, #80	; 0x50
--
   18bdc:	0002603c 	andeq	r6, r2, ip, lsr r0
   18be0:	0002604c 	andeq	r6, r2, ip, asr #32
   18be4:	0002605c 	andeq	r6, r2, ip, asr r0
   18be8:	0002606c 	andeq	r6, r2, ip, rrx
   18bec:	00023444 	andeq	r3, r2, r4, asr #8
   18bf0:	0002607c 	andeq	r6, r2, ip, ror r0
   18bf4:	000260cc 	andeq	r6, r2, ip, asr #1
   18bf8:	000260e8 	andeq	r6, r2, r8, ror #1
   18bfc:	00025eac 	andeq	r5, r2, ip, lsr #29
   18c00:	00026090 	muleq	r2, r0, r0
   18c04:	000260a4 	andeq	r6, r2, r4, lsr #1
   18c08:	000260b8 	strheq	r6, [r2], -r8
   18c0c:	00023020 	andeq	r3, r2, r0, lsr #32
   18c10:	00025fc8 	andeq	r5, r2, r8, asr #31
   18c14:	00025fdc 	ldrdeq	r5, [r2], -ip
   18c18:	00025ff0 	strdeq	r5, [r2], -r0
   18c1c:	00024f44 	andeq	r4, r2, r4, asr #30
   18c20:	e30600cc 	movw	r0, #24780	; 0x60cc
   18c24:	e92d4008 	push	{r3, lr}
   18c28:	e3400002 	movt	r0, #2
[31m   18c2c:	ebffc4ea 	bl	9fdc <system@plt>[0m
   18c30:	e30600fc 	movw	r0, #24828	; 0x60fc
   18c34:	e3400002 	movt	r0, #2
[31m   18c38:	ebffc4e7 	bl	9fdc <system@plt>[0m
   18c3c:	e3060110 	movw	r0, #24848	; 0x6110
   18c40:	e3400002 	movt	r0, #2
[31m   18c44:	ebffc4e4 	bl	9fdc <system@plt>[0m
   18c48:	e30308fc 	movw	r0, #14588	; 0x38fc
   18c4c:	e3400002 	movt	r0, #2
[31m   18c50:	ebffc4e1 	bl	9fdc <system@plt>[0m
   18c54:	e3a00000 	mov	r0, #0
   18c58:	e8bd8008 	pop	{r3, pc}
--
   18c90:	e3a01000 	mov	r1, #0
   18c94:	e1a06000 	mov	r6, r0
   18c98:	e3a02080 	mov	r2, #128	; 0x80
   18c9c:	e1a00004 	mov	r0, r4
   18ca0:	ebffc5e7 	bl	a444 <memset@plt>
   18ca4:	e59f1064 	ldr	r1, [pc, #100]	; 18d10 <_start@@Base+0xe614>
   18ca8:	e1a02007 	mov	r2, r7
   18cac:	e1a03006 	mov	r3, r6
   18cb0:	e1a00004 	mov	r0, r4
   18cb4:	e58d5000 	str	r5, [sp]
   18cb8:	ebffc605 	bl	a4d4 <sprintf@plt>
   18cbc:	e59f003c 	ldr	r0, [pc, #60]	; 18d00 <_start@@Base+0xe604>
   18cc0:	ebffc564 	bl	a258 <nvram_get@plt>
   18cc4:	e3500000 	cmp	r0, #0
   18cc8:	0a000003 	beq	18cdc <_start@@Base+0xe5e0>
   18ccc:	e59f1040 	ldr	r1, [pc, #64]	; 18d14 <_start@@Base+0xe618>
   18cd0:	ebffc62c 	bl	a588 <strcmp@plt>
   18cd4:	e3500000 	cmp	r0, #0
   18cd8:	0a000003 	beq	18cec <_start@@Base+0xe5f0>
   18cdc:	e59f0034 	ldr	r0, [pc, #52]	; 18d18 <_start@@Base+0xe61c>
[31m   18ce0:	ebffc4bd 	bl	9fdc <system@plt>[0m
   18ce4:	e28dd08c 	add	sp, sp, #140	; 0x8c
   18ce8:	e8bd80f0 	pop	{r4, r5, r6, r7, pc}
   18cec:	e59f0024 	ldr	r0, [pc, #36]	; 18d18 <_start@@Base+0xe61c>
[31m   18cf0:	ebffc4b9 	bl	9fdc <system@plt>[0m
   18cf4:	e1a00004 	mov	r0, r4
[31m   18cf8:	ebffc4b7 	bl	9fdc <system@plt>[0m
   18cfc:	eafffff8 	b	18ce4 <_start@@Base+0xe5e8>
   18d00:	00026124 	andeq	r6, r2, r4, lsr #2
   18d04:	00026134 	andeq	r6, r2, r4, lsr r1
   18d08:	00026144 	andeq	r6, r2, r4, asr #2
   18d0c:	00026150 	andeq	r6, r2, r0, asr r1
   18d10:	0002615c 	andeq	r6, r2, ip, asr r1
   18d14:	0002409c 	muleq	r2, ip, r0
   18d18:	0002616c 	andeq	r6, r2, ip, ror #2
   18d1c:	e92d4008 	push	{r3, lr}
   18d20:	ebfff846 	bl	16e40 <_start@@Base+0xc744>
   18d24:	ebfffc36 	bl	17e04 <_start@@Base+0xd708>
   18d28:	e306017c 	movw	r0, #24956	; 0x617c
   18d2c:	e3400002 	movt	r0, #2
[31m   18d30:	ebffc4a9 	bl	9fdc <system@plt>[0m
   18d34:	ebfff7ba 	bl	16c24 <_start@@Base+0xc528>
   18d38:	ebfff622 	bl	165c8 <_start@@Base+0xbecc>
--
   18d40:	ebfffc6f 	bl	17f04 <_start@@Base+0xd808>
   18d44:	ebfffe0c 	bl	1857c <_start@@Base+0xde80>
   18d48:	ebfffc96 	bl	17fa8 <_start@@Base+0xd8ac>
   18d4c:	ebfffd39 	bl	18238 <_start@@Base+0xdb3c>
   18d50:	ebfffd88 	bl	18378 <_start@@Base+0xdc7c>
   18d54:	ebfffde3 	bl	184e8 <_start@@Base+0xddec>
   18d58:	ebfffe43 	bl	1866c <_start@@Base+0xdf70>
   18d5c:	ebfffe24 	bl	185f4 <_start@@Base+0xdef8>
   18d60:	ebfffe8e 	bl	187a0 <_start@@Base+0xe0a4>
   18d64:	e3a00000 	mov	r0, #0
   18d68:	e8bd8008 	pop	{r3, pc}
   18d6c:	e92d4008 	push	{r3, lr}
   18d70:	ebfffd71 	bl	1833c <_start@@Base+0xdc40>
   18d74:	ebfffc9a 	bl	17fe4 <_start@@Base+0xd8e8>
   18d78:	ebfffe0e 	bl	185b8 <_start@@Base+0xdebc>
   18d7c:	ebfffc7a 	bl	17f6c <_start@@Base+0xd870>
   18d80:	ebfff780 	bl	16b88 <_start@@Base+0xc48c>
   18d84:	ebfff7fb 	bl	16d78 <_start@@Base+0xc67c>
   18d88:	e3060194 	movw	r0, #24980	; 0x6194
   18d8c:	e3400002 	movt	r0, #2
[31m   18d90:	ebffc491 	bl	9fdc <system@plt>[0m
   18d94:	ebfff829 	bl	16e40 <_start@@Base+0xc744>
   18d98:	ebfffdc3 	bl	184ac <_start@@Base+0xddb0>
--
   191c0:	11a03000 	movne	r3, r0
   191c4:	01a03007 	moveq	r3, r7
   191c8:	e1a02005 	mov	r2, r5
   191cc:	e1a00006 	mov	r0, r6
   191d0:	ebffd5de 	bl	e950 <_start@@Base+0x4254>
   191d4:	e1a00006 	mov	r0, r6
   191d8:	ebffeac6 	bl	13cf8 <_start@@Base+0x95fc>
   191dc:	e3a00000 	mov	r0, #0
   191e0:	e28dd084 	add	sp, sp, #132	; 0x84
   191e4:	e8bd80f0 	pop	{r4, r5, r6, r7, pc}
   191e8:	e59f70c0 	ldr	r7, [pc, #192]	; 192b0 <_start@@Base+0xebb4>
   191ec:	e59f00f8 	ldr	r0, [pc, #248]	; 192ec <_start@@Base+0xebf0>
   191f0:	ebffc418 	bl	a258 <nvram_get@plt>
   191f4:	e3500000 	cmp	r0, #0
   191f8:	11a07000 	movne	r7, r0
   191fc:	e5d73000 	ldrb	r3, [r7]
   19200:	e3530000 	cmp	r3, #0
   19204:	1a00001a 	bne	19274 <_start@@Base+0xeb78>
   19208:	e59f00e0 	ldr	r0, [pc, #224]	; 192f0 <_start@@Base+0xebf4>
   1920c:	e28d7074 	add	r7, sp, #116	; 0x74
[31m   19210:	ebffc371 	bl	9fdc <system@plt>[0m
   19214:	e59f30d8 	ldr	r3, [pc, #216]	; 192f4 <_start@@Base+0xebf8>
   19218:	e8930007 	ldm	r3, {r0, r1, r2}
--
   193c0:	ebffc401 	bl	a3cc <_eval@plt>
   193c4:	e3a00000 	mov	r0, #0
   193c8:	e28dd014 	add	sp, sp, #20
   193cc:	e8bd8030 	pop	{r4, r5, pc}
   193d0:	e1a00004 	mov	r0, r4
   193d4:	e59f106c 	ldr	r1, [pc, #108]	; 19448 <_start@@Base+0xed4c>
   193d8:	ebffc467 	bl	a57c <strstr@plt>
   193dc:	e2505000 	subs	r5, r0, #0
   193e0:	0a000001 	beq	193ec <_start@@Base+0xecf0>
   193e4:	ebfffeba 	bl	18ed4 <_start@@Base+0xe7d8>
   193e8:	eafffff6 	b	193c8 <_start@@Base+0xeccc>
   193ec:	e1a00004 	mov	r0, r4
   193f0:	e59f1054 	ldr	r1, [pc, #84]	; 1944c <_start@@Base+0xed50>
   193f4:	ebffc460 	bl	a57c <strstr@plt>
   193f8:	e3500000 	cmp	r0, #0
   193fc:	0a000005 	beq	19418 <_start@@Base+0xed1c>
   19400:	ebfffeb3 	bl	18ed4 <_start@@Base+0xe7d8>
   19404:	e1a00005 	mov	r0, r5
   19408:	eaffffee 	b	193c8 <_start@@Base+0xeccc>
   1940c:	e59f003c 	ldr	r0, [pc, #60]	; 19450 <_start@@Base+0xed54>
[31m   19410:	ebffc2f1 	bl	9fdc <system@plt>[0m
   19414:	eaffffe1 	b	193a0 <_start@@Base+0xeca4>
   19418:	e3a00016 	mov	r0, #22
--
   1b89c:	e2433061 	sub	r3, r3, #97	; 0x61
   1b8a0:	e6ef3073 	uxtb	r3, r3
   1b8a4:	e3530003 	cmp	r3, #3
   1b8a8:	9a00002d 	bls	1b964 <_start@@Base+0x11268>
   1b8ac:	e59d0014 	ldr	r0, [sp, #20]
   1b8b0:	ebffba9e 	bl	a330 <close@plt>
   1b8b4:	e59f04b4 	ldr	r0, [pc, #1204]	; 1bd70 <_start@@Base+0x11674>
   1b8b8:	ebffbad8 	bl	a420 <unlink@plt>
   1b8bc:	e3a00000 	mov	r0, #0
   1b8c0:	eaffffac 	b	1b778 <_start@@Base+0x1107c>
   1b8c4:	e1a00009 	mov	r0, r9
   1b8c8:	e59f14b4 	ldr	r1, [pc, #1204]	; 1bd84 <_start@@Base+0x11688>
   1b8cc:	ebffbb2d 	bl	a588 <strcmp@plt>
   1b8d0:	e2508000 	subs	r8, r0, #0
   1b8d4:	1afffff4 	bne	1b8ac <_start@@Base+0x111b0>
   1b8d8:	e1a02004 	mov	r2, r4
   1b8dc:	e59f14a4 	ldr	r1, [pc, #1188]	; 1bd88 <_start@@Base+0x1168c>
   1b8e0:	e1a00006 	mov	r0, r6
   1b8e4:	ebffbafa 	bl	a4d4 <sprintf@plt>
   1b8e8:	e1a00006 	mov	r0, r6
[31m   1b8ec:	ebffb9ba 	bl	9fdc <system@plt>[0m
   1b8f0:	e1a01008 	mov	r1, r8
   1b8f4:	e3a02040 	mov	r2, #64	; 0x40
--
   1b98c:	e3cb3eff 	bic	r3, fp, #4080	; 0xff0
   1b990:	e18ac62e 	orr	ip, sl, lr, lsr #12
   1b994:	e3c3300f 	bic	r3, r3, #15
   1b998:	e1822008 	orr	r2, r2, r8
   1b99c:	e30611c0 	movw	r1, #25024	; 0x61c0
   1b9a0:	e1833009 	orr	r3, r3, r9
   1b9a4:	e182200c 	orr	r2, r2, ip
   1b9a8:	e1a00005 	mov	r0, r5
   1b9ac:	ebffb969 	bl	9f58 <mknod@plt>
   1b9b0:	e1a00004 	mov	r0, r4
   1b9b4:	e30011ff 	movw	r1, #511	; 0x1ff
   1b9b8:	ebffb9c0 	bl	a0c0 <mkdir@plt>
   1b9bc:	e3500000 	cmp	r0, #0
   1b9c0:	0a000057 	beq	1bb24 <_start@@Base+0x11428>
   1b9c4:	e59f13c4 	ldr	r1, [pc, #964]	; 1bd90 <_start@@Base+0x11694>
   1b9c8:	e1a02005 	mov	r2, r5
   1b9cc:	e1a03004 	mov	r3, r4
   1b9d0:	e1a00006 	mov	r0, r6
   1b9d4:	ebffbabe 	bl	a4d4 <sprintf@plt>
   1b9d8:	e1a00006 	mov	r0, r6
[31m   1b9dc:	ebffb97e 	bl	9fdc <system@plt>[0m
   1b9e0:	e3500000 	cmp	r0, #0
   1b9e4:	0a000027 	beq	1ba88 <_start@@Base+0x1138c>
--
   1ba30:	13a05001 	movne	r5, #1
   1ba34:	03a05002 	moveq	r5, #2
   1ba38:	e1a00005 	mov	r0, r5
   1ba3c:	ebfffed3 	bl	1b590 <_start@@Base+0x10e94>
   1ba40:	e3a00001 	mov	r0, #1
   1ba44:	ebffb973 	bl	a018 <sleep@plt>
   1ba48:	e1a00005 	mov	r0, r5
   1ba4c:	e3a01001 	mov	r1, #1
   1ba50:	ebfffece 	bl	1b590 <_start@@Base+0x10e94>
   1ba54:	e28d4f9d 	add	r4, sp, #628	; 0x274
   1ba58:	e3a01000 	mov	r1, #0
   1ba5c:	e3a02040 	mov	r2, #64	; 0x40
   1ba60:	e1a00004 	mov	r0, r4
   1ba64:	ebffba76 	bl	a444 <memset@plt>
   1ba68:	e1a00004 	mov	r0, r4
   1ba6c:	e59f1324 	ldr	r1, [pc, #804]	; 1bd98 <_start@@Base+0x1169c>
   1ba70:	e1a02007 	mov	r2, r7
   1ba74:	e59f3320 	ldr	r3, [pc, #800]	; 1bd9c <_start@@Base+0x116a0>
   1ba78:	ebffba95 	bl	a4d4 <sprintf@plt>
   1ba7c:	e1a00004 	mov	r0, r4
[31m   1ba80:	ebffb955 	bl	9fdc <system@plt>[0m
   1ba84:	eaffff88 	b	1b8ac <_start@@Base+0x111b0>
   1ba88:	e59f0310 	ldr	r0, [pc, #784]	; 1bda0 <_start@@Base+0x116a4>
--
   1baec:	1a000004 	bne	1bb04 <_start@@Base+0x11408>
   1baf0:	ea000026 	b	1bb90 <_start@@Base+0x11494>
   1baf4:	e5981000 	ldr	r1, [r8]
   1baf8:	ebffba9f 	bl	a57c <strstr@plt>
   1bafc:	e3500000 	cmp	r0, #0
   1bb00:	1a00001b 	bne	1bb74 <_start@@Base+0x11478>
   1bb04:	e3a01c01 	mov	r1, #256	; 0x100
   1bb08:	e1a02006 	mov	r2, r6
   1bb0c:	e1a00005 	mov	r0, r5
   1bb10:	ebffba15 	bl	a36c <fgets@plt>
   1bb14:	e3500000 	cmp	r0, #0
   1bb18:	e1a00005 	mov	r0, r5
   1bb1c:	1afffff4 	bne	1baf4 <_start@@Base+0x113f8>
   1bb20:	ea000018 	b	1bb88 <_start@@Base+0x1148c>
   1bb24:	e59f1294 	ldr	r1, [pc, #660]	; 1bdc0 <_start@@Base+0x116c4>
   1bb28:	e1a02005 	mov	r2, r5
   1bb2c:	e1a03004 	mov	r3, r4
   1bb30:	e1a00006 	mov	r0, r6
   1bb34:	ebffba66 	bl	a4d4 <sprintf@plt>
   1bb38:	e1a00006 	mov	r0, r6
[31m   1bb3c:	ebffb926 	bl	9fdc <system@plt>[0m
   1bb40:	e3500000 	cmp	r0, #0
   1bb44:	1affff9e 	bne	1b9c4 <_start@@Base+0x112c8>
--
   1d38c:	e0823003 	add	r3, r2, r3
   1d390:	e3a01000 	mov	r1, #0
   1d394:	e5532020 	ldrb	r2, [r3, #-32]	; 0xffffffe0
   1d398:	e1a00005 	mov	r0, r5
   1d39c:	e352000a 	cmp	r2, #10
   1d3a0:	e3a02c01 	mov	r2, #256	; 0x100
   1d3a4:	05438020 	strbeq	r8, [r3, #-32]	; 0xffffffe0
   1d3a8:	ebffb425 	bl	a444 <memset@plt>
   1d3ac:	e59f017c 	ldr	r0, [pc, #380]	; 1d530 <_start@@Base+0x12e34>
   1d3b0:	ebffb3a8 	bl	a258 <nvram_get@plt>
   1d3b4:	e59fc168 	ldr	ip, [pc, #360]	; 1d524 <_start@@Base+0x12e28>
   1d3b8:	e3500000 	cmp	r0, #0
   1d3bc:	11a0c000 	movne	ip, r0
   1d3c0:	e3a01c01 	mov	r1, #256	; 0x100
   1d3c4:	e59f2170 	ldr	r2, [pc, #368]	; 1d53c <_start@@Base+0x12e40>
   1d3c8:	e1a03006 	mov	r3, r6
   1d3cc:	e1a00005 	mov	r0, r5
   1d3d0:	e58dc000 	str	ip, [sp]
   1d3d4:	ebffb375 	bl	a1b0 <snprintf@plt>
   1d3d8:	e1a00005 	mov	r0, r5
[31m   1d3dc:	ebffb2fe 	bl	9fdc <system@plt>[0m
   1d3e0:	e59f0158 	ldr	r0, [pc, #344]	; 1d540 <_start@@Base+0x12e44>
[31m   1d3e4:	ebffb2fc 	bl	9fdc <system@plt>[0m
   1d3e8:	e28d6f43 	add	r6, sp, #268	; 0x10c
   1d3ec:	e3a01000 	mov	r1, #0
--
   1d4c4:	e1cc3abe 	strh	r3, [ip, #174]	; 0xae
   1d4c8:	e1a02007 	mov	r2, r7
   1d4cc:	e3a01001 	mov	r1, #1
   1d4d0:	e1a00006 	mov	r0, r6
   1d4d4:	e58d910c 	str	r9, [sp, #268]	; 0x10c
   1d4d8:	ebffff48 	bl	1d200 <_start@@Base+0x12b04>
   1d4dc:	e1a00008 	mov	r0, r8
   1d4e0:	ebffb35c 	bl	a258 <nvram_get@plt>
   1d4e4:	e1500009 	cmp	r0, r9
   1d4e8:	e1a01009 	mov	r1, r9
   1d4ec:	11a0a000 	movne	sl, r0
   1d4f0:	e3a02c01 	mov	r2, #256	; 0x100
   1d4f4:	e1a00005 	mov	r0, r5
   1d4f8:	ebffb3d1 	bl	a444 <memset@plt>
   1d4fc:	e1a00005 	mov	r0, r5
   1d500:	e3a01c01 	mov	r1, #256	; 0x100
   1d504:	e59f2044 	ldr	r2, [pc, #68]	; 1d550 <_start@@Base+0x12e54>
   1d508:	e1a0300a 	mov	r3, sl
   1d50c:	ebffb327 	bl	a1b0 <snprintf@plt>
   1d510:	e1a00005 	mov	r0, r5
[31m   1d514:	ebffb2b0 	bl	9fdc <system@plt>[0m
   1d518:	eaffff82 	b	1d328 <_start@@Base+0x12c2c>
   1d51c:	00023ca0 	andeq	r3, r2, r0, lsr #25
--
   1d7a0:	ebffb2ac 	bl	a258 <nvram_get@plt>
   1d7a4:	e3500000 	cmp	r0, #0
   1d7a8:	0a000003 	beq	1d7bc <_start@@Base+0x130c0>
   1d7ac:	e59f1ad4 	ldr	r1, [pc, #2772]	; 1e288 <_start@@Base+0x13b8c>
   1d7b0:	ebffb374 	bl	a588 <strcmp@plt>
   1d7b4:	e3500000 	cmp	r0, #0
   1d7b8:	0a0007aa 	beq	1f668 <_start@@Base+0x14f6c>
   1d7bc:	e28d4e2a 	add	r4, sp, #672	; 0x2a0
   1d7c0:	e3a01000 	mov	r1, #0
   1d7c4:	e3a02078 	mov	r2, #120	; 0x78
   1d7c8:	e1a00004 	mov	r0, r4
   1d7cc:	ebffb31c 	bl	a444 <memset@plt>
   1d7d0:	e1a0300a 	mov	r3, sl
   1d7d4:	e3a01078 	mov	r1, #120	; 0x78
   1d7d8:	e59f2a3c 	ldr	r2, [pc, #2620]	; 1e21c <_start@@Base+0x13b20>
   1d7dc:	e1a00004 	mov	r0, r4
   1d7e0:	e58d7000 	str	r7, [sp]
   1d7e4:	e58d5004 	str	r5, [sp, #4]
   1d7e8:	ebffb270 	bl	a1b0 <snprintf@plt>
   1d7ec:	e1a00004 	mov	r0, r4
[31m   1d7f0:	ebffb1f9 	bl	9fdc <system@plt>[0m
   1d7f4:	e3a01000 	mov	r1, #0
   1d7f8:	e3a02078 	mov	r2, #120	; 0x78
   1d7fc:	e1a00004 	mov	r0, r4
   1d800:	ebffb30f 	bl	a444 <memset@plt>
   1d804:	e1a00004 	mov	r0, r4
   1d808:	e3a01078 	mov	r1, #120	; 0x78
   1d80c:	e59f2a0c 	ldr	r2, [pc, #2572]	; 1e220 <_start@@Base+0x13b24>
   1d810:	e1a0300a 	mov	r3, sl
   1d814:	e88d0180 	stm	sp, {r7, r8}
   1d818:	ebffb264 	bl	a1b0 <snprintf@plt>
   1d81c:	e1a00004 	mov	r0, r4
[31m   1d820:	ebffb1ed 	bl	9fdc <system@plt>[0m
   1d824:	e3a01000 	mov	r1, #0
   1d828:	e3a02078 	mov	r2, #120	; 0x78
   1d82c:	e1a00004 	mov	r0, r4
   1d830:	ebffb303 	bl	a444 <memset@plt>
   1d834:	e1a0300a 	mov	r3, sl
   1d838:	e3a01078 	mov	r1, #120	; 0x78
   1d83c:	e59f29e0 	ldr	r2, [pc, #2528]	; 1e224 <_start@@Base+0x13b28>
   1d840:	e1a00004 	mov	r0, r4
   1d844:	e58d7000 	str	r7, [sp]
   1d848:	e98d0120 	stmib	sp, {r5, r8}
   1d84c:	ebffb257 	bl	a1b0 <snprintf@plt>
   1d850:	e1a00004 	mov	r0, r4
[31m   1d854:	ebffb1e0 	bl	9fdc <system@plt>[0m
   1d858:	e3a01000 	mov	r1, #0
   1d85c:	e3a02078 	mov	r2, #120	; 0x78
   1d860:	e1a00004 	mov	r0, r4
   1d864:	ebffb2f6 	bl	a444 <memset@plt>
   1d868:	e3a01078 	mov	r1, #120	; 0x78
   1d86c:	e59f29b4 	ldr	r2, [pc, #2484]	; 1e228 <_start@@Base+0x13b2c>
   1d870:	e1a0300a 	mov	r3, sl
   1d874:	e1a00004 	mov	r0, r4
   1d878:	e88d0180 	stm	sp, {r7, r8}
   1d87c:	e58d5008 	str	r5, [sp, #8]
   1d880:	ebffb24a 	bl	a1b0 <snprintf@plt>
   1d884:	e1a00004 	mov	r0, r4
[31m   1d888:	ebffb1d3 	bl	9fdc <system@plt>[0m
   1d88c:	e3a00000 	mov	r0, #0
   1d890:	eaffff76 	b	1d670 <_start@@Base+0x12f74>
--
   1da9c:	e59fb7d0 	ldr	fp, [pc, #2000]	; 1e274 <_start@@Base+0x13b78>
   1daa0:	e3a01c01 	mov	r1, #256	; 0x100
   1daa4:	e59f27a0 	ldr	r2, [pc, #1952]	; 1e24c <_start@@Base+0x13b50>
   1daa8:	e190c0be 	ldrh	ip, [r0, lr]
   1daac:	e1a00403 	lsl	r0, r3, #8
   1dab0:	e58d7000 	str	r7, [sp]
   1dab4:	e1800423 	orr	r0, r0, r3, lsr #8
   1dab8:	e1a0300a 	mov	r3, sl
   1dabc:	e58db008 	str	fp, [sp, #8]
   1dac0:	e1a0e40c 	lsl	lr, ip, #8
   1dac4:	e6ff5070 	uxth	r5, r0
   1dac8:	e59d0068 	ldr	r0, [sp, #104]	; 0x68
   1dacc:	e18ec42c 	orr	ip, lr, ip, lsr #8
   1dad0:	e58d500c 	str	r5, [sp, #12]
   1dad4:	e6ffc07c 	uxth	ip, ip
   1dad8:	e58d0004 	str	r0, [sp, #4]
   1dadc:	e1a00004 	mov	r0, r4
   1dae0:	e58dc010 	str	ip, [sp, #16]
   1dae4:	ebffb1b1 	bl	a1b0 <snprintf@plt>
   1dae8:	e1a00004 	mov	r0, r4
[31m   1daec:	ebffb13a 	bl	9fdc <system@plt>[0m
   1daf0:	e3a01000 	mov	r1, #0
   1daf4:	e3a02c01 	mov	r2, #256	; 0x100
--
   1db58:	e6ff5075 	uxth	r5, r5
   1db5c:	e1a0840c 	lsl	r8, ip, #8
   1db60:	e58d0014 	str	r0, [sp, #20]
   1db64:	e58d500c 	str	r5, [sp, #12]
   1db68:	e1a0540e 	lsl	r5, lr, #8
   1db6c:	e188842c 	orr	r8, r8, ip, lsr #8
   1db70:	e3a01c01 	mov	r1, #256	; 0x100
   1db74:	e185c42e 	orr	ip, r5, lr, lsr #8
   1db78:	e59de048 	ldr	lr, [sp, #72]	; 0x48
   1db7c:	e59d5068 	ldr	r5, [sp, #104]	; 0x68
   1db80:	e6ff8078 	uxth	r8, r8
   1db84:	e6ffc07c 	uxth	ip, ip
   1db88:	e1a00004 	mov	r0, r4
   1db8c:	e58de010 	str	lr, [sp, #16]
   1db90:	e58dc01c 	str	ip, [sp, #28]
   1db94:	e98d0820 	stmib	sp, {r5, fp}
   1db98:	e58d8018 	str	r8, [sp, #24]
   1db9c:	e58d7000 	str	r7, [sp]
   1dba0:	ebffb182 	bl	a1b0 <snprintf@plt>
   1dba4:	e1a00004 	mov	r0, r4
[31m   1dba8:	ebffb10b 	bl	9fdc <system@plt>[0m
   1dbac:	e3a01000 	mov	r1, #0
   1dbb0:	e3a02c01 	mov	r2, #256	; 0x100
--
   1dbd4:	e3a01c01 	mov	r1, #256	; 0x100
   1dbd8:	e192e0b3 	ldrh	lr, [r2, r3]
   1dbdc:	e1a0300a 	mov	r3, sl
   1dbe0:	e58db008 	str	fp, [sp, #8]
   1dbe4:	e59db068 	ldr	fp, [sp, #104]	; 0x68
   1dbe8:	e1a0540c 	lsl	r5, ip, #8
   1dbec:	e58d0004 	str	r0, [sp, #4]
   1dbf0:	e1a0840e 	lsl	r8, lr, #8
   1dbf4:	e1a00004 	mov	r0, r4
   1dbf8:	e185542c 	orr	r5, r5, ip, lsr #8
   1dbfc:	e59f2630 	ldr	r2, [pc, #1584]	; 1e234 <_start@@Base+0x13b38>
   1dc00:	e188c42e 	orr	ip, r8, lr, lsr #8
   1dc04:	e58d7000 	str	r7, [sp]
   1dc08:	e6ffe075 	uxth	lr, r5
   1dc0c:	e58db014 	str	fp, [sp, #20]
   1dc10:	e6ffc07c 	uxth	ip, ip
   1dc14:	e58de00c 	str	lr, [sp, #12]
   1dc18:	e58dc010 	str	ip, [sp, #16]
   1dc1c:	ebffb163 	bl	a1b0 <snprintf@plt>
   1dc20:	e1a00004 	mov	r0, r4
[31m   1dc24:	ebffb0ec 	bl	9fdc <system@plt>[0m
   1dc28:	eaffff52 	b	1d978 <_start@@Base+0x1327c>
   1dc2c:	e59f0650 	ldr	r0, [pc, #1616]	; 1e284 <_start@@Base+0x13b88>
--
   1dc70:	e1a02403 	lsl	r2, r3, #8
   1dc74:	e19be0b1 	ldrh	lr, [fp, r1]
   1dc78:	e1a00004 	mov	r0, r4
   1dc7c:	e1823423 	orr	r3, r2, r3, lsr #8
   1dc80:	e59db068 	ldr	fp, [sp, #104]	; 0x68
   1dc84:	e59f55f0 	ldr	r5, [pc, #1520]	; 1e27c <_start@@Base+0x13b80>
   1dc88:	e3a01c01 	mov	r1, #256	; 0x100
   1dc8c:	e6ff8073 	uxth	r8, r3
   1dc90:	e59f25b4 	ldr	r2, [pc, #1460]	; 1e24c <_start@@Base+0x13b50>
   1dc94:	e1a0c40e 	lsl	ip, lr, #8
   1dc98:	e1a0300a 	mov	r3, sl
   1dc9c:	e58db004 	str	fp, [sp, #4]
   1dca0:	e18cc42e 	orr	ip, ip, lr, lsr #8
   1dca4:	e58d7000 	str	r7, [sp]
   1dca8:	e58d5008 	str	r5, [sp, #8]
   1dcac:	e6ffc07c 	uxth	ip, ip
   1dcb0:	e58d800c 	str	r8, [sp, #12]
   1dcb4:	e58dc010 	str	ip, [sp, #16]
   1dcb8:	ebffb13c 	bl	a1b0 <snprintf@plt>
   1dcbc:	e1a00004 	mov	r0, r4
[31m   1dcc0:	ebffb0c5 	bl	9fdc <system@plt>[0m
   1dcc4:	e1a00004 	mov	r0, r4
   1dcc8:	e3a01000 	mov	r1, #0
--
   1dd38:	e58db06c 	str	fp, [sp, #108]	; 0x6c
   1dd3c:	e59db05c 	ldr	fp, [sp, #92]	; 0x5c
   1dd40:	e59d006c 	ldr	r0, [sp, #108]	; 0x6c
   1dd44:	e58d7000 	str	r7, [sp]
   1dd48:	e6ffb07b 	uxth	fp, fp
   1dd4c:	e180c42c 	orr	ip, r0, ip, lsr #8
   1dd50:	e1a00004 	mov	r0, r4
   1dd54:	e58db00c 	str	fp, [sp, #12]
   1dd58:	e1a0b40e 	lsl	fp, lr, #8
   1dd5c:	e18be42e 	orr	lr, fp, lr, lsr #8
   1dd60:	e6ffb07c 	uxth	fp, ip
   1dd64:	e59dc068 	ldr	ip, [sp, #104]	; 0x68
   1dd68:	e58db018 	str	fp, [sp, #24]
   1dd6c:	e58dc004 	str	ip, [sp, #4]
   1dd70:	e6ffc07e 	uxth	ip, lr
   1dd74:	e59de048 	ldr	lr, [sp, #72]	; 0x48
   1dd78:	e58dc01c 	str	ip, [sp, #28]
   1dd7c:	e58de010 	str	lr, [sp, #16]
   1dd80:	ebffb10a 	bl	a1b0 <snprintf@plt>
   1dd84:	e1a00004 	mov	r0, r4
[31m   1dd88:	ebffb093 	bl	9fdc <system@plt>[0m
   1dd8c:	e3a01000 	mov	r1, #0
   1dd90:	e3a02c01 	mov	r2, #256	; 0x100
--
   1ddb0:	e1a0300a 	mov	r3, sl
   1ddb4:	e192e0b8 	ldrh	lr, [r2, r8]
   1ddb8:	e3a01c01 	mov	r1, #256	; 0x100
   1ddbc:	e58d5008 	str	r5, [sp, #8]
   1ddc0:	e59d5068 	ldr	r5, [sp, #104]	; 0x68
   1ddc4:	e1a0840c 	lsl	r8, ip, #8
   1ddc8:	e58d0004 	str	r0, [sp, #4]
   1ddcc:	e1a0b40e 	lsl	fp, lr, #8
   1ddd0:	e1a00004 	mov	r0, r4
   1ddd4:	e188842c 	orr	r8, r8, ip, lsr #8
   1ddd8:	e59f2454 	ldr	r2, [pc, #1108]	; 1e234 <_start@@Base+0x13b38>
   1dddc:	e18bc42e 	orr	ip, fp, lr, lsr #8
   1dde0:	e58d7000 	str	r7, [sp]
   1dde4:	e6ffe078 	uxth	lr, r8
   1dde8:	e58d5014 	str	r5, [sp, #20]
   1ddec:	e6ffc07c 	uxth	ip, ip
   1ddf0:	e58de00c 	str	lr, [sp, #12]
   1ddf4:	e58dc010 	str	ip, [sp, #16]
   1ddf8:	ebffb0ec 	bl	a1b0 <snprintf@plt>
   1ddfc:	e1a00004 	mov	r0, r4
[31m   1de00:	ebffb075 	bl	9fdc <system@plt>[0m
   1de04:	eafffed6 	b	1d964 <_start@@Base+0x13268>
   1de08:	e3a01000 	mov	r1, #0
--
   1de40:	e1a0b40c 	lsl	fp, ip, #8
   1de44:	e58d7000 	str	r7, [sp]
   1de48:	e58d5008 	str	r5, [sp, #8]
   1de4c:	e58db05c 	str	fp, [sp, #92]	; 0x5c
   1de50:	e1a0b40e 	lsl	fp, lr, #8
   1de54:	e58d6004 	str	r6, [sp, #4]
   1de58:	e58db048 	str	fp, [sp, #72]	; 0x48
   1de5c:	e59db05c 	ldr	fp, [sp, #92]	; 0x5c
   1de60:	e18bc42c 	orr	ip, fp, ip, lsr #8
   1de64:	e59fb408 	ldr	fp, [pc, #1032]	; 1e274 <_start@@Base+0x13b78>
   1de68:	e58dc05c 	str	ip, [sp, #92]	; 0x5c
   1de6c:	e59dc048 	ldr	ip, [sp, #72]	; 0x48
   1de70:	e18ce42e 	orr	lr, ip, lr, lsr #8
   1de74:	e59dc05c 	ldr	ip, [sp, #92]	; 0x5c
   1de78:	e6ffc07c 	uxth	ip, ip
   1de7c:	e58dc00c 	str	ip, [sp, #12]
   1de80:	e6ffc07e 	uxth	ip, lr
   1de84:	e58dc010 	str	ip, [sp, #16]
   1de88:	ebffb0c8 	bl	a1b0 <snprintf@plt>
   1de8c:	e1a00004 	mov	r0, r4
[31m   1de90:	ebffb051 	bl	9fdc <system@plt>[0m
   1de94:	e1a00004 	mov	r0, r4
   1de98:	e3a01000 	mov	r1, #0
--
   1df20:	e59de03c 	ldr	lr, [sp, #60]	; 0x3c
   1df24:	e58d6004 	str	r6, [sp, #4]
   1df28:	e18cc42e 	orr	ip, ip, lr, lsr #8
   1df2c:	e59de034 	ldr	lr, [sp, #52]	; 0x34
   1df30:	e58dc06c 	str	ip, [sp, #108]	; 0x6c
   1df34:	e59dc074 	ldr	ip, [sp, #116]	; 0x74
   1df38:	e18cc42e 	orr	ip, ip, lr, lsr #8
   1df3c:	e59de06c 	ldr	lr, [sp, #108]	; 0x6c
   1df40:	e58dc074 	str	ip, [sp, #116]	; 0x74
   1df44:	e59dc048 	ldr	ip, [sp, #72]	; 0x48
   1df48:	e6ffe07e 	uxth	lr, lr
   1df4c:	e58de018 	str	lr, [sp, #24]
   1df50:	e59de074 	ldr	lr, [sp, #116]	; 0x74
   1df54:	e58dc00c 	str	ip, [sp, #12]
   1df58:	e59dc05c 	ldr	ip, [sp, #92]	; 0x5c
   1df5c:	e58dc010 	str	ip, [sp, #16]
   1df60:	e6ffc07e 	uxth	ip, lr
   1df64:	e58dc01c 	str	ip, [sp, #28]
   1df68:	ebffb090 	bl	a1b0 <snprintf@plt>
   1df6c:	e1a00004 	mov	r0, r4
[31m   1df70:	ebffb019 	bl	9fdc <system@plt>[0m
   1df74:	e3a01000 	mov	r1, #0
   1df78:	e3a02c01 	mov	r2, #256	; 0x100
--
   1dfb8:	e1a00004 	mov	r0, r4
   1dfbc:	e58d7000 	str	r7, [sp]
   1dfc0:	e1a0c40c 	lsl	ip, ip, #8
   1dfc4:	e58d6014 	str	r6, [sp, #20]
   1dfc8:	e58dc048 	str	ip, [sp, #72]	; 0x48
   1dfcc:	e1a0c40e 	lsl	ip, lr, #8
   1dfd0:	e59d5048 	ldr	r5, [sp, #72]	; 0x48
   1dfd4:	e58dc05c 	str	ip, [sp, #92]	; 0x5c
   1dfd8:	e59dc06c 	ldr	ip, [sp, #108]	; 0x6c
   1dfdc:	e185542c 	orr	r5, r5, ip, lsr #8
   1dfe0:	e58d5048 	str	r5, [sp, #72]	; 0x48
   1dfe4:	e59d505c 	ldr	r5, [sp, #92]	; 0x5c
   1dfe8:	e59dc048 	ldr	ip, [sp, #72]	; 0x48
   1dfec:	e185e42e 	orr	lr, r5, lr, lsr #8
   1dff0:	e6ff507c 	uxth	r5, ip
   1dff4:	e6ffc07e 	uxth	ip, lr
   1dff8:	e58d500c 	str	r5, [sp, #12]
   1dffc:	e58dc010 	str	ip, [sp, #16]
   1e000:	ebffb06a 	bl	a1b0 <snprintf@plt>
   1e004:	e1a00004 	mov	r0, r4
[31m   1e008:	ebffaff3 	bl	9fdc <system@plt>[0m
   1e00c:	e1a00004 	mov	r0, r4
   1e010:	e3a01000 	mov	r1, #0
--
   1e028:	e3a01c01 	mov	r1, #256	; 0x100
   1e02c:	e19ee0b8 	ldrh	lr, [lr, r8]
   1e030:	e1a00004 	mov	r0, r4
   1e034:	e59f2204 	ldr	r2, [pc, #516]	; 1e240 <_start@@Base+0x13b44>
   1e038:	e58d7000 	str	r7, [sp]
   1e03c:	e1a0540c 	lsl	r5, ip, #8
   1e040:	e98d0840 	stmib	sp, {r6, fp}
   1e044:	e58d505c 	str	r5, [sp, #92]	; 0x5c
   1e048:	e1a0540e 	lsl	r5, lr, #8
   1e04c:	e58d5048 	str	r5, [sp, #72]	; 0x48
   1e050:	e59d505c 	ldr	r5, [sp, #92]	; 0x5c
   1e054:	e185c42c 	orr	ip, r5, ip, lsr #8
   1e058:	e59d5048 	ldr	r5, [sp, #72]	; 0x48
   1e05c:	e185e42e 	orr	lr, r5, lr, lsr #8
   1e060:	e6ff507c 	uxth	r5, ip
   1e064:	e6ffc07e 	uxth	ip, lr
   1e068:	e58d500c 	str	r5, [sp, #12]
   1e06c:	e58dc010 	str	ip, [sp, #16]
   1e070:	ebffb04e 	bl	a1b0 <snprintf@plt>
   1e074:	e1a00004 	mov	r0, r4
[31m   1e078:	ebffafd7 	bl	9fdc <system@plt>[0m
   1e07c:	e1a00004 	mov	r0, r4
   1e080:	e3a01000 	mov	r1, #0
--
   1e0e4:	e58d7000 	str	r7, [sp]
   1e0e8:	e58d6004 	str	r6, [sp, #4]
   1e0ec:	e58d5074 	str	r5, [sp, #116]	; 0x74
   1e0f0:	e1a0540e 	lsl	r5, lr, #8
   1e0f4:	e58db008 	str	fp, [sp, #8]
   1e0f8:	e58d506c 	str	r5, [sp, #108]	; 0x6c
   1e0fc:	e59d5074 	ldr	r5, [sp, #116]	; 0x74
   1e100:	e185c42c 	orr	ip, r5, ip, lsr #8
   1e104:	e59d506c 	ldr	r5, [sp, #108]	; 0x6c
   1e108:	e185e42e 	orr	lr, r5, lr, lsr #8
   1e10c:	e59d5048 	ldr	r5, [sp, #72]	; 0x48
   1e110:	e58d500c 	str	r5, [sp, #12]
   1e114:	e6ff507c 	uxth	r5, ip
   1e118:	e59dc05c 	ldr	ip, [sp, #92]	; 0x5c
   1e11c:	e58d5018 	str	r5, [sp, #24]
   1e120:	e58dc010 	str	ip, [sp, #16]
   1e124:	e6ffc07e 	uxth	ip, lr
   1e128:	e58dc01c 	str	ip, [sp, #28]
   1e12c:	ebffb01f 	bl	a1b0 <snprintf@plt>
   1e130:	e1a00004 	mov	r0, r4
[31m   1e134:	ebffafa8 	bl	9fdc <system@plt>[0m
   1e138:	e3a01000 	mov	r1, #0
   1e13c:	e3a02c01 	mov	r2, #256	; 0x100
--
   1e154:	e3a01c01 	mov	r1, #256	; 0x100
   1e158:	e19ec0b9 	ldrh	ip, [lr, r9]
   1e15c:	e1a0300a 	mov	r3, sl
   1e160:	e19ee0b8 	ldrh	lr, [lr, r8]
   1e164:	e59f20d0 	ldr	r2, [pc, #208]	; 1e23c <_start@@Base+0x13b40>
   1e168:	e58d0004 	str	r0, [sp, #4]
   1e16c:	e1a00004 	mov	r0, r4
   1e170:	e1a0540c 	lsl	r5, ip, #8
   1e174:	e58d7000 	str	r7, [sp]
   1e178:	e1a0840e 	lsl	r8, lr, #8
   1e17c:	e58db008 	str	fp, [sp, #8]
   1e180:	e185542c 	orr	r5, r5, ip, lsr #8
   1e184:	e58d6014 	str	r6, [sp, #20]
   1e188:	e188c42e 	orr	ip, r8, lr, lsr #8
   1e18c:	e6ffe075 	uxth	lr, r5
   1e190:	e6ffc07c 	uxth	ip, ip
   1e194:	e58de00c 	str	lr, [sp, #12]
   1e198:	e58dc010 	str	ip, [sp, #16]
   1e19c:	ebffb003 	bl	a1b0 <snprintf@plt>
   1e1a0:	e1a00004 	mov	r0, r4
[31m   1e1a4:	ebffaf8c 	bl	9fdc <system@plt>[0m
   1e1a8:	eafffde9 	b	1d954 <_start@@Base+0x13258>
   1e1ac:	e1a00004 	mov	r0, r4
--
   1e3c8:	e1a0b40c 	lsl	fp, ip, #8
   1e3cc:	e51f2194 	ldr	r2, [pc, #-404]	; 1e240 <_start@@Base+0x13b44>
   1e3d0:	e58d6004 	str	r6, [sp, #4]
   1e3d4:	e58db05c 	str	fp, [sp, #92]	; 0x5c
   1e3d8:	e1a0b40e 	lsl	fp, lr, #8
   1e3dc:	e58d5008 	str	r5, [sp, #8]
   1e3e0:	e58db048 	str	fp, [sp, #72]	; 0x48
   1e3e4:	e59db05c 	ldr	fp, [sp, #92]	; 0x5c
   1e3e8:	e18bc42c 	orr	ip, fp, ip, lsr #8
   1e3ec:	e51fb180 	ldr	fp, [pc, #-384]	; 1e274 <_start@@Base+0x13b78>
   1e3f0:	e58dc05c 	str	ip, [sp, #92]	; 0x5c
   1e3f4:	e59dc048 	ldr	ip, [sp, #72]	; 0x48
   1e3f8:	e18ce42e 	orr	lr, ip, lr, lsr #8
   1e3fc:	e59dc05c 	ldr	ip, [sp, #92]	; 0x5c
   1e400:	e6ffc07c 	uxth	ip, ip
   1e404:	e58dc00c 	str	ip, [sp, #12]
   1e408:	e6ffc07e 	uxth	ip, lr
   1e40c:	e58dc010 	str	ip, [sp, #16]
   1e410:	ebffaf66 	bl	a1b0 <snprintf@plt>
   1e414:	e1a00004 	mov	r0, r4
[31m   1e418:	ebffaeef 	bl	9fdc <system@plt>[0m
   1e41c:	e3a01000 	mov	r1, #0
   1e420:	e3a02c01 	mov	r2, #256	; 0x100
--
   1e4c0:	e18cc42e 	orr	ip, ip, lr, lsr #8
   1e4c4:	e59de06c 	ldr	lr, [sp, #108]	; 0x6c
   1e4c8:	e58dc074 	str	ip, [sp, #116]	; 0x74
   1e4cc:	e59dc048 	ldr	ip, [sp, #72]	; 0x48
   1e4d0:	e6ffe07e 	uxth	lr, lr
   1e4d4:	e58de024 	str	lr, [sp, #36]	; 0x24
   1e4d8:	e59de074 	ldr	lr, [sp, #116]	; 0x74
   1e4dc:	e58dc00c 	str	ip, [sp, #12]
   1e4e0:	e59dc05c 	ldr	ip, [sp, #92]	; 0x5c
   1e4e4:	e58dc010 	str	ip, [sp, #16]
   1e4e8:	e6ffc07e 	uxth	ip, lr
   1e4ec:	e59de054 	ldr	lr, [sp, #84]	; 0x54
   1e4f0:	e58dc028 	str	ip, [sp, #40]	; 0x28
   1e4f4:	e58de014 	str	lr, [sp, #20]
   1e4f8:	e59de050 	ldr	lr, [sp, #80]	; 0x50
   1e4fc:	e58de018 	str	lr, [sp, #24]
   1e500:	e59de058 	ldr	lr, [sp, #88]	; 0x58
   1e504:	e58de01c 	str	lr, [sp, #28]
   1e508:	ebffaf28 	bl	a1b0 <snprintf@plt>
   1e50c:	e1a00004 	mov	r0, r4
[31m   1e510:	ebffaeb1 	bl	9fdc <system@plt>[0m
   1e514:	e3a01000 	mov	r1, #0
   1e518:	e3a02c01 	mov	r2, #256	; 0x100
--
   1e570:	e59d5048 	ldr	r5, [sp, #72]	; 0x48
   1e574:	e58dc05c 	str	ip, [sp, #92]	; 0x5c
   1e578:	e59dc06c 	ldr	ip, [sp, #108]	; 0x6c
   1e57c:	e185542c 	orr	r5, r5, ip, lsr #8
   1e580:	e59dc05c 	ldr	ip, [sp, #92]	; 0x5c
   1e584:	e58d5048 	str	r5, [sp, #72]	; 0x48
   1e588:	e59d5054 	ldr	r5, [sp, #84]	; 0x54
   1e58c:	e18ce42e 	orr	lr, ip, lr, lsr #8
   1e590:	e59dc048 	ldr	ip, [sp, #72]	; 0x48
   1e594:	e58d5014 	str	r5, [sp, #20]
   1e598:	e59d5050 	ldr	r5, [sp, #80]	; 0x50
   1e59c:	e58d5018 	str	r5, [sp, #24]
   1e5a0:	e6ff507c 	uxth	r5, ip
   1e5a4:	e59dc058 	ldr	ip, [sp, #88]	; 0x58
   1e5a8:	e58d500c 	str	r5, [sp, #12]
   1e5ac:	e58dc01c 	str	ip, [sp, #28]
   1e5b0:	e6ffc07e 	uxth	ip, lr
   1e5b4:	e58dc010 	str	ip, [sp, #16]
   1e5b8:	ebffaefc 	bl	a1b0 <snprintf@plt>
   1e5bc:	e1a00004 	mov	r0, r4
[31m   1e5c0:	ebffae85 	bl	9fdc <system@plt>[0m
   1e5c4:	e3a01000 	mov	r1, #0
   1e5c8:	e3a02c01 	mov	r2, #256	; 0x100
--
   1e5e4:	e19ee0b8 	ldrh	lr, [lr, r8]
   1e5e8:	e1a00004 	mov	r0, r4
   1e5ec:	e51f23b4 	ldr	r2, [pc, #-948]	; 1e240 <_start@@Base+0x13b44>
   1e5f0:	e58db008 	str	fp, [sp, #8]
   1e5f4:	e1a0540c 	lsl	r5, ip, #8
   1e5f8:	e58d7000 	str	r7, [sp]
   1e5fc:	e58d6004 	str	r6, [sp, #4]
   1e600:	e58d505c 	str	r5, [sp, #92]	; 0x5c
   1e604:	e1a0540e 	lsl	r5, lr, #8
   1e608:	e58d5048 	str	r5, [sp, #72]	; 0x48
   1e60c:	e59d505c 	ldr	r5, [sp, #92]	; 0x5c
   1e610:	e185c42c 	orr	ip, r5, ip, lsr #8
   1e614:	e59d5048 	ldr	r5, [sp, #72]	; 0x48
   1e618:	e185e42e 	orr	lr, r5, lr, lsr #8
   1e61c:	e6ff507c 	uxth	r5, ip
   1e620:	e6ffc07e 	uxth	ip, lr
   1e624:	e58d500c 	str	r5, [sp, #12]
   1e628:	e58dc010 	str	ip, [sp, #16]
   1e62c:	ebffaedf 	bl	a1b0 <snprintf@plt>
   1e630:	e1a00004 	mov	r0, r4
[31m   1e634:	ebffae68 	bl	9fdc <system@plt>[0m
   1e638:	e3a01000 	mov	r1, #0
   1e63c:	e3a02c01 	mov	r2, #256	; 0x100
--
   1e6b8:	e59d5074 	ldr	r5, [sp, #116]	; 0x74
   1e6bc:	e185c42c 	orr	ip, r5, ip, lsr #8
   1e6c0:	e59d506c 	ldr	r5, [sp, #108]	; 0x6c
   1e6c4:	e185e42e 	orr	lr, r5, lr, lsr #8
   1e6c8:	e59d5048 	ldr	r5, [sp, #72]	; 0x48
   1e6cc:	e58d500c 	str	r5, [sp, #12]
   1e6d0:	e6ff507c 	uxth	r5, ip
   1e6d4:	e59dc05c 	ldr	ip, [sp, #92]	; 0x5c
   1e6d8:	e58d5024 	str	r5, [sp, #36]	; 0x24
   1e6dc:	e58dc010 	str	ip, [sp, #16]
   1e6e0:	e6ffc07e 	uxth	ip, lr
   1e6e4:	e59de054 	ldr	lr, [sp, #84]	; 0x54
   1e6e8:	e58dc028 	str	ip, [sp, #40]	; 0x28
   1e6ec:	e58de014 	str	lr, [sp, #20]
   1e6f0:	e59de050 	ldr	lr, [sp, #80]	; 0x50
   1e6f4:	e58de018 	str	lr, [sp, #24]
   1e6f8:	e59de058 	ldr	lr, [sp, #88]	; 0x58
   1e6fc:	e58de01c 	str	lr, [sp, #28]
   1e700:	ebffaeaa 	bl	a1b0 <snprintf@plt>
   1e704:	e1a00004 	mov	r0, r4
[31m   1e708:	ebffae33 	bl	9fdc <system@plt>[0m
   1e70c:	e3a01000 	mov	r1, #0
   1e710:	e3a02c01 	mov	r2, #256	; 0x100
--
   1e744:	e1a0540c 	lsl	r5, ip, #8
   1e748:	e58d0004 	str	r0, [sp, #4]
   1e74c:	e1a0840e 	lsl	r8, lr, #8
   1e750:	e1a00004 	mov	r0, r4
   1e754:	e185542c 	orr	r5, r5, ip, lsr #8
   1e758:	e51f2518 	ldr	r2, [pc, #-1304]	; 1e248 <_start@@Base+0x13b4c>
   1e75c:	e188c42e 	orr	ip, r8, lr, lsr #8
   1e760:	e59de050 	ldr	lr, [sp, #80]	; 0x50
   1e764:	e58d7000 	str	r7, [sp]
   1e768:	e6ffc07c 	uxth	ip, ip
   1e76c:	e58db014 	str	fp, [sp, #20]
   1e770:	e58de018 	str	lr, [sp, #24]
   1e774:	e6ffe075 	uxth	lr, r5
   1e778:	e59d5058 	ldr	r5, [sp, #88]	; 0x58
   1e77c:	e58d6020 	str	r6, [sp, #32]
   1e780:	e58de00c 	str	lr, [sp, #12]
   1e784:	e58d501c 	str	r5, [sp, #28]
   1e788:	e58dc010 	str	ip, [sp, #16]
   1e78c:	ebffae87 	bl	a1b0 <snprintf@plt>
   1e790:	e1a00004 	mov	r0, r4
[31m   1e794:	ebffae10 	bl	9fdc <system@plt>[0m
   1e798:	e28dbe3f 	add	fp, sp, #1008	; 0x3f0
   1e79c:	e19b30b9 	ldrh	r3, [fp, r9]
--
   1e810:	e51fb5a4 	ldr	fp, [pc, #-1444]	; 1e274 <_start@@Base+0x13b78>
   1e814:	e51f25d0 	ldr	r2, [pc, #-1488]	; 1e24c <_start@@Base+0x13b50>
   1e818:	e191c0b0 	ldrh	ip, [r1, r0]
   1e81c:	e1a00403 	lsl	r0, r3, #8
   1e820:	e3a01c01 	mov	r1, #256	; 0x100
   1e824:	e58d7000 	str	r7, [sp]
   1e828:	e1800423 	orr	r0, r0, r3, lsr #8
   1e82c:	e1a0300a 	mov	r3, sl
   1e830:	e58db008 	str	fp, [sp, #8]
   1e834:	e1a0e40c 	lsl	lr, ip, #8
   1e838:	e6ff5070 	uxth	r5, r0
   1e83c:	e59d0068 	ldr	r0, [sp, #104]	; 0x68
   1e840:	e18ec42c 	orr	ip, lr, ip, lsr #8
   1e844:	e58d500c 	str	r5, [sp, #12]
   1e848:	e6ffc07c 	uxth	ip, ip
   1e84c:	e58d0004 	str	r0, [sp, #4]
   1e850:	e1a00004 	mov	r0, r4
   1e854:	e58dc010 	str	ip, [sp, #16]
   1e858:	ebffae54 	bl	a1b0 <snprintf@plt>
   1e85c:	e1a00004 	mov	r0, r4
[31m   1e860:	ebffaddd 	bl	9fdc <system@plt>[0m
   1e864:	e3a01000 	mov	r1, #0
   1e868:	e3a02c01 	mov	r2, #256	; 0x100
--
   1e8e8:	e185c42e 	orr	ip, r5, lr, lsr #8
   1e8ec:	e59d5068 	ldr	r5, [sp, #104]	; 0x68
   1e8f0:	e59de048 	ldr	lr, [sp, #72]	; 0x48
   1e8f4:	e6ff8078 	uxth	r8, r8
   1e8f8:	e6ffc07c 	uxth	ip, ip
   1e8fc:	e1a00004 	mov	r0, r4
   1e900:	e58d5004 	str	r5, [sp, #4]
   1e904:	e59d5054 	ldr	r5, [sp, #84]	; 0x54
   1e908:	e58de010 	str	lr, [sp, #16]
   1e90c:	e59de050 	ldr	lr, [sp, #80]	; 0x50
   1e910:	e58d5014 	str	r5, [sp, #20]
   1e914:	e59d5058 	ldr	r5, [sp, #88]	; 0x58
   1e918:	e58de018 	str	lr, [sp, #24]
   1e91c:	e58dc028 	str	ip, [sp, #40]	; 0x28
   1e920:	e58db008 	str	fp, [sp, #8]
   1e924:	e58d501c 	str	r5, [sp, #28]
   1e928:	e58d8024 	str	r8, [sp, #36]	; 0x24
   1e92c:	e58d7000 	str	r7, [sp]
   1e930:	ebffae1e 	bl	a1b0 <snprintf@plt>
   1e934:	e1a00004 	mov	r0, r4
[31m   1e938:	ebffada7 	bl	9fdc <system@plt>[0m
   1e93c:	e3a01000 	mov	r1, #0
   1e940:	e3a02c01 	mov	r2, #256	; 0x100
--
   1e980:	e58d0004 	str	r0, [sp, #4]
   1e984:	e1a0840e 	lsl	r8, lr, #8
   1e988:	e1a00004 	mov	r0, r4
   1e98c:	e185542c 	orr	r5, r5, ip, lsr #8
   1e990:	e58db014 	str	fp, [sp, #20]
   1e994:	e188c42e 	orr	ip, r8, lr, lsr #8
   1e998:	e59de050 	ldr	lr, [sp, #80]	; 0x50
   1e99c:	e59db068 	ldr	fp, [sp, #104]	; 0x68
   1e9a0:	e6ffc07c 	uxth	ip, ip
   1e9a4:	e51f2758 	ldr	r2, [pc, #-1880]	; 1e254 <_start@@Base+0x13b58>
   1e9a8:	e58de018 	str	lr, [sp, #24]
   1e9ac:	e6ffe075 	uxth	lr, r5
   1e9b0:	e59d5058 	ldr	r5, [sp, #88]	; 0x58
   1e9b4:	e58d7000 	str	r7, [sp]
   1e9b8:	e58db020 	str	fp, [sp, #32]
   1e9bc:	e58d501c 	str	r5, [sp, #28]
   1e9c0:	e58de00c 	str	lr, [sp, #12]
   1e9c4:	e58dc010 	str	ip, [sp, #16]
   1e9c8:	ebffadf8 	bl	a1b0 <snprintf@plt>
   1e9cc:	e1a00004 	mov	r0, r4
[31m   1e9d0:	ebffad81 	bl	9fdc <system@plt>[0m
   1e9d4:	eafffbe7 	b	1d978 <_start@@Base+0x1327c>
   1e9d8:	e59d5068 	ldr	r5, [sp, #104]	; 0x68
--
   1ea44:	e1a02403 	lsl	r2, r3, #8
   1ea48:	e19ce0b1 	ldrh	lr, [ip, r1]
   1ea4c:	e1a00004 	mov	r0, r4
   1ea50:	e1823423 	orr	r3, r2, r3, lsr #8
   1ea54:	e59db068 	ldr	fp, [sp, #104]	; 0x68
   1ea58:	e51f57e4 	ldr	r5, [pc, #-2020]	; 1e27c <_start@@Base+0x13b80>
   1ea5c:	e3a01c01 	mov	r1, #256	; 0x100
   1ea60:	e6ff8073 	uxth	r8, r3
   1ea64:	e51f2820 	ldr	r2, [pc, #-2080]	; 1e24c <_start@@Base+0x13b50>
   1ea68:	e1a0c40e 	lsl	ip, lr, #8
   1ea6c:	e1a0300a 	mov	r3, sl
   1ea70:	e58db004 	str	fp, [sp, #4]
   1ea74:	e18cc42e 	orr	ip, ip, lr, lsr #8
   1ea78:	e58d7000 	str	r7, [sp]
   1ea7c:	e58d5008 	str	r5, [sp, #8]
   1ea80:	e6ffc07c 	uxth	ip, ip
   1ea84:	e58d800c 	str	r8, [sp, #12]
   1ea88:	e58dc010 	str	ip, [sp, #16]
   1ea8c:	ebffadc7 	bl	a1b0 <snprintf@plt>
   1ea90:	e1a00004 	mov	r0, r4
[31m   1ea94:	ebffad50 	bl	9fdc <system@plt>[0m
   1ea98:	e1a00004 	mov	r0, r4
   1ea9c:	e3a01000 	mov	r1, #0
--
   1eb24:	e1a00004 	mov	r0, r4
   1eb28:	e58db00c 	str	fp, [sp, #12]
   1eb2c:	e1a0b40e 	lsl	fp, lr, #8
   1eb30:	e18be42e 	orr	lr, fp, lr, lsr #8
   1eb34:	e6ffb07c 	uxth	fp, ip
   1eb38:	e59dc068 	ldr	ip, [sp, #104]	; 0x68
   1eb3c:	e58db024 	str	fp, [sp, #36]	; 0x24
   1eb40:	e58dc004 	str	ip, [sp, #4]
   1eb44:	e6ffc07e 	uxth	ip, lr
   1eb48:	e59de048 	ldr	lr, [sp, #72]	; 0x48
   1eb4c:	e58dc028 	str	ip, [sp, #40]	; 0x28
   1eb50:	e58de010 	str	lr, [sp, #16]
   1eb54:	e59de054 	ldr	lr, [sp, #84]	; 0x54
   1eb58:	e58de014 	str	lr, [sp, #20]
   1eb5c:	e59de050 	ldr	lr, [sp, #80]	; 0x50
   1eb60:	e58de018 	str	lr, [sp, #24]
   1eb64:	e59de058 	ldr	lr, [sp, #88]	; 0x58
   1eb68:	e58de01c 	str	lr, [sp, #28]
   1eb6c:	ebffad8f 	bl	a1b0 <snprintf@plt>
   1eb70:	e1a00004 	mov	r0, r4
[31m   1eb74:	ebffad18 	bl	9fdc <system@plt>[0m
   1eb78:	e3a01000 	mov	r1, #0
   1eb7c:	e3a02c01 	mov	r2, #256	; 0x100
--
   1ebb4:	e58d0004 	str	r0, [sp, #4]
   1ebb8:	e1a0b40e 	lsl	fp, lr, #8
   1ebbc:	e1a00004 	mov	r0, r4
   1ebc0:	e188842c 	orr	r8, r8, ip, lsr #8
   1ebc4:	e58d5014 	str	r5, [sp, #20]
   1ebc8:	e18bc42e 	orr	ip, fp, lr, lsr #8
   1ebcc:	e59db050 	ldr	fp, [sp, #80]	; 0x50
   1ebd0:	e59d5058 	ldr	r5, [sp, #88]	; 0x58
   1ebd4:	e6ffe078 	uxth	lr, r8
   1ebd8:	e6ffc07c 	uxth	ip, ip
   1ebdc:	e51f2990 	ldr	r2, [pc, #-2448]	; 1e254 <_start@@Base+0x13b58>
   1ebe0:	e58db018 	str	fp, [sp, #24]
   1ebe4:	e59db068 	ldr	fp, [sp, #104]	; 0x68
   1ebe8:	e58d7000 	str	r7, [sp]
   1ebec:	e58d501c 	str	r5, [sp, #28]
   1ebf0:	e58db020 	str	fp, [sp, #32]
   1ebf4:	e58de00c 	str	lr, [sp, #12]
   1ebf8:	e58dc010 	str	ip, [sp, #16]
   1ebfc:	ebffad6b 	bl	a1b0 <snprintf@plt>
   1ec00:	e1a00004 	mov	r0, r4
[31m   1ec04:	ebffacf4 	bl	9fdc <system@plt>[0m
   1ec08:	eafffee6 	b	1e7a8 <_start@@Base+0x140ac>
   1ec0c:	e3a02c01 	mov	r2, #256	; 0x100
--
   1ed54:	e3403002 	movt	r3, #2
   1ed58:	e59db044 	ldr	fp, [sp, #68]	; 0x44
   1ed5c:	e3550006 	cmp	r5, #6
   1ed60:	e3072774 	movw	r2, #30580	; 0x7774
   1ed64:	e3402002 	movt	r2, #2
   1ed68:	01a02003 	moveq	r2, r3
   1ed6c:	e1a0c40e 	lsl	ip, lr, #8
   1ed70:	e1a05002 	mov	r5, r2
   1ed74:	e1a00004 	mov	r0, r4
   1ed78:	e51f2b24 	ldr	r2, [pc, #-2852]	; 1e25c <_start@@Base+0x13b60>
   1ed7c:	e18cc42e 	orr	ip, ip, lr, lsr #8
   1ed80:	e3a01c01 	mov	r1, #256	; 0x100
   1ed84:	e1a0300a 	mov	r3, sl
   1ed88:	e58d7000 	str	r7, [sp]
   1ed8c:	e6ffc07c 	uxth	ip, ip
   1ed90:	e58db004 	str	fp, [sp, #4]
   1ed94:	e58d5008 	str	r5, [sp, #8]
   1ed98:	e58dc00c 	str	ip, [sp, #12]
   1ed9c:	ebffad03 	bl	a1b0 <snprintf@plt>
   1eda0:	e1a00004 	mov	r0, r4
[31m   1eda4:	ebffac8c 	bl	9fdc <system@plt>[0m
   1eda8:	e1a00004 	mov	r0, r4
   1edac:	e3a01000 	mov	r1, #0
--
   1edec:	e19ec0b5 	ldrh	ip, [lr, r5]
   1edf0:	e1a01409 	lsl	r1, r9, #8
   1edf4:	e1a0300a 	mov	r3, sl
   1edf8:	e51f2ba0 	ldr	r2, [pc, #-2976]	; 1e260 <_start@@Base+0x13b64>
   1edfc:	e1819429 	orr	r9, r1, r9, lsr #8
   1ee00:	e58d0010 	str	r0, [sp, #16]
   1ee04:	e3a01c01 	mov	r1, #256	; 0x100
   1ee08:	e58d7000 	str	r7, [sp]
   1ee0c:	e1a0e40c 	lsl	lr, ip, #8
   1ee10:	e6ff9079 	uxth	r9, r9
   1ee14:	e58db008 	str	fp, [sp, #8]
   1ee18:	e18ec42c 	orr	ip, lr, ip, lsr #8
   1ee1c:	e59de044 	ldr	lr, [sp, #68]	; 0x44
   1ee20:	e1a00004 	mov	r0, r4
   1ee24:	e58d900c 	str	r9, [sp, #12]
   1ee28:	e6ffc07c 	uxth	ip, ip
   1ee2c:	e58de004 	str	lr, [sp, #4]
   1ee30:	e58dc014 	str	ip, [sp, #20]
   1ee34:	ebffacdd 	bl	a1b0 <snprintf@plt>
   1ee38:	e1a00004 	mov	r0, r4
[31m   1ee3c:	ebffac66 	bl	9fdc <system@plt>[0m
   1ee40:	e3a01000 	mov	r1, #0
   1ee44:	e3a02c01 	mov	r2, #256	; 0x100
--
   1ee5c:	e1a09000 	mov	r9, r0
   1ee60:	e3530006 	cmp	r3, #6
   1ee64:	0a00009c 	beq	1f0dc <_start@@Base+0x149e0>
   1ee68:	e28d0e3f 	add	r0, sp, #1008	; 0x3f0
   1ee6c:	e51fec00 	ldr	lr, [pc, #-3072]	; 1e274 <_start@@Base+0x13b78>
   1ee70:	e19030b5 	ldrh	r3, [r0, r5]
   1ee74:	e1a0c403 	lsl	ip, r3, #8
   1ee78:	e59d5044 	ldr	r5, [sp, #68]	; 0x44
   1ee7c:	e1a00004 	mov	r0, r4
   1ee80:	e51f2c24 	ldr	r2, [pc, #-3108]	; 1e264 <_start@@Base+0x13b68>
   1ee84:	e18cc423 	orr	ip, ip, r3, lsr #8
   1ee88:	e3a01c01 	mov	r1, #256	; 0x100
   1ee8c:	e1a0300a 	mov	r3, sl
   1ee90:	e58d7000 	str	r7, [sp]
   1ee94:	e6ffc07c 	uxth	ip, ip
   1ee98:	e98d4200 	stmib	sp, {r9, lr}
   1ee9c:	e58dc00c 	str	ip, [sp, #12]
   1eea0:	e58d5010 	str	r5, [sp, #16]
   1eea4:	ebffacc1 	bl	a1b0 <snprintf@plt>
   1eea8:	e1a00004 	mov	r0, r4
[31m   1eeac:	ebffac4a 	bl	9fdc <system@plt>[0m
   1eeb0:	e2888001 	add	r8, r8, #1
   1eeb4:	e3580c01 	cmp	r8, #256	; 0x100
--
   1ef84:	e3530006 	cmp	r3, #6
   1ef88:	0a00011f 	beq	1f40c <_start@@Base+0x14d10>
   1ef8c:	e30f3da0 	movw	r3, #64928	; 0xfda0
   1ef90:	e28d1e3f 	add	r1, sp, #1008	; 0x3f0
   1ef94:	e34f3fff 	movt	r3, #65535	; 0xffff
   1ef98:	e51fed2c 	ldr	lr, [pc, #-3372]	; 1e274 <_start@@Base+0x13b78>
   1ef9c:	e19100b3 	ldrh	r0, [r1, r3]
   1efa0:	e1a0c400 	lsl	ip, r0, #8
   1efa4:	e1a0300a 	mov	r3, sl
   1efa8:	e3a01c01 	mov	r1, #256	; 0x100
   1efac:	e51f2d48 	ldr	r2, [pc, #-3400]	; 1e26c <_start@@Base+0x13b70>
   1efb0:	e18cc420 	orr	ip, ip, r0, lsr #8
   1efb4:	e1a00004 	mov	r0, r4
   1efb8:	e58de008 	str	lr, [sp, #8]
   1efbc:	e6ffc07c 	uxth	ip, ip
   1efc0:	e58d7000 	str	r7, [sp]
   1efc4:	e58d6004 	str	r6, [sp, #4]
   1efc8:	e58dc00c 	str	ip, [sp, #12]
   1efcc:	ebffac77 	bl	a1b0 <snprintf@plt>
   1efd0:	e1a00004 	mov	r0, r4
[31m   1efd4:	ebffac00 	bl	9fdc <system@plt>[0m
   1efd8:	e1a00004 	mov	r0, r4
   1efdc:	e3a01000 	mov	r1, #0
--
   1f018:	e28d3e3f 	add	r3, sp, #1008	; 0x3f0
   1f01c:	e193c0b5 	ldrh	ip, [r3, r5]
   1f020:	e1a01409 	lsl	r1, r9, #8
   1f024:	e1a0300a 	mov	r3, sl
   1f028:	e51f2dc0 	ldr	r2, [pc, #-3520]	; 1e270 <_start@@Base+0x13b74>
   1f02c:	e1819429 	orr	r9, r1, r9, lsr #8
   1f030:	e58d0010 	str	r0, [sp, #16]
   1f034:	e3a01c01 	mov	r1, #256	; 0x100
   1f038:	e58d7000 	str	r7, [sp]
   1f03c:	e1a0e40c 	lsl	lr, ip, #8
   1f040:	e6ff9079 	uxth	r9, r9
   1f044:	e58d6004 	str	r6, [sp, #4]
   1f048:	e18ec42c 	orr	ip, lr, ip, lsr #8
   1f04c:	e1a00004 	mov	r0, r4
   1f050:	e58d900c 	str	r9, [sp, #12]
   1f054:	e6ffc07c 	uxth	ip, ip
   1f058:	e58db008 	str	fp, [sp, #8]
   1f05c:	e58dc014 	str	ip, [sp, #20]
   1f060:	ebffac52 	bl	a1b0 <snprintf@plt>
   1f064:	e1a00004 	mov	r0, r4
[31m   1f068:	ebffabdb 	bl	9fdc <system@plt>[0m
   1f06c:	e3a01000 	mov	r1, #0
   1f070:	e3a02c01 	mov	r2, #256	; 0x100
--
   1f084:	e59d3178 	ldr	r3, [sp, #376]	; 0x178
   1f088:	e1a09000 	mov	r9, r0
   1f08c:	e3530006 	cmp	r3, #6
   1f090:	0a0000d3 	beq	1f3e4 <_start@@Base+0x14ce8>
   1f094:	e28dbe3f 	add	fp, sp, #1008	; 0x3f0
   1f098:	e51fee2c 	ldr	lr, [pc, #-3628]	; 1e274 <_start@@Base+0x13b78>
   1f09c:	e19b30b5 	ldrh	r3, [fp, r5]
   1f0a0:	e1a0c403 	lsl	ip, r3, #8
   1f0a4:	e1a00004 	mov	r0, r4
   1f0a8:	e3a01c01 	mov	r1, #256	; 0x100
   1f0ac:	e51f2e3c 	ldr	r2, [pc, #-3644]	; 1e278 <_start@@Base+0x13b7c>
   1f0b0:	e18cc423 	orr	ip, ip, r3, lsr #8
   1f0b4:	e1a0300a 	mov	r3, sl
   1f0b8:	e58d7000 	str	r7, [sp]
   1f0bc:	e6ffc07c 	uxth	ip, ip
   1f0c0:	e98d4200 	stmib	sp, {r9, lr}
   1f0c4:	e58dc00c 	str	ip, [sp, #12]
   1f0c8:	e58d6010 	str	r6, [sp, #16]
   1f0cc:	ebffac37 	bl	a1b0 <snprintf@plt>
   1f0d0:	e1a00004 	mov	r0, r4
[31m   1f0d4:	ebffabc0 	bl	9fdc <system@plt>[0m
   1f0d8:	eaffff0b 	b	1ed0c <_start@@Base+0x14610>
   1f0dc:	e28dee3f 	add	lr, sp, #1008	; 0x3f0
--
   1f250:	e3403002 	movt	r3, #2
   1f254:	e59db044 	ldr	fp, [sp, #68]	; 0x44
   1f258:	e3550006 	cmp	r5, #6
   1f25c:	e3072774 	movw	r2, #30580	; 0x7774
   1f260:	e3402002 	movt	r2, #2
   1f264:	01a02003 	moveq	r2, r3
   1f268:	e1a0c40e 	lsl	ip, lr, #8
   1f26c:	e1a05002 	mov	r5, r2
   1f270:	e1a00004 	mov	r0, r4
   1f274:	e59f2508 	ldr	r2, [pc, #1288]	; 1f784 <_start@@Base+0x15088>
   1f278:	e18cc42e 	orr	ip, ip, lr, lsr #8
   1f27c:	e3a01c01 	mov	r1, #256	; 0x100
   1f280:	e1a0300a 	mov	r3, sl
   1f284:	e58d7000 	str	r7, [sp]
   1f288:	e6ffc07c 	uxth	ip, ip
   1f28c:	e58db004 	str	fp, [sp, #4]
   1f290:	e58d5008 	str	r5, [sp, #8]
   1f294:	e58dc00c 	str	ip, [sp, #12]
   1f298:	ebffabc4 	bl	a1b0 <snprintf@plt>
   1f29c:	e1a00004 	mov	r0, r4
[31m   1f2a0:	ebffab4d 	bl	9fdc <system@plt>[0m
   1f2a4:	e1a00004 	mov	r0, r4
   1f2a8:	e3a01000 	mov	r1, #0
--
   1f300:	e59f2484 	ldr	r2, [pc, #1156]	; 1f78c <_start@@Base+0x15090>
   1f304:	e3a01c01 	mov	r1, #256	; 0x100
   1f308:	e1a0e40c 	lsl	lr, ip, #8
   1f30c:	e6ff9079 	uxth	r9, r9
   1f310:	e58db010 	str	fp, [sp, #16]
   1f314:	e18ec42c 	orr	ip, lr, ip, lsr #8
   1f318:	e59de044 	ldr	lr, [sp, #68]	; 0x44
   1f31c:	e59db058 	ldr	fp, [sp, #88]	; 0x58
   1f320:	e6ffc07c 	uxth	ip, ip
   1f324:	e58d001c 	str	r0, [sp, #28]
   1f328:	e58de004 	str	lr, [sp, #4]
   1f32c:	e1a00004 	mov	r0, r4
   1f330:	e59de054 	ldr	lr, [sp, #84]	; 0x54
   1f334:	e58dc020 	str	ip, [sp, #32]
   1f338:	e58d900c 	str	r9, [sp, #12]
   1f33c:	e58de014 	str	lr, [sp, #20]
   1f340:	e58d7000 	str	r7, [sp]
   1f344:	e58db018 	str	fp, [sp, #24]
   1f348:	ebffab98 	bl	a1b0 <snprintf@plt>
   1f34c:	e1a00004 	mov	r0, r4
[31m   1f350:	ebffab21 	bl	9fdc <system@plt>[0m
   1f354:	e3a01000 	mov	r1, #0
   1f358:	e3a02c01 	mov	r2, #256	; 0x100
--
   1f38c:	e58de008 	str	lr, [sp, #8]
   1f390:	e59d5054 	ldr	r5, [sp, #84]	; 0x54
   1f394:	e1a00004 	mov	r0, r4
   1f398:	e18cc423 	orr	ip, ip, r3, lsr #8
   1f39c:	e59de050 	ldr	lr, [sp, #80]	; 0x50
   1f3a0:	e59db058 	ldr	fp, [sp, #88]	; 0x58
   1f3a4:	e3a01c01 	mov	r1, #256	; 0x100
   1f3a8:	e6ffc07c 	uxth	ip, ip
   1f3ac:	e59f23dc 	ldr	r2, [pc, #988]	; 1f790 <_start@@Base+0x15094>
   1f3b0:	e1a0300a 	mov	r3, sl
   1f3b4:	e58d7000 	str	r7, [sp]
   1f3b8:	e58dc00c 	str	ip, [sp, #12]
   1f3bc:	e59dc044 	ldr	ip, [sp, #68]	; 0x44
   1f3c0:	e58d9004 	str	r9, [sp, #4]
   1f3c4:	e58de010 	str	lr, [sp, #16]
   1f3c8:	e58d5014 	str	r5, [sp, #20]
   1f3cc:	e58db018 	str	fp, [sp, #24]
   1f3d0:	e58dc01c 	str	ip, [sp, #28]
   1f3d4:	ebffab75 	bl	a1b0 <snprintf@plt>
   1f3d8:	e1a00004 	mov	r0, r4
[31m   1f3dc:	ebffaafe 	bl	9fdc <system@plt>[0m
   1f3e0:	eafffeb2 	b	1eeb0 <_start@@Base+0x147b4>
   1f3e4:	e28dbe3f 	add	fp, sp, #1008	; 0x3f0
--
   1f438:	e3530006 	cmp	r3, #6
   1f43c:	0a0000ca 	beq	1f76c <_start@@Base+0x15070>
   1f440:	e30f3da0 	movw	r3, #64928	; 0xfda0
   1f444:	e28d5e3f 	add	r5, sp, #1008	; 0x3f0
   1f448:	e34f3fff 	movt	r3, #65535	; 0xffff
   1f44c:	e59fe334 	ldr	lr, [pc, #820]	; 1f788 <_start@@Base+0x1508c>
   1f450:	e19500b3 	ldrh	r0, [r5, r3]
   1f454:	e1a0c400 	lsl	ip, r0, #8
   1f458:	e1a0300a 	mov	r3, sl
   1f45c:	e3a01c01 	mov	r1, #256	; 0x100
   1f460:	e59f2330 	ldr	r2, [pc, #816]	; 1f798 <_start@@Base+0x1509c>
   1f464:	e18cc420 	orr	ip, ip, r0, lsr #8
   1f468:	e1a00004 	mov	r0, r4
   1f46c:	e58de008 	str	lr, [sp, #8]
   1f470:	e6ffc07c 	uxth	ip, ip
   1f474:	e58d7000 	str	r7, [sp]
   1f478:	e58d6004 	str	r6, [sp, #4]
   1f47c:	e58dc00c 	str	ip, [sp, #12]
   1f480:	ebffab4a 	bl	a1b0 <snprintf@plt>
   1f484:	e1a00004 	mov	r0, r4
[31m   1f488:	ebffaad3 	bl	9fdc <system@plt>[0m
   1f48c:	e1a00004 	mov	r0, r4
   1f490:	e3a01000 	mov	r1, #0
--
   1f4e4:	e1819429 	orr	r9, r1, r9, lsr #8
   1f4e8:	e59f22ac 	ldr	r2, [pc, #684]	; 1f79c <_start@@Base+0x150a0>
   1f4ec:	e3a01c01 	mov	r1, #256	; 0x100
   1f4f0:	e1a0e40c 	lsl	lr, ip, #8
   1f4f4:	e6ff9079 	uxth	r9, r9
   1f4f8:	e58db010 	str	fp, [sp, #16]
   1f4fc:	e18ec42c 	orr	ip, lr, ip, lsr #8
   1f500:	e59db058 	ldr	fp, [sp, #88]	; 0x58
   1f504:	e59de054 	ldr	lr, [sp, #84]	; 0x54
   1f508:	e6ffc07c 	uxth	ip, ip
   1f50c:	e58d001c 	str	r0, [sp, #28]
   1f510:	e1a00004 	mov	r0, r4
   1f514:	e58d900c 	str	r9, [sp, #12]
   1f518:	e58de014 	str	lr, [sp, #20]
   1f51c:	e58dc020 	str	ip, [sp, #32]
   1f520:	e58d7000 	str	r7, [sp]
   1f524:	e58d6004 	str	r6, [sp, #4]
   1f528:	e58db018 	str	fp, [sp, #24]
   1f52c:	ebffab1f 	bl	a1b0 <snprintf@plt>
   1f530:	e1a00004 	mov	r0, r4
[31m   1f534:	ebffaaa8 	bl	9fdc <system@plt>[0m
   1f538:	e3a01000 	mov	r1, #0
   1f53c:	e3a02c01 	mov	r2, #256	; 0x100
--
   1f568:	e19c30b5 	ldrh	r3, [ip, r5]
   1f56c:	e1a0c403 	lsl	ip, r3, #8
   1f570:	e58de008 	str	lr, [sp, #8]
   1f574:	e59d5054 	ldr	r5, [sp, #84]	; 0x54
   1f578:	e1a00004 	mov	r0, r4
   1f57c:	e18cc423 	orr	ip, ip, r3, lsr #8
   1f580:	e59de050 	ldr	lr, [sp, #80]	; 0x50
   1f584:	e59db058 	ldr	fp, [sp, #88]	; 0x58
   1f588:	e3a01c01 	mov	r1, #256	; 0x100
   1f58c:	e6ffc07c 	uxth	ip, ip
   1f590:	e59f2208 	ldr	r2, [pc, #520]	; 1f7a0 <_start@@Base+0x150a4>
   1f594:	e1a0300a 	mov	r3, sl
   1f598:	e88d0280 	stm	sp, {r7, r9}
   1f59c:	e58dc00c 	str	ip, [sp, #12]
   1f5a0:	e58de010 	str	lr, [sp, #16]
   1f5a4:	e58d5014 	str	r5, [sp, #20]
   1f5a8:	e58db018 	str	fp, [sp, #24]
   1f5ac:	e58d601c 	str	r6, [sp, #28]
   1f5b0:	ebffaafe 	bl	a1b0 <snprintf@plt>
   1f5b4:	e1a00004 	mov	r0, r4
[31m   1f5b8:	ebffaa87 	bl	9fdc <system@plt>[0m
   1f5bc:	eaffff11 	b	1f208 <_start@@Base+0x14b0c>
   1f5c0:	e59d5044 	ldr	r5, [sp, #68]	; 0x44
--
   1f610:	e59d1060 	ldr	r1, [sp, #96]	; 0x60
   1f614:	e28d2e3f 	add	r2, sp, #1008	; 0x3f0
   1f618:	e19230b1 	ldrh	r3, [r2, r1]
   1f61c:	eafffc79 	b	1e808 <_start@@Base+0x1410c>
   1f620:	e1a00004 	mov	r0, r4
   1f624:	e3a02c01 	mov	r2, #256	; 0x100
   1f628:	ebffab85 	bl	a444 <memset@plt>
   1f62c:	e28d0e3f 	add	r0, sp, #1008	; 0x3f0
   1f630:	e19030b9 	ldrh	r3, [r0, r9]
   1f634:	eafffcff 	b	1ea38 <_start@@Base+0x1433c>
   1f638:	e1a01009 	mov	r1, r9
   1f63c:	e3a02064 	mov	r2, #100	; 0x64
   1f640:	e1a00004 	mov	r0, r4
   1f644:	ebffab7e 	bl	a444 <memset@plt>
   1f648:	e1a00004 	mov	r0, r4
   1f64c:	e3a01064 	mov	r1, #100	; 0x64
   1f650:	e59f214c 	ldr	r2, [pc, #332]	; 1f7a4 <_start@@Base+0x150a8>
   1f654:	e1a03005 	mov	r3, r5
   1f658:	ebffaad4 	bl	a1b0 <snprintf@plt>
   1f65c:	e1a00004 	mov	r0, r4
[31m   1f660:	ebffaa5d 	bl	9fdc <system@plt>[0m
   1f664:	eafff81c 	b	1d6dc <_start@@Base+0x12fe0>
   1f668:	e28d4e2a 	add	r4, sp, #672	; 0x2a0
   1f66c:	eafff86c 	b	1d824 <_start@@Base+0x13128>
   1f670:	e28d4e2a 	add	r4, sp, #672	; 0x2a0
   1f674:	e3a01000 	mov	r1, #0
   1f678:	e3a02078 	mov	r2, #120	; 0x78
   1f67c:	e1a00004 	mov	r0, r4
   1f680:	ebffab6f 	bl	a444 <memset@plt>
   1f684:	e1a0300a 	mov	r3, sl
   1f688:	e3a01078 	mov	r1, #120	; 0x78
   1f68c:	e59f2114 	ldr	r2, [pc, #276]	; 1f7a8 <_start@@Base+0x150ac>
   1f690:	e1a00004 	mov	r0, r4
   1f694:	e58d7000 	str	r7, [sp]
   1f698:	e58d6004 	str	r6, [sp, #4]
   1f69c:	ebffaac3 	bl	a1b0 <snprintf@plt>
   1f6a0:	e1a00004 	mov	r0, r4
[31m   1f6a4:	ebffaa4c 	bl	9fdc <system@plt>[0m
   1f6a8:	e1a00004 	mov	r0, r4
   1f6ac:	e3a01000 	mov	r1, #0
   1f6b0:	e3a02078 	mov	r2, #120	; 0x78
   1f6b4:	ebffab62 	bl	a444 <memset@plt>
   1f6b8:	e1a0300a 	mov	r3, sl
   1f6bc:	e3a01078 	mov	r1, #120	; 0x78
   1f6c0:	e59f20e4 	ldr	r2, [pc, #228]	; 1f7ac <_start@@Base+0x150b0>
   1f6c4:	e1a00004 	mov	r0, r4
   1f6c8:	e88d0180 	stm	sp, {r7, r8}
   1f6cc:	ebffaab7 	bl	a1b0 <snprintf@plt>
   1f6d0:	e1a00004 	mov	r0, r4
[31m   1f6d4:	ebffaa40 	bl	9fdc <system@plt>[0m
   1f6d8:	e1a00004 	mov	r0, r4
   1f6dc:	e3a01000 	mov	r1, #0
   1f6e0:	e3a02078 	mov	r2, #120	; 0x78
   1f6e4:	ebffab56 	bl	a444 <memset@plt>
   1f6e8:	e1a0300a 	mov	r3, sl
   1f6ec:	e3a01078 	mov	r1, #120	; 0x78
   1f6f0:	e59f20b8 	ldr	r2, [pc, #184]	; 1f7b0 <_start@@Base+0x150b4>
   1f6f4:	e1a00004 	mov	r0, r4
   1f6f8:	e58d7000 	str	r7, [sp]
   1f6fc:	e98d0140 	stmib	sp, {r6, r8}
   1f700:	ebffaaaa 	bl	a1b0 <snprintf@plt>
   1f704:	e1a00004 	mov	r0, r4
[31m   1f708:	ebffaa33 	bl	9fdc <system@plt>[0m
   1f70c:	e1a00004 	mov	r0, r4
   1f710:	e3a01000 	mov	r1, #0
   1f714:	e3a02078 	mov	r2, #120	; 0x78
   1f718:	ebffab49 	bl	a444 <memset@plt>
   1f71c:	e1a00004 	mov	r0, r4
   1f720:	e3a01078 	mov	r1, #120	; 0x78
   1f724:	e59f2088 	ldr	r2, [pc, #136]	; 1f7b4 <_start@@Base+0x150b8>
   1f728:	e1a0300a 	mov	r3, sl
   1f72c:	e88d0180 	stm	sp, {r7, r8}
   1f730:	e58d6008 	str	r6, [sp, #8]
   1f734:	ebffaa9d 	bl	a1b0 <snprintf@plt>
   1f738:	e1a00004 	mov	r0, r4
[31m   1f73c:	ebffaa26 	bl	9fdc <system@plt>[0m
   1f740:	eafff812 	b	1d790 <_start@@Base+0x13094>
   1f744:	e28dee3f 	add	lr, sp, #1008	; 0x3f0
--
   1fdf0:	e1a00005 	mov	r0, r5
   1fdf4:	e58d35fc 	str	r3, [sp, #1532]	; 0x5fc
   1fdf8:	ebffa964 	bl	a390 <netconf_add_filter@plt>
   1fdfc:	e59f081c 	ldr	r0, [pc, #2076]	; 20620 <_start@@Base+0x15f24>
   1fe00:	ebffa914 	bl	a258 <nvram_get@plt>
   1fe04:	e3500000 	cmp	r0, #0
   1fe08:	0a000003 	beq	1fe1c <_start@@Base+0x15720>
   1fe0c:	e59f17d4 	ldr	r1, [pc, #2004]	; 205e8 <_start@@Base+0x15eec>
   1fe10:	ebffa9dc 	bl	a588 <strcmp@plt>
   1fe14:	e3500000 	cmp	r0, #0
   1fe18:	0a000009 	beq	1fe44 <_start@@Base+0x15748>
   1fe1c:	e59f07cc 	ldr	r0, [pc, #1996]	; 205f0 <_start@@Base+0x15ef4>
   1fe20:	ebffa90c 	bl	a258 <nvram_get@plt>
   1fe24:	e3500000 	cmp	r0, #0
   1fe28:	0a000005 	beq	1fe44 <_start@@Base+0x15748>
   1fe2c:	e59f17b4 	ldr	r1, [pc, #1972]	; 205e8 <_start@@Base+0x15eec>
   1fe30:	ebffa9d4 	bl	a588 <strcmp@plt>
   1fe34:	e3500000 	cmp	r0, #0
   1fe38:	1a000001 	bne	1fe44 <_start@@Base+0x15748>
   1fe3c:	e59f07e0 	ldr	r0, [pc, #2016]	; 20624 <_start@@Base+0x15f28>
[31m   1fe40:	ebffa865 	bl	9fdc <system@plt>[0m
   1fe44:	e59f07dc 	ldr	r0, [pc, #2012]	; 20628 <_start@@Base+0x15f2c>
   1fe48:	ebffa902 	bl	a258 <nvram_get@plt>
   1fe4c:	e2503000 	subs	r3, r0, #0
   1fe50:	0a0002eb 	beq	20a04 <_start@@Base+0x16308>
   1fe54:	e59f178c 	ldr	r1, [pc, #1932]	; 205e8 <_start@@Base+0x15eec>
   1fe58:	ebffa9ca 	bl	a588 <strcmp@plt>
   1fe5c:	e3500000 	cmp	r0, #0
   1fe60:	0a000003 	beq	1fe74 <_start@@Base+0x15778>
   1fe64:	e3a00000 	mov	r0, #0
   1fe68:	e28ddf9f 	add	sp, sp, #636	; 0x27c
   1fe6c:	e28ddb01 	add	sp, sp, #1024	; 0x400
   1fe70:	e8bd8ff0 	pop	{r4, r5, r6, r7, r8, r9, sl, fp, pc}
   1fe74:	e59f07b0 	ldr	r0, [pc, #1968]	; 2062c <_start@@Base+0x15f30>
   1fe78:	ebffa8f6 	bl	a258 <nvram_get@plt>
   1fe7c:	e3500000 	cmp	r0, #0
   1fe80:	0a000005 	beq	1fe9c <_start@@Base+0x157a0>
   1fe84:	e59f17a4 	ldr	r1, [pc, #1956]	; 20630 <_start@@Base+0x15f34>
   1fe88:	ebffa9be 	bl	a588 <strcmp@plt>
   1fe8c:	e3500000 	cmp	r0, #0
   1fe90:	1a000001 	bne	1fe9c <_start@@Base+0x157a0>
   1fe94:	e59f0798 	ldr	r0, [pc, #1944]	; 20634 <_start@@Base+0x15f38>
[31m   1fe98:	ebffa84f 	bl	9fdc <system@plt>[0m
   1fe9c:	e59f0794 	ldr	r0, [pc, #1940]	; 20638 <_start@@Base+0x15f3c>
   1fea0:	ebffa8ec 	bl	a258 <nvram_get@plt>
   1fea4:	e3500000 	cmp	r0, #0
   1fea8:	0a000005 	beq	1fec4 <_start@@Base+0x157c8>
   1feac:	e59f177c 	ldr	r1, [pc, #1916]	; 20630 <_start@@Base+0x15f34>
   1feb0:	ebffa9b4 	bl	a588 <strcmp@plt>
   1feb4:	e3500000 	cmp	r0, #0
   1feb8:	1a000001 	bne	1fec4 <_start@@Base+0x157c8>
   1febc:	e59f0778 	ldr	r0, [pc, #1912]	; 2063c <_start@@Base+0x15f40>
[31m   1fec0:	ebffa845 	bl	9fdc <system@plt>[0m
   1fec4:	e59f0774 	ldr	r0, [pc, #1908]	; 20640 <_start@@Base+0x15f44>
   1fec8:	ebffa8e2 	bl	a258 <nvram_get@plt>
   1fecc:	e3500000 	cmp	r0, #0
   1fed0:	0a000005 	beq	1feec <_start@@Base+0x157f0>
   1fed4:	e59f1754 	ldr	r1, [pc, #1876]	; 20630 <_start@@Base+0x15f34>
   1fed8:	ebffa9aa 	bl	a588 <strcmp@plt>
   1fedc:	e3500000 	cmp	r0, #0
   1fee0:	1a000001 	bne	1feec <_start@@Base+0x157f0>
   1fee4:	e59f0758 	ldr	r0, [pc, #1880]	; 20644 <_start@@Base+0x15f48>
[31m   1fee8:	ebffa83b 	bl	9fdc <system@plt>[0m
   1feec:	e59f0754 	ldr	r0, [pc, #1876]	; 20648 <_start@@Base+0x15f4c>
   1fef0:	ebffa8d8 	bl	a258 <nvram_get@plt>
   1fef4:	e3500000 	cmp	r0, #0
   1fef8:	0a000005 	beq	1ff14 <_start@@Base+0x15818>
   1fefc:	e59f172c 	ldr	r1, [pc, #1836]	; 20630 <_start@@Base+0x15f34>
   1ff00:	ebffa9a0 	bl	a588 <strcmp@plt>
   1ff04:	e3500000 	cmp	r0, #0
   1ff08:	1a000001 	bne	1ff14 <_start@@Base+0x15818>
   1ff0c:	e59f0738 	ldr	r0, [pc, #1848]	; 2064c <_start@@Base+0x15f50>
[31m   1ff10:	ebffa831 	bl	9fdc <system@plt>[0m
   1ff14:	e59f0734 	ldr	r0, [pc, #1844]	; 20650 <_start@@Base+0x15f54>
   1ff18:	ebffa8ce 	bl	a258 <nvram_get@plt>
   1ff1c:	e3500000 	cmp	r0, #0
   1ff20:	0a000005 	beq	1ff3c <_start@@Base+0x15840>
   1ff24:	e59f1704 	ldr	r1, [pc, #1796]	; 20630 <_start@@Base+0x15f34>
   1ff28:	ebffa996 	bl	a588 <strcmp@plt>
   1ff2c:	e3500000 	cmp	r0, #0
   1ff30:	1a000001 	bne	1ff3c <_start@@Base+0x15840>
   1ff34:	e59f0718 	ldr	r0, [pc, #1816]	; 20654 <_start@@Base+0x15f58>
[31m   1ff38:	ebffa827 	bl	9fdc <system@plt>[0m
   1ff3c:	e59f0714 	ldr	r0, [pc, #1812]	; 20658 <_start@@Base+0x15f5c>
   1ff40:	ebffa8c4 	bl	a258 <nvram_get@plt>
   1ff44:	e3500000 	cmp	r0, #0
   1ff48:	0a000005 	beq	1ff64 <_start@@Base+0x15868>
   1ff4c:	e59f16dc 	ldr	r1, [pc, #1756]	; 20630 <_start@@Base+0x15f34>
   1ff50:	ebffa98c 	bl	a588 <strcmp@plt>
   1ff54:	e3500000 	cmp	r0, #0
   1ff58:	1a000001 	bne	1ff64 <_start@@Base+0x15868>
   1ff5c:	e59f06f8 	ldr	r0, [pc, #1784]	; 2065c <_start@@Base+0x15f60>
[31m   1ff60:	ebffa81d 	bl	9fdc <system@plt>[0m
   1ff64:	e59f06f4 	ldr	r0, [pc, #1780]	; 20660 <_start@@Base+0x15f64>
   1ff68:	ebffa8ba 	bl	a258 <nvram_get@plt>
   1ff6c:	e3500000 	cmp	r0, #0
   1ff70:	0a000005 	beq	1ff8c <_start@@Base+0x15890>
   1ff74:	e59f16b4 	ldr	r1, [pc, #1716]	; 20630 <_start@@Base+0x15f34>
   1ff78:	ebffa982 	bl	a588 <strcmp@plt>
   1ff7c:	e3500000 	cmp	r0, #0
   1ff80:	1a000001 	bne	1ff8c <_start@@Base+0x15890>
   1ff84:	e59f06d8 	ldr	r0, [pc, #1752]	; 20664 <_start@@Base+0x15f68>
[31m   1ff88:	ebffa813 	bl	9fdc <system@plt>[0m
   1ff8c:	e59f06d4 	ldr	r0, [pc, #1748]	; 20668 <_start@@Base+0x15f6c>
   1ff90:	ebffa8b0 	bl	a258 <nvram_get@plt>
   1ff94:	e3500000 	cmp	r0, #0
   1ff98:	0a000005 	beq	1ffb4 <_start@@Base+0x158b8>
   1ff9c:	e59f168c 	ldr	r1, [pc, #1676]	; 20630 <_start@@Base+0x15f34>
   1ffa0:	ebffa978 	bl	a588 <strcmp@plt>
   1ffa4:	e3500000 	cmp	r0, #0
   1ffa8:	1a000001 	bne	1ffb4 <_start@@Base+0x158b8>
   1ffac:	e59f06b8 	ldr	r0, [pc, #1720]	; 2066c <_start@@Base+0x15f70>
[31m   1ffb0:	ebffa809 	bl	9fdc <system@plt>[0m
   1ffb4:	e59f06b4 	ldr	r0, [pc, #1716]	; 20670 <_start@@Base+0x15f74>
   1ffb8:	ebffa8a6 	bl	a258 <nvram_get@plt>
   1ffbc:	e3500000 	cmp	r0, #0
   1ffc0:	0a000005 	beq	1ffdc <_start@@Base+0x158e0>
   1ffc4:	e59f1664 	ldr	r1, [pc, #1636]	; 20630 <_start@@Base+0x15f34>
   1ffc8:	ebffa96e 	bl	a588 <strcmp@plt>
   1ffcc:	e3500000 	cmp	r0, #0
   1ffd0:	1a000001 	bne	1ffdc <_start@@Base+0x158e0>
   1ffd4:	e59f0698 	ldr	r0, [pc, #1688]	; 20674 <_start@@Base+0x15f78>
[31m   1ffd8:	ebffa7ff 	bl	9fdc <system@plt>[0m
   1ffdc:	e59f0694 	ldr	r0, [pc, #1684]	; 20678 <_start@@Base+0x15f7c>
   1ffe0:	ebffa89c 	bl	a258 <nvram_get@plt>
   1ffe4:	e3500000 	cmp	r0, #0
   1ffe8:	0a000005 	beq	20004 <_start@@Base+0x15908>
   1ffec:	e59f163c 	ldr	r1, [pc, #1596]	; 20630 <_start@@Base+0x15f34>
   1fff0:	ebffa964 	bl	a588 <strcmp@plt>
   1fff4:	e3500000 	cmp	r0, #0
   1fff8:	1a000001 	bne	20004 <_start@@Base+0x15908>
   1fffc:	e59f0678 	ldr	r0, [pc, #1656]	; 2067c <_start@@Base+0x15f80>
[31m   20000:	ebffa7f5 	bl	9fdc <system@plt>[0m
   20004:	e59f0674 	ldr	r0, [pc, #1652]	; 20680 <_start@@Base+0x15f84>
   20008:	ebffa892 	bl	a258 <nvram_get@plt>
   2000c:	e3500000 	cmp	r0, #0
   20010:	0a000007 	beq	20034 <_start@@Base+0x15938>
   20014:	e59f1614 	ldr	r1, [pc, #1556]	; 20630 <_start@@Base+0x15f34>
   20018:	ebffa95a 	bl	a588 <strcmp@plt>
   2001c:	e3500000 	cmp	r0, #0
   20020:	1a000003 	bne	20034 <_start@@Base+0x15938>
   20024:	e59f0658 	ldr	r0, [pc, #1624]	; 20684 <_start@@Base+0x15f88>
[31m   20028:	ebffa7eb 	bl	9fdc <system@plt>[0m
   2002c:	e59f0654 	ldr	r0, [pc, #1620]	; 20688 <_start@@Base+0x15f8c>
[31m   20030:	ebffa7e9 	bl	9fdc <system@plt>[0m
   20034:	e59f0650 	ldr	r0, [pc, #1616]	; 2068c <_start@@Base+0x15f90>
   20038:	ebffa886 	bl	a258 <nvram_get@plt>
   2003c:	e2503000 	subs	r3, r0, #0
   20040:	0a00026f 	beq	20a04 <_start@@Base+0x16308>
   20044:	e59f15e4 	ldr	r1, [pc, #1508]	; 20630 <_start@@Base+0x15f34>
   20048:	ebffa94e 	bl	a588 <strcmp@plt>
   2004c:	e2504000 	subs	r4, r0, #0
   20050:	1affff83 	bne	1fe64 <_start@@Base+0x15768>
   20054:	e59f0634 	ldr	r0, [pc, #1588]	; 20690 <_start@@Base+0x15f94>
[31m   20058:	ebffa7df 	bl	9fdc <system@plt>[0m
   2005c:	e59f0630 	ldr	r0, [pc, #1584]	; 20694 <_start@@Base+0x15f98>
[31m   20060:	ebffa7dd 	bl	9fdc <system@plt>[0m
   20064:	e1a00004 	mov	r0, r4
   20068:	eaffff7e 	b	1fe68 <_start@@Base+0x1576c>
--
   20fb4:	e58d47e0 	str	r4, [sp, #2016]	; 0x7e0
   20fb8:	e58d47e4 	str	r4, [sp, #2020]	; 0x7e4
   20fbc:	ebffa4a5 	bl	a258 <nvram_get@plt>
   20fc0:	e1500004 	cmp	r0, r4
   20fc4:	e59f1964 	ldr	r1, [pc, #2404]	; 21930 <_start@@Base+0x17234>
   20fc8:	11a01000 	movne	r1, r0
   20fcc:	e28d0e7e 	add	r0, sp, #2016	; 0x7e0
   20fd0:	ebffa5ba 	bl	a6c0 <strcpy@plt>
   20fd4:	e28d0e72 	add	r0, sp, #1824	; 0x720
   20fd8:	e1a01004 	mov	r1, r4
   20fdc:	e3a02040 	mov	r2, #64	; 0x40
   20fe0:	e280000c 	add	r0, r0, #12
   20fe4:	ebffa516 	bl	a444 <memset@plt>
   20fe8:	e28d0e72 	add	r0, sp, #1824	; 0x720
   20fec:	e28d2e7e 	add	r2, sp, #2016	; 0x7e0
   20ff0:	e59f18c0 	ldr	r1, [pc, #2240]	; 218b8 <_start@@Base+0x171bc>
   20ff4:	e280000c 	add	r0, r0, #12
   20ff8:	ebffa535 	bl	a4d4 <sprintf@plt>
   20ffc:	e28d0e72 	add	r0, sp, #1824	; 0x720
   21000:	e280000c 	add	r0, r0, #12
[31m   21004:	ebffa3f4 	bl	9fdc <system@plt>[0m
   21008:	e28d0e72 	add	r0, sp, #1824	; 0x720
   2100c:	e1a01004 	mov	r1, r4
   21010:	e3a02040 	mov	r2, #64	; 0x40
   21014:	e280000c 	add	r0, r0, #12
   21018:	ebffa509 	bl	a444 <memset@plt>
   2101c:	e28d0e72 	add	r0, sp, #1824	; 0x720
   21020:	e59f1894 	ldr	r1, [pc, #2196]	; 218bc <_start@@Base+0x171c0>
   21024:	e28d2e7e 	add	r2, sp, #2016	; 0x7e0
   21028:	e280000c 	add	r0, r0, #12
   2102c:	ebffa528 	bl	a4d4 <sprintf@plt>
   21030:	e28d0e72 	add	r0, sp, #1824	; 0x720
   21034:	e280000c 	add	r0, r0, #12
[31m   21038:	ebffa3e7 	bl	9fdc <system@plt>[0m
   2103c:	e1a00004 	mov	r0, r4
   21040:	e28dd00c 	add	sp, sp, #12
   21044:	e28ddb02 	add	sp, sp, #2048	; 0x800
   21048:	e8bd8ff0 	pop	{r4, r5, r6, r7, r8, r9, sl, fp, pc}
   2104c:	e3a01014 	mov	r1, #20
   21050:	e59f2868 	ldr	r2, [pc, #2152]	; 218c0 <_start@@Base+0x171c4>
   21054:	e1a00007 	mov	r0, r7
   21058:	ebffa454 	bl	a1b0 <snprintf@plt>
   2105c:	e1a0000a 	mov	r0, sl
   21060:	e3a03001 	mov	r3, #1
   21064:	e3a01014 	mov	r1, #20
   21068:	e59f2854 	ldr	r2, [pc, #2132]	; 218c4 <_start@@Base+0x171c8>
   2106c:	ebffa44f 	bl	a1b0 <snprintf@plt>
   21070:	eafffee9 	b	20c1c <_start@@Base+0x16520>
   21074:	e59f084c 	ldr	r0, [pc, #2124]	; 218c8 <_start@@Base+0x171cc>
[31m   21078:	ebffa3d7 	bl	9fdc <system@plt>[0m
   2107c:	e59f0848 	ldr	r0, [pc, #2120]	; 218cc <_start@@Base+0x171d0>
[31m   21080:	ebffa3d5 	bl	9fdc <system@plt>[0m
   21084:	eaffffc4 	b	20f9c <_start@@Base+0x168a0>
   21088:	e28d7e76 	add	r7, sp, #1888	; 0x760
--
   21498:	e28d5048 	add	r5, sp, #72	; 0x48
   2149c:	e58d3004 	str	r3, [sp, #4]
   214a0:	e1888421 	orr	r8, r8, r1, lsr #8
   214a4:	e28d0e79 	add	r0, sp, #1936	; 0x790
   214a8:	e58d0000 	str	r0, [sp]
   214ac:	e3a01e19 	mov	r1, #400	; 0x190
   214b0:	e1a0740c 	lsl	r7, ip, #8
   214b4:	e6ff8078 	uxth	r8, r8
   214b8:	e59f2414 	ldr	r2, [pc, #1044]	; 218d4 <_start@@Base+0x171d8>
   214bc:	e187c42c 	orr	ip, r7, ip, lsr #8
   214c0:	e1a00005 	mov	r0, r5
   214c4:	e1a0300b 	mov	r3, fp
   214c8:	e58da008 	str	sl, [sp, #8]
   214cc:	e6ffc07c 	uxth	ip, ip
   214d0:	e58d900c 	str	r9, [sp, #12]
   214d4:	e58de010 	str	lr, [sp, #16]
   214d8:	e58d8014 	str	r8, [sp, #20]
   214dc:	e58dc018 	str	ip, [sp, #24]
   214e0:	ebffa332 	bl	a1b0 <snprintf@plt>
   214e4:	e1a00005 	mov	r0, r5
[31m   214e8:	ebffa2bb 	bl	9fdc <system@plt>[0m
   214ec:	e2844001 	add	r4, r4, #1
   214f0:	e3540c01 	cmp	r4, #256	; 0x100
--
   21704:	e58de000 	str	lr, [sp]
   21708:	e1801421 	orr	r1, r0, r1, lsr #8
   2170c:	e28d8048 	add	r8, sp, #72	; 0x48
   21710:	e58d3004 	str	r3, [sp, #4]
   21714:	e1a0e40c 	lsl	lr, ip, #8
   21718:	e6ff1071 	uxth	r1, r1
   2171c:	e58da008 	str	sl, [sp, #8]
   21720:	e18ec42c 	orr	ip, lr, ip, lsr #8
   21724:	e58d1014 	str	r1, [sp, #20]
   21728:	e1a0300b 	mov	r3, fp
   2172c:	e58d900c 	str	r9, [sp, #12]
   21730:	e6ffc07c 	uxth	ip, ip
   21734:	e3a01e19 	mov	r1, #400	; 0x190
   21738:	e1a00008 	mov	r0, r8
   2173c:	e58d7010 	str	r7, [sp, #16]
   21740:	e58dc018 	str	ip, [sp, #24]
   21744:	e2844001 	add	r4, r4, #1
   21748:	e58d501c 	str	r5, [sp, #28]
   2174c:	ebffa297 	bl	a1b0 <snprintf@plt>
   21750:	e1a00008 	mov	r0, r8
[31m   21754:	ebffa220 	bl	9fdc <system@plt>[0m
   21758:	e3540c01 	cmp	r4, #256	; 0x100
   2175c:	1affff65 	bne	214f8 <_start@@Base+0x16dfc>
   21760:	e28d4faa 	add	r4, sp, #680	; 0x2a8
   21764:	e3a010c8 	mov	r1, #200	; 0xc8
   21768:	e2444008 	sub	r4, r4, #8
   2176c:	e59f216c 	ldr	r2, [pc, #364]	; 218e0 <_start@@Base+0x171e4>
   21770:	e1a00004 	mov	r0, r4
   21774:	e28d8e79 	add	r8, sp, #1936	; 0x790
   21778:	ebffa28c 	bl	a1b0 <snprintf@plt>
   2177c:	e1a00004 	mov	r0, r4
   21780:	e1a0500b 	mov	r5, fp
[31m   21784:	ebffa214 	bl	9fdc <system@plt>[0m
   21788:	e1a00004 	mov	r0, r4
   2178c:	e3a010c8 	mov	r1, #200	; 0xc8
   21790:	e59f214c 	ldr	r2, [pc, #332]	; 218e4 <_start@@Base+0x171e8>
   21794:	e1a0300b 	mov	r3, fp
   21798:	e58d8000 	str	r8, [sp]
   2179c:	ebffa283 	bl	a1b0 <snprintf@plt>
   217a0:	e1a00004 	mov	r0, r4
[31m   217a4:	ebffa20c 	bl	9fdc <system@plt>[0m
   217a8:	eafffd87 	b	20dcc <_start@@Base+0x166d0>
   217ac:	e30f2d6a 	movw	r2, #64874	; 0xfd6a
--
   21810:	e59f30d0 	ldr	r3, [pc, #208]	; 218e8 <_start@@Base+0x171ec>
   21814:	e19c20b2 	ldrh	r2, [ip, r2]
   21818:	eaffff9d 	b	21694 <_start@@Base+0x16f98>
   2181c:	e59f00c8 	ldr	r0, [pc, #200]	; 218ec <_start@@Base+0x171f0>
   21820:	ebffa28c 	bl	a258 <nvram_get@plt>
   21824:	e59f3104 	ldr	r3, [pc, #260]	; 21930 <_start@@Base+0x17234>
   21828:	e3500000 	cmp	r0, #0
   2182c:	e28d4f76 	add	r4, sp, #472	; 0x1d8
   21830:	01a00003 	moveq	r0, r3
   21834:	ebffa365 	bl	a5d0 <atoi@plt>
   21838:	e1a01006 	mov	r1, r6
   2183c:	e1a05000 	mov	r5, r0
   21840:	e3a02080 	mov	r2, #128	; 0x80
   21844:	e1a00004 	mov	r0, r4
   21848:	ebffa2fd 	bl	a444 <memset@plt>
   2184c:	e59f109c 	ldr	r1, [pc, #156]	; 218f0 <_start@@Base+0x171f4>
   21850:	e2452028 	sub	r2, r5, #40	; 0x28
   21854:	e1a00004 	mov	r0, r4
   21858:	ebffa31d 	bl	a4d4 <sprintf@plt>
   2185c:	e1a00004 	mov	r0, r4
[31m   21860:	ebffa1dd 	bl	9fdc <system@plt>[0m
   21864:	ebffa1b5 	bl	9f40 <netconf_clamp_mss_to_pmtu@plt>
   21868:	eafffd95 	b	20ec4 <_start@@Base+0x167c8>
--
   21fe4:	ebffa09b 	bl	a258 <nvram_get@plt>
   21fe8:	e3500000 	cmp	r0, #0
   21fec:	0a000003 	beq	22000 <_start@@Base+0x17904>
   21ff0:	e51f16dc 	ldr	r1, [pc, #-1756]	; 2191c <_start@@Base+0x17220>
   21ff4:	ebffa163 	bl	a588 <strcmp@plt>
   21ff8:	e3500000 	cmp	r0, #0
   21ffc:	0affff13 	beq	21c50 <_start@@Base+0x17554>
   22000:	e51f06e8 	ldr	r0, [pc, #-1768]	; 21920 <_start@@Base+0x17224>
   22004:	e28d6f76 	add	r6, sp, #472	; 0x1d8
   22008:	ebffa092 	bl	a258 <nvram_get@plt>
   2200c:	e51fc6e4 	ldr	ip, [pc, #-1764]	; 21930 <_start@@Base+0x17234>
   22010:	e3500000 	cmp	r0, #0
   22014:	11a0c000 	movne	ip, r0
   22018:	e3a010c8 	mov	r1, #200	; 0xc8
   2201c:	e51f2700 	ldr	r2, [pc, #-1792]	; 21924 <_start@@Base+0x17228>
   22020:	e1a03005 	mov	r3, r5
   22024:	e1a00006 	mov	r0, r6
   22028:	e58dc000 	str	ip, [sp]
   2202c:	ebffa05f 	bl	a1b0 <snprintf@plt>
   22030:	e1a00006 	mov	r0, r6
[31m   22034:	ebff9fe8 	bl	9fdc <system@plt>[0m
   22038:	eaffff04 	b	21c50 <_start@@Base+0x17554>
   2203c:	e28ded1b 	add	lr, sp, #1728	; 0x6c0
--
   22b20:	e59f0118 	ldr	r0, [pc, #280]	; 22c40 <_start@@Base+0x18544>
   22b24:	ebff9eca 	bl	a654 <puts@plt>
   22b28:	e1a00008 	mov	r0, r8
   22b2c:	ebff9dff 	bl	a330 <close@plt>
   22b30:	e1a0000a 	mov	r0, sl
   22b34:	ebff9dfd 	bl	a330 <close@plt>
   22b38:	e3e00000 	mvn	r0, #0
   22b3c:	e28ddf91 	add	sp, sp, #580	; 0x244
   22b40:	e28dd801 	add	sp, sp, #65536	; 0x10000
   22b44:	e8bd8ff0 	pop	{r4, r5, r6, r7, r8, r9, sl, fp, pc}
   22b48:	e1a00008 	mov	r0, r8
   22b4c:	ebff9df7 	bl	a330 <close@plt>
   22b50:	e1a0000a 	mov	r0, sl
   22b54:	ebff9df5 	bl	a330 <close@plt>
   22b58:	e59f10e4 	ldr	r1, [pc, #228]	; 22c44 <_start@@Base+0x18548>
   22b5c:	e1a00009 	mov	r0, r9
   22b60:	e59f20cc 	ldr	r2, [pc, #204]	; 22c34 <_start@@Base+0x18538>
   22b64:	e59f30dc 	ldr	r3, [pc, #220]	; 22c48 <_start@@Base+0x1854c>
   22b68:	ebff9e59 	bl	a4d4 <sprintf@plt>
   22b6c:	e1a00009 	mov	r0, r9
[31m   22b70:	ebff9d19 	bl	9fdc <system@plt>[0m
   22b74:	e59f00cc 	ldr	r0, [pc, #204]	; 22c48 <_start@@Base+0x1854c>
   22b78:	e59f10cc 	ldr	r1, [pc, #204]	; 22c4c <_start@@Base+0x18550>
   22b7c:	ebff9dc7 	bl	a2a0 <fopen@plt>
   22b80:	e2504000 	subs	r4, r0, #0
   22b84:	0a000025 	beq	22c20 <_start@@Base+0x18524>
   22b88:	e1a0200b 	mov	r2, fp
   22b8c:	e59f10bc 	ldr	r1, [pc, #188]	; 22c50 <_start@@Base+0x18554>
   22b90:	ebff9eb5 	bl	a66c <fscanf@plt>
   22b94:	e1a00004 	mov	r0, r4
   22b98:	ebff9dba 	bl	a288 <fclose@plt>
   22b9c:	e1a0100b 	mov	r1, fp
   22ba0:	e59f00ac 	ldr	r0, [pc, #172]	; 22c54 <_start@@Base+0x18558>
   22ba4:	ebff9e9e 	bl	a624 <printf@plt>
   22ba8:	e59f10a8 	ldr	r1, [pc, #168]	; 22c58 <_start@@Base+0x1855c>
   22bac:	e1a00009 	mov	r0, r9
   22bb0:	e59f207c 	ldr	r2, [pc, #124]	; 22c34 <_start@@Base+0x18538>
   22bb4:	ebff9e46 	bl	a4d4 <sprintf@plt>
   22bb8:	e1a00009 	mov	r0, r9
[31m   22bbc:	ebff9d06 	bl	9fdc <system@plt>[0m
   22bc0:	e59f2080 	ldr	r2, [pc, #128]	; 22c48 <_start@@Base+0x1854c>
   22bc4:	e1a00009 	mov	r0, r9
   22bc8:	e59f1088 	ldr	r1, [pc, #136]	; 22c58 <_start@@Base+0x1855c>
   22bcc:	ebff9e40 	bl	a4d4 <sprintf@plt>
   22bd0:	e1a00009 	mov	r0, r9
[31m   22bd4:	ebff9d00 	bl	9fdc <system@plt>[0m
   22bd8:	e1a0100b 	mov	r1, fp
   22bdc:	e59f0078 	ldr	r0, [pc, #120]	; 22c5c <_start@@Base+0x18560>

[0m
[[0;33m*[0m] Function [0;33msystem[0m used [0;33m138[0m times [0;33mrc[0m

