[[0;33m*[0m] Binary protection state of [0;33mlibip6t_ah.so[0m
[REF] s12

  	RELRO          CANARY            NX           PIE       RPATH        RUNPATH      SYMBOLS      
  	[31mNo RELRO[0m       [31mNo Canary found[0m   [32mNX enabled[0m   [33mDSO[0m          [32mNo RPATH[0m     [32mNo RUNPATH[0m   [31mSymbols
	[31mNo RELRO[0m       [31mNo Canary found[0m   [32mNX enabled[0m   [33mDSO[0m          [32mNo RPATH[0m     [32mNo RUNPATH[0m   [32mNo Symbols[0m

[0m
[[0;33m*[0m] Function [0;33mprintf[0m tear down of [0;33mlibip6t_ah.so[0m

 624:	15c5300d 	strbne	r3, [r5, #13]
 628:	e8bd8038 	pop	{r3, r4, r5, pc}
 62c:	e92d4070 	push	{r4, r5, r6, lr}
 630:	e1a06001 	mov	r6, r1
 634:	e5913020 	ldr	r3, [r1, #32]
 638:	e2815020 	add	r5, r1, #32
 63c:	e59f40fc 	ldr	r4, [pc, #252]	; 740 <__register_frame_info@plt+0x284>
 640:	e3530000 	cmp	r3, #0
 644:	e08f4004 	add	r4, pc, r4
 648:	1a000002 	bne	658 <__register_frame_info@plt+0x19c>
 64c:	e5953004 	ldr	r3, [r5, #4]
 650:	e3730001 	cmn	r3, #1
 654:	0a00000e 	beq	694 <__register_frame_info@plt+0x1d8>
 658:	e5d5300d 	ldrb	r3, [r5, #13]
 65c:	e3130001 	tst	r3, #1
 660:	1a000029 	bne	70c <__register_frame_info@plt+0x250>
 664:	e59f10d8 	ldr	r1, [pc, #216]	; 744 <__register_frame_info@plt+0x288>
 668:	e59f00d8 	ldr	r0, [pc, #216]	; 748 <__register_frame_info@plt+0x28c>
 66c:	e0841001 	add	r1, r4, r1
 670:	e0840000 	add	r0, r4, r0
[31m 674:	ebffff7e 	bl	474 <printf@plt>[0m
 678:	e5961020 	ldr	r1, [r6, #32]
 67c:	e5952004 	ldr	r2, [r5, #4]
 680:	e1510002 	cmp	r1, r2
 684:	0a000029 	beq	730 <__register_frame_info@plt+0x274>
 688:	e59f00bc 	ldr	r0, [pc, #188]	; 74c <__register_frame_info@plt+0x290>
 68c:	e0840000 	add	r0, r4, r0
[31m 690:	ebffff77 	bl	474 <printf@plt>[0m
 694:	e5952008 	ldr	r2, [r5, #8]
 698:	e3520000 	cmp	r2, #0
 69c:	1a00000e 	bne	6dc <__register_frame_info@plt+0x220>
 6a0:	e5d5300d 	ldrb	r3, [r5, #13]
 6a4:	e3130002 	tst	r3, #2
 6a8:	0a000004 	beq	6c0 <__register_frame_info@plt+0x204>
 6ac:	e59f109c 	ldr	r1, [pc, #156]	; 750 <__register_frame_info@plt+0x294>
 6b0:	e59f009c 	ldr	r0, [pc, #156]	; 754 <__register_frame_info@plt+0x298>
 6b4:	e0841001 	add	r1, r4, r1
 6b8:	e0840000 	add	r0, r4, r0
[31m 6bc:	ebffff6c 	bl	474 <printf@plt>[0m
 6c0:	e5d5300c 	ldrb	r3, [r5, #12]
 6c4:	e3530000 	cmp	r3, #0
 6c8:	08bd8070 	popeq	{r4, r5, r6, pc}
 6cc:	e59f0084 	ldr	r0, [pc, #132]	; 758 <__register_frame_info@plt+0x29c>
 6d0:	e0840000 	add	r0, r4, r0
 6d4:	e8bd4070 	pop	{r4, r5, r6, lr}
[31m 6d8:	eaffff65 	b	474 <printf@plt>[0m
 6dc:	e5d5300d 	ldrb	r3, [r5, #13]
 6e0:	e3130002 	tst	r3, #2
 6e4:	1afffff0 	bne	6ac <__register_frame_info@plt+0x1f0>
 6e8:	e59f1054 	ldr	r1, [pc, #84]	; 744 <__register_frame_info@plt+0x288>
 6ec:	e59f0060 	ldr	r0, [pc, #96]	; 754 <__register_frame_info@plt+0x298>
 6f0:	e0841001 	add	r1, r4, r1
 6f4:	e0840000 	add	r0, r4, r0
[31m 6f8:	ebffff5d 	bl	474 <printf@plt>[0m
 6fc:	e5d5300c 	ldrb	r3, [r5, #12]
 700:	e3530000 	cmp	r3, #0
 704:	08bd8070 	popeq	{r4, r5, r6, pc}
 708:	eaffffef 	b	6cc <__register_frame_info@plt+0x210>
 70c:	e59f103c 	ldr	r1, [pc, #60]	; 750 <__register_frame_info@plt+0x294>
 710:	e59f0030 	ldr	r0, [pc, #48]	; 748 <__register_frame_info@plt+0x28c>
 714:	e0841001 	add	r1, r4, r1
 718:	e0840000 	add	r0, r4, r0
[31m 71c:	ebffff54 	bl	474 <printf@plt>[0m
 720:	e5961020 	ldr	r1, [r6, #32]
 724:	e5952004 	ldr	r2, [r5, #4]
 728:	e1510002 	cmp	r1, r2
 72c:	1affffd5 	bne	688 <__register_frame_info@plt+0x1cc>
 730:	e59f0024 	ldr	r0, [pc, #36]	; 75c <__register_frame_info@plt+0x2a0>
 734:	e0840000 	add	r0, r4, r0
[31m 738:	ebffff4d 	bl	474 <printf@plt>[0m
 73c:	eaffffd4 	b	694 <__register_frame_info@plt+0x1d8>
 740:	000085bc 			; <UNDEFINED> instruction: 0x000085bc
 744:	ffff7d54 			; <UNDEFINED> instruction: 0xffff7d54
 748:	ffff7d18 			; <UNDEFINED> instruction: 0xffff7d18
 74c:	ffff7d24 			; <UNDEFINED> instruction: 0xffff7d24
 750:	ffff7d14 			; <UNDEFINED> instruction: 0xffff7d14
 754:	ffff7d30 			; <UNDEFINED> instruction: 0xffff7d30
 758:	ffff7d40 			; <UNDEFINED> instruction: 0xffff7d40
 75c:	ffff7d2c 			; <UNDEFINED> instruction: 0xffff7d2c
 760:	e92d4070 	push	{r4, r5, r6, lr}
 764:	e2815020 	add	r5, r1, #32
 768:	e59f413c 	ldr	r4, [pc, #316]	; 8ac <__register_frame_info@plt+0x3f0>
 76c:	e24dd008 	sub	sp, sp, #8
 770:	e1a06001 	mov	r6, r1
 774:	e59f0134 	ldr	r0, [pc, #308]	; 8b0 <__register_frame_info@plt+0x3f4>
 778:	e08f4004 	add	r4, pc, r4
 77c:	e0840000 	add	r0, r4, r0
[31m 780:	ebffff3b 	bl	474 <printf@plt>[0m
 784:	e5d5000d 	ldrb	r0, [r5, #13]
 788:	e5963020 	ldr	r3, [r6, #32]
--
 7c0:	e59f20ec 	ldr	r2, [pc, #236]	; 8b4 <__register_frame_info@plt+0x3f8>
 7c4:	e3530000 	cmp	r3, #0
 7c8:	03500000 	cmpeq	r0, #0
 7cc:	e0842002 	add	r2, r4, r2
 7d0:	1a000018 	bne	838 <__register_frame_info@plt+0x37c>
 7d4:	e5d5300c 	ldrb	r3, [r5, #12]
 7d8:	e3530000 	cmp	r3, #0
 7dc:	1a00001d 	bne	858 <__register_frame_info@plt+0x39c>
 7e0:	e5d5100d 	ldrb	r1, [r5, #13]
 7e4:	e3d11003 	bics	r1, r1, #3
 7e8:	1a000020 	bne	870 <__register_frame_info@plt+0x3b4>
 7ec:	e28dd008 	add	sp, sp, #8
 7f0:	e8bd8070 	pop	{r4, r5, r6, pc}
 7f4:	e1530001 	cmp	r3, r1
 7f8:	0a000024 	beq	890 <__register_frame_info@plt+0x3d4>
 7fc:	e58d1000 	str	r1, [sp]
 800:	e59f00b0 	ldr	r0, [pc, #176]	; 8b8 <__register_frame_info@plt+0x3fc>
 804:	e59f10b0 	ldr	r1, [pc, #176]	; 8bc <__register_frame_info@plt+0x400>
 808:	e0840000 	add	r0, r4, r0
 80c:	e0841001 	add	r1, r4, r1
[31m 810:	ebffff17 	bl	474 <printf@plt>[0m
 814:	e5d5000d 	ldrb	r0, [r5, #13]
 818:	e5953008 	ldr	r3, [r5, #8]
 81c:	e2100002 	ands	r0, r0, #2
 820:	1affffe6 	bne	7c0 <__register_frame_info@plt+0x304>
 824:	e59f2094 	ldr	r2, [pc, #148]	; 8c0 <__register_frame_info@plt+0x404>
 828:	e3530000 	cmp	r3, #0
 82c:	03500000 	cmpeq	r0, #0
 830:	e0842002 	add	r2, r4, r2
 834:	0affffe6 	beq	7d4 <__register_frame_info@plt+0x318>
 838:	e59f0084 	ldr	r0, [pc, #132]	; 8c4 <__register_frame_info@plt+0x408>
 83c:	e59f1084 	ldr	r1, [pc, #132]	; 8c8 <__register_frame_info@plt+0x40c>
 840:	e0840000 	add	r0, r4, r0
 844:	e0841001 	add	r1, r4, r1
[31m 848:	ebffff09 	bl	474 <printf@plt>[0m
 84c:	e5d5300c 	ldrb	r3, [r5, #12]
 850:	e3530000 	cmp	r3, #0
 854:	0affffe1 	beq	7e0 <__register_frame_info@plt+0x324>
 858:	e59f006c 	ldr	r0, [pc, #108]	; 8cc <__register_frame_info@plt+0x410>
 85c:	e0840000 	add	r0, r4, r0
[31m 860:	ebffff03 	bl	474 <printf@plt>[0m
 864:	e5d5100d 	ldrb	r1, [r5, #13]
 868:	e3d11003 	bics	r1, r1, #3
 86c:	0affffde 	beq	7ec <__register_frame_info@plt+0x330>
 870:	e59f0058 	ldr	r0, [pc, #88]	; 8d0 <__register_frame_info@plt+0x414>
 874:	e0840000 	add	r0, r4, r0
 878:	e28dd008 	add	sp, sp, #8
 87c:	e8bd4070 	pop	{r4, r5, r6, lr}
[31m 880:	eafffefb 	b	474 <printf@plt>[0m
 884:	e59f2034 	ldr	r2, [pc, #52]	; 8c0 <__register_frame_info@plt+0x404>
 888:	e0842002 	add	r2, r4, r2
 88c:	eaffffc3 	b	7a0 <__register_frame_info@plt+0x2e4>
 890:	e59f002c 	ldr	r0, [pc, #44]	; 8c4 <__register_frame_info@plt+0x408>
 894:	e59f1020 	ldr	r1, [pc, #32]	; 8bc <__register_frame_info@plt+0x400>
 898:	e0840000 	add	r0, r4, r0
 89c:	e0841001 	add	r1, r4, r1
[31m 8a0:	ebfffef3 	bl	474 <printf@plt>[0m
 8a4:	e5d5000d 	ldrb	r0, [r5, #13]
 8a8:	eaffffc1 	b	7b4 <__register_frame_info@plt+0x2f8>

[0m
[[0;33m*[0m] Function [0;33mprintf[0m used [0;33m11[0m times [0;33mlibip6t_ah.so[0m

