[[0;33m*[0m] Binary protection state of [0;33memf.svn-base[0m
[REF] s12

  	RELRO          CANARY            NX           PIE       RPATH        RUNPATH      SYMBOLS      
  	[31mNo RELRO[0m       [31mNo Canary found[0m   [32mNX enabled[0m   [31mNo PIE[0m       [32mNo RPATH[0m     [32mNo RUNPATH[0m   [32mNo Symbols[0m

[0m
[[0;33m*[0m] Function [0;33mstrcpy[0m tear down of [0;33memf.svn-base[0m

    87b8:	e5903000 	ldr	r3, [r0]
    87bc:	e3530000 	cmp	r3, #0
    87c0:	08bd8008 	popeq	{r3, pc}
    87c4:	e59f301c 	ldr	r3, [pc, #28]	; 87e8 <_start+0xd0>
    87c8:	e3530000 	cmp	r3, #0
    87cc:	08bd8008 	popeq	{r3, pc}
    87d0:	e12fff33 	blx	r3
    87d4:	e8bd8008 	pop	{r3, pc}
    87d8:	00000000 	andeq	r0, r0, r0
    87dc:	0000a02c 	andeq	sl, r0, ip, lsr #32
    87e0:	00012188 	andeq	r2, r1, r8, lsl #3
    87e4:	00012038 	andeq	r2, r1, r8, lsr r0
    87e8:	00000000 	andeq	r0, r0, r0
    87ec:	e92d4030 	push	{r4, r5, lr}
    87f0:	e24dde43 	sub	sp, sp, #1072	; 0x430
    87f4:	e24dd004 	sub	sp, sp, #4
    87f8:	e1a03000 	mov	r3, r0
    87fc:	e28d4010 	add	r4, sp, #16
    8800:	e593100c 	ldr	r1, [r3, #12]
    8804:	e1a00004 	mov	r0, r4
[31m    8808:	ebffff7d 	bl	8604 <strcpy@plt>[0m
    880c:	e3a03012 	mov	r3, #18
    8810:	e1a00004 	mov	r0, r4
--
    88cc:	e58d3008 	str	r3, [sp, #8]
    88d0:	e5943004 	ldr	r3, [r4, #4]
    88d4:	ebffff5f 	bl	8658 <fprintf@plt>
    88d8:	e3a00000 	mov	r0, #0
    88dc:	e28dd034 	add	sp, sp, #52	; 0x34
    88e0:	e28ddb01 	add	sp, sp, #1024	; 0x400
    88e4:	e8bd8030 	pop	{r4, r5, pc}
    88e8:	00009a04 	andeq	r9, r0, r4, lsl #20
    88ec:	00009a23 	andeq	r9, r0, r3, lsr #20
    88f0:	00012180 	andeq	r2, r1, r0, lsl #3
    88f4:	0001217c 	andeq	r2, r1, ip, ror r1
    88f8:	00009a40 	andeq	r9, r0, r0, asr #20
    88fc:	00009a92 	muleq	r0, r2, sl
    8900:	00009aae 	andeq	r9, r0, lr, lsr #21
    8904:	e92d41f0 	push	{r4, r5, r6, r7, r8, lr}
    8908:	e1a03000 	mov	r3, r0
    890c:	e24dde42 	sub	sp, sp, #1056	; 0x420
    8910:	e593100c 	ldr	r1, [r3, #12]
    8914:	e1a0000d 	mov	r0, sp
    8918:	e1a0400d 	mov	r4, sp
[31m    891c:	ebffff38 	bl	8604 <strcpy@plt>[0m
    8920:	e3a03005 	mov	r3, #5
    8924:	e1a0000d 	mov	r0, sp
--
    89e8:	e8bd81f0 	pop	{r4, r5, r6, r7, r8, pc}
    89ec:	00009a04 	andeq	r9, r0, r4, lsl #20
    89f0:	00009aff 	strdeq	r9, [r0], -pc	; <UNPREDICTABLE>
    89f4:	00012180 	andeq	r2, r1, r0, lsl #3
    89f8:	0001217c 	andeq	r2, r1, ip, ror r1
    89fc:	00009b1c 	andeq	r9, r0, ip, lsl fp
    8a00:	00009b41 	andeq	r9, r0, r1, asr #22
    8a04:	00009b4e 	andeq	r9, r0, lr, asr #22
    8a08:	00009aaa 	andeq	r9, r0, sl, lsr #21
    8a0c:	e92d4030 	push	{r4, r5, lr}
    8a10:	e24dde42 	sub	sp, sp, #1056	; 0x420
    8a14:	e24dd004 	sub	sp, sp, #4
    8a18:	e3a02e42 	mov	r2, #1056	; 0x420
    8a1c:	e1a05000 	mov	r5, r0
    8a20:	e3a01000 	mov	r1, #0
    8a24:	e1a0000d 	mov	r0, sp
    8a28:	e1a0400d 	mov	r4, sp
    8a2c:	ebffff21 	bl	86b8 <memset@plt>
    8a30:	e595100c 	ldr	r1, [r5, #12]
    8a34:	e1a0000d 	mov	r0, sp
[31m    8a38:	ebfffef1 	bl	8604 <strcpy@plt>[0m
    8a3c:	e3a03004 	mov	r3, #4
    8a40:	e1a0000d 	mov	r0, sp
--
    8a90:	e5930000 	ldr	r0, [r3]
    8a94:	ebfffeef 	bl	8658 <fprintf@plt>
    8a98:	e3e00000 	mvn	r0, #0
    8a9c:	e28dd024 	add	sp, sp, #36	; 0x24
    8aa0:	e28ddb01 	add	sp, sp, #1024	; 0x400
    8aa4:	e8bd8030 	pop	{r4, r5, pc}
    8aa8:	00012180 	andeq	r2, r1, r0, lsl #3
    8aac:	00009a04 	andeq	r9, r0, r4, lsl #20
    8ab0:	00009b54 	andeq	r9, r0, r4, asr fp
    8ab4:	e92d4030 	push	{r4, r5, lr}
    8ab8:	e24dde42 	sub	sp, sp, #1056	; 0x420
    8abc:	e24dd004 	sub	sp, sp, #4
    8ac0:	e3a02e42 	mov	r2, #1056	; 0x420
    8ac4:	e1a05000 	mov	r5, r0
    8ac8:	e3a01000 	mov	r1, #0
    8acc:	e1a0000d 	mov	r0, sp
    8ad0:	e1a0400d 	mov	r4, sp
    8ad4:	ebfffef7 	bl	86b8 <memset@plt>
    8ad8:	e595100c 	ldr	r1, [r5, #12]
    8adc:	e1a0000d 	mov	r0, sp
[31m    8ae0:	ebfffec7 	bl	8604 <strcpy@plt>[0m
    8ae4:	e3a03007 	mov	r3, #7
    8ae8:	e1a0000d 	mov	r0, sp
--
    8b38:	e5930000 	ldr	r0, [r3]
    8b3c:	ebfffec5 	bl	8658 <fprintf@plt>
    8b40:	e3e00000 	mvn	r0, #0
    8b44:	e28dd024 	add	sp, sp, #36	; 0x24
    8b48:	e28ddb01 	add	sp, sp, #1024	; 0x400
    8b4c:	e8bd8030 	pop	{r4, r5, pc}
    8b50:	00012180 	andeq	r2, r1, r0, lsl #3
    8b54:	00009a04 	andeq	r9, r0, r4, lsl #20
    8b58:	00009b69 	andeq	r9, r0, r9, ror #22
    8b5c:	e92d4030 	push	{r4, r5, lr}
    8b60:	e24dde42 	sub	sp, sp, #1056	; 0x420
    8b64:	e24dd004 	sub	sp, sp, #4
    8b68:	e3a02e42 	mov	r2, #1056	; 0x420
    8b6c:	e1a05000 	mov	r5, r0
    8b70:	e3a01000 	mov	r1, #0
    8b74:	e1a0000d 	mov	r0, sp
    8b78:	e1a0400d 	mov	r4, sp
    8b7c:	ebfffecd 	bl	86b8 <memset@plt>
    8b80:	e595100c 	ldr	r1, [r5, #12]
    8b84:	e1a0000d 	mov	r0, sp
[31m    8b88:	ebfffe9d 	bl	8604 <strcpy@plt>[0m
    8b8c:	e3a03006 	mov	r3, #6
    8b90:	e1a0000d 	mov	r0, sp
--
    8be0:	e5930000 	ldr	r0, [r3]
    8be4:	ebfffe9b 	bl	8658 <fprintf@plt>
    8be8:	e3e00000 	mvn	r0, #0
    8bec:	e28dd024 	add	sp, sp, #36	; 0x24
    8bf0:	e28ddb01 	add	sp, sp, #1024	; 0x400
    8bf4:	e8bd8030 	pop	{r4, r5, pc}
    8bf8:	00012180 	andeq	r2, r1, r0, lsl #3
    8bfc:	00009a04 	andeq	r9, r0, r4, lsl #20
    8c00:	00009b69 	andeq	r9, r0, r9, ror #22
    8c04:	e92d4030 	push	{r4, r5, lr}
    8c08:	e24dde42 	sub	sp, sp, #1056	; 0x420
    8c0c:	e24dd004 	sub	sp, sp, #4
    8c10:	e3a02e42 	mov	r2, #1056	; 0x420
    8c14:	e1a05000 	mov	r5, r0
    8c18:	e3a01000 	mov	r1, #0
    8c1c:	e1a0000d 	mov	r0, sp
    8c20:	e1a0400d 	mov	r4, sp
    8c24:	ebfffea3 	bl	86b8 <memset@plt>
    8c28:	e5951008 	ldr	r1, [r5, #8]
    8c2c:	e1a0000d 	mov	r0, sp
[31m    8c30:	ebfffe73 	bl	8604 <strcpy@plt>[0m
    8c34:	e3a03001 	mov	r3, #1
    8c38:	e1a0000d 	mov	r0, sp
--
    8cbc:	e28ddb01 	add	sp, sp, #1024	; 0x400
    8cc0:	e8bd8030 	pop	{r4, r5, pc}
    8cc4:	00012180 	andeq	r2, r1, r0, lsl #3
    8cc8:	00009a04 	andeq	r9, r0, r4, lsl #20
    8ccc:	00009b80 	andeq	r9, r0, r0, lsl #23
    8cd0:	0001217c 	andeq	r2, r1, ip, ror r1
    8cd4:	00009b76 	andeq	r9, r0, r6, ror fp
    8cd8:	00009b6d 	andeq	r9, r0, sp, ror #22
    8cdc:	00009bae 	andeq	r9, r0, lr, lsr #23
    8ce0:	e92d4030 	push	{r4, r5, lr}
    8ce4:	e24dde42 	sub	sp, sp, #1056	; 0x420
    8ce8:	e24dd004 	sub	sp, sp, #4
    8cec:	e1a05000 	mov	r5, r0
    8cf0:	e3a02e42 	mov	r2, #1056	; 0x420
    8cf4:	e3a01000 	mov	r1, #0
    8cf8:	e1a0000d 	mov	r0, sp
    8cfc:	e1a0400d 	mov	r4, sp
    8d00:	ebfffe6c 	bl	86b8 <memset@plt>
    8d04:	e5951008 	ldr	r1, [r5, #8]
    8d08:	e1a0000d 	mov	r0, sp
[31m    8d0c:	ebfffe3c 	bl	8604 <strcpy@plt>[0m
    8d10:	e3a03001 	mov	r3, #1
    8d14:	e3a05000 	mov	r5, #0
--
    8d70:	e5930000 	ldr	r0, [r3]
    8d74:	ebfffe37 	bl	8658 <fprintf@plt>
    8d78:	e3e00000 	mvn	r0, #0
    8d7c:	e28dd024 	add	sp, sp, #36	; 0x24
    8d80:	e28ddb01 	add	sp, sp, #1024	; 0x400
    8d84:	e8bd8030 	pop	{r4, r5, pc}
    8d88:	00012180 	andeq	r2, r1, r0, lsl #3
    8d8c:	00009a04 	andeq	r9, r0, r4, lsl #20
    8d90:	00009b69 	andeq	r9, r0, r9, ror #22
    8d94:	e92d4030 	push	{r4, r5, lr}
    8d98:	e24dde42 	sub	sp, sp, #1056	; 0x420
    8d9c:	e24dd004 	sub	sp, sp, #4
    8da0:	e3a02e42 	mov	r2, #1056	; 0x420
    8da4:	e1a05000 	mov	r5, r0
    8da8:	e3a01000 	mov	r1, #0
    8dac:	e1a0000d 	mov	r0, sp
    8db0:	e1a0400d 	mov	r4, sp
    8db4:	ebfffe3f 	bl	86b8 <memset@plt>
    8db8:	e5951008 	ldr	r1, [r5, #8]
    8dbc:	e1a0000d 	mov	r0, sp
[31m    8dc0:	ebfffe0f 	bl	8604 <strcpy@plt>[0m
    8dc4:	e3a03001 	mov	r3, #1
    8dc8:	e3a02002 	mov	r2, #2
--
    8e24:	ebfffe0b 	bl	8658 <fprintf@plt>
    8e28:	e3e00000 	mvn	r0, #0
    8e2c:	e28dd024 	add	sp, sp, #36	; 0x24
    8e30:	e28ddb01 	add	sp, sp, #1024	; 0x400
    8e34:	e8bd8030 	pop	{r4, r5, pc}
    8e38:	00012180 	andeq	r2, r1, r0, lsl #3
    8e3c:	00009a04 	andeq	r9, r0, r4, lsl #20
    8e40:	00009b69 	andeq	r9, r0, r9, ror #22
    8e44:	e92d4070 	push	{r4, r5, r6, lr}
    8e48:	e24dde42 	sub	sp, sp, #1056	; 0x420
    8e4c:	e24dd008 	sub	sp, sp, #8
    8e50:	e1a05000 	mov	r5, r0
    8e54:	e28d6008 	add	r6, sp, #8
    8e58:	e3a02e42 	mov	r2, #1056	; 0x420
    8e5c:	e2464004 	sub	r4, r6, #4
    8e60:	e3a01000 	mov	r1, #0
    8e64:	e1a00004 	mov	r0, r4
    8e68:	ebfffe12 	bl	86b8 <memset@plt>
    8e6c:	e595100c 	ldr	r1, [r5, #12]
    8e70:	e1a00004 	mov	r0, r4
[31m    8e74:	ebfffde2 	bl	8604 <strcpy@plt>[0m
    8e78:	e3a03003 	mov	r3, #3
    8e7c:	e28d1e42 	add	r1, sp, #1056	; 0x420
--
    8f10:	e3e00000 	mvn	r0, #0
    8f14:	e28dd028 	add	sp, sp, #40	; 0x28
    8f18:	e28ddb01 	add	sp, sp, #1024	; 0x400
    8f1c:	e8bd8070 	pop	{r4, r5, r6, pc}
    8f20:	00009bce 	andeq	r9, r0, lr, asr #23
    8f24:	00009a04 	andeq	r9, r0, r4, lsl #20
    8f28:	00012180 	andeq	r2, r1, r0, lsl #3
    8f2c:	00009be5 	andeq	r9, r0, r5, ror #23
    8f30:	e92d4070 	push	{r4, r5, r6, lr}
    8f34:	e24dde42 	sub	sp, sp, #1056	; 0x420
    8f38:	e24dd008 	sub	sp, sp, #8
    8f3c:	e1a05000 	mov	r5, r0
    8f40:	e28d6008 	add	r6, sp, #8
    8f44:	e3a02e42 	mov	r2, #1056	; 0x420
    8f48:	e2464004 	sub	r4, r6, #4
    8f4c:	e3a01000 	mov	r1, #0
    8f50:	e1a00004 	mov	r0, r4
    8f54:	ebfffdd7 	bl	86b8 <memset@plt>
    8f58:	e595100c 	ldr	r1, [r5, #12]
    8f5c:	e1a00004 	mov	r0, r4
[31m    8f60:	ebfffda7 	bl	8604 <strcpy@plt>[0m
    8f64:	e28d1e42 	add	r1, sp, #1056	; 0x420
    8f68:	e3a03002 	mov	r3, #2
--
    8fec:	e59f1020 	ldr	r1, [pc, #32]	; 9014 <_start+0x8fc>
    8ff0:	e5930000 	ldr	r0, [r3]
    8ff4:	ebfffd97 	bl	8658 <fprintf@plt>
    8ff8:	e3e00000 	mvn	r0, #0
    8ffc:	e28dd028 	add	sp, sp, #40	; 0x28
    9000:	e28ddb01 	add	sp, sp, #1024	; 0x400
    9004:	e8bd8070 	pop	{r4, r5, r6, pc}
    9008:	00009bce 	andeq	r9, r0, lr, asr #23
    900c:	00009a04 	andeq	r9, r0, r4, lsl #20
    9010:	00012180 	andeq	r2, r1, r0, lsl #3
    9014:	00009bfb 	strdeq	r9, [r0], -fp
    9018:	e92d4070 	push	{r4, r5, r6, lr}
    901c:	e24dde42 	sub	sp, sp, #1056	; 0x420
    9020:	e1a06000 	mov	r6, r0
    9024:	e3a02e42 	mov	r2, #1056	; 0x420
    9028:	e3a01000 	mov	r1, #0
    902c:	e1a0000d 	mov	r0, sp
    9030:	ebfffda0 	bl	86b8 <memset@plt>
    9034:	e596100c 	ldr	r1, [r6, #12]
    9038:	e1a0000d 	mov	r0, sp
[31m    903c:	ebfffd70 	bl	8604 <strcpy@plt>[0m
    9040:	e28d5020 	add	r5, sp, #32
    9044:	e3a0300a 	mov	r3, #10
--
    90a8:	e59f3018 	ldr	r3, [pc, #24]	; 90c8 <_start+0x9b0>
    90ac:	e1a02005 	mov	r2, r5
    90b0:	e59f1018 	ldr	r1, [pc, #24]	; 90d0 <_start+0x9b8>
    90b4:	e5930000 	ldr	r0, [r3]
    90b8:	ebfffd66 	bl	8658 <fprintf@plt>
    90bc:	e3e00000 	mvn	r0, #0
    90c0:	e28dde42 	add	sp, sp, #1056	; 0x420
    90c4:	e8bd8070 	pop	{r4, r5, r6, pc}
    90c8:	00012180 	andeq	r2, r1, r0, lsl #3
    90cc:	00009a04 	andeq	r9, r0, r4, lsl #20
    90d0:	00009b69 	andeq	r9, r0, r9, ror #22
    90d4:	e92d4070 	push	{r4, r5, r6, lr}
    90d8:	e24dde42 	sub	sp, sp, #1056	; 0x420
    90dc:	e1a06000 	mov	r6, r0
    90e0:	e3a02e42 	mov	r2, #1056	; 0x420
    90e4:	e3a01000 	mov	r1, #0
    90e8:	e1a0000d 	mov	r0, sp
    90ec:	ebfffd71 	bl	86b8 <memset@plt>
    90f0:	e596100c 	ldr	r1, [r6, #12]
    90f4:	e1a0000d 	mov	r0, sp
[31m    90f8:	ebfffd41 	bl	8604 <strcpy@plt>[0m
    90fc:	e28d5020 	add	r5, sp, #32
    9100:	e3a03009 	mov	r3, #9
--
    9168:	e1a02005 	mov	r2, r5
    916c:	e59f1018 	ldr	r1, [pc, #24]	; 918c <_start+0xa74>
    9170:	e5930000 	ldr	r0, [r3]
    9174:	ebfffd37 	bl	8658 <fprintf@plt>
    9178:	e3e00000 	mvn	r0, #0
    917c:	e28dde42 	add	sp, sp, #1056	; 0x420
    9180:	e8bd8070 	pop	{r4, r5, r6, pc}
    9184:	00012180 	andeq	r2, r1, r0, lsl #3
    9188:	00009a04 	andeq	r9, r0, r4, lsl #20
    918c:	00009b69 	andeq	r9, r0, r9, ror #22
    9190:	e92d4030 	push	{r4, r5, lr}
    9194:	e24dde42 	sub	sp, sp, #1056	; 0x420
    9198:	e24dd004 	sub	sp, sp, #4
    919c:	e1a04000 	mov	r4, r0
    91a0:	e3a02e42 	mov	r2, #1056	; 0x420
    91a4:	e3a01000 	mov	r1, #0
    91a8:	e1a0000d 	mov	r0, sp
    91ac:	ebfffd41 	bl	86b8 <memset@plt>
    91b0:	e594100c 	ldr	r1, [r4, #12]
    91b4:	e1a0000d 	mov	r0, sp
[31m    91b8:	ebfffd11 	bl	8604 <strcpy@plt>[0m
    91bc:	e5940008 	ldr	r0, [r4, #8]
    91c0:	e3a02004 	mov	r2, #4
--
    9258:	e5930000 	ldr	r0, [r3]
    925c:	ebfffcfd 	bl	8658 <fprintf@plt>
    9260:	e3e00000 	mvn	r0, #0
    9264:	e28dd024 	add	sp, sp, #36	; 0x24
    9268:	e28ddb01 	add	sp, sp, #1024	; 0x400
    926c:	e8bd8030 	pop	{r4, r5, pc}
    9270:	00009c0e 	andeq	r9, r0, lr, lsl #24
    9274:	00012180 	andeq	r2, r1, r0, lsl #3
    9278:	00009a04 	andeq	r9, r0, r4, lsl #20
    927c:	00009b69 	andeq	r9, r0, r9, ror #22
    9280:	e92d4030 	push	{r4, r5, lr}
    9284:	e24dde42 	sub	sp, sp, #1056	; 0x420
    9288:	e24dd004 	sub	sp, sp, #4
    928c:	e1a04000 	mov	r4, r0
    9290:	e3a02e42 	mov	r2, #1056	; 0x420
    9294:	e3a01000 	mov	r1, #0
    9298:	e1a0000d 	mov	r0, sp
    929c:	ebfffd05 	bl	86b8 <memset@plt>
    92a0:	e594100c 	ldr	r1, [r4, #12]
    92a4:	e1a0000d 	mov	r0, sp
[31m    92a8:	ebfffcd5 	bl	8604 <strcpy@plt>[0m
    92ac:	e5940008 	ldr	r0, [r4, #8]
    92b0:	e3a02004 	mov	r2, #4
--
    9350:	ebfffcc0 	bl	8658 <fprintf@plt>
    9354:	e3e00000 	mvn	r0, #0
    9358:	e28dd024 	add	sp, sp, #36	; 0x24
    935c:	e28ddb01 	add	sp, sp, #1024	; 0x400
    9360:	e8bd8030 	pop	{r4, r5, pc}
    9364:	00009c0e 	andeq	r9, r0, lr, lsl #24
    9368:	00012180 	andeq	r2, r1, r0, lsl #3
    936c:	00009a04 	andeq	r9, r0, r4, lsl #20
    9370:	00009b69 	andeq	r9, r0, r9, ror #22
    9374:	e92d40f0 	push	{r4, r5, r6, r7, lr}
    9378:	e24dde42 	sub	sp, sp, #1056	; 0x420
    937c:	e24dd004 	sub	sp, sp, #4
    9380:	e1a04000 	mov	r4, r0
    9384:	e3a02e42 	mov	r2, #1056	; 0x420
    9388:	e3a01000 	mov	r1, #0
    938c:	e1a0000d 	mov	r0, sp
    9390:	e1a0500d 	mov	r5, sp
    9394:	ebfffcc7 	bl	86b8 <memset@plt>
    9398:	e594100c 	ldr	r1, [r4, #12]
    939c:	e1a0000d 	mov	r0, sp
[31m    93a0:	ebfffc97 	bl	8604 <strcpy@plt>[0m
    93a4:	e5940008 	ldr	r0, [r4, #8]
    93a8:	e3a02004 	mov	r2, #4
--
    94e4:	e8bd80f0 	pop	{r4, r5, r6, r7, pc}
    94e8:	00009c0e 	andeq	r9, r0, lr, lsl #24
    94ec:	00012180 	andeq	r2, r1, r0, lsl #3
    94f0:	00009a04 	andeq	r9, r0, r4, lsl #20
    94f4:	00009b69 	andeq	r9, r0, r9, ror #22
    94f8:	0001217c 	andeq	r2, r1, ip, ror r1
    94fc:	00009c13 	andeq	r9, r0, r3, lsl ip
    9500:	00009c25 	andeq	r9, r0, r5, lsr #24
    9504:	00009c29 	andeq	r9, r0, r9, lsr #24
    9508:	e92d40f0 	push	{r4, r5, r6, r7, lr}
    950c:	e24dde42 	sub	sp, sp, #1056	; 0x420
    9510:	e24dd004 	sub	sp, sp, #4
    9514:	e3a02e42 	mov	r2, #1056	; 0x420
    9518:	e1a07000 	mov	r7, r0
    951c:	e3a01000 	mov	r1, #0
    9520:	e1a0000d 	mov	r0, sp
    9524:	e1a0400d 	mov	r4, sp
    9528:	ebfffc62 	bl	86b8 <memset@plt>
    952c:	e597100c 	ldr	r1, [r7, #12]
    9530:	e1a0000d 	mov	r0, sp
[31m    9534:	ebfffc32 	bl	8604 <strcpy@plt>[0m
    9538:	e3a0300b 	mov	r3, #11
    953c:	e1a0000d 	mov	r0, sp

[0m
[[0;33m*[0m] Function [0;33mstrcpy[0m used [0;33m16[0m times [0;33memf.svn-base[0m

