[[0;33m*[0m] Binary protection state of [0;33mwl[0m
[REF] s12

  	RELRO          CANARY            NX           PIE       RPATH        RUNPATH      SYMBOLS      
  	[31mNo RELRO[0m       [31mNo Canary found[0m   [32mNX enabled[0m   [31mNo PIE[0m       [32mNo RPATH[0m     [32mNo RUNPATH[0m   [32mNo Symbols[0m

[0m
[[0;33m*[0m] Function [0;33mstrcpy[0m tear down of [0;33mwl[0m

    c5c4:	eb00c238 	bl	3ceac <_start+0x33ed8>
    c5c8:	eaffffc2 	b	c4d8 <_start+0x3504>
    c5cc:	0006d2f8 	strdeq	sp, [r6], -r8
    c5d0:	00043b44 	andeq	r3, r4, r4, asr #22
    c5d4:	00043b4c 	andeq	r3, r4, ip, asr #22
    c5d8:	0006d2fc 	strdeq	sp, [r6], -ip
    c5dc:	e92d41f0 	push	{r4, r5, r6, r7, r8, lr}
    c5e0:	e1a06001 	mov	r6, r1
    c5e4:	e5925004 	ldr	r5, [r2, #4]
    c5e8:	e24dd008 	sub	sp, sp, #8
    c5ec:	e1a07000 	mov	r7, r0
    c5f0:	e3550000 	cmp	r5, #0
    c5f4:	13e06000 	mvnne	r6, #0
    c5f8:	0a000002 	beq	c608 <_start+0x3634>
    c5fc:	e1a00006 	mov	r0, r6
    c600:	e28dd008 	add	sp, sp, #8
    c604:	e8bd81f0 	pop	{r4, r5, r6, r7, r8, pc}
    c608:	e59f4084 	ldr	r4, [pc, #132]	; c694 <_start+0x36c0>
    c60c:	e5961000 	ldr	r1, [r6]
    c610:	e2840004 	add	r0, r4, #4
[31m    c614:	ebfff1ab 	bl	8cc8 <strcpy@plt>[0m
    c618:	e5961008 	ldr	r1, [r6, #8]
    c61c:	e1a00007 	mov	r0, r7
--
    c6a8:	e5923004 	ldr	r3, [r2, #4]
    c6ac:	e24dd00c 	sub	sp, sp, #12
    c6b0:	e1a05000 	mov	r5, r0
    c6b4:	e2824004 	add	r4, r2, #4
    c6b8:	e3530000 	cmp	r3, #0
    c6bc:	0a000007 	beq	c6e0 <_start+0x370c>
    c6c0:	e1a02004 	mov	r2, r4
    c6c4:	e3a03000 	mov	r3, #0
    c6c8:	e5b26004 	ldr	r6, [r2, #4]!
    c6cc:	e2833001 	add	r3, r3, #1
    c6d0:	e3560000 	cmp	r6, #0
    c6d4:	1afffffb 	bne	c6c8 <_start+0x36f4>
    c6d8:	e3530002 	cmp	r3, #2
    c6dc:	0a000002 	beq	c6ec <_start+0x3718>
    c6e0:	e3e00000 	mvn	r0, #0
    c6e4:	e28dd00c 	add	sp, sp, #12
    c6e8:	e8bd8ff0 	pop	{r4, r5, r6, r7, r8, r9, sl, fp, pc}
    c6ec:	e59f70cc 	ldr	r7, [pc, #204]	; c7c0 <_start+0x37ec>
    c6f0:	e5911000 	ldr	r1, [r1]
    c6f4:	e2870004 	add	r0, r7, #4
[31m    c6f8:	ebfff172 	bl	8cc8 <strcpy@plt>[0m
    c6fc:	e2870004 	add	r0, r7, #4
    c700:	ebfff21b 	bl	8f74 <strlen@plt>
--
   1098c:	e92d45f8 	push	{r3, r4, r5, r6, r7, r8, sl, lr}
   10990:	e3a03a02 	mov	r3, #8192	; 0x2000
   10994:	e59f51a8 	ldr	r5, [pc, #424]	; 10b44 <_start+0x7b70>
   10998:	e1a08000 	mov	r8, r0
   1099c:	e1a07001 	mov	r7, r1
   109a0:	e2826004 	add	r6, r2, #4
   109a4:	e5853004 	str	r3, [r5, #4]
   109a8:	e2854004 	add	r4, r5, #4
   109ac:	e3a03000 	mov	r3, #0
   109b0:	e584300c 	str	r3, [r4, #12]
   109b4:	e592a004 	ldr	sl, [r2, #4]
   109b8:	e15a0003 	cmp	sl, r3
   109bc:	0a000050 	beq	10b04 <_start+0x7b30>
   109c0:	e1a0000a 	mov	r0, sl
   109c4:	ebffe16a 	bl	8f74 <strlen@plt>
   109c8:	e2400002 	sub	r0, r0, #2
   109cc:	e3500001 	cmp	r0, #1
   109d0:	8a000043 	bhi	10ae4 <_start+0x7b10>
   109d4:	e285000c 	add	r0, r5, #12
   109d8:	e1a0100a 	mov	r1, sl
[31m   109dc:	ebffe0b9 	bl	8cc8 <strcpy@plt>[0m
   109e0:	e5966004 	ldr	r6, [r6, #4]
   109e4:	e3560000 	cmp	r6, #0
--
   127bc:	e1a06000 	mov	r6, r0
   127c0:	e5924000 	ldr	r4, [r2]
   127c4:	e1a05002 	mov	r5, r2
   127c8:	e59f009c 	ldr	r0, [pc, #156]	; 1286c <_start+0x9898>
   127cc:	e1a01004 	mov	r1, r4
   127d0:	ebffd9c3 	bl	8ee4 <strcmp@plt>
   127d4:	e3500000 	cmp	r0, #0
   127d8:	05b54004 	ldreq	r4, [r5, #4]!
   127dc:	e3540000 	cmp	r4, #0
   127e0:	0a00001e 	beq	12860 <_start+0x988c>
   127e4:	e5952004 	ldr	r2, [r5, #4]
   127e8:	e3520000 	cmp	r2, #0
   127ec:	1a00000f 	bne	12830 <_start+0x985c>
   127f0:	e1a00004 	mov	r0, r4
   127f4:	e3a0103d 	mov	r1, #61	; 0x3d
   127f8:	ebffd9e3 	bl	8f8c <strchr@plt>
   127fc:	e3500000 	cmp	r0, #0
   12800:	0a000010 	beq	12848 <_start+0x9874>
   12804:	e1a01004 	mov	r1, r4
   12808:	e59f0060 	ldr	r0, [pc, #96]	; 12870 <_start+0x989c>
[31m   1280c:	ebffd92d 	bl	8cc8 <strcpy@plt>[0m
   12810:	e59f0058 	ldr	r0, [pc, #88]	; 12870 <_start+0x989c>
   12814:	ebffd9d6 	bl	8f74 <strlen@plt>
--
   17774:	e5c43000 	strb	r3, [r4]
   17778:	eaffffee 	b	17738 <_start+0xe764>
   1777c:	0006f2f0 	strdeq	pc, [r6], -r0
   17780:	0006f3f8 	strdeq	pc, [r6], -r8
   17784:	0006f3f0 	strdeq	pc, [r6], -r0
   17788:	0006f3e8 	andeq	pc, r6, r8, ror #7
   1778c:	00047050 	andeq	r7, r4, r0, asr r0
   17790:	0006d2fc 	strdeq	sp, [r6], -ip
   17794:	000470b4 	strheq	r7, [r4], -r4
   17798:	e92d4070 	push	{r4, r5, r6, lr}
   1779c:	e1a05000 	mov	r5, r0
   177a0:	e5913000 	ldr	r3, [r1]
   177a4:	e3530000 	cmp	r3, #0
   177a8:	0a000019 	beq	17814 <_start+0xe840>
   177ac:	e5911004 	ldr	r1, [r1, #4]
   177b0:	e3510000 	cmp	r1, #0
   177b4:	1a000012 	bne	17804 <_start+0xe830>
   177b8:	e59f4060 	ldr	r4, [pc, #96]	; 17820 <_start+0xe84c>
   177bc:	e1a01003 	mov	r1, r3
   177c0:	e2840004 	add	r0, r4, #4
[31m   177c4:	ebffc53f 	bl	8cc8 <strcpy@plt>[0m
   177c8:	e5d40004 	ldrb	r0, [r4, #4]
   177cc:	e3500000 	cmp	r0, #0
--
   1e128:	e1a0000b 	mov	r0, fp
   1e12c:	ebffab96 	bl	8f8c <strchr@plt>
   1e130:	e2504000 	subs	r4, r0, #0
   1e134:	e1a0000b 	mov	r0, fp
   1e138:	13a01000 	movne	r1, #0
   1e13c:	14c41001 	strbne	r1, [r4], #1
   1e140:	ebffab8b 	bl	8f74 <strlen@plt>
   1e144:	e3500020 	cmp	r0, #32
   1e148:	8a000071 	bhi	1e314 <_start+0x15340>
   1e14c:	e5db3000 	ldrb	r3, [fp]
   1e150:	e3530000 	cmp	r3, #0
   1e154:	05873000 	streq	r3, [r7]
   1e158:	e3560009 	cmp	r6, #9
   1e15c:	caffffeb 	bgt	1e110 <_start+0x1513c>
   1e160:	e0860186 	add	r0, r6, r6, lsl #3
   1e164:	e28d2030 	add	r2, sp, #48	; 0x30
   1e168:	e1a0100b 	mov	r1, fp
   1e16c:	e0820100 	add	r0, r2, r0, lsl #2
   1e170:	e2866001 	add	r6, r6, #1
   1e174:	e2800004 	add	r0, r0, #4
[31m   1e178:	ebffaad2 	bl	8cc8 <strcpy@plt>[0m
   1e17c:	e1a0000b 	mov	r0, fp
   1e180:	e1a0b004 	mov	fp, r4
--
   1efd8:	e3a03006 	mov	r3, #6
   1efdc:	eb0077b2 	bl	3ceac <_start+0x33ed8>
   1efe0:	e1a05000 	mov	r5, r0
   1efe4:	eaffffd5 	b	1ef40 <_start+0x15f6c>
   1efe8:	0006d2d8 	ldrdeq	sp, [r6], -r8
   1efec:	00048810 	andeq	r8, r4, r0, lsl r8
   1eff0:	e92d41f0 	push	{r4, r5, r6, r7, r8, lr}
   1eff4:	e1a07000 	mov	r7, r0
   1eff8:	e5923004 	ldr	r3, [r2, #4]
   1effc:	e1a06001 	mov	r6, r1
   1f000:	e3530000 	cmp	r3, #0
   1f004:	0a000003 	beq	1f018 <_start+0x16044>
   1f008:	e59f00e0 	ldr	r0, [pc, #224]	; 1f0f0 <_start+0x1611c>
   1f00c:	ebffa74e 	bl	8d4c <puts@plt>
   1f010:	e3a00000 	mov	r0, #0
   1f014:	e8bd81f0 	pop	{r4, r5, r6, r7, r8, pc}
   1f018:	e59f50d4 	ldr	r5, [pc, #212]	; 1f0f4 <_start+0x16120>
   1f01c:	e5911000 	ldr	r1, [r1]
   1f020:	e2854004 	add	r4, r5, #4
   1f024:	e1a00004 	mov	r0, r4
[31m   1f028:	ebffa726 	bl	8cc8 <strcpy@plt>[0m
   1f02c:	e1a00007 	mov	r0, r7
   1f030:	e5961008 	ldr	r1, [r6, #8]
--
   1f0d4:	e5963000 	ldr	r3, [r6]
   1f0d8:	e1530005 	cmp	r3, r5
   1f0dc:	caffffe8 	bgt	1f084 <_start+0x160b0>
   1f0e0:	e3a00000 	mov	r0, #0
   1f0e4:	e8bd81f0 	pop	{r4, r5, r6, r7, r8, pc}
   1f0e8:	e3a00000 	mov	r0, #0
   1f0ec:	e8bd81f0 	pop	{r4, r5, r6, r7, r8, pc}
   1f0f0:	0004887c 	andeq	r8, r4, ip, ror r8
   1f0f4:	0006d2f8 	strdeq	sp, [r6], -r8
   1f0f8:	00048848 	andeq	r8, r4, r8, asr #16
   1f0fc:	00048860 	andeq	r8, r4, r0, ror #16
   1f100:	00048874 	andeq	r8, r4, r4, ror r8
   1f104:	e92d45f0 	push	{r4, r5, r6, r7, r8, sl, lr}
   1f108:	e1a05001 	mov	r5, r1
   1f10c:	e59f624c 	ldr	r6, [pc, #588]	; 1f360 <_start+0x1638c>
   1f110:	e24dd024 	sub	sp, sp, #36	; 0x24
   1f114:	e1a07000 	mov	r7, r0
   1f118:	e5911000 	ldr	r1, [r1]
   1f11c:	e2864004 	add	r4, r6, #4
   1f120:	e1a00004 	mov	r0, r4
[31m   1f124:	ebffa6e7 	bl	8cc8 <strcpy@plt>[0m
   1f128:	e1a00007 	mov	r0, r7
   1f12c:	e5951008 	ldr	r1, [r5, #8]
--
   1f880:	ebffa555 	bl	8ddc <fprintf@plt>
   1f884:	eaffff1d 	b	1f500 <_start+0x1652c>
   1f888:	0006d2f8 	strdeq	sp, [r6], -r8
   1f88c:	00048964 	andeq	r8, r4, r4, ror #18
   1f890:	00048978 	andeq	r8, r4, r8, ror r9
   1f894:	0006d2d8 	ldrdeq	sp, [r6], -r8
   1f898:	00048afc 	strdeq	r8, [r4], -ip
   1f89c:	0006d2d0 	ldrdeq	sp, [r6], -r0
   1f8a0:	0006e428 	andeq	lr, r6, r8, lsr #8
   1f8a4:	000489d8 	ldrdeq	r8, [r4], -r8	; <UNPREDICTABLE>
   1f8a8:	00048a9c 	muleq	r4, ip, sl
   1f8ac:	00048a44 	andeq	r8, r4, r4, asr #20
   1f8b0:	00048ae0 	andeq	r8, r4, r0, ror #21
   1f8b4:	00048b24 	andeq	r8, r4, r4, lsr #22
   1f8b8:	000489bc 			; <UNDEFINED> instruction: 0x000489bc
   1f8bc:	e92d45f8 	push	{r3, r4, r5, r6, r7, r8, sl, lr}
   1f8c0:	e1a05000 	mov	r5, r0
   1f8c4:	e1a04001 	mov	r4, r1
   1f8c8:	e59f007c 	ldr	r0, [pc, #124]	; 1f94c <_start+0x16978>
   1f8cc:	e5921000 	ldr	r1, [r2]
[31m   1f8d0:	ebffa4fc 	bl	8cc8 <strcpy@plt>[0m
   1f8d4:	e1a00005 	mov	r0, r5
   1f8d8:	e5941008 	ldr	r1, [r4, #8]
--
   20558:	e1a07001 	mov	r7, r1
   2055c:	e2825004 	add	r5, r2, #4
   20560:	e1a04006 	mov	r4, r6
   20564:	ea000007 	b	20588 <_start+0x175b4>
   20568:	ebffa25d 	bl	8ee4 <strcmp@plt>
   2056c:	e3500000 	cmp	r0, #0
   20570:	1a00003e 	bne	20670 <_start+0x1769c>
   20574:	e5953004 	ldr	r3, [r5, #4]
   20578:	e3530000 	cmp	r3, #0
   2057c:	12855008 	addne	r5, r5, #8
   20580:	11a04003 	movne	r4, r3
   20584:	0a000039 	beq	20670 <_start+0x1769c>
   20588:	e5958000 	ldr	r8, [r5]
   2058c:	e59f1a00 	ldr	r1, [pc, #2560]	; 20f94 <_start+0x17fc0>
   20590:	e2580000 	subs	r0, r8, #0
   20594:	1afffff3 	bne	20568 <_start+0x17594>
   20598:	e59f89f8 	ldr	r8, [pc, #2552]	; 20f98 <_start+0x17fc4>
   2059c:	e5971000 	ldr	r1, [r7]
   205a0:	e2885004 	add	r5, r8, #4
   205a4:	e1a00005 	mov	r0, r5
[31m   205a8:	ebffa1c6 	bl	8cc8 <strcpy@plt>[0m
   205ac:	e5971008 	ldr	r1, [r7, #8]
   205b0:	e1a0000a 	mov	r0, sl
--
   23014:	ebff9770 	bl	8ddc <fprintf@plt>
   23018:	eafffff6 	b	22ff8 <_start+0x1a024>
   2301c:	00049ae4 	andeq	r9, r4, r4, ror #21
   23020:	0006d2d8 	ldrdeq	sp, [r6], -r8
   23024:	00049b14 	andeq	r9, r4, r4, lsl fp
   23028:	0006f3ec 	andeq	pc, r6, ip, ror #7
   2302c:	00049af0 	strdeq	r9, [r4], -r0
   23030:	e92d47f0 	push	{r4, r5, r6, r7, r8, r9, sl, lr}
   23034:	e1a05001 	mov	r5, r1
   23038:	e59f4068 	ldr	r4, [pc, #104]	; 230a8 <_start+0x1a0d4>
   2303c:	e3a01000 	mov	r1, #0
   23040:	e1a06000 	mov	r6, r0
   23044:	e1a07002 	mov	r7, r2
   23048:	e3a02a02 	mov	r2, #8192	; 0x2000
   2304c:	e1a08003 	mov	r8, r3
   23050:	e1a00004 	mov	r0, r4
   23054:	e59da020 	ldr	sl, [sp, #32]
   23058:	ebff9795 	bl	8eb4 <memset@plt>
   2305c:	e1a01005 	mov	r1, r5
   23060:	e1a00004 	mov	r0, r4
[31m   23064:	ebff9717 	bl	8cc8 <strcpy@plt>[0m
   23068:	e1a00005 	mov	r0, r5
   2306c:	ebff97c0 	bl	8f74 <strlen@plt>
--
   25924:	e3510000 	cmp	r1, #0
   25928:	1a00001a 	bne	25998 <_start+0x1c9c4>
   2592c:	e1a00004 	mov	r0, r4
   25930:	ebff8d8f 	bl	8f74 <strlen@plt>
   25934:	e28dc00c 	add	ip, sp, #12
   25938:	e2803001 	add	r3, r0, #1
   2593c:	e59f1074 	ldr	r1, [pc, #116]	; 259b8 <_start+0x1c9e4>
   25940:	e1a00005 	mov	r0, r5
   25944:	e1a02004 	mov	r2, r4
   25948:	e58dc000 	str	ip, [sp]
   2594c:	ebfff5b7 	bl	23030 <_start+0x1a05c>
   25950:	e2506000 	subs	r6, r0, #0
   25954:	ba000004 	blt	2596c <_start+0x1c998>
   25958:	e59f005c 	ldr	r0, [pc, #92]	; 259bc <_start+0x1c9e8>
   2595c:	ebff8cfa 	bl	8d4c <puts@plt>
   25960:	e1a00006 	mov	r0, r6
   25964:	e28dd010 	add	sp, sp, #16
   25968:	e8bd8070 	pop	{r4, r5, r6, pc}
   2596c:	e1a01004 	mov	r1, r4
   25970:	e59f0044 	ldr	r0, [pc, #68]	; 259bc <_start+0x1c9e8>
[31m   25974:	ebff8cd3 	bl	8cc8 <strcpy@plt>[0m
   25978:	e1a00005 	mov	r0, r5
   2597c:	e3a01f42 	mov	r1, #264	; 0x108
--
   27690:	1afffa89 	bne	260bc <_start+0x1d0e8>
   27694:	e2844010 	add	r4, r4, #16
   27698:	eafff9ca 	b	25dc8 <_start+0x1cdf4>
   2769c:	e59d0014 	ldr	r0, [sp, #20]
   276a0:	e300110a 	movw	r1, #266	; 0x10a
   276a4:	e51f2b5c 	ldr	r2, [pc, #-2908]	; 26b50 <_start+0x1db7c>
   276a8:	e3a03a02 	mov	r3, #8192	; 0x2000
   276ac:	eb005588 	bl	3ccd4 <_start+0x33d00>
   276b0:	e1a04000 	mov	r4, r0
   276b4:	eafff932 	b	25b84 <_start+0x1cbb0>
   276b8:	e514b004 	ldr	fp, [r4, #-4]
   276bc:	e59d7048 	ldr	r7, [sp, #72]	; 0x48
   276c0:	e1a0000b 	mov	r0, fp
   276c4:	ebff862a 	bl	8f74 <strlen@plt>
   276c8:	e2800001 	add	r0, r0, #1
   276cc:	ebff85a7 	bl	8d70 <malloc@plt>
   276d0:	e250c000 	subs	ip, r0, #0
   276d4:	e58dc010 	str	ip, [sp, #16]
   276d8:	0a00007a 	beq	278c8 <_start+0x1e8f4>
   276dc:	e1a0100b 	mov	r1, fp
[31m   276e0:	ebff8578 	bl	8cc8 <strcpy@plt>[0m
   276e4:	e59d0010 	ldr	r0, [sp, #16]
   276e8:	e28d105c 	add	r1, sp, #92	; 0x5c
--
   28034:	00041dd8 	ldrdeq	r1, [r4], -r8
   28038:	0004b04c 	andeq	fp, r4, ip, asr #32
   2803c:	0004b090 	muleq	r4, r0, r0
   28040:	0004b080 	andeq	fp, r4, r0, lsl #1
   28044:	0004b0d8 	ldrdeq	fp, [r4], -r8
   28048:	0004aa40 	andeq	sl, r4, r0, asr #20
   2804c:	0004b0a8 	andeq	fp, r4, r8, lsr #1
   28050:	e92d47f0 	push	{r4, r5, r6, r7, r8, r9, sl, lr}
   28054:	e1a05001 	mov	r5, r1
   28058:	e59f4068 	ldr	r4, [pc, #104]	; 280c8 <_start+0x1f0f4>
   2805c:	e3a01000 	mov	r1, #0
   28060:	e1a06000 	mov	r6, r0
   28064:	e1a07002 	mov	r7, r2
   28068:	e3a02c01 	mov	r2, #256	; 0x100
   2806c:	e1a08003 	mov	r8, r3
   28070:	e1a00004 	mov	r0, r4
   28074:	e59da020 	ldr	sl, [sp, #32]
   28078:	ebff838d 	bl	8eb4 <memset@plt>
   2807c:	e1a01005 	mov	r1, r5
   28080:	e1a00004 	mov	r0, r4
[31m   28084:	ebff830f 	bl	8cc8 <strcpy@plt>[0m
   28088:	e1a00005 	mov	r0, r5
   2808c:	ebff83b8 	bl	8f74 <strlen@plt>
--
   285a0:	ebff827c 	bl	8f98 <fputs@plt>
   285a4:	e1a00004 	mov	r0, r4
   285a8:	e28dd014 	add	sp, sp, #20
   285ac:	e8bd8030 	pop	{r4, r5, pc}
   285b0:	0006d2fc 	strdeq	sp, [r6], -ip
   285b4:	0004a198 	muleq	r4, r8, r1
   285b8:	0006d2d0 	ldrdeq	sp, [r6], -r0
   285bc:	e92d47f0 	push	{r4, r5, r6, r7, r8, r9, sl, lr}
   285c0:	e1a05001 	mov	r5, r1
   285c4:	e59f4068 	ldr	r4, [pc, #104]	; 28634 <_start+0x1f660>
   285c8:	e3a01000 	mov	r1, #0
   285cc:	e1a06000 	mov	r6, r0
   285d0:	e1a07002 	mov	r7, r2
   285d4:	e3a02c06 	mov	r2, #1536	; 0x600
   285d8:	e1a08003 	mov	r8, r3
   285dc:	e1a00004 	mov	r0, r4
   285e0:	e59da020 	ldr	sl, [sp, #32]
   285e4:	ebff8232 	bl	8eb4 <memset@plt>
   285e8:	e1a01005 	mov	r1, r5
   285ec:	e1a00004 	mov	r0, r4
[31m   285f0:	ebff81b4 	bl	8cc8 <strcpy@plt>[0m
   285f4:	e1a00005 	mov	r0, r5
   285f8:	ebff825d 	bl	8f74 <strlen@plt>
--
   2ac00:	e58d200c 	str	r2, [sp, #12]
   2ac04:	eafffe58 	b	2a56c <_start+0x21598>
   2ac08:	e51f0ec4 	ldr	r0, [pc, #-3780]	; 29d4c <_start+0x20d78>
   2ac0c:	e3a01e32 	mov	r1, #800	; 0x320
   2ac10:	ebff7832 	bl	8ce0 <printf@plt>
   2ac14:	e3e03000 	mvn	r3, #0
   2ac18:	e58d300c 	str	r3, [sp, #12]
   2ac1c:	eafffe52 	b	2a56c <_start+0x21598>
   2ac20:	e92d41f0 	push	{r4, r5, r6, r7, r8, lr}
   2ac24:	e1a05001 	mov	r5, r1
   2ac28:	e59f4060 	ldr	r4, [pc, #96]	; 2ac90 <_start+0x21cbc>
   2ac2c:	e3a01000 	mov	r1, #0
   2ac30:	e1a06000 	mov	r6, r0
   2ac34:	e1a07002 	mov	r7, r2
   2ac38:	e3a02a02 	mov	r2, #8192	; 0x2000
   2ac3c:	e1a08003 	mov	r8, r3
   2ac40:	e1a00004 	mov	r0, r4
   2ac44:	ebff789a 	bl	8eb4 <memset@plt>
   2ac48:	e1a01005 	mov	r1, r5
   2ac4c:	e1a00004 	mov	r0, r4
[31m   2ac50:	ebff781c 	bl	8cc8 <strcpy@plt>[0m
   2ac54:	e1a00005 	mov	r0, r5
   2ac58:	ebff78c5 	bl	8f74 <strlen@plt>
--
   2e488:	e1cd13bc 	strh	r1, [sp, #60]	; 0x3c
   2e48c:	0a000081 	beq	2e698 <_start+0x256c4>
   2e490:	e58d300c 	str	r3, [sp, #12]
   2e494:	e28d603c 	add	r6, sp, #60	; 0x3c
   2e498:	e59d400c 	ldr	r4, [sp, #12]
   2e49c:	e3a03004 	mov	r3, #4
   2e4a0:	e59fb370 	ldr	fp, [pc, #880]	; 2e818 <_start+0x25844>
   2e4a4:	e1a05004 	mov	r5, r4
   2e4a8:	e51b8004 	ldr	r8, [fp, #-4]
   2e4ac:	e15b70b6 	ldrh	r7, [fp, #-6]
   2e4b0:	e1cd31b8 	strh	r3, [sp, #24]
   2e4b4:	e1a00008 	mov	r0, r8
   2e4b8:	e1cd71ba 	strh	r7, [sp, #26]
   2e4bc:	ebff6aac 	bl	8f74 <strlen@plt>
   2e4c0:	e2800001 	add	r0, r0, #1
   2e4c4:	ebff6a29 	bl	8d70 <malloc@plt>
   2e4c8:	e2502000 	subs	r2, r0, #0
   2e4cc:	e58d2008 	str	r2, [sp, #8]
   2e4d0:	0a000068 	beq	2e678 <_start+0x256a4>
   2e4d4:	e1a01008 	mov	r1, r8
[31m   2e4d8:	ebff69fa 	bl	8cc8 <strcpy@plt>[0m
   2e4dc:	e3570000 	cmp	r7, #0
   2e4e0:	0a00003b 	beq	2e5d4 <_start+0x25600>
--
   2e6a0:	e59d9014 	ldr	r9, [sp, #20]
   2e6a4:	e28da034 	add	sl, sp, #52	; 0x34
   2e6a8:	e28d403c 	add	r4, sp, #60	; 0x3c
   2e6ac:	e1a0b00c 	mov	fp, ip
   2e6b0:	e58dc00c 	str	ip, [sp, #12]
   2e6b4:	e15530b8 	ldrh	r3, [r5, #-8]
   2e6b8:	e2457008 	sub	r7, r5, #8
   2e6bc:	e353000f 	cmp	r3, #15
   2e6c0:	0a000051 	beq	2e80c <_start+0x25838>
   2e6c4:	e515b004 	ldr	fp, [r5, #-4]
   2e6c8:	e15520b6 	ldrh	r2, [r5, #-6]
   2e6cc:	e1cd31b8 	strh	r3, [sp, #24]
   2e6d0:	e1a0000b 	mov	r0, fp
   2e6d4:	e1cd21ba 	strh	r2, [sp, #26]
   2e6d8:	ebff6a25 	bl	8f74 <strlen@plt>
   2e6dc:	e2800001 	add	r0, r0, #1
   2e6e0:	ebff69a2 	bl	8d70 <malloc@plt>
   2e6e4:	e2506000 	subs	r6, r0, #0
   2e6e8:	0a000044 	beq	2e800 <_start+0x2582c>
   2e6ec:	e1a0100b 	mov	r1, fp
[31m   2e6f0:	ebff6974 	bl	8cc8 <strcpy@plt>[0m
   2e6f4:	e5991000 	ldr	r1, [r9]
   2e6f8:	e1a02008 	mov	r2, r8
--
   2e888:	0a00008c 	beq	2eac0 <_start+0x25aec>
   2e88c:	e58d3010 	str	r3, [sp, #16]
   2e890:	e28d50b4 	add	r5, sp, #180	; 0xb4
   2e894:	e59fb3cc 	ldr	fp, [pc, #972]	; 2ec68 <_start+0x25c94>
   2e898:	e3a03007 	mov	r3, #7
   2e89c:	e59d4010 	ldr	r4, [sp, #16]
   2e8a0:	e15b20ba 	ldrh	r2, [fp, #-10]
   2e8a4:	e51b7004 	ldr	r7, [fp, #-4]
   2e8a8:	e1cd26ba 	strh	r2, [sp, #106]	; 0x6a
   2e8ac:	e15bc0b8 	ldrh	ip, [fp, #-8]
   2e8b0:	e1a00007 	mov	r0, r7
   2e8b4:	e1cd36b8 	strh	r3, [sp, #104]	; 0x68
   2e8b8:	e1cdc6bc 	strh	ip, [sp, #108]	; 0x6c
   2e8bc:	ebff69ac 	bl	8f74 <strlen@plt>
   2e8c0:	e2800001 	add	r0, r0, #1
   2e8c4:	ebff6929 	bl	8d70 <malloc@plt>
   2e8c8:	e2501000 	subs	r1, r0, #0
   2e8cc:	e58d1008 	str	r1, [sp, #8]
   2e8d0:	0a000077 	beq	2eab4 <_start+0x25ae0>
   2e8d4:	e1a01007 	mov	r1, r7
[31m   2e8d8:	ebff68fa 	bl	8cc8 <strcpy@plt>[0m
   2e8dc:	e59d0008 	ldr	r0, [sp, #8]
   2e8e0:	e1a01005 	mov	r1, r5
--
   2eac8:	e28db0ac 	add	fp, sp, #172	; 0xac
   2eacc:	e28d50b4 	add	r5, sp, #180	; 0xb4
   2ead0:	e58d2010 	str	r2, [sp, #16]
   2ead4:	e15430bc 	ldrh	r3, [r4, #-12]
   2ead8:	e244700c 	sub	r7, r4, #12
   2eadc:	e353000f 	cmp	r3, #15
   2eae0:	0affff9e 	beq	2e960 <_start+0x2598c>
   2eae4:	e154c0ba 	ldrh	ip, [r4, #-10]
   2eae8:	e5148004 	ldr	r8, [r4, #-4]
   2eaec:	e1cdc6ba 	strh	ip, [sp, #106]	; 0x6a
   2eaf0:	e15410b8 	ldrh	r1, [r4, #-8]
   2eaf4:	e1a00008 	mov	r0, r8
   2eaf8:	e1cd36b8 	strh	r3, [sp, #104]	; 0x68
   2eafc:	e1cd16bc 	strh	r1, [sp, #108]	; 0x6c
   2eb00:	ebff691b 	bl	8f74 <strlen@plt>
   2eb04:	e2800001 	add	r0, r0, #1
   2eb08:	ebff6898 	bl	8d70 <malloc@plt>
   2eb0c:	e2506000 	subs	r6, r0, #0
   2eb10:	0a000050 	beq	2ec58 <_start+0x25c84>
   2eb14:	e1a01008 	mov	r1, r8
[31m   2eb18:	ebff686a 	bl	8cc8 <strcpy@plt>[0m
   2eb1c:	e59d2018 	ldr	r2, [sp, #24]
   2eb20:	e3a03040 	mov	r3, #64	; 0x40
--
   32c18:	00044d38 	andeq	r4, r4, r8, lsr sp
   32c1c:	00044d44 	andeq	r4, r4, r4, asr #26
   32c20:	0004d208 	andeq	sp, r4, r8, lsl #4
   32c24:	0004d1ec 	andeq	sp, r4, ip, ror #3
   32c28:	00045074 	andeq	r5, r4, r4, ror r0
   32c2c:	0004d1b0 			; <UNDEFINED> instruction: 0x0004d1b0
   32c30:	0004d3f4 	strdeq	sp, [r4], -r4
   32c34:	0004506c 	andeq	r5, r4, ip, rrx
   32c38:	e92d41f0 	push	{r4, r5, r6, r7, r8, lr}
   32c3c:	e1a05001 	mov	r5, r1
   32c40:	e59f4060 	ldr	r4, [pc, #96]	; 32ca8 <_start+0x29cd4>
   32c44:	e3a01000 	mov	r1, #0
   32c48:	e1a06000 	mov	r6, r0
   32c4c:	e1a07002 	mov	r7, r2
   32c50:	e3a02c01 	mov	r2, #256	; 0x100
   32c54:	e1a08003 	mov	r8, r3
   32c58:	e1a00004 	mov	r0, r4
   32c5c:	ebff5894 	bl	8eb4 <memset@plt>
   32c60:	e1a01005 	mov	r1, r5
   32c64:	e1a00004 	mov	r0, r4
[31m   32c68:	ebff5816 	bl	8cc8 <strcpy@plt>[0m
   32c6c:	e1a00005 	mov	r0, r5
   32c70:	ebff58bf 	bl	8f74 <strlen@plt>
--
   32c8c:	ebff5828 	bl	8d34 <memcpy@plt>
   32c90:	e1a00006 	mov	r0, r6
   32c94:	e3001107 	movw	r1, #263	; 0x107
   32c98:	e59f2008 	ldr	r2, [pc, #8]	; 32ca8 <_start+0x29cd4>
   32c9c:	e3a03c01 	mov	r3, #256	; 0x100
   32ca0:	e8bd41f0 	pop	{r4, r5, r6, r7, r8, lr}
   32ca4:	ea00281e 	b	3cd24 <_start+0x33d50>
   32ca8:	0006d2fc 	strdeq	sp, [r6], -ip
   32cac:	e92d41f0 	push	{r4, r5, r6, r7, r8, lr}
   32cb0:	e1a05001 	mov	r5, r1
   32cb4:	e59f4060 	ldr	r4, [pc, #96]	; 32d1c <_start+0x29d48>
   32cb8:	e3a01000 	mov	r1, #0
   32cbc:	e1a06000 	mov	r6, r0
   32cc0:	e1a07002 	mov	r7, r2
   32cc4:	e3a02c06 	mov	r2, #1536	; 0x600
   32cc8:	e1a08003 	mov	r8, r3
   32ccc:	e1a00004 	mov	r0, r4
   32cd0:	ebff5877 	bl	8eb4 <memset@plt>
   32cd4:	e1a01005 	mov	r1, r5
   32cd8:	e1a00004 	mov	r0, r4
[31m   32cdc:	ebff57f9 	bl	8cc8 <strcpy@plt>[0m
   32ce0:	e1a00005 	mov	r0, r5
   32ce4:	ebff58a2 	bl	8f74 <strlen@plt>
--
   3ca78:	00062000 	andeq	r2, r6, r0
   3ca7c:	e92d45f8 	push	{r3, r4, r5, r6, r7, r8, sl, lr}
   3ca80:	e1a07002 	mov	r7, r2
   3ca84:	e1a06003 	mov	r6, r3
   3ca88:	e1a04000 	mov	r4, r0
   3ca8c:	e1a0a001 	mov	sl, r1
   3ca90:	ebff3137 	bl	8f74 <strlen@plt>
   3ca94:	e59d3020 	ldr	r3, [sp, #32]
   3ca98:	e2800001 	add	r0, r0, #1
   3ca9c:	e0805007 	add	r5, r0, r7
   3caa0:	e59d8024 	ldr	r8, [sp, #36]	; 0x24
   3caa4:	e1550003 	cmp	r5, r3
   3caa8:	83e0300d 	mvnhi	r3, #13
   3caac:	83a05000 	movhi	r5, #0
   3cab0:	85883000 	strhi	r3, [r8]
   3cab4:	8a00000e 	bhi	3caf4 <_start+0x33b20>
   3cab8:	e3570000 	cmp	r7, #0
   3cabc:	1a00000e 	bne	3cafc <_start+0x33b28>
   3cac0:	e1a00006 	mov	r0, r6
   3cac4:	e1a01004 	mov	r1, r4
[31m   3cac8:	ebff307e 	bl	8cc8 <strcpy@plt>[0m
   3cacc:	e5d60000 	ldrb	r0, [r6]
   3cad0:	e3500000 	cmp	r0, #0

[0m
[[0;33m*[0m] Function [0;33mstrcpy[0m used [0;33m23[0m times [0;33mwl[0m

