[[0;33m*[0m] Binary protection state of [0;33mlibip6t_dst.so[0m
[REF] s12

  	RELRO          CANARY            NX           PIE       RPATH        RUNPATH      SYMBOLS      
  	[31mNo RELRO[0m       [31mNo Canary found[0m   [32mNX enabled[0m   [33mDSO[0m          [32mNo RPATH[0m     [32mNo RUNPATH[0m   [31mSymbols
	[31mNo RELRO[0m       [31mNo Canary found[0m   [32mNX enabled[0m   [33mDSO[0m          [32mNo RPATH[0m     [32mNo RUNPATH[0m   [32mNo Symbols[0m

[0m
[[0;33m*[0m] Function [0;33mprintf[0m tear down of [0;33mlibip6t_dst.so[0m

 a1c:	00008738 	andeq	r8, r0, r8, lsr r7
 a20:	ffff7bc0 			; <UNDEFINED> instruction: 0xffff7bc0
 a24:	e92d45f8 	push	{r3, r4, r5, r6, r7, r8, sl, lr}
 a28:	e1a06000 	mov	r6, r0
 a2c:	e59f7074 	ldr	r7, [pc, #116]	; aa8 <free@plt+0x4d4>
 a30:	e3a00020 	mov	r0, #32
 a34:	e1a05001 	mov	r5, r1
 a38:	ebfffec4 	bl	550 <putchar@plt>
 a3c:	e3560000 	cmp	r6, #0
 a40:	e08f7007 	add	r7, pc, r7
 a44:	08bd85f8 	popeq	{r3, r4, r5, r6, r7, r8, sl, pc}
 a48:	e59f805c 	ldr	r8, [pc, #92]	; aac <free@plt+0x4d8>
 a4c:	e246a001 	sub	sl, r6, #1
 a50:	e59f3058 	ldr	r3, [pc, #88]	; ab0 <free@plt+0x4dc>
 a54:	e3a04000 	mov	r4, #0
 a58:	e0878008 	add	r8, r7, r8
 a5c:	e0877003 	add	r7, r7, r3
 a60:	e1d510b0 	ldrh	r1, [r5]
 a64:	e1a00008 	mov	r0, r8
 a68:	e1a01421 	lsr	r1, r1, #8
[31m a6c:	ebfffeba 	bl	55c <printf@plt>[0m
 a70:	e0d510b2 	ldrh	r1, [r5], #2
 a74:	e1a00007 	mov	r0, r7
 a78:	e20110ff 	and	r1, r1, #255	; 0xff
 a7c:	e35100ff 	cmp	r1, #255	; 0xff
 a80:	0a000000 	beq	a88 <free@plt+0x4b4>
[31m a84:	ebfffeb4 	bl	55c <printf@plt>[0m
 a88:	e154000a 	cmp	r4, sl
 a8c:	e2844001 	add	r4, r4, #1
--
 aa4:	e8bd85f8 	pop	{r3, r4, r5, r6, r7, r8, sl, pc}
 aa8:	00008708 	andeq	r8, r0, r8, lsl #14
 aac:	ffff7c80 			; <UNDEFINED> instruction: 0xffff7c80
 ab0:	ffff7c84 			; <UNDEFINED> instruction: 0xffff7c84
 ab4:	e92d4070 	push	{r4, r5, r6, lr}
 ab8:	e2815020 	add	r5, r1, #32
 abc:	e5d52004 	ldrb	r2, [r5, #4]
 ac0:	e1a03001 	mov	r3, r1
 ac4:	e59f4060 	ldr	r4, [pc, #96]	; b2c <free@plt+0x558>
 ac8:	e3120001 	tst	r2, #1
 acc:	e08f4004 	add	r4, pc, r4
 ad0:	0a000009 	beq	afc <free@plt+0x528>
 ad4:	e5d52005 	ldrb	r2, [r5, #5]
 ad8:	e3120001 	tst	r2, #1
 adc:	1a00000f 	bne	b20 <free@plt+0x54c>
 ae0:	e59f1048 	ldr	r1, [pc, #72]	; b30 <free@plt+0x55c>
 ae4:	e0841001 	add	r1, r4, r1
 ae8:	e59f0044 	ldr	r0, [pc, #68]	; b34 <free@plt+0x560>
 aec:	e5932020 	ldr	r2, [r3, #32]
 af0:	e0840000 	add	r0, r4, r0
[31m af4:	ebfffe98 	bl	55c <printf@plt>[0m
 af8:	e5d52004 	ldrb	r2, [r5, #4]
 afc:	e3120002 	tst	r2, #2
 b00:	0a000002 	beq	b10 <free@plt+0x53c>
 b04:	e59f002c 	ldr	r0, [pc, #44]	; b38 <free@plt+0x564>
 b08:	e0840000 	add	r0, r4, r0
[31m b0c:	ebfffe92 	bl	55c <printf@plt>[0m
 b10:	e5d50026 	ldrb	r0, [r5, #38]	; 0x26
 b14:	e2851006 	add	r1, r5, #6
 b18:	e8bd4070 	pop	{r4, r5, r6, lr}
 b1c:	eaffffc0 	b	a24 <free@plt+0x450>
 b20:	e59f1014 	ldr	r1, [pc, #20]	; b3c <free@plt+0x568>
 b24:	e0841001 	add	r1, r4, r1
 b28:	eaffffee 	b	ae8 <free@plt+0x514>
 b2c:	0000867c 	andeq	r8, r0, ip, ror r6
 b30:	ffff7bbc 			; <UNDEFINED> instruction: 0xffff7bbc
 b34:	ffff7c8c 			; <UNDEFINED> instruction: 0xffff7c8c
 b38:	ffff7c9c 			; <UNDEFINED> instruction: 0xffff7c9c
 b3c:	ffff7c88 			; <UNDEFINED> instruction: 0xffff7c88
 b40:	e92d4070 	push	{r4, r5, r6, lr}
 b44:	e2815020 	add	r5, r1, #32
 b48:	e59f40a8 	ldr	r4, [pc, #168]	; bf8 <free@plt+0x624>
 b4c:	e1a06001 	mov	r6, r1
 b50:	e59f00a4 	ldr	r0, [pc, #164]	; bfc <free@plt+0x628>
 b54:	e08f4004 	add	r4, pc, r4
 b58:	e0840000 	add	r0, r4, r0
[31m b5c:	ebfffe7e 	bl	55c <printf@plt>[0m
 b60:	e5d53004 	ldrb	r3, [r5, #4]
 b64:	e3130001 	tst	r3, #1
 b68:	0a000009 	beq	b94 <free@plt+0x5c0>
 b6c:	e5d53005 	ldrb	r3, [r5, #5]
 b70:	e3130001 	tst	r3, #1
 b74:	1a000012 	bne	bc4 <free@plt+0x5f0>
 b78:	e59f1080 	ldr	r1, [pc, #128]	; c00 <free@plt+0x62c>
 b7c:	e0841001 	add	r1, r4, r1
 b80:	e59f007c 	ldr	r0, [pc, #124]	; c04 <free@plt+0x630>
 b84:	e5962020 	ldr	r2, [r6, #32]
 b88:	e0840000 	add	r0, r4, r0
[31m b8c:	ebfffe72 	bl	55c <printf@plt>[0m
 b90:	e5d53004 	ldrb	r3, [r5, #4]
 b94:	e3130002 	tst	r3, #2
 b98:	1a00000c 	bne	bd0 <free@plt+0x5fc>
 b9c:	e2851006 	add	r1, r5, #6
 ba0:	e5d50026 	ldrb	r0, [r5, #38]	; 0x26
 ba4:	ebffff9e 	bl	a24 <free@plt+0x450>
 ba8:	e5d51005 	ldrb	r1, [r5, #5]
 bac:	e3d11001 	bics	r1, r1, #1
 bb0:	08bd8070 	popeq	{r4, r5, r6, pc}
 bb4:	e59f004c 	ldr	r0, [pc, #76]	; c08 <free@plt+0x634>
 bb8:	e0840000 	add	r0, r4, r0
 bbc:	e8bd4070 	pop	{r4, r5, r6, lr}
[31m bc0:	eafffe65 	b	55c <printf@plt>[0m
 bc4:	e59f1040 	ldr	r1, [pc, #64]	; c0c <free@plt+0x638>
 bc8:	e0841001 	add	r1, r4, r1
 bcc:	eaffffeb 	b	b80 <free@plt+0x5ac>
 bd0:	e59f0038 	ldr	r0, [pc, #56]	; c10 <free@plt+0x63c>
 bd4:	e0840000 	add	r0, r4, r0
[31m bd8:	ebfffe5f 	bl	55c <printf@plt>[0m
 bdc:	e2851006 	add	r1, r5, #6
 be0:	e5d50026 	ldrb	r0, [r5, #38]	; 0x26

[0m
[[0;33m*[0m] Function [0;33mprintf[0m used [0;33m7[0m times [0;33mlibip6t_dst.so[0m

