[[0;33m*[0m] Binary protection state of [0;33mlibnetconf.so[0m
[REF] s12

  	RELRO          CANARY            NX           PIE       RPATH        RUNPATH      SYMBOLS      
  	[31mNo RELRO[0m       [31mNo Canary found[0m   [32mNX enabled[0m   [33mDSO[0m          [32mNo RPATH[0m     [32mNo RUNPATH[0m   [32mNo Symbols[0m

[0m
[[0;33m*[0m] Function [0;33mfprintf[0m tear down of [0;33mlibnetconf.so[0m

    13f4:	e1a00006 	mov	r0, r6
    13f8:	e1a01005 	mov	r1, r5
    13fc:	ebffff32 	bl	10cc <iptc_create_chain@plt>
    1400:	e3500000 	cmp	r0, #0
    1404:	1a000011 	bne	1450 <free@plt+0x2b8>
    1408:	e1a00005 	mov	r0, r5
    140c:	ebffff37 	bl	10f0 <iptc_commit@plt>
    1410:	e1a00005 	mov	r0, r5
    1414:	ebffff0b 	bl	1048 <iptc_free@plt>
    1418:	e59f3068 	ldr	r3, [pc, #104]	; 1488 <free@plt+0x2f0>
    141c:	e7943003 	ldr	r3, [r4, r3]
    1420:	e5936000 	ldr	r6, [r3]
    1424:	ebffff49 	bl	1150 <__errno_location@plt>
    1428:	e1a05000 	mov	r5, r0
    142c:	e5900000 	ldr	r0, [r0]
    1430:	ebffff22 	bl	10c0 <iptc_strerror@plt>
    1434:	e59f1050 	ldr	r1, [pc, #80]	; 148c <free@plt+0x2f4>
    1438:	e1a02000 	mov	r2, r0
    143c:	e1a00006 	mov	r0, r6
    1440:	e0841001 	add	r1, r4, r1
[31m    1444:	ebffff05 	bl	1060 <fprintf@plt>[0m
    1448:	e5950000 	ldr	r0, [r5]
    144c:	e8bd8070 	pop	{r4, r5, r6, pc}
--
    1c5c:	e2432004 	sub	r2, r3, #4
    1c60:	e3520002 	cmp	r2, #2
    1c64:	8a000004 	bhi	1c7c <free@plt+0xae4>
    1c68:	e3a01000 	mov	r1, #0
    1c6c:	e1a0b007 	mov	fp, r7
    1c70:	e58d1008 	str	r1, [sp, #8]
    1c74:	e1a0a001 	mov	sl, r1
    1c78:	eaffff36 	b	1958 <free@plt+0x7c0>
    1c7c:	e3530007 	cmp	r3, #7
    1c80:	03a0b000 	moveq	fp, #0
    1c84:	058d7008 	streq	r7, [sp, #8]
    1c88:	01a0a00b 	moveq	sl, fp
    1c8c:	0affff31 	beq	1958 <free@plt+0x7c0>
    1c90:	e1a02003 	mov	r2, r3
    1c94:	e59f35bc 	ldr	r3, [pc, #1468]	; 2258 <free@plt+0x10c0>
    1c98:	e59f15bc 	ldr	r1, [pc, #1468]	; 225c <free@plt+0x10c4>
    1c9c:	e3e05015 	mvn	r5, #21
    1ca0:	e7993003 	ldr	r3, [r9, r3]
    1ca4:	e0891001 	add	r1, r9, r1
    1ca8:	e5930000 	ldr	r0, [r3]
[31m    1cac:	ebfffceb 	bl	1060 <fprintf@plt>[0m
    1cb0:	eaffffdd 	b	1c2c <free@plt+0xa94>
    1cb4:	e1a00008 	mov	r0, r8
    1cb8:	ebfffce2 	bl	1048 <iptc_free@plt>
    1cbc:	e59f3594 	ldr	r3, [pc, #1428]	; 2258 <free@plt+0x10c0>
    1cc0:	e7993003 	ldr	r3, [r9, r3]
    1cc4:	e5935000 	ldr	r5, [r3]
    1cc8:	ebfffd20 	bl	1150 <__errno_location@plt>
    1ccc:	e1a04000 	mov	r4, r0
    1cd0:	e5900000 	ldr	r0, [r0]
    1cd4:	ebfffcf9 	bl	10c0 <iptc_strerror@plt>
    1cd8:	e59f1580 	ldr	r1, [pc, #1408]	; 2260 <free@plt+0x10c8>
    1cdc:	e1a02000 	mov	r2, r0
    1ce0:	e1a00005 	mov	r0, r5
    1ce4:	e0891001 	add	r1, r9, r1
[31m    1ce8:	ebfffcdc 	bl	1060 <fprintf@plt>[0m
    1cec:	e5945000 	ldr	r5, [r4]
    1cf0:	e2655000 	rsb	r5, r5, #0
--
    21a0:	1afffe3f 	bne	1aa4 <free@plt+0x90c>
    21a4:	e1d711ba 	ldrh	r1, [r7, #26]
    21a8:	e1d200b6 	ldrh	r0, [r2, #6]
    21ac:	e1a0c401 	lsl	ip, r1, #8
    21b0:	e18c1421 	orr	r1, ip, r1, lsr #8
    21b4:	e6ff1071 	uxth	r1, r1
    21b8:	e1500001 	cmp	r0, r1
    21bc:	1afffe38 	bne	1aa4 <free@plt+0x90c>
    21c0:	e5d2200b 	ldrb	r2, [r2, #11]
    21c4:	e3120001 	tst	r2, #1
    21c8:	1affffbd 	bne	20c4 <free@plt+0xf2c>
    21cc:	e3130004 	tst	r3, #4
    21d0:	1afffe33 	bne	1aa4 <free@plt+0x90c>
    21d4:	eaffffbc 	b	20cc <free@plt+0xf34>
    21d8:	e59f3078 	ldr	r3, [pc, #120]	; 2258 <free@plt+0x10c0>
    21dc:	e3e05015 	mvn	r5, #21
    21e0:	e59f1084 	ldr	r1, [pc, #132]	; 226c <free@plt+0x10d4>
    21e4:	e7993003 	ldr	r3, [r9, r3]
    21e8:	e0891001 	add	r1, r9, r1
    21ec:	e5930000 	ldr	r0, [r3]
[31m    21f0:	ebfffb9a 	bl	1060 <fprintf@plt>[0m
    21f4:	eafffe8c 	b	1c2c <free@plt+0xa94>
    21f8:	e59f3058 	ldr	r3, [pc, #88]	; 2258 <free@plt+0x10c0>
    21fc:	e3e05015 	mvn	r5, #21
    2200:	e59f1068 	ldr	r1, [pc, #104]	; 2270 <free@plt+0x10d8>
    2204:	e7993003 	ldr	r3, [r9, r3]
    2208:	e0891001 	add	r1, r9, r1
    220c:	e5930000 	ldr	r0, [r3]
[31m    2210:	ebfffb92 	bl	1060 <fprintf@plt>[0m
    2214:	eafffe84 	b	1c2c <free@plt+0xa94>
    2218:	e3160008 	tst	r6, #8
--
    2b10:	e1c039bc 	strh	r3, [r0, #156]	; 0x9c
    2b14:	e1d2c0b6 	ldrh	ip, [r2, #6]
    2b18:	e1c0c9be 	strh	ip, [r0, #158]	; 0x9e
    2b1c:	e1d220b8 	ldrh	r2, [r2, #8]
    2b20:	e1c02ab0 	strh	r2, [r0, #160]	; 0xa0
    2b24:	eafffe40 	b	242c <netconf_get_fw+0x1b8>
    2b28:	e1a07004 	mov	r7, r4
    2b2c:	eafffdfb 	b	2320 <netconf_get_fw+0xac>
    2b30:	e59f3068 	ldr	r3, [pc, #104]	; 2ba0 <netconf_get_fw+0x92c>
    2b34:	e59dc008 	ldr	ip, [sp, #8]
    2b38:	e79c3003 	ldr	r3, [ip, r3]
    2b3c:	e5934000 	ldr	r4, [r3]
    2b40:	ebfff982 	bl	1150 <__errno_location@plt>
    2b44:	e5900000 	ldr	r0, [r0]
    2b48:	ebfff95c 	bl	10c0 <iptc_strerror@plt>
    2b4c:	e59d3008 	ldr	r3, [sp, #8]
    2b50:	e1a02000 	mov	r2, r0
    2b54:	e59f1050 	ldr	r1, [pc, #80]	; 2bac <netconf_get_fw+0x938>
    2b58:	e1a00004 	mov	r0, r4
    2b5c:	e0831001 	add	r1, r3, r1
[31m    2b60:	ebfff93e 	bl	1060 <fprintf@plt>[0m
    2b64:	eafffee3 	b	26f8 <netconf_get_fw+0x484>
    2b68:	0000d948 	andeq	sp, r0, r8, asr #18
--
    2d94:	e594304c 	ldr	r3, [r4, #76]	; 0x4c
    2d98:	e3530000 	cmp	r3, #0
    2d9c:	0a00001c 	beq	2e14 <netconf_add_fw+0x250>
    2da0:	e594a050 	ldr	sl, [r4, #80]	; 0x50
    2da4:	e35a0000 	cmp	sl, #0
    2da8:	1a000019 	bne	2e14 <netconf_add_fw+0x250>
    2dac:	e5942054 	ldr	r2, [r4, #84]	; 0x54
    2db0:	e305117f 	movw	r1, #20863	; 0x517f
    2db4:	e3401001 	movt	r1, #1
    2db8:	e1520001 	cmp	r2, r1
    2dbc:	85943058 	ldrhi	r3, [r4, #88]	; 0x58
    2dc0:	8a000002 	bhi	2dd0 <netconf_add_fw+0x20c>
    2dc4:	e5943058 	ldr	r3, [r4, #88]	; 0x58
    2dc8:	e1530001 	cmp	r3, r1
    2dcc:	9a00017a 	bls	33bc <netconf_add_fw+0x7f8>
    2dd0:	e59f17a4 	ldr	r1, [pc, #1956]	; 357c <netconf_add_fw+0x9b8>
    2dd4:	e7950001 	ldr	r0, [r5, r1]
    2dd8:	e59f17a0 	ldr	r1, [pc, #1952]	; 3580 <netconf_add_fw+0x9bc>
    2ddc:	e5900000 	ldr	r0, [r0]
    2de0:	e0851001 	add	r1, r5, r1
[31m    2de4:	ebfff89d 	bl	1060 <fprintf@plt>[0m
    2de8:	ebfff8d8 	bl	1150 <__errno_location@plt>
    2dec:	e1a04000 	mov	r4, r0
--
    2e38:	e5931048 	ldr	r1, [r3, #72]	; 0x48
    2e3c:	ebfff901 	bl	1248 <free@plt+0xb0>
    2e40:	e3500000 	cmp	r0, #0
    2e44:	e58d0004 	str	r0, [sp, #4]
    2e48:	0a000029 	beq	2ef4 <netconf_add_fw+0x330>
    2e4c:	e5943064 	ldr	r3, [r4, #100]	; 0x64
    2e50:	e7970103 	ldr	r0, [r7, r3, lsl #2]
    2e54:	ebfff86c 	bl	100c <iptc_init@plt>
    2e58:	e250a000 	subs	sl, r0, #0
    2e5c:	0a00019a 	beq	34cc <netconf_add_fw+0x908>
    2e60:	e3590000 	cmp	r9, #0
    2e64:	0a000171 	beq	3430 <netconf_add_fw+0x86c>
    2e68:	e5992098 	ldr	r2, [r9, #152]	; 0x98
    2e6c:	e3520002 	cmp	r2, #2
    2e70:	9a00009c 	bls	30e8 <netconf_add_fw+0x524>
    2e74:	e59f3700 	ldr	r3, [pc, #1792]	; 357c <netconf_add_fw+0x9b8>
    2e78:	e59f170c 	ldr	r1, [pc, #1804]	; 358c <netconf_add_fw+0x9c8>
    2e7c:	e7953003 	ldr	r3, [r5, r3]
    2e80:	e0851001 	add	r1, r5, r1
    2e84:	e5930000 	ldr	r0, [r3]
[31m    2e88:	ebfff874 	bl	1060 <fprintf@plt>[0m
    2e8c:	ebfff8af 	bl	1150 <__errno_location@plt>
    2e90:	e1a04000 	mov	r4, r0
    2e94:	e1a0000a 	mov	r0, sl
    2e98:	ebfff894 	bl	10f0 <iptc_commit@plt>
    2e9c:	e1a0000a 	mov	r0, sl
    2ea0:	ebfff868 	bl	1048 <iptc_free@plt>
    2ea4:	e59d000c 	ldr	r0, [sp, #12]
    2ea8:	ebfff8ba 	bl	1198 <free@plt>
    2eac:	e5940000 	ldr	r0, [r4]
    2eb0:	ea000006 	b	2ed0 <netconf_add_fw+0x30c>
    2eb4:	e59f36c0 	ldr	r3, [pc, #1728]	; 357c <netconf_add_fw+0x9b8>
    2eb8:	e59f16d0 	ldr	r1, [pc, #1744]	; 3590 <netconf_add_fw+0x9cc>
    2ebc:	e7953003 	ldr	r3, [r5, r3]
    2ec0:	e0851001 	add	r1, r5, r1
    2ec4:	e5930000 	ldr	r0, [r3]
[31m    2ec8:	ebfff864 	bl	1060 <fprintf@plt>[0m
    2ecc:	e3a00016 	mov	r0, #22
    2ed0:	e28dd014 	add	sp, sp, #20
--
    30fc:	e0877101 	add	r7, r7, r1, lsl #2
    3100:	e5971048 	ldr	r1, [r7, #72]	; 0x48
    3104:	ebfff951 	bl	1650 <free@plt+0x4b8>
    3108:	e3500000 	cmp	r0, #0
    310c:	0a000003 	beq	3120 <netconf_add_fw+0x55c>
    3110:	e1a0000a 	mov	r0, sl
    3114:	ebfff7f5 	bl	10f0 <iptc_commit@plt>
    3118:	e3500000 	cmp	r0, #0
    311c:	1a000042 	bne	322c <netconf_add_fw+0x668>
    3120:	e59f3454 	ldr	r3, [pc, #1108]	; 357c <netconf_add_fw+0x9b8>
    3124:	e7953003 	ldr	r3, [r5, r3]
    3128:	e5936000 	ldr	r6, [r3]
    312c:	ebfff807 	bl	1150 <__errno_location@plt>
    3130:	e1a04000 	mov	r4, r0
    3134:	e5900000 	ldr	r0, [r0]
    3138:	ebfff7e0 	bl	10c0 <iptc_strerror@plt>
    313c:	e59f1460 	ldr	r1, [pc, #1120]	; 35a4 <netconf_add_fw+0x9e0>
    3140:	e1a02000 	mov	r2, r0
    3144:	e1a00006 	mov	r0, r6
    3148:	e0851001 	add	r1, r5, r1
[31m    314c:	ebfff7c3 	bl	1060 <fprintf@plt>[0m
    3150:	eaffff4f 	b	2e94 <netconf_add_fw+0x2d0>
    3154:	e59d200c 	ldr	r2, [sp, #12]
--
    3300:	e6ff0070 	uxth	r0, r0
    3304:	e1c300b6 	strh	r0, [r3, #6]
    3308:	e594c048 	ldr	ip, [r4, #72]	; 0x48
    330c:	e21cc008 	ands	ip, ip, #8
    3310:	13a0c002 	movne	ip, #2
    3314:	e3510000 	cmp	r1, #0
    3318:	e18c100e 	orr	r1, ip, lr
    331c:	e5c31008 	strb	r1, [r3, #8]
    3320:	e5921054 	ldr	r1, [r2, #84]	; 0x54
    3324:	1affffbc 	bne	321c <netconf_add_fw+0x658>
    3328:	e30f3fff 	movw	r3, #65535	; 0xffff
    332c:	e1500003 	cmp	r0, r3
    3330:	13a03b01 	movne	r3, #1024	; 0x400
    3334:	03a03000 	moveq	r3, #0
    3338:	eaffffb8 	b	3220 <netconf_add_fw+0x65c>
    333c:	e59f3238 	ldr	r3, [pc, #568]	; 357c <netconf_add_fw+0x9b8>
    3340:	e59f1264 	ldr	r1, [pc, #612]	; 35ac <netconf_add_fw+0x9e8>
    3344:	e7953003 	ldr	r3, [r5, r3]
    3348:	e0851001 	add	r1, r5, r1
    334c:	e5930000 	ldr	r0, [r3]
[31m    3350:	ebfff742 	bl	1060 <fprintf@plt>[0m
    3354:	e3e00015 	mvn	r0, #21
    3358:	eafffedc 	b	2ed0 <netconf_add_fw+0x30c>
--
    34a8:	e5820054 	str	r0, [r2, #84]	; 0x54
    34ac:	e1d411b8 	ldrh	r1, [r4, #24]
    34b0:	eaffff8a 	b	32e0 <netconf_add_fw+0x71c>
    34b4:	e59f00fc 	ldr	r0, [pc, #252]	; 35b8 <netconf_add_fw+0x9f4>
    34b8:	e0850000 	add	r0, r5, r0
    34bc:	ebfff6cf 	bl	1000 <perror@plt>
    34c0:	ebfff722 	bl	1150 <__errno_location@plt>
    34c4:	e5900000 	ldr	r0, [r0]
    34c8:	eafffe80 	b	2ed0 <netconf_add_fw+0x30c>
    34cc:	e59f30a8 	ldr	r3, [pc, #168]	; 357c <netconf_add_fw+0x9b8>
    34d0:	e7953003 	ldr	r3, [r5, r3]
    34d4:	e5936000 	ldr	r6, [r3]
    34d8:	ebfff71c 	bl	1150 <__errno_location@plt>
    34dc:	e1a04000 	mov	r4, r0
    34e0:	e5900000 	ldr	r0, [r0]
    34e4:	ebfff6f5 	bl	10c0 <iptc_strerror@plt>
    34e8:	e59f10b4 	ldr	r1, [pc, #180]	; 35a4 <netconf_add_fw+0x9e0>
    34ec:	e1a02000 	mov	r2, r0
    34f0:	e1a00006 	mov	r0, r6
    34f4:	e0851001 	add	r1, r5, r1
[31m    34f8:	ebfff6d8 	bl	1060 <fprintf@plt>[0m
    34fc:	eafffe68 	b	2ea4 <netconf_add_fw+0x2e0>
    3500:	e1d81ab0 	ldrh	r1, [r8, #160]	; 0xa0
--
    3610:	0a000007 	beq	3634 <netconf_del_fw+0x74>
    3614:	e1a00007 	mov	r0, r7
    3618:	e1a01006 	mov	r1, r6
    361c:	e1a02005 	mov	r2, r5
    3620:	ebfff66d 	bl	fdc <iptc_delete_num_entry@plt>
    3624:	e3500000 	cmp	r0, #0
    3628:	1a00001f 	bne	36ac <netconf_del_fw+0xec>
    362c:	e1a00005 	mov	r0, r5
    3630:	ebfff684 	bl	1048 <iptc_free@plt>
    3634:	e59f3098 	ldr	r3, [pc, #152]	; 36d4 <netconf_del_fw+0x114>
    3638:	e7943003 	ldr	r3, [r4, r3]
    363c:	e5936000 	ldr	r6, [r3]
    3640:	ebfff6c2 	bl	1150 <__errno_location@plt>
    3644:	e1a05000 	mov	r5, r0
    3648:	e5900000 	ldr	r0, [r0]
    364c:	ebfff69b 	bl	10c0 <iptc_strerror@plt>
    3650:	e59f1080 	ldr	r1, [pc, #128]	; 36d8 <netconf_del_fw+0x118>
    3654:	e1a02000 	mov	r2, r0
    3658:	e1a00006 	mov	r0, r6
    365c:	e0841001 	add	r1, r4, r1
[31m    3660:	ebfff67e 	bl	1060 <fprintf@plt>[0m
    3664:	e5950000 	ldr	r0, [r5]
    3668:	e8bd80f8 	pop	{r3, r4, r5, r6, r7, pc}
--
    3a64:	e2505000 	subs	r5, r0, #0
    3a68:	1affffd5 	bne	39c4 <netconf_reset_fw+0x30>
    3a6c:	e59f334c 	ldr	r3, [pc, #844]	; 3dc0 <netconf_reset_fw+0x42c>
    3a70:	e1a00007 	mov	r0, r7
    3a74:	e0841003 	add	r1, r4, r3
    3a78:	e58d300c 	str	r3, [sp, #12]
    3a7c:	ebfff650 	bl	13c4 <free@plt+0x22c>
    3a80:	e3500000 	cmp	r0, #0
    3a84:	0a00000d 	beq	3ac0 <netconf_reset_fw+0x12c>
    3a88:	e59f3334 	ldr	r3, [pc, #820]	; 3dc4 <netconf_reset_fw+0x430>
    3a8c:	e7943003 	ldr	r3, [r4, r3]
    3a90:	e5936000 	ldr	r6, [r3]
    3a94:	ebfff5ad 	bl	1150 <__errno_location@plt>
    3a98:	e1a05000 	mov	r5, r0
    3a9c:	e5900000 	ldr	r0, [r0]
    3aa0:	ebfff586 	bl	10c0 <iptc_strerror@plt>
    3aa4:	e59f131c 	ldr	r1, [pc, #796]	; 3dc8 <netconf_reset_fw+0x434>
    3aa8:	e1a02000 	mov	r2, r0
    3aac:	e1a00006 	mov	r0, r6
    3ab0:	e0841001 	add	r1, r4, r1
[31m    3ab4:	ebfff569 	bl	1060 <fprintf@plt>[0m
    3ab8:	e5955000 	ldr	r5, [r5]
    3abc:	eaffffc0 	b	39c4 <netconf_reset_fw+0x30>
--
    3e88:	e1a01005 	mov	r1, r5
    3e8c:	e1a02006 	mov	r2, r6
    3e90:	e1a03007 	mov	r3, r7
    3e94:	e0840000 	add	r0, r4, r0
    3e98:	ebfff4b2 	bl	1168 <iptc_insert_entry@plt>
    3e9c:	e1500006 	cmp	r0, r6
    3ea0:	1a000012 	bne	3ef0 <netconf_clamp_mss_to_pmtu+0x108>
    3ea4:	e1a00007 	mov	r0, r7
    3ea8:	ebfff466 	bl	1048 <iptc_free@plt>
    3eac:	e59f3078 	ldr	r3, [pc, #120]	; 3f2c <netconf_clamp_mss_to_pmtu+0x144>
    3eb0:	e7943003 	ldr	r3, [r4, r3]
    3eb4:	e5937000 	ldr	r7, [r3]
    3eb8:	ebfff4a4 	bl	1150 <__errno_location@plt>
    3ebc:	e1a06000 	mov	r6, r0
    3ec0:	e5900000 	ldr	r0, [r0]
    3ec4:	ebfff47d 	bl	10c0 <iptc_strerror@plt>
    3ec8:	e59f1060 	ldr	r1, [pc, #96]	; 3f30 <netconf_clamp_mss_to_pmtu+0x148>
    3ecc:	e1a02000 	mov	r2, r0
    3ed0:	e1a00007 	mov	r0, r7
    3ed4:	e0841001 	add	r1, r4, r1
[31m    3ed8:	ebfff460 	bl	1060 <fprintf@plt>[0m
    3edc:	e1a00005 	mov	r0, r5
    3ee0:	ebfff4ac 	bl	1198 <free@plt>
--
    42f8:	e2882001 	add	r2, r8, #1
    42fc:	e1a0000c 	mov	r0, ip
    4300:	e7991102 	ldr	r1, [r9, r2, lsl #2]
    4304:	e88d1008 	stm	sp, {r3, ip}
    4308:	e2811008 	add	r1, r1, #8
    430c:	ebfff374 	bl	10e4 <strcmp@plt>
    4310:	e89d1008 	ldm	sp, {r3, ip}
    4314:	e3500000 	cmp	r0, #0
    4318:	aa000012 	bge	4368 <iptc_next_rule+0x37c>
    431c:	e1a00007 	mov	r0, r7
    4320:	e28dd00c 	add	sp, sp, #12
    4324:	e8bd8ff0 	pop	{r4, r5, r6, r7, r8, r9, sl, fp, pc}
    4328:	e35a0001 	cmp	sl, #1
    432c:	0a000007 	beq	4350 <iptc_next_rule+0x364>
    4330:	e59f3094 	ldr	r3, [pc, #148]	; 43cc <iptc_next_rule+0x3e0>
    4334:	e1a0200a 	mov	r2, sl
    4338:	e59f1090 	ldr	r1, [pc, #144]	; 43d0 <iptc_next_rule+0x3e4>
    433c:	e7943003 	ldr	r3, [r4, r3]
    4340:	e0841001 	add	r1, r4, r1
    4344:	e5930000 	ldr	r0, [r3]
[31m    4348:	ebfff344 	bl	1060 <fprintf@plt>[0m
    434c:	ebfff33a 	bl	103c <abort@plt>
    4350:	e5970060 	ldr	r0, [r7, #96]	; 0x60
--
    4370:	eaffffcb 	b	42a4 <iptc_next_rule+0x2b8>
    4374:	e3580000 	cmp	r8, #0
    4378:	0affffe7 	beq	431c <iptc_next_rule+0x330>
    437c:	e1a06008 	mov	r6, r8
    4380:	e595901c 	ldr	r9, [r5, #28]
    4384:	e1a080a8 	lsr	r8, r8, #1
    4388:	eaffffc5 	b	42a4 <iptc_next_rule+0x2b8>
    438c:	e595901c 	ldr	r9, [r5, #28]
    4390:	e2882001 	add	r2, r8, #1
    4394:	e7992102 	ldr	r2, [r9, r2, lsl #2]
    4398:	e5920060 	ldr	r0, [r2, #96]	; 0x60
    439c:	e0600003 	rsb	r0, r0, r3
    43a0:	eaffffdb 	b	4314 <iptc_next_rule+0x328>
    43a4:	e59f3020 	ldr	r3, [pc, #32]	; 43cc <iptc_next_rule+0x3e0>
    43a8:	e1a02008 	mov	r2, r8
    43ac:	e59f1020 	ldr	r1, [pc, #32]	; 43d4 <iptc_next_rule+0x3e8>
    43b0:	e2857008 	add	r7, r5, #8
    43b4:	e7943003 	ldr	r3, [r4, r3]
    43b8:	e0841001 	add	r1, r4, r1
    43bc:	e5930000 	ldr	r0, [r3]
[31m    43c0:	ebfff326 	bl	1060 <fprintf@plt>[0m
    43c4:	eaffffd4 	b	431c <iptc_next_rule+0x330>
    43c8:	0000b938 	andeq	fp, r0, r8, lsr r9
--
    4ee4:	ea000003 	b	4ef8 <iptc_delete_chain+0x258>
    4ee8:	eaffffff 	b	4eec <iptc_delete_chain+0x24c>
    4eec:	e59f004c 	ldr	r0, [pc, #76]	; 4f40 <iptc_delete_chain+0x2a0>
    4ef0:	e0830000 	add	r0, r3, r0
    4ef4:	e8bd8008 	pop	{r3, pc}
    4ef8:	e59f0044 	ldr	r0, [pc, #68]	; 4f44 <iptc_delete_chain+0x2a4>
    4efc:	e0830000 	add	r0, r3, r0
    4f00:	e8bd8008 	pop	{r3, pc}
    4f04:	e59f003c 	ldr	r0, [pc, #60]	; 4f48 <iptc_delete_chain+0x2a8>
    4f08:	e0830000 	add	r0, r3, r0
    4f0c:	e8bd8008 	pop	{r3, pc}
    4f10:	e59f0034 	ldr	r0, [pc, #52]	; 4f4c <iptc_delete_chain+0x2ac>
    4f14:	e0830000 	add	r0, r3, r0
    4f18:	e8bd8008 	pop	{r3, pc}
    4f1c:	e59f102c 	ldr	r1, [pc, #44]	; 4f50 <iptc_delete_chain+0x2b0>
    4f20:	e1a02000 	mov	r2, r0
    4f24:	e7930001 	ldr	r0, [r3, r1]
    4f28:	e59f1024 	ldr	r1, [pc, #36]	; 4f54 <iptc_delete_chain+0x2b4>
    4f2c:	e5900000 	ldr	r0, [r0]
    4f30:	e0831001 	add	r1, r3, r1
[31m    4f34:	ebfff049 	bl	1060 <fprintf@plt>[0m
    4f38:	ebfff03f 	bl	103c <abort@plt>
    4f3c:	0000ad04 	andeq	sl, r0, r4, lsl #26
--
    562c:	e5f34001 	ldrb	r4, [r3, #1]!
    5630:	e5f1c001 	ldrb	ip, [r1, #1]!
    5634:	e0284004 	eor	r4, r8, r4
    5638:	e114000c 	tst	r4, ip
    563c:	1a000010 	bne	5684 <iptc_get_target+0x6ac>
    5640:	e2822001 	add	r2, r2, #1
    5644:	e1520009 	cmp	r2, r9
    5648:	3afffff6 	bcc	5628 <iptc_get_target+0x650>
    564c:	eaffffbe 	b	554c <iptc_get_target+0x574>
    5650:	e5951020 	ldr	r1, [r5, #32]
    5654:	e59a2020 	ldr	r2, [sl, #32]
    5658:	e1510002 	cmp	r1, r2
    565c:	13a02000 	movne	r2, #0
    5660:	03a02001 	moveq	r2, #1
    5664:	eaffffb6 	b	5544 <iptc_get_target+0x56c>
    5668:	e59f30f8 	ldr	r3, [pc, #248]	; 5768 <iptc_get_target+0x790>
    566c:	e59f10f8 	ldr	r1, [pc, #248]	; 576c <iptc_get_target+0x794>
    5670:	e79b3003 	ldr	r3, [fp, r3]
    5674:	e08b1001 	add	r1, fp, r1
    5678:	e5930000 	ldr	r0, [r3]
[31m    567c:	ebffee77 	bl	1060 <fprintf@plt>[0m
    5680:	ebffee6d 	bl	103c <abort@plt>
    5684:	e1a0800b 	mov	r8, fp
--
    713c:	e2811001 	add	r1, r1, #1
    7140:	e154000c 	cmp	r4, ip
    7144:	1afffff7 	bne	7128 <dump_entries+0x3cc>
    7148:	e58d801c 	str	r8, [sp, #28]
    714c:	eaffff57 	b	6eb0 <dump_entries+0x154>
    7150:	e1a00006 	mov	r0, r6
    7154:	e59d1054 	ldr	r1, [sp, #84]	; 0x54
    7158:	ebffe7e1 	bl	10e4 <strcmp@plt>
    715c:	e3500000 	cmp	r0, #0
    7160:	1affffdf 	bne	70e4 <dump_entries+0x388>
    7164:	e59d005c 	ldr	r0, [sp, #92]	; 0x5c
    7168:	e2851020 	add	r1, r5, #32
    716c:	ebffe791 	bl	fb8 <printf@plt>
    7170:	eaffffdb 	b	70e4 <dump_entries+0x388>
    7174:	e59f30c8 	ldr	r3, [pc, #200]	; 7244 <dump_entries+0x4e8>
    7178:	e0622004 	rsb	r2, r2, r4
    717c:	e59f10c4 	ldr	r1, [pc, #196]	; 7248 <dump_entries+0x4ec>
    7180:	e7973003 	ldr	r3, [r7, r3]
    7184:	e0871001 	add	r1, r7, r1
    7188:	e5930000 	ldr	r0, [r3]
[31m    718c:	ebffe7b3 	bl	1060 <fprintf@plt>[0m
    7190:	ebffe7a9 	bl	103c <abort@plt>
    7194:	e59d0058 	ldr	r0, [sp, #88]	; 0x58

[0m
[[0;33m*[0m] Function [0;33mfprintf[0m used [0;33m20[0m times [0;33mlibnetconf.so[0m

