[[0;33m*[0m] Binary protection state of [0;33mses_cl.svn-base[0m
[REF] s12

  	RELRO          CANARY            NX           PIE       RPATH        RUNPATH      SYMBOLS      
  	[31mNo RELRO[0m       [31mNo Canary found[0m   [32mNX enabled[0m   [31mNo PIE[0m       [32mNo RPATH[0m     [32mNo RUNPATH[0m   [32mNo Symbols[0m

[0m
[[0;33m*[0m] Function [0;33mstrcat[0m tear down of [0;33mses_cl.svn-base[0m

    d2a8:	e28d6088 	add	r6, sp, #136	; 0x88
    d2ac:	e1a03000 	mov	r3, r0
    d2b0:	e3a01080 	mov	r1, #128	; 0x80
    d2b4:	e1a00006 	mov	r0, r6
    d2b8:	e59f20e0 	ldr	r2, [pc, #224]	; d3a0 <_start@@Base+0x4060>
    d2bc:	ebffef5c 	bl	9034 <snprintf@plt>
    d2c0:	e5984000 	ldr	r4, [r8]
    d2c4:	e3540000 	cmp	r4, #0
    d2c8:	028d5008 	addeq	r5, sp, #8
    d2cc:	0a000011 	beq	d318 <_start@@Base+0x3fd8>
    d2d0:	e28d7008 	add	r7, sp, #8
    d2d4:	e1a00004 	mov	r0, r4
    d2d8:	ebffffae 	bl	d198 <_start@@Base+0x3e58>
    d2dc:	e2505000 	subs	r5, r0, #0
    d2e0:	0a000028 	beq	d388 <_start@@Base+0x4048>
    d2e4:	e1a01006 	mov	r1, r6
    d2e8:	e1a00007 	mov	r0, r7
    d2ec:	ebffef3b 	bl	8fe0 <strcpy@plt>
    d2f0:	e2841003 	add	r1, r4, #3
    d2f4:	e1a00007 	mov	r0, r7
[31m    d2f8:	ebffef83 	bl	910c <strcat@plt>[0m
    d2fc:	e1a01005 	mov	r1, r5
    d300:	e1a00007 	mov	r0, r7
--
    d3e4:	ebffef12 	bl	9034 <snprintf@plt>
    d3e8:	e598a000 	ldr	sl, [r8]
    d3ec:	e35a0000 	cmp	sl, #0
    d3f0:	01a0700d 	moveq	r7, sp
    d3f4:	0a000015 	beq	d450 <_start@@Base+0x4110>
    d3f8:	e2888008 	add	r8, r8, #8
    d3fc:	e1a0700d 	mov	r7, sp
    d400:	ea000002 	b	d410 <_start@@Base+0x40d0>
    d404:	e498a008 	ldr	sl, [r8], #8
    d408:	e35a0000 	cmp	sl, #0
    d40c:	0a00000f 	beq	d450 <_start@@Base+0x4110>
    d410:	e5189004 	ldr	r9, [r8, #-4]
    d414:	e5d93000 	ldrb	r3, [r9]
    d418:	e3530000 	cmp	r3, #0
    d41c:	0afffff8 	beq	d404 <_start@@Base+0x40c4>
    d420:	e1a01004 	mov	r1, r4
    d424:	e1a0000d 	mov	r0, sp
    d428:	ebffeeec 	bl	8fe0 <strcpy@plt>
    d42c:	e28a1003 	add	r1, sl, #3
    d430:	e1a0000d 	mov	r0, sp
[31m    d434:	ebffef34 	bl	910c <strcat@plt>[0m
    d438:	e1a0000d 	mov	r0, sp
    d43c:	e1a01009 	mov	r1, r9
--
    d738:	e28d508c 	add	r5, sp, #140	; 0x8c
    d73c:	e59f8404 	ldr	r8, [pc, #1028]	; db48 <_start@@Base+0x4808>
    d740:	e1a00005 	mov	r0, r5
    d744:	e3a01080 	mov	r1, #128	; 0x80
    d748:	e59f23fc 	ldr	r2, [pc, #1020]	; db4c <_start@@Base+0x480c>
    d74c:	e59c300c 	ldr	r3, [ip, #12]
    d750:	e59c6010 	ldr	r6, [ip, #16]
    d754:	ebffee36 	bl	9034 <snprintf@plt>
    d758:	e598a000 	ldr	sl, [r8]
    d75c:	e35a0000 	cmp	sl, #0
    d760:	0a000035 	beq	d83c <_start@@Base+0x44fc>
    d764:	e59fb3e4 	ldr	fp, [pc, #996]	; db50 <_start@@Base+0x4810>
    d768:	e2888008 	add	r8, r8, #8
    d76c:	e28d700c 	add	r7, sp, #12
    d770:	e3a09000 	mov	r9, #0
    d774:	e1a01005 	mov	r1, r5
    d778:	e1a00007 	mov	r0, r7
    d77c:	ebffee17 	bl	8fe0 <strcpy@plt>
    d780:	e28a1003 	add	r1, sl, #3
    d784:	e1a00007 	mov	r0, r7
[31m    d788:	ebffee5f 	bl	910c <strcat@plt>[0m
    d78c:	e1a00007 	mov	r0, r7
    d790:	ebffee90 	bl	91d8 <nvram_get@plt>

[0m
[[0;33m*[0m] Function [0;33mstrcat[0m used [0;33m3[0m times [0;33mses_cl.svn-base[0m

