[[0;33m*[0m] Binary protection state of [0;33mlibxt_conntrack.so[0m
[REF] s12

  	RELRO          CANARY            NX           PIE       RPATH        RUNPATH      SYMBOLS      
  	[31mNo RELRO[0m       [31mNo Canary found[0m   [32mNX enabled[0m   [33mDSO[0m          [32mNo RPATH[0m     [32mNo RUNPATH[0m   [31mSymbols
	[31mNo RELRO[0m       [31mNo Canary found[0m   [32mNX enabled[0m   [33mDSO[0m          [32mNo RPATH[0m     [32mNo RUNPATH[0m   [32mNo Symbols[0m

[0m
[[0;33m*[0m] Function [0;33mprintf[0m tear down of [0;33mlibxt_conntrack.so[0m

     c0c:	e59f10e4 	ldr	r1, [pc, #228]	; cf8 <__register_frame_info@plt+0x244>
     c10:	e0841001 	add	r1, r4, r1
     c14:	e3150008 	tst	r5, #8
     c18:	1a000027 	bne	cbc <__register_frame_info@plt+0x208>
     c1c:	e3150004 	tst	r5, #4
     c20:	1a00001f 	bne	ca4 <__register_frame_info@plt+0x1f0>
     c24:	e3150002 	tst	r5, #2
     c28:	1a000017 	bne	c8c <__register_frame_info@plt+0x1d8>
     c2c:	e3150c01 	tst	r5, #256	; 0x100
     c30:	1a00000f 	bne	c74 <__register_frame_info@plt+0x1c0>
     c34:	e3150040 	tst	r5, #64	; 0x40
     c38:	1a000005 	bne	c54 <__register_frame_info@plt+0x1a0>
     c3c:	e3150080 	tst	r5, #128	; 0x80
     c40:	08bd8070 	popeq	{r4, r5, r6, pc}
     c44:	e59f00b0 	ldr	r0, [pc, #176]	; cfc <__register_frame_info@plt+0x248>
     c48:	e0840000 	add	r0, r4, r0
     c4c:	e8bd4070 	pop	{r4, r5, r6, lr}
[31m     c50:	eaffff5e 	b	9d0 <printf@plt>[0m
     c54:	e59f00a4 	ldr	r0, [pc, #164]	; d00 <__register_frame_info@plt+0x24c>
     c58:	e0840000 	add	r0, r4, r0
[31m     c5c:	ebffff5b 	bl	9d0 <printf@plt>[0m
     c60:	e59f109c 	ldr	r1, [pc, #156]	; d04 <__register_frame_info@plt+0x250>
     c64:	e3150080 	tst	r5, #128	; 0x80
     c68:	e0841001 	add	r1, r4, r1
     c6c:	08bd8070 	popeq	{r4, r5, r6, pc}
     c70:	eafffff3 	b	c44 <__register_frame_info@plt+0x190>
     c74:	e59f008c 	ldr	r0, [pc, #140]	; d08 <__register_frame_info@plt+0x254>
     c78:	e0840000 	add	r0, r4, r0
[31m     c7c:	ebffff53 	bl	9d0 <printf@plt>[0m
     c80:	e59f107c 	ldr	r1, [pc, #124]	; d04 <__register_frame_info@plt+0x250>
     c84:	e0841001 	add	r1, r4, r1
     c88:	eaffffe9 	b	c34 <__register_frame_info@plt+0x180>
     c8c:	e59f0078 	ldr	r0, [pc, #120]	; d0c <__register_frame_info@plt+0x258>
     c90:	e0840000 	add	r0, r4, r0
[31m     c94:	ebffff4d 	bl	9d0 <printf@plt>[0m
     c98:	e59f1064 	ldr	r1, [pc, #100]	; d04 <__register_frame_info@plt+0x250>
     c9c:	e0841001 	add	r1, r4, r1
     ca0:	eaffffe1 	b	c2c <__register_frame_info@plt+0x178>
     ca4:	e59f0064 	ldr	r0, [pc, #100]	; d10 <__register_frame_info@plt+0x25c>
     ca8:	e0840000 	add	r0, r4, r0
[31m     cac:	ebffff47 	bl	9d0 <printf@plt>[0m
     cb0:	e59f104c 	ldr	r1, [pc, #76]	; d04 <__register_frame_info@plt+0x250>
     cb4:	e0841001 	add	r1, r4, r1
     cb8:	eaffffd9 	b	c24 <__register_frame_info@plt+0x170>
     cbc:	e59f0050 	ldr	r0, [pc, #80]	; d14 <__register_frame_info@plt+0x260>
     cc0:	e0840000 	add	r0, r4, r0
[31m     cc4:	ebffff41 	bl	9d0 <printf@plt>[0m
     cc8:	e59f1034 	ldr	r1, [pc, #52]	; d04 <__register_frame_info@plt+0x250>
     ccc:	e0841001 	add	r1, r4, r1
     cd0:	eaffffd1 	b	c1c <__register_frame_info@plt+0x168>
     cd4:	e59f003c 	ldr	r0, [pc, #60]	; d18 <__register_frame_info@plt+0x264>
     cd8:	e59f1018 	ldr	r1, [pc, #24]	; cf8 <__register_frame_info@plt+0x244>
     cdc:	e0840000 	add	r0, r4, r0
     ce0:	e0841001 	add	r1, r4, r1
[31m     ce4:	ebffff39 	bl	9d0 <printf@plt>[0m
     ce8:	e59f1014 	ldr	r1, [pc, #20]	; d04 <__register_frame_info@plt+0x250>
     cec:	e0841001 	add	r1, r4, r1
--
     d08:	ffff71f8 			; <UNDEFINED> instruction: 0xffff71f8
     d0c:	ffff71e8 			; <UNDEFINED> instruction: 0xffff71e8
     d10:	ffff71dc 			; <UNDEFINED> instruction: 0xffff71dc
     d14:	ffff71d4 			; <UNDEFINED> instruction: 0xffff71d4
     d18:	ffff71c8 			; <UNDEFINED> instruction: 0xffff71c8
     d1c:	e59fc05c 	ldr	ip, [pc, #92]	; d80 <__register_frame_info@plt+0x2cc>
     d20:	e3530000 	cmp	r3, #0
     d24:	11520003 	cmpne	r2, r3
     d28:	e92d4030 	push	{r4, r5, lr}
     d2c:	e1a05002 	mov	r5, r2
     d30:	e24dd00c 	sub	sp, sp, #12
     d34:	e1a04003 	mov	r4, r3
     d38:	e1a02001 	mov	r2, r1
     d3c:	e08fc00c 	add	ip, pc, ip
     d40:	0a000007 	beq	d64 <__register_frame_info@plt+0x2b0>
     d44:	e1a01000 	mov	r1, r0
     d48:	e59f0034 	ldr	r0, [pc, #52]	; d84 <__register_frame_info@plt+0x2d0>
     d4c:	e1a03005 	mov	r3, r5
     d50:	e58d4000 	str	r4, [sp]
     d54:	e08c0000 	add	r0, ip, r0
[31m     d58:	ebffff1c 	bl	9d0 <printf@plt>[0m
     d5c:	e28dd00c 	add	sp, sp, #12
     d60:	e8bd8030 	pop	{r4, r5, pc}
--
     da4:	e59f1094 	ldr	r1, [pc, #148]	; e40 <__register_frame_info@plt+0x38c>
     da8:	e0841001 	add	r1, r4, r1
     dac:	e3150002 	tst	r5, #2
     db0:	1a000013 	bne	e04 <__register_frame_info@plt+0x350>
     db4:	e3150004 	tst	r5, #4
     db8:	1a00000b 	bne	dec <__register_frame_info@plt+0x338>
     dbc:	e3150008 	tst	r5, #8
     dc0:	1a000005 	bne	ddc <__register_frame_info@plt+0x328>
     dc4:	e3550000 	cmp	r5, #0
     dc8:	18bd8070 	popne	{r4, r5, r6, pc}
     dcc:	e59f0070 	ldr	r0, [pc, #112]	; e44 <__register_frame_info@plt+0x390>
     dd0:	e0840000 	add	r0, r4, r0
     dd4:	e8bd4070 	pop	{r4, r5, r6, lr}
[31m     dd8:	eafffefc 	b	9d0 <printf@plt>[0m
     ddc:	e59f0064 	ldr	r0, [pc, #100]	; e48 <__register_frame_info@plt+0x394>
     de0:	e0840000 	add	r0, r4, r0
     de4:	e8bd4070 	pop	{r4, r5, r6, lr}
[31m     de8:	eafffef8 	b	9d0 <printf@plt>[0m
     dec:	e59f0058 	ldr	r0, [pc, #88]	; e4c <__register_frame_info@plt+0x398>
     df0:	e0840000 	add	r0, r4, r0
[31m     df4:	ebfffef5 	bl	9d0 <printf@plt>[0m
     df8:	e59f1050 	ldr	r1, [pc, #80]	; e50 <__register_frame_info@plt+0x39c>
     dfc:	e0841001 	add	r1, r4, r1
     e00:	eaffffed 	b	dbc <__register_frame_info@plt+0x308>
     e04:	e59f0048 	ldr	r0, [pc, #72]	; e54 <__register_frame_info@plt+0x3a0>
     e08:	e0840000 	add	r0, r4, r0
[31m     e0c:	ebfffeef 	bl	9d0 <printf@plt>[0m
     e10:	e59f1038 	ldr	r1, [pc, #56]	; e50 <__register_frame_info@plt+0x39c>
     e14:	e0841001 	add	r1, r4, r1
     e18:	eaffffe5 	b	db4 <__register_frame_info@plt+0x300>
     e1c:	e59f0034 	ldr	r0, [pc, #52]	; e58 <__register_frame_info@plt+0x3a4>
     e20:	e59f1018 	ldr	r1, [pc, #24]	; e40 <__register_frame_info@plt+0x38c>
     e24:	e0840000 	add	r0, r4, r0
     e28:	e0841001 	add	r1, r4, r1
[31m     e2c:	ebfffee7 	bl	9d0 <printf@plt>[0m
     e30:	e59f1018 	ldr	r1, [pc, #24]	; e50 <__register_frame_info@plt+0x39c>
     e34:	e0841001 	add	r1, r4, r1
--
     f44:	0000aad8 	ldrdeq	sl, [r0], -r8
     f48:	ffff7268 			; <UNDEFINED> instruction: 0xffff7268
     f4c:	ffff7274 			; <UNDEFINED> instruction: 0xffff7274
     f50:	e92d47f0 	push	{r4, r5, r6, r7, r8, r9, sl, lr}
     f54:	e1a04000 	mov	r4, r0
     f58:	e1d009b2 	ldrh	r0, [r0, #146]	; 0x92
     f5c:	e1a06001 	mov	r6, r1
     f60:	e1a08002 	mov	r8, r2
     f64:	e1a0a003 	mov	sl, r3
     f68:	e59f5420 	ldr	r5, [pc, #1056]	; 1390 <__register_frame_info@plt+0x8dc>
     f6c:	e3100001 	tst	r0, #1
     f70:	e5dd7020 	ldrb	r7, [sp, #32]
     f74:	e08f5005 	add	r5, pc, r5
     f78:	0a000009 	beq	fa4 <__register_frame_info@plt+0x4f0>
     f7c:	e1d439b4 	ldrh	r3, [r4, #148]	; 0x94
     f80:	e3130001 	tst	r3, #1
     f84:	1a0000cd 	bne	12c0 <__register_frame_info@plt+0x80c>
     f88:	e59f0404 	ldr	r0, [pc, #1028]	; 1394 <__register_frame_info@plt+0x8e0>
     f8c:	e1a01006 	mov	r1, r6
     f90:	e0850000 	add	r0, r5, r0
[31m     f94:	ebfffe8d 	bl	9d0 <printf@plt>[0m
     f98:	e1d409b6 	ldrh	r0, [r4, #150]	; 0x96
     f9c:	ebffff14 	bl	bf4 <__register_frame_info@plt+0x140>
     fa0:	e1d409b2 	ldrh	r0, [r4, #146]	; 0x92
     fa4:	e3100002 	tst	r0, #2
     fa8:	0a000008 	beq	fd0 <__register_frame_info@plt+0x51c>
     fac:	e1d439b4 	ldrh	r3, [r4, #148]	; 0x94
     fb0:	e3130002 	tst	r3, #2
     fb4:	1a0000c5 	bne	12d0 <__register_frame_info@plt+0x81c>
     fb8:	e59f03d8 	ldr	r0, [pc, #984]	; 1398 <__register_frame_info@plt+0x8e4>
     fbc:	e1a01006 	mov	r1, r6
     fc0:	e1d428b8 	ldrh	r2, [r4, #136]	; 0x88
     fc4:	e0850000 	add	r0, r5, r0
[31m     fc8:	ebfffe80 	bl	9d0 <printf@plt>[0m
     fcc:	e1d409b2 	ldrh	r0, [r4, #146]	; 0x92
     fd0:	e3100004 	tst	r0, #4
     fd4:	0a00000c 	beq	100c <__register_frame_info@plt+0x558>
     fd8:	e1d439b4 	ldrh	r3, [r4, #148]	; 0x94
     fdc:	e3130004 	tst	r3, #4
     fe0:	1a0000be 	bne	12e0 <__register_frame_info@plt+0x82c>
     fe4:	e59f03b0 	ldr	r0, [pc, #944]	; 139c <__register_frame_info@plt+0x8e8>
     fe8:	e1a01006 	mov	r1, r6
     fec:	e0850000 	add	r0, r5, r0
[31m     ff0:	ebfffe76 	bl	9d0 <printf@plt>[0m
     ff4:	e1a00004 	mov	r0, r4
     ff8:	e2841010 	add	r1, r4, #16
     ffc:	e1a02008 	mov	r2, r8
    1000:	e1a0300a 	mov	r3, sl
    1004:	ebffff94 	bl	e5c <__register_frame_info@plt+0x3a8>
    1008:	e1d409b2 	ldrh	r0, [r4, #146]	; 0x92
    100c:	e3100008 	tst	r0, #8
    1010:	0a00000c 	beq	1048 <__register_frame_info@plt+0x594>
    1014:	e1d439b4 	ldrh	r3, [r4, #148]	; 0x94
    1018:	e3130008 	tst	r3, #8
    101c:	1a0000b3 	bne	12f0 <__register_frame_info@plt+0x83c>
    1020:	e59f0378 	ldr	r0, [pc, #888]	; 13a0 <__register_frame_info@plt+0x8ec>
    1024:	e1a01006 	mov	r1, r6
    1028:	e0850000 	add	r0, r5, r0
[31m    102c:	ebfffe67 	bl	9d0 <printf@plt>[0m
    1030:	e2840020 	add	r0, r4, #32
    1034:	e2841030 	add	r1, r4, #48	; 0x30
    1038:	e1a02008 	mov	r2, r8
    103c:	e1a0300a 	mov	r3, sl
    1040:	ebffff85 	bl	e5c <__register_frame_info@plt+0x3a8>
    1044:	e1d409b2 	ldrh	r0, [r4, #146]	; 0x92
    1048:	e3100010 	tst	r0, #16
    104c:	0a00000c 	beq	1084 <__register_frame_info@plt+0x5d0>
    1050:	e1d439b4 	ldrh	r3, [r4, #148]	; 0x94
    1054:	e3130010 	tst	r3, #16
    1058:	1a0000a8 	bne	1300 <__register_frame_info@plt+0x84c>
    105c:	e59f0340 	ldr	r0, [pc, #832]	; 13a4 <__register_frame_info@plt+0x8f0>
    1060:	e1a01006 	mov	r1, r6
    1064:	e0850000 	add	r0, r5, r0
[31m    1068:	ebfffe58 	bl	9d0 <printf@plt>[0m
    106c:	e2840040 	add	r0, r4, #64	; 0x40
    1070:	e2841050 	add	r1, r4, #80	; 0x50
    1074:	e1a02008 	mov	r2, r8
    1078:	e1a0300a 	mov	r3, sl
    107c:	ebffff76 	bl	e5c <__register_frame_info@plt+0x3a8>
    1080:	e1d409b2 	ldrh	r0, [r4, #146]	; 0x92
    1084:	e3100020 	tst	r0, #32
    1088:	0a00000c 	beq	10c0 <__register_frame_info@plt+0x60c>
    108c:	e1d439b4 	ldrh	r3, [r4, #148]	; 0x94
    1090:	e3130020 	tst	r3, #32
    1094:	1a00009d 	bne	1310 <__register_frame_info@plt+0x85c>
    1098:	e59f0308 	ldr	r0, [pc, #776]	; 13a8 <__register_frame_info@plt+0x8f4>
    109c:	e1a01006 	mov	r1, r6
    10a0:	e0850000 	add	r0, r5, r0
[31m    10a4:	ebfffe49 	bl	9d0 <printf@plt>[0m
    10a8:	e2840060 	add	r0, r4, #96	; 0x60
    10ac:	e2841070 	add	r1, r4, #112	; 0x70
--
    11b0:	e1a00006 	mov	r0, r6
    11b4:	01d429b0 	ldrheq	r2, [r4, #144]	; 0x90
    11b8:	01a03007 	moveq	r3, r7
    11bc:	11d429b0 	ldrhne	r2, [r4, #144]	; 0x90
    11c0:	11d43ab0 	ldrhne	r3, [r4, #160]	; 0xa0
    11c4:	01a01402 	lsleq	r1, r2, #8
    11c8:	01812422 	orreq	r2, r1, r2, lsr #8
    11cc:	e59f11e4 	ldr	r1, [pc, #484]	; 13b8 <__register_frame_info@plt+0x904>
    11d0:	06ff2072 	uxtheq	r2, r2
    11d4:	e0851001 	add	r1, r5, r1
    11d8:	ebfffecf 	bl	d1c <__register_frame_info@plt+0x268>
    11dc:	e1d409b2 	ldrh	r0, [r4, #146]	; 0x92
    11e0:	e3100040 	tst	r0, #64	; 0x40
    11e4:	0a000009 	beq	1210 <__register_frame_info@plt+0x75c>
    11e8:	e1d439b4 	ldrh	r3, [r4, #148]	; 0x94
    11ec:	e3130040 	tst	r3, #64	; 0x40
    11f0:	1a00005a 	bne	1360 <__register_frame_info@plt+0x8ac>
    11f4:	e59f01c0 	ldr	r0, [pc, #448]	; 13bc <__register_frame_info@plt+0x908>
    11f8:	e1a01006 	mov	r1, r6
    11fc:	e0850000 	add	r0, r5, r0
[31m    1200:	ebfffdf2 	bl	9d0 <printf@plt>[0m
    1204:	e1d409b8 	ldrh	r0, [r4, #152]	; 0x98
    1208:	ebfffedf 	bl	d8c <__register_frame_info@plt+0x2d8>
    120c:	e1d409b2 	ldrh	r0, [r4, #146]	; 0x92
    1210:	e3100080 	tst	r0, #128	; 0x80
    1214:	0a00000e 	beq	1254 <__register_frame_info@plt+0x7a0>
    1218:	e1d439b4 	ldrh	r3, [r4, #148]	; 0x94
    121c:	e3130080 	tst	r3, #128	; 0x80
    1220:	1a00001a 	bne	1290 <__register_frame_info@plt+0x7dc>
    1224:	e59f0194 	ldr	r0, [pc, #404]	; 13c0 <__register_frame_info@plt+0x90c>
    1228:	e1a01006 	mov	r1, r6
    122c:	e0850000 	add	r0, r5, r0
[31m    1230:	ebfffde6 	bl	9d0 <printf@plt>[0m
    1234:	e5942084 	ldr	r2, [r4, #132]	; 0x84
    1238:	e5941080 	ldr	r1, [r4, #128]	; 0x80
    123c:	e1520001 	cmp	r2, r1
    1240:	0a00004a 	beq	1370 <__register_frame_info@plt+0x8bc>
    1244:	e59f0178 	ldr	r0, [pc, #376]	; 13c4 <__register_frame_info@plt+0x910>
    1248:	e0850000 	add	r0, r5, r0
[31m    124c:	ebfffddf 	bl	9d0 <printf@plt>[0m
    1250:	e1d409b2 	ldrh	r0, [r4, #146]	; 0x92
    1254:	e3100a01 	tst	r0, #4096	; 0x1000
    1258:	08bd87f0 	popeq	{r4, r5, r6, r7, r8, r9, sl, pc}
    125c:	e1d439b4 	ldrh	r3, [r4, #148]	; 0x94
    1260:	e3130a01 	tst	r3, #4096	; 0x1000
    1264:	1a000004 	bne	127c <__register_frame_info@plt+0x7c8>
    1268:	e59f0158 	ldr	r0, [pc, #344]	; 13c8 <__register_frame_info@plt+0x914>
    126c:	e1a01006 	mov	r1, r6
    1270:	e0850000 	add	r0, r5, r0
    1274:	e8bd47f0 	pop	{r4, r5, r6, r7, r8, r9, sl, lr}
[31m    1278:	eafffdd4 	b	9d0 <printf@plt>[0m
    127c:	e59f0148 	ldr	r0, [pc, #328]	; 13cc <__register_frame_info@plt+0x918>
    1280:	e1a01006 	mov	r1, r6
    1284:	e0850000 	add	r0, r5, r0
    1288:	e8bd47f0 	pop	{r4, r5, r6, r7, r8, r9, sl, lr}
[31m    128c:	eafffdcf 	b	9d0 <printf@plt>[0m
    1290:	e59f0138 	ldr	r0, [pc, #312]	; 13d0 <__register_frame_info@plt+0x91c>
    1294:	e0850000 	add	r0, r5, r0
[31m    1298:	ebfffdcc 	bl	9d0 <printf@plt>[0m
    129c:	e59f011c 	ldr	r0, [pc, #284]	; 13c0 <__register_frame_info@plt+0x90c>
    12a0:	e1a01006 	mov	r1, r6
    12a4:	e0850000 	add	r0, r5, r0
[31m    12a8:	ebfffdc8 	bl	9d0 <printf@plt>[0m
    12ac:	e5942084 	ldr	r2, [r4, #132]	; 0x84
    12b0:	e5941080 	ldr	r1, [r4, #128]	; 0x80
    12b4:	e1520001 	cmp	r2, r1
    12b8:	1affffe1 	bne	1244 <__register_frame_info@plt+0x790>
    12bc:	ea00002b 	b	1370 <__register_frame_info@plt+0x8bc>
    12c0:	e59f0108 	ldr	r0, [pc, #264]	; 13d0 <__register_frame_info@plt+0x91c>
    12c4:	e0850000 	add	r0, r5, r0
[31m    12c8:	ebfffdc0 	bl	9d0 <printf@plt>[0m
    12cc:	eaffff2d 	b	f88 <__register_frame_info@plt+0x4d4>
    12d0:	e59f00f8 	ldr	r0, [pc, #248]	; 13d0 <__register_frame_info@plt+0x91c>
    12d4:	e0850000 	add	r0, r5, r0
[31m    12d8:	ebfffdbc 	bl	9d0 <printf@plt>[0m
    12dc:	eaffff35 	b	fb8 <__register_frame_info@plt+0x504>
    12e0:	e59f00e8 	ldr	r0, [pc, #232]	; 13d0 <__register_frame_info@plt+0x91c>
    12e4:	e0850000 	add	r0, r5, r0
[31m    12e8:	ebfffdb8 	bl	9d0 <printf@plt>[0m
    12ec:	eaffff3c 	b	fe4 <__register_frame_info@plt+0x530>
    12f0:	e59f00d8 	ldr	r0, [pc, #216]	; 13d0 <__register_frame_info@plt+0x91c>
    12f4:	e0850000 	add	r0, r5, r0
[31m    12f8:	ebfffdb4 	bl	9d0 <printf@plt>[0m
    12fc:	eaffff47 	b	1020 <__register_frame_info@plt+0x56c>
    1300:	e59f00c8 	ldr	r0, [pc, #200]	; 13d0 <__register_frame_info@plt+0x91c>
    1304:	e0850000 	add	r0, r5, r0
[31m    1308:	ebfffdb0 	bl	9d0 <printf@plt>[0m
    130c:	eaffff52 	b	105c <__register_frame_info@plt+0x5a8>
    1310:	e59f00b8 	ldr	r0, [pc, #184]	; 13d0 <__register_frame_info@plt+0x91c>
    1314:	e0850000 	add	r0, r5, r0
[31m    1318:	ebfffdac 	bl	9d0 <printf@plt>[0m
    131c:	eaffff5d 	b	1098 <__register_frame_info@plt+0x5e4>
    1320:	e59f00a8 	ldr	r0, [pc, #168]	; 13d0 <__register_frame_info@plt+0x91c>
    1324:	e0850000 	add	r0, r5, r0
[31m    1328:	ebfffda8 	bl	9d0 <printf@plt>[0m
    132c:	eaffff68 	b	10d4 <__register_frame_info@plt+0x620>
    1330:	e59f0098 	ldr	r0, [pc, #152]	; 13d0 <__register_frame_info@plt+0x91c>
    1334:	e0850000 	add	r0, r5, r0
[31m    1338:	ebfffda4 	bl	9d0 <printf@plt>[0m
    133c:	eaffff76 	b	111c <__register_frame_info@plt+0x668>
    1340:	e59f0088 	ldr	r0, [pc, #136]	; 13d0 <__register_frame_info@plt+0x91c>
    1344:	e0850000 	add	r0, r5, r0
[31m    1348:	ebfffda0 	bl	9d0 <printf@plt>[0m
    134c:	eaffff84 	b	1164 <__register_frame_info@plt+0x6b0>
    1350:	e59f0078 	ldr	r0, [pc, #120]	; 13d0 <__register_frame_info@plt+0x91c>
    1354:	e0850000 	add	r0, r5, r0
[31m    1358:	ebfffd9c 	bl	9d0 <printf@plt>[0m
    135c:	eaffff92 	b	11ac <__register_frame_info@plt+0x6f8>
    1360:	e59f0068 	ldr	r0, [pc, #104]	; 13d0 <__register_frame_info@plt+0x91c>
    1364:	e0850000 	add	r0, r5, r0
[31m    1368:	ebfffd98 	bl	9d0 <printf@plt>[0m
    136c:	eaffffa0 	b	11f4 <__register_frame_info@plt+0x740>
    1370:	e59f005c 	ldr	r0, [pc, #92]	; 13d4 <__register_frame_info@plt+0x920>
    1374:	e1a01002 	mov	r1, r2
    1378:	e0850000 	add	r0, r5, r0
[31m    137c:	ebfffd93 	bl	9d0 <printf@plt>[0m
    1380:	e1d409b2 	ldrh	r0, [r4, #146]	; 0x92
    1384:	e3100a01 	tst	r0, #4096	; 0x1000
--
    2730:	e59f4084 	ldr	r4, [pc, #132]	; 27bc <__register_frame_info@plt+0x1d08>
    2734:	e3520000 	cmp	r2, #0
    2738:	03530000 	cmpeq	r3, #0
    273c:	e08f4004 	add	r4, pc, r4
    2740:	0a000017 	beq	27a4 <__register_frame_info@plt+0x1cf0>
    2744:	e3520000 	cmp	r2, #0
    2748:	1a00000f 	bne	278c <__register_frame_info@plt+0x1cd8>
    274c:	ebfff8cc 	bl	a84 <xtables_ipaddr_to_anyname@plt>
    2750:	e1a01000 	mov	r1, r0
    2754:	e1a0000d 	mov	r0, sp
    2758:	e1a0600d 	mov	r6, sp
    275c:	ebfff895 	bl	9b8 <strcpy@plt>
    2760:	e1a00005 	mov	r0, r5
    2764:	ebfff8c3 	bl	a78 <xtables_ipmask_to_numeric@plt>
    2768:	e1a01000 	mov	r1, r0
    276c:	e1a0000d 	mov	r0, sp
    2770:	ebfff8ab 	bl	a24 <strcat@plt>
    2774:	e59f0044 	ldr	r0, [pc, #68]	; 27c0 <__register_frame_info@plt+0x1d0c>
    2778:	e1a0100d 	mov	r1, sp
    277c:	e0840000 	add	r0, r4, r0
[31m    2780:	ebfff892 	bl	9d0 <printf@plt>[0m
    2784:	e28dda01 	add	sp, sp, #4096	; 0x1000
    2788:	e8bd8070 	pop	{r4, r5, r6, pc}
    278c:	ebfff89e 	bl	a0c <xtables_ipaddr_to_numeric@plt>
    2790:	e1a01000 	mov	r1, r0
    2794:	e1a0000d 	mov	r0, sp
    2798:	e1a0600d 	mov	r6, sp
    279c:	ebfff885 	bl	9b8 <strcpy@plt>
    27a0:	eaffffee 	b	2760 <__register_frame_info@plt+0x1cac>
    27a4:	e59f0014 	ldr	r0, [pc, #20]	; 27c0 <__register_frame_info@plt+0x1d0c>
    27a8:	e59f1014 	ldr	r1, [pc, #20]	; 27c4 <__register_frame_info@plt+0x1d10>
    27ac:	e0840000 	add	r0, r4, r0
    27b0:	e0841001 	add	r1, r4, r1
[31m    27b4:	ebfff885 	bl	9d0 <printf@plt>[0m
    27b8:	eafffff1 	b	2784 <__register_frame_info@plt+0x1cd0>
    27bc:	0000920c 	andeq	r9, r0, ip, lsl #4
    27c0:	ffff78c4 			; <UNDEFINED> instruction: 0xffff78c4
    27c4:	ffff78c8 			; <UNDEFINED> instruction: 0xffff78c8
    27c8:	e92d41f0 	push	{r4, r5, r6, r7, r8, lr}
    27cc:	e2804020 	add	r4, r0, #32
    27d0:	e5d43040 	ldrb	r3, [r4, #64]	; 0x40
    27d4:	e1a08000 	mov	r8, r0
    27d8:	e1a07001 	mov	r7, r1
    27dc:	e1a06002 	mov	r6, r2
    27e0:	e59f5250 	ldr	r5, [pc, #592]	; 2a38 <__register_frame_info@plt+0x1f84>
    27e4:	e3130001 	tst	r3, #1
    27e8:	e08f5005 	add	r5, pc, r5
    27ec:	0a000009 	beq	2818 <__register_frame_info@plt+0x1d64>
    27f0:	e5d43041 	ldrb	r3, [r4, #65]	; 0x41
    27f4:	e3130001 	tst	r3, #1
    27f8:	1a000069 	bne	29a4 <__register_frame_info@plt+0x1ef0>
    27fc:	e59f0238 	ldr	r0, [pc, #568]	; 2a3c <__register_frame_info@plt+0x1f88>
    2800:	e1a01006 	mov	r1, r6
    2804:	e0850000 	add	r0, r5, r0
[31m    2808:	ebfff870 	bl	9d0 <printf@plt>[0m
    280c:	e5980020 	ldr	r0, [r8, #32]
    2810:	ebfff8f7 	bl	bf4 <__register_frame_info@plt+0x140>
    2814:	e5d43040 	ldrb	r3, [r4, #64]	; 0x40
    2818:	e3130002 	tst	r3, #2
    281c:	0a00000b 	beq	2850 <__register_frame_info@plt+0x1d9c>
    2820:	e5d43041 	ldrb	r3, [r4, #65]	; 0x41
    2824:	e3130002 	tst	r3, #2
    2828:	1a000061 	bne	29b4 <__register_frame_info@plt+0x1f00>
    282c:	e59f020c 	ldr	r0, [pc, #524]	; 2a40 <__register_frame_info@plt+0x1f8c>
    2830:	e1a01006 	mov	r1, r6
    2834:	e0850000 	add	r0, r5, r0
[31m    2838:	ebfff864 	bl	9d0 <printf@plt>[0m
    283c:	e59f0200 	ldr	r0, [pc, #512]	; 2a44 <__register_frame_info@plt+0x1f90>
    2840:	e1d411b6 	ldrh	r1, [r4, #22]
    2844:	e0850000 	add	r0, r5, r0
[31m    2848:	ebfff860 	bl	9d0 <printf@plt>[0m
    284c:	e5d43040 	ldrb	r3, [r4, #64]	; 0x40
    2850:	e3130004 	tst	r3, #4
    2854:	0a00000b 	beq	2888 <__register_frame_info@plt+0x1dd4>
    2858:	e5d43041 	ldrb	r3, [r4, #65]	; 0x41
    285c:	e3130004 	tst	r3, #4
    2860:	1a000057 	bne	29c4 <__register_frame_info@plt+0x1f10>
    2864:	e59f01dc 	ldr	r0, [pc, #476]	; 2a48 <__register_frame_info@plt+0x1f94>
    2868:	e1a01006 	mov	r1, r6
    286c:	e0850000 	add	r0, r5, r0
[31m    2870:	ebfff856 	bl	9d0 <printf@plt>[0m
    2874:	e2840008 	add	r0, r4, #8
    2878:	e2841028 	add	r1, r4, #40	; 0x28
    287c:	e1a02007 	mov	r2, r7
    2880:	ebffffa6 	bl	2720 <__register_frame_info@plt+0x1c6c>
    2884:	e5d43040 	ldrb	r3, [r4, #64]	; 0x40
    2888:	e3130008 	tst	r3, #8
    288c:	0a00000b 	beq	28c0 <__register_frame_info@plt+0x1e0c>
    2890:	e5d43041 	ldrb	r3, [r4, #65]	; 0x41
    2894:	e3130008 	tst	r3, #8
    2898:	1a00004d 	bne	29d4 <__register_frame_info@plt+0x1f20>
    289c:	e59f01a8 	ldr	r0, [pc, #424]	; 2a4c <__register_frame_info@plt+0x1f98>
    28a0:	e1a01006 	mov	r1, r6
    28a4:	e0850000 	add	r0, r5, r0
[31m    28a8:	ebfff848 	bl	9d0 <printf@plt>[0m
    28ac:	e2840010 	add	r0, r4, #16
    28b0:	e2841030 	add	r1, r4, #48	; 0x30
    28b4:	e1a02007 	mov	r2, r7
    28b8:	ebffff98 	bl	2720 <__register_frame_info@plt+0x1c6c>
    28bc:	e5d43040 	ldrb	r3, [r4, #64]	; 0x40
    28c0:	e3130010 	tst	r3, #16
    28c4:	0a00000b 	beq	28f8 <__register_frame_info@plt+0x1e44>
    28c8:	e5d43041 	ldrb	r3, [r4, #65]	; 0x41
    28cc:	e3130010 	tst	r3, #16
    28d0:	1a000043 	bne	29e4 <__register_frame_info@plt+0x1f30>
    28d4:	e59f0174 	ldr	r0, [pc, #372]	; 2a50 <__register_frame_info@plt+0x1f9c>
    28d8:	e1a01006 	mov	r1, r6
    28dc:	e0850000 	add	r0, r5, r0
[31m    28e0:	ebfff83a 	bl	9d0 <printf@plt>[0m
    28e4:	e2840018 	add	r0, r4, #24
    28e8:	e284102c 	add	r1, r4, #44	; 0x2c
    28ec:	e1a02007 	mov	r2, r7
    28f0:	ebffff8a 	bl	2720 <__register_frame_info@plt+0x1c6c>
    28f4:	e5d43040 	ldrb	r3, [r4, #64]	; 0x40
    28f8:	e3130020 	tst	r3, #32
    28fc:	0a00000b 	beq	2930 <__register_frame_info@plt+0x1e7c>
    2900:	e5d43041 	ldrb	r3, [r4, #65]	; 0x41
    2904:	e3130020 	tst	r3, #32
    2908:	1a000039 	bne	29f4 <__register_frame_info@plt+0x1f40>
    290c:	e59f0140 	ldr	r0, [pc, #320]	; 2a54 <__register_frame_info@plt+0x1fa0>
    2910:	e1a01006 	mov	r1, r6
    2914:	e0850000 	add	r0, r5, r0
[31m    2918:	ebfff82c 	bl	9d0 <printf@plt>[0m
    291c:	e2840020 	add	r0, r4, #32
    2920:	e2841034 	add	r1, r4, #52	; 0x34
    2924:	e1a02007 	mov	r2, r7
    2928:	ebffff7c 	bl	2720 <__register_frame_info@plt+0x1c6c>
    292c:	e5d43040 	ldrb	r3, [r4, #64]	; 0x40
    2930:	e3130040 	tst	r3, #64	; 0x40
    2934:	0a000009 	beq	2960 <__register_frame_info@plt+0x1eac>
    2938:	e5d43041 	ldrb	r3, [r4, #65]	; 0x41
    293c:	e3130040 	tst	r3, #64	; 0x40
    2940:	1a00002f 	bne	2a04 <__register_frame_info@plt+0x1f50>
    2944:	e59f010c 	ldr	r0, [pc, #268]	; 2a58 <__register_frame_info@plt+0x1fa4>
    2948:	e1a01006 	mov	r1, r6
    294c:	e0850000 	add	r0, r5, r0
[31m    2950:	ebfff81e 	bl	9d0 <printf@plt>[0m
    2954:	e5940004 	ldr	r0, [r4, #4]
    2958:	ebfff90b 	bl	d8c <__register_frame_info@plt+0x2d8>
    295c:	e5d43040 	ldrb	r3, [r4, #64]	; 0x40
    2960:	e3130080 	tst	r3, #128	; 0x80
    2964:	08bd81f0 	popeq	{r4, r5, r6, r7, r8, pc}
    2968:	e1d434d1 	ldrsb	r3, [r4, #65]	; 0x41
    296c:	e3530000 	cmp	r3, #0
    2970:	ba00002c 	blt	2a28 <__register_frame_info@plt+0x1f74>
    2974:	e59f00e0 	ldr	r0, [pc, #224]	; 2a5c <__register_frame_info@plt+0x1fa8>
    2978:	e1a01006 	mov	r1, r6
    297c:	e0850000 	add	r0, r5, r0
[31m    2980:	ebfff812 	bl	9d0 <printf@plt>[0m
    2984:	e594203c 	ldr	r2, [r4, #60]	; 0x3c
    2988:	e5941038 	ldr	r1, [r4, #56]	; 0x38
    298c:	e1520001 	cmp	r2, r1
    2990:	0a00001f 	beq	2a14 <__register_frame_info@plt+0x1f60>
    2994:	e59f00c4 	ldr	r0, [pc, #196]	; 2a60 <__register_frame_info@plt+0x1fac>
    2998:	e0850000 	add	r0, r5, r0
[31m    299c:	ebfff80b 	bl	9d0 <printf@plt>[0m
    29a0:	e8bd81f0 	pop	{r4, r5, r6, r7, r8, pc}
    29a4:	e59f00b8 	ldr	r0, [pc, #184]	; 2a64 <__register_frame_info@plt+0x1fb0>
    29a8:	e0850000 	add	r0, r5, r0
[31m    29ac:	ebfff807 	bl	9d0 <printf@plt>[0m
    29b0:	eaffff91 	b	27fc <__register_frame_info@plt+0x1d48>
    29b4:	e59f00a8 	ldr	r0, [pc, #168]	; 2a64 <__register_frame_info@plt+0x1fb0>
    29b8:	e0850000 	add	r0, r5, r0
[31m    29bc:	ebfff803 	bl	9d0 <printf@plt>[0m
    29c0:	eaffff99 	b	282c <__register_frame_info@plt+0x1d78>
    29c4:	e59f0098 	ldr	r0, [pc, #152]	; 2a64 <__register_frame_info@plt+0x1fb0>
    29c8:	e0850000 	add	r0, r5, r0
[31m    29cc:	ebfff7ff 	bl	9d0 <printf@plt>[0m
    29d0:	eaffffa3 	b	2864 <__register_frame_info@plt+0x1db0>
    29d4:	e59f0088 	ldr	r0, [pc, #136]	; 2a64 <__register_frame_info@plt+0x1fb0>
    29d8:	e0850000 	add	r0, r5, r0
[31m    29dc:	ebfff7fb 	bl	9d0 <printf@plt>[0m
    29e0:	eaffffad 	b	289c <__register_frame_info@plt+0x1de8>
    29e4:	e59f0078 	ldr	r0, [pc, #120]	; 2a64 <__register_frame_info@plt+0x1fb0>
    29e8:	e0850000 	add	r0, r5, r0
[31m    29ec:	ebfff7f7 	bl	9d0 <printf@plt>[0m
    29f0:	eaffffb7 	b	28d4 <__register_frame_info@plt+0x1e20>
    29f4:	e59f0068 	ldr	r0, [pc, #104]	; 2a64 <__register_frame_info@plt+0x1fb0>
    29f8:	e0850000 	add	r0, r5, r0
[31m    29fc:	ebfff7f3 	bl	9d0 <printf@plt>[0m
    2a00:	eaffffc1 	b	290c <__register_frame_info@plt+0x1e58>
    2a04:	e59f0058 	ldr	r0, [pc, #88]	; 2a64 <__register_frame_info@plt+0x1fb0>
    2a08:	e0850000 	add	r0, r5, r0
[31m    2a0c:	ebfff7ef 	bl	9d0 <printf@plt>[0m
    2a10:	eaffffcb 	b	2944 <__register_frame_info@plt+0x1e90>
    2a14:	e59f004c 	ldr	r0, [pc, #76]	; 2a68 <__register_frame_info@plt+0x1fb4>
    2a18:	e1a01002 	mov	r1, r2
    2a1c:	e0850000 	add	r0, r5, r0
[31m    2a20:	ebfff7ea 	bl	9d0 <printf@plt>[0m
    2a24:	e8bd81f0 	pop	{r4, r5, r6, r7, r8, pc}
    2a28:	e59f0034 	ldr	r0, [pc, #52]	; 2a64 <__register_frame_info@plt+0x1fb0>
    2a2c:	e0850000 	add	r0, r5, r0
[31m    2a30:	ebfff7e6 	bl	9d0 <printf@plt>[0m
    2a34:	eaffffce 	b	2974 <__register_frame_info@plt+0x1ec0>
    2a38:	00009160 	andeq	r9, r0, r0, ror #2

[0m
[[0;33m*[0m] Function [0;33mprintf[0m used [0;33m54[0m times [0;33mlibxt_conntrack.so[0m

