[[0;33m*[0m] Binary protection state of [0;33mlibxt_policy.so.svn-base[0m
[REF] s12

  	RELRO          CANARY            NX           PIE       RPATH        RUNPATH      SYMBOLS      
  	[31mNo RELRO[0m       [31mNo Canary found[0m   [32mNX enabled[0m   [33mDSO[0m          [32mNo RPATH[0m     [32mNo RUNPATH[0m   [31mSymbols
	[31mNo RELRO[0m       [31mNo Canary found[0m   [32mNX enabled[0m   [33mDSO[0m          [32mNo RPATH[0m     [32mNo RUNPATH[0m   [32mNo Symbols[0m

[0m
[[0;33m*[0m] Function [0;33mprintf[0m tear down of [0;33mlibxt_policy.so.svn-base[0m

     960:	e1a04001 	mov	r4, r1
     964:	e5d1104a 	ldrb	r1, [r1, #74]	; 0x4a
     968:	e1a07003 	mov	r7, r3
     96c:	e1a06000 	mov	r6, r0
     970:	e1a08002 	mov	r8, r2
     974:	e59f52f0 	ldr	r5, [pc, #752]	; c6c <__register_frame_info@plt+0x594>
     978:	e2013020 	and	r3, r1, #32
     97c:	e6ef3073 	uxtb	r3, r3
     980:	e08f5005 	add	r5, pc, r5
     984:	e3530000 	cmp	r3, #0
     988:	0a00000a 	beq	9b8 <__register_frame_info@plt+0x2e0>
     98c:	e5d4304b 	ldrb	r3, [r4, #75]	; 0x4b
     990:	e2033020 	and	r3, r3, #32
     994:	e6ef3073 	uxtb	r3, r3
     998:	e3530000 	cmp	r3, #0
     99c:	1a000074 	bne	b74 <__register_frame_info@plt+0x49c>
     9a0:	e59f02c8 	ldr	r0, [pc, #712]	; c70 <__register_frame_info@plt+0x598>
     9a4:	e1a01006 	mov	r1, r6
     9a8:	e5942044 	ldr	r2, [r4, #68]	; 0x44
     9ac:	e0850000 	add	r0, r5, r0
[31m     9b0:	ebffff27 	bl	654 <printf@plt>[0m
     9b4:	e5d4104a 	ldrb	r1, [r4, #74]	; 0x4a
     9b8:	e2013010 	and	r3, r1, #16
     9bc:	e6ef3073 	uxtb	r3, r3
     9c0:	e3530000 	cmp	r3, #0
     9c4:	0a00000a 	beq	9f4 <__register_frame_info@plt+0x31c>
     9c8:	e5d4304b 	ldrb	r3, [r4, #75]	; 0x4b
     9cc:	e2033010 	and	r3, r3, #16
     9d0:	e6ef3073 	uxtb	r3, r3
     9d4:	e3530000 	cmp	r3, #0
     9d8:	1a000069 	bne	b84 <__register_frame_info@plt+0x4ac>
     9dc:	e59f0290 	ldr	r0, [pc, #656]	; c74 <__register_frame_info@plt+0x59c>
     9e0:	e1a01006 	mov	r1, r6
     9e4:	e5942040 	ldr	r2, [r4, #64]	; 0x40
     9e8:	e0850000 	add	r0, r5, r0
[31m     9ec:	ebffff18 	bl	654 <printf@plt>[0m
     9f0:	e5d4104a 	ldrb	r1, [r4, #74]	; 0x4a
     9f4:	e2013004 	and	r3, r1, #4
     9f8:	e6ef3073 	uxtb	r3, r3
     9fc:	e3530000 	cmp	r3, #0
     a00:	0a000010 	beq	a48 <__register_frame_info@plt+0x370>
     a04:	e5d4304b 	ldrb	r3, [r4, #75]	; 0x4b
     a08:	e2033004 	and	r3, r3, #4
     a0c:	e6ef3073 	uxtb	r3, r3
     a10:	e3530000 	cmp	r3, #0
     a14:	1a00005e 	bne	b94 <__register_frame_info@plt+0x4bc>
     a18:	e59f0258 	ldr	r0, [pc, #600]	; c78 <__register_frame_info@plt+0x5a0>
     a1c:	e1a01006 	mov	r1, r6
     a20:	e5d4a048 	ldrb	sl, [r4, #72]	; 0x48
     a24:	e0850000 	add	r0, r5, r0
[31m     a28:	ebffff09 	bl	654 <printf@plt>[0m
     a2c:	e3580000 	cmp	r8, #0
     a30:	0a000061 	beq	bbc <__register_frame_info@plt+0x4e4>
     a34:	e59f0240 	ldr	r0, [pc, #576]	; c7c <__register_frame_info@plt+0x5a4>
     a38:	e1a0100a 	mov	r1, sl
     a3c:	e0850000 	add	r0, r5, r0
[31m     a40:	ebffff03 	bl	654 <printf@plt>[0m
     a44:	e5d4104a 	ldrb	r1, [r4, #74]	; 0x4a
     a48:	e2013008 	and	r3, r1, #8
     a4c:	e6ef3073 	uxtb	r3, r3
     a50:	e3530000 	cmp	r3, #0
     a54:	0a00000f 	beq	a98 <__register_frame_info@plt+0x3c0>
     a58:	e5d4304b 	ldrb	r3, [r4, #75]	; 0x4b
     a5c:	e2033008 	and	r3, r3, #8
     a60:	e6ef3073 	uxtb	r3, r3
     a64:	e3530000 	cmp	r3, #0
     a68:	1a000063 	bne	bfc <__register_frame_info@plt+0x524>
     a6c:	e59f020c 	ldr	r0, [pc, #524]	; c80 <__register_frame_info@plt+0x5a8>
     a70:	e1a01006 	mov	r1, r6
     a74:	e5d48049 	ldrb	r8, [r4, #73]	; 0x49
     a78:	e0850000 	add	r0, r5, r0
[31m     a7c:	ebfffef4 	bl	654 <printf@plt>[0m
     a80:	e3580000 	cmp	r8, #0
     a84:	1a00002d 	bne	b40 <__register_frame_info@plt+0x468>
     a88:	e59f01f4 	ldr	r0, [pc, #500]	; c84 <__register_frame_info@plt+0x5ac>
     a8c:	e0850000 	add	r0, r5, r0
[31m     a90:	ebfffeef 	bl	654 <printf@plt>[0m
     a94:	e5d4104a 	ldrb	r1, [r4, #74]	; 0x4a
     a98:	e2013002 	and	r3, r1, #2
     a9c:	e6ef3073 	uxtb	r3, r3
     aa0:	e3530000 	cmp	r3, #0
     aa4:	0a000012 	beq	af4 <__register_frame_info@plt+0x41c>
     aa8:	e5d4304b 	ldrb	r3, [r4, #75]	; 0x4b
     aac:	e2033002 	and	r3, r3, #2
     ab0:	e6ef3073 	uxtb	r3, r3
     ab4:	e3530000 	cmp	r3, #0
     ab8:	1a000049 	bne	be4 <__register_frame_info@plt+0x50c>
     abc:	e357000a 	cmp	r7, #10
     ac0:	0a000058 	beq	c28 <__register_frame_info@plt+0x550>
     ac4:	e2840020 	add	r0, r4, #32
     ac8:	ebfffef0 	bl	690 <xtables_ipaddr_to_numeric@plt>
     acc:	e1a08000 	mov	r8, r0
     ad0:	e2840030 	add	r0, r4, #48	; 0x30
     ad4:	ebfffefc 	bl	6cc <xtables_ipmask_to_numeric@plt>
     ad8:	e1a03000 	mov	r3, r0
     adc:	e59f01a4 	ldr	r0, [pc, #420]	; c88 <__register_frame_info@plt+0x5b0>
     ae0:	e1a01006 	mov	r1, r6
     ae4:	e1a02008 	mov	r2, r8
     ae8:	e0850000 	add	r0, r5, r0
[31m     aec:	ebfffed8 	bl	654 <printf@plt>[0m
     af0:	e5d4104a 	ldrb	r1, [r4, #74]	; 0x4a
     af4:	e3110001 	tst	r1, #1
--
     b00:	e3130001 	tst	r3, #1
     b04:	1a000014 	bne	b5c <__register_frame_info@plt+0x484>
     b08:	e357000a 	cmp	r7, #10
     b0c:	0a00004b 	beq	c40 <__register_frame_info@plt+0x568>
     b10:	e1a00004 	mov	r0, r4
     b14:	ebfffedd 	bl	690 <xtables_ipaddr_to_numeric@plt>
     b18:	e1a07000 	mov	r7, r0
     b1c:	e2840010 	add	r0, r4, #16
     b20:	ebfffee9 	bl	6cc <xtables_ipmask_to_numeric@plt>
     b24:	e1a03000 	mov	r3, r0
     b28:	e59f015c 	ldr	r0, [pc, #348]	; c8c <__register_frame_info@plt+0x5b4>
     b2c:	e1a01006 	mov	r1, r6
     b30:	e1a02007 	mov	r2, r7
     b34:	e0850000 	add	r0, r5, r0
     b38:	e8bd47f0 	pop	{r4, r5, r6, r7, r8, r9, sl, lr}
[31m     b3c:	eafffec4 	b	654 <printf@plt>[0m
     b40:	e3580001 	cmp	r8, #1
     b44:	0a000043 	beq	c58 <__register_frame_info@plt+0x580>
     b48:	e59f0140 	ldr	r0, [pc, #320]	; c90 <__register_frame_info@plt+0x5b8>
     b4c:	e0850000 	add	r0, r5, r0
[31m     b50:	ebfffebf 	bl	654 <printf@plt>[0m
     b54:	e5d4104a 	ldrb	r1, [r4, #74]	; 0x4a
     b58:	eaffffce 	b	a98 <__register_frame_info@plt+0x3c0>
     b5c:	e59f0130 	ldr	r0, [pc, #304]	; c94 <__register_frame_info@plt+0x5bc>
     b60:	e0850000 	add	r0, r5, r0
[31m     b64:	ebfffeba 	bl	654 <printf@plt>[0m
     b68:	e357000a 	cmp	r7, #10
     b6c:	1affffe7 	bne	b10 <__register_frame_info@plt+0x438>
     b70:	ea000032 	b	c40 <__register_frame_info@plt+0x568>
     b74:	e59f0118 	ldr	r0, [pc, #280]	; c94 <__register_frame_info@plt+0x5bc>
     b78:	e0850000 	add	r0, r5, r0
[31m     b7c:	ebfffeb4 	bl	654 <printf@plt>[0m
     b80:	eaffff86 	b	9a0 <__register_frame_info@plt+0x2c8>
     b84:	e59f0108 	ldr	r0, [pc, #264]	; c94 <__register_frame_info@plt+0x5bc>
     b88:	e0850000 	add	r0, r5, r0
[31m     b8c:	ebfffeb0 	bl	654 <printf@plt>[0m
     b90:	eaffff91 	b	9dc <__register_frame_info@plt+0x304>
     b94:	e59f00f8 	ldr	r0, [pc, #248]	; c94 <__register_frame_info@plt+0x5bc>
     b98:	e0850000 	add	r0, r5, r0
[31m     b9c:	ebfffeac 	bl	654 <printf@plt>[0m
     ba0:	e59f00d0 	ldr	r0, [pc, #208]	; c78 <__register_frame_info@plt+0x5a0>
     ba4:	e1a01006 	mov	r1, r6
     ba8:	e5d4a048 	ldrb	sl, [r4, #72]	; 0x48
     bac:	e0850000 	add	r0, r5, r0
[31m     bb0:	ebfffea7 	bl	654 <printf@plt>[0m
     bb4:	e3580000 	cmp	r8, #0
     bb8:	1affff9d 	bne	a34 <__register_frame_info@plt+0x35c>
     bbc:	e1a0000a 	mov	r0, sl
     bc0:	ebfffea6 	bl	660 <getprotobynumber@plt>
     bc4:	e3500000 	cmp	r0, #0
     bc8:	0affff99 	beq	a34 <__register_frame_info@plt+0x35c>
     bcc:	e5901000 	ldr	r1, [r0]
     bd0:	e59f00c0 	ldr	r0, [pc, #192]	; c98 <__register_frame_info@plt+0x5c0>
     bd4:	e0850000 	add	r0, r5, r0
[31m     bd8:	ebfffe9d 	bl	654 <printf@plt>[0m
     bdc:	e5d4104a 	ldrb	r1, [r4, #74]	; 0x4a
     be0:	eaffff98 	b	a48 <__register_frame_info@plt+0x370>
     be4:	e59f00a8 	ldr	r0, [pc, #168]	; c94 <__register_frame_info@plt+0x5bc>
     be8:	e0850000 	add	r0, r5, r0
[31m     bec:	ebfffe98 	bl	654 <printf@plt>[0m
     bf0:	e357000a 	cmp	r7, #10
     bf4:	1affffb2 	bne	ac4 <__register_frame_info@plt+0x3ec>
     bf8:	ea00000a 	b	c28 <__register_frame_info@plt+0x550>
     bfc:	e59f0090 	ldr	r0, [pc, #144]	; c94 <__register_frame_info@plt+0x5bc>
     c00:	e0850000 	add	r0, r5, r0
[31m     c04:	ebfffe92 	bl	654 <printf@plt>[0m
     c08:	e59f0070 	ldr	r0, [pc, #112]	; c80 <__register_frame_info@plt+0x5a8>
     c0c:	e1a01006 	mov	r1, r6
     c10:	e5d48049 	ldrb	r8, [r4, #73]	; 0x49
     c14:	e0850000 	add	r0, r5, r0
[31m     c18:	ebfffe8d 	bl	654 <printf@plt>[0m
     c1c:	e3580000 	cmp	r8, #0
     c20:	0affff98 	beq	a88 <__register_frame_info@plt+0x3b0>
     c24:	eaffffc5 	b	b40 <__register_frame_info@plt+0x468>
     c28:	e2840020 	add	r0, r4, #32
     c2c:	ebfffe94 	bl	684 <xtables_ip6addr_to_numeric@plt>
     c30:	e1a08000 	mov	r8, r0
     c34:	e2840030 	add	r0, r4, #48	; 0x30
     c38:	ebfffe82 	bl	648 <xtables_ip6mask_to_numeric@plt>
     c3c:	eaffffa5 	b	ad8 <__register_frame_info@plt+0x400>
     c40:	e1a00004 	mov	r0, r4
     c44:	ebfffe8e 	bl	684 <xtables_ip6addr_to_numeric@plt>
     c48:	e1a07000 	mov	r7, r0
     c4c:	e2840010 	add	r0, r4, #16
     c50:	ebfffe7c 	bl	648 <xtables_ip6mask_to_numeric@plt>
     c54:	eaffffb2 	b	b24 <__register_frame_info@plt+0x44c>
     c58:	e59f003c 	ldr	r0, [pc, #60]	; c9c <__register_frame_info@plt+0x5c4>
     c5c:	e0850000 	add	r0, r5, r0
[31m     c60:	ebfffe7b 	bl	654 <printf@plt>[0m
     c64:	e5d4104a 	ldrb	r1, [r4, #74]	; 0x4a
     c68:	eaffff8a 	b	a98 <__register_frame_info@plt+0x3c0>
--
    11c4:	ffff7994 			; <UNDEFINED> instruction: 0xffff7994
    11c8:	ffff7918 			; <UNDEFINED> instruction: 0xffff7918
    11cc:	e59f300c 	ldr	r3, [pc, #12]	; 11e0 <__register_frame_info@plt+0xb08>
    11d0:	e59f000c 	ldr	r0, [pc, #12]	; 11e4 <__register_frame_info@plt+0xb0c>
    11d4:	e08f3003 	add	r3, pc, r3
    11d8:	e0830000 	add	r0, r3, r0
    11dc:	eafffd22 	b	66c <puts@plt>
    11e0:	00008cbc 			; <UNDEFINED> instruction: 0x00008cbc
    11e4:	ffff7a58 			; <UNDEFINED> instruction: 0xffff7a58
    11e8:	e92d4070 	push	{r4, r5, r6, lr}
    11ec:	e1a05001 	mov	r5, r1
    11f0:	e1d130b0 	ldrh	r3, [r1]
    11f4:	e1a06000 	mov	r6, r0
    11f8:	e59f4090 	ldr	r4, [pc, #144]	; 1290 <__register_frame_info@plt+0xbb8>
    11fc:	e3130001 	tst	r3, #1
    1200:	e08f4004 	add	r4, pc, r4
    1204:	0a000012 	beq	1254 <__register_frame_info@plt+0xb7c>
    1208:	e1a01000 	mov	r1, r0
    120c:	e59f0080 	ldr	r0, [pc, #128]	; 1294 <__register_frame_info@plt+0xbbc>
    1210:	e0840000 	add	r0, r4, r0
[31m    1214:	ebfffd0e 	bl	654 <printf@plt>[0m
    1218:	e1d530b0 	ldrh	r3, [r5]
    121c:	e3130004 	tst	r3, #4
    1220:	0a000012 	beq	1270 <__register_frame_info@plt+0xb98>
    1224:	e59f006c 	ldr	r0, [pc, #108]	; 1298 <__register_frame_info@plt+0xbc0>
    1228:	e1a01006 	mov	r1, r6
    122c:	e0840000 	add	r0, r4, r0
[31m    1230:	ebfffd07 	bl	654 <printf@plt>[0m
    1234:	e1d530b0 	ldrh	r3, [r5]
    1238:	e3130008 	tst	r3, #8
    123c:	08bd8070 	popeq	{r4, r5, r6, pc}
    1240:	e59f0054 	ldr	r0, [pc, #84]	; 129c <__register_frame_info@plt+0xbc4>
    1244:	e1a01006 	mov	r1, r6
    1248:	e0840000 	add	r0, r4, r0
    124c:	e8bd4070 	pop	{r4, r5, r6, lr}
[31m    1250:	eafffcff 	b	654 <printf@plt>[0m
    1254:	e1a01000 	mov	r1, r0
    1258:	e59f0040 	ldr	r0, [pc, #64]	; 12a0 <__register_frame_info@plt+0xbc8>
    125c:	e0840000 	add	r0, r4, r0
[31m    1260:	ebfffcfb 	bl	654 <printf@plt>[0m
    1264:	e1d530b0 	ldrh	r3, [r5]
    1268:	e3130004 	tst	r3, #4
    126c:	1affffec 	bne	1224 <__register_frame_info@plt+0xb4c>
    1270:	e59f002c 	ldr	r0, [pc, #44]	; 12a4 <__register_frame_info@plt+0xbcc>
    1274:	e1a01006 	mov	r1, r6
    1278:	e0840000 	add	r0, r4, r0
[31m    127c:	ebfffcf4 	bl	654 <printf@plt>[0m
    1280:	e1d530b0 	ldrh	r3, [r5]
    1284:	e3130008 	tst	r3, #8
--
    12c8:	e08fa00a 	add	sl, pc, sl
    12cc:	e3a0704c 	mov	r7, #76	; 0x4c
    12d0:	e08a8008 	add	r8, sl, r8
    12d4:	e1a00008 	mov	r0, r8
    12d8:	ebffffc2 	bl	11e8 <__register_frame_info@plt+0xb10>
    12dc:	e59f304c 	ldr	r3, [pc, #76]	; 1330 <__register_frame_info@plt+0xc58>
    12e0:	e195c0b6 	ldrh	ip, [r5, r6]
    12e4:	e08aa003 	add	sl, sl, r3
    12e8:	e154000c 	cmp	r4, ip
    12ec:	e1a00008 	mov	r0, r8
    12f0:	e0215497 	mla	r1, r7, r4, r5
    12f4:	e3a02000 	mov	r2, #0
    12f8:	e3a0300a 	mov	r3, #10
    12fc:	e2844001 	add	r4, r4, #1
    1300:	2a000007 	bcs	1324 <__register_frame_info@plt+0xc4c>
    1304:	ebfffd94 	bl	95c <__register_frame_info@plt+0x284>
    1308:	e195c0b6 	ldrh	ip, [r5, r6]
    130c:	e154000c 	cmp	r4, ip
    1310:	28bd85f8 	popcs	{r3, r4, r5, r6, r7, r8, sl, pc}
    1314:	e1a0000a 	mov	r0, sl
[31m    1318:	ebfffccd 	bl	654 <printf@plt>[0m
    131c:	e195c0b6 	ldrh	ip, [r5, r6]
    1320:	eafffff0 	b	12e8 <__register_frame_info@plt+0xc10>
    1324:	e8bd85f8 	pop	{r3, r4, r5, r6, r7, r8, sl, pc}
    1328:	00008bc8 	andeq	r8, r0, r8, asr #23
    132c:	ffff7cf4 			; <UNDEFINED> instruction: 0xffff7cf4
    1330:	ffff7cf8 			; <UNDEFINED> instruction: 0xffff7cf8
    1334:	e92d47f0 	push	{r4, r5, r6, r7, r8, r9, sl, lr}
    1338:	e1a04001 	mov	r4, r1
    133c:	e59f908c 	ldr	r9, [pc, #140]	; 13d0 <__register_frame_info@plt+0xcf8>
    1340:	e2815020 	add	r5, r1, #32
    1344:	e1a07002 	mov	r7, r2
    1348:	e300a132 	movw	sl, #306	; 0x132
    134c:	e59f0080 	ldr	r0, [pc, #128]	; 13d4 <__register_frame_info@plt+0xcfc>
    1350:	e59f6080 	ldr	r6, [pc, #128]	; 13d8 <__register_frame_info@plt+0xd00>
    1354:	e08f9009 	add	r9, pc, r9
    1358:	e0890000 	add	r0, r9, r0
    135c:	e0896006 	add	r6, r9, r6
[31m    1360:	ebfffcbb 	bl	654 <printf@plt>[0m
    1364:	e2841e15 	add	r1, r4, #336	; 0x150
    1368:	e1a00006 	mov	r0, r6
    136c:	ebffff9d 	bl	11e8 <__register_frame_info@plt+0xb10>
    1370:	e19530ba 	ldrh	r3, [r5, sl]
    1374:	e3530000 	cmp	r3, #0
    1378:	08bd87f0 	popeq	{r4, r5, r6, r7, r8, r9, sl, pc}
    137c:	e59f2058 	ldr	r2, [pc, #88]	; 13dc <__register_frame_info@plt+0xd04>
    1380:	e2577000 	subs	r7, r7, #0
    1384:	13a07001 	movne	r7, #1
    1388:	e3a04000 	mov	r4, #0
    138c:	e3a0804c 	mov	r8, #76	; 0x4c
    1390:	e0899002 	add	r9, r9, r2
    1394:	e3530001 	cmp	r3, #1
    1398:	e1a01004 	mov	r1, r4
    139c:	e1a00009 	mov	r0, r9
    13a0:	9a000000 	bls	13a8 <__register_frame_info@plt+0xcd0>
[31m    13a4:	ebfffcaa 	bl	654 <printf@plt>[0m
    13a8:	e0215498 	mla	r1, r8, r4, r5
    13ac:	e3a0300a 	mov	r3, #10
--
    1400:	e08fa00a 	add	sl, pc, sl
    1404:	e3a0704c 	mov	r7, #76	; 0x4c
    1408:	e08a8008 	add	r8, sl, r8
    140c:	e1a00008 	mov	r0, r8
    1410:	ebffff74 	bl	11e8 <__register_frame_info@plt+0xb10>
    1414:	e59f304c 	ldr	r3, [pc, #76]	; 1468 <__register_frame_info@plt+0xd90>
    1418:	e195c0b6 	ldrh	ip, [r5, r6]
    141c:	e08aa003 	add	sl, sl, r3
    1420:	e154000c 	cmp	r4, ip
    1424:	e1a00008 	mov	r0, r8
    1428:	e0215497 	mla	r1, r7, r4, r5
    142c:	e3a02000 	mov	r2, #0
    1430:	e3a03002 	mov	r3, #2
    1434:	e2844001 	add	r4, r4, #1
    1438:	2a000007 	bcs	145c <__register_frame_info@plt+0xd84>
    143c:	ebfffd46 	bl	95c <__register_frame_info@plt+0x284>
    1440:	e195c0b6 	ldrh	ip, [r5, r6]
    1444:	e154000c 	cmp	r4, ip
    1448:	28bd85f8 	popcs	{r3, r4, r5, r6, r7, r8, sl, pc}
    144c:	e1a0000a 	mov	r0, sl
[31m    1450:	ebfffc7f 	bl	654 <printf@plt>[0m
    1454:	e195c0b6 	ldrh	ip, [r5, r6]
    1458:	eafffff0 	b	1420 <__register_frame_info@plt+0xd48>
    145c:	e8bd85f8 	pop	{r3, r4, r5, r6, r7, r8, sl, pc}
    1460:	00008a90 	muleq	r0, r0, sl
    1464:	ffff7cf4 			; <UNDEFINED> instruction: 0xffff7cf4
    1468:	ffff7cf8 			; <UNDEFINED> instruction: 0xffff7cf8
    146c:	e92d47f0 	push	{r4, r5, r6, r7, r8, r9, sl, lr}
    1470:	e1a04001 	mov	r4, r1
    1474:	e59f908c 	ldr	r9, [pc, #140]	; 1508 <__register_frame_info@plt+0xe30>
    1478:	e2815020 	add	r5, r1, #32
    147c:	e1a07002 	mov	r7, r2
    1480:	e300a132 	movw	sl, #306	; 0x132
    1484:	e59f0080 	ldr	r0, [pc, #128]	; 150c <__register_frame_info@plt+0xe34>
    1488:	e59f6080 	ldr	r6, [pc, #128]	; 1510 <__register_frame_info@plt+0xe38>
    148c:	e08f9009 	add	r9, pc, r9
    1490:	e0890000 	add	r0, r9, r0
    1494:	e0896006 	add	r6, r9, r6
[31m    1498:	ebfffc6d 	bl	654 <printf@plt>[0m
    149c:	e2841e15 	add	r1, r4, #336	; 0x150
    14a0:	e1a00006 	mov	r0, r6
    14a4:	ebffff4f 	bl	11e8 <__register_frame_info@plt+0xb10>
    14a8:	e19530ba 	ldrh	r3, [r5, sl]
    14ac:	e3530000 	cmp	r3, #0
    14b0:	08bd87f0 	popeq	{r4, r5, r6, r7, r8, r9, sl, pc}
    14b4:	e59f2058 	ldr	r2, [pc, #88]	; 1514 <__register_frame_info@plt+0xe3c>
    14b8:	e2577000 	subs	r7, r7, #0
    14bc:	13a07001 	movne	r7, #1
    14c0:	e3a04000 	mov	r4, #0
    14c4:	e3a0804c 	mov	r8, #76	; 0x4c
    14c8:	e0899002 	add	r9, r9, r2
    14cc:	e3530001 	cmp	r3, #1
    14d0:	e1a01004 	mov	r1, r4
    14d4:	e1a00009 	mov	r0, r9
    14d8:	9a000000 	bls	14e0 <__register_frame_info@plt+0xe08>
[31m    14dc:	ebfffc5c 	bl	654 <printf@plt>[0m
    14e0:	e0215498 	mla	r1, r8, r4, r5
    14e4:	e3a03002 	mov	r3, #2

[0m
[[0;33m*[0m] Function [0;33mprintf[0m used [0;33m28[0m times [0;33mlibxt_policy.so.svn-base[0m

