
  	RELRO          CANARY            NX           PIE       RPATH        RUNPATH      SYMBOLS      
  	[31mNo RELRO[0m       [31mNo Canary found[0m   [32mNX enabled[0m   [31mNo PIE[0m       [31mRPATH[0m        [32mNo RUNPATH[0m   [31mSymbols[0m

[0m
[[0;33m*[0m] Function [0;33mfprintf[0m tear down of [0;33mxtables-multi[0m

    b3b0:	3afffffa 	bcc	b3a0 <iptables_xml_main+0x45c>
    b3b4:	e59909d4 	ldr	r0, [r9, #2516]	; 0x9d4
    b3b8:	e58969d4 	str	r6, [r9, #2516]	; 0x9d4
    b3bc:	e3500000 	cmp	r0, #0
    b3c0:	e58909d8 	str	r0, [r9, #2520]	; 0x9d8
    b3c4:	0affff11 	beq	b010 <iptables_xml_main+0xcc>
    b3c8:	e59f3658 	ldr	r3, [pc, #1624]	; ba28 <iptables_xml_main+0xae4>
    b3cc:	e2832b01 	add	r2, r3, #1024	; 0x400
    b3d0:	e0830100 	add	r0, r3, r0, lsl #2
    b3d4:	e2822008 	add	r2, r2, #8
    b3d8:	e5931000 	ldr	r1, [r3]
    b3dc:	e4836004 	str	r6, [r3], #4
    b3e0:	e1530000 	cmp	r3, r0
    b3e4:	e5a21004 	str	r1, [r2, #4]!
    b3e8:	1afffffa 	bne	b3d8 <iptables_xml_main+0x494>
    b3ec:	eaffff07 	b	b010 <iptables_xml_main+0xcc>
    b3f0:	e59f3634 	ldr	r3, [pc, #1588]	; ba2c <iptables_xml_main+0xae8>
    b3f4:	e59f1634 	ldr	r1, [pc, #1588]	; ba30 <iptables_xml_main+0xaec>
    b3f8:	e59f2634 	ldr	r2, [pc, #1588]	; ba34 <iptables_xml_main+0xaf0>
    b3fc:	e5930000 	ldr	r0, [r3]
[31m    b400:	ebfffb52 	bl	a150 <fprintf@plt>[0m
    b404:	e3a00001 	mov	r0, #1
    b408:	ebfffb68 	bl	a1b0 <exit@plt>
--
    b418:	eafffed7 	b	af7c <iptables_xml_main+0x38>
    b41c:	e3580000 	cmp	r8, #0
    b420:	0a000004 	beq	b438 <iptables_xml_main+0x4f4>
    b424:	e5543001 	ldrb	r3, [r4, #-1]
    b428:	e353005c 	cmp	r3, #92	; 0x5c
    b42c:	13a0c020 	movne	ip, #32
    b430:	15c4c000 	strbne	ip, [r4]
    b434:	1affff3e 	bne	b134 <iptables_xml_main+0x1f0>
    b438:	e3a0b001 	mov	fp, #1
    b43c:	e085500b 	add	r5, r5, fp
    b440:	e1a0800b 	mov	r8, fp
    b444:	eaffff33 	b	b118 <iptables_xml_main+0x1d4>
    b448:	e59f35dc 	ldr	r3, [pc, #1500]	; ba2c <iptables_xml_main+0xae8>
    b44c:	e301e99c 	movw	lr, #6556	; 0x199c
    b450:	e340e002 	movt	lr, #2
    b454:	e59f15e0 	ldr	r1, [pc, #1504]	; ba3c <iptables_xml_main+0xaf8>
    b458:	e5930000 	ldr	r0, [r3]
    b45c:	e59f3568 	ldr	r3, [pc, #1384]	; b9cc <iptables_xml_main+0xa88>
    b460:	e5932004 	ldr	r2, [r3, #4]
    b464:	e59e3000 	ldr	r3, [lr]
[31m    b468:	ebfffb38 	bl	a150 <fprintf@plt>[0m
    b46c:	e3a00001 	mov	r0, #1
    b470:	ebfffb4e 	bl	a1b0 <exit@plt>
--
    b86c:	e59f0220 	ldr	r0, [pc, #544]	; ba94 <iptables_xml_main+0xb50>
    b870:	ebfffb55 	bl	a5cc <xmlComment>
    b874:	eafffeb7 	b	b358 <iptables_xml_main+0x414>
    b878:	e7950102 	ldr	r0, [r5, r2, lsl #2]
    b87c:	e59f1214 	ldr	r1, [pc, #532]	; ba98 <iptables_xml_main+0xb54>
    b880:	ebfff99f 	bl	9f04 <fopen64@plt>
    b884:	e3500000 	cmp	r0, #0
    b888:	e58d0010 	str	r0, [sp, #16]
    b88c:	1afffdda 	bne	affc <iptables_xml_main+0xb8>
    b890:	e5963000 	ldr	r3, [r6]
    b894:	e7954103 	ldr	r4, [r5, r3, lsl #2]
    b898:	e59f318c 	ldr	r3, [pc, #396]	; ba2c <iptables_xml_main+0xae8>
    b89c:	e5935000 	ldr	r5, [r3]
    b8a0:	ebfff946 	bl	9dc0 <__errno_location@plt>
    b8a4:	e5900000 	ldr	r0, [r0]
    b8a8:	ebfffa64 	bl	a240 <strerror@plt>
    b8ac:	e59f11e8 	ldr	r1, [pc, #488]	; ba9c <iptables_xml_main+0xb58>
    b8b0:	e1a03000 	mov	r3, r0
    b8b4:	e1a02004 	mov	r2, r4
    b8b8:	e1a00005 	mov	r0, r5
[31m    b8bc:	ebfffa23 	bl	a150 <fprintf@plt>[0m
    b8c0:	e3a00001 	mov	r0, #1
    b8c4:	ebfffa39 	bl	a1b0 <exit@plt>
    b8c8:	e59f215c 	ldr	r2, [pc, #348]	; ba2c <iptables_xml_main+0xae8>
    b8cc:	e301c99c 	movw	ip, #6556	; 0x199c
    b8d0:	e340c002 	movt	ip, #2
    b8d4:	e59f11c4 	ldr	r1, [pc, #452]	; baa0 <iptables_xml_main+0xb5c>
    b8d8:	e59c3000 	ldr	r3, [ip]
    b8dc:	e5920000 	ldr	r0, [r2]
    b8e0:	e59f20e4 	ldr	r2, [pc, #228]	; b9cc <iptables_xml_main+0xa88>
    b8e4:	e2833001 	add	r3, r3, #1
    b8e8:	e5922004 	ldr	r2, [r2, #4]
[31m    b8ec:	ebfffa17 	bl	a150 <fprintf@plt>[0m
    b8f0:	e3a00001 	mov	r0, #1
    b8f4:	ebfffa2d 	bl	a1b0 <exit@plt>
--
    bedc:	e2700001 	rsbs	r0, r0, #1
    bee0:	33a00000 	movcc	r0, #0
    bee4:	e28dd00c 	add	sp, sp, #12
    bee8:	e8bd8ff0 	pop	{r4, r5, r6, r7, r8, r9, sl, fp, pc}
    beec:	e1a00007 	mov	r0, r7
    bef0:	ebfffef3 	bl	bac4 <do_output>
    bef4:	e3a00000 	mov	r0, #0
    bef8:	ebfff8ac 	bl	a1b0 <exit@plt>
    befc:	e58a9004 	str	r9, [sl, #4]
    bf00:	eaffffb2 	b	bdd0 <iptables_save_main+0x48>
    bf04:	e58a9000 	str	r9, [sl]
    bf08:	eaffffb0 	b	bdd0 <iptables_save_main+0x48>
    bf0c:	e5983000 	ldr	r3, [r8]
    bf10:	e58b3000 	str	r3, [fp]
    bf14:	eaffffad 	b	bdd0 <iptables_save_main+0x48>
    bf18:	e59f3058 	ldr	r3, [pc, #88]	; bf78 <iptables_save_main+0x1f0>
    bf1c:	e59f1058 	ldr	r1, [pc, #88]	; bf7c <iptables_save_main+0x1f4>
    bf20:	e5952004 	ldr	r2, [r5, #4]
    bf24:	e5930000 	ldr	r0, [r3]
    bf28:	e5953008 	ldr	r3, [r5, #8]
[31m    bf2c:	ebfff887 	bl	a150 <fprintf@plt>[0m
    bf30:	e3a00001 	mov	r0, #1
    bf34:	ebfff89d 	bl	a1b0 <exit@plt>
--
    c208:	13a08001 	movne	r8, #1
    c20c:	13a06000 	movne	r6, #0
    c210:	0a00011d 	beq	c68c <iptables_restore_main+0x6a4>
    c214:	e3570000 	cmp	r7, #0
    c218:	0a000005 	beq	c234 <iptables_restore_main+0x24c>
    c21c:	e28d1b0b 	add	r1, sp, #11264	; 0x2c00
    c220:	e1a00007 	mov	r0, r7
    c224:	e2811024 	add	r1, r1, #36	; 0x24
    c228:	ebfff7e6 	bl	a1c8 <strcmp@plt>
    c22c:	e3500000 	cmp	r0, #0
    c230:	1affffd5 	bne	c18c <iptables_restore_main+0x1a4>
    c234:	e3580000 	cmp	r8, #0
    c238:	1affffd3 	bne	c18c <iptables_restore_main+0x1a4>
    c23c:	e59f38d0 	ldr	r3, [pc, #2256]	; cb14 <iptables_restore_main+0xb2c>
    c240:	e301c458 	movw	ip, #5208	; 0x1458
    c244:	e340c002 	movt	ip, #2
    c248:	e59f18c8 	ldr	r1, [pc, #2248]	; cb18 <iptables_restore_main+0xb30>
    c24c:	e59c2004 	ldr	r2, [ip, #4]
    c250:	e5930000 	ldr	r0, [r3]
    c254:	e5943000 	ldr	r3, [r4]
[31m    c258:	ebfff7bc 	bl	a150 <fprintf@plt>[0m
    c25c:	e3a00001 	mov	r0, #1
    c260:	ebfff7d2 	bl	a1b0 <exit@plt>
    c264:	e3a00001 	mov	r0, #1
    c268:	e58d0014 	str	r0, [sp, #20]
    c26c:	eaffff75 	b	c048 <iptables_restore_main+0x60>
    c270:	e58a840c 	str	r8, [sl, #1036]	; 0x40c
    c274:	eaffff73 	b	c048 <iptables_restore_main+0x60>
    c278:	e59f3894 	ldr	r3, [pc, #2196]	; cb14 <iptables_restore_main+0xb2c>
    c27c:	e59f1898 	ldr	r1, [pc, #2200]	; cb1c <iptables_restore_main+0xb34>
    c280:	e59f2864 	ldr	r2, [pc, #2148]	; caec <iptables_restore_main+0xb04>
    c284:	e5930000 	ldr	r0, [r3]
[31m    c288:	ebfff7b0 	bl	a150 <fprintf@plt>[0m
    c28c:	e3a00001 	mov	r0, #1
    c290:	ebfff7c6 	bl	a1b0 <exit@plt>
--
    c910:	e12fff3c 	blx	ip
    c914:	e59d1010 	ldr	r1, [sp, #16]
    c918:	e7910102 	ldr	r0, [r1, r2, lsl #2]
    c91c:	e59f1244 	ldr	r1, [pc, #580]	; cb68 <iptables_restore_main+0xb80>
    c920:	ebfff577 	bl	9f04 <fopen64@plt>
    c924:	e3500000 	cmp	r0, #0
    c928:	e58d000c 	str	r0, [sp, #12]
    c92c:	1afffe0e 	bne	c16c <iptables_restore_main+0x184>
    c930:	e59d2010 	ldr	r2, [sp, #16]
    c934:	e5963000 	ldr	r3, [r6]
    c938:	e7924103 	ldr	r4, [r2, r3, lsl #2]
    c93c:	e59f31d0 	ldr	r3, [pc, #464]	; cb14 <iptables_restore_main+0xb2c>
    c940:	e5935000 	ldr	r5, [r3]
    c944:	ebfff51d 	bl	9dc0 <__errno_location@plt>
    c948:	e5900000 	ldr	r0, [r0]
    c94c:	ebfff63b 	bl	a240 <strerror@plt>
    c950:	e59f1214 	ldr	r1, [pc, #532]	; cb6c <iptables_restore_main+0xb84>
    c954:	e1a03000 	mov	r3, r0
    c958:	e1a02004 	mov	r2, r4
    c95c:	e1a00005 	mov	r0, r5
[31m    c960:	ebfff5fa 	bl	a150 <fprintf@plt>[0m
    c964:	e3a00001 	mov	r0, #1
    c968:	ebfff610 	bl	a1b0 <exit@plt>
--
    c9dc:	e5933000 	ldr	r3, [r3]
    c9e0:	e5934014 	ldr	r4, [r3, #20]
    c9e4:	ebfff4f5 	bl	9dc0 <__errno_location@plt>
    c9e8:	e5900000 	ldr	r0, [r0]
    c9ec:	ebfff631 	bl	a2b8 <iptc_strerror@plt>
    c9f0:	e58d5000 	str	r5, [sp]
    c9f4:	e1a0200a 	mov	r2, sl
    c9f8:	e58d0004 	str	r0, [sp, #4]
    c9fc:	e1a03008 	mov	r3, r8
    ca00:	e3a00001 	mov	r0, #1
    ca04:	e59f1178 	ldr	r1, [pc, #376]	; cb84 <iptables_restore_main+0xb9c>
    ca08:	e12fff34 	blx	r4
    ca0c:	e3010458 	movw	r0, #5208	; 0x1458
    ca10:	e5943000 	ldr	r3, [r4]
    ca14:	e3400002 	movt	r0, #2
    ca18:	e59f1168 	ldr	r1, [pc, #360]	; cb88 <iptables_restore_main+0xba0>
    ca1c:	e5902004 	ldr	r2, [r0, #4]
    ca20:	e59f00ec 	ldr	r0, [pc, #236]	; cb14 <iptables_restore_main+0xb2c>
    ca24:	e2833001 	add	r3, r3, #1
    ca28:	e5900000 	ldr	r0, [r0]
[31m    ca2c:	ebfff5c7 	bl	a150 <fprintf@plt>[0m
    ca30:	e3a00001 	mov	r0, #1
    ca34:	ebfff5dd 	bl	a1b0 <exit@plt>
    ca38:	e3013458 	movw	r3, #5208	; 0x1458
    ca3c:	e301c458 	movw	ip, #5208	; 0x1458
    ca40:	e3403002 	movt	r3, #2
    ca44:	e340c002 	movt	ip, #2
    ca48:	e5932004 	ldr	r2, [r3, #4]
    ca4c:	e59f30c0 	ldr	r3, [pc, #192]	; cb14 <iptables_restore_main+0xb2c>
    ca50:	e59f1134 	ldr	r1, [pc, #308]	; cb8c <iptables_restore_main+0xba4>
    ca54:	e5930000 	ldr	r0, [r3]
    ca58:	e59c3008 	ldr	r3, [ip, #8]
[31m    ca5c:	ebfff5bb 	bl	a150 <fprintf@plt>[0m
    ca60:	e3a00001 	mov	r0, #1
    ca64:	ebfff5d1 	bl	a1b0 <exit@plt>
--
    cbd4:	e3500000 	cmp	r0, #0
    cbd8:	ba000019 	blt	cc44 <iptables_main+0xa8>
    cbdc:	e1a00006 	mov	r0, r6
    cbe0:	e1a01005 	mov	r1, r5
    cbe4:	e28d2004 	add	r2, sp, #4
    cbe8:	e1a0300d 	mov	r3, sp
    cbec:	eb0004f6 	bl	dfcc <do_command4>
    cbf0:	e3500000 	cmp	r0, #0
    cbf4:	1a00001a 	bne	cc64 <iptables_main+0xc8>
    cbf8:	ebfff470 	bl	9dc0 <__errno_location@plt>
    cbfc:	e1a04000 	mov	r4, r0
    cc00:	e5900000 	ldr	r0, [r0]
    cc04:	e3500016 	cmp	r0, #22
    cc08:	0a00001d 	beq	cc84 <iptables_main+0xe8>
    cc0c:	e59f30a4 	ldr	r3, [pc, #164]	; ccb8 <iptables_main+0x11c>
    cc10:	e5935000 	ldr	r5, [r3]
    cc14:	ebfff5a7 	bl	a2b8 <iptc_strerror@plt>
    cc18:	e59f109c 	ldr	r1, [pc, #156]	; ccbc <iptables_main+0x120>
    cc1c:	e1a02000 	mov	r2, r0
    cc20:	e1a00005 	mov	r0, r5
[31m    cc24:	ebfff549 	bl	a150 <fprintf@plt>[0m
    cc28:	e5943000 	ldr	r3, [r4]
    cc2c:	e353000b 	cmp	r3, #11
    cc30:	13a04000 	movne	r4, #0
    cc34:	0a00001a 	beq	cca4 <iptables_main+0x108>
    cc38:	e2740001 	rsbs	r0, r4, #1
    cc3c:	33a00000 	movcc	r0, #0
    cc40:	ebfff55a 	bl	a1b0 <exit@plt>
    cc44:	e59f306c 	ldr	r3, [pc, #108]	; ccb8 <iptables_main+0x11c>
    cc48:	e59f1070 	ldr	r1, [pc, #112]	; ccc0 <iptables_main+0x124>
    cc4c:	e5942004 	ldr	r2, [r4, #4]
    cc50:	e5930000 	ldr	r0, [r3]
    cc54:	e5943008 	ldr	r3, [r4, #8]
[31m    cc58:	ebfff53c 	bl	a150 <fprintf@plt>[0m
    cc5c:	e3a00001 	mov	r0, #1
    cc60:	ebfff552 	bl	a1b0 <exit@plt>
    cc64:	e59d0000 	ldr	r0, [sp]
    cc68:	ebfff457 	bl	9dcc <iptc_commit@plt>
    cc6c:	e1a04000 	mov	r4, r0
    cc70:	e59d0000 	ldr	r0, [sp]
    cc74:	ebfff56b 	bl	a228 <iptc_free@plt>
    cc78:	e3540000 	cmp	r4, #0
    cc7c:	1affffed 	bne	cc38 <iptables_main+0x9c>
    cc80:	eaffffdc 	b	cbf8 <iptables_main+0x5c>
    cc84:	e59f302c 	ldr	r3, [pc, #44]	; ccb8 <iptables_main+0x11c>
    cc88:	e5935000 	ldr	r5, [r3]
    cc8c:	ebfff589 	bl	a2b8 <iptc_strerror@plt>
    cc90:	e59f102c 	ldr	r1, [pc, #44]	; ccc4 <iptables_main+0x128>
    cc94:	e1a02000 	mov	r2, r0
    cc98:	e1a00005 	mov	r0, r5
[31m    cc9c:	ebfff52b 	bl	a150 <fprintf@plt>[0m
    cca0:	eaffffe0 	b	cc28 <iptables_main+0x8c>
    cca4:	e3a00004 	mov	r0, #4
--
    d00c:	00016ed4 	.word	0x00016ed4
    d010:	00016ecc 	.word	0x00016ecc
    d014:	00016ef4 	.word	0x00016ef4
    d018:	00016eec 	.word	0x00016eec
    d01c:	00016ec4 	.word	0x00016ec4
    d020:	00016ebc 	.word	0x00016ebc
    d024:	00016ee4 	.word	0x00016ee4
    d028:	00016edc 	.word	0x00016edc

0000d02c <exit_tryhelp>:
    d02c:	e92d4008 	push	{r3, lr}
    d030:	e1a04000 	mov	r4, r0
    d034:	e59f3044 	ldr	r3, [pc, #68]	; d080 <exit_tryhelp+0x54>
    d038:	e5932000 	ldr	r2, [r3]
    d03c:	e3720001 	cmn	r2, #1
    d040:	059f503c 	ldreq	r5, [pc, #60]	; d084 <exit_tryhelp+0x58>
    d044:	0a000003 	beq	d058 <exit_tryhelp+0x2c>
    d048:	e59f5034 	ldr	r5, [pc, #52]	; d084 <exit_tryhelp+0x58>
    d04c:	e59f1034 	ldr	r1, [pc, #52]	; d088 <exit_tryhelp+0x5c>
    d050:	e5950000 	ldr	r0, [r5]
[31m    d054:	ebfff43d 	bl	a150 <fprintf@plt>[0m
    d058:	e59f302c 	ldr	r3, [pc, #44]	; d08c <exit_tryhelp+0x60>
    d05c:	e59f102c 	ldr	r1, [pc, #44]	; d090 <exit_tryhelp+0x64>
    d060:	e5950000 	ldr	r0, [r5]
    d064:	e5932004 	ldr	r2, [r3, #4]
    d068:	e1a03002 	mov	r3, r2
[31m    d06c:	ebfff437 	bl	a150 <fprintf@plt>[0m
    d070:	e3a00001 	mov	r0, #1
    d074:	ebfff47a 	bl	a264 <xtables_free_opts@plt>
--
    d90c:	0001709c 	.word	0x0001709c
    d910:	00016c04 	.word	0x00016c04
    d914:	000170a8 	.word	0x000170a8
    d918:	000170d0 	.word	0x000170d0
    d91c:	000170c0 	.word	0x000170c0
    d920:	000170bc 	.word	0x000170bc

0000d924 <iptables_exit_error>:
    d924:	e92d000e 	push	{r1, r2, r3}
    d928:	e1a05000 	mov	r5, r0
    d92c:	e59f4080 	ldr	r4, [pc, #128]	; d9b4 <iptables_exit_error+0x90>
    d930:	e59f2080 	ldr	r2, [pc, #128]	; d9b8 <iptables_exit_error+0x94>
    d934:	e52de004 	push	{lr}		; (str lr, [sp, #-4]!)
    d938:	e24dd008 	sub	sp, sp, #8
    d93c:	e28dc010 	add	ip, sp, #16
    d940:	e59f1074 	ldr	r1, [pc, #116]	; d9bc <iptables_exit_error+0x98>
    d944:	e5923008 	ldr	r3, [r2, #8]
    d948:	e5940000 	ldr	r0, [r4]
    d94c:	e5922004 	ldr	r2, [r2, #4]
    d950:	e58dc004 	str	ip, [sp, #4]
[31m    d954:	ebfff1fd 	bl	a150 <fprintf@plt>[0m
    d958:	e59d100c 	ldr	r1, [sp, #12]
    d95c:	e59d2004 	ldr	r2, [sp, #4]
--
    db74:	ebfff19f 	bl	a1f8 <free@plt>
    db78:	e1a00008 	mov	r0, r8
    db7c:	e28dd00c 	add	sp, sp, #12
    db80:	e8bd8ff0 	pop	{r4, r5, r6, r7, r8, r9, sl, fp, pc}

0000db84 <zero_entries>:
    db84:	e92d4070 	push	{r4, r5, r6, lr}
    db88:	e2504000 	subs	r4, r0, #0
    db8c:	e1a05002 	mov	r5, r2
    db90:	0a00000b 	beq	dbc4 <zero_entries+0x40>
    db94:	e3510000 	cmp	r1, #0
    db98:	1a000003 	bne	dbac <zero_entries+0x28>
    db9c:	e1a00004 	mov	r0, r4
    dba0:	e1a01005 	mov	r1, r5
    dba4:	e8bd4070 	pop	{r4, r5, r6, lr}
    dba8:	eafff099 	b	9e14 <iptc_zero_entries@plt>
    dbac:	e59f3024 	ldr	r3, [pc, #36]	; dbd8 <zero_entries+0x54>
    dbb0:	e1a02004 	mov	r2, r4
    dbb4:	e59f1020 	ldr	r1, [pc, #32]	; dbdc <zero_entries+0x58>
    dbb8:	e5930000 	ldr	r0, [r3]
[31m    dbbc:	ebfff163 	bl	a150 <fprintf@plt>[0m
    dbc0:	eafffff5 	b	db9c <zero_entries+0x18>
    dbc4:	e59f0014 	ldr	r0, [pc, #20]	; dbe0 <zero_entries+0x5c>
--
    dbd4:	eaffffaf 	b	da98 <for_each_chain4>
    dbd8:	00021900 	.word	0x00021900
    dbdc:	00017118 	.word	0x00017118
    dbe0:	0000db84 	.word	0x0000db84

0000dbe4 <delete_chain4>:
    dbe4:	e92d4070 	push	{r4, r5, r6, lr}
    dbe8:	e2504000 	subs	r4, r0, #0
    dbec:	e1a05002 	mov	r5, r2
    dbf0:	0a00000b 	beq	dc24 <delete_chain4+0x40>
    dbf4:	e3510000 	cmp	r1, #0
    dbf8:	1a000003 	bne	dc0c <delete_chain4+0x28>
    dbfc:	e1a00004 	mov	r0, r4
    dc00:	e1a01005 	mov	r1, r5
    dc04:	e8bd4070 	pop	{r4, r5, r6, lr}
    dc08:	eafff0f9 	b	9ff4 <iptc_delete_chain@plt>
    dc0c:	e59f3024 	ldr	r3, [pc, #36]	; dc38 <delete_chain4+0x54>
    dc10:	e1a02004 	mov	r2, r4
    dc14:	e59f1020 	ldr	r1, [pc, #32]	; dc3c <delete_chain4+0x58>
    dc18:	e5930000 	ldr	r0, [r3]
[31m    dc1c:	ebfff14b 	bl	a150 <fprintf@plt>[0m
    dc20:	eafffff5 	b	dbfc <delete_chain4+0x18>
    dc24:	e59f0014 	ldr	r0, [pc, #20]	; dc40 <delete_chain4+0x5c>
--
    dc34:	eaffff97 	b	da98 <for_each_chain4>
    dc38:	00021900 	.word	0x00021900
    dc3c:	0001712c 	.word	0x0001712c
    dc40:	0000dbe4 	.word	0x0000dbe4

0000dc44 <flush_entries4>:
    dc44:	e92d4070 	push	{r4, r5, r6, lr}
    dc48:	e2504000 	subs	r4, r0, #0
    dc4c:	e1a05002 	mov	r5, r2
    dc50:	0a00000b 	beq	dc84 <flush_entries4+0x40>
    dc54:	e3510000 	cmp	r1, #0
    dc58:	1a000003 	bne	dc6c <flush_entries4+0x28>
    dc5c:	e1a00004 	mov	r0, r4
    dc60:	e1a01005 	mov	r1, r5
    dc64:	e8bd4070 	pop	{r4, r5, r6, lr}
    dc68:	eafff198 	b	a2d0 <iptc_flush_entries@plt>
    dc6c:	e59f3024 	ldr	r3, [pc, #36]	; dc98 <flush_entries4+0x54>
    dc70:	e1a02004 	mov	r2, r4
    dc74:	e59f1020 	ldr	r1, [pc, #32]	; dc9c <flush_entries4+0x58>
    dc78:	e5930000 	ldr	r0, [r3]
[31m    dc7c:	ebfff133 	bl	a150 <fprintf@plt>[0m
    dc80:	eafffff5 	b	dc5c <flush_entries4+0x18>
    dc84:	e59f0014 	ldr	r0, [pc, #20]	; dca0 <flush_entries4+0x5c>
--
    ddf4:	e1d820b0 	ldrh	r2, [r8]
    ddf8:	e1d435b8 	ldrh	r3, [r4, #88]	; 0x58
    ddfc:	e0877002 	add	r7, r7, r2
    de00:	e1530007 	cmp	r3, r7
    de04:	9a000011 	bls	de50 <print_rule4+0x1ac>
    de08:	e3a01002 	mov	r1, #2
    de0c:	e0848007 	add	r8, r4, r7
    de10:	e088a001 	add	sl, r8, r1
    de14:	e3a02000 	mov	r2, #0
    de18:	e1a0000a 	mov	r0, sl
    de1c:	ebfff0dd 	bl	a198 <xtables_find_match@plt>
    de20:	e2509000 	subs	r9, r0, #0
    de24:	1affffe8 	bne	ddcc <print_rule4+0x128>
    de28:	e19420b7 	ldrh	r2, [r4, r7]
    de2c:	e3520000 	cmp	r2, #0
    de30:	0afffff0 	beq	ddf8 <print_rule4+0x154>
    de34:	e59f1170 	ldr	r1, [pc, #368]	; dfac <print_rule4+0x308>
    de38:	e1a0200a 	mov	r2, sl
    de3c:	e59f316c 	ldr	r3, [pc, #364]	; dfb0 <print_rule4+0x30c>
    de40:	e5930000 	ldr	r0, [r3]
[31m    de44:	ebfff0c1 	bl	a150 <fprintf@plt>[0m
    de48:	e3a00001 	mov	r0, #1
    de4c:	ebfff0d7 	bl	a1b0 <exit@plt>
--
    f628:	e3510021 	cmp	r1, #33	; 0x21
    f62c:	0a0000f6 	beq	fa0c <do_command4+0x1a40>
    f630:	e301a988 	movw	sl, #6536	; 0x1988
    f634:	e2822001 	add	r2, r2, #1
    f638:	e340a002 	movt	sl, #2
    f63c:	e58a2000 	str	r2, [sl]
    f640:	eafffd47 	b	eb64 <do_command4+0xb98>
    f644:	e59d0114 	ldr	r0, [sp, #276]	; 0x114
    f648:	e3500000 	cmp	r0, #0
    f64c:	0afffd04 	beq	ea64 <do_command4+0xa98>
    f650:	e28d5058 	add	r5, sp, #88	; 0x58
    f654:	e3a01002 	mov	r1, #2
    f658:	e28520b4 	add	r2, r5, #180	; 0xb4
    f65c:	ebffeacd 	bl	a198 <xtables_find_match@plt>
    f660:	e59d410c 	ldr	r4, [sp, #268]	; 0x10c
    f664:	eafffcfe 	b	ea64 <do_command4+0xa98>
    f668:	e51f364c 	ldr	r3, [pc, #-1612]	; f024 <do_command4+0x1058>
    f66c:	e51f164c 	ldr	r1, [pc, #-1612]	; f028 <do_command4+0x105c>
    f670:	e59d211c 	ldr	r2, [sp, #284]	; 0x11c
    f674:	e5930000 	ldr	r0, [r3]
[31m    f678:	ebffeab4 	bl	a150 <fprintf@plt>[0m
    f67c:	e59d3110 	ldr	r3, [sp, #272]	; 0x110
    f680:	e593004c 	ldr	r0, [r3, #76]	; 0x4c
--
   10494:	e59f11c8 	ldr	r1, [pc, #456]	; 10664 <do_command4+0x2698>
   10498:	e5943000 	ldr	r3, [r4]
   1049c:	e5933014 	ldr	r3, [r3, #20]
   104a0:	e12fff33 	blx	r3
   104a4:	e30128f8 	movw	r2, #6392	; 0x18f8
   104a8:	e59f11c4 	ldr	r1, [pc, #452]	; 10674 <do_command4+0x26a8>
   104ac:	e3402002 	movt	r2, #2
   104b0:	e5923000 	ldr	r3, [r2]
   104b4:	e59f216c 	ldr	r2, [pc, #364]	; 10628 <do_command4+0x265c>
   104b8:	e5933014 	ldr	r3, [r3, #20]
   104bc:	e2822001 	add	r2, r2, #1
   104c0:	e1520001 	cmp	r2, r1
   104c4:	1afffffc 	bne	104bc <do_command4+0x24f0>
   104c8:	e3a00002 	mov	r0, #2
   104cc:	e59f11a4 	ldr	r1, [pc, #420]	; 10678 <do_command4+0x26ac>
   104d0:	e5d22000 	ldrb	r2, [r2]
   104d4:	e12fff33 	blx	r3
   104d8:	e59f317c 	ldr	r3, [pc, #380]	; 1065c <do_command4+0x2690>
   104dc:	e59f1198 	ldr	r1, [pc, #408]	; 1067c <do_command4+0x26b0>
   104e0:	e5930000 	ldr	r0, [r3]
[31m   104e4:	ebffe719 	bl	a150 <fprintf@plt>[0m
   104e8:	e3a00002 	mov	r0, #2
   104ec:	ebfff2ce 	bl	d02c <exit_tryhelp>
--
   10ab4:	e2700001 	rsbs	r0, r0, #1
   10ab8:	33a00000 	movcc	r0, #0
   10abc:	e28dd00c 	add	sp, sp, #12
   10ac0:	e8bd8ff0 	pop	{r4, r5, r6, r7, r8, r9, sl, fp, pc}
   10ac4:	e1a00007 	mov	r0, r7
   10ac8:	ebfffef3 	bl	1069c <do_output>
   10acc:	e3a00000 	mov	r0, #0
   10ad0:	ebffe5b6 	bl	a1b0 <exit@plt>
   10ad4:	e58a9004 	str	r9, [sl, #4]
   10ad8:	eaffffb2 	b	109a8 <ip6tables_save_main+0x48>
   10adc:	e58a9000 	str	r9, [sl]
   10ae0:	eaffffb0 	b	109a8 <ip6tables_save_main+0x48>
   10ae4:	e5983000 	ldr	r3, [r8]
   10ae8:	e58b3000 	str	r3, [fp]
   10aec:	eaffffad 	b	109a8 <ip6tables_save_main+0x48>
   10af0:	e59f3058 	ldr	r3, [pc, #88]	; 10b50 <ip6tables_save_main+0x1f0>
   10af4:	e59f1058 	ldr	r1, [pc, #88]	; 10b54 <ip6tables_save_main+0x1f4>
   10af8:	e5952004 	ldr	r2, [r5, #4]
   10afc:	e5930000 	ldr	r0, [r3]
   10b00:	e5953008 	ldr	r3, [r5, #8]
[31m   10b04:	ebffe591 	bl	a150 <fprintf@plt>[0m
   10b08:	e3a00001 	mov	r0, #1
   10b0c:	ebffe5a7 	bl	a1b0 <exit@plt>
--
   10de0:	13a08001 	movne	r8, #1
   10de4:	13a06000 	movne	r6, #0
   10de8:	0a00011d 	beq	11264 <ip6tables_restore_main+0x6a4>
   10dec:	e3570000 	cmp	r7, #0
   10df0:	0a000005 	beq	10e0c <ip6tables_restore_main+0x24c>
   10df4:	e28d1b0b 	add	r1, sp, #11264	; 0x2c00
   10df8:	e1a00007 	mov	r0, r7
   10dfc:	e2811024 	add	r1, r1, #36	; 0x24
   10e00:	ebffe4f0 	bl	a1c8 <strcmp@plt>
   10e04:	e3500000 	cmp	r0, #0
   10e08:	1affffd5 	bne	10d64 <ip6tables_restore_main+0x1a4>
   10e0c:	e3580000 	cmp	r8, #0
   10e10:	1affffd3 	bne	10d64 <ip6tables_restore_main+0x1a4>
   10e14:	e59f38d0 	ldr	r3, [pc, #2256]	; 116ec <ip6tables_restore_main+0xb2c>
   10e18:	e301c6b0 	movw	ip, #5808	; 0x16b0
   10e1c:	e340c002 	movt	ip, #2
   10e20:	e59f18c8 	ldr	r1, [pc, #2248]	; 116f0 <ip6tables_restore_main+0xb30>
   10e24:	e59c2004 	ldr	r2, [ip, #4]
   10e28:	e5930000 	ldr	r0, [r3]
   10e2c:	e5943000 	ldr	r3, [r4]
[31m   10e30:	ebffe4c6 	bl	a150 <fprintf@plt>[0m
   10e34:	e3a00001 	mov	r0, #1
   10e38:	ebffe4dc 	bl	a1b0 <exit@plt>
   10e3c:	e3a00001 	mov	r0, #1
   10e40:	e58d0014 	str	r0, [sp, #20]
   10e44:	eaffff75 	b	10c20 <ip6tables_restore_main+0x60>
   10e48:	e58a840c 	str	r8, [sl, #1036]	; 0x40c
   10e4c:	eaffff73 	b	10c20 <ip6tables_restore_main+0x60>
   10e50:	e59f3894 	ldr	r3, [pc, #2196]	; 116ec <ip6tables_restore_main+0xb2c>
   10e54:	e59f1898 	ldr	r1, [pc, #2200]	; 116f4 <ip6tables_restore_main+0xb34>
   10e58:	e59f2864 	ldr	r2, [pc, #2148]	; 116c4 <ip6tables_restore_main+0xb04>
   10e5c:	e5930000 	ldr	r0, [r3]
[31m   10e60:	ebffe4ba 	bl	a150 <fprintf@plt>[0m
   10e64:	e3a00001 	mov	r0, #1
   10e68:	ebffe4d0 	bl	a1b0 <exit@plt>
--
   114e8:	e12fff3c 	blx	ip
   114ec:	e59d1010 	ldr	r1, [sp, #16]
   114f0:	e7910102 	ldr	r0, [r1, r2, lsl #2]
   114f4:	e59f1244 	ldr	r1, [pc, #580]	; 11740 <ip6tables_restore_main+0xb80>
   114f8:	ebffe281 	bl	9f04 <fopen64@plt>
   114fc:	e3500000 	cmp	r0, #0
   11500:	e58d000c 	str	r0, [sp, #12]
   11504:	1afffe0e 	bne	10d44 <ip6tables_restore_main+0x184>
   11508:	e59d2010 	ldr	r2, [sp, #16]
   1150c:	e5963000 	ldr	r3, [r6]
   11510:	e7924103 	ldr	r4, [r2, r3, lsl #2]
   11514:	e59f31d0 	ldr	r3, [pc, #464]	; 116ec <ip6tables_restore_main+0xb2c>
   11518:	e5935000 	ldr	r5, [r3]
   1151c:	ebffe227 	bl	9dc0 <__errno_location@plt>
   11520:	e5900000 	ldr	r0, [r0]
   11524:	ebffe345 	bl	a240 <strerror@plt>
   11528:	e59f1214 	ldr	r1, [pc, #532]	; 11744 <ip6tables_restore_main+0xb84>
   1152c:	e1a03000 	mov	r3, r0
   11530:	e1a02004 	mov	r2, r4
   11534:	e1a00005 	mov	r0, r5
[31m   11538:	ebffe304 	bl	a150 <fprintf@plt>[0m
   1153c:	e3a00001 	mov	r0, #1
   11540:	ebffe31a 	bl	a1b0 <exit@plt>
--
   115b4:	e5933000 	ldr	r3, [r3]
   115b8:	e5934014 	ldr	r4, [r3, #20]
   115bc:	ebffe1ff 	bl	9dc0 <__errno_location@plt>
   115c0:	e5900000 	ldr	r0, [r0]
   115c4:	ebffe27e 	bl	9fc4 <ip6tc_strerror@plt>
   115c8:	e58d5000 	str	r5, [sp]
   115cc:	e1a0200a 	mov	r2, sl
   115d0:	e58d0004 	str	r0, [sp, #4]
   115d4:	e1a03008 	mov	r3, r8
   115d8:	e3a00001 	mov	r0, #1
   115dc:	e59f1178 	ldr	r1, [pc, #376]	; 1175c <ip6tables_restore_main+0xb9c>
   115e0:	e12fff34 	blx	r4
   115e4:	e30106b0 	movw	r0, #5808	; 0x16b0
   115e8:	e5943000 	ldr	r3, [r4]
   115ec:	e3400002 	movt	r0, #2
   115f0:	e59f1168 	ldr	r1, [pc, #360]	; 11760 <ip6tables_restore_main+0xba0>
   115f4:	e5902004 	ldr	r2, [r0, #4]
   115f8:	e59f00ec 	ldr	r0, [pc, #236]	; 116ec <ip6tables_restore_main+0xb2c>
   115fc:	e2833001 	add	r3, r3, #1
   11600:	e5900000 	ldr	r0, [r0]
[31m   11604:	ebffe2d1 	bl	a150 <fprintf@plt>[0m
   11608:	e3a00001 	mov	r0, #1
   1160c:	ebffe2e7 	bl	a1b0 <exit@plt>
   11610:	e30136b0 	movw	r3, #5808	; 0x16b0
   11614:	e301c6b0 	movw	ip, #5808	; 0x16b0
   11618:	e3403002 	movt	r3, #2
   1161c:	e340c002 	movt	ip, #2
   11620:	e5932004 	ldr	r2, [r3, #4]
   11624:	e59f30c0 	ldr	r3, [pc, #192]	; 116ec <ip6tables_restore_main+0xb2c>
   11628:	e59f1134 	ldr	r1, [pc, #308]	; 11764 <ip6tables_restore_main+0xba4>
   1162c:	e5930000 	ldr	r0, [r3]
   11630:	e59c3008 	ldr	r3, [ip, #8]
[31m   11634:	ebffe2c5 	bl	a150 <fprintf@plt>[0m
   11638:	e3a00001 	mov	r0, #1
   1163c:	ebffe2db 	bl	a1b0 <exit@plt>
--
   117a8:	ebffe21a 	bl	a018 <xtables_init_all@plt>
   117ac:	e1500004 	cmp	r0, r4
   117b0:	ba000013 	blt	11804 <ip6tables_main+0x90>
   117b4:	e1a00007 	mov	r0, r7
   117b8:	e1a01006 	mov	r1, r6
   117bc:	e28d2004 	add	r2, sp, #4
   117c0:	e1a0300d 	mov	r3, sp
   117c4:	eb0004e5 	bl	12b60 <do_command6>
   117c8:	e3500000 	cmp	r0, #0
   117cc:	1a000014 	bne	11824 <ip6tables_main+0xb0>
   117d0:	ebffe17a 	bl	9dc0 <__errno_location@plt>
   117d4:	e5900000 	ldr	r0, [r0]
   117d8:	e3500016 	cmp	r0, #22
   117dc:	0a000019 	beq	11848 <ip6tables_main+0xd4>
   117e0:	e59f3090 	ldr	r3, [pc, #144]	; 11878 <ip6tables_main+0x104>
   117e4:	e5934000 	ldr	r4, [r3]
   117e8:	ebffe1f5 	bl	9fc4 <ip6tc_strerror@plt>
   117ec:	e59f1088 	ldr	r1, [pc, #136]	; 1187c <ip6tables_main+0x108>
   117f0:	e1a02000 	mov	r2, r0
   117f4:	e1a00004 	mov	r0, r4
[31m   117f8:	ebffe254 	bl	a150 <fprintf@plt>[0m
   117fc:	e3a00001 	mov	r0, #1
   11800:	ebffe26a 	bl	a1b0 <exit@plt>
   11804:	e59f306c 	ldr	r3, [pc, #108]	; 11878 <ip6tables_main+0x104>
   11808:	e59f1070 	ldr	r1, [pc, #112]	; 11880 <ip6tables_main+0x10c>
   1180c:	e5952004 	ldr	r2, [r5, #4]
   11810:	e5930000 	ldr	r0, [r3]
   11814:	e5953008 	ldr	r3, [r5, #8]
[31m   11818:	ebffe24c 	bl	a150 <fprintf@plt>[0m
   1181c:	e3a00001 	mov	r0, #1
   11820:	ebffe262 	bl	a1b0 <exit@plt>
   11824:	e59d0000 	ldr	r0, [sp]
   11828:	ebffe239 	bl	a114 <ip6tc_commit@plt>
   1182c:	e1a05000 	mov	r5, r0
   11830:	e59d0000 	ldr	r0, [sp]
   11834:	ebffe212 	bl	a084 <ip6tc_free@plt>
   11838:	e3550000 	cmp	r5, #0
   1183c:	11a00004 	movne	r0, r4
   11840:	0affffe2 	beq	117d0 <ip6tables_main+0x5c>
   11844:	ebffe259 	bl	a1b0 <exit@plt>
   11848:	e59f3028 	ldr	r3, [pc, #40]	; 11878 <ip6tables_main+0x104>
   1184c:	e5934000 	ldr	r4, [r3]
   11850:	ebffe1db 	bl	9fc4 <ip6tc_strerror@plt>
   11854:	e59f1028 	ldr	r1, [pc, #40]	; 11884 <ip6tables_main+0x110>
   11858:	e1a02000 	mov	r2, r0
   1185c:	e1a00004 	mov	r0, r4
[31m   11860:	ebffe23a 	bl	a150 <fprintf@plt>[0m
   11864:	e3a00001 	mov	r0, #1
   11868:	ebffe250 	bl	a1b0 <exit@plt>
--
   11bcc:	00016ed4 	.word	0x00016ed4
   11bd0:	00016ecc 	.word	0x00016ecc
   11bd4:	00016ef4 	.word	0x00016ef4
   11bd8:	00016eec 	.word	0x00016eec
   11bdc:	00016ec4 	.word	0x00016ec4
   11be0:	00016ebc 	.word	0x00016ebc
   11be4:	00016ee4 	.word	0x00016ee4
   11be8:	00016edc 	.word	0x00016edc

00011bec <exit_tryhelp>:
   11bec:	e92d4008 	push	{r3, lr}
   11bf0:	e1a04000 	mov	r4, r0
   11bf4:	e59f3044 	ldr	r3, [pc, #68]	; 11c40 <exit_tryhelp+0x54>
   11bf8:	e5932000 	ldr	r2, [r3]
   11bfc:	e3720001 	cmn	r2, #1
   11c00:	059f503c 	ldreq	r5, [pc, #60]	; 11c44 <exit_tryhelp+0x58>
   11c04:	0a000003 	beq	11c18 <exit_tryhelp+0x2c>
   11c08:	e59f5034 	ldr	r5, [pc, #52]	; 11c44 <exit_tryhelp+0x58>
   11c0c:	e59f1034 	ldr	r1, [pc, #52]	; 11c48 <exit_tryhelp+0x5c>
   11c10:	e5950000 	ldr	r0, [r5]
[31m   11c14:	ebffe14d 	bl	a150 <fprintf@plt>[0m
   11c18:	e59f302c 	ldr	r3, [pc, #44]	; 11c4c <exit_tryhelp+0x60>
   11c1c:	e59f102c 	ldr	r1, [pc, #44]	; 11c50 <exit_tryhelp+0x64>
   11c20:	e5950000 	ldr	r0, [r5]
   11c24:	e5932004 	ldr	r2, [r3, #4]
   11c28:	e1a03002 	mov	r3, r2
[31m   11c2c:	ebffe147 	bl	a150 <fprintf@plt>[0m
   11c30:	e3a00001 	mov	r0, #1
   11c34:	ebffe18a 	bl	a264 <xtables_free_opts@plt>
--
   1249c:	eafffff4 	b	12474 <print_ip+0x80>
   124a0:	0001709c 	.word	0x0001709c
   124a4:	00016c04 	.word	0x00016c04
   124a8:	00018694 	.word	0x00018694
   124ac:	000186a4 	.word	0x000186a4
   124b0:	000186a0 	.word	0x000186a0

000124b4 <ip6tables_exit_error>:
   124b4:	e92d000e 	push	{r1, r2, r3}
   124b8:	e1a05000 	mov	r5, r0
   124bc:	e59f4080 	ldr	r4, [pc, #128]	; 12544 <ip6tables_exit_error+0x90>
   124c0:	e59f2080 	ldr	r2, [pc, #128]	; 12548 <ip6tables_exit_error+0x94>
   124c4:	e52de004 	push	{lr}		; (str lr, [sp, #-4]!)
   124c8:	e24dd008 	sub	sp, sp, #8
   124cc:	e28dc010 	add	ip, sp, #16
   124d0:	e59f1074 	ldr	r1, [pc, #116]	; 1254c <ip6tables_exit_error+0x98>
   124d4:	e5923008 	ldr	r3, [r2, #8]
   124d8:	e5940000 	ldr	r0, [r4]
   124dc:	e5922004 	ldr	r2, [r2, #4]
   124e0:	e58dc004 	str	ip, [sp, #4]
[31m   124e4:	ebffdf19 	bl	a150 <fprintf@plt>[0m
   124e8:	e59d100c 	ldr	r1, [sp, #12]
   124ec:	e59d2004 	ldr	r2, [sp, #4]
--
   12704:	ebffdebb 	bl	a1f8 <free@plt>
   12708:	e1a00008 	mov	r0, r8
   1270c:	e28dd00c 	add	sp, sp, #12
   12710:	e8bd8ff0 	pop	{r4, r5, r6, r7, r8, r9, sl, fp, pc}

00012714 <zero_entries>:
   12714:	e92d4070 	push	{r4, r5, r6, lr}
   12718:	e2504000 	subs	r4, r0, #0
   1271c:	e1a05002 	mov	r5, r2
   12720:	0a00000b 	beq	12754 <zero_entries+0x40>
   12724:	e3510000 	cmp	r1, #0
   12728:	1a000003 	bne	1273c <zero_entries+0x28>
   1272c:	e1a00004 	mov	r0, r4
   12730:	e1a01005 	mov	r1, r5
   12734:	e8bd4070 	pop	{r4, r5, r6, lr}
   12738:	eaffdee7 	b	a2dc <ip6tc_zero_entries@plt>
   1273c:	e59f3024 	ldr	r3, [pc, #36]	; 12768 <zero_entries+0x54>
   12740:	e1a02004 	mov	r2, r4
   12744:	e59f1020 	ldr	r1, [pc, #32]	; 1276c <zero_entries+0x58>
   12748:	e5930000 	ldr	r0, [r3]
[31m   1274c:	ebffde7f 	bl	a150 <fprintf@plt>[0m
   12750:	eafffff5 	b	1272c <zero_entries+0x18>
   12754:	e59f0014 	ldr	r0, [pc, #20]	; 12770 <zero_entries+0x5c>
--
   12764:	eaffffaf 	b	12628 <for_each_chain6>
   12768:	00021900 	.word	0x00021900
   1276c:	00017118 	.word	0x00017118
   12770:	00012714 	.word	0x00012714

00012774 <delete_chain6>:
   12774:	e92d4070 	push	{r4, r5, r6, lr}
   12778:	e2504000 	subs	r4, r0, #0
   1277c:	e1a05002 	mov	r5, r2
   12780:	0a00000b 	beq	127b4 <delete_chain6+0x40>
   12784:	e3510000 	cmp	r1, #0
   12788:	1a000003 	bne	1279c <delete_chain6+0x28>
   1278c:	e1a00004 	mov	r0, r4
   12790:	e1a01005 	mov	r1, r5
   12794:	e8bd4070 	pop	{r4, r5, r6, lr}
   12798:	eaffddc4 	b	9eb0 <ip6tc_delete_chain@plt>
   1279c:	e59f3024 	ldr	r3, [pc, #36]	; 127c8 <delete_chain6+0x54>
   127a0:	e1a02004 	mov	r2, r4
   127a4:	e59f1020 	ldr	r1, [pc, #32]	; 127cc <delete_chain6+0x58>
   127a8:	e5930000 	ldr	r0, [r3]
[31m   127ac:	ebffde67 	bl	a150 <fprintf@plt>[0m
   127b0:	eafffff5 	b	1278c <delete_chain6+0x18>
   127b4:	e59f0014 	ldr	r0, [pc, #20]	; 127d0 <delete_chain6+0x5c>
--
   127c4:	eaffff97 	b	12628 <for_each_chain6>
   127c8:	00021900 	.word	0x00021900
   127cc:	0001712c 	.word	0x0001712c
   127d0:	00012774 	.word	0x00012774

000127d4 <flush_entries6>:
   127d4:	e92d4070 	push	{r4, r5, r6, lr}
   127d8:	e2504000 	subs	r4, r0, #0
   127dc:	e1a05002 	mov	r5, r2
   127e0:	0a00000b 	beq	12814 <flush_entries6+0x40>
   127e4:	e3510000 	cmp	r1, #0
   127e8:	1a000003 	bne	127fc <flush_entries6+0x28>
   127ec:	e1a00004 	mov	r0, r4
   127f0:	e1a01005 	mov	r1, r5
   127f4:	e8bd4070 	pop	{r4, r5, r6, lr}
   127f8:	eaffdd97 	b	9e5c <ip6tc_flush_entries@plt>
   127fc:	e59f3024 	ldr	r3, [pc, #36]	; 12828 <flush_entries6+0x54>
   12800:	e1a02004 	mov	r2, r4
   12804:	e59f1020 	ldr	r1, [pc, #32]	; 1282c <flush_entries6+0x58>
   12808:	e5930000 	ldr	r0, [r3]
[31m   1280c:	ebffde4f 	bl	a150 <fprintf@plt>[0m
   12810:	eafffff5 	b	127ec <flush_entries6+0x18>
   12814:	e59f0014 	ldr	r0, [pc, #20]	; 12830 <flush_entries6+0x5c>
--
   12988:	e1d820b0 	ldrh	r2, [r8]
   1298c:	e1d438bc 	ldrh	r3, [r4, #140]	; 0x8c
   12990:	e0877002 	add	r7, r7, r2
   12994:	e1530007 	cmp	r3, r7
   12998:	9a000011 	bls	129e4 <print_rule6+0x1b0>
   1299c:	e3a01002 	mov	r1, #2
   129a0:	e0848007 	add	r8, r4, r7
   129a4:	e088a001 	add	sl, r8, r1
   129a8:	e3a02000 	mov	r2, #0
   129ac:	e1a0000a 	mov	r0, sl
   129b0:	ebffddf8 	bl	a198 <xtables_find_match@plt>
   129b4:	e2509000 	subs	r9, r0, #0
   129b8:	1affffe8 	bne	12960 <print_rule6+0x12c>
   129bc:	e19420b7 	ldrh	r2, [r4, r7]
   129c0:	e3520000 	cmp	r2, #0
   129c4:	0afffff0 	beq	1298c <print_rule6+0x158>
   129c8:	e59f1170 	ldr	r1, [pc, #368]	; 12b40 <print_rule6+0x30c>
   129cc:	e1a0200a 	mov	r2, sl
   129d0:	e59f316c 	ldr	r3, [pc, #364]	; 12b44 <print_rule6+0x310>
   129d4:	e5930000 	ldr	r0, [r3]
[31m   129d8:	ebffdddc 	bl	a150 <fprintf@plt>[0m
   129dc:	e3a00001 	mov	r0, #1
   129e0:	ebffddf2 	bl	a1b0 <exit@plt>
--
   13c48:	ebffd910 	bl	a090 <xtables_parse_protocol@plt>
   13c4c:	e5dd30e3 	ldrb	r3, [sp, #227]	; 0xe3
   13c50:	e3500000 	cmp	r0, #0
   13c54:	e1cd0eb0 	strh	r0, [sp, #224]	; 0xe0
   13c58:	e3833001 	orr	r3, r3, #1
   13c5c:	e5cd30e3 	strb	r3, [sp, #227]	; 0xe3
   13c60:	0a00002d 	beq	13d1c <do_command6+0x11bc>
   13c64:	e240302b 	sub	r3, r0, #43	; 0x2b
   13c68:	e6ff3073 	uxth	r3, r3
   13c6c:	e3500033 	cmp	r0, #51	; 0x33
   13c70:	13530001 	cmpne	r3, #1
   13c74:	8a0004db 	bhi	14fe8 <do_command6+0x2488>
   13c78:	e5dd30e4 	ldrb	r3, [sp, #228]	; 0xe4
   13c7c:	e3130040 	tst	r3, #64	; 0x40
   13c80:	1afffc9d 	bne	12efc <do_command6+0x39c>
   13c84:	e3012904 	movw	r2, #6404	; 0x1904
   13c88:	e51f1148 	ldr	r1, [pc, #-328]	; 13b48 <do_command6+0xfe8>
   13c8c:	e3402002 	movt	r2, #2
   13c90:	e5920000 	ldr	r0, [r2]
   13c94:	e59d211c 	ldr	r2, [sp, #284]	; 0x11c
[31m   13c98:	ebffd92c 	bl	a150 <fprintf@plt>[0m
   13c9c:	e58d4108 	str	r4, [sp, #264]	; 0x108
   13ca0:	eafffc96 	b	12f00 <do_command6+0x3a0>
--
   14404:	e5932000 	ldr	r2, [r3]
   14408:	e1560002 	cmp	r6, r2
   1440c:	ca0000fe 	bgt	1480c <do_command6+0x1cac>
   14410:	e301c8f8 	movw	ip, #6392	; 0x18f8
   14414:	e51f18b0 	ldr	r1, [pc, #-2224]	; 13b6c <do_command6+0x100c>
   14418:	e340c002 	movt	ip, #2
   1441c:	e51f28b4 	ldr	r2, [pc, #-2228]	; 13b70 <do_command6+0x1010>
   14420:	e59c3000 	ldr	r3, [ip]
   14424:	e5933014 	ldr	r3, [r3, #20]
   14428:	e2822001 	add	r2, r2, #1
   1442c:	e1520001 	cmp	r2, r1
   14430:	1afffffc 	bne	14428 <do_command6+0x18c8>
   14434:	e3a00002 	mov	r0, #2
   14438:	e51f18cc 	ldr	r1, [pc, #-2252]	; 13b74 <do_command6+0x1014>
   1443c:	e5d22000 	ldrb	r2, [r2]
   14440:	e12fff33 	blx	r3
   14444:	e51f38d4 	ldr	r3, [pc, #-2260]	; 13b78 <do_command6+0x1018>
   14448:	e51f18d4 	ldr	r1, [pc, #-2260]	; 13b7c <do_command6+0x101c>
   1444c:	e59d2124 	ldr	r2, [sp, #292]	; 0x124
   14450:	e5930000 	ldr	r0, [r3]
[31m   14454:	ebffd73d 	bl	a150 <fprintf@plt>[0m
   14458:	e59d3118 	ldr	r3, [sp, #280]	; 0x118
   1445c:	e593004c 	ldr	r0, [r3, #76]	; 0x4c
--
   14fd4:	ebfff5ce 	bl	12714 <zero_entries>
   14fd8:	e2505000 	subs	r5, r0, #0
   14fdc:	0afffc8d 	beq	14218 <do_command6+0x16b8>
   14fe0:	e59d314c 	ldr	r3, [sp, #332]	; 0x14c
   14fe4:	eafffda9 	b	14690 <do_command6+0x1b30>
   14fe8:	e350003c 	cmp	r0, #60	; 0x3c
   14fec:	0afffb21 	beq	13c78 <do_command6+0x1118>
   14ff0:	e58d4108 	str	r4, [sp, #264]	; 0x108
   14ff4:	eafff7c1 	b	12f00 <do_command6+0x3a0>
   14ff8:	e59f32cc 	ldr	r3, [pc, #716]	; 152cc <do_command6+0x276c>
   14ffc:	e3a01001 	mov	r1, #1
   15000:	e59f02c8 	ldr	r0, [pc, #712]	; 152d0 <do_command6+0x2770>
   15004:	e3a02027 	mov	r2, #39	; 0x27
   15008:	e5933000 	ldr	r3, [r3]
   1500c:	ebffd371 	bl	9dd8 <fwrite@plt>
   15010:	e3a00002 	mov	r0, #2
   15014:	ebfff2f4 	bl	11bec <exit_tryhelp>
   15018:	e59f32ac 	ldr	r3, [pc, #684]	; 152cc <do_command6+0x276c>
   1501c:	e59f12b0 	ldr	r1, [pc, #688]	; 152d4 <do_command6+0x2774>
   15020:	e5930000 	ldr	r0, [r3]
[31m   15024:	ebffd449 	bl	a150 <fprintf@plt>[0m
   15028:	e3a00002 	mov	r0, #2
   1502c:	ebfff2ee 	bl	11bec <exit_tryhelp>
--
   155ac:	e1a01005 	mov	r1, r5
   155b0:	e12fff33 	blx	r3
   155b4:	e8bd8070 	pop	{r4, r5, r6, pc}
   155b8:	e5b50004 	ldr	r0, [r5, #4]!
   155bc:	e1a01004 	mov	r1, r4
   155c0:	ebffff58 	bl	15328 <subcmd_get>
   155c4:	e2466001 	sub	r6, r6, #1
   155c8:	e1a03000 	mov	r3, r0
   155cc:	eafffff3 	b	155a0 <subcmd_main+0x3c>
   155d0:	e59f503c 	ldr	r5, [pc, #60]	; 15614 <subcmd_main+0xb0>
   155d4:	e3a02035 	mov	r2, #53	; 0x35
   155d8:	e3a01001 	mov	r1, #1
   155dc:	e59f0034 	ldr	r0, [pc, #52]	; 15618 <subcmd_main+0xb4>
   155e0:	e5953000 	ldr	r3, [r5]
   155e4:	ebffd1fb 	bl	9dd8 <fwrite@plt>
   155e8:	e5942000 	ldr	r2, [r4]
   155ec:	e3520000 	cmp	r2, #0
   155f0:	0a000005 	beq	1560c <subcmd_main+0xa8>
   155f4:	e5950000 	ldr	r0, [r5]
   155f8:	e59f101c 	ldr	r1, [pc, #28]	; 1561c <subcmd_main+0xb8>
[31m   155fc:	ebffd2d3 	bl	a150 <fprintf@plt>[0m
   15600:	e5b42008 	ldr	r2, [r4, #8]!
   15604:	e3520000 	cmp	r2, #0

[0m
[[0;33m*[0m] Function [0;33mfprintf[0m used [0;33m42[0m times [0;33mxtables-multi[0m

