[[0;33m*[0m] Binary protection state of [0;33mvmstat[0m
[REF] s12

  	RELRO          CANARY            NX           PIE       RPATH        RUNPATH      SYMBOLS      
  	[31mNo RELRO[0m       [31mNo Canary found[0m   [32mNX enabled[0m   [31mNo PIE[0m       [32mNo RPATH[0m     [32mNo RUNPATH[0m   [32mNo Symbols[0m

[0m
[[0;33m*[0m] Function [0;33mprintf[0m tear down of [0;33mvmstat[0m

    906c:	e58d6018 	str	r6, [sp, #24]
    9070:	e30deaac 	movw	lr, #55980	; 0xdaac
    9074:	e30dcab4 	movw	ip, #55988	; 0xdab4
    9078:	e30d0a6c 	movw	r0, #55916	; 0xda6c
    907c:	e30e1054 	movw	r1, #57428	; 0xe054
    9080:	e30d6abc 	movw	r6, #55996	; 0xdabc
    9084:	e340e000 	movt	lr, #0
    9088:	e340c000 	movt	ip, #0
    908c:	e3406000 	movt	r6, #0
    9090:	e3401000 	movt	r1, #0
    9094:	e1a02005 	mov	r2, r5
    9098:	e1a03004 	mov	r3, r4
    909c:	e3400000 	movt	r0, #0
    90a0:	e58de000 	str	lr, [sp]
    90a4:	e58dc004 	str	ip, [sp, #4]
    90a8:	e58d601c 	str	r6, [sp, #28]
    90ac:	e58d5008 	str	r5, [sp, #8]
    90b0:	e58d400c 	str	r4, [sp, #12]
    90b4:	e58de010 	str	lr, [sp, #16]
    90b8:	e58dc014 	str	ip, [sp, #20]
[31m    90bc:	ebfffebb 	bl	8bb0 <printf@plt>[0m
    90c0:	e28dd020 	add	sp, sp, #32
    90c4:	e8bd8070 	pop	{r4, r5, r6, pc}
    90c8:	e30dcae4 	movw	ip, #56036	; 0xdae4
    90cc:	e52de004 	push	{lr}		; (str lr, [sp, #-4]!)
    90d0:	e340c000 	movt	ip, #0
    90d4:	e24dd00c 	sub	sp, sp, #12
    90d8:	e30d0ac0 	movw	r0, #56000	; 0xdac0
    90dc:	e30d1ad8 	movw	r1, #56024	; 0xdad8
    90e0:	e58dc000 	str	ip, [sp]
    90e4:	e30d2ae0 	movw	r2, #56032	; 0xdae0
    90e8:	e30e3ab8 	movw	r3, #60088	; 0xeab8
    90ec:	e30dcaec 	movw	ip, #56044	; 0xdaec
    90f0:	e340c000 	movt	ip, #0
    90f4:	e3401000 	movt	r1, #0
    90f8:	e3402000 	movt	r2, #0
    90fc:	e3403000 	movt	r3, #0
    9100:	e3400000 	movt	r0, #0
    9104:	e58dc004 	str	ip, [sp, #4]
[31m    9108:	ebfffea8 	bl	8bb0 <printf@plt>[0m
    910c:	e28dd00c 	add	sp, sp, #12
    9110:	e8bd8000 	ldmfd	sp!, {pc}
    9114:	e92d4030 	push	{r4, r5, lr}
    9118:	e24dd03c 	sub	sp, sp, #60	; 0x3c
    911c:	e59f4158 	ldr	r4, [pc, #344]	; 927c <_start@@Base+0x4a4>
    9120:	e59f0158 	ldr	r0, [pc, #344]	; 9280 <_start@@Base+0x4a8>
[31m    9124:	ebfffea1 	bl	8bb0 <printf@plt>[0m
    9128:	e5943000 	ldr	r3, [r4]
    912c:	e3130020 	tst	r3, #32
--
    918c:	e58de004 	str	lr, [sp, #4]
    9190:	e58dc00c 	str	ip, [sp, #12]
    9194:	e59fc110 	ldr	ip, [pc, #272]	; 92ac <_start@@Base+0x4d4>
    9198:	e58dc010 	str	ip, [sp, #16]
    919c:	e59fc10c 	ldr	ip, [pc, #268]	; 92b0 <_start@@Base+0x4d8>
    91a0:	e58dc014 	str	ip, [sp, #20]
    91a4:	e59fc108 	ldr	ip, [pc, #264]	; 92b4 <_start@@Base+0x4dc>
    91a8:	e58dc018 	str	ip, [sp, #24]
    91ac:	e59fc104 	ldr	ip, [pc, #260]	; 92b8 <_start@@Base+0x4e0>
    91b0:	e58dc01c 	str	ip, [sp, #28]
    91b4:	e59fc100 	ldr	ip, [pc, #256]	; 92bc <_start@@Base+0x4e4>
    91b8:	e58dc020 	str	ip, [sp, #32]
    91bc:	e59fc0fc 	ldr	ip, [pc, #252]	; 92c0 <_start@@Base+0x4e8>
    91c0:	e58dc024 	str	ip, [sp, #36]	; 0x24
    91c4:	e59fc0f8 	ldr	ip, [pc, #248]	; 92c4 <_start@@Base+0x4ec>
    91c8:	e58dc028 	str	ip, [sp, #40]	; 0x28
    91cc:	e59fc0f4 	ldr	ip, [pc, #244]	; 92c8 <_start@@Base+0x4f0>
    91d0:	e58dc02c 	str	ip, [sp, #44]	; 0x2c
    91d4:	e59fc0f0 	ldr	ip, [pc, #240]	; 92cc <_start@@Base+0x4f4>
    91d8:	e58dc030 	str	ip, [sp, #48]	; 0x30
[31m    91dc:	ebfffe73 	bl	8bb0 <printf@plt>[0m
    91e0:	e5943000 	ldr	r3, [r4]
    91e4:	e3130020 	tst	r3, #32
    91e8:	1a000012 	bne	9238 <_start@@Base+0x460>
    91ec:	e3130040 	tst	r3, #64	; 0x40
    91f0:	1a00001c 	bne	9268 <_start@@Base+0x490>
    91f4:	e3130080 	tst	r3, #128	; 0x80
    91f8:	1a000003 	bne	920c <_start@@Base+0x434>
    91fc:	e3a0000a 	mov	r0, #10
    9200:	e28dd03c 	add	sp, sp, #60	; 0x3c
    9204:	e8bd4030 	pop	{r4, r5, lr}
    9208:	eafffe59 	b	8b74 <putchar@plt>
    920c:	e59fc0bc 	ldr	ip, [pc, #188]	; 92d0 <_start@@Base+0x4f8>
    9210:	e59f10bc 	ldr	r1, [pc, #188]	; 92d4 <_start@@Base+0x4fc>
    9214:	e59f20bc 	ldr	r2, [pc, #188]	; 92d8 <_start@@Base+0x500>
    9218:	e59f30bc 	ldr	r3, [pc, #188]	; 92dc <_start@@Base+0x504>
    921c:	e59f00bc 	ldr	r0, [pc, #188]	; 92e0 <_start@@Base+0x508>
    9220:	e58dc000 	str	ip, [sp]
[31m    9224:	ebfffe61 	bl	8bb0 <printf@plt>[0m
    9228:	eafffff3 	b	91fc <_start@@Base+0x424>
    922c:	e59f00b0 	ldr	r0, [pc, #176]	; 92e4 <_start@@Base+0x50c>
[31m    9230:	ebfffe5e 	bl	8bb0 <printf@plt>[0m
    9234:	eaffffc2 	b	9144 <_start@@Base+0x36c>
    9238:	e59f1094 	ldr	r1, [pc, #148]	; 92d4 <_start@@Base+0x4fc>
    923c:	e59f2094 	ldr	r2, [pc, #148]	; 92d8 <_start@@Base+0x500>
    9240:	e59f30a0 	ldr	r3, [pc, #160]	; 92e8 <_start@@Base+0x510>
    9244:	e59f00a0 	ldr	r0, [pc, #160]	; 92ec <_start@@Base+0x514>
[31m    9248:	ebfffe58 	bl	8bb0 <printf@plt>[0m
    924c:	eaffffea 	b	91fc <_start@@Base+0x424>
    9250:	e59f0098 	ldr	r0, [pc, #152]	; 92f0 <_start@@Base+0x518>
[31m    9254:	ebfffe55 	bl	8bb0 <printf@plt>[0m
    9258:	eaffffb9 	b	9144 <_start@@Base+0x36c>
    925c:	e59f0090 	ldr	r0, [pc, #144]	; 92f4 <_start@@Base+0x51c>
[31m    9260:	ebfffe52 	bl	8bb0 <printf@plt>[0m
    9264:	eaffffb6 	b	9144 <_start@@Base+0x36c>
    9268:	e59f1088 	ldr	r1, [pc, #136]	; 92f8 <_start@@Base+0x520>
    926c:	e59f2074 	ldr	r2, [pc, #116]	; 92e8 <_start@@Base+0x510>
    9270:	e59f0084 	ldr	r0, [pc, #132]	; 92fc <_start@@Base+0x524>
[31m    9274:	ebfffe4d 	bl	8bb0 <printf@plt>[0m
    9278:	eaffffdf 	b	91fc <_start@@Base+0x424>
    927c:	0001723c 	andeq	r7, r1, ip, lsr r2
--
    9424:	0a000825 	beq	b4c0 <_start@@Base+0x26e8>
    9428:	e28dcfa3 	add	ip, sp, #652	; 0x28c
    942c:	e1a0000c 	mov	r0, ip
    9430:	e58dc078 	str	ip, [sp, #120]	; 0x78
    9434:	eb000c68 	bl	c5dc <_start@@Base+0x3804>
    9438:	e2505000 	subs	r5, r0, #0
    943c:	0a000789 	beq	b268 <_start@@Base+0x2490>
    9440:	e3a04000 	mov	r4, #0
    9444:	ea00000d 	b	9480 <_start@@Base+0x6a8>
    9448:	e59dc28c 	ldr	ip, [sp, #652]	; 0x28c
    944c:	e1a00007 	mov	r0, r7
    9450:	e08cc304 	add	ip, ip, r4, lsl #6
    9454:	e2844001 	add	r4, r4, #1
    9458:	e59ce038 	ldr	lr, [ip, #56]	; 0x38
    945c:	e1a0100c 	mov	r1, ip
    9460:	e59c2030 	ldr	r2, [ip, #48]	; 0x30
    9464:	e59c3034 	ldr	r3, [ip, #52]	; 0x34
    9468:	e58de000 	str	lr, [sp]
    946c:	e59cc03c 	ldr	ip, [ip, #60]	; 0x3c
    9470:	e58dc004 	str	ip, [sp, #4]
[31m    9474:	ebfffdcd 	bl	8bb0 <printf@plt>[0m
    9478:	e1550004 	cmp	r5, r4
    947c:	9a000779 	bls	b268 <_start@@Base+0x2490>
--
    95e4:	e28dcfaa 	add	ip, sp, #680	; 0x2a8
    95e8:	e58dc01c 	str	ip, [sp, #28]
    95ec:	e28dcfa9 	add	ip, sp, #676	; 0x2a4
    95f0:	e58dc020 	str	ip, [sp, #32]
    95f4:	e28dce2a 	add	ip, sp, #672	; 0x2a0
    95f8:	e58dc024 	str	ip, [sp, #36]	; 0x24
    95fc:	e28dcfa3 	add	ip, sp, #652	; 0x28c
    9600:	e58dc028 	str	ip, [sp, #40]	; 0x28
    9604:	e28dcfa2 	add	ip, sp, #648	; 0x288
    9608:	e58dc02c 	str	ip, [sp, #44]	; 0x2c
    960c:	e28dce29 	add	ip, sp, #656	; 0x290
    9610:	e28d1f76 	add	r1, sp, #472	; 0x1d8
    9614:	e58dc030 	str	ip, [sp, #48]	; 0x30
    9618:	e28d2e1e 	add	r2, sp, #480	; 0x1e0
    961c:	e28dcfa5 	add	ip, sp, #660	; 0x294
    9620:	e28d3f7a 	add	r3, sp, #488	; 0x1e8
    9624:	e58dc034 	str	ip, [sp, #52]	; 0x34
    9628:	eb000a4e 	bl	bf68 <_start@@Base+0x3190>
    962c:	e59f0bf8 	ldr	r0, [pc, #3064]	; a22c <_start@@Base+0x1454>
    9630:	e59d1294 	ldr	r1, [sp, #660]	; 0x294
[31m    9634:	ebfffd5d 	bl	8bb0 <printf@plt>[0m
    9638:	e3a00000 	mov	r0, #0
    963c:	ebfffdc4 	bl	8d54 <exit@plt>
--
    985c:	e1a01008 	mov	r1, r8
    9860:	e1a00004 	mov	r0, r4
    9864:	e28aa001 	add	sl, sl, #1
    9868:	ebfffd2d 	bl	8d24 <strcmp@plt>
    986c:	e3500000 	cmp	r0, #0
    9870:	01a05008 	moveq	r5, r8
    9874:	e159000a 	cmp	r9, sl
    9878:	e2888028 	add	r8, r8, #40	; 0x28
    987c:	8afffff6 	bhi	985c <_start@@Base+0xa84>
    9880:	e3550000 	cmp	r5, #0
    9884:	0a0006f6 	beq	b464 <_start@@Base+0x268c>
    9888:	e30ea04c 	movw	sl, #57420	; 0xe04c
    988c:	e30eb058 	movw	fp, #57432	; 0xe058
    9890:	e1a01004 	mov	r1, r4
    9894:	e59f28b4 	ldr	r2, [pc, #2228]	; a150 <_start@@Base+0x1378>
    9898:	e59f38b4 	ldr	r3, [pc, #2228]	; a154 <_start@@Base+0x137c>
    989c:	e340a000 	movt	sl, #0
    98a0:	e59f08b0 	ldr	r0, [pc, #2224]	; a158 <_start@@Base+0x1380>
    98a4:	e340b000 	movt	fp, #0
    98a8:	e88d0c00 	stm	sp, {sl, fp}
[31m    98ac:	ebfffcbf 	bl	8bb0 <printf@plt>[0m
    98b0:	e595c020 	ldr	ip, [r5, #32]
    98b4:	e1a00007 	mov	r0, r7
    98b8:	e1c521d0 	ldrd	r2, [r5, #16]
    98bc:	e595101c 	ldr	r1, [r5, #28]
    98c0:	e58dc000 	str	ip, [sp]
    98c4:	e595c024 	ldr	ip, [r5, #36]	; 0x24
    98c8:	e58dc004 	str	ip, [sp, #4]
[31m    98cc:	ebfffcb7 	bl	8bb0 <printf@plt>[0m
    98d0:	e307c210 	movw	ip, #29200	; 0x7210
    98d4:	e340c001 	movt	ip, #1
--
    9970:	ebfffceb 	bl	8d24 <strcmp@plt>
    9974:	e3500000 	cmp	r0, #0
    9978:	01a08005 	moveq	r8, r5
    997c:	e159000a 	cmp	r9, sl
    9980:	e2855028 	add	r5, r5, #40	; 0x28
    9984:	8afffff6 	bhi	9964 <_start@@Base+0xb8c>
    9988:	e3580000 	cmp	r8, #0
    998c:	0a0006b4 	beq	b464 <_start@@Base+0x268c>
    9990:	e598c020 	ldr	ip, [r8, #32]
    9994:	e3079210 	movw	r9, #29200	; 0x7210
    9998:	e1c821d0 	ldrd	r2, [r8, #16]
    999c:	e1a00007 	mov	r0, r7
    99a0:	e598101c 	ldr	r1, [r8, #28]
    99a4:	e3409001 	movt	r9, #1
    99a8:	e58dc000 	str	ip, [sp]
    99ac:	e307a23c 	movw	sl, #29244	; 0x723c
    99b0:	e598c024 	ldr	ip, [r8, #36]	; 0x24
    99b4:	e340a001 	movt	sl, #1
    99b8:	e28bb001 	add	fp, fp, #1
    99bc:	e58dc004 	str	ip, [sp, #4]
[31m    99c0:	ebfffc7a 	bl	8bb0 <printf@plt>[0m
    99c4:	e5990000 	ldr	r0, [r9]
    99c8:	ebfffca5 	bl	8c64 <fflush@plt>
--
    99ec:	e28ddfad 	add	sp, sp, #692	; 0x2b4
    99f0:	e8bd8ff0 	pop	{r4, r5, r6, r7, r8, r9, sl, fp, pc}
    99f4:	e59db084 	ldr	fp, [sp, #132]	; 0x84
    99f8:	e35b0020 	cmp	fp, #32
    99fc:	0a00007b 	beq	9bf0 <_start@@Base+0xe18>
    9a00:	ca000651 	bgt	b34c <_start@@Base+0x2574>
    9a04:	e35b0010 	cmp	fp, #16
    9a08:	1afffe53 	bne	935c <_start@@Base+0x584>
    9a0c:	e59f0820 	ldr	r0, [pc, #2080]	; a234 <_start@@Base+0x145c>
    9a10:	e59f1820 	ldr	r1, [pc, #2080]	; a238 <_start@@Base+0x1460>
    9a14:	ebfffcb9 	bl	8d00 <fopen@plt>
    9a18:	e3500000 	cmp	r0, #0
    9a1c:	0afffff1 	beq	99e8 <_start@@Base+0xc10>
    9a20:	ebfffcb9 	bl	8d0c <fclose@plt>
    9a24:	e28d1fa2 	add	r1, sp, #648	; 0x288
    9a28:	e28d0fa3 	add	r0, sp, #652	; 0x28c
    9a2c:	eb000a73 	bl	c400 <_start@@Base+0x3628>
    9a30:	e58d0060 	str	r0, [sp, #96]	; 0x60
    9a34:	e59d1060 	ldr	r1, [sp, #96]	; 0x60
    9a38:	e59f071c 	ldr	r0, [pc, #1820]	; a15c <_start@@Base+0x1384>
[31m    9a3c:	ebfffc5b 	bl	8bb0 <printf@plt>[0m
    9a40:	e59d1060 	ldr	r1, [sp, #96]	; 0x60
    9a44:	e59d028c 	ldr	r0, [sp, #652]	; 0x28c
    9a48:	eb000a5e 	bl	c3c8 <_start@@Base+0x35f0>
    9a4c:	e1a01000 	mov	r1, r0
    9a50:	e59f0708 	ldr	r0, [pc, #1800]	; a160 <_start@@Base+0x1388>
[31m    9a54:	ebfffc55 	bl	8bb0 <printf@plt>[0m
    9a58:	e59d5060 	ldr	r5, [sp, #96]	; 0x60
    9a5c:	e3550000 	cmp	r5, #0
--
    9adc:	e592e008 	ldr	lr, [r2, #8]
    9ae0:	e086600e 	add	r6, r6, lr
    9ae4:	e592e034 	ldr	lr, [r2, #52]	; 0x34
    9ae8:	e085500e 	add	r5, r5, lr
    9aec:	159de070 	ldrne	lr, [sp, #112]	; 0x70
    9af0:	108cec9e 	umullne	lr, ip, lr, ip
    9af4:	e592e030 	ldr	lr, [r2, #48]	; 0x30
    9af8:	11a0c32c 	lsrne	ip, ip, #6
    9afc:	e2822048 	add	r2, r2, #72	; 0x48
    9b00:	e35e0000 	cmp	lr, #0
    9b04:	e083300c 	add	r3, r3, ip
    9b08:	159dc070 	ldrne	ip, [sp, #112]	; 0x70
    9b0c:	108ece9c 	umullne	ip, lr, ip, lr
    9b10:	11a0e32e 	lsrne	lr, lr, #6
    9b14:	e084400e 	add	r4, r4, lr
    9b18:	e59de060 	ldr	lr, [sp, #96]	; 0x60
    9b1c:	e15e0000 	cmp	lr, r0
    9b20:	1affffde 	bne	9aa0 <_start@@Base+0xcc8>
    9b24:	e59f0638 	ldr	r0, [pc, #1592]	; a164 <_start@@Base+0x138c>
    9b28:	e58d3044 	str	r3, [sp, #68]	; 0x44
[31m    9b2c:	ebfffc1f 	bl	8bb0 <printf@plt>[0m
    9b30:	e1a0100b 	mov	r1, fp
    9b34:	e59f062c 	ldr	r0, [pc, #1580]	; a168 <_start@@Base+0x1390>
[31m    9b38:	ebfffc1c 	bl	8bb0 <printf@plt>[0m
    9b3c:	e1a01009 	mov	r1, r9
    9b40:	e59f0624 	ldr	r0, [pc, #1572]	; a16c <_start@@Base+0x1394>
[31m    9b44:	ebfffc19 	bl	8bb0 <printf@plt>[0m
    9b48:	e1a0100a 	mov	r1, sl
    9b4c:	e59f061c 	ldr	r0, [pc, #1564]	; a170 <_start@@Base+0x1398>
[31m    9b50:	ebfffc16 	bl	8bb0 <printf@plt>[0m
    9b54:	e1a01008 	mov	r1, r8
    9b58:	e59f0614 	ldr	r0, [pc, #1556]	; a174 <_start@@Base+0x139c>
[31m    9b5c:	ebfffc13 	bl	8bb0 <printf@plt>[0m
    9b60:	e1a01007 	mov	r1, r7
    9b64:	e59f060c 	ldr	r0, [pc, #1548]	; a178 <_start@@Base+0x13a0>
[31m    9b68:	ebfffc10 	bl	8bb0 <printf@plt>[0m
    9b6c:	e1a01006 	mov	r1, r6
    9b70:	e59f0604 	ldr	r0, [pc, #1540]	; a17c <_start@@Base+0x13a4>
[31m    9b74:	ebfffc0d 	bl	8bb0 <printf@plt>[0m
    9b78:	e1a01005 	mov	r1, r5
    9b7c:	e59f05fc 	ldr	r0, [pc, #1532]	; a180 <_start@@Base+0x13a8>
[31m    9b80:	ebfffc0a 	bl	8bb0 <printf@plt>[0m
    9b84:	e59d3044 	ldr	r3, [sp, #68]	; 0x44
    9b88:	e59f05f4 	ldr	r0, [pc, #1524]	; a184 <_start@@Base+0x13ac>
    9b8c:	e1a01003 	mov	r1, r3
[31m    9b90:	ebfffc06 	bl	8bb0 <printf@plt>[0m
    9b94:	e1a01004 	mov	r1, r4
    9b98:	e59f05e8 	ldr	r0, [pc, #1512]	; a188 <_start@@Base+0x13b0>
[31m    9b9c:	ebfffc03 	bl	8bb0 <printf@plt>[0m
    9ba0:	e59d028c 	ldr	r0, [sp, #652]	; 0x28c
    9ba4:	ebfffc88 	bl	8dcc <free@plt>
    9ba8:	e59d0288 	ldr	r0, [sp, #648]	; 0x288
    9bac:	ebfffc86 	bl	8dcc <free@plt>
    9bb0:	eaffff8c 	b	99e8 <_start@@Base+0xc10>
    9bb4:	e3a03015 	mov	r3, #21
    9bb8:	eaffff03 	b	97cc <_start@@Base+0x9f4>
    9bbc:	e30e504c 	movw	r5, #57420	; 0xe04c
    9bc0:	e30e8058 	movw	r8, #57432	; 0xe058
    9bc4:	e3405000 	movt	r5, #0
    9bc8:	e3408000 	movt	r8, #0
    9bcc:	e1a01004 	mov	r1, r4
    9bd0:	e59f2578 	ldr	r2, [pc, #1400]	; a150 <_start@@Base+0x1378>
    9bd4:	e59f3578 	ldr	r3, [pc, #1400]	; a154 <_start@@Base+0x137c>
    9bd8:	e59f0578 	ldr	r0, [pc, #1400]	; a158 <_start@@Base+0x1380>
    9bdc:	e88d0120 	stm	sp, {r5, r8}
[31m    9be0:	ebfffbf2 	bl	8bb0 <printf@plt>[0m
    9be4:	eaffff51 	b	9930 <_start@@Base+0xb58>
    9be8:	e3590000 	cmp	r9, #0
--
    a078:	e09a0004 	adds	r0, sl, r4
    a07c:	e1a03009 	mov	r3, r9
    a080:	e0255c97 	mla	r5, r7, ip, r5
    a084:	e0ab1005 	adc	r1, fp, r5
    a088:	eb000b62 	bl	ce18 <_start@@Base+0x4040>
    a08c:	e59d1064 	ldr	r1, [sp, #100]	; 0x64
    a090:	e1a02008 	mov	r2, r8
    a094:	e59de060 	ldr	lr, [sp, #96]	; 0x60
    a098:	e085479e 	umull	r4, r5, lr, r7
    a09c:	e58d002c 	str	r0, [sp, #44]	; 0x2c
    a0a0:	e09a0004 	adds	r0, sl, r4
    a0a4:	e1a03009 	mov	r3, r9
    a0a8:	e0255197 	mla	r5, r7, r1, r5
    a0ac:	e0ab1005 	adc	r1, fp, r5
    a0b0:	eb000b58 	bl	ce18 <_start@@Base+0x4040>
    a0b4:	e59d20a8 	ldr	r2, [sp, #168]	; 0xa8
    a0b8:	e58d0030 	str	r0, [sp, #48]	; 0x30
    a0bc:	e28d00c8 	add	r0, sp, #200	; 0xc8
    a0c0:	e59d1088 	ldr	r1, [sp, #136]	; 0x88
    a0c4:	e59d30a4 	ldr	r3, [sp, #164]	; 0xa4
[31m    a0c8:	ebfffab8 	bl	8bb0 <printf@plt>[0m
    a0cc:	e59d2084 	ldr	r2, [sp, #132]	; 0x84
    a0d0:	e2122020 	ands	r2, r2, #32
--
    a838:	e1cd07d8 	ldrd	r0, [sp, #120]	; 0x78
    a83c:	e1cd24d8 	ldrd	r2, [sp, #72]	; 0x48
    a840:	e0900004 	adds	r0, r0, r4
    a844:	e0a11005 	adc	r1, r1, r5
    a848:	eb000972 	bl	ce18 <_start@@Base+0x4040>
    a84c:	e59dc064 	ldr	ip, [sp, #100]	; 0x64
    a850:	e59db060 	ldr	fp, [sp, #96]	; 0x60
    a854:	e085499b 	umull	r4, r5, fp, r9
    a858:	e58d002c 	str	r0, [sp, #44]	; 0x2c
    a85c:	e1cd07d8 	ldrd	r0, [sp, #120]	; 0x78
    a860:	e0255c99 	mla	r5, r9, ip, r5
    a864:	e1cd24d8 	ldrd	r2, [sp, #72]	; 0x48
    a868:	e0900004 	adds	r0, r0, r4
    a86c:	e0a11005 	adc	r1, r1, r5
    a870:	eb000968 	bl	ce18 <_start@@Base+0x4040>
    a874:	e59d1090 	ldr	r1, [sp, #144]	; 0x90
    a878:	e58d0030 	str	r0, [sp, #48]	; 0x30
    a87c:	e28d00c8 	add	r0, sp, #200	; 0xc8
    a880:	e59d2098 	ldr	r2, [sp, #152]	; 0x98
    a884:	e59d30b8 	ldr	r3, [sp, #184]	; 0xb8
[31m    a888:	ebfff8c8 	bl	8bb0 <printf@plt>[0m
    a88c:	e59de0c4 	ldr	lr, [sp, #196]	; 0xc4
    a890:	e35e0000 	cmp	lr, #0
--
    a89c:	e28d4f43 	add	r4, sp, #268	; 0x10c
    a8a0:	e893000f 	ldm	r3, {r0, r1, r2, r3}
    a8a4:	e884000f 	stm	r4, {r0, r1, r2, r3}
    a8a8:	e28d1f9e 	add	r1, sp, #632	; 0x278
    a8ac:	e28d2e27 	add	r2, sp, #624	; 0x270
    a8b0:	e28d0d0a 	add	r0, sp, #640	; 0x280
    a8b4:	e081100a 	add	r1, r1, sl
    a8b8:	e082200a 	add	r2, r2, sl
    a8bc:	e080000a 	add	r0, r0, sl
    a8c0:	eb00039d 	bl	b73c <_start@@Base+0x2964>
    a8c4:	e5183030 	ldr	r3, [r8, #-48]	; 0xffffffd0
    a8c8:	e1a00004 	mov	r0, r4
    a8cc:	e5171030 	ldr	r1, [r7, #-48]	; 0xffffffd0
    a8d0:	e518e038 	ldr	lr, [r8, #-56]	; 0xffffffc8
    a8d4:	e5172038 	ldr	r2, [r7, #-56]	; 0xffffffc8
    a8d8:	e518c040 	ldr	ip, [r8, #-64]	; 0xffffffc0
    a8dc:	e0611003 	rsb	r1, r1, r3
    a8e0:	e5173040 	ldr	r3, [r7, #-64]	; 0xffffffc0
    a8e4:	e062200e 	rsb	r2, r2, lr
    a8e8:	e063300c 	rsb	r3, r3, ip
[31m    a8ec:	ebfff8af 	bl	8bb0 <printf@plt>[0m
    a8f0:	eafffe57 	b	a254 <_start@@Base+0x147c>
    a8f4:	e59d10ac 	ldr	r1, [sp, #172]	; 0xac
--
    a99c:	e30e3274 	movw	r3, #57972	; 0xe274
    a9a0:	e3403000 	movt	r3, #0
    a9a4:	e8930007 	ldm	r3, {r0, r1, r2}
    a9a8:	e28d3f43 	add	r3, sp, #268	; 0x10c
    a9ac:	e8a30003 	stmia	r3!, {r0, r1}
    a9b0:	e28d1e26 	add	r1, sp, #608	; 0x260
    a9b4:	e1a0c822 	lsr	ip, r2, #16
    a9b8:	e28d0f9a 	add	r0, sp, #616	; 0x268
    a9bc:	e0c320b2 	strh	r2, [r3], #2
    a9c0:	e081100a 	add	r1, r1, sl
    a9c4:	e5c3c000 	strb	ip, [r3]
    a9c8:	e080000a 	add	r0, r0, sl
    a9cc:	eb00039a 	bl	b83c <_start@@Base+0x2a64>
    a9d0:	e518c048 	ldr	ip, [r8, #-72]	; 0xffffffb8
    a9d4:	e28d0f43 	add	r0, sp, #268	; 0x10c
    a9d8:	e5171048 	ldr	r1, [r7, #-72]	; 0xffffffb8
    a9dc:	e5182050 	ldr	r2, [r8, #-80]	; 0xffffffb0
    a9e0:	e5173050 	ldr	r3, [r7, #-80]	; 0xffffffb0
    a9e4:	e061100c 	rsb	r1, r1, ip
    a9e8:	e0632002 	rsb	r2, r3, r2
[31m    a9ec:	ebfff86f 	bl	8bb0 <printf@plt>[0m
    a9f0:	eafffe17 	b	a254 <_start@@Base+0x147c>
    a9f4:	e30ee280 	movw	lr, #57984	; 0xe280
--
    aa20:	e28d0f96 	add	r0, sp, #600	; 0x258
    aa24:	e5cc1000 	strb	r1, [ip]
    aa28:	e28d1e25 	add	r1, sp, #592	; 0x250
    aa2c:	e081100a 	add	r1, r1, sl
    aa30:	e080000a 	add	r0, r0, sl
    aa34:	eb0003bd 	bl	b930 <_start@@Base+0x2b58>
    aa38:	e518e058 	ldr	lr, [r8, #-88]	; 0xffffffa8
    aa3c:	e28d0f43 	add	r0, sp, #268	; 0x10c
    aa40:	e517c060 	ldr	ip, [r7, #-96]	; 0xffffffa0
    aa44:	e5171058 	ldr	r1, [r7, #-88]	; 0xffffffa8
    aa48:	e5182060 	ldr	r2, [r8, #-96]	; 0xffffffa0
    aa4c:	e5183068 	ldr	r3, [r8, #-104]	; 0xffffff98
    aa50:	e5184070 	ldr	r4, [r8, #-112]	; 0xffffff90
    aa54:	e061100e 	rsb	r1, r1, lr
    aa58:	e06c2002 	rsb	r2, ip, r2
    aa5c:	e517e068 	ldr	lr, [r7, #-104]	; 0xffffff98
    aa60:	e517c070 	ldr	ip, [r7, #-112]	; 0xffffff90
    aa64:	e06e3003 	rsb	r3, lr, r3
    aa68:	e06cc004 	rsb	ip, ip, r4
    aa6c:	e58dc000 	str	ip, [sp]
[31m    aa70:	ebfff84e 	bl	8bb0 <printf@plt>[0m
    aa74:	eafffdf6 	b	a254 <_start@@Base+0x147c>
    aa78:	ebfff9a5 	bl	9114 <_start@@Base+0x33c>
--
    ab30:	eb0007b8 	bl	ca18 <_start@@Base+0x3c40>
    ab34:	e1a04000 	mov	r4, r0
    ab38:	e5960004 	ldr	r0, [r6, #4]
    ab3c:	eb0007b5 	bl	ca18 <_start@@Base+0x3c40>
    ab40:	e1a01000 	mov	r1, r0
    ab44:	e1a00004 	mov	r0, r4
    ab48:	eb000845 	bl	cc64 <_start@@Base+0x3e8c>
    ab4c:	e51f39b8 	ldr	r3, [pc, #-2488]	; a19c <_start@@Base+0x13c4>
    ab50:	e28d5e21 	add	r5, sp, #528	; 0x210
    ab54:	e28d7c02 	add	r7, sp, #512	; 0x200
    ab58:	e5933000 	ldr	r3, [r3]
    ab5c:	e3530004 	cmp	r3, #4
    ab60:	13a01000 	movne	r1, #0
    ab64:	03a015fe 	moveq	r1, #1065353216	; 0x3f800000
    ab68:	13441480 	movtne	r1, #17536	; 0x4480
    ab6c:	eb0007d6 	bl	cacc <_start@@Base+0x3cf4>
    ab70:	eb000893 	bl	cdc4 <_start@@Base+0x3fec>
    ab74:	e51f2994 	ldr	r2, [pc, #-2452]	; a1e8 <_start@@Base+0x1410>
    ab78:	e1a01000 	mov	r1, r0
    ab7c:	e51f09e4 	ldr	r0, [pc, #-2532]	; a1a0 <_start@@Base+0x13c8>
[31m    ab80:	ebfff80a 	bl	8bb0 <printf@plt>[0m
    ab84:	e51f39e8 	ldr	r3, [pc, #-2536]	; a1a4 <_start@@Base+0x13cc>
    ab88:	e5930000 	ldr	r0, [r3]
    ab8c:	eb0007a1 	bl	ca18 <_start@@Base+0x3c40>
    ab90:	e1a04000 	mov	r4, r0
    ab94:	e5960004 	ldr	r0, [r6, #4]
    ab98:	eb00079e 	bl	ca18 <_start@@Base+0x3c40>
    ab9c:	e1a01000 	mov	r1, r0
    aba0:	e1a00004 	mov	r0, r4
    aba4:	eb00082e 	bl	cc64 <_start@@Base+0x3e8c>
    aba8:	e5983000 	ldr	r3, [r8]
    abac:	e28d8c02 	add	r8, sp, #512	; 0x200
    abb0:	e3530004 	cmp	r3, #4
    abb4:	13a01000 	movne	r1, #0
    abb8:	03a015fe 	moveq	r1, #1065353216	; 0x3f800000
    abbc:	13441480 	movtne	r1, #17536	; 0x4480
    abc0:	eb0007c1 	bl	cacc <_start@@Base+0x3cf4>
    abc4:	eb00087e 	bl	cdc4 <_start@@Base+0x3fec>
    abc8:	e51f29e8 	ldr	r2, [pc, #-2536]	; a1e8 <_start@@Base+0x1410>
    abcc:	e1a01000 	mov	r1, r0
    abd0:	e51f0a30 	ldr	r0, [pc, #-2608]	; a1a8 <_start@@Base+0x13d0>
[31m    abd4:	ebfff7f5 	bl	8bb0 <printf@plt>[0m
    abd8:	e51f3a34 	ldr	r3, [pc, #-2612]	; a1ac <_start@@Base+0x13d4>
    abdc:	e5930000 	ldr	r0, [r3]
    abe0:	eb00078c 	bl	ca18 <_start@@Base+0x3c40>
    abe4:	e1a04000 	mov	r4, r0
    abe8:	e5960004 	ldr	r0, [r6, #4]
    abec:	eb000789 	bl	ca18 <_start@@Base+0x3c40>
    abf0:	e1a01000 	mov	r1, r0
    abf4:	e1a00004 	mov	r0, r4
    abf8:	eb000819 	bl	cc64 <_start@@Base+0x3e8c>
    abfc:	e5993000 	ldr	r3, [r9]
    ac00:	e28d9e1f 	add	r9, sp, #496	; 0x1f0
    ac04:	e3530004 	cmp	r3, #4
    ac08:	13a01000 	movne	r1, #0
    ac0c:	03a015fe 	moveq	r1, #1065353216	; 0x3f800000
    ac10:	13441480 	movtne	r1, #17536	; 0x4480
    ac14:	eb0007ac 	bl	cacc <_start@@Base+0x3cf4>
    ac18:	eb000869 	bl	cdc4 <_start@@Base+0x3fec>
    ac1c:	e51f2a3c 	ldr	r2, [pc, #-2620]	; a1e8 <_start@@Base+0x1410>
    ac20:	e1a01000 	mov	r1, r0
    ac24:	e51f0a7c 	ldr	r0, [pc, #-2684]	; a1b0 <_start@@Base+0x13d8>
[31m    ac28:	ebfff7e0 	bl	8bb0 <printf@plt>[0m
    ac2c:	e51f3a80 	ldr	r3, [pc, #-2688]	; a1b4 <_start@@Base+0x13dc>
    ac30:	e5930000 	ldr	r0, [r3]
    ac34:	eb000777 	bl	ca18 <_start@@Base+0x3c40>
    ac38:	e1a04000 	mov	r4, r0
    ac3c:	e5960004 	ldr	r0, [r6, #4]
    ac40:	eb000774 	bl	ca18 <_start@@Base+0x3c40>
    ac44:	e1a01000 	mov	r1, r0
    ac48:	e1a00004 	mov	r0, r4
    ac4c:	eb000804 	bl	cc64 <_start@@Base+0x3e8c>
    ac50:	e59a3000 	ldr	r3, [sl]
    ac54:	e28dae1f 	add	sl, sp, #496	; 0x1f0
    ac58:	e3530004 	cmp	r3, #4
    ac5c:	13a01000 	movne	r1, #0
    ac60:	03a015fe 	moveq	r1, #1065353216	; 0x3f800000
    ac64:	13441480 	movtne	r1, #17536	; 0x4480
    ac68:	eb000797 	bl	cacc <_start@@Base+0x3cf4>
    ac6c:	eb000854 	bl	cdc4 <_start@@Base+0x3fec>
    ac70:	e51f2a90 	ldr	r2, [pc, #-2704]	; a1e8 <_start@@Base+0x1410>
    ac74:	e1a01000 	mov	r1, r0
    ac78:	e51f0ac8 	ldr	r0, [pc, #-2760]	; a1b8 <_start@@Base+0x13e0>
[31m    ac7c:	ebfff7cb 	bl	8bb0 <printf@plt>[0m
    ac80:	e51f3acc 	ldr	r3, [pc, #-2764]	; a1bc <_start@@Base+0x13e4>
    ac84:	e5930000 	ldr	r0, [r3]
    ac88:	eb000762 	bl	ca18 <_start@@Base+0x3c40>
    ac8c:	e1a04000 	mov	r4, r0
    ac90:	e5960004 	ldr	r0, [r6, #4]
    ac94:	eb00075f 	bl	ca18 <_start@@Base+0x3c40>
    ac98:	e1a01000 	mov	r1, r0
    ac9c:	e1a00004 	mov	r0, r4
    aca0:	eb0007ef 	bl	cc64 <_start@@Base+0x3e8c>
    aca4:	e59b3000 	ldr	r3, [fp]
    aca8:	e28dbe1e 	add	fp, sp, #480	; 0x1e0
    acac:	e3530004 	cmp	r3, #4
    acb0:	13a01000 	movne	r1, #0
    acb4:	03a015fe 	moveq	r1, #1065353216	; 0x3f800000
    acb8:	13441480 	movtne	r1, #17536	; 0x4480
    acbc:	eb000782 	bl	cacc <_start@@Base+0x3cf4>
    acc0:	eb00083f 	bl	cdc4 <_start@@Base+0x3fec>
    acc4:	e51f2ae4 	ldr	r2, [pc, #-2788]	; a1e8 <_start@@Base+0x1410>
    acc8:	e1a01000 	mov	r1, r0
    accc:	e51f0b14 	ldr	r0, [pc, #-2836]	; a1c0 <_start@@Base+0x13e8>
[31m    acd0:	ebfff7b6 	bl	8bb0 <printf@plt>[0m
    acd4:	e51f3b18 	ldr	r3, [pc, #-2840]	; a1c4 <_start@@Base+0x13ec>
    acd8:	e5930000 	ldr	r0, [r3]
    acdc:	eb00074d 	bl	ca18 <_start@@Base+0x3c40>
    ace0:	e1a04000 	mov	r4, r0
    ace4:	e5960004 	ldr	r0, [r6, #4]
    ace8:	eb00074a 	bl	ca18 <_start@@Base+0x3c40>
    acec:	e1a01000 	mov	r1, r0
    acf0:	e1a00004 	mov	r0, r4
    acf4:	eb0007da 	bl	cc64 <_start@@Base+0x3e8c>
    acf8:	e307c23c 	movw	ip, #29244	; 0x723c
    acfc:	e340c001 	movt	ip, #1
    ad00:	e59c3000 	ldr	r3, [ip]
    ad04:	e3530004 	cmp	r3, #4
    ad08:	13a01000 	movne	r1, #0
    ad0c:	03a015fe 	moveq	r1, #1065353216	; 0x3f800000
    ad10:	13441480 	movtne	r1, #17536	; 0x4480
    ad14:	eb00076c 	bl	cacc <_start@@Base+0x3cf4>
    ad18:	eb000829 	bl	cdc4 <_start@@Base+0x3fec>
    ad1c:	e51f2b3c 	ldr	r2, [pc, #-2876]	; a1e8 <_start@@Base+0x1410>
    ad20:	e1a01000 	mov	r1, r0
    ad24:	e51f0b64 	ldr	r0, [pc, #-2916]	; a1c8 <_start@@Base+0x13f0>
[31m    ad28:	ebfff7a0 	bl	8bb0 <printf@plt>[0m
    ad2c:	e51f3b68 	ldr	r3, [pc, #-2920]	; a1cc <_start@@Base+0x13f4>
    ad30:	e5930000 	ldr	r0, [r3]
    ad34:	eb000737 	bl	ca18 <_start@@Base+0x3c40>
    ad38:	e1a04000 	mov	r4, r0
    ad3c:	e5960004 	ldr	r0, [r6, #4]
    ad40:	eb000734 	bl	ca18 <_start@@Base+0x3c40>
    ad44:	e1a01000 	mov	r1, r0
    ad48:	e1a00004 	mov	r0, r4
    ad4c:	eb0007c4 	bl	cc64 <_start@@Base+0x3e8c>
    ad50:	e307e23c 	movw	lr, #29244	; 0x723c
    ad54:	e340e001 	movt	lr, #1
    ad58:	e59e3000 	ldr	r3, [lr]
    ad5c:	e3530004 	cmp	r3, #4
    ad60:	13a01000 	movne	r1, #0
    ad64:	03a015fe 	moveq	r1, #1065353216	; 0x3f800000
    ad68:	13441480 	movtne	r1, #17536	; 0x4480
    ad6c:	eb000756 	bl	cacc <_start@@Base+0x3cf4>
    ad70:	eb000813 	bl	cdc4 <_start@@Base+0x3fec>
    ad74:	e51f2b94 	ldr	r2, [pc, #-2964]	; a1e8 <_start@@Base+0x1410>
    ad78:	e1a01000 	mov	r1, r0
    ad7c:	e51f0bb4 	ldr	r0, [pc, #-2996]	; a1d0 <_start@@Base+0x13f8>
[31m    ad80:	ebfff78a 	bl	8bb0 <printf@plt>[0m
    ad84:	e51f3bb8 	ldr	r3, [pc, #-3000]	; a1d4 <_start@@Base+0x13fc>
    ad88:	e5930000 	ldr	r0, [r3]
    ad8c:	eb000721 	bl	ca18 <_start@@Base+0x3c40>
    ad90:	e1a04000 	mov	r4, r0
    ad94:	e5960004 	ldr	r0, [r6, #4]
    ad98:	eb00071e 	bl	ca18 <_start@@Base+0x3c40>
    ad9c:	e1a01000 	mov	r1, r0
    ada0:	e1a00004 	mov	r0, r4
    ada4:	eb0007ae 	bl	cc64 <_start@@Base+0x3e8c>
    ada8:	e307123c 	movw	r1, #29244	; 0x723c
    adac:	e3401001 	movt	r1, #1
    adb0:	e5913000 	ldr	r3, [r1]
    adb4:	e3530004 	cmp	r3, #4
    adb8:	13a01000 	movne	r1, #0
    adbc:	03a015fe 	moveq	r1, #1065353216	; 0x3f800000
    adc0:	13441480 	movtne	r1, #17536	; 0x4480
    adc4:	eb000740 	bl	cacc <_start@@Base+0x3cf4>
    adc8:	eb0007fd 	bl	cdc4 <_start@@Base+0x3fec>
    adcc:	e51f2bec 	ldr	r2, [pc, #-3052]	; a1e8 <_start@@Base+0x1410>
    add0:	e1a01000 	mov	r1, r0
    add4:	e51f0c04 	ldr	r0, [pc, #-3076]	; a1d8 <_start@@Base+0x1400>
[31m    add8:	ebfff774 	bl	8bb0 <printf@plt>[0m
    addc:	e51f3c08 	ldr	r3, [pc, #-3080]	; a1dc <_start@@Base+0x1404>
    ade0:	e5930000 	ldr	r0, [r3]
    ade4:	eb00070b 	bl	ca18 <_start@@Base+0x3c40>
    ade8:	e1a04000 	mov	r4, r0
    adec:	e5960004 	ldr	r0, [r6, #4]
    adf0:	eb000708 	bl	ca18 <_start@@Base+0x3c40>
    adf4:	e1a01000 	mov	r1, r0
    adf8:	e1a00004 	mov	r0, r4
    adfc:	eb000798 	bl	cc64 <_start@@Base+0x3e8c>
    ae00:	e307223c 	movw	r2, #29244	; 0x723c
    ae04:	e3402001 	movt	r2, #1
    ae08:	e5923000 	ldr	r3, [r2]
    ae0c:	e3530004 	cmp	r3, #4
    ae10:	13a01000 	movne	r1, #0
    ae14:	03a015fe 	moveq	r1, #1065353216	; 0x3f800000
    ae18:	13441480 	movtne	r1, #17536	; 0x4480
    ae1c:	eb00072a 	bl	cacc <_start@@Base+0x3cf4>
    ae20:	eb0007e7 	bl	cdc4 <_start@@Base+0x3fec>
    ae24:	e51f2c44 	ldr	r2, [pc, #-3140]	; a1e8 <_start@@Base+0x1410>
    ae28:	e1a01000 	mov	r1, r0
    ae2c:	e51f0c54 	ldr	r0, [pc, #-3156]	; a1e0 <_start@@Base+0x1408>
[31m    ae30:	ebfff75e 	bl	8bb0 <printf@plt>[0m
    ae34:	e51f3c58 	ldr	r3, [pc, #-3160]	; a1e4 <_start@@Base+0x140c>
    ae38:	e5930000 	ldr	r0, [r3]
    ae3c:	eb0006f5 	bl	ca18 <_start@@Base+0x3c40>
    ae40:	e1a04000 	mov	r4, r0
    ae44:	e5960004 	ldr	r0, [r6, #4]
    ae48:	eb0006f2 	bl	ca18 <_start@@Base+0x3c40>
    ae4c:	e1a01000 	mov	r1, r0
    ae50:	e1a00004 	mov	r0, r4
    ae54:	e307423c 	movw	r4, #29244	; 0x723c
    ae58:	e3404001 	movt	r4, #1
    ae5c:	eb000780 	bl	cc64 <_start@@Base+0x3e8c>
    ae60:	e5943000 	ldr	r3, [r4]
    ae64:	e3530004 	cmp	r3, #4
    ae68:	13a01000 	movne	r1, #0
    ae6c:	03a015fe 	moveq	r1, #1065353216	; 0x3f800000
    ae70:	13441480 	movtne	r1, #17536	; 0x4480
    ae74:	eb000714 	bl	cacc <_start@@Base+0x3cf4>
    ae78:	eb0007d1 	bl	cdc4 <_start@@Base+0x3fec>
    ae7c:	e51f2c9c 	ldr	r2, [pc, #-3228]	; a1e8 <_start@@Base+0x1410>
    ae80:	e1a01000 	mov	r1, r0
    ae84:	e51f0ca0 	ldr	r0, [pc, #-3232]	; a1ec <_start@@Base+0x1414>
[31m    ae88:	ebfff748 	bl	8bb0 <printf@plt>[0m
    ae8c:	e14520d8 	ldrd	r2, [r5, #-8]
    ae90:	e51f0ca8 	ldr	r0, [pc, #-3240]	; a1f0 <_start@@Base+0x1418>
[31m    ae94:	ebfff745 	bl	8bb0 <printf@plt>[0m
    ae98:	e1c720d0 	ldrd	r2, [r7]
    ae9c:	e51f0cb0 	ldr	r0, [pc, #-3248]	; a1f4 <_start@@Base+0x141c>
[31m    aea0:	ebfff742 	bl	8bb0 <printf@plt>[0m
    aea4:	e14820d8 	ldrd	r2, [r8, #-8]
    aea8:	e51f0cb8 	ldr	r0, [pc, #-3256]	; a1f8 <_start@@Base+0x1420>
[31m    aeac:	ebfff73f 	bl	8bb0 <printf@plt>[0m
    aeb0:	e1c920d0 	ldrd	r2, [r9]
    aeb4:	e51f0cc0 	ldr	r0, [pc, #-3264]	; a1fc <_start@@Base+0x1424>
[31m    aeb8:	ebfff73c 	bl	8bb0 <printf@plt>[0m
    aebc:	e14a20d8 	ldrd	r2, [sl, #-8]
    aec0:	e51f0cc8 	ldr	r0, [pc, #-3272]	; a200 <_start@@Base+0x1428>
[31m    aec4:	ebfff739 	bl	8bb0 <printf@plt>[0m
    aec8:	e1cb20d0 	ldrd	r2, [fp]
    aecc:	e51f0cd0 	ldr	r0, [pc, #-3280]	; a204 <_start@@Base+0x142c>
[31m    aed0:	ebfff736 	bl	8bb0 <printf@plt>[0m
    aed4:	e28dce1e 	add	ip, sp, #480	; 0x1e0
    aed8:	e51f0cd8 	ldr	r0, [pc, #-3288]	; a208 <_start@@Base+0x1430>
    aedc:	e14c20d8 	ldrd	r2, [ip, #-8]
[31m    aee0:	ebfff732 	bl	8bb0 <printf@plt>[0m
    aee4:	e28dee1d 	add	lr, sp, #464	; 0x1d0
    aee8:	e51f0ce4 	ldr	r0, [pc, #-3300]	; a20c <_start@@Base+0x1434>
    aeec:	e1ce20d0 	ldrd	r2, [lr]
[31m    aef0:	ebfff72e 	bl	8bb0 <printf@plt>[0m
    aef4:	e59d129c 	ldr	r1, [sp, #668]	; 0x29c
    aef8:	e51f0cf0 	ldr	r0, [pc, #-3312]	; a210 <_start@@Base+0x1438>
[31m    aefc:	ebfff72b 	bl	8bb0 <printf@plt>[0m
    af00:	e59d1298 	ldr	r1, [sp, #664]	; 0x298
    af04:	e51f0cf8 	ldr	r0, [pc, #-3320]	; a214 <_start@@Base+0x143c>
[31m    af08:	ebfff728 	bl	8bb0 <printf@plt>[0m
    af0c:	e59d1294 	ldr	r1, [sp, #660]	; 0x294
    af10:	e51f0d00 	ldr	r0, [pc, #-3328]	; a218 <_start@@Base+0x1440>
[31m    af14:	ebfff725 	bl	8bb0 <printf@plt>[0m
    af18:	e59d1290 	ldr	r1, [sp, #656]	; 0x290
    af1c:	e51f0d08 	ldr	r0, [pc, #-3336]	; a21c <_start@@Base+0x1444>
[31m    af20:	ebfff722 	bl	8bb0 <printf@plt>[0m
    af24:	e59d1288 	ldr	r1, [sp, #648]	; 0x288
    af28:	e51f0d10 	ldr	r0, [pc, #-3344]	; a220 <_start@@Base+0x1448>
[31m    af2c:	ebfff71f 	bl	8bb0 <printf@plt>[0m
    af30:	e59d128c 	ldr	r1, [sp, #652]	; 0x28c
    af34:	e51f0d18 	ldr	r0, [pc, #-3352]	; a224 <_start@@Base+0x144c>
[31m    af38:	ebfff71c 	bl	8bb0 <printf@plt>[0m
    af3c:	e59d12a4 	ldr	r1, [sp, #676]	; 0x2a4
    af40:	e51f0d20 	ldr	r0, [pc, #-3360]	; a228 <_start@@Base+0x1450>
[31m    af44:	ebfff719 	bl	8bb0 <printf@plt>[0m
    af48:	e59d12a0 	ldr	r1, [sp, #672]	; 0x2a0
    af4c:	e51f0d28 	ldr	r0, [pc, #-3368]	; a22c <_start@@Base+0x1454>
[31m    af50:	ebfff716 	bl	8bb0 <printf@plt>[0m
    af54:	eafffaa3 	b	99e8 <_start@@Base+0xc10>
    af58:	e51fed30 	ldr	lr, [pc, #-3376]	; a230 <_start@@Base+0x1458>
--
    b028:	e5908028 	ldr	r8, [r0, #40]	; 0x28
    b02c:	159dc06c 	ldrne	ip, [sp, #108]	; 0x6c
    b030:	1089c99c 	umullne	ip, r9, ip, r9
    b034:	e590c030 	ldr	ip, [r0, #48]	; 0x30
    b038:	11a09329 	lsrne	r9, r9, #6
    b03c:	e1cda0f0 	strd	sl, [sp]
    b040:	e1cda4d8 	ldrd	sl, [sp, #72]	; 0x48
    b044:	e35c0000 	cmp	ip, #0
    b048:	e58de00c 	str	lr, [sp, #12]
    b04c:	159d006c 	ldrne	r0, [sp, #108]	; 0x6c
    b050:	108c0c90 	umullne	r0, ip, r0, ip
    b054:	e1cda1f8 	strd	sl, [sp, #24]
    b058:	11a0c32c 	lsrne	ip, ip, #6
    b05c:	e59db060 	ldr	fp, [sp, #96]	; 0x60
    b060:	e59d0070 	ldr	r0, [sp, #112]	; 0x70
    b064:	e58dc028 	str	ip, [sp, #40]	; 0x28
    b068:	e58d7008 	str	r7, [sp, #8]
    b06c:	e58d8010 	str	r8, [sp, #16]
    b070:	e58db020 	str	fp, [sp, #32]
    b074:	e58d9024 	str	r9, [sp, #36]	; 0x24
[31m    b078:	ebfff6cc 	bl	8bb0 <printf@plt>[0m
    b07c:	e307c210 	movw	ip, #29200	; 0x7210
    b080:	e340c001 	movt	ip, #1
--
    b17c:	e1cda5d0 	ldrd	sl, [sp, #80]	; 0x50
    b180:	159dc06c 	ldrne	ip, [sp, #108]	; 0x6c
    b184:	1089c99c 	umullne	ip, r9, ip, r9
    b188:	e590c030 	ldr	ip, [r0, #48]	; 0x30
    b18c:	11a09329 	lsrne	r9, r9, #6
    b190:	e1cda0f0 	strd	sl, [sp]
    b194:	e1cda4d8 	ldrd	sl, [sp, #72]	; 0x48
    b198:	e35c0000 	cmp	ip, #0
    b19c:	e58de00c 	str	lr, [sp, #12]
    b1a0:	159d006c 	ldrne	r0, [sp, #108]	; 0x6c
    b1a4:	108c0c90 	umullne	r0, ip, r0, ip
    b1a8:	e1cda1f8 	strd	sl, [sp, #24]
    b1ac:	11a0c32c 	lsrne	ip, ip, #6
    b1b0:	e59db088 	ldr	fp, [sp, #136]	; 0x88
    b1b4:	e59d0060 	ldr	r0, [sp, #96]	; 0x60
    b1b8:	e58dc028 	str	ip, [sp, #40]	; 0x28
    b1bc:	e58d7008 	str	r7, [sp, #8]
    b1c0:	e58d8010 	str	r8, [sp, #16]
    b1c4:	e58db020 	str	fp, [sp, #32]
    b1c8:	e58d9024 	str	r9, [sp, #36]	; 0x24
[31m    b1cc:	ebfff677 	bl	8bb0 <printf@plt>[0m
    b1d0:	e307c210 	movw	ip, #29200	; 0x7210
    b1d4:	e340c001 	movt	ip, #1
--
    b298:	ebfff668 	bl	8c40 <sleep@plt>
    b29c:	e1a0000b 	mov	r0, fp
    b2a0:	eb0004cd 	bl	c5dc <_start@@Base+0x3804>
    b2a4:	e2507000 	subs	r7, r0, #0
    b2a8:	0a00001e 	beq	b328 <_start@@Base+0x2550>
    b2ac:	e1a05009 	mov	r5, r9
    b2b0:	e3a04000 	mov	r4, #0
    b2b4:	ea00000e 	b	b2f4 <_start@@Base+0x251c>
    b2b8:	e59dc28c 	ldr	ip, [sp, #652]	; 0x28c
    b2bc:	e1a00008 	mov	r0, r8
    b2c0:	e2855001 	add	r5, r5, #1
    b2c4:	e08cc304 	add	ip, ip, r4, lsl #6
    b2c8:	e2844001 	add	r4, r4, #1
    b2cc:	e59ce038 	ldr	lr, [ip, #56]	; 0x38
    b2d0:	e1a0100c 	mov	r1, ip
    b2d4:	e59c2030 	ldr	r2, [ip, #48]	; 0x30
    b2d8:	e59c3034 	ldr	r3, [ip, #52]	; 0x34
    b2dc:	e58de000 	str	lr, [sp]
    b2e0:	e59cc03c 	ldr	ip, [ip, #60]	; 0x3c
    b2e4:	e58dc004 	str	ip, [sp, #4]
[31m    b2e8:	ebfff630 	bl	8bb0 <printf@plt>[0m
    b2ec:	e1570004 	cmp	r7, r4
    b2f0:	9a00000b 	bls	b324 <_start@@Base+0x254c>
--
    b344:	3affffd2 	bcc	b294 <_start@@Base+0x24bc>
    b348:	eafff9a6 	b	99e8 <_start@@Base+0xc10>
    b34c:	e59dc084 	ldr	ip, [sp, #132]	; 0x84
    b350:	e35c0040 	cmp	ip, #64	; 0x40
    b354:	0afffa25 	beq	9bf0 <_start@@Base+0xe18>
    b358:	e35c0080 	cmp	ip, #128	; 0x80
    b35c:	0afffa23 	beq	9bf0 <_start@@Base+0xe18>
    b360:	ebfff6d1 	bl	8eac <_start@@Base+0xd4>
    b364:	e59f321c 	ldr	r3, [pc, #540]	; b588 <_start@@Base+0x27b0>
    b368:	e28d4f43 	add	r4, sp, #268	; 0x10c
    b36c:	e893000f 	ldm	r3, {r0, r1, r2, r3}
    b370:	e884000f 	stm	r4, {r0, r1, r2, r3}
    b374:	e28d1f9e 	add	r1, sp, #632	; 0x278
    b378:	e28d2e27 	add	r2, sp, #624	; 0x270
    b37c:	e28d0d0a 	add	r0, sp, #640	; 0x280
    b380:	eb0000ed 	bl	b73c <_start@@Base+0x2964>
    b384:	e1a00004 	mov	r0, r4
    b388:	e59d1280 	ldr	r1, [sp, #640]	; 0x280
    b38c:	e59d2278 	ldr	r2, [sp, #632]	; 0x278
    b390:	e59d3270 	ldr	r3, [sp, #624]	; 0x270
[31m    b394:	ebfff605 	bl	8bb0 <printf@plt>[0m
    b398:	eafffb55 	b	a0f4 <_start@@Base+0x131c>
    b39c:	eb000688 	bl	cdc4 <_start@@Base+0x3fec>
--
    b40c:	e58d00a4 	str	r0, [sp, #164]	; 0xa4
    b410:	e5940000 	ldr	r0, [r4]
    b414:	eb00057f 	bl	ca18 <_start@@Base+0x3c40>
    b418:	e1a01005 	mov	r1, r5
    b41c:	eb000610 	bl	cc64 <_start@@Base+0x3e8c>
    b420:	e3a015fe 	mov	r1, #1065353216	; 0x3f800000
    b424:	eafffa7d 	b	9e20 <_start@@Base+0x1048>
    b428:	e59f3160 	ldr	r3, [pc, #352]	; b590 <_start@@Base+0x27b8>
    b42c:	e28dcf43 	add	ip, sp, #268	; 0x10c
    b430:	e8930007 	ldm	r3, {r0, r1, r2}
    b434:	e8ac0003 	stmia	ip!, {r0, r1}
    b438:	e28d1e26 	add	r1, sp, #608	; 0x260
    b43c:	e1a03822 	lsr	r3, r2, #16
    b440:	e0cc20b2 	strh	r2, [ip], #2
    b444:	e28d0f9a 	add	r0, sp, #616	; 0x268
    b448:	e5cc3000 	strb	r3, [ip]
    b44c:	eb0000fa 	bl	b83c <_start@@Base+0x2a64>
    b450:	e28d0f43 	add	r0, sp, #268	; 0x10c
    b454:	e59d1268 	ldr	r1, [sp, #616]	; 0x268
    b458:	e59d2260 	ldr	r2, [sp, #608]	; 0x260
[31m    b45c:	ebfff5d3 	bl	8bb0 <printf@plt>[0m
    b460:	eafffb23 	b	a0f4 <_start@@Base+0x131c>
    b464:	e59f0128 	ldr	r0, [pc, #296]	; b594 <_start@@Base+0x27bc>
    b468:	ebfff5ee 	bl	8c28 <puts@plt>
    b46c:	eafff95d 	b	99e8 <_start@@Base+0xc10>
    b470:	e59fc120 	ldr	ip, [pc, #288]	; b598 <_start@@Base+0x27c0>
    b474:	e28def43 	add	lr, sp, #268	; 0x10c
    b478:	e8bc000f 	ldm	ip!, {r0, r1, r2, r3}
    b47c:	e8ae000f 	stmia	lr!, {r0, r1, r2, r3}
    b480:	e28d2f92 	add	r2, sp, #584	; 0x248
    b484:	e89c0003 	ldm	ip, {r0, r1}
    b488:	e28d3d09 	add	r3, sp, #576	; 0x240
    b48c:	e48e0004 	str	r0, [lr], #4
    b490:	e28d0f96 	add	r0, sp, #600	; 0x258
    b494:	e5ce1000 	strb	r1, [lr]
    b498:	e28d1e25 	add	r1, sp, #592	; 0x250
    b49c:	eb000123 	bl	b930 <_start@@Base+0x2b58>
    b4a0:	e59dc240 	ldr	ip, [sp, #576]	; 0x240
    b4a4:	e28d0f43 	add	r0, sp, #268	; 0x10c
    b4a8:	e59d1258 	ldr	r1, [sp, #600]	; 0x258
    b4ac:	e59d2250 	ldr	r2, [sp, #592]	; 0x250
    b4b0:	e59d3248 	ldr	r3, [sp, #584]	; 0x248
    b4b4:	e58dc000 	str	ip, [sp]
[31m    b4b8:	ebfff5bc 	bl	8bb0 <printf@plt>[0m
    b4bc:	eafffb0c 	b	a0f4 <_start@@Base+0x131c>
    b4c0:	e59f30d4 	ldr	r3, [pc, #212]	; b59c <_start@@Base+0x27c4>

[0m
[[0;33m*[0m] Function [0;33mprintf[0m used [0;33m65[0m times [0;33mvmstat[0m

