[[0;33m*[0m] Binary protection state of [0;33mlibshared.so.svn-base[0m
[REF] s12

  	RELRO          CANARY            NX           PIE       RPATH        RUNPATH      SYMBOLS      
  	[31mNo RELRO[0m       [31mNo Canary found[0m   [32mNX enabled[0m   [33mDSO[0m          [32mNo RPATH[0m     [32mNo RUNPATH[0m   [32mNo Symbols[0m

[0m
[[0;33m*[0m] Function [0;33msprintf[0m tear down of [0;33mlibshared.so.svn-base[0m

    5b10:	e1a00004 	mov	r0, r4
    5b14:	ebfff36e 	bl	28d4 <strcpy@plt>
    5b18:	e1a00004 	mov	r0, r4
    5b1c:	ebfff471 	bl	2ce8 <strlen@plt>
    5b20:	e1a01007 	mov	r1, r7
    5b24:	e0840000 	add	r0, r4, r0
    5b28:	e3a0200a 	mov	r2, #10
    5b2c:	ebfff398 	bl	2994 <memcpy@plt>
    5b30:	e59dc014 	ldr	ip, [sp, #20]
    5b34:	e1a00004 	mov	r0, r4
    5b38:	e085100c 	add	r1, r5, ip
    5b3c:	ebfff3df 	bl	2ac0 <nvram_set@plt>
    5b40:	e2888001 	add	r8, r8, #1
    5b44:	e3580c01 	cmp	r8, #256	; 0x100
    5b48:	0a000081 	beq	5d54 <convert_deprecated+0x644>
    5b4c:	e59d3004 	ldr	r3, [sp, #4]
    5b50:	e1a02008 	mov	r2, r8
    5b54:	e1a00006 	mov	r0, r6
    5b58:	e085a00b 	add	sl, r5, fp
    5b5c:	e0851003 	add	r1, r5, r3
[31m    5b60:	ebfff436 	bl	2c40 <sprintf@plt>[0m
    5b64:	e1a01006 	mov	r1, r6
    5b68:	e1a00004 	mov	r0, r4
--
    6320:	e28d6c01 	add	r6, sp, #256	; 0x100
    6324:	e59f90d0 	ldr	r9, [pc, #208]	; 63fc <get_pid_by_name+0x108>
    6328:	e1a0800d 	mov	r8, sp
    632c:	e085a00a 	add	sl, r5, sl
    6330:	e0859009 	add	r9, r5, r9
    6334:	e1a00004 	mov	r0, r4
    6338:	ebfff1bc 	bl	2a30 <readdir@plt>
    633c:	e2507000 	subs	r7, r0, #0
    6340:	0a000022 	beq	63d0 <get_pid_by_name+0xdc>
    6344:	ebfff249 	bl	2c70 <__ctype_b_loc@plt>
    6348:	e5d7300b 	ldrb	r3, [r7, #11]
    634c:	e5902000 	ldr	r2, [r0]
    6350:	e1a03083 	lsl	r3, r3, #1
    6354:	e19230b3 	ldrh	r3, [r2, r3]
    6358:	e3130008 	tst	r3, #8
    635c:	0afffff4 	beq	6334 <get_pid_by_name+0x40>
    6360:	e287700b 	add	r7, r7, #11
    6364:	e1a0100a 	mov	r1, sl
    6368:	e1a02007 	mov	r2, r7
    636c:	e1a00006 	mov	r0, r6
[31m    6370:	ebfff232 	bl	2c40 <sprintf@plt>[0m
    6374:	e1a01009 	mov	r1, r9
    6378:	e1a00006 	mov	r0, r6
--
    6484:	13a00000 	movne	r0, #0
    6488:	03a00001 	moveq	r0, #1
    648c:	eafffff9 	b	6478 <ether_atoe+0x74>

00006490 <ether_etoa>:
    6490:	e92d4ff8 	push	{r3, r4, r5, r6, r7, r8, r9, sl, fp, lr}
    6494:	e1a0b001 	mov	fp, r1
    6498:	e59f3074 	ldr	r3, [pc, #116]	; 6514 <ether_etoa+0x84>
    649c:	e1a0a000 	mov	sl, r0
    64a0:	e1a05001 	mov	r5, r1
    64a4:	e3a07001 	mov	r7, #1
    64a8:	e59f8068 	ldr	r8, [pc, #104]	; 6518 <ether_etoa+0x88>
    64ac:	e3a04000 	mov	r4, #0
    64b0:	e08f3003 	add	r3, pc, r3
    64b4:	e3a0903a 	mov	r9, #58	; 0x3a
    64b8:	e0838008 	add	r8, r3, r8
    64bc:	ea000008 	b	64e4 <ether_etoa+0x54>
    64c0:	e4c69001 	strb	r9, [r6], #1
    64c4:	e1a00006 	mov	r0, r6
    64c8:	e7da2004 	ldrb	r2, [sl, r4]
[31m    64cc:	ebfff1db 	bl	2c40 <sprintf@plt>[0m
    64d0:	e3570005 	cmp	r7, #5
    64d4:	e0865000 	add	r5, r6, r0
    64d8:	ca00000b 	bgt	650c <ether_etoa+0x7c>
    64dc:	e2844001 	add	r4, r4, #1
    64e0:	e2877001 	add	r7, r7, #1
    64e4:	e3540000 	cmp	r4, #0
    64e8:	e1a06005 	mov	r6, r5
    64ec:	e1a01008 	mov	r1, r8
    64f0:	e1a00005 	mov	r0, r5
    64f4:	1afffff1 	bne	64c0 <ether_etoa+0x30>
    64f8:	e1a01008 	mov	r1, r8
    64fc:	e7da2004 	ldrb	r2, [sl, r4]
[31m    6500:	ebfff1ce 	bl	2c40 <sprintf@plt>[0m
    6504:	e0855000 	add	r5, r5, r0
    6508:	eafffff3 	b	64dc <ether_etoa+0x4c>
--
    8610:	e58d2008 	str	r2, [sp, #8]
    8614:	e58de00c 	str	lr, [sp, #12]
    8618:	e1a0e005 	mov	lr, r5
    861c:	e893000f 	ldm	r3, {r0, r1, r2, r3}
    8620:	e8ae0007 	stmia	lr!, {r0, r1, r2}
    8624:	e1a0000c 	mov	r0, ip
    8628:	e1a0c823 	lsr	ip, r3, #16
    862c:	e1ce30b0 	strh	r3, [lr]
    8630:	e1a01007 	mov	r1, r7
    8634:	e5c5c00e 	strb	ip, [r5, #14]
    8638:	ebffe97d 	bl	2c34 <ether_etoa@plt>
    863c:	e59f30e8 	ldr	r3, [pc, #232]	; 872c <get_wlname_by_mac+0x150>
    8640:	e08b3003 	add	r3, fp, r3
    8644:	e58d3000 	str	r3, [sp]
    8648:	e59f30e0 	ldr	r3, [pc, #224]	; 8730 <get_wlname_by_mac+0x154>
    864c:	e08b3003 	add	r3, fp, r3
    8650:	e58d3004 	str	r3, [sp, #4]
    8654:	e59d1000 	ldr	r1, [sp]
    8658:	e1a02006 	mov	r2, r6
    865c:	e1a00008 	mov	r0, r8
[31m    8660:	ebffe976 	bl	2c40 <sprintf@plt>[0m
    8664:	e59d1004 	ldr	r1, [sp, #4]
    8668:	e1a02006 	mov	r2, r6
    866c:	e1a00005 	mov	r0, r5
[31m    8670:	ebffe972 	bl	2c40 <sprintf@plt>[0m
    8674:	e1a00005 	mov	r0, r5
    8678:	ebffe94f 	bl	2bbc <nvram_get@plt>
    867c:	e3500000 	cmp	r0, #0
    8680:	0a000004 	beq	8698 <get_wlname_by_mac+0xbc>
    8684:	e1a01007 	mov	r1, r7
    8688:	e3a02012 	mov	r2, #18
    868c:	ebffe8f0 	bl	2a54 <strncasecmp@plt>
    8690:	e3500000 	cmp	r0, #0
    8694:	0a00001e 	beq	8714 <get_wlname_by_mac+0x138>
    8698:	e59d2008 	ldr	r2, [sp, #8]
    869c:	e3a04001 	mov	r4, #1
    86a0:	e59d300c 	ldr	r3, [sp, #12]
    86a4:	e08ba002 	add	sl, fp, r2
    86a8:	e08b9003 	add	r9, fp, r3
    86ac:	e1a03004 	mov	r3, r4
    86b0:	e1a0100a 	mov	r1, sl
    86b4:	e1a02006 	mov	r2, r6
    86b8:	e1a00008 	mov	r0, r8
[31m    86bc:	ebffe95f 	bl	2c40 <sprintf@plt>[0m
    86c0:	e1a01009 	mov	r1, r9
    86c4:	e1a02006 	mov	r2, r6
    86c8:	e1a03004 	mov	r3, r4
    86cc:	e1a00005 	mov	r0, r5
[31m    86d0:	ebffe95a 	bl	2c40 <sprintf@plt>[0m
    86d4:	e1a00005 	mov	r0, r5
    86d8:	ebffe937 	bl	2bbc <nvram_get@plt>
--
    88a8:	1a000012 	bne	88f8 <get_ifname_by_wlmac+0x168>
    88ac:	e59d0008 	ldr	r0, [sp, #8]
    88b0:	ebffe8c1 	bl	2bbc <nvram_get@plt>
    88b4:	e1a0b000 	mov	fp, r0
    88b8:	e59d000c 	ldr	r0, [sp, #12]
    88bc:	ebffe8be 	bl	2bbc <nvram_get@plt>
    88c0:	e2509000 	subs	r9, r0, #0
    88c4:	e1a01007 	mov	r1, r7
    88c8:	e1a0000b 	mov	r0, fp
    88cc:	0a000007 	beq	88f0 <get_ifname_by_wlmac+0x160>
    88d0:	ebffe7f9 	bl	28bc <find_in_list@plt>
    88d4:	e3500000 	cmp	r0, #0
    88d8:	e1a01006 	mov	r1, r6
    88dc:	e1a0000b 	mov	r0, fp
    88e0:	1affffc7 	bne	8804 <get_ifname_by_wlmac+0x74>
    88e4:	ebffe7f4 	bl	28bc <find_in_list@plt>
    88e8:	e3500000 	cmp	r0, #0
    88ec:	1affffc4 	bne	8804 <get_ifname_by_wlmac+0x74>
    88f0:	e2888001 	add	r8, r8, #1
    88f4:	eaffffe7 	b	8898 <get_ifname_by_wlmac+0x108>
[31m    88f8:	ebffe8d0 	bl	2c40 <sprintf@plt>[0m
    88fc:	e59d1004 	ldr	r1, [sp, #4]
    8900:	e3a02001 	mov	r2, #1
    8904:	e1a00005 	mov	r0, r5
[31m    8908:	ebffe8cc 	bl	2c40 <sprintf@plt>[0m
    890c:	e1a0000a 	mov	r0, sl
    8910:	ebffe8a9 	bl	2bbc <nvram_get@plt>
--
    9718:	ebffe4b8 	bl	2a00 <strtoul@plt>
    971c:	e59d1028 	ldr	r1, [sp, #40]	; 0x28
    9720:	e586000c 	str	r0, [r6, #12]
    9724:	e59d001c 	ldr	r0, [sp, #28]
    9728:	ebffe469 	bl	28d4 <strcpy@plt>
    972c:	e59d001c 	ldr	r0, [sp, #28]
    9730:	ebffe56c 	bl	2ce8 <strlen@plt>
    9734:	e59dc01c 	ldr	ip, [sp, #28]
    9738:	e3a02004 	mov	r2, #4
    973c:	e0841005 	add	r1, r4, r5
    9740:	e08c0000 	add	r0, ip, r0
    9744:	ebffe492 	bl	2994 <memcpy@plt>
    9748:	e59d001c 	ldr	r0, [sp, #28]
    974c:	ebffe51a 	bl	2bbc <nvram_get@plt>
    9750:	e2502000 	subs	r2, r0, #0
    9754:	0a000030 	beq	981c <get_wsec+0xe50>
    9758:	e59f11b8 	ldr	r1, [pc, #440]	; 9918 <get_wsec+0xf4c>
    975c:	e28d5f5d 	add	r5, sp, #372	; 0x174
    9760:	e1a00005 	mov	r0, r5
    9764:	e0841001 	add	r1, r4, r1
[31m    9768:	ebffe534 	bl	2c40 <sprintf@plt>[0m
    976c:	e59d1028 	ldr	r1, [sp, #40]	; 0x28
    9770:	e59d001c 	ldr	r0, [sp, #28]

[0m
[[0;33m*[0m] Function [0;33msprintf[0m used [0;33m11[0m times [0;33mlibshared.so.svn-base[0m

