[[0;33m*[0m] Binary protection state of [0;33mudhcpd.svn-base[0m
[REF] s12

  	RELRO          CANARY            NX           PIE       RPATH        RUNPATH      SYMBOLS      
  	[31mNo RELRO[0m       [31mNo Canary found[0m   [32mNX enabled[0m   [31mNo PIE[0m       [32mNo RPATH[0m     [32mNo RUNPATH[0m   [32mNo Symbols[0m

[0m
[[0;33m*[0m] Function [0;33mprintf[0m tear down of [0;33mudhcpd.svn-base[0m

    9308:	e1a04000 	mov	r4, r0
    930c:	e5930044 	ldr	r0, [r3, #68]	; 0x44
    9310:	eb001142 	bl	d820 <_start+0x45f8>
    9314:	e1a00004 	mov	r0, r4
    9318:	ebffffa1 	bl	91a4 <exit@plt>
    931c:	e52de004 	push	{lr}		; (str lr, [sp, #-4]!)
    9320:	e24dd00c 	sub	sp, sp, #12
    9324:	e28d1008 	add	r1, sp, #8
    9328:	e3a02004 	mov	r2, #4
    932c:	e3a03040 	mov	r3, #64	; 0x40
    9330:	e5210004 	str	r0, [r1, #-4]!
    9334:	e59f0044 	ldr	r0, [pc, #68]	; 9380 <_start+0x158>
    9338:	e5900004 	ldr	r0, [r0, #4]
    933c:	ebffff11 	bl	8f88 <send@plt>
    9340:	e3500000 	cmp	r0, #0
    9344:	ba000001 	blt	9350 <_start+0x128>
    9348:	e28dd00c 	add	sp, sp, #12
    934c:	e8bd8000 	ldmfd	sp!, {pc}
    9350:	e59f102c 	ldr	r1, [pc, #44]	; 9384 <_start+0x15c>
    9354:	e59f002c 	ldr	r0, [pc, #44]	; 9388 <_start+0x160>
[31m    9358:	ebfffed4 	bl	8eb0 <printf@plt>[0m
    935c:	ebffff8d 	bl	9198 <__errno_location@plt>
    9360:	e5900000 	ldr	r0, [r0]
    9364:	ebfffeda 	bl	8ed4 <strerror@plt>
    9368:	e1a01000 	mov	r1, r0
    936c:	e59f0018 	ldr	r0, [pc, #24]	; 938c <_start+0x164>
[31m    9370:	ebfffece 	bl	8eb0 <printf@plt>[0m
    9374:	e3a0000a 	mov	r0, #10
    9378:	ebfffebd 	bl	8e74 <putchar@plt>
    937c:	eafffff1 	b	9348 <_start+0x120>
    9380:	00016e68 	andeq	r6, r1, r8, ror #28
    9384:	0000d9ac 	andeq	sp, r0, ip, lsr #19
    9388:	0000d9a4 	andeq	sp, r0, r4, lsr #19
    938c:	0000d9b4 			; <UNDEFINED> instruction: 0x0000d9b4
    9390:	e92d4ff0 	push	{r4, r5, r6, r7, r8, r9, sl, fp, lr}
    9394:	e1a05000 	mov	r5, r0
    9398:	e24ddfb5 	sub	sp, sp, #724	; 0x2d4
    939c:	e1a04001 	mov	r4, r1
    93a0:	e59f0684 	ldr	r0, [pc, #1668]	; 9a2c <_start+0x804>
    93a4:	e59f1684 	ldr	r1, [pc, #1668]	; 9a30 <_start+0x808>
[31m    93a8:	ebfffec0 	bl	8eb0 <printf@plt>[0m
    93ac:	e59f1680 	ldr	r1, [pc, #1664]	; 9a34 <_start+0x80c>
    93b0:	e59f0680 	ldr	r0, [pc, #1664]	; 9a38 <_start+0x810>
[31m    93b4:	ebfffebd 	bl	8eb0 <printf@plt>[0m
    93b8:	e3a0000a 	mov	r0, #10
    93bc:	ebfffeac 	bl	8e74 <putchar@plt>
--
    9628:	00009840 	andeq	r9, r0, r0, asr #16
    962c:	00009840 	andeq	r9, r0, r0, asr #16
    9630:	000096b4 			; <UNDEFINED> instruction: 0x000096b4
    9634:	000096a8 	andeq	r9, r0, r8, lsr #13
    9638:	e3700001 	cmn	r0, #1
    963c:	1affffb6 	bne	951c <_start+0x2f4>
    9640:	ebfffed4 	bl	9198 <__errno_location@plt>
    9644:	e5903000 	ldr	r3, [r0]
    9648:	e3530004 	cmp	r3, #4
    964c:	0affffb2 	beq	951c <_start+0x2f4>
    9650:	e1a0000a 	mov	r0, sl
    9654:	ebfffeea 	bl	9204 <close@plt>
    9658:	e3a00000 	mov	r0, #0
    965c:	e3a01043 	mov	r1, #67	; 0x43
    9660:	e5972010 	ldr	r2, [r7, #16]
    9664:	eb000e81 	bl	d070 <_start+0x3e48>
    9668:	e250a000 	subs	sl, r0, #0
    966c:	aaffffac 	bge	9524 <_start+0x2fc>
    9670:	e59f13dc 	ldr	r1, [pc, #988]	; 9a54 <_start+0x82c>
    9674:	e59f03b0 	ldr	r0, [pc, #944]	; 9a2c <_start+0x804>
[31m    9678:	ebfffe0c 	bl	8eb0 <printf@plt>[0m
    967c:	ebfffec5 	bl	9198 <__errno_location@plt>
    9680:	e5900000 	ldr	r0, [r0]
    9684:	ebfffe12 	bl	8ed4 <strerror@plt>
    9688:	e1a01000 	mov	r1, r0
    968c:	e59f03c4 	ldr	r0, [pc, #964]	; 9a58 <_start+0x830>
[31m    9690:	ebfffe06 	bl	8eb0 <printf@plt>[0m
    9694:	e3a0000a 	mov	r0, #10
    9698:	ebfffdf5 	bl	8e74 <putchar@plt>
--
    97d8:	05c31018 	strbeq	r1, [r3, #24]
    97dc:	0affff4e 	beq	951c <_start+0x2f4>
    97e0:	e5555001 	ldrb	r5, [r5, #-1]
    97e4:	e2830018 	add	r0, r3, #24
    97e8:	e59d1014 	ldr	r1, [sp, #20]
    97ec:	e58d3008 	str	r3, [sp, #8]
    97f0:	e355003f 	cmp	r5, #63	; 0x3f
    97f4:	a3a0503f 	movge	r5, #63	; 0x3f
    97f8:	e1a02005 	mov	r2, r5
    97fc:	ebfffe11 	bl	9048 <strncpy@plt>
    9800:	e59d3008 	ldr	r3, [sp, #8]
    9804:	e0833005 	add	r3, r3, r5
    9808:	e5c34018 	strb	r4, [r3, #24]
    980c:	eaffff42 	b	951c <_start+0x2f4>
    9810:	e28d0018 	add	r0, sp, #24
    9814:	eb0004d5 	bl	ab70 <_start+0x1948>
    9818:	e3500000 	cmp	r0, #0
    981c:	aaffff3e 	bge	951c <_start+0x2f4>
    9820:	e59f122c 	ldr	r1, [pc, #556]	; 9a54 <_start+0x82c>
    9824:	e59f0200 	ldr	r0, [pc, #512]	; 9a2c <_start+0x804>
[31m    9828:	ebfffda0 	bl	8eb0 <printf@plt>[0m
    982c:	e59f0228 	ldr	r0, [pc, #552]	; 9a5c <_start+0x834>
[31m    9830:	ebfffd9e 	bl	8eb0 <printf@plt>[0m
    9834:	e3a0000a 	mov	r0, #10
    9838:	ebfffd8d 	bl	8e74 <putchar@plt>
    983c:	eaffff36 	b	951c <_start+0x2f4>
    9840:	e59f1218 	ldr	r1, [pc, #536]	; 9a60 <_start+0x838>
    9844:	e59f01e0 	ldr	r0, [pc, #480]	; 9a2c <_start+0x804>
[31m    9848:	ebfffd98 	bl	8eb0 <printf@plt>[0m
    984c:	e5d51000 	ldrb	r1, [r5]
    9850:	e59f020c 	ldr	r0, [pc, #524]	; 9a64 <_start+0x83c>
[31m    9854:	ebfffd95 	bl	8eb0 <printf@plt>[0m
    9858:	e3a0000a 	mov	r0, #10
    985c:	ebfffd84 	bl	8e74 <putchar@plt>
    9860:	eaffff2d 	b	951c <_start+0x2f4>
    9864:	e59f11c4 	ldr	r1, [pc, #452]	; 9a30 <_start+0x808>
    9868:	e59f01bc 	ldr	r0, [pc, #444]	; 9a2c <_start+0x804>
[31m    986c:	ebfffd8f 	bl	8eb0 <printf@plt>[0m
    9870:	e59f01f0 	ldr	r0, [pc, #496]	; 9a68 <_start+0x840>
[31m    9874:	ebfffd8d 	bl	8eb0 <printf@plt>[0m
    9878:	e1a00005 	mov	r0, r5
    987c:	ebfffd7c 	bl	8e74 <putchar@plt>
--
    98f8:	b1a00000 	movlt	r0, r0
    98fc:	e2800001 	add	r0, r0, #1
    9900:	eaffff21 	b	958c <_start+0x364>
    9904:	ebfffe23 	bl	9198 <__errno_location@plt>
    9908:	e5903000 	ldr	r3, [r0]
    990c:	e3530004 	cmp	r3, #4
    9910:	1affff01 	bne	951c <_start+0x2f4>
    9914:	eaffff24 	b	95ac <_start+0x384>
    9918:	e28d1fb1 	add	r1, sp, #708	; 0x2c4
    991c:	e3a02004 	mov	r2, #4
    9920:	ebfffdc2 	bl	9030 <read@plt>
    9924:	e3500000 	cmp	r0, #0
    9928:	bafffefb 	blt	951c <_start+0x2f4>
    992c:	e59d52c4 	ldr	r5, [sp, #708]	; 0x2c4
    9930:	e355000a 	cmp	r5, #10
    9934:	0affffca 	beq	9864 <_start+0x63c>
    9938:	e355000f 	cmp	r5, #15
    993c:	1affff23 	bne	95d0 <_start+0x3a8>
    9940:	e59f10e8 	ldr	r1, [pc, #232]	; 9a30 <_start+0x808>
    9944:	e59f00e0 	ldr	r0, [pc, #224]	; 9a2c <_start+0x804>
[31m    9948:	ebfffd58 	bl	8eb0 <printf@plt>[0m
    994c:	e59f0118 	ldr	r0, [pc, #280]	; 9a6c <_start+0x844>
[31m    9950:	ebfffd56 	bl	8eb0 <printf@plt>[0m
    9954:	e3a0000a 	mov	r0, #10
    9958:	ebfffd45 	bl	8e74 <putchar@plt>
--
    9c9c:	ebfffc86 	bl	8ebc <recv@plt>
    9ca0:	e1dd3bb8 	ldrh	r3, [sp, #184]	; 0xb8
    9ca4:	e3500000 	cmp	r0, #0
    9ca8:	b3a09000 	movlt	r9, #0
    9cac:	e3530c02 	cmp	r3, #512	; 0x200
    9cb0:	1affffe0 	bne	9c38 <_start+0xa10>
    9cb4:	e59d001c 	ldr	r0, [sp, #28]
    9cb8:	e3a02006 	mov	r2, #6
    9cbc:	e59d1014 	ldr	r1, [sp, #20]
    9cc0:	ebfffc71 	bl	8e8c <bcmp@plt>
    9cc4:	e3500000 	cmp	r0, #0
    9cc8:	1affffda 	bne	9c38 <_start+0xa10>
    9ccc:	e59d30c0 	ldr	r3, [sp, #192]	; 0xc0
    9cd0:	e59d2018 	ldr	r2, [sp, #24]
    9cd4:	e1530002 	cmp	r3, r2
    9cd8:	1affffd6 	bne	9c38 <_start+0xa10>
    9cdc:	e1a09004 	mov	r9, r4
    9ce0:	eaffffdf 	b	9c64 <_start+0xa3c>
    9ce4:	e59f1048 	ldr	r1, [pc, #72]	; 9d34 <_start+0xb0c>
    9ce8:	e59f0048 	ldr	r0, [pc, #72]	; 9d38 <_start+0xb10>
[31m    9cec:	ebfffc6f 	bl	8eb0 <printf@plt>[0m
    9cf0:	e59f0044 	ldr	r0, [pc, #68]	; 9d3c <_start+0xb14>
[31m    9cf4:	ebfffc6d 	bl	8eb0 <printf@plt>[0m
    9cf8:	e3a0000a 	mov	r0, #10
    9cfc:	ebfffc5c 	bl	8e74 <putchar@plt>
    9d00:	e59d9010 	ldr	r9, [sp, #16]
    9d04:	eaffffd8 	b	9c6c <_start+0xa44>
    9d08:	e59f1024 	ldr	r1, [pc, #36]	; 9d34 <_start+0xb0c>
    9d0c:	e59f0024 	ldr	r0, [pc, #36]	; 9d38 <_start+0xb10>
[31m    9d10:	ebfffc66 	bl	8eb0 <printf@plt>[0m
    9d14:	e59f0024 	ldr	r0, [pc, #36]	; 9d40 <_start+0xb18>
[31m    9d18:	ebfffc64 	bl	8eb0 <printf@plt>[0m
    9d1c:	e3a0000a 	mov	r0, #10
    9d20:	ebfffc53 	bl	8e74 <putchar@plt>
--
    a274:	ea000002 	b	a284 <_start+0x105c>
    a278:	e5f73038 	ldrb	r3, [r7, #56]!	; 0x38
    a27c:	e3530000 	cmp	r3, #0
    a280:	0affffb9 	beq	a16c <_start+0xf44>
    a284:	e0668186 	rsb	r8, r6, r6, lsl #3
    a288:	e1a0000a 	mov	r0, sl
    a28c:	e2866001 	add	r6, r6, #1
    a290:	e1a08188 	lsl	r8, r8, #3
    a294:	e0851008 	add	r1, r5, r8
    a298:	ebfffb70 	bl	9060 <strcasecmp@plt>
    a29c:	e3500000 	cmp	r0, #0
    a2a0:	1afffff4 	bne	a278 <_start+0x1050>
    a2a4:	e5971014 	ldr	r1, [r7, #20]
    a2a8:	e1a00009 	mov	r0, r9
    a2ac:	e5973010 	ldr	r3, [r7, #16]
    a2b0:	e12fff33 	blx	r3
    a2b4:	e3500000 	cmp	r0, #0
    a2b8:	1affffee 	bne	a278 <_start+0x1050>
    a2bc:	e59f108c 	ldr	r1, [pc, #140]	; a350 <_start+0x1128>
    a2c0:	e59f008c 	ldr	r0, [pc, #140]	; a354 <_start+0x112c>
[31m    a2c4:	ebfffaf9 	bl	8eb0 <printf@plt>[0m
    a2c8:	e28d1008 	add	r1, sp, #8
    a2cc:	e59f0084 	ldr	r0, [pc, #132]	; a358 <_start+0x1130>
[31m    a2d0:	ebfffaf6 	bl	8eb0 <printf@plt>[0m
    a2d4:	e3a0000a 	mov	r0, #10
    a2d8:	ebfffae5 	bl	8e74 <putchar@plt>
    a2dc:	e30627a4 	movw	r2, #26532	; 0x67a4
    a2e0:	e2880018 	add	r0, r8, #24
    a2e4:	e3402001 	movt	r2, #1
    a2e8:	e5973010 	ldr	r3, [r7, #16]
    a2ec:	e5971014 	ldr	r1, [r7, #20]
    a2f0:	e0820000 	add	r0, r2, r0
    a2f4:	e12fff33 	blx	r3
    a2f8:	eaffffde 	b	a278 <_start+0x1050>
    a2fc:	e1a02006 	mov	r2, r6
    a300:	eaffffd5 	b	a25c <_start+0x1034>
    a304:	e59d0004 	ldr	r0, [sp, #4]
    a308:	ebfffb81 	bl	9114 <fclose@plt>
    a30c:	e3a00001 	mov	r0, #1
    a310:	e28dd0ac 	add	sp, sp, #172	; 0xac
    a314:	e8bd8ff0 	pop	{r4, r5, r6, r7, r8, r9, sl, fp, pc}
    a318:	e59f1030 	ldr	r1, [pc, #48]	; a350 <_start+0x1128>
    a31c:	e59f0030 	ldr	r0, [pc, #48]	; a354 <_start+0x112c>
[31m    a320:	ebfffae2 	bl	8eb0 <printf@plt>[0m
    a324:	e1a01008 	mov	r1, r8
    a328:	e59f002c 	ldr	r0, [pc, #44]	; a35c <_start+0x1134>
[31m    a32c:	ebfffadf 	bl	8eb0 <printf@plt>[0m
    a330:	e3a0000a 	mov	r0, #10
    a334:	ebffface 	bl	8e74 <putchar@plt>
--
    a46c:	006bc00c 	rsbeq	ip, fp, ip
    a470:	06bfcf3c 	reveq	ip, ip
    a474:	eaffffcf 	b	a3b8 <_start+0x1190>
    a478:	e1a00008 	mov	r0, r8
    a47c:	ebfffb24 	bl	9114 <fclose@plt>
    a480:	e5972048 	ldr	r2, [r7, #72]	; 0x48
    a484:	e3520000 	cmp	r2, #0
    a488:	0a000007 	beq	a4ac <_start+0x1284>
    a48c:	e59f3044 	ldr	r3, [pc, #68]	; a4d8 <_start+0x12b0>
    a490:	e28d4004 	add	r4, sp, #4
    a494:	e59f1048 	ldr	r1, [pc, #72]	; a4e4 <_start+0x12bc>
    a498:	e1a00004 	mov	r0, r4
    a49c:	e5933040 	ldr	r3, [r3, #64]	; 0x40
[31m    a4a0:	ebfffb2d 	bl	915c <sprintf@plt>[0m
    a4a4:	e1a00004 	mov	r0, r4
    a4a8:	ebfffaa4 	bl	8f40 <system@plt>
    a4ac:	e28ddf43 	add	sp, sp, #268	; 0x10c
    a4b0:	e8bd8ff0 	pop	{r4, r5, r6, r7, r8, r9, sl, fp, pc}
    a4b4:	e59f102c 	ldr	r1, [pc, #44]	; a4e8 <_start+0x12c0>
    a4b8:	e59f002c 	ldr	r0, [pc, #44]	; a4ec <_start+0x12c4>
[31m    a4bc:	ebfffa7b 	bl	8eb0 <printf@plt>[0m
    a4c0:	e5971040 	ldr	r1, [r7, #64]	; 0x40
    a4c4:	e59f0024 	ldr	r0, [pc, #36]	; a4f0 <_start+0x12c8>
[31m    a4c8:	ebfffa78 	bl	8eb0 <printf@plt>[0m
    a4cc:	e3a0000a 	mov	r0, #10
    a4d0:	ebfffa67 	bl	8e74 <putchar@plt>
--
    a5d0:	e155000c 	cmp	r5, ip
    a5d4:	3affffda 	bcc	a544 <_start+0x131c>
    a5d8:	e1a00008 	mov	r0, r8
    a5dc:	ebfffacc 	bl	9114 <fclose@plt>
    a5e0:	e28dd064 	add	sp, sp, #100	; 0x64
    a5e4:	e8bd8ff0 	pop	{r4, r5, r6, r7, r8, r9, sl, fp, pc}
    a5e8:	ebfffacf 	bl	912c <time@plt>
    a5ec:	e060a00a 	rsb	sl, r0, sl
    a5f0:	e59d1018 	ldr	r1, [sp, #24]
    a5f4:	e1a0200a 	mov	r2, sl
    a5f8:	e1a00006 	mov	r0, r6
    a5fc:	e58da01c 	str	sl, [sp, #28]
    a600:	eb000072 	bl	a7d0 <_start+0x15a8>
    a604:	e250a000 	subs	sl, r0, #0
    a608:	e1a01009 	mov	r1, r9
    a60c:	e28a0018 	add	r0, sl, #24
    a610:	e3a0203f 	mov	r2, #63	; 0x3f
    a614:	1affffe6 	bne	a5b4 <_start+0x138c>
    a618:	e59f1048 	ldr	r1, [pc, #72]	; a668 <_start+0x1440>
    a61c:	e59f0048 	ldr	r0, [pc, #72]	; a66c <_start+0x1444>
[31m    a620:	ebfffa22 	bl	8eb0 <printf@plt>[0m
    a624:	e59d1004 	ldr	r1, [sp, #4]
    a628:	e59f0040 	ldr	r0, [pc, #64]	; a670 <_start+0x1448>
[31m    a62c:	ebfffa1f 	bl	8eb0 <printf@plt>[0m
    a630:	e3a0000a 	mov	r0, #10
    a634:	ebfffa0e 	bl	8e74 <putchar@plt>
    a638:	eaffffe6 	b	a5d8 <_start+0x13b0>
    a63c:	e59f1030 	ldr	r1, [pc, #48]	; a674 <_start+0x144c>
    a640:	e59f0024 	ldr	r0, [pc, #36]	; a66c <_start+0x1444>
[31m    a644:	ebfffa19 	bl	8eb0 <printf@plt>[0m
    a648:	e59d1004 	ldr	r1, [sp, #4]
    a64c:	e59f0024 	ldr	r0, [pc, #36]	; a678 <_start+0x1450>
[31m    a650:	ebfffa16 	bl	8eb0 <printf@plt>[0m
    a654:	e3a0000a 	mov	r0, #10
    a658:	ebfffa05 	bl	8e74 <putchar@plt>
--
    a8e0:	e15c0002 	cmp	ip, r2
    a8e4:	8afffff7 	bhi	a8c8 <_start+0x16a0>
    a8e8:	e3a00000 	mov	r0, #0
    a8ec:	e8bd0010 	ldmfd	sp!, {r4}
    a8f0:	e12fff1e 	bx	lr
    a8f4:	00016ea8 	andeq	r6, r1, r8, lsr #29
    a8f8:	00016f00 	andeq	r6, r1, r0, lsl #30
    a8fc:	e92d4038 	push	{r3, r4, r5, lr}
    a900:	e1a05000 	mov	r5, r0
    a904:	e59f4060 	ldr	r4, [pc, #96]	; a96c <_start+0x1744>
    a908:	e5941000 	ldr	r1, [r4]
    a90c:	e2842018 	add	r2, r4, #24
    a910:	e5943010 	ldr	r3, [r4, #16]
    a914:	ebfffc56 	bl	9a74 <_start+0x84c>
    a918:	e3500000 	cmp	r0, #0
    a91c:	0a000001 	beq	a928 <_start+0x1700>
    a920:	e3a00000 	mov	r0, #0
    a924:	e8bd8038 	pop	{r3, r4, r5, pc}
    a928:	e59f1040 	ldr	r1, [pc, #64]	; a970 <_start+0x1748>
    a92c:	e59f0040 	ldr	r0, [pc, #64]	; a974 <_start+0x174c>
[31m    a930:	ebfff95e 	bl	8eb0 <printf@plt>[0m
    a934:	e1a00005 	mov	r0, r5
    a938:	ebfff9f8 	bl	9120 <inet_ntoa@plt>
    a93c:	e5942034 	ldr	r2, [r4, #52]	; 0x34
    a940:	e1a01000 	mov	r1, r0
    a944:	e59f002c 	ldr	r0, [pc, #44]	; a978 <_start+0x1750>
[31m    a948:	ebfff958 	bl	8eb0 <printf@plt>[0m
    a94c:	e3a0000a 	mov	r0, #10
    a950:	ebfff947 	bl	8e74 <putchar@plt>
--
    ac3c:	358d2230 	strcc	r2, [sp, #560]	; 0x230
    ac40:	e6bf2f32 	rev	r2, r2
    ac44:	eb000816 	bl	cca4 <_start+0x3a7c>
    ac48:	e595500c 	ldr	r5, [r5, #12]
    ac4c:	e3550000 	cmp	r5, #0
    ac50:	0a000008 	beq	ac78 <_start+0x1a50>
    ac54:	e5951000 	ldr	r1, [r5]
    ac58:	e1a00006 	mov	r0, r6
    ac5c:	e5d13000 	ldrb	r3, [r1]
    ac60:	e3530033 	cmp	r3, #51	; 0x33
    ac64:	0a000000 	beq	ac6c <_start+0x1a44>
    ac68:	eb0007ec 	bl	cc20 <_start+0x39f8>
    ac6c:	e5955004 	ldr	r5, [r5, #4]
    ac70:	e3550000 	cmp	r5, #0
    ac74:	1afffff6 	bne	ac54 <_start+0x1a2c>
    ac78:	e1a00004 	mov	r0, r4
    ac7c:	ebffff7d 	bl	aa78 <_start+0x1850>
    ac80:	e59d501c 	ldr	r5, [sp, #28]
    ac84:	e59f1140 	ldr	r1, [pc, #320]	; adcc <_start+0x1ba4>
    ac88:	e59f0140 	ldr	r0, [pc, #320]	; add0 <_start+0x1ba8>
[31m    ac8c:	ebfff887 	bl	8eb0 <printf@plt>[0m
    ac90:	e1a00005 	mov	r0, r5
    ac94:	ebfff921 	bl	9120 <inet_ntoa@plt>
    ac98:	e1a01000 	mov	r1, r0
    ac9c:	e59f0130 	ldr	r0, [pc, #304]	; add4 <_start+0x1bac>
[31m    aca0:	ebfff882 	bl	8eb0 <printf@plt>[0m
    aca4:	e3a0000a 	mov	r0, #10
    aca8:	ebfff871 	bl	8e74 <putchar@plt>
--
    ad38:	1affffa2 	bne	abc8 <_start+0x19a0>
    ad3c:	e3a00001 	mov	r0, #1
    ad40:	ebffff0e 	bl	a980 <_start+0x1758>
    ad44:	e1a01000 	mov	r1, r0
    ad48:	e58d101c 	str	r1, [sp, #28]
    ad4c:	eaffff9b 	b	abc0 <_start+0x1998>
    ad50:	e1a00001 	mov	r0, r1
    ad54:	e58d1004 	str	r1, [sp, #4]
    ad58:	ebfffecb 	bl	a88c <_start+0x1664>
    ad5c:	e3500000 	cmp	r0, #0
    ad60:	e59d1004 	ldr	r1, [sp, #4]
    ad64:	0afffff7 	beq	ad48 <_start+0x1b20>
    ad68:	ebfffe77 	bl	a74c <_start+0x1524>
    ad6c:	e3500000 	cmp	r0, #0
    ad70:	e59d1004 	ldr	r1, [sp, #4]
    ad74:	0affffea 	beq	ad24 <_start+0x1afc>
    ad78:	e58d101c 	str	r1, [sp, #28]
    ad7c:	eaffff8f 	b	abc0 <_start+0x1998>
    ad80:	e59f1050 	ldr	r1, [pc, #80]	; add8 <_start+0x1bb0>
    ad84:	e59f0044 	ldr	r0, [pc, #68]	; add0 <_start+0x1ba8>
[31m    ad88:	ebfff848 	bl	8eb0 <printf@plt>[0m
    ad8c:	e59f0048 	ldr	r0, [pc, #72]	; addc <_start+0x1bb4>
[31m    ad90:	ebfff846 	bl	8eb0 <printf@plt>[0m
    ad94:	e3a0000a 	mov	r0, #10
    ad98:	ebfff835 	bl	8e74 <putchar@plt>
    ad9c:	e3e00000 	mvn	r0, #0
    ada0:	eaffffc4 	b	acb8 <_start+0x1a90>
    ada4:	e59f102c 	ldr	r1, [pc, #44]	; add8 <_start+0x1bb0>
    ada8:	e59f0020 	ldr	r0, [pc, #32]	; add0 <_start+0x1ba8>
[31m    adac:	ebfff83f 	bl	8eb0 <printf@plt>[0m
    adb0:	e59f0028 	ldr	r0, [pc, #40]	; ade0 <_start+0x1bb8>
[31m    adb4:	ebfff83d 	bl	8eb0 <printf@plt>[0m
    adb8:	e3a0000a 	mov	r0, #10
    adbc:	ebfff82c 	bl	8e74 <putchar@plt>
--
    ae8c:	e1a00007 	mov	r0, r7
    ae90:	e6bf2f35 	rev	r2, r5
    ae94:	eb000782 	bl	cca4 <_start+0x3a7c>
    ae98:	e596600c 	ldr	r6, [r6, #12]
    ae9c:	e3560000 	cmp	r6, #0
    aea0:	0a000008 	beq	aec8 <_start+0x1ca0>
    aea4:	e5961000 	ldr	r1, [r6]
    aea8:	e1a00007 	mov	r0, r7
    aeac:	e5d13000 	ldrb	r3, [r1]
    aeb0:	e3530033 	cmp	r3, #51	; 0x33
    aeb4:	0a000000 	beq	aebc <_start+0x1c94>
    aeb8:	eb000758 	bl	cc20 <_start+0x39f8>
    aebc:	e5966004 	ldr	r6, [r6, #4]
    aec0:	e3560000 	cmp	r6, #0
    aec4:	1afffff6 	bne	aea4 <_start+0x1c7c>
    aec8:	e1a0000d 	mov	r0, sp
    aecc:	ebfffee9 	bl	aa78 <_start+0x1850>
    aed0:	e59d6010 	ldr	r6, [sp, #16]
    aed4:	e59f106c 	ldr	r1, [pc, #108]	; af48 <_start+0x1d20>
    aed8:	e59f006c 	ldr	r0, [pc, #108]	; af4c <_start+0x1d24>
[31m    aedc:	ebfff7f3 	bl	8eb0 <printf@plt>[0m
    aee0:	e1a00006 	mov	r0, r6
    aee4:	ebfff88d 	bl	9120 <inet_ntoa@plt>
    aee8:	e1a01000 	mov	r1, r0
    aeec:	e59f005c 	ldr	r0, [pc, #92]	; af50 <_start+0x1d28>
[31m    aef0:	ebfff7ee 	bl	8eb0 <printf@plt>[0m
    aef4:	e3a0000a 	mov	r0, #10
    aef8:	ebfff7dd 	bl	8e74 <putchar@plt>
--
    b068:	ebfff7ab 	bl	8f1c <perror@plt>
    b06c:	e3a00001 	mov	r0, #1
    b070:	ebffffdd 	bl	afec <_start+0x1dc4>
    b074:	eafffff5 	b	b050 <_start+0x1e28>
    b078:	00016bcc 	andeq	r6, r1, ip, asr #23
    b07c:	0000da10 	andeq	sp, r0, r0, lsl sl
    b080:	e59f3058 	ldr	r3, [pc, #88]	; b0e0 <_start+0x1eb8>
    b084:	e3a02004 	mov	r2, #4
    b088:	e52de004 	push	{lr}		; (str lr, [sp, #-4]!)
    b08c:	e24dd00c 	sub	sp, sp, #12
    b090:	e28d1008 	add	r1, sp, #8
    b094:	e5210004 	str	r0, [r1, #-4]!
    b098:	e593000c 	ldr	r0, [r3, #12]
    b09c:	ebfff7c8 	bl	8fc4 <write@plt>
    b0a0:	e3500000 	cmp	r0, #0
    b0a4:	ba000001 	blt	b0b0 <_start+0x1e88>
    b0a8:	e28dd00c 	add	sp, sp, #12
    b0ac:	e8bd8000 	ldmfd	sp!, {pc}
    b0b0:	e59f102c 	ldr	r1, [pc, #44]	; b0e4 <_start+0x1ebc>
    b0b4:	e59f002c 	ldr	r0, [pc, #44]	; b0e8 <_start+0x1ec0>
[31m    b0b8:	ebfff77c 	bl	8eb0 <printf@plt>[0m
    b0bc:	ebfff835 	bl	9198 <__errno_location@plt>
    b0c0:	e5900000 	ldr	r0, [r0]
    b0c4:	ebfff782 	bl	8ed4 <strerror@plt>
    b0c8:	e1a01000 	mov	r1, r0
    b0cc:	e59f0018 	ldr	r0, [pc, #24]	; b0ec <_start+0x1ec4>
[31m    b0d0:	ebfff776 	bl	8eb0 <printf@plt>[0m
    b0d4:	e3a0000a 	mov	r0, #10
    b0d8:	ebfff765 	bl	8e74 <putchar@plt>
--
    b1ec:	e1a02006 	mov	r2, r6
    b1f0:	e5883014 	str	r3, [r8, #20]
    b1f4:	e2800002 	add	r0, r0, #2
    b1f8:	e5c3c000 	strb	ip, [r3]
    b1fc:	e5c36001 	strb	r6, [r3, #1]
    b200:	ebfff790 	bl	9048 <strncpy@plt>
    b204:	eaffffc2 	b	b114 <_start+0x1eec>
    b208:	e3500073 	cmp	r0, #115	; 0x73
    b20c:	0a00000e 	beq	b24c <_start+0x2024>
    b210:	aa000005 	bge	b22c <_start+0x2004>
    b214:	e5940000 	ldr	r0, [r4]
    b218:	ebfff772 	bl	8fe8 <inet_addr@plt>
    b21c:	e3061e80 	movw	r1, #28288	; 0x6e80
    b220:	e3401001 	movt	r1, #1
    b224:	e5810010 	str	r0, [r1, #16]
    b228:	eaffffb9 	b	b114 <_start+0x1eec>
    b22c:	e3500076 	cmp	r0, #118	; 0x76
    b230:	1affffcc 	bne	b168 <_start+0x1f40>
    b234:	e59f1ad8 	ldr	r1, [pc, #2776]	; bd14 <_start+0x2aec>
    b238:	e59f0ad8 	ldr	r0, [pc, #2776]	; bd18 <_start+0x2af0>
[31m    b23c:	ebfff71b 	bl	8eb0 <printf@plt>[0m
    b240:	e1a0000a 	mov	r0, sl
    b244:	ebffff68 	bl	afec <_start+0x1dc4>
--
    b274:	0a000001 	beq	b280 <_start+0x2058>
    b278:	e1a00003 	mov	r0, r3
    b27c:	ebfff7e6 	bl	921c <free@plt>
    b280:	e2860002 	add	r0, r6, #2
    b284:	ebfff730 	bl	8f4c <malloc@plt>
    b288:	e3a0203d 	mov	r2, #61	; 0x3d
    b28c:	e1a03000 	mov	r3, r0
    b290:	e5941000 	ldr	r1, [r4]
    b294:	e5c32000 	strb	r2, [r3]
    b298:	e1a02006 	mov	r2, r6
    b29c:	e5c36001 	strb	r6, [r3, #1]
    b2a0:	e5e0a002 	strb	sl, [r0, #2]!
    b2a4:	e5883010 	str	r3, [r8, #16]
    b2a8:	ebfff766 	bl	9048 <strncpy@plt>
    b2ac:	eaffff98 	b	b114 <_start+0x1eec>
    b2b0:	e5943000 	ldr	r3, [r4]
    b2b4:	e5853004 	str	r3, [r5, #4]
    b2b8:	eaffff95 	b	b114 <_start+0x1eec>
    b2bc:	e59f1a58 	ldr	r1, [pc, #2648]	; bd1c <_start+0x2af4>
    b2c0:	e59f0a58 	ldr	r0, [pc, #2648]	; bd20 <_start+0x2af8>
[31m    b2c4:	ebfff6f9 	bl	8eb0 <printf@plt>[0m
    b2c8:	e59f1a44 	ldr	r1, [pc, #2628]	; bd14 <_start+0x2aec>
    b2cc:	e59f0a50 	ldr	r0, [pc, #2640]	; bd24 <_start+0x2afc>
[31m    b2d0:	ebfff6f6 	bl	8eb0 <printf@plt>[0m
    b2d4:	e3a0000a 	mov	r0, #10
    b2d8:	ebfff6e5 	bl	8e74 <putchar@plt>
--
    b59c:	e1a03312 	lsl	r3, r2, r3
    b5a0:	e213c05a 	ands	ip, r3, #90	; 0x5a
    b5a4:	e58dc01c 	str	ip, [sp, #28]
    b5a8:	1a00014a 	bne	bad8 <_start+0x28b0>
    b5ac:	e3130001 	tst	r3, #1
    b5b0:	0a0001a5 	beq	bc4c <_start+0x2a24>
    b5b4:	e5d03000 	ldrb	r3, [r0]
    b5b8:	e3530002 	cmp	r3, #2
    b5bc:	0a0001a9 	beq	bc68 <_start+0x2a40>
    b5c0:	e596a018 	ldr	sl, [r6, #24]
    b5c4:	eaffff9a 	b	b434 <_start+0x220c>
    b5c8:	e3530001 	cmp	r3, #1
    b5cc:	0a0000c0 	beq	b8d4 <_start+0x26ac>
    b5d0:	e5980018 	ldr	r0, [r8, #24]
    b5d4:	eb0006f1 	bl	d1a0 <_start+0x3f78>
    b5d8:	e5860000 	str	r0, [r6]
    b5dc:	e3500000 	cmp	r0, #0
    b5e0:	aaffffa5 	bge	b47c <_start+0x2254>
    b5e4:	e59f174c 	ldr	r1, [pc, #1868]	; bd38 <_start+0x2b10>
    b5e8:	e59f0730 	ldr	r0, [pc, #1840]	; bd20 <_start+0x2af8>
[31m    b5ec:	ebfff62f 	bl	8eb0 <printf@plt>[0m
    b5f0:	ebfff6e8 	bl	9198 <__errno_location@plt>
    b5f4:	e5900000 	ldr	r0, [r0]
    b5f8:	ebfff635 	bl	8ed4 <strerror@plt>
    b5fc:	e1a01000 	mov	r1, r0
    b600:	e59f0734 	ldr	r0, [pc, #1844]	; bd3c <_start+0x2b14>
[31m    b604:	ebfff629 	bl	8eb0 <printf@plt>[0m
    b608:	e3a0000a 	mov	r0, #10
    b60c:	ebfff618 	bl	8e74 <putchar@plt>
--
    b730:	e584301c 	str	r3, [r4, #28]
    b734:	e584a018 	str	sl, [r4, #24]
    b738:	eaffff3d 	b	b434 <_start+0x220c>
    b73c:	e3e0c102 	mvn	ip, #-2147483648	; 0x80000000
    b740:	e584c018 	str	ip, [r4, #24]
    b744:	e1a0a00c 	mov	sl, ip
    b748:	eaffff39 	b	b434 <_start+0x220c>
    b74c:	e59d32e4 	ldr	r3, [sp, #740]	; 0x2e4
    b750:	e59d1018 	ldr	r1, [sp, #24]
    b754:	e0821391 	umull	r1, r2, r1, r3
    b758:	e1a026a2 	lsr	r2, r2, #13
    b75c:	e06b3003 	rsb	r3, fp, r3
    b760:	e2822001 	add	r2, r2, #1
    b764:	e1530002 	cmp	r3, r2
    b768:	8a00005f 	bhi	b8ec <_start+0x26c4>
    b76c:	e3a03000 	mov	r3, #0
    b770:	e59f15a4 	ldr	r1, [pc, #1444]	; bd1c <_start+0x2af4>
    b774:	e5843014 	str	r3, [r4, #20]
    b778:	e59f05a0 	ldr	r0, [pc, #1440]	; bd20 <_start+0x2af8>
    b77c:	e58d3008 	str	r3, [sp, #8]
[31m    b780:	ebfff5ca 	bl	8eb0 <printf@plt>[0m
    b784:	e59f05b4 	ldr	r0, [pc, #1460]	; bd40 <_start+0x2b18>
[31m    b788:	ebfff5c8 	bl	8eb0 <printf@plt>[0m
    b78c:	e3a0000a 	mov	r0, #10
    b790:	ebfff5b7 	bl	8e74 <putchar@plt>
--
    b7cc:	e1a022a0 	lsr	r2, r0, #5
    b7d0:	e08c2102 	add	r2, ip, r2, lsl #2
    b7d4:	e51220a4 	ldr	r2, [r2, #-164]	; 0xffffff5c
    b7d8:	e1a03352 	asr	r3, r2, r3
    b7dc:	e3130001 	tst	r3, #1
    b7e0:	0affff76 	beq	b5c0 <_start+0x2398>
    b7e4:	e28d1e2e 	add	r1, sp, #736	; 0x2e0
    b7e8:	e3a02004 	mov	r2, #4
    b7ec:	ebfff60f 	bl	9030 <read@plt>
    b7f0:	e3500000 	cmp	r0, #0
    b7f4:	baffff71 	blt	b5c0 <_start+0x2398>
    b7f8:	e59da2e0 	ldr	sl, [sp, #736]	; 0x2e0
    b7fc:	e35a000c 	cmp	sl, #12
    b800:	0a00006f 	beq	b9c4 <_start+0x279c>
    b804:	e35a000f 	cmp	sl, #15
    b808:	0a000062 	beq	b998 <_start+0x2770>
    b80c:	e35a000a 	cmp	sl, #10
    b810:	1affff6a 	bne	b5c0 <_start+0x2398>
    b814:	e59f1500 	ldr	r1, [pc, #1280]	; bd1c <_start+0x2af4>
    b818:	e59f0500 	ldr	r0, [pc, #1280]	; bd20 <_start+0x2af8>
[31m    b81c:	ebfff5a3 	bl	8eb0 <printf@plt>[0m
    b820:	e59f051c 	ldr	r0, [pc, #1308]	; bd44 <_start+0x2b1c>
[31m    b824:	ebfff5a1 	bl	8eb0 <printf@plt>[0m
    b828:	e1a0000a 	mov	r0, sl
    b82c:	ebfff590 	bl	8e74 <putchar@plt>
--
    b950:	e3530000 	cmp	r3, #0
    b954:	1a000055 	bne	bab0 <_start+0x2888>
    b958:	e28aa03c 	add	sl, sl, #60	; 0x3c
    b95c:	e3a03000 	mov	r3, #0
    b960:	e584301c 	str	r3, [r4, #28]
    b964:	e584a018 	str	sl, [r4, #24]
    b968:	eafffeb1 	b	b434 <_start+0x220c>
    b96c:	ebfff609 	bl	9198 <__errno_location@plt>
    b970:	e5903000 	ldr	r3, [r0]
    b974:	e3530004 	cmp	r3, #4
    b978:	0afffefc 	beq	b570 <_start+0x2348>
    b97c:	e5940004 	ldr	r0, [r4, #4]
    b980:	ebfffd90 	bl	afc8 <_start+0x1da0>
    b984:	e594a018 	ldr	sl, [r4, #24]
    b988:	eafffea9 	b	b434 <_start+0x220c>
    b98c:	e28d0020 	add	r0, sp, #32
    b990:	eb00063f 	bl	d294 <_start+0x406c>
    b994:	eafffeed 	b	b550 <_start+0x2328>
    b998:	e59f137c 	ldr	r1, [pc, #892]	; bd1c <_start+0x2af4>
    b99c:	e59f037c 	ldr	r0, [pc, #892]	; bd20 <_start+0x2af8>
[31m    b9a0:	ebfff542 	bl	8eb0 <printf@plt>[0m
    b9a4:	e59f039c 	ldr	r0, [pc, #924]	; bd48 <_start+0x2b20>
[31m    b9a8:	ebfff540 	bl	8eb0 <printf@plt>[0m
    b9ac:	e3a0000a 	mov	r0, #10
    b9b0:	ebfff52f 	bl	8e74 <putchar@plt>
    b9b4:	e3a00000 	mov	r0, #0
    b9b8:	ebfffd8b 	bl	afec <_start+0x1dc4>
    b9bc:	e596a018 	ldr	sl, [r6, #24]
    b9c0:	eafffe9b 	b	b434 <_start+0x220c>
    b9c4:	e5963014 	ldr	r3, [r6, #20]
    b9c8:	e2433002 	sub	r3, r3, #2
    b9cc:	e3530002 	cmp	r3, #2
    b9d0:	9a00001e 	bls	ba50 <_start+0x2828>
    b9d4:	e59f1340 	ldr	r1, [pc, #832]	; bd1c <_start+0x2af4>
    b9d8:	e3e0a102 	mvn	sl, #-2147483648	; 0x80000000
    b9dc:	e59f033c 	ldr	r0, [pc, #828]	; bd20 <_start+0x2af8>
[31m    b9e0:	ebfff532 	bl	8eb0 <printf@plt>[0m
    b9e4:	e59f0360 	ldr	r0, [pc, #864]	; bd4c <_start+0x2b24>
[31m    b9e8:	ebfff530 	bl	8eb0 <printf@plt>[0m
    b9ec:	e3a0000a 	mov	r0, #10
    b9f0:	ebfff51f 	bl	8e74 <putchar@plt>
    b9f4:	e3a00000 	mov	r0, #0
    b9f8:	ebfffd72 	bl	afc8 <_start+0x1da0>
    b9fc:	e3a03007 	mov	r3, #7
    ba00:	e584a018 	str	sl, [r4, #24]
    ba04:	e5843014 	str	r3, [r4, #20]
    ba08:	eafffe89 	b	b434 <_start+0x220c>
    ba0c:	e1a00009 	mov	r0, r9
    ba10:	e5961020 	ldr	r1, [r6, #32]
    ba14:	e5962010 	ldr	r2, [r6, #16]
    ba18:	eb0001a8 	bl	c0c0 <_start+0x2e98>
    ba1c:	eaffff2c 	b	b6d4 <_start+0x24ac>
    ba20:	eb000115 	bl	be7c <_start+0x2c54>
    ba24:	e1a09000 	mov	r9, r0
    ba28:	eaffff37 	b	b70c <_start+0x24e4>
    ba2c:	e59f12e8 	ldr	r1, [pc, #744]	; bd1c <_start+0x2af4>
    ba30:	e59f02e8 	ldr	r0, [pc, #744]	; bd20 <_start+0x2af8>
[31m    ba34:	ebfff51d 	bl	8eb0 <printf@plt>[0m
    ba38:	e59f0310 	ldr	r0, [pc, #784]	; bd50 <_start+0x2b28>
[31m    ba3c:	ebfff51b 	bl	8eb0 <printf@plt>[0m
    ba40:	e3a0000a 	mov	r0, #10
    ba44:	ebfff50a 	bl	8e74 <putchar@plt>
    ba48:	ebfffd6f 	bl	b00c <_start+0x1de4>
    ba4c:	eaffffc1 	b	b958 <_start+0x2730>
    ba50:	e5960020 	ldr	r0, [r6, #32]
    ba54:	ebfff5b1 	bl	9120 <inet_ntoa@plt>
    ba58:	e1a01000 	mov	r1, r0
    ba5c:	e28d0fb1 	add	r0, sp, #708	; 0x2c4
    ba60:	ebfff506 	bl	8e80 <strcpy@plt>
    ba64:	e596a010 	ldr	sl, [r6, #16]
    ba68:	e59f12ac 	ldr	r1, [pc, #684]	; bd1c <_start+0x2af4>
    ba6c:	e59f02ac 	ldr	r0, [pc, #684]	; bd20 <_start+0x2af8>
[31m    ba70:	ebfff50e 	bl	8eb0 <printf@plt>[0m
    ba74:	e1a0000a 	mov	r0, sl
    ba78:	ebfff5a8 	bl	9120 <inet_ntoa@plt>
    ba7c:	e28d2fb1 	add	r2, sp, #708	; 0x2c4
    ba80:	e1a01000 	mov	r1, r0
    ba84:	e59f02c8 	ldr	r0, [pc, #712]	; bd54 <_start+0x2b2c>
[31m    ba88:	ebfff508 	bl	8eb0 <printf@plt>[0m
    ba8c:	e3a0000a 	mov	r0, #10
    ba90:	ebfff4f7 	bl	8e74 <putchar@plt>
    ba94:	e5961010 	ldr	r1, [r6, #16]
    ba98:	e5960020 	ldr	r0, [r6, #32]
    ba9c:	eb0001b8 	bl	c184 <_start+0x2f5c>
    baa0:	e3a00000 	mov	r0, #0
    baa4:	e59f1288 	ldr	r1, [pc, #648]	; bd34 <_start+0x2b0c>
    baa8:	eb00027d 	bl	c4a4 <_start+0x327c>
    baac:	eaffffc8 	b	b9d4 <_start+0x27ac>
    bab0:	e59f1264 	ldr	r1, [pc, #612]	; bd1c <_start+0x2af4>
    bab4:	e59f0264 	ldr	r0, [pc, #612]	; bd20 <_start+0x2af8>
[31m    bab8:	ebfff4fc 	bl	8eb0 <printf@plt>[0m
    babc:	e59f0294 	ldr	r0, [pc, #660]	; bd58 <_start+0x2b30>
[31m    bac0:	ebfff4fa 	bl	8eb0 <printf@plt>[0m
    bac4:	e3a0000a 	mov	r0, #10
    bac8:	ebfff4e9 	bl	8e74 <putchar@plt>
    bacc:	e3a00001 	mov	r0, #1
    bad0:	ebfffd45 	bl	afec <_start+0x1dc4>
    bad4:	eaffff9f 	b	b958 <_start+0x2730>
    bad8:	e5d03000 	ldrb	r3, [r0]
    badc:	e3530005 	cmp	r3, #5
    bae0:	0a00001d 	beq	bb5c <_start+0x2934>
    bae4:	e3530006 	cmp	r3, #6
    bae8:	1afffeb4 	bne	b5c0 <_start+0x2398>
    baec:	e59f1228 	ldr	r1, [pc, #552]	; bd1c <_start+0x2af4>
    baf0:	e59f0228 	ldr	r0, [pc, #552]	; bd20 <_start+0x2af8>
[31m    baf4:	ebfff4ed 	bl	8eb0 <printf@plt>[0m
    baf8:	e59f025c 	ldr	r0, [pc, #604]	; bd5c <_start+0x2b34>
[31m    bafc:	ebfff4eb 	bl	8eb0 <printf@plt>[0m
    bb00:	e3a0000a 	mov	r0, #10
    bb04:	ebfff4da 	bl	8e74 <putchar@plt>
--
    bb5c:	e3a01033 	mov	r1, #51	; 0x33
    bb60:	e28d0020 	add	r0, sp, #32
    bb64:	eb0003c6 	bl	ca84 <_start+0x385c>
    bb68:	e2501000 	subs	r1, r0, #0
    bb6c:	0a00004e 	beq	bcac <_start+0x2a84>
    bb70:	e28d0fb9 	add	r0, sp, #740	; 0x2e4
    bb74:	e3a02004 	mov	r2, #4
    bb78:	ebfff4e4 	bl	8f10 <memcpy@plt>
    bb7c:	e59d92e4 	ldr	r9, [sp, #740]	; 0x2e4
    bb80:	e6bf9f39 	rev	r9, r9
    bb84:	e58d92e4 	str	r9, [sp, #740]	; 0x2e4
    bb88:	e59d3030 	ldr	r3, [sp, #48]	; 0x30
    bb8c:	e1a0c0a9 	lsr	ip, r9, #1
    bb90:	e59f1184 	ldr	r1, [pc, #388]	; bd1c <_start+0x2af4>
    bb94:	e3a0b007 	mov	fp, #7
    bb98:	e59f0180 	ldr	r0, [pc, #384]	; bd20 <_start+0x2af8>
    bb9c:	e00b099b 	mul	fp, fp, r9
    bba0:	e58dc00c 	str	ip, [sp, #12]
    bba4:	e58d3008 	str	r3, [sp, #8]
    bba8:	e58da010 	str	sl, [sp, #16]
[31m    bbac:	ebfff4bf 	bl	8eb0 <printf@plt>[0m
    bbb0:	e59d3008 	ldr	r3, [sp, #8]
    bbb4:	e1a0b1ab 	lsr	fp, fp, #3
    bbb8:	e1a00003 	mov	r0, r3
    bbbc:	ebfff557 	bl	9120 <inet_ntoa@plt>
    bbc0:	e1a02009 	mov	r2, r9
    bbc4:	e1a01000 	mov	r1, r0
    bbc8:	e59f0194 	ldr	r0, [pc, #404]	; bd64 <_start+0x2b3c>
[31m    bbcc:	ebfff4b7 	bl	8eb0 <printf@plt>[0m
    bbd0:	e3a0000a 	mov	r0, #10
    bbd4:	ebfff4a6 	bl	8e74 <putchar@plt>
--
    bc68:	e3a01036 	mov	r1, #54	; 0x36
    bc6c:	e28d0020 	add	r0, sp, #32
    bc70:	eb000383 	bl	ca84 <_start+0x385c>
    bc74:	e2501000 	subs	r1, r0, #0
    bc78:	0afffe50 	beq	b5c0 <_start+0x2398>
    bc7c:	e3a02004 	mov	r2, #4
    bc80:	e59f00e0 	ldr	r0, [pc, #224]	; bd68 <_start+0x2b40>
    bc84:	ebfff4a1 	bl	8f10 <memcpy@plt>
    bc88:	e59d3030 	ldr	r3, [sp, #48]	; 0x30
    bc8c:	e3a01001 	mov	r1, #1
    bc90:	e59d201c 	ldr	r2, [sp, #28]
    bc94:	e59d9024 	ldr	r9, [sp, #36]	; 0x24
    bc98:	e5861014 	str	r1, [r6, #20]
    bc9c:	e5863010 	str	r3, [r6, #16]
    bca0:	e586a018 	str	sl, [r6, #24]
    bca4:	e586201c 	str	r2, [r6, #28]
    bca8:	eafffde1 	b	b434 <_start+0x220c>
    bcac:	e59f1084 	ldr	r1, [pc, #132]	; bd38 <_start+0x2b10>
    bcb0:	e3a09ee1 	mov	r9, #3600	; 0xe10
    bcb4:	e59f0064 	ldr	r0, [pc, #100]	; bd20 <_start+0x2af8>
[31m    bcb8:	ebfff47c 	bl	8eb0 <printf@plt>[0m
    bcbc:	e59f00a8 	ldr	r0, [pc, #168]	; bd6c <_start+0x2b44>
[31m    bcc0:	ebfff47a 	bl	8eb0 <printf@plt>[0m
    bcc4:	e3a0000a 	mov	r0, #10
    bcc8:	ebfff469 	bl	8e74 <putchar@plt>
--
    bea0:	e59f00bc 	ldr	r0, [pc, #188]	; bf64 <_start+0x2d3c>
    bea4:	e1a01005 	mov	r1, r5
    bea8:	ebfff4c9 	bl	91d4 <open@plt>
    beac:	e2506000 	subs	r6, r0, #0
    beb0:	ba00000c 	blt	bee8 <_start+0x2cc0>
    beb4:	e28d1004 	add	r1, sp, #4
    beb8:	e3a02004 	mov	r2, #4
    bebc:	ebfff45b 	bl	9030 <read@plt>
    bec0:	e3500000 	cmp	r0, #0
    bec4:	ba000016 	blt	bf24 <_start+0x2cfc>
    bec8:	e1a00006 	mov	r0, r6
    becc:	ebfff4cc 	bl	9204 <close@plt>
    bed0:	e59d0004 	ldr	r0, [sp, #4]
    bed4:	ebfff48b 	bl	9108 <srand@plt>
    bed8:	e5943000 	ldr	r3, [r4]
    bedc:	e2833001 	add	r3, r3, #1
    bee0:	e5843000 	str	r3, [r4]
    bee4:	eaffffea 	b	be94 <_start+0x2c6c>
    bee8:	e59f1078 	ldr	r1, [pc, #120]	; bf68 <_start+0x2d40>
    beec:	e59f0078 	ldr	r0, [pc, #120]	; bf6c <_start+0x2d44>
[31m    bef0:	ebfff3ee 	bl	8eb0 <printf@plt>[0m
    bef4:	ebfff4a7 	bl	9198 <__errno_location@plt>
    bef8:	e5900000 	ldr	r0, [r0]
    befc:	ebfff3f4 	bl	8ed4 <strerror@plt>
    bf00:	e1a01000 	mov	r1, r0
    bf04:	e59f0064 	ldr	r0, [pc, #100]	; bf70 <_start+0x2d48>
[31m    bf08:	ebfff3e8 	bl	8eb0 <printf@plt>[0m
    bf0c:	e3a0000a 	mov	r0, #10
    bf10:	ebfff3d7 	bl	8e74 <putchar@plt>
    bf14:	e1a00005 	mov	r0, r5
    bf18:	ebfff483 	bl	912c <time@plt>
    bf1c:	e58d0004 	str	r0, [sp, #4]
    bf20:	eaffffeb 	b	bed4 <_start+0x2cac>
    bf24:	e59f103c 	ldr	r1, [pc, #60]	; bf68 <_start+0x2d40>
    bf28:	e59f003c 	ldr	r0, [pc, #60]	; bf6c <_start+0x2d44>
[31m    bf2c:	ebfff3df 	bl	8eb0 <printf@plt>[0m
    bf30:	ebfff498 	bl	9198 <__errno_location@plt>
    bf34:	e5900000 	ldr	r0, [r0]
    bf38:	ebfff3e5 	bl	8ed4 <strerror@plt>
    bf3c:	e1a01000 	mov	r1, r0
    bf40:	e59f0028 	ldr	r0, [pc, #40]	; bf70 <_start+0x2d48>
[31m    bf44:	ebfff3d9 	bl	8eb0 <printf@plt>[0m
    bf48:	e3a0000a 	mov	r0, #10
    bf4c:	ebfff3c8 	bl	8e74 <putchar@plt>
--
    c00c:	e1a07001 	mov	r7, r1
    c010:	e1a00004 	mov	r0, r4
    c014:	e28460f0 	add	r6, r4, #240	; 0xf0
    c018:	e3a01003 	mov	r1, #3
    c01c:	ebffff53 	bl	bd70 <_start+0x2b48>
    c020:	e1a02005 	mov	r2, r5
    c024:	e3a01032 	mov	r1, #50	; 0x32
    c028:	e1a00006 	mov	r0, r6
    c02c:	e58d8018 	str	r8, [sp, #24]
    c030:	eb00031b 	bl	cca4 <_start+0x3a7c>
    c034:	e1a02007 	mov	r2, r7
    c038:	e3a01036 	mov	r1, #54	; 0x36
    c03c:	e1a00006 	mov	r0, r6
    c040:	eb000317 	bl	cca4 <_start+0x3a7c>
    c044:	e1a00004 	mov	r0, r4
    c048:	ebffff6a 	bl	bdf8 <_start+0x2bd0>
    c04c:	e30e12d8 	movw	r1, #58072	; 0xe2d8
    c050:	e30d09a4 	movw	r0, #55716	; 0xd9a4
    c054:	e3401000 	movt	r1, #0
    c058:	e3400000 	movt	r0, #0
[31m    c05c:	ebfff393 	bl	8eb0 <printf@plt>[0m
    c060:	e1a00005 	mov	r0, r5
    c064:	ebfff42d 	bl	9120 <inet_ntoa@plt>
    c068:	e1a01000 	mov	r1, r0
    c06c:	e30e02e0 	movw	r0, #58080	; 0xe2e0
    c070:	e3400000 	movt	r0, #0
[31m    c074:	ebfff38d 	bl	8eb0 <printf@plt>[0m
    c078:	e3a0000a 	mov	r0, #10
    c07c:	ebfff37c 	bl	8e74 <putchar@plt>
--
    c0ac:	e58de004 	str	lr, [sp, #4]
    c0b0:	e58dc008 	str	ip, [sp, #8]
    c0b4:	eb0004ea 	bl	d464 <_start+0x423c>
    c0b8:	e28ddf8e 	add	sp, sp, #568	; 0x238
    c0bc:	e8bd81f0 	pop	{r4, r5, r6, r7, r8, pc}
    c0c0:	e92d40f0 	push	{r4, r5, r6, r7, lr}
    c0c4:	e24ddf8f 	sub	sp, sp, #572	; 0x23c
    c0c8:	e28d4014 	add	r4, sp, #20
    c0cc:	e1a06000 	mov	r6, r0
    c0d0:	e1a05001 	mov	r5, r1
    c0d4:	e1a00004 	mov	r0, r4
    c0d8:	e3a01003 	mov	r1, #3
    c0dc:	e1a07002 	mov	r7, r2
    c0e0:	ebffff22 	bl	bd70 <_start+0x2b48>
    c0e4:	e1a00004 	mov	r0, r4
    c0e8:	e58d6018 	str	r6, [sp, #24]
    c0ec:	e58d7020 	str	r7, [sp, #32]
    c0f0:	ebffff40 	bl	bdf8 <_start+0x2bd0>
    c0f4:	e59f1074 	ldr	r1, [pc, #116]	; c170 <_start+0x2f48>
    c0f8:	e59f0074 	ldr	r0, [pc, #116]	; c174 <_start+0x2f4c>
[31m    c0fc:	ebfff36b 	bl	8eb0 <printf@plt>[0m
    c100:	e59f0070 	ldr	r0, [pc, #112]	; c178 <_start+0x2f50>
[31m    c104:	ebfff369 	bl	8eb0 <printf@plt>[0m
    c108:	e3a0000a 	mov	r0, #10
    c10c:	ebfff358 	bl	8e74 <putchar@plt>
--
    c194:	e1a06000 	mov	r6, r0
    c198:	e3a01007 	mov	r1, #7
    c19c:	e1a00005 	mov	r0, r5
    c1a0:	e28570f0 	add	r7, r5, #240	; 0xf0
    c1a4:	ebfffef1 	bl	bd70 <_start+0x2b48>
    c1a8:	ebffff33 	bl	be7c <_start+0x2c54>
    c1ac:	e1a02004 	mov	r2, r4
    c1b0:	e58d0010 	str	r0, [sp, #16]
    c1b4:	e3a01032 	mov	r1, #50	; 0x32
    c1b8:	e1a00007 	mov	r0, r7
    c1bc:	e58d4018 	str	r4, [sp, #24]
    c1c0:	eb0002b7 	bl	cca4 <_start+0x3a7c>
    c1c4:	e1a02006 	mov	r2, r6
    c1c8:	e1a00007 	mov	r0, r7
    c1cc:	e3a01036 	mov	r1, #54	; 0x36
    c1d0:	eb0002b3 	bl	cca4 <_start+0x3a7c>
    c1d4:	e30e12d8 	movw	r1, #58072	; 0xe2d8
    c1d8:	e30d09a4 	movw	r0, #55716	; 0xd9a4
    c1dc:	e3401000 	movt	r1, #0
    c1e0:	e3400000 	movt	r0, #0
[31m    c1e4:	ebfff331 	bl	8eb0 <printf@plt>[0m
    c1e8:	e30e0310 	movw	r0, #58128	; 0xe310
    c1ec:	e3400000 	movt	r0, #0
[31m    c1f0:	ebfff32e 	bl	8eb0 <printf@plt>[0m
    c1f4:	e3a0000a 	mov	r0, #10
    c1f8:	ebfff31d 	bl	8e74 <putchar@plt>
--
    c378:	e35a0000 	cmp	sl, #0
    c37c:	e5cd9019 	strb	r9, [sp, #25]
    c380:	e58db01c 	str	fp, [sp, #28]
    c384:	e18180b6 	strh	r8, [r1, r6]
    c388:	e58d2020 	str	r2, [sp, #32]
    c38c:	1a000014 	bne	c3e4 <_start+0x31bc>
    c390:	e247701c 	sub	r7, r7, #28
    c394:	e1a00005 	mov	r0, r5
    c398:	e1a02007 	mov	r2, r7
    c39c:	e28d102c 	add	r1, sp, #44	; 0x2c
    c3a0:	ebfff2da 	bl	8f10 <memcpy@plt>
    c3a4:	e59530ec 	ldr	r3, [r5, #236]	; 0xec
    c3a8:	e3052363 	movw	r2, #21347	; 0x5363
    c3ac:	e3462382 	movt	r2, #25474	; 0x6382
    c3b0:	e6bf3f33 	rev	r3, r3
    c3b4:	e1530002 	cmp	r3, r2
    c3b8:	01a00007 	moveq	r0, r7
    c3bc:	0affffa9 	beq	c268 <_start+0x3040>
    c3c0:	e59f1034 	ldr	r1, [pc, #52]	; c3fc <_start+0x31d4>
    c3c4:	e59f0034 	ldr	r0, [pc, #52]	; c400 <_start+0x31d8>
[31m    c3c8:	ebfff2b8 	bl	8eb0 <printf@plt>[0m
    c3cc:	e59f0030 	ldr	r0, [pc, #48]	; c404 <_start+0x31dc>
[31m    c3d0:	ebfff2b6 	bl	8eb0 <printf@plt>[0m
    c3d4:	e3a0000a 	mov	r0, #10
    c3d8:	ebfff2a5 	bl	8e74 <putchar@plt>
--
    c8d0:	1a000043 	bne	c9e4 <_start+0x37bc>
    c8d4:	e59d1014 	ldr	r1, [sp, #20]
    c8d8:	e2113002 	ands	r3, r1, #2
    c8dc:	1a000002 	bne	c8ec <_start+0x36c4>
    c8e0:	e5d6202c 	ldrb	r2, [r6, #44]	; 0x2c
    c8e4:	e3520000 	cmp	r2, #0
    c8e8:	1a00002e 	bne	c9a8 <_start+0x3780>
    c8ec:	e59d100c 	ldr	r1, [sp, #12]
    c8f0:	e3a03000 	mov	r3, #0
    c8f4:	e59d2010 	ldr	r2, [sp, #16]
    c8f8:	e7823101 	str	r3, [r2, r1, lsl #2]
    c8fc:	e594000c 	ldr	r0, [r4, #12]
    c900:	e3a03000 	mov	r3, #0
    c904:	e59dc010 	ldr	ip, [sp, #16]
    c908:	e1a02005 	mov	r2, r5
    c90c:	e1a01000 	mov	r1, r0
    c910:	e58dc000 	str	ip, [sp]
    c914:	ebfff186 	bl	8f34 <execle@plt>
    c918:	e59f114c 	ldr	r1, [pc, #332]	; ca6c <_start+0x3844>
    c91c:	e59f014c 	ldr	r0, [pc, #332]	; ca70 <_start+0x3848>
[31m    c920:	ebfff162 	bl	8eb0 <printf@plt>[0m
    c924:	e594400c 	ldr	r4, [r4, #12]
    c928:	ebfff21a 	bl	9198 <__errno_location@plt>
    c92c:	e5900000 	ldr	r0, [r0]
    c930:	ebfff167 	bl	8ed4 <strerror@plt>
    c934:	e1a01004 	mov	r1, r4
    c938:	e1a02000 	mov	r2, r0
    c93c:	e59f0130 	ldr	r0, [pc, #304]	; ca74 <_start+0x384c>
[31m    c940:	ebfff15a 	bl	8eb0 <printf@plt>[0m
    c944:	e3a0000a 	mov	r0, #10
    c948:	ebfff149 	bl	8e74 <putchar@plt>
--
    cb24:	e3170001 	tst	r7, #1
    cb28:	0a00001c 	beq	cba0 <_start+0x3978>
    cb2c:	e280c06c 	add	ip, r0, #108	; 0x6c
    cb30:	e3a05001 	mov	r5, #1
    cb34:	e3a06080 	mov	r6, #128	; 0x80
    cb38:	e3a02000 	mov	r2, #0
    cb3c:	e7dc3002 	ldrb	r3, [ip, r2]
    cb40:	e1a04002 	mov	r4, r2
    cb44:	e1530001 	cmp	r3, r1
    cb48:	1affffe6 	bne	cae8 <_start+0x38c0>
    cb4c:	e2823001 	add	r3, r2, #1
    cb50:	e1a02003 	mov	r2, r3
    cb54:	e7dc2002 	ldrb	r2, [ip, r2]
    cb58:	e0823003 	add	r3, r2, r3
    cb5c:	e1530006 	cmp	r3, r6
    cb60:	b2840002 	addlt	r0, r4, #2
    cb64:	b08c0000 	addlt	r0, ip, r0
    cb68:	b8bd80f8 	poplt	{r3, r4, r5, r6, r7, pc}
    cb6c:	e59f106c 	ldr	r1, [pc, #108]	; cbe0 <_start+0x39b8>
    cb70:	e59f006c 	ldr	r0, [pc, #108]	; cbe4 <_start+0x39bc>
[31m    cb74:	ebfff0cd 	bl	8eb0 <printf@plt>[0m
    cb78:	e59f0068 	ldr	r0, [pc, #104]	; cbe8 <_start+0x39c0>
[31m    cb7c:	ebfff0cb 	bl	8eb0 <printf@plt>[0m
    cb80:	e3a0000a 	mov	r0, #10
    cb84:	ebfff0ba 	bl	8e74 <putchar@plt>
--
    cc28:	e1a05000 	mov	r5, r0
    cc2c:	ebffffee 	bl	cbec <_start+0x39c4>
    cc30:	e5d42001 	ldrb	r2, [r4, #1]
    cc34:	e0803002 	add	r3, r0, r2
    cc38:	e3530e13 	cmp	r3, #304	; 0x130
    cc3c:	ca00000b 	bgt	cc70 <_start+0x3a48>
    cc40:	e0855000 	add	r5, r5, r0
    cc44:	e1a01004 	mov	r1, r4
    cc48:	e1a00005 	mov	r0, r5
    cc4c:	e2822002 	add	r2, r2, #2
    cc50:	ebfff0ae 	bl	8f10 <memcpy@plt>
    cc54:	e5d43001 	ldrb	r3, [r4, #1]
    cc58:	e0855003 	add	r5, r5, r3
    cc5c:	e3e03000 	mvn	r3, #0
    cc60:	e5c53002 	strb	r3, [r5, #2]
    cc64:	e5d40001 	ldrb	r0, [r4, #1]
    cc68:	e2800002 	add	r0, r0, #2
    cc6c:	e8bd8038 	pop	{r3, r4, r5, pc}
    cc70:	e59f1020 	ldr	r1, [pc, #32]	; cc98 <_start+0x3a70>
    cc74:	e59f0020 	ldr	r0, [pc, #32]	; cc9c <_start+0x3a74>
[31m    cc78:	ebfff08c 	bl	8eb0 <printf@plt>[0m
    cc7c:	e5d41000 	ldrb	r1, [r4]
    cc80:	e59f0018 	ldr	r0, [pc, #24]	; cca0 <_start+0x3a78>
[31m    cc84:	ebfff089 	bl	8eb0 <printf@plt>[0m
    cc88:	e3a0000a 	mov	r0, #10
    cc8c:	ebfff078 	bl	8e74 <putchar@plt>
--
    cf40:	1a000010 	bne	cf88 <_start+0x3d60>
    cf44:	e59d3010 	ldr	r3, [sp, #16]
    cf48:	e1a0000a 	mov	r0, sl
    cf4c:	e3081927 	movw	r1, #35111	; 0x8927
    cf50:	e1a0200d 	mov	r2, sp
    cf54:	e5883000 	str	r3, [r8]
    cf58:	ebffefd1 	bl	8ea4 <ioctl@plt>
    cf5c:	e2505000 	subs	r5, r0, #0
    cf60:	1a000015 	bne	cfbc <_start+0x3d94>
    cf64:	e2841012 	add	r1, r4, #18
    cf68:	e3a02006 	mov	r2, #6
    cf6c:	e1a00007 	mov	r0, r7
    cf70:	ebffefe6 	bl	8f10 <memcpy@plt>
    cf74:	e1a0000a 	mov	r0, sl
    cf78:	ebfff0a1 	bl	9204 <close@plt>
    cf7c:	e1a00005 	mov	r0, r5
    cf80:	e28dd024 	add	sp, sp, #36	; 0x24
    cf84:	e8bd85f0 	pop	{r4, r5, r6, r7, r8, sl, pc}
    cf88:	e59f10c8 	ldr	r1, [pc, #200]	; d058 <_start+0x3e30>
    cf8c:	e59f00c8 	ldr	r0, [pc, #200]	; d05c <_start+0x3e34>
[31m    cf90:	ebffefc6 	bl	8eb0 <printf@plt>[0m
    cf94:	ebfff07f 	bl	9198 <__errno_location@plt>
    cf98:	e5900000 	ldr	r0, [r0]
    cf9c:	ebffefcc 	bl	8ed4 <strerror@plt>
    cfa0:	e1a01000 	mov	r1, r0
    cfa4:	e59f00b4 	ldr	r0, [pc, #180]	; d060 <_start+0x3e38>
[31m    cfa8:	ebffefc0 	bl	8eb0 <printf@plt>[0m
    cfac:	e3a0000a 	mov	r0, #10
    cfb0:	ebffefaf 	bl	8e74 <putchar@plt>
    cfb4:	e3e00000 	mvn	r0, #0
    cfb8:	eafffff0 	b	cf80 <_start+0x3d58>
    cfbc:	e59f1094 	ldr	r1, [pc, #148]	; d058 <_start+0x3e30>
    cfc0:	e59f0094 	ldr	r0, [pc, #148]	; d05c <_start+0x3e34>
[31m    cfc4:	ebffefb9 	bl	8eb0 <printf@plt>[0m
    cfc8:	ebfff072 	bl	9198 <__errno_location@plt>
    cfcc:	e5900000 	ldr	r0, [r0]
    cfd0:	ebffefbf 	bl	8ed4 <strerror@plt>
    cfd4:	e1a01000 	mov	r1, r0
    cfd8:	e59f0084 	ldr	r0, [pc, #132]	; d064 <_start+0x3e3c>
[31m    cfdc:	ebffefb3 	bl	8eb0 <printf@plt>[0m
    cfe0:	e3a0000a 	mov	r0, #10
    cfe4:	ebffefa2 	bl	8e74 <putchar@plt>
    cfe8:	e3e00000 	mvn	r0, #0
    cfec:	eaffffe3 	b	cf80 <_start+0x3d58>
    cff0:	e59f1060 	ldr	r1, [pc, #96]	; d058 <_start+0x3e30>
    cff4:	e59f0060 	ldr	r0, [pc, #96]	; d05c <_start+0x3e34>
[31m    cff8:	ebffefac 	bl	8eb0 <printf@plt>[0m
    cffc:	ebfff065 	bl	9198 <__errno_location@plt>
    d000:	e5900000 	ldr	r0, [r0]
    d004:	ebffefb2 	bl	8ed4 <strerror@plt>
    d008:	e1a01000 	mov	r1, r0
    d00c:	e59f0054 	ldr	r0, [pc, #84]	; d068 <_start+0x3e40>
[31m    d010:	ebffefa6 	bl	8eb0 <printf@plt>[0m
    d014:	e3a0000a 	mov	r0, #10
    d018:	ebffef95 	bl	8e74 <putchar@plt>
    d01c:	e3e00000 	mvn	r0, #0
    d020:	eaffffd6 	b	cf80 <_start+0x3d58>
    d024:	e59f102c 	ldr	r1, [pc, #44]	; d058 <_start+0x3e30>
    d028:	e59f002c 	ldr	r0, [pc, #44]	; d05c <_start+0x3e34>
[31m    d02c:	ebffef9f 	bl	8eb0 <printf@plt>[0m
    d030:	ebfff058 	bl	9198 <__errno_location@plt>
    d034:	e5900000 	ldr	r0, [r0]
    d038:	ebffefa5 	bl	8ed4 <strerror@plt>
    d03c:	e1a01000 	mov	r1, r0
    d040:	e59f0024 	ldr	r0, [pc, #36]	; d06c <_start+0x3e44>
[31m    d044:	ebffef99 	bl	8eb0 <printf@plt>[0m
    d048:	e3a0000a 	mov	r0, #10
    d04c:	ebffef88 	bl	8e74 <putchar@plt>
--
    d358:	ebffef9a 	bl	91c8 <strlen@plt>
    d35c:	e6ef0070 	uxtb	r0, r0
    d360:	e15a0000 	cmp	sl, r0
    d364:	0a000003 	beq	d378 <_start+0x4150>
    d368:	e5f53008 	ldrb	r3, [r5, #8]!
    d36c:	e3530000 	cmp	r3, #0
    d370:	1afffff6 	bne	d350 <_start+0x4128>
    d374:	eaffffe8 	b	d31c <_start+0x40f4>
    d378:	e1a01005 	mov	r1, r5
    d37c:	e1a00007 	mov	r0, r7
    d380:	e1a0200a 	mov	r2, sl
    d384:	ebffef2c 	bl	903c <strncmp@plt>
    d388:	e3500000 	cmp	r0, #0
    d38c:	01d430ba 	ldrheq	r3, [r4, #10]
    d390:	03833080 	orreq	r3, r3, #128	; 0x80
    d394:	01c430ba 	strheq	r3, [r4, #10]
    d398:	eafffff2 	b	d368 <_start+0x4140>
    d39c:	e59f1020 	ldr	r1, [pc, #32]	; d3c4 <_start+0x419c>
    d3a0:	e3e06001 	mvn	r6, #1
    d3a4:	e59f001c 	ldr	r0, [pc, #28]	; d3c8 <_start+0x41a0>
[31m    d3a8:	ebffeec0 	bl	8eb0 <printf@plt>[0m
    d3ac:	e59f0018 	ldr	r0, [pc, #24]	; d3cc <_start+0x41a4>
[31m    d3b0:	ebffeebe 	bl	8eb0 <printf@plt>[0m
    d3b4:	e3a0000a 	mov	r0, #10
    d3b8:	ebffeead 	bl	8e74 <putchar@plt>
--
    d738:	e1a04000 	mov	r4, r0
    d73c:	e1a00005 	mov	r0, r5
    d740:	ebffeeaf 	bl	9204 <close@plt>
    d744:	eaffffc9 	b	d670 <_start+0x4448>
    d748:	e92d4038 	push	{r3, r4, r5, lr}
    d74c:	e2505000 	subs	r5, r0, #0
    d750:	03e04000 	mvneq	r4, #0
    d754:	0a000007 	beq	d778 <_start+0x4550>
    d758:	e3a01041 	mov	r1, #65	; 0x41
    d75c:	e3a02f69 	mov	r2, #420	; 0x1a4
    d760:	ebffee9b 	bl	91d4 <open@plt>
    d764:	e2504000 	subs	r4, r0, #0
    d768:	ba000004 	blt	d780 <_start+0x4558>
    d76c:	e3a01001 	mov	r1, #1
    d770:	e3a02000 	mov	r2, #0
    d774:	ebffee60 	bl	90fc <lockf@plt>
    d778:	e1a00004 	mov	r0, r4
    d77c:	e8bd8038 	pop	{r3, r4, r5, pc}
    d780:	e59f1030 	ldr	r1, [pc, #48]	; d7b8 <_start+0x4590>
    d784:	e59f0030 	ldr	r0, [pc, #48]	; d7bc <_start+0x4594>
[31m    d788:	ebffedc8 	bl	8eb0 <printf@plt>[0m
    d78c:	ebffee81 	bl	9198 <__errno_location@plt>
    d790:	e5900000 	ldr	r0, [r0]
    d794:	ebffedce 	bl	8ed4 <strerror@plt>
    d798:	e1a01005 	mov	r1, r5
    d79c:	e1a02000 	mov	r2, r0
    d7a0:	e59f0018 	ldr	r0, [pc, #24]	; d7c0 <_start+0x4598>
[31m    d7a4:	ebffedc1 	bl	8eb0 <printf@plt>[0m
    d7a8:	e3a0000a 	mov	r0, #10
    d7ac:	ebffedb0 	bl	8e74 <putchar@plt>

[0m
[[0;33m*[0m] Function [0;33mprintf[0m used [0;33m95[0m times [0;33mudhcpd.svn-base[0m

