[[0;33m*[0m] Binary protection state of [0;33mhttpd[0m
[REF] s12

  	RELRO          CANARY            NX           PIE       RPATH        RUNPATH      SYMBOLS      
  	[31mNo RELRO[0m       [31mNo Canary found[0m   [32mNX enabled[0m   [31mNo PIE[0m       [32mNo RPATH[0m     [32mNo RUNPATH[0m   [32mNo Symbols[0m

[0m
[[0;33m*[0m] Function [0;33msprintf[0m tear down of [0;33mhttpd[0m

    ef44:	e1500006 	cmp	r0, r6
    ef48:	959f50f4 	ldrls	r5, [pc, #244]	; f044 <_start@@Base+0x4678>
    ef4c:	8a00002c 	bhi	f004 <_start@@Base+0x4638>
    ef50:	e3540ee1 	cmp	r4, #3600	; 0xe10
    ef54:	8a00001a 	bhi	efc4 <_start@@Base+0x45f8>
    ef58:	e354003c 	cmp	r4, #60	; 0x3c
    ef5c:	9a00000e 	bls	ef9c <_start@@Base+0x45d0>
    ef60:	e59f00e0 	ldr	r0, [pc, #224]	; f048 <_start@@Base+0x467c>
    ef64:	e3086889 	movw	r6, #34953	; 0x8889
    ef68:	e3486888 	movt	r6, #34952	; 0x8888
    ef6c:	e0862496 	umull	r2, r6, r6, r4
    ef70:	e1a062a6 	lsr	r6, r6, #5
    ef74:	e1a01000 	mov	r1, r0
    ef78:	ebfff0d6 	bl	b2d8 <_start@@Base+0x90c>
    ef7c:	e1a02006 	mov	r2, r6
    ef80:	e0666206 	rsb	r6, r6, r6, lsl #4
    ef84:	e1a03000 	mov	r3, r0
    ef88:	e59f10bc 	ldr	r1, [pc, #188]	; f04c <_start@@Base+0x4680>
    ef8c:	e1a00005 	mov	r0, r5
    ef90:	e0444106 	sub	r4, r4, r6, lsl #2
[31m    ef94:	ebffee0e 	bl	a7d4 <sprintf@plt>[0m
    ef98:	e0855000 	add	r5, r5, r0
    ef9c:	e59f00ac 	ldr	r0, [pc, #172]	; f050 <_start@@Base+0x4684>
    efa0:	e1a01000 	mov	r1, r0
    efa4:	ebfff0cb 	bl	b2d8 <_start@@Base+0x90c>
    efa8:	e59f10a4 	ldr	r1, [pc, #164]	; f054 <_start@@Base+0x4688>
    efac:	e1a03000 	mov	r3, r0
    efb0:	e1a02004 	mov	r2, r4
    efb4:	e1a00005 	mov	r0, r5
[31m    efb8:	ebffee05 	bl	a7d4 <sprintf@plt>[0m
    efbc:	e59f0080 	ldr	r0, [pc, #128]	; f044 <_start@@Base+0x4678>
    efc0:	e8bd80f8 	pop	{r3, r4, r5, r6, r7, pc}
    efc4:	e59f008c 	ldr	r0, [pc, #140]	; f058 <_start@@Base+0x468c>
    efc8:	e30b63c5 	movw	r6, #46021	; 0xb3c5
    efcc:	e34961a2 	movt	r6, #37282	; 0x91a2
    efd0:	e0862496 	umull	r2, r6, r6, r4
    efd4:	e1a065a6 	lsr	r6, r6, #11
    efd8:	e1a01000 	mov	r1, r0
    efdc:	ebfff0bd 	bl	b2d8 <_start@@Base+0x90c>
    efe0:	e59f1064 	ldr	r1, [pc, #100]	; f04c <_start@@Base+0x4680>
    efe4:	e1a03000 	mov	r3, r0
    efe8:	e1a02006 	mov	r2, r6
    efec:	e1a00005 	mov	r0, r5
[31m    eff0:	ebffedf7 	bl	a7d4 <sprintf@plt>[0m
    eff4:	e3a03ee1 	mov	r3, #3600	; 0xe10
    eff8:	e0855000 	add	r5, r5, r0
    effc:	e0644693 	mls	r4, r3, r6, r4
    f000:	eaffffd4 	b	ef58 <_start@@Base+0x458c>
    f004:	e59f0050 	ldr	r0, [pc, #80]	; f05c <_start@@Base+0x4690>
    f008:	e3047507 	movw	r7, #17671	; 0x4507
    f00c:	e59f5030 	ldr	r5, [pc, #48]	; f044 <_start@@Base+0x4678>
    f010:	e34c722e 	movt	r7, #49710	; 0xc22e
    f014:	e0872497 	umull	r2, r7, r7, r4
    f018:	e1a07827 	lsr	r7, r7, #16
    f01c:	e1a01000 	mov	r1, r0
    f020:	ebfff0ac 	bl	b2d8 <_start@@Base+0x90c>
    f024:	e59f1020 	ldr	r1, [pc, #32]	; f04c <_start@@Base+0x4680>
    f028:	e1a03000 	mov	r3, r0
    f02c:	e1a02007 	mov	r2, r7
    f030:	e1a00005 	mov	r0, r5
[31m    f034:	ebffede6 	bl	a7d4 <sprintf@plt>[0m
    f038:	e0644796 	mls	r4, r6, r7, r4
    f03c:	e0855000 	add	r5, r5, r0
--
    f284:	e2400002 	sub	r0, r0, #2
    f288:	e7d42000 	ldrb	r2, [r4, r0]
    f28c:	e352000d 	cmp	r2, #13
    f290:	03a02000 	moveq	r2, #0
    f294:	13a02000 	movne	r2, #0
    f298:	07c42003 	strbeq	r2, [r4, r3]
    f29c:	17c42003 	strbne	r2, [r4, r3]
    f2a0:	07c42000 	strbeq	r2, [r4, r0]
    f2a4:	e1a00005 	mov	r0, r5
    f2a8:	e8bd8038 	pop	{r3, r4, r5, pc}
    f2ac:	e92d4ff0 	push	{r4, r5, r6, r7, r8, r9, sl, fp, lr}
    f2b0:	e305382d 	movw	r3, #22573	; 0x582d
    f2b4:	e24ddf57 	sub	sp, sp, #348	; 0x15c
    f2b8:	e3403058 	movt	r3, #88	; 0x58
    f2bc:	e28d4f56 	add	r4, sp, #344	; 0x158
    f2c0:	e3a0200a 	mov	r2, #10
    f2c4:	e5243004 	str	r3, [r4, #-4]!
    f2c8:	e1a08001 	mov	r8, r1
    f2cc:	e1a00004 	mov	r0, r4
    f2d0:	e59f1540 	ldr	r1, [pc, #1344]	; f818 <_start@@Base+0x4e4c>
[31m    f2d4:	ebffed3e 	bl	a7d4 <sprintf@plt>[0m
    f2d8:	e59fe53c 	ldr	lr, [pc, #1340]	; f81c <_start@@Base+0x4e50>
    f2dc:	e3a0c000 	mov	ip, #0
--
    f458:	e58b4000 	str	r4, [fp]
    f45c:	e59db038 	ldr	fp, [sp, #56]	; 0x38
    f460:	e5894000 	str	r4, [r9]
    f464:	e59d903c 	ldr	r9, [sp, #60]	; 0x3c
    f468:	e58b4000 	str	r4, [fp]
    f46c:	e59db040 	ldr	fp, [sp, #64]	; 0x40
    f470:	e5894000 	str	r4, [r9]
    f474:	e59d901c 	ldr	r9, [sp, #28]
    f478:	e58b4000 	str	r4, [fp]
    f47c:	e3a0b000 	mov	fp, #0
    f480:	e48c4004 	str	r4, [ip], #4
    f484:	e1c940b0 	strh	r4, [r9]
    f488:	e48c4004 	str	r4, [ip], #4
    f48c:	e5c9b002 	strb	fp, [r9, #2]
    f490:	e1cc40b0 	strh	r4, [ip]
    f494:	e59f13a4 	ldr	r1, [pc, #932]	; f840 <_start@@Base+0x4e74>
    f498:	e58de000 	str	lr, [sp]
    f49c:	e58d4120 	str	r4, [sp, #288]	; 0x120
    f4a0:	e58d4144 	str	r4, [sp, #324]	; 0x144
    f4a4:	e98d00e0 	stmib	sp, {r5, r6, r7}
[31m    f4a8:	ebffecc9 	bl	a7d4 <sprintf@plt>[0m
    f4ac:	e28d0d05 	add	r0, sp, #320	; 0x140
    f4b0:	e59f138c 	ldr	r1, [pc, #908]	; f844 <_start@@Base+0x4e78>
--
    feb4:	e5941000 	ldr	r1, [r4]
    feb8:	e3510000 	cmp	r1, #0
    febc:	1a000003 	bne	fed0 <_start@@Base+0x5504>
    fec0:	ea000008 	b	fee8 <_start@@Base+0x551c>
    fec4:	e5b41004 	ldr	r1, [r4, #4]!
    fec8:	e3510000 	cmp	r1, #0
    fecc:	0a000005 	beq	fee8 <_start@@Base+0x551c>
    fed0:	e1a00005 	mov	r0, r5
    fed4:	ebffea32 	bl	a7a4 <strcmp@plt>
    fed8:	e3500000 	cmp	r0, #0
    fedc:	1afffff8 	bne	fec4 <_start@@Base+0x54f8>
    fee0:	e3a00001 	mov	r0, #1
    fee4:	e8bd81f0 	pop	{r4, r5, r6, r7, r8, pc}
    fee8:	e59f40b8 	ldr	r4, [pc, #184]	; ffa8 <_start@@Base+0x55dc>
    feec:	e1a03005 	mov	r3, r5
    fef0:	e5962004 	ldr	r2, [r6, #4]
    fef4:	e59f10b0 	ldr	r1, [pc, #176]	; ffac <_start@@Base+0x55e0>
    fef8:	e594c024 	ldr	ip, [r4, #36]	; 0x24
    fefc:	e5940028 	ldr	r0, [r4, #40]	; 0x28
    ff00:	e08c0000 	add	r0, ip, r0
[31m    ff04:	ebffea32 	bl	a7d4 <sprintf@plt>[0m
    ff08:	e5943028 	ldr	r3, [r4, #40]	; 0x28
    ff0c:	e5962010 	ldr	r2, [r6, #16]
    ff10:	e0800003 	add	r0, r0, r3
    ff14:	e5840028 	str	r0, [r4, #40]	; 0x28
    ff18:	e5923000 	ldr	r3, [r2]
    ff1c:	e3530000 	cmp	r3, #0
    ff20:	0a000011 	beq	ff6c <_start@@Base+0x55a0>
    ff24:	e59f7084 	ldr	r7, [pc, #132]	; ffb0 <_start@@Base+0x55e4>
    ff28:	e1a05002 	mov	r5, r2
    ff2c:	e59f8080 	ldr	r8, [pc, #128]	; ffb4 <_start@@Base+0x55e8>
    ff30:	ea000000 	b	ff38 <_start@@Base+0x556c>
    ff34:	e5962010 	ldr	r2, [r6, #16]
    ff38:	e594c024 	ldr	ip, [r4, #36]	; 0x24
    ff3c:	e1520005 	cmp	r2, r5
    ff40:	01a02007 	moveq	r2, r7
    ff44:	11a02008 	movne	r2, r8
    ff48:	e59f1068 	ldr	r1, [pc, #104]	; ffb8 <_start@@Base+0x55ec>
    ff4c:	e08c0000 	add	r0, ip, r0
[31m    ff50:	ebffea1f 	bl	a7d4 <sprintf@plt>[0m
    ff54:	e5943028 	ldr	r3, [r4, #40]	; 0x28
    ff58:	e0800003 	add	r0, r0, r3
--
   103ac:	e3500000 	cmp	r0, #0
   103b0:	0affffe7 	beq	10354 <_start@@Base+0x5988>
   103b4:	e1a01005 	mov	r1, r5
   103b8:	e1a00006 	mov	r0, r6
   103bc:	ebffe95e 	bl	a93c <fputs@plt>
   103c0:	e1a00005 	mov	r0, r5
   103c4:	ebffe803 	bl	a3d8 <fflush@plt>
   103c8:	e3a00000 	mov	r0, #0
   103cc:	eaffffe0 	b	10354 <_start@@Base+0x5988>
   103d0:	00047c7c 	andeq	r7, r4, ip, ror ip
   103d4:	e92d4ff0 	push	{r4, r5, r6, r7, r8, r9, sl, fp, lr}
   103d8:	e305382d 	movw	r3, #22573	; 0x582d
   103dc:	e24ddf41 	sub	sp, sp, #260	; 0x104
   103e0:	e3403058 	movt	r3, #88	; 0x58
   103e4:	e28d5c01 	add	r5, sp, #256	; 0x100
   103e8:	e3a0200a 	mov	r2, #10
   103ec:	e5253004 	str	r3, [r5, #-4]!
   103f0:	e1a04001 	mov	r4, r1
   103f4:	e1a00005 	mov	r0, r5
   103f8:	e59f12e8 	ldr	r1, [pc, #744]	; 106e8 <_start@@Base+0x5d1c>
[31m   103fc:	ebffe8f4 	bl	a7d4 <sprintf@plt>[0m
   10400:	e59fe2e4 	ldr	lr, [pc, #740]	; 106ec <_start@@Base+0x5d20>
   10404:	e3a0c000 	mov	ip, #0
--
   10890:	e5dd2005 	ldrb	r2, [sp, #5]
   10894:	e00c7007 	and	r7, ip, r7
   10898:	e0007007 	and	r7, r0, r7
   1089c:	e0017007 	and	r7, r1, r7
   108a0:	e0027007 	and	r7, r2, r7
   108a4:	e35700ff 	cmp	r7, #255	; 0xff
   108a8:	0a000005 	beq	108c4 <_start@@Base+0x5ef8>
   108ac:	e1843003 	orr	r3, r4, r3
   108b0:	e18cc003 	orr	ip, ip, r3
   108b4:	e180000c 	orr	r0, r0, ip
   108b8:	e1811000 	orr	r1, r1, r0
   108bc:	e1921001 	orrs	r1, r2, r1
   108c0:	1affffe1 	bne	1084c <_start@@Base+0x5e80>
   108c4:	e59f4044 	ldr	r4, [pc, #68]	; 10910 <_start@@Base+0x5f44>
   108c8:	e1a03006 	mov	r3, r6
   108cc:	e5952004 	ldr	r2, [r5, #4]
   108d0:	e59f103c 	ldr	r1, [pc, #60]	; 10914 <_start@@Base+0x5f48>
   108d4:	e594c024 	ldr	ip, [r4, #36]	; 0x24
   108d8:	e5940028 	ldr	r0, [r4, #40]	; 0x28
   108dc:	e08c0000 	add	r0, ip, r0
[31m   108e0:	ebffe7bb 	bl	a7d4 <sprintf@plt>[0m
   108e4:	e5942028 	ldr	r2, [r4, #40]	; 0x28
   108e8:	e3a03000 	mov	r3, #0
--
   10958:	e1a01005 	mov	r1, r5
   1095c:	ebffe700 	bl	a564 <nvram_set@plt>
   10960:	e3a03000 	mov	r3, #0
   10964:	e5843000 	str	r3, [r4]
   10968:	e8bd80f8 	pop	{r3, r4, r5, r6, r7, pc}
   1096c:	e5960000 	ldr	r0, [r6]
   10970:	e1a01005 	mov	r1, r5
   10974:	ebffe6fa 	bl	a564 <nvram_set@plt>
   10978:	eafffff8 	b	10960 <_start@@Base+0x5f94>
   1097c:	0006864c 	andeq	r8, r6, ip, asr #12
   10980:	e92d41f0 	push	{r4, r5, r6, r7, r8, lr}
   10984:	e1a05000 	mov	r5, r0
   10988:	e59f0160 	ldr	r0, [pc, #352]	; 10af0 <_start@@Base+0x6124>
   1098c:	e1a04002 	mov	r4, r2
   10990:	e1a06001 	mov	r6, r1
   10994:	ebffe841 	bl	aaa0 <_start@@Base+0xd4>
   10998:	e2502000 	subs	r2, r0, #0
   1099c:	0a000041 	beq	10aa8 <_start@@Base+0x60dc>
   109a0:	e59f114c 	ldr	r1, [pc, #332]	; 10af4 <_start@@Base+0x6128>
   109a4:	e0860004 	add	r0, r6, r4
[31m   109a8:	ebffe789 	bl	a7d4 <sprintf@plt>[0m
   109ac:	e1a08000 	mov	r8, r0
   109b0:	e59f0140 	ldr	r0, [pc, #320]	; 10af8 <_start@@Base+0x612c>
   109b4:	ebffe839 	bl	aaa0 <_start@@Base+0xd4>
   109b8:	e2502000 	subs	r2, r0, #0
   109bc:	0a000042 	beq	10acc <_start@@Base+0x6100>
   109c0:	e5d27000 	ldrb	r7, [r2]
   109c4:	e0884004 	add	r4, r8, r4
   109c8:	e3570000 	cmp	r7, #0
   109cc:	0a000016 	beq	10a2c <_start@@Base+0x6060>
   109d0:	e0860004 	add	r0, r6, r4
   109d4:	e59f1120 	ldr	r1, [pc, #288]	; 10afc <_start@@Base+0x6130>
[31m   109d8:	ebffe77d 	bl	a7d4 <sprintf@plt>[0m
   109dc:	e0804004 	add	r4, r0, r4
   109e0:	e59f0118 	ldr	r0, [pc, #280]	; 10b00 <_start@@Base+0x6134>
   109e4:	ebffe82d 	bl	aaa0 <_start@@Base+0xd4>
   109e8:	e2502000 	subs	r2, r0, #0
   109ec:	e3a07001 	mov	r7, #1
   109f0:	0a000016 	beq	10a50 <_start@@Base+0x6084>
   109f4:	e0860004 	add	r0, r6, r4
   109f8:	e59f1104 	ldr	r1, [pc, #260]	; 10b04 <_start@@Base+0x6138>
[31m   109fc:	ebffe774 	bl	a7d4 <sprintf@plt>[0m
   10a00:	e0844000 	add	r4, r4, r0
   10a04:	e59f00fc 	ldr	r0, [pc, #252]	; 10b08 <_start@@Base+0x613c>
   10a08:	ebffe824 	bl	aaa0 <_start@@Base+0xd4>
   10a0c:	e2502000 	subs	r2, r0, #0
   10a10:	0a000019 	beq	10a7c <_start@@Base+0x60b0>
   10a14:	e0860004 	add	r0, r6, r4
   10a18:	e59f10ec 	ldr	r1, [pc, #236]	; 10b0c <_start@@Base+0x6140>
[31m   10a1c:	ebffe76c 	bl	a7d4 <sprintf@plt>[0m
   10a20:	e0844000 	add	r4, r4, r0
   10a24:	e1a00004 	mov	r0, r4
--
   10ba4:	e3500000 	cmp	r0, #0
   10ba8:	e59f10a4 	ldr	r1, [pc, #164]	; 10c54 <_start@@Base+0x6288>
   10bac:	11a08000 	movne	r8, r0
   10bb0:	e1a0000a 	mov	r0, sl
   10bb4:	ebffe6fa 	bl	a7a4 <strcmp@plt>
   10bb8:	e3500000 	cmp	r0, #0
   10bbc:	1a000011 	bne	10c08 <_start@@Base+0x623c>
   10bc0:	e5d83000 	ldrb	r3, [r8]
   10bc4:	e3530000 	cmp	r3, #0
   10bc8:	1affffe5 	bne	10b64 <_start@@Base+0x6198>
   10bcc:	e5960024 	ldr	r0, [r6, #36]	; 0x24
   10bd0:	e5963028 	ldr	r3, [r6, #40]	; 0x28
   10bd4:	e59f107c 	ldr	r1, [pc, #124]	; 10c58 <_start@@Base+0x628c>
   10bd8:	e5952004 	ldr	r2, [r5, #4]
   10bdc:	ea000003 	b	10bf0 <_start@@Base+0x6224>
   10be0:	e5960024 	ldr	r0, [r6, #36]	; 0x24
   10be4:	e1a02004 	mov	r2, r4
   10be8:	e5963028 	ldr	r3, [r6, #40]	; 0x28
   10bec:	e59f1068 	ldr	r1, [pc, #104]	; 10c5c <_start@@Base+0x6290>
   10bf0:	e0800003 	add	r0, r0, r3
[31m   10bf4:	ebffe6f6 	bl	a7d4 <sprintf@plt>[0m
   10bf8:	e5963028 	ldr	r3, [r6, #40]	; 0x28
   10bfc:	e0803003 	add	r3, r0, r3
--
   10cb4:	0a000021 	beq	10d40 <_start@@Base+0x6374>
   10cb8:	e1a00007 	mov	r0, r7
   10cbc:	e1a01004 	mov	r1, r4
   10cc0:	ebffe627 	bl	a564 <nvram_set@plt>
   10cc4:	e3a03000 	mov	r3, #0
   10cc8:	e5863000 	str	r3, [r6]
   10ccc:	e8bd80f8 	pop	{r3, r4, r5, r6, r7, pc}
   10cd0:	e59f00a4 	ldr	r0, [pc, #164]	; 10d7c <_start@@Base+0x63b0>
   10cd4:	ebffe771 	bl	aaa0 <_start@@Base+0xd4>
   10cd8:	e3500000 	cmp	r0, #0
   10cdc:	0a000003 	beq	10cf0 <_start@@Base+0x6324>
   10ce0:	e59f1098 	ldr	r1, [pc, #152]	; 10d80 <_start@@Base+0x63b4>
   10ce4:	ebffe6ae 	bl	a7a4 <strcmp@plt>
   10ce8:	e3500000 	cmp	r0, #0
   10cec:	0a000017 	beq	10d50 <_start@@Base+0x6384>
   10cf0:	e5963028 	ldr	r3, [r6, #40]	; 0x28
   10cf4:	e1a02004 	mov	r2, r4
   10cf8:	e5960024 	ldr	r0, [r6, #36]	; 0x24
   10cfc:	e59f1080 	ldr	r1, [pc, #128]	; 10d84 <_start@@Base+0x63b8>
   10d00:	e0800003 	add	r0, r0, r3
[31m   10d04:	ebffe6b2 	bl	a7d4 <sprintf@plt>[0m
   10d08:	e5963028 	ldr	r3, [r6, #40]	; 0x28
   10d0c:	e0803003 	add	r3, r0, r3
   10d10:	e5863028 	str	r3, [r6, #40]	; 0x28
   10d14:	e8bd80f8 	pop	{r3, r4, r5, r6, r7, pc}
   10d18:	e5963028 	ldr	r3, [r6, #40]	; 0x28
   10d1c:	e1a02004 	mov	r2, r4
   10d20:	e5960024 	ldr	r0, [r6, #36]	; 0x24
   10d24:	e59f105c 	ldr	r1, [pc, #92]	; 10d88 <_start@@Base+0x63bc>
   10d28:	e0800003 	add	r0, r0, r3
[31m   10d2c:	ebffe6a8 	bl	a7d4 <sprintf@plt>[0m
   10d30:	e5963028 	ldr	r3, [r6, #40]	; 0x28
   10d34:	e0803003 	add	r3, r0, r3
--
   111e4:	e1a0c00d 	mov	ip, sp
   111e8:	e1a0400d 	mov	r4, sp
   111ec:	e893000f 	ldm	r3, {r0, r1, r2, r3}
   111f0:	e8ac0007 	stmia	ip!, {r0, r1, r2}
   111f4:	e59f0104 	ldr	r0, [pc, #260]	; 11300 <_start@@Base+0x6934>
   111f8:	e1cc30b0 	strh	r3, [ip]
   111fc:	ebffe544 	bl	a714 <nvram_get@plt>
   11200:	e59f10fc 	ldr	r1, [pc, #252]	; 11304 <_start@@Base+0x6938>
   11204:	ebffe566 	bl	a7a4 <strcmp@plt>
   11208:	e2506000 	subs	r6, r0, #0
   1120c:	1afffff1 	bne	111d8 <_start@@Base+0x680c>
   11210:	e59f70f0 	ldr	r7, [pc, #240]	; 11308 <_start@@Base+0x693c>
   11214:	e28d8010 	add	r8, sp, #16
   11218:	ea000001 	b	11224 <_start@@Base+0x6858>
   1121c:	e3560010 	cmp	r6, #16
   11220:	0a000026 	beq	112c0 <_start@@Base+0x68f4>
   11224:	e1a02006 	mov	r2, r6
   11228:	e59f10dc 	ldr	r1, [pc, #220]	; 1130c <_start@@Base+0x6940>
   1122c:	e1a0000d 	mov	r0, sp
   11230:	e2866001 	add	r6, r6, #1
[31m   11234:	ebffe566 	bl	a7d4 <sprintf@plt>[0m
   11238:	e1a0000d 	mov	r0, sp
   1123c:	ebffe617 	bl	aaa0 <_start@@Base+0xd4>
--
   1150c:	eaffffca 	b	1143c <_start@@Base+0x6a70>
   11510:	e59d3034 	ldr	r3, [sp, #52]	; 0x34
   11514:	e30b63c5 	movw	r6, #46021	; 0xb3c5
   11518:	e34961a2 	movt	r6, #37282	; 0x91a2
   1151c:	e308e889 	movw	lr, #34953	; 0x8889
   11520:	e0862396 	umull	r2, r6, r6, r3
   11524:	e1a065a6 	lsr	r6, r6, #11
   11528:	e348e888 	movt	lr, #34952	; 0x8888
   1152c:	e08c239e 	umull	r2, ip, lr, r3
   11530:	e3a01ee1 	mov	r1, #3600	; 0xe10
   11534:	e1a0c2ac 	lsr	ip, ip, #5
   11538:	e1a02006 	mov	r2, r6
   1153c:	e59f0058 	ldr	r0, [pc, #88]	; 1159c <_start@@Base+0x6bd0>
   11540:	e0663691 	mls	r6, r1, r6, r3
   11544:	e59f1054 	ldr	r1, [pc, #84]	; 115a0 <_start@@Base+0x6bd4>
   11548:	e06cc20c 	rsb	ip, ip, ip, lsl #4
   1154c:	e043c10c 	sub	ip, r3, ip, lsl #2
   11550:	e08e369e 	umull	r3, lr, lr, r6
   11554:	e1a032ae 	lsr	r3, lr, #5
   11558:	e58dc000 	str	ip, [sp]
[31m   1155c:	ebffe49c 	bl	a7d4 <sprintf@plt>[0m
   11560:	e59f2034 	ldr	r2, [pc, #52]	; 1159c <_start@@Base+0x6bd0>
   11564:	eaffff93 	b	113b8 <_start@@Base+0x69ec>
--
   11718:	e5d67000 	ldrb	r7, [r6]
   1171c:	e3570000 	cmp	r7, #0
   11720:	0afffff4 	beq	116f8 <_start@@Base+0x6d2c>
   11724:	ebffe43f 	bl	a828 <__ctype_b_loc@plt>
   11728:	e1a02006 	mov	r2, r6
   1172c:	e5901000 	ldr	r1, [r0]
   11730:	ea000002 	b	11740 <_start@@Base+0x6d74>
   11734:	e5f27001 	ldrb	r7, [r2, #1]!
   11738:	e3570000 	cmp	r7, #0
   1173c:	0affffed 	beq	116f8 <_start@@Base+0x6d2c>
   11740:	e1a03087 	lsl	r3, r7, #1
   11744:	e19130b3 	ldrh	r3, [r1, r3]
   11748:	e3130010 	tst	r3, #16
   1174c:	1afffff8 	bne	11734 <_start@@Base+0x6d68>
   11750:	e594c024 	ldr	ip, [r4, #36]	; 0x24
   11754:	e1a03007 	mov	r3, r7
   11758:	e5940028 	ldr	r0, [r4, #40]	; 0x28
   1175c:	e59f1068 	ldr	r1, [pc, #104]	; 117cc <_start@@Base+0x6e00>
   11760:	e5952004 	ldr	r2, [r5, #4]
   11764:	e08c0000 	add	r0, ip, r0
[31m   11768:	ebffe419 	bl	a7d4 <sprintf@plt>[0m
   1176c:	e5943028 	ldr	r3, [r4, #40]	; 0x28
   11770:	e0803003 	add	r3, r0, r3
   11774:	e5843028 	str	r3, [r4, #40]	; 0x28
   11778:	e8bd81f0 	pop	{r4, r5, r6, r7, r8, pc}
   1177c:	e5943028 	ldr	r3, [r4, #40]	; 0x28
   11780:	e5940024 	ldr	r0, [r4, #36]	; 0x24
   11784:	e59f1044 	ldr	r1, [pc, #68]	; 117d0 <_start@@Base+0x6e04>
   11788:	e5952004 	ldr	r2, [r5, #4]
   1178c:	e0800003 	add	r0, r0, r3
[31m   11790:	ebffe40f 	bl	a7d4 <sprintf@plt>[0m
   11794:	e5943028 	ldr	r3, [r4, #40]	; 0x28
   11798:	e0803003 	add	r3, r0, r3
--
   11a4c:	e1a01006 	mov	r1, r6
   11a50:	ebffe2c3 	bl	a564 <nvram_set@plt>
   11a54:	e3a03000 	mov	r3, #0
   11a58:	e5843000 	str	r3, [r4]
   11a5c:	e8bd80f8 	pop	{r3, r4, r5, r6, r7, pc}
   11a60:	0006864c 	andeq	r8, r6, ip, asr #12
   11a64:	000481dc 	ldrdeq	r8, [r4], -ip
   11a68:	e92d4ff0 	push	{r4, r5, r6, r7, r8, r9, sl, fp, lr}
   11a6c:	e1a04000 	mov	r4, r0
   11a70:	e24dd014 	sub	sp, sp, #20
   11a74:	e3a00000 	mov	r0, #0
   11a78:	e3a05000 	mov	r5, #0
   11a7c:	e304add3 	movw	sl, #19923	; 0x4dd3
   11a80:	ebffe33e 	bl	a780 <time@plt>
   11a84:	ebffe334 	bl	a75c <srand@plt>
   11a88:	ebffe2ca 	bl	a5b8 <rand@plt>
   11a8c:	e30811fc 	movw	r1, #33276	; 0x81fc
   11a90:	e1a02000 	mov	r2, r0
   11a94:	e3401004 	movt	r1, #4
   11a98:	e1a00004 	mov	r0, r4
[31m   11a9c:	ebffe34c 	bl	a7d4 <sprintf@plt>[0m
   11aa0:	e1a01005 	mov	r1, r5
   11aa4:	e3a0200a 	mov	r2, #10
--
   11bbc:	e088e007 	add	lr, r8, r7
   11bc0:	e08aa08a 	add	sl, sl, sl, lsl #1
   11bc4:	e08ee001 	add	lr, lr, r1
   11bc8:	e08ee00a 	add	lr, lr, sl
   11bcc:	e08c1e92 	umull	r1, ip, r2, lr
   11bd0:	e1a0c1ac 	lsr	ip, ip, #3
   11bd4:	e3069667 	movw	r9, #26215	; 0x6667
   11bd8:	e3469666 	movt	r9, #26214	; 0x6666
   11bdc:	e08cc10c 	add	ip, ip, ip, lsl #2
   11be0:	e3081204 	movw	r1, #33284	; 0x8204
   11be4:	e3401004 	movt	r1, #4
   11be8:	e04ec08c 	sub	ip, lr, ip, lsl #1
   11bec:	e1a00004 	mov	r0, r4
   11bf0:	e26cc00a 	rsb	ip, ip, #10
   11bf4:	e0c2ec99 	smull	lr, r2, r9, ip
   11bf8:	e1a0efcc 	asr	lr, ip, #31
   11bfc:	e06e2142 	rsb	r2, lr, r2, asr #2
   11c00:	e0822102 	add	r2, r2, r2, lsl #2
   11c04:	e04c2082 	sub	r2, ip, r2, lsl #1
   11c08:	e0822003 	add	r2, r2, r3
[31m   11c0c:	ebffe2f0 	bl	a7d4 <sprintf@plt>[0m
   11c10:	e3080208 	movw	r0, #33288	; 0x8208
   11c14:	e5c45008 	strb	r5, [r4, #8]
--
   15690:	e58d4084 	str	r4, [sp, #132]	; 0x84
   15694:	0a00001b 	beq	15708 <_start@@Base+0xad3c>
   15698:	e3500000 	cmp	r0, #0
   1569c:	0a00001e 	beq	1571c <_start@@Base+0xad50>
   156a0:	e28d3088 	add	r3, sp, #136	; 0x88
   156a4:	e28d5004 	add	r5, sp, #4
   156a8:	e5230004 	str	r0, [r3, #-4]!
   156ac:	e1a00003 	mov	r0, r3
   156b0:	e59f1078 	ldr	r1, [pc, #120]	; 15730 <_start@@Base+0xad64>
   156b4:	ebffd455 	bl	a810 <strsep@plt>
   156b8:	e1a01004 	mov	r1, r4
   156bc:	e3a02080 	mov	r2, #128	; 0x80
   156c0:	e1a00005 	mov	r0, r5
   156c4:	ebffd41b 	bl	a738 <memset@plt>
   156c8:	e59f0064 	ldr	r0, [pc, #100]	; 15734 <_start@@Base+0xad68>
   156cc:	ebffd4f3 	bl	aaa0 <_start@@Base+0xd4>
   156d0:	ebffd475 	bl	a8ac <atoi@plt>
   156d4:	e59f105c 	ldr	r1, [pc, #92]	; 15738 <_start@@Base+0xad6c>
   156d8:	e1a02000 	mov	r2, r0
   156dc:	e1a00005 	mov	r0, r5
[31m   156e0:	ebffd43b 	bl	a7d4 <sprintf@plt>[0m
   156e4:	e1a00005 	mov	r0, r5
   156e8:	ebffd30d 	bl	a324 <system@plt>
--
   1582c:	e3a020fa 	mov	r2, #250	; 0xfa
   15830:	ebffd3c0 	bl	a738 <memset@plt>
   15834:	e3540000 	cmp	r4, #0
   15838:	e1a0500d 	mov	r5, sp
   1583c:	0a000007 	beq	15860 <_start@@Base+0xae94>
   15840:	e5d43000 	ldrb	r3, [r4]
   15844:	e3530000 	cmp	r3, #0
   15848:	0a000004 	beq	15860 <_start@@Base+0xae94>
   1584c:	e1a00004 	mov	r0, r4
   15850:	e3a0103b 	mov	r1, #59	; 0x3b
   15854:	ebffd435 	bl	a930 <strchr@plt>
   15858:	e3500000 	cmp	r0, #0
   1585c:	0a000003 	beq	15870 <_start@@Base+0xaea4>
   15860:	e3a00000 	mov	r0, #0
   15864:	ebffd4c1 	bl	ab70 <_start@@Base+0x1a4>
   15868:	e28ddf41 	add	sp, sp, #260	; 0x104
   1586c:	e8bd80f0 	pop	{r4, r5, r6, r7, pc}
   15870:	e59f104c 	ldr	r1, [pc, #76]	; 158c4 <_start@@Base+0xaef8>
   15874:	e1a02004 	mov	r2, r4
   15878:	e1a0000d 	mov	r0, sp
[31m   1587c:	ebffd3d4 	bl	a7d4 <sprintf@plt>[0m
   15880:	e1a0000d 	mov	r0, sp
   15884:	ebffd2a6 	bl	a324 <system@plt>
--
   15c34:	e1a00005 	mov	r0, r5
   15c38:	ebffd2a6 	bl	a6d8 <nvifname_to_osifname@plt>
   15c3c:	e3500000 	cmp	r0, #0
   15c40:	ba000031 	blt	15d0c <_start@@Base+0xb340>
   15c44:	e1a00007 	mov	r0, r7
   15c48:	ebffd182 	bl	a258 <wl_probe@plt>
   15c4c:	e3500000 	cmp	r0, #0
   15c50:	1a000006 	bne	15c70 <_start@@Base+0xb2a4>
   15c54:	e1a00007 	mov	r0, r7
   15c58:	e3a0100e 	mov	r1, #14
   15c5c:	e28d2024 	add	r2, sp, #36	; 0x24
   15c60:	e3a03004 	mov	r3, #4
   15c64:	ebffd2fb 	bl	a858 <wl_ioctl@plt>
   15c68:	e2508000 	subs	r8, r0, #0
   15c6c:	0a000014 	beq	15cc4 <_start@@Base+0xb2f8>
   15c70:	e5940024 	ldr	r0, [r4, #36]	; 0x24
   15c74:	e1a02005 	mov	r2, r5
   15c78:	e5943028 	ldr	r3, [r4, #40]	; 0x28
   15c7c:	e59f10f0 	ldr	r1, [pc, #240]	; 15d74 <_start@@Base+0xb3a8>
   15c80:	e0800003 	add	r0, r0, r3
[31m   15c84:	ebffd2d2 	bl	a7d4 <sprintf@plt>[0m
   15c88:	e5943028 	ldr	r3, [r4, #40]	; 0x28
   15c8c:	e0803003 	add	r3, r0, r3
--
   16fb0:	0a000007 	beq	16fd4 <_start@@Base+0xc608>
   16fb4:	e1a00006 	mov	r0, r6
   16fb8:	e1a01004 	mov	r1, r4
   16fbc:	ebffcd68 	bl	a564 <nvram_set@plt>
   16fc0:	e59f3068 	ldr	r3, [pc, #104]	; 17030 <_start@@Base+0xc664>
   16fc4:	e3a02000 	mov	r2, #0
   16fc8:	e5832000 	str	r2, [r3]
   16fcc:	e28dd010 	add	sp, sp, #16
   16fd0:	e8bd8070 	pop	{r4, r5, r6, pc}
   16fd4:	e5950000 	ldr	r0, [r5]
   16fd8:	e1a01004 	mov	r1, r4
   16fdc:	ebffcd60 	bl	a564 <nvram_set@plt>
   16fe0:	eafffff6 	b	16fc0 <_start@@Base+0xc5f4>
   16fe4:	e59f6044 	ldr	r6, [pc, #68]	; 17030 <_start@@Base+0xc664>
   16fe8:	e1a03004 	mov	r3, r4
   16fec:	e5952004 	ldr	r2, [r5, #4]
   16ff0:	e59f103c 	ldr	r1, [pc, #60]	; 17034 <_start@@Base+0xc668>
   16ff4:	e596c024 	ldr	ip, [r6, #36]	; 0x24
   16ff8:	e5960028 	ldr	r0, [r6, #40]	; 0x28
   16ffc:	e08c0000 	add	r0, ip, r0
[31m   17000:	ebffcdf3 	bl	a7d4 <sprintf@plt>[0m
   17004:	e5963028 	ldr	r3, [r6, #40]	; 0x28
   17008:	e3a02016 	mov	r2, #22
--
   170a0:	ebffcc54 	bl	a1f8 <inet_pton@plt>
   170a4:	e3500000 	cmp	r0, #0
   170a8:	da00001f 	ble	1712c <_start@@Base+0xc760>
   170ac:	e3570000 	cmp	r7, #0
   170b0:	0a000019 	beq	1711c <_start@@Base+0xc750>
   170b4:	e1a00007 	mov	r0, r7
   170b8:	e1a01004 	mov	r1, r4
   170bc:	ebffcd28 	bl	a564 <nvram_set@plt>
   170c0:	e59f308c 	ldr	r3, [pc, #140]	; 17154 <_start@@Base+0xc788>
   170c4:	e3a02000 	mov	r2, #0
   170c8:	e5832000 	str	r2, [r3]
   170cc:	e28dd04c 	add	sp, sp, #76	; 0x4c
   170d0:	e8bd80f0 	pop	{r4, r5, r6, r7, pc}
   170d4:	e59f5078 	ldr	r5, [pc, #120]	; 17154 <_start@@Base+0xc788>
   170d8:	e1a03004 	mov	r3, r4
   170dc:	e59f1074 	ldr	r1, [pc, #116]	; 17158 <_start@@Base+0xc78c>
   170e0:	e595c024 	ldr	ip, [r5, #36]	; 0x24
   170e4:	e5950028 	ldr	r0, [r5, #40]	; 0x28
   170e8:	e5962004 	ldr	r2, [r6, #4]
   170ec:	e08c0000 	add	r0, ip, r0
[31m   170f0:	ebffcdb7 	bl	a7d4 <sprintf@plt>[0m
   170f4:	e5953028 	ldr	r3, [r5, #40]	; 0x28
   170f8:	e3a02016 	mov	r2, #22
--
   1719c:	e5970004 	ldr	r0, [r7, #4]
   171a0:	ebffcdc1 	bl	a8ac <atoi@plt>
   171a4:	e1550004 	cmp	r5, r4
   171a8:	a3a03000 	movge	r3, #0
   171ac:	b3a03001 	movlt	r3, #1
   171b0:	e1a0c000 	mov	ip, r0
   171b4:	e1550000 	cmp	r5, r0
   171b8:	d1a05003 	movle	r5, r3
   171bc:	c3835001 	orrgt	r5, r3, #1
   171c0:	e3550000 	cmp	r5, #0
   171c4:	03a03001 	moveq	r3, #1
   171c8:	0a00000c 	beq	17200 <_start@@Base+0xc834>
   171cc:	e59f504c 	ldr	r5, [pc, #76]	; 17220 <_start@@Base+0xc854>
   171d0:	e1a03008 	mov	r3, r8
   171d4:	e5962004 	ldr	r2, [r6, #4]
   171d8:	e59f1044 	ldr	r1, [pc, #68]	; 17224 <_start@@Base+0xc858>
   171dc:	e595e024 	ldr	lr, [r5, #36]	; 0x24
   171e0:	e5950028 	ldr	r0, [r5, #40]	; 0x28
   171e4:	e88d1010 	stm	sp, {r4, ip}
   171e8:	e08e0000 	add	r0, lr, r0
[31m   171ec:	ebffcd78 	bl	a7d4 <sprintf@plt>[0m
   171f0:	e5952028 	ldr	r2, [r5, #40]	; 0x28
   171f4:	e3a03000 	mov	r3, #0
--
   1724c:	e1a01006 	mov	r1, r6
   17250:	ebffffc6 	bl	17170 <_start@@Base+0xc7a4>
   17254:	e3500000 	cmp	r0, #0
   17258:	0a000008 	beq	17280 <_start@@Base+0xc8b4>
   1725c:	e3540000 	cmp	r4, #0
   17260:	e1a01005 	mov	r1, r5
   17264:	05960000 	ldreq	r0, [r6]
   17268:	11a00004 	movne	r0, r4
   1726c:	ebffccbc 	bl	a564 <nvram_set@plt>
   17270:	e59f3054 	ldr	r3, [pc, #84]	; 172cc <_start@@Base+0xc900>
   17274:	e3a02000 	mov	r2, #0
   17278:	e5832000 	str	r2, [r3]
   1727c:	e8bd8070 	pop	{r4, r5, r6, pc}
   17280:	e59f4044 	ldr	r4, [pc, #68]	; 172cc <_start@@Base+0xc900>
   17284:	e1a03005 	mov	r3, r5
   17288:	e5962004 	ldr	r2, [r6, #4]
   1728c:	e59f103c 	ldr	r1, [pc, #60]	; 172d0 <_start@@Base+0xc904>
   17290:	e594c024 	ldr	ip, [r4, #36]	; 0x24
   17294:	e5940028 	ldr	r0, [r4, #40]	; 0x28
   17298:	e08c0000 	add	r0, ip, r0
[31m   1729c:	ebffcd4c 	bl	a7d4 <sprintf@plt>[0m
   172a0:	e5943028 	ldr	r3, [r4, #40]	; 0x28
   172a4:	e3a02016 	mov	r2, #22
--
   174e4:	e58d3414 	str	r3, [sp, #1044]	; 0x414
   174e8:	ebffcb6c 	bl	a2a0 <set_ftp_account@plt>
   174ec:	e59d2000 	ldr	r2, [sp]
   174f0:	e2855001 	add	r5, r5, #1
   174f4:	e1520005 	cmp	r2, r5
   174f8:	caffffb4 	bgt	173d0 <_start@@Base+0xca04>
   174fc:	e308164c 	movw	r1, #34380	; 0x864c
   17500:	e3a03000 	mov	r3, #0
   17504:	e3401006 	movt	r1, #6
   17508:	e5813000 	str	r3, [r1]
   1750c:	e28dd044 	add	sp, sp, #68	; 0x44
   17510:	e28ddb01 	add	sp, sp, #1024	; 0x400
   17514:	e8bd8ff0 	pop	{r4, r5, r6, r7, r8, r9, sl, fp, pc}
   17518:	e308364c 	movw	r3, #34380	; 0x864c
   1751c:	e1a02004 	mov	r2, r4
   17520:	e3403006 	movt	r3, #6
   17524:	e59f1054 	ldr	r1, [pc, #84]	; 17580 <_start@@Base+0xcbb4>
   17528:	e5930024 	ldr	r0, [r3, #36]	; 0x24
   1752c:	e5933028 	ldr	r3, [r3, #40]	; 0x28
   17530:	e0800003 	add	r0, r0, r3
[31m   17534:	ebffcca6 	bl	a7d4 <sprintf@plt>[0m
   17538:	e308264c 	movw	r2, #34380	; 0x864c
   1753c:	e3402006 	movt	r2, #6
--
   1770c:	e58d3414 	str	r3, [sp, #1044]	; 0x414
   17710:	ebffcab5 	bl	a1ec <set_smb_account@plt>
   17714:	e59d2000 	ldr	r2, [sp]
   17718:	e2855001 	add	r5, r5, #1
   1771c:	e1520005 	cmp	r2, r5
   17720:	caffffb4 	bgt	175f8 <_start@@Base+0xcc2c>
   17724:	e308164c 	movw	r1, #34380	; 0x864c
   17728:	e3a03000 	mov	r3, #0
   1772c:	e3401006 	movt	r1, #6
   17730:	e5813000 	str	r3, [r1]
   17734:	e28dd044 	add	sp, sp, #68	; 0x44
   17738:	e28ddb01 	add	sp, sp, #1024	; 0x400
   1773c:	e8bd8ff0 	pop	{r4, r5, r6, r7, r8, r9, sl, fp, pc}
   17740:	e308364c 	movw	r3, #34380	; 0x864c
   17744:	e1a02004 	mov	r2, r4
   17748:	e3403006 	movt	r3, #6
   1774c:	e59f1054 	ldr	r1, [pc, #84]	; 177a8 <_start@@Base+0xcddc>
   17750:	e5930024 	ldr	r0, [r3, #36]	; 0x24
   17754:	e5933028 	ldr	r3, [r3, #40]	; 0x28
   17758:	e0800003 	add	r0, r0, r3
[31m   1775c:	ebffcc1c 	bl	a7d4 <sprintf@plt>[0m
   17760:	e308264c 	movw	r2, #34380	; 0x864c
   17764:	e3402006 	movt	r2, #6
--
   17bd8:	e3530000 	cmp	r3, #0
   17bdc:	e58d449c 	str	r4, [sp, #1180]	; 0x49c
   17be0:	0a000017 	beq	17c44 <_start@@Base+0xd278>
   17be4:	e1580004 	cmp	r8, r4
   17be8:	3a000002 	bcc	17bf8 <_start@@Base+0xd22c>
   17bec:	e3540000 	cmp	r4, #0
   17bf0:	059d301c 	ldreq	r3, [sp, #28]
   17bf4:	058d349c 	streq	r3, [sp, #1180]	; 0x49c
   17bf8:	e28d1e47 	add	r1, sp, #1136	; 0x470
   17bfc:	e1a00007 	mov	r0, r7
   17c00:	e281100c 	add	r1, r1, #12
   17c04:	ebffca7a 	bl	a5f4 <set_schedule@plt>
   17c08:	eaffffce 	b	17b48 <_start@@Base+0xd17c>
   17c0c:	e308364c 	movw	r3, #34380	; 0x864c
   17c10:	e59d2000 	ldr	r2, [sp]
   17c14:	e3403006 	movt	r3, #6
   17c18:	e59f10b4 	ldr	r1, [pc, #180]	; 17cd4 <_start@@Base+0xd308>
   17c1c:	e5930024 	ldr	r0, [r3, #36]	; 0x24
   17c20:	e5933028 	ldr	r3, [r3, #40]	; 0x28
   17c24:	e0800003 	add	r0, r0, r3
[31m   17c28:	ebffcae9 	bl	a7d4 <sprintf@plt>[0m
   17c2c:	e308264c 	movw	r2, #34380	; 0x864c
   17c30:	e3402006 	movt	r2, #6
--
   180a4:	e3530000 	cmp	r3, #0
   180a8:	0a00001a 	beq	18118 <_start@@Base+0xd74c>
   180ac:	e59d764c 	ldr	r7, [sp, #1612]	; 0x64c
   180b0:	e5d73000 	ldrb	r3, [r7]
   180b4:	e3530000 	cmp	r3, #0
   180b8:	0a000016 	beq	18118 <_start@@Base+0xd74c>
   180bc:	e59d3644 	ldr	r3, [sp, #1604]	; 0x644
   180c0:	e5d32000 	ldrb	r2, [r3]
   180c4:	e3520000 	cmp	r2, #0
   180c8:	0a000003 	beq	180dc <_start@@Base+0xd710>
   180cc:	e59dc640 	ldr	ip, [sp, #1600]	; 0x640
   180d0:	e5dc2000 	ldrb	r2, [ip]
   180d4:	e3520000 	cmp	r2, #0
   180d8:	1a000040 	bne	181e0 <_start@@Base+0xd814>
   180dc:	e59de028 	ldr	lr, [sp, #40]	; 0x28
   180e0:	e5990024 	ldr	r0, [r9, #36]	; 0x24
   180e4:	e5993028 	ldr	r3, [r9, #40]	; 0x28
   180e8:	e59f159c 	ldr	r1, [pc, #1436]	; 1868c <_start@@Base+0xdcc0>
   180ec:	e59e2004 	ldr	r2, [lr, #4]
   180f0:	e0800003 	add	r0, r0, r3
[31m   180f4:	ebffc9b6 	bl	a7d4 <sprintf@plt>[0m
   180f8:	e5993028 	ldr	r3, [r9, #40]	; 0x28
   180fc:	e0803003 	add	r3, r0, r3
--
   181e4:	e58d1034 	str	r1, [sp, #52]	; 0x34
   181e8:	e5d12000 	ldrb	r2, [r1]
   181ec:	e3520000 	cmp	r2, #0
   181f0:	0a000004 	beq	18208 <_start@@Base+0xd83c>
   181f4:	e59d2638 	ldr	r2, [sp, #1592]	; 0x638
   181f8:	e58d2038 	str	r2, [sp, #56]	; 0x38
   181fc:	e5d22000 	ldrb	r2, [r2]
   18200:	e3520000 	cmp	r2, #0
   18204:	1a000015 	bne	18260 <_start@@Base+0xd894>
   18208:	e59dc028 	ldr	ip, [sp, #40]	; 0x28
   1820c:	e5990024 	ldr	r0, [r9, #36]	; 0x24
   18210:	e5993028 	ldr	r3, [r9, #40]	; 0x28
   18214:	e59f1478 	ldr	r1, [pc, #1144]	; 18694 <_start@@Base+0xdcc8>
   18218:	e59c2004 	ldr	r2, [ip, #4]
   1821c:	eaffffb3 	b	180f0 <_start@@Base+0xd724>
   18220:	e5993028 	ldr	r3, [r9, #40]	; 0x28
   18224:	e5990024 	ldr	r0, [r9, #36]	; 0x24
   18228:	e59d2024 	ldr	r2, [sp, #36]	; 0x24
   1822c:	e59f1464 	ldr	r1, [pc, #1124]	; 18698 <_start@@Base+0xdccc>
   18230:	e0800003 	add	r0, r0, r3
[31m   18234:	ebffc966 	bl	a7d4 <sprintf@plt>[0m
   18238:	e5993028 	ldr	r3, [r9, #40]	; 0x28
   1823c:	e0803003 	add	r3, r0, r3
--
   18568:	ebffc88d 	bl	a7a4 <strcmp@plt>
   1856c:	e3500000 	cmp	r0, #0
   18570:	e1a00004 	mov	r0, r4
   18574:	059d3558 	ldreq	r3, [sp, #1368]	; 0x558
   18578:	03833102 	orreq	r3, r3, #-2147483648	; 0x80000000
   1857c:	058d3558 	streq	r3, [sp, #1368]	; 0x558
   18580:	ebffc8c9 	bl	a8ac <atoi@plt>
   18584:	e28d1e51 	add	r1, sp, #1296	; 0x510
   18588:	e58d05b4 	str	r0, [sp, #1460]	; 0x5b4
   1858c:	e1a00008 	mov	r0, r8
   18590:	ebffc72d 	bl	a24c <set_autofw_port@plt>
   18594:	eafffeda 	b	18104 <_start@@Base+0xd738>
   18598:	e5992024 	ldr	r2, [r9, #36]	; 0x24
   1859c:	e5990028 	ldr	r0, [r9, #40]	; 0x28
   185a0:	e59f110c 	ldr	r1, [pc, #268]	; 186b4 <_start@@Base+0xdce8>
   185a4:	e59de4f8 	ldr	lr, [sp, #1272]	; 0x4f8
   185a8:	e0820000 	add	r0, r2, r0
   185ac:	e59d24dc 	ldr	r2, [sp, #1244]	; 0x4dc
   185b0:	e58de000 	str	lr, [sp]
   185b4:	e58dc004 	str	ip, [sp, #4]
[31m   185b8:	ebffc885 	bl	a7d4 <sprintf@plt>[0m
   185bc:	e5993028 	ldr	r3, [r9, #40]	; 0x28
   185c0:	e0803003 	add	r3, r0, r3
   185c4:	e5893028 	str	r3, [r9, #40]	; 0x28
   185c8:	eafffecd 	b	18104 <_start@@Base+0xd738>
   185cc:	e5992024 	ldr	r2, [r9, #36]	; 0x24
   185d0:	e5990028 	ldr	r0, [r9, #40]	; 0x28
   185d4:	e59f10d8 	ldr	r1, [pc, #216]	; 186b4 <_start@@Base+0xdce8>
   185d8:	e59de4c0 	ldr	lr, [sp, #1216]	; 0x4c0
   185dc:	e0820000 	add	r0, r2, r0
   185e0:	e59d24a4 	ldr	r2, [sp, #1188]	; 0x4a4
   185e4:	eafffff1 	b	185b0 <_start@@Base+0xdbe4>
   185e8:	e5992024 	ldr	r2, [r9, #36]	; 0x24
   185ec:	e1a03006 	mov	r3, r6
   185f0:	e5990028 	ldr	r0, [r9, #40]	; 0x28
   185f4:	e59dc46c 	ldr	ip, [sp, #1132]	; 0x46c
   185f8:	e59f10b4 	ldr	r1, [pc, #180]	; 186b4 <_start@@Base+0xdce8>
   185fc:	e0820000 	add	r0, r2, r0
   18600:	e59d2450 	ldr	r2, [sp, #1104]	; 0x450
   18604:	e58dc000 	str	ip, [sp]
   18608:	e58d7004 	str	r7, [sp, #4]
[31m   1860c:	ebffc870 	bl	a7d4 <sprintf@plt>[0m
   18610:	e5993028 	ldr	r3, [r9, #40]	; 0x28
   18614:	e0803003 	add	r3, r0, r3
--
   18918:	caffff83 	bgt	1872c <_start@@Base+0xdd60>
   1891c:	e308c64c 	movw	ip, #34380	; 0x864c
   18920:	e3a03000 	mov	r3, #0
   18924:	e340c006 	movt	ip, #6
   18928:	e58c3000 	str	r3, [ip]
   1892c:	e28dd08c 	add	sp, sp, #140	; 0x8c
   18930:	e28ddb01 	add	sp, sp, #1024	; 0x400
   18934:	e8bd8ff0 	pop	{r4, r5, r6, r7, r8, r9, sl, fp, pc}
   18938:	e1a00006 	mov	r0, r6
   1893c:	e3a0100d 	mov	r1, #13
   18940:	e59f206c 	ldr	r2, [pc, #108]	; 189b4 <_start@@Base+0xdfe8>
   18944:	ebffc63a 	bl	a234 <snprintf@plt>
   18948:	eaffff7f 	b	1874c <_start@@Base+0xdd80>
   1894c:	e308164c 	movw	r1, #34380	; 0x864c
   18950:	e59d2024 	ldr	r2, [sp, #36]	; 0x24
   18954:	e3401006 	movt	r1, #6
   18958:	e5913028 	ldr	r3, [r1, #40]	; 0x28
   1895c:	e5910024 	ldr	r0, [r1, #36]	; 0x24
   18960:	e59f1050 	ldr	r1, [pc, #80]	; 189b8 <_start@@Base+0xdfec>
   18964:	e0800003 	add	r0, r0, r3
[31m   18968:	ebffc799 	bl	a7d4 <sprintf@plt>[0m
   1896c:	e308264c 	movw	r2, #34380	; 0x864c
   18970:	e3402006 	movt	r2, #6
--
   18d74:	e59d3414 	ldr	r3, [sp, #1044]	; 0x414
   18d78:	e3530000 	cmp	r3, #0
   18d7c:	1affffd6 	bne	18cdc <_start@@Base+0xe310>
   18d80:	e59d85b0 	ldr	r8, [sp, #1456]	; 0x5b0
   18d84:	e5d83000 	ldrb	r3, [r8]
   18d88:	e3530000 	cmp	r3, #0
   18d8c:	0a000003 	beq	18da0 <_start@@Base+0xe3d4>
   18d90:	e59da5c0 	ldr	sl, [sp, #1472]	; 0x5c0
   18d94:	e5da3000 	ldrb	r3, [sl]
   18d98:	e3530000 	cmp	r3, #0
   18d9c:	1a000047 	bne	18ec0 <_start@@Base+0xe4f4>
   18da0:	e3540000 	cmp	r4, #0
   18da4:	0a00000c 	beq	18ddc <_start@@Base+0xe410>
   18da8:	e308364c 	movw	r3, #34380	; 0x864c
   18dac:	e59f1224 	ldr	r1, [pc, #548]	; 18fd8 <_start@@Base+0xe60c>
   18db0:	e3403006 	movt	r3, #6
   18db4:	e1a02006 	mov	r2, r6
   18db8:	e5930024 	ldr	r0, [r3, #36]	; 0x24
   18dbc:	e5933028 	ldr	r3, [r3, #40]	; 0x28
   18dc0:	e0800003 	add	r0, r0, r3
[31m   18dc4:	ebffc682 	bl	a7d4 <sprintf@plt>[0m
   18dc8:	e308264c 	movw	r2, #34380	; 0x864c
   18dcc:	e3402006 	movt	r2, #6
--
   18e1c:	e308364c 	movw	r3, #34380	; 0x864c
   18e20:	e1a02006 	mov	r2, r6
   18e24:	e3403006 	movt	r3, #6
   18e28:	e5930024 	ldr	r0, [r3, #36]	; 0x24
   18e2c:	e1a01003 	mov	r1, r3
   18e30:	e5913028 	ldr	r3, [r1, #40]	; 0x28
   18e34:	e59f11a0 	ldr	r1, [pc, #416]	; 18fdc <_start@@Base+0xe610>
   18e38:	eaffffe0 	b	18dc0 <_start@@Base+0xe3f4>
   18e3c:	e59d100c 	ldr	r1, [sp, #12]
   18e40:	e28d2d17 	add	r2, sp, #1472	; 0x5c0
   18e44:	e2822008 	add	r2, r2, #8
   18e48:	e18200b1 	strh	r0, [r2, r1]
   18e4c:	eaffff8b 	b	18c80 <_start@@Base+0xe2b4>
   18e50:	e308364c 	movw	r3, #34380	; 0x864c
   18e54:	e59d2008 	ldr	r2, [sp, #8]
   18e58:	e3403006 	movt	r3, #6
   18e5c:	e59f117c 	ldr	r1, [pc, #380]	; 18fe0 <_start@@Base+0xe614>
   18e60:	e5930024 	ldr	r0, [r3, #36]	; 0x24
   18e64:	e5933028 	ldr	r3, [r3, #40]	; 0x28
   18e68:	e0800003 	add	r0, r0, r3
[31m   18e6c:	ebffc658 	bl	a7d4 <sprintf@plt>[0m
   18e70:	e308264c 	movw	r2, #34380	; 0x864c
   18e74:	e3402006 	movt	r2, #6
--
   19180:	e58d81c4 	str	r8, [sp, #452]	; 0x1c4
   19184:	ebffc645 	bl	aaa0 <_start@@Base+0xd4>
   19188:	e59f3188 	ldr	r3, [pc, #392]	; 19318 <_start@@Base+0xe94c>
   1918c:	e1500008 	cmp	r0, r8
   19190:	e59f1184 	ldr	r1, [pc, #388]	; 1931c <_start@@Base+0xe950>
   19194:	01a00003 	moveq	r0, r3
   19198:	ebffc52d 	bl	a654 <strtok@plt>
   1919c:	e2501000 	subs	r1, r0, #0
   191a0:	0a000053 	beq	192f4 <_start@@Base+0xe928>
   191a4:	e28d4004 	add	r4, sp, #4
   191a8:	e3a0200a 	mov	r2, #10
   191ac:	e1a00005 	mov	r0, r5
   191b0:	ebffc512 	bl	a600 <strncpy@plt>
   191b4:	e3a01000 	mov	r1, #0
   191b8:	e3a02040 	mov	r2, #64	; 0x40
   191bc:	e1a00006 	mov	r0, r6
   191c0:	ebffc55c 	bl	a738 <memset@plt>
   191c4:	e1a02005 	mov	r2, r5
   191c8:	e59f1150 	ldr	r1, [pc, #336]	; 19320 <_start@@Base+0xe954>
   191cc:	e1a00006 	mov	r0, r6
[31m   191d0:	ebffc57f 	bl	a7d4 <sprintf@plt>[0m
   191d4:	e59f1148 	ldr	r1, [pc, #328]	; 19324 <_start@@Base+0xe958>
   191d8:	e1a00006 	mov	r0, r6
--
   19268:	e3a01001 	mov	r1, #1
   1926c:	e3a02004 	mov	r2, #4
   19270:	e1a03009 	mov	r3, r9
   19274:	ebffc571 	bl	a840 <fwrite@plt>
   19278:	e1a00009 	mov	r0, r9
   1927c:	ebffc455 	bl	a3d8 <fflush@plt>
   19280:	e1a00009 	mov	r0, r9
   19284:	ebffc453 	bl	a3d8 <fflush@plt>
   19288:	e3a00000 	mov	r0, #0
   1928c:	e28dde1d 	add	sp, sp, #464	; 0x1d0
   19290:	e8bd87f0 	pop	{r4, r5, r6, r7, r8, r9, sl, pc}
   19294:	e1a0000a 	mov	r0, sl
   19298:	ebffc532 	bl	a768 <fclose@plt>
   1929c:	e3a01000 	mov	r1, #0
   192a0:	e3a02040 	mov	r2, #64	; 0x40
   192a4:	e1a00006 	mov	r0, r6
   192a8:	ebffc522 	bl	a738 <memset@plt>
   192ac:	e1a02005 	mov	r2, r5
   192b0:	e59f1078 	ldr	r1, [pc, #120]	; 19330 <_start@@Base+0xe964>
   192b4:	e1a00006 	mov	r0, r6
[31m   192b8:	ebffc545 	bl	a7d4 <sprintf@plt>[0m
   192bc:	e1a00006 	mov	r0, r6
   192c0:	ebffc417 	bl	a324 <system@plt>
   192c4:	e1a00006 	mov	r0, r6
   192c8:	e3a01000 	mov	r1, #0
   192cc:	e3a02040 	mov	r2, #64	; 0x40
   192d0:	ebffc518 	bl	a738 <memset@plt>
   192d4:	e1a00006 	mov	r0, r6
   192d8:	e59f1054 	ldr	r1, [pc, #84]	; 19334 <_start@@Base+0xe968>
   192dc:	e1a02005 	mov	r2, r5
   192e0:	e59f3050 	ldr	r3, [pc, #80]	; 19338 <_start@@Base+0xe96c>
[31m   192e4:	ebffc53a 	bl	a7d4 <sprintf@plt>[0m
   192e8:	e1a00006 	mov	r0, r6
   192ec:	ebffc40c 	bl	a324 <system@plt>
--
   1b13c:	e21cc602 	ands	ip, ip, #2097152	; 0x200000
   1b140:	1afffff5 	bne	1b11c <_start@@Base+0x10750>
   1b144:	e59fe1d8 	ldr	lr, [pc, #472]	; 1b324 <_start@@Base+0x10958>
   1b148:	e28d7054 	add	r7, sp, #84	; 0x54
   1b14c:	e2475004 	sub	r5, r7, #4
   1b150:	e59d7004 	ldr	r7, [sp, #4]
   1b154:	e28d6014 	add	r6, sp, #20
   1b158:	e8be000f 	ldm	lr!, {r0, r1, r2, r3}
   1b15c:	e59ee000 	ldr	lr, [lr]
   1b160:	e8a7000f 	stmia	r7!, {r0, r1, r2, r3}
   1b164:	e1a00006 	mov	r0, r6
   1b168:	e1a0100c 	mov	r1, ip
   1b16c:	e3a02040 	mov	r2, #64	; 0x40
   1b170:	e587e000 	str	lr, [r7]
   1b174:	e1a07004 	mov	r7, r4
   1b178:	ebffbd6e 	bl	a738 <memset@plt>
   1b17c:	e5b54004 	ldr	r4, [r5, #4]!
   1b180:	e1a00006 	mov	r0, r6
   1b184:	e59f119c 	ldr	r1, [pc, #412]	; 1b328 <_start@@Base+0x1095c>
   1b188:	e1a02004 	mov	r2, r4
[31m   1b18c:	ebffbd90 	bl	a7d4 <sprintf@plt>[0m
   1b190:	e1a01006 	mov	r1, r6
   1b194:	e5970000 	ldr	r0, [r7]
--
   1b23c:	e3500000 	cmp	r0, #0
   1b240:	e59d1008 	ldr	r1, [sp, #8]
   1b244:	01a0000b 	moveq	r0, fp
   1b248:	e5d03000 	ldrb	r3, [r0]
   1b24c:	e3530030 	cmp	r3, #48	; 0x30
   1b250:	0a00001b 	beq	1b2c4 <_start@@Base+0x108f8>
   1b254:	e59f00d0 	ldr	r0, [pc, #208]	; 1b32c <_start@@Base+0x10960>
   1b258:	ebffbd2d 	bl	a714 <nvram_get@plt>
   1b25c:	e3500000 	cmp	r0, #0
   1b260:	01a0000b 	moveq	r0, fp
   1b264:	e5d03000 	ldrb	r3, [r0]
   1b268:	e3530031 	cmp	r3, #49	; 0x31
   1b26c:	1affffcc 	bne	1b1a4 <_start@@Base+0x107d8>
   1b270:	e3a01000 	mov	r1, #0
   1b274:	e3a02040 	mov	r2, #64	; 0x40
   1b278:	e1a00006 	mov	r0, r6
   1b27c:	ebffbd2d 	bl	a738 <memset@plt>
   1b280:	e1a00006 	mov	r0, r6
   1b284:	e59f10a4 	ldr	r1, [pc, #164]	; 1b330 <_start@@Base+0x10964>
   1b288:	e1a02004 	mov	r2, r4
[31m   1b28c:	ebffbd50 	bl	a7d4 <sprintf@plt>[0m
   1b290:	e1a00006 	mov	r0, r6
   1b294:	e1a01008 	mov	r1, r8
   1b298:	ebffbcb1 	bl	a564 <nvram_set@plt>
   1b29c:	eaffffc0 	b	1b1a4 <_start@@Base+0x107d8>
   1b2a0:	e594c00c 	ldr	ip, [r4, #12]
   1b2a4:	e35c0000 	cmp	ip, #0
   1b2a8:	0affffc6 	beq	1b1c8 <_start@@Base+0x107fc>
   1b2ac:	e59d000c 	ldr	r0, [sp, #12]
   1b2b0:	e1a01008 	mov	r1, r8
   1b2b4:	e1a02004 	mov	r2, r4
   1b2b8:	e3a03000 	mov	r3, #0
   1b2bc:	e12fff3c 	blx	ip
   1b2c0:	eaffff95 	b	1b11c <_start@@Base+0x10750>
   1b2c4:	e3a02040 	mov	r2, #64	; 0x40
   1b2c8:	e1a00006 	mov	r0, r6
   1b2cc:	ebffbd19 	bl	a738 <memset@plt>
   1b2d0:	e1a00006 	mov	r0, r6
   1b2d4:	e1a02004 	mov	r2, r4
   1b2d8:	e59f1054 	ldr	r1, [pc, #84]	; 1b334 <_start@@Base+0x10968>
[31m   1b2dc:	ebffbd3c 	bl	a7d4 <sprintf@plt>[0m
   1b2e0:	e1a00006 	mov	r0, r6
   1b2e4:	e1a01008 	mov	r1, r8
--
   1b9c8:	e3a02009 	mov	r2, #9
   1b9cc:	e0890000 	add	r0, r9, r0
   1b9d0:	ebffba44 	bl	a2e8 <memcpy@plt>
   1b9d4:	e1a00009 	mov	r0, r9
   1b9d8:	ebffbb4d 	bl	a714 <nvram_get@plt>
   1b9dc:	e3500000 	cmp	r0, #0
   1b9e0:	0affff8a 	beq	1b810 <_start@@Base+0x10e44>
   1b9e4:	e59f1084 	ldr	r1, [pc, #132]	; 1ba70 <_start@@Base+0x110a4>
   1b9e8:	ebffbb6d 	bl	a7a4 <strcmp@plt>
   1b9ec:	e3500000 	cmp	r0, #0
   1b9f0:	1affff86 	bne	1b810 <_start@@Base+0x10e44>
   1b9f4:	eaffff5b 	b	1b768 <_start@@Base+0x10d9c>
   1b9f8:	e2888001 	add	r8, r8, #1
   1b9fc:	e3580c01 	cmp	r8, #256	; 0x100
   1ba00:	1affff60 	bne	1b788 <_start@@Base+0x10dbc>
   1ba04:	e3a00000 	mov	r0, #0
   1ba08:	eaffff57 	b	1b76c <_start@@Base+0x10da0>
   1ba0c:	e1a02008 	mov	r2, r8
   1ba10:	e59f1060 	ldr	r1, [pc, #96]	; 1ba78 <_start@@Base+0x110ac>
   1ba14:	e1a00004 	mov	r0, r4
[31m   1ba18:	ebffbb6d 	bl	a7d4 <sprintf@plt>[0m
   1ba1c:	e28d0074 	add	r0, sp, #116	; 0x74
   1ba20:	e59f1054 	ldr	r1, [pc, #84]	; 1ba7c <_start@@Base+0x110b0>
   1ba24:	e1a02008 	mov	r2, r8
[31m   1ba28:	ebffbb69 	bl	a7d4 <sprintf@plt>[0m
   1ba2c:	eafffeb2 	b	1b4fc <_start@@Base+0x10b30>
   1ba30:	e1a00004 	mov	r0, r4
   1ba34:	e59f1044 	ldr	r1, [pc, #68]	; 1ba80 <_start@@Base+0x110b4>
   1ba38:	e1a02008 	mov	r2, r8
[31m   1ba3c:	ebffbb64 	bl	a7d4 <sprintf@plt>[0m
   1ba40:	eaffff55 	b	1b79c <_start@@Base+0x10dd0>
   1ba44:	0004ac14 	andeq	sl, r4, r4, lsl ip
--
   1edb4:	e28d4d06 	add	r4, sp, #384	; 0x180
   1edb8:	e58dc190 	str	ip, [sp, #400]	; 0x190
   1edbc:	e1a0c004 	mov	ip, r4
   1edc0:	e8ac0007 	stmia	ip!, {r0, r1, r2}
   1edc4:	e1a00006 	mov	r0, r6
   1edc8:	e1cc30b0 	strh	r3, [ip]
   1edcc:	e1a0100e 	mov	r1, lr
   1edd0:	e28d3f67 	add	r3, sp, #412	; 0x19c
   1edd4:	e59f215c 	ldr	r2, [pc, #348]	; 1ef38 <_start@@Base+0x1456c>
   1edd8:	ebffb2d0 	bl	b920 <_start@@Base+0xf54>
   1eddc:	e3500000 	cmp	r0, #0
   1ede0:	da000047 	ble	1ef04 <_start@@Base+0x14538>
   1ede4:	e59d019c 	ldr	r0, [sp, #412]	; 0x19c
   1ede8:	e3500000 	cmp	r0, #0
   1edec:	0a00004b 	beq	1ef20 <_start@@Base+0x14554>
   1edf0:	e28d6f42 	add	r6, sp, #264	; 0x108
   1edf4:	ebffaeac 	bl	a8ac <atoi@plt>
   1edf8:	e59f113c 	ldr	r1, [pc, #316]	; 1ef3c <_start@@Base+0x14570>
   1edfc:	e1a02000 	mov	r2, r0
   1ee00:	e1a00004 	mov	r0, r4
[31m   1ee04:	ebffae72 	bl	a7d4 <sprintf@plt>[0m
   1ee08:	e1a01004 	mov	r1, r4
   1ee0c:	e1a00006 	mov	r0, r6
--
   1f620:	e59f20dc 	ldr	r2, [pc, #220]	; 1f704 <_start@@Base+0x14d38>
   1f624:	e0601003 	rsb	r1, r0, r3
   1f628:	e300348c 	movw	r3, #1164	; 0x48c
   1f62c:	e150000e 	cmp	r0, lr
   1f630:	e3403005 	movt	r3, #5
   1f634:	01a0300c 	moveq	r3, ip
   1f638:	e58d6000 	str	r6, [sp]
   1f63c:	e58d5004 	str	r5, [sp, #4]
   1f640:	ebffaafb 	bl	a234 <snprintf@plt>
   1f644:	e59d2014 	ldr	r2, [sp, #20]
   1f648:	e0822000 	add	r2, r2, r0
   1f64c:	e58d2014 	str	r2, [sp, #20]
   1f650:	eaffff88 	b	1f478 <_start@@Base+0x14aac>
   1f654:	e308264c 	movw	r2, #34380	; 0x864c
   1f658:	e59f10a8 	ldr	r1, [pc, #168]	; 1f708 <_start@@Base+0x14d3c>
   1f65c:	e3402006 	movt	r2, #6
   1f660:	e5923028 	ldr	r3, [r2, #40]	; 0x28
   1f664:	e5920024 	ldr	r0, [r2, #36]	; 0x24
   1f668:	e59a2004 	ldr	r2, [sl, #4]
   1f66c:	e0800003 	add	r0, r0, r3
[31m   1f670:	ebffac57 	bl	a7d4 <sprintf@plt>[0m
   1f674:	e308c64c 	movw	ip, #34380	; 0x864c
   1f678:	e340c006 	movt	ip, #6
   1f67c:	e59c3028 	ldr	r3, [ip, #40]	; 0x28
   1f680:	e0803003 	add	r3, r0, r3
   1f684:	e58c3028 	str	r3, [ip, #40]	; 0x28
   1f688:	eaffffdc 	b	1f600 <_start@@Base+0x14c34>
   1f68c:	e308e64c 	movw	lr, #34380	; 0x864c
   1f690:	e59f1074 	ldr	r1, [pc, #116]	; 1f70c <_start@@Base+0x14d40>
   1f694:	e340e006 	movt	lr, #6
   1f698:	e59e0024 	ldr	r0, [lr, #36]	; 0x24
   1f69c:	e59e3028 	ldr	r3, [lr, #40]	; 0x28
   1f6a0:	e59a2004 	ldr	r2, [sl, #4]
   1f6a4:	e0800003 	add	r0, r0, r3
[31m   1f6a8:	ebffac49 	bl	a7d4 <sprintf@plt>[0m
   1f6ac:	e308264c 	movw	r2, #34380	; 0x864c
   1f6b0:	e3402006 	movt	r2, #6
--
   211e8:	e1a00008 	mov	r0, r8
   211ec:	e5c37000 	strb	r7, [r3]
   211f0:	e1a06007 	mov	r6, r7
   211f4:	e58d7384 	str	r7, [sp, #900]	; 0x384
   211f8:	ebffa54e 	bl	a738 <memset@plt>
   211fc:	e1a01007 	mov	r1, r7
   21200:	e3a02c01 	mov	r2, #256	; 0x100
   21204:	e1a00005 	mov	r0, r5
   21208:	ebffa54a 	bl	a738 <memset@plt>
   2120c:	e28d3fe6 	add	r3, sp, #920	; 0x398
   21210:	e1a00009 	mov	r0, r9
   21214:	e5237004 	str	r7, [r3, #-4]!
   21218:	e1a0100a 	mov	r1, sl
   2121c:	e59f24d0 	ldr	r2, [pc, #1232]	; 216f4 <_start@@Base+0x16d28>
   21220:	ebffa9be 	bl	b920 <_start@@Base+0xf54>
   21224:	e1500007 	cmp	r0, r7
   21228:	da000128 	ble	216d0 <_start@@Base+0x16d04>
   2122c:	e59f14c4 	ldr	r1, [pc, #1220]	; 216f8 <_start@@Base+0x16d2c>
   21230:	e1a00008 	mov	r0, r8
   21234:	e59d2394 	ldr	r2, [sp, #916]	; 0x394
[31m   21238:	ebffa565 	bl	a7d4 <sprintf@plt>[0m
   2123c:	e1a00008 	mov	r0, r8
   21240:	ebffa533 	bl	a714 <nvram_get@plt>
--
   21414:	e2800003 	add	r0, r0, #3
   21418:	e4c37001 	strb	r7, [r3], #1
   2141c:	e5cd1290 	strb	r1, [sp, #656]	; 0x290
   21420:	e2881070 	add	r1, r8, #112	; 0x70
   21424:	e4c37001 	strb	r7, [r3], #1
   21428:	e5c37000 	strb	r7, [r3]
   2142c:	e5cd7292 	strb	r7, [sp, #658]	; 0x292
   21430:	e5cd7293 	strb	r7, [sp, #659]	; 0x293
   21434:	e5cd7294 	strb	r7, [sp, #660]	; 0x294
   21438:	e5cd7295 	strb	r7, [sp, #661]	; 0x295
   2143c:	ebffa3a9 	bl	a2e8 <memcpy@plt>
   21440:	e28d3fa9 	add	r3, sp, #676	; 0x2a4
   21444:	e59f12b8 	ldr	r1, [pc, #696]	; 21704 <_start@@Base+0x16d38>
   21448:	e2833003 	add	r3, r3, #3
   2144c:	e59d2014 	ldr	r2, [sp, #20]
   21450:	e4c37001 	strb	r7, [r3], #1
   21454:	e1a00009 	mov	r0, r9
   21458:	e4c37001 	strb	r7, [r3], #1
   2145c:	e5c37000 	strb	r7, [r3]
   21460:	e5cd72a6 	strb	r7, [sp, #678]	; 0x2a6
[31m   21464:	ebffa4da 	bl	a7d4 <sprintf@plt>[0m
   21468:	e1a00009 	mov	r0, r9
   2146c:	ebffa4a8 	bl	a714 <nvram_get@plt>
   21470:	e3500000 	cmp	r0, #0
   21474:	0a000050 	beq	215bc <_start@@Base+0x16bf0>
   21478:	e59f1288 	ldr	r1, [pc, #648]	; 21708 <_start@@Base+0x16d3c>
   2147c:	ebffa4c8 	bl	a7a4 <strcmp@plt>
   21480:	e2501000 	subs	r1, r0, #0
   21484:	1a00004c 	bne	215bc <_start@@Base+0x16bf0>
   21488:	e3a02064 	mov	r2, #100	; 0x64
   2148c:	e1a00009 	mov	r0, r9
   21490:	ebffa4a8 	bl	a738 <memset@plt>
   21494:	e59f1270 	ldr	r1, [pc, #624]	; 2170c <_start@@Base+0x16d40>
   21498:	e1a00009 	mov	r0, r9
   2149c:	e59d2014 	ldr	r2, [sp, #20]
[31m   214a0:	ebffa4cb 	bl	a7d4 <sprintf@plt>[0m
   214a4:	e1a00009 	mov	r0, r9
   214a8:	ebffa499 	bl	a714 <nvram_get@plt>
--
   21524:	0a000048 	beq	2164c <_start@@Base+0x16c80>
   21528:	e1a00006 	mov	r0, r6
   2152c:	e59f11f0 	ldr	r1, [pc, #496]	; 21724 <_start@@Base+0x16d58>
   21530:	e3a02003 	mov	r2, #3
   21534:	ebffa42b 	bl	a5e8 <strncmp@plt>
   21538:	e3500000 	cmp	r0, #0
   2153c:	1a000050 	bne	21684 <_start@@Base+0x16cb8>
   21540:	e1a0000b 	mov	r0, fp
   21544:	e28d1e25 	add	r1, sp, #592	; 0x250
   21548:	ebffa30c 	bl	a180 <strcpy@plt>
   2154c:	e1a00004 	mov	r0, r4
   21550:	e3a010fa 	mov	r1, #250	; 0xfa
   21554:	e59f21cc 	ldr	r2, [pc, #460]	; 21728 <_start@@Base+0x16d5c>
   21558:	e1a0300a 	mov	r3, sl
   2155c:	e58db000 	str	fp, [sp]
   21560:	e3a06000 	mov	r6, #0
   21564:	ebffa332 	bl	a234 <snprintf@plt>
   21568:	ea000002 	b	21578 <_start@@Base+0x16bac>
   2156c:	e7d42006 	ldrb	r2, [r4, r6]
   21570:	e2866001 	add	r6, r6, #1
[31m   21574:	ebffa496 	bl	a7d4 <sprintf@plt>[0m
   21578:	e1a00004 	mov	r0, r4
   2157c:	ebffa4df 	bl	a900 <strlen@plt>
--
   21588:	e0850086 	add	r0, r5, r6, lsl #1
   2158c:	8afffff6 	bhi	2156c <_start@@Base+0x16ba0>
   21590:	e28dcfe6 	add	ip, sp, #920	; 0x398
   21594:	e3a04000 	mov	r4, #0
   21598:	e08c6086 	add	r6, ip, r6, lsl #1
   2159c:	e59d1010 	ldr	r1, [sp, #16]
   215a0:	e1a00005 	mov	r0, r5
   215a4:	e5464380 	strb	r4, [r6, #-896]	; 0xfffffc80
   215a8:	ebffa4e3 	bl	a93c <fputs@plt>
   215ac:	e59d0010 	ldr	r0, [sp, #16]
   215b0:	ebffa388 	bl	a3d8 <fflush@plt>
   215b4:	e1a00004 	mov	r0, r4
   215b8:	eaffff29 	b	21264 <_start@@Base+0x16898>
   215bc:	e3a01000 	mov	r1, #0
   215c0:	e3a02064 	mov	r2, #100	; 0x64
   215c4:	e1a00009 	mov	r0, r9
   215c8:	ebffa45a 	bl	a738 <memset@plt>
   215cc:	e59f115c 	ldr	r1, [pc, #348]	; 21730 <_start@@Base+0x16d64>
   215d0:	e1a00009 	mov	r0, r9
   215d4:	e59d2014 	ldr	r2, [sp, #20]
[31m   215d8:	ebffa47d 	bl	a7d4 <sprintf@plt>[0m
   215dc:	e1a00009 	mov	r0, r9
   215e0:	ebffa44b 	bl	a714 <nvram_get@plt>
--
   219ec:	ebffa36c 	bl	a7a4 <strcmp@plt>
   219f0:	e2509000 	subs	r9, r0, #0
   219f4:	1affffe1 	bne	21980 <_start@@Base+0x16fb4>
   219f8:	e59a0000 	ldr	r0, [sl]
   219fc:	e1a01008 	mov	r1, r8
   21a00:	ebffa2d7 	bl	a564 <nvram_set@plt>
   21a04:	e5849000 	str	r9, [r4]
   21a08:	ea00000f 	b	21a4c <_start@@Base+0x17080>
   21a0c:	e5943028 	ldr	r3, [r4, #40]	; 0x28
   21a10:	e5945024 	ldr	r5, [r4, #36]	; 0x24
   21a14:	e59a6004 	ldr	r6, [sl, #4]
   21a18:	e59f004c 	ldr	r0, [pc, #76]	; 21a6c <_start@@Base+0x170a0>
   21a1c:	e0855003 	add	r5, r5, r3
   21a20:	ebffa33b 	bl	a714 <nvram_get@plt>
   21a24:	e3500000 	cmp	r0, #0
   21a28:	e59f3040 	ldr	r3, [pc, #64]	; 21a70 <_start@@Base+0x170a4>
   21a2c:	e1a02006 	mov	r2, r6
   21a30:	11a03000 	movne	r3, r0
   21a34:	e59f103c 	ldr	r1, [pc, #60]	; 21a78 <_start@@Base+0x170ac>
   21a38:	e1a00005 	mov	r0, r5
[31m   21a3c:	ebffa364 	bl	a7d4 <sprintf@plt>[0m
   21a40:	e5943028 	ldr	r3, [r4, #40]	; 0x28
   21a44:	e0803003 	add	r3, r0, r3
--
   21c3c:	e3500000 	cmp	r0, #0
   21c40:	e3403005 	movt	r3, #5
   21c44:	e1a01007 	mov	r1, r7
   21c48:	01a00003 	moveq	r0, r3
   21c4c:	ebffa253 	bl	a5a0 <strstr@plt>
   21c50:	e3500000 	cmp	r0, #0
   21c54:	1affffd1 	bne	21ba0 <_start@@Base+0x171d4>
   21c58:	e1a00007 	mov	r0, r7
   21c5c:	e59f107c 	ldr	r1, [pc, #124]	; 21ce0 <_start@@Base+0x17314>
   21c60:	e3a02003 	mov	r2, #3
   21c64:	ebffa25f 	bl	a5e8 <strncmp@plt>
   21c68:	e3500000 	cmp	r0, #0
   21c6c:	0affffcb 	beq	21ba0 <_start@@Base+0x171d4>
   21c70:	e308c64c 	movw	ip, #34380	; 0x864c
   21c74:	e5982004 	ldr	r2, [r8, #4]
   21c78:	e340c006 	movt	ip, #6
   21c7c:	e59f1060 	ldr	r1, [pc, #96]	; 21ce4 <_start@@Base+0x17318>
   21c80:	e59c3028 	ldr	r3, [ip, #40]	; 0x28
   21c84:	e59c0024 	ldr	r0, [ip, #36]	; 0x24
   21c88:	e0800003 	add	r0, r0, r3
[31m   21c8c:	ebffa2d0 	bl	a7d4 <sprintf@plt>[0m
   21c90:	e308264c 	movw	r2, #34380	; 0x864c
   21c94:	e3402006 	movt	r2, #6
--
   21ea0:	e3500000 	cmp	r0, #0
   21ea4:	e3402005 	movt	r2, #5
   21ea8:	e1a01007 	mov	r1, r7
   21eac:	01a00002 	moveq	r0, r2
   21eb0:	ebffa1ba 	bl	a5a0 <strstr@plt>
   21eb4:	e3500000 	cmp	r0, #0
   21eb8:	1affffd1 	bne	21e04 <_start@@Base+0x17438>
   21ebc:	e1a00007 	mov	r0, r7
   21ec0:	e59f107c 	ldr	r1, [pc, #124]	; 21f44 <_start@@Base+0x17578>
   21ec4:	e3a02003 	mov	r2, #3
   21ec8:	ebffa1c6 	bl	a5e8 <strncmp@plt>
   21ecc:	e3500000 	cmp	r0, #0
   21ed0:	0affffcb 	beq	21e04 <_start@@Base+0x17438>
   21ed4:	e308364c 	movw	r3, #34380	; 0x864c
   21ed8:	e5982004 	ldr	r2, [r8, #4]
   21edc:	e3403006 	movt	r3, #6
   21ee0:	e59f1060 	ldr	r1, [pc, #96]	; 21f48 <_start@@Base+0x1757c>
   21ee4:	e5930024 	ldr	r0, [r3, #36]	; 0x24
   21ee8:	e5933028 	ldr	r3, [r3, #40]	; 0x28
   21eec:	e0800003 	add	r0, r0, r3
[31m   21ef0:	ebffa237 	bl	a7d4 <sprintf@plt>[0m
   21ef4:	e308264c 	movw	r2, #34380	; 0x864c
   21ef8:	e3402006 	movt	r2, #6
--
   22fd8:	e1500002 	cmp	r0, r2
   22fdc:	e58d001c 	str	r0, [sp, #28]
   22fe0:	1a00001a 	bne	23050 <_start@@Base+0x18684>
   22fe4:	e1560000 	cmp	r6, r0
   22fe8:	0a000034 	beq	230c0 <_start@@Base+0x186f4>
   22fec:	e1e03003 	mvn	r3, r3
   22ff0:	e1830000 	orr	r0, r3, r0
   22ff4:	e1560000 	cmp	r6, r0
   22ff8:	0a000010 	beq	23040 <_start@@Base+0x18674>
   22ffc:	e3a03001 	mov	r3, #1
   23000:	e1a00003 	mov	r0, r3
   23004:	e28dd024 	add	sp, sp, #36	; 0x24
   23008:	e8bd80f0 	pop	{r4, r5, r6, r7, pc}
   2300c:	e59f60d8 	ldr	r6, [pc, #216]	; 230ec <_start@@Base+0x18720>
   23010:	e1a03005 	mov	r3, r5
   23014:	e59f10d4 	ldr	r1, [pc, #212]	; 230f0 <_start@@Base+0x18724>
   23018:	e596c024 	ldr	ip, [r6, #36]	; 0x24
   2301c:	e5960028 	ldr	r0, [r6, #40]	; 0x28
   23020:	e5942004 	ldr	r2, [r4, #4]
   23024:	e08c0000 	add	r0, ip, r0
[31m   23028:	ebff9de9 	bl	a7d4 <sprintf@plt>[0m
   2302c:	e5962028 	ldr	r2, [r6, #40]	; 0x28
   23030:	e3a03000 	mov	r3, #0
   23034:	e0802002 	add	r2, r0, r2
   23038:	e5862028 	str	r2, [r6, #40]	; 0x28
   2303c:	eaffffef 	b	23000 <_start@@Base+0x18634>
   23040:	e59f60a4 	ldr	r6, [pc, #164]	; 230ec <_start@@Base+0x18720>
   23044:	e1a03005 	mov	r3, r5
   23048:	e59f10a4 	ldr	r1, [pc, #164]	; 230f4 <_start@@Base+0x18728>
   2304c:	eafffff1 	b	23018 <_start@@Base+0x1864c>
   23050:	e59f6094 	ldr	r6, [pc, #148]	; 230ec <_start@@Base+0x18720>
   23054:	e5947004 	ldr	r7, [r4, #4]
   23058:	e5963028 	ldr	r3, [r6, #40]	; 0x28
   2305c:	e5964024 	ldr	r4, [r6, #36]	; 0x24
   23060:	e0844003 	add	r4, r4, r3
   23064:	ebff9dc2 	bl	a774 <inet_ntoa@plt>
   23068:	e59f1088 	ldr	r1, [pc, #136]	; 230f8 <_start@@Base+0x1872c>
   2306c:	e1a02007 	mov	r2, r7
   23070:	e1a03005 	mov	r3, r5
   23074:	e58d0000 	str	r0, [sp]
   23078:	e1a00004 	mov	r0, r4
[31m   2307c:	ebff9dd4 	bl	a7d4 <sprintf@plt>[0m
   23080:	e5963028 	ldr	r3, [r6, #40]	; 0x28
   23084:	e5964024 	ldr	r4, [r6, #36]	; 0x24
   23088:	e0803003 	add	r3, r0, r3
   2308c:	e59d0018 	ldr	r0, [sp, #24]
   23090:	e0844003 	add	r4, r4, r3
   23094:	e5863028 	str	r3, [r6, #40]	; 0x28
   23098:	ebff9db5 	bl	a774 <inet_ntoa@plt>
   2309c:	e59f1058 	ldr	r1, [pc, #88]	; 230fc <_start@@Base+0x18730>
   230a0:	e1a02000 	mov	r2, r0
   230a4:	e1a00004 	mov	r0, r4
[31m   230a8:	ebff9dc9 	bl	a7d4 <sprintf@plt>[0m
   230ac:	e5962028 	ldr	r2, [r6, #40]	; 0x28
   230b0:	e3a03000 	mov	r3, #0
--
   233d0:	e3071920 	movw	r1, #31008	; 0x7920
   233d4:	e59d0014 	ldr	r0, [sp, #20]
   233d8:	e3520000 	cmp	r2, #0
   233dc:	e3401004 	movt	r1, #4
   233e0:	01a00001 	moveq	r0, r1
   233e4:	e3530000 	cmp	r3, #0
   233e8:	e58d0014 	str	r0, [sp, #20]
   233ec:	0a00001f 	beq	23470 <_start@@Base+0x18aa4>
   233f0:	e59de020 	ldr	lr, [sp, #32]
   233f4:	e5de3000 	ldrb	r3, [lr]
   233f8:	e3530000 	cmp	r3, #0
   233fc:	1a00002d 	bne	234b8 <_start@@Base+0x18aec>
   23400:	e308164c 	movw	r1, #34380	; 0x864c
   23404:	e5972004 	ldr	r2, [r7, #4]
   23408:	e3401006 	movt	r1, #6
   2340c:	e2866001 	add	r6, r6, #1
   23410:	e5913028 	ldr	r3, [r1, #40]	; 0x28
   23414:	e5910024 	ldr	r0, [r1, #36]	; 0x24
   23418:	e59f11c8 	ldr	r1, [pc, #456]	; 235e8 <_start@@Base+0x18c1c>
   2341c:	e0800003 	add	r0, r0, r3
[31m   23420:	ebff9ceb 	bl	a7d4 <sprintf@plt>[0m
   23424:	e308264c 	movw	r2, #34380	; 0x864c
   23428:	e3402006 	movt	r2, #6
--
   23440:	caffff6c 	bgt	231f8 <_start@@Base+0x1882c>
   23444:	eaffffcf 	b	23388 <_start@@Base+0x189bc>
   23448:	e59dc014 	ldr	ip, [sp, #20]
   2344c:	e3071920 	movw	r1, #31008	; 0x7920
   23450:	e59d0014 	ldr	r0, [sp, #20]
   23454:	e3401004 	movt	r1, #4
   23458:	e5dc2000 	ldrb	r2, [ip]
   2345c:	e3520000 	cmp	r2, #0
   23460:	01a00001 	moveq	r0, r1
   23464:	e3530000 	cmp	r3, #0
   23468:	e58d0014 	str	r0, [sp, #20]
   2346c:	1affffdf 	bne	233f0 <_start@@Base+0x18a24>
   23470:	e308264c 	movw	r2, #34380	; 0x864c
   23474:	e59f1170 	ldr	r1, [pc, #368]	; 235ec <_start@@Base+0x18c20>
   23478:	e3402006 	movt	r2, #6
   2347c:	e2866001 	add	r6, r6, #1
   23480:	e5923028 	ldr	r3, [r2, #40]	; 0x28
   23484:	e5920024 	ldr	r0, [r2, #36]	; 0x24
   23488:	e5972004 	ldr	r2, [r7, #4]
   2348c:	e0800003 	add	r0, r0, r3
[31m   23490:	ebff9ccf 	bl	a7d4 <sprintf@plt>[0m
   23494:	e308c64c 	movw	ip, #34380	; 0x864c
   23498:	e59d2024 	ldr	r2, [sp, #36]	; 0x24
--
   23970:	ca0000b3 	bgt	23c44 <_start@@Base+0x19278>
   23974:	e59d0020 	ldr	r0, [sp, #32]
   23978:	ebff9bcb 	bl	a8ac <atoi@plt>
   2397c:	e1a03000 	mov	r3, r0
   23980:	e59d0024 	ldr	r0, [sp, #36]	; 0x24
   23984:	e58d3008 	str	r3, [sp, #8]
   23988:	ebff9bc7 	bl	a8ac <atoi@plt>
   2398c:	e59d3008 	ldr	r3, [sp, #8]
   23990:	e1530000 	cmp	r3, r0
   23994:	da00007d 	ble	23b90 <_start@@Base+0x191c4>
   23998:	e5992024 	ldr	r2, [r9, #36]	; 0x24
   2399c:	e5990028 	ldr	r0, [r9, #40]	; 0x28
   239a0:	e59dc52c 	ldr	ip, [sp, #1324]	; 0x52c
   239a4:	e59d3020 	ldr	r3, [sp, #32]
   239a8:	e0820000 	add	r0, r2, r0
   239ac:	e59f12f0 	ldr	r1, [pc, #752]	; 23ca4 <_start@@Base+0x192d8>
   239b0:	e58dc000 	str	ip, [sp]
   239b4:	e59d2510 	ldr	r2, [sp, #1296]	; 0x510
   239b8:	e59dc024 	ldr	ip, [sp, #36]	; 0x24
   239bc:	e58dc004 	str	ip, [sp, #4]
[31m   239c0:	ebff9b83 	bl	a7d4 <sprintf@plt>[0m
   239c4:	e5993028 	ldr	r3, [r9, #40]	; 0x28
   239c8:	e0803003 	add	r3, r0, r3
--
   23ac0:	ebff9a62 	bl	a450 <del_port_range@plt>
   23ac4:	eaffffc1 	b	239d0 <_start@@Base+0x19004>
   23ac8:	e59d2598 	ldr	r2, [sp, #1432]	; 0x598
   23acc:	e59d15a0 	ldr	r1, [sp, #1440]	; 0x5a0
   23ad0:	e59d059c 	ldr	r0, [sp, #1436]	; 0x59c
   23ad4:	e5d2c000 	ldrb	ip, [r2]
   23ad8:	e5d11000 	ldrb	r1, [r1]
   23adc:	e5d00000 	ldrb	r0, [r0]
   23ae0:	eaffff68 	b	23888 <_start@@Base+0x18ebc>
   23ae4:	e3a03000 	mov	r3, #0
   23ae8:	e5893000 	str	r3, [r9]
   23aec:	e28ddf6b 	add	sp, sp, #428	; 0x1ac
   23af0:	e28ddb01 	add	sp, sp, #1024	; 0x400
   23af4:	e8bd8ff0 	pop	{r4, r5, r6, r7, r8, r9, sl, fp, pc}
   23af8:	e5990024 	ldr	r0, [r9, #36]	; 0x24
   23afc:	e5993028 	ldr	r3, [r9, #40]	; 0x28
   23b00:	e59f11ac 	ldr	r1, [pc, #428]	; 23cb4 <_start@@Base+0x192e8>
   23b04:	e59dc010 	ldr	ip, [sp, #16]
   23b08:	e0800003 	add	r0, r0, r3
   23b0c:	e59c2004 	ldr	r2, [ip, #4]
[31m   23b10:	ebff9b2f 	bl	a7d4 <sprintf@plt>[0m
   23b14:	e5993028 	ldr	r3, [r9, #40]	; 0x28
   23b18:	e0803003 	add	r3, r0, r3
   23b1c:	e5893028 	str	r3, [r9, #40]	; 0x28
   23b20:	eaffffaa 	b	239d0 <_start@@Base+0x19004>
   23b24:	e59d2598 	ldr	r2, [sp, #1432]	; 0x598
   23b28:	e59d059c 	ldr	r0, [sp, #1436]	; 0x59c
   23b2c:	e5d2c000 	ldrb	ip, [r2]
   23b30:	e5d00000 	ldrb	r0, [r0]
   23b34:	eaffff52 	b	23884 <_start@@Base+0x18eb8>
   23b38:	e5990024 	ldr	r0, [r9, #36]	; 0x24
   23b3c:	e5993028 	ldr	r3, [r9, #40]	; 0x28
   23b40:	e59f1170 	ldr	r1, [pc, #368]	; 23cb8 <_start@@Base+0x192ec>
   23b44:	eaffffee 	b	23b04 <_start@@Base+0x19138>
   23b48:	e5993028 	ldr	r3, [r9, #40]	; 0x28
   23b4c:	e5990024 	ldr	r0, [r9, #36]	; 0x24
   23b50:	e59d200c 	ldr	r2, [sp, #12]
   23b54:	e59f1160 	ldr	r1, [pc, #352]	; 23cbc <_start@@Base+0x192f0>
   23b58:	e0800003 	add	r0, r0, r3
[31m   23b5c:	ebff9b1c 	bl	a7d4 <sprintf@plt>[0m
   23b60:	e5993028 	ldr	r3, [r9, #40]	; 0x28
   23b64:	e0803003 	add	r3, r0, r3
--
   23ff8:	e59dc5d8 	ldr	ip, [sp, #1496]	; 0x5d8
   23ffc:	e5dc2000 	ldrb	r2, [ip]
   24000:	e3520000 	cmp	r2, #0
   24004:	0a000044 	beq	2411c <_start@@Base+0x19750>
   24008:	e59d15d4 	ldr	r1, [sp, #1492]	; 0x5d4
   2400c:	e58d1024 	str	r1, [sp, #36]	; 0x24
   24010:	e5d12000 	ldrb	r2, [r1]
   24014:	e3520000 	cmp	r2, #0
   24018:	0a000004 	beq	24030 <_start@@Base+0x19664>
   2401c:	e59d25d0 	ldr	r2, [sp, #1488]	; 0x5d0
   24020:	e58d202c 	str	r2, [sp, #44]	; 0x2c
   24024:	e5d22000 	ldrb	r2, [r2]
   24028:	e3520000 	cmp	r2, #0
   2402c:	1a00004d 	bne	24168 <_start@@Base+0x1979c>
   24030:	e5993028 	ldr	r3, [r9, #40]	; 0x28
   24034:	e5990024 	ldr	r0, [r9, #36]	; 0x24
   24038:	e59dc018 	ldr	ip, [sp, #24]
   2403c:	e59f1474 	ldr	r1, [pc, #1140]	; 244b8 <_start@@Base+0x19aec>
   24040:	e0800003 	add	r0, r0, r3
   24044:	e59c2004 	ldr	r2, [ip, #4]
[31m   24048:	ebff99e1 	bl	a7d4 <sprintf@plt>[0m
   2404c:	e5993028 	ldr	r3, [r9, #40]	; 0x28
   24050:	e0803003 	add	r3, r0, r3
   24054:	e5893028 	str	r3, [r9, #40]	; 0x28
   24058:	e2877001 	add	r7, r7, #1
   2405c:	e15b0007 	cmp	fp, r7
   24060:	ba00000e 	blt	240a0 <_start@@Base+0x196d4>
   24064:	e59d6570 	ldr	r6, [sp, #1392]	; 0x570
   24068:	eaffff8f 	b	23eac <_start@@Base+0x194e0>
   2406c:	e59dc018 	ldr	ip, [sp, #24]
   24070:	e5990024 	ldr	r0, [r9, #36]	; 0x24
   24074:	e5993028 	ldr	r3, [r9, #40]	; 0x28
   24078:	e59f143c 	ldr	r1, [pc, #1084]	; 244bc <_start@@Base+0x19af0>
   2407c:	e59c2004 	ldr	r2, [ip, #4]
   24080:	e0800003 	add	r0, r0, r3
   24084:	e2877001 	add	r7, r7, #1
[31m   24088:	ebff99d1 	bl	a7d4 <sprintf@plt>[0m
   2408c:	e5993028 	ldr	r3, [r9, #40]	; 0x28
   24090:	e15b0007 	cmp	fp, r7
--
   240f8:	e35e0000 	cmp	lr, #0
   240fc:	1a000016 	bne	2415c <_start@@Base+0x19790>
   24100:	e59dc5d0 	ldr	ip, [sp, #1488]	; 0x5d0
   24104:	e5dc1000 	ldrb	r1, [ip]
   24108:	e3510000 	cmp	r1, #0
   2410c:	1afffff4 	bne	240e4 <_start@@Base+0x19718>
   24110:	e1a00007 	mov	r0, r7
   24114:	ebff98e8 	bl	a4bc <del_forward_port@plt>
   24118:	eaffffce 	b	24058 <_start@@Base+0x1968c>
   2411c:	e59de018 	ldr	lr, [sp, #24]
   24120:	e5990024 	ldr	r0, [r9, #36]	; 0x24
   24124:	e5993028 	ldr	r3, [r9, #40]	; 0x28
   24128:	e59f1390 	ldr	r1, [pc, #912]	; 244c0 <_start@@Base+0x19af4>
   2412c:	e59e2004 	ldr	r2, [lr, #4]
   24130:	eaffffd2 	b	24080 <_start@@Base+0x196b4>
   24134:	e5993028 	ldr	r3, [r9, #40]	; 0x28
   24138:	e5990024 	ldr	r0, [r9, #36]	; 0x24
   2413c:	e59d201c 	ldr	r2, [sp, #28]
   24140:	e59f137c 	ldr	r1, [pc, #892]	; 244c4 <_start@@Base+0x19af8>
   24144:	e0800003 	add	r0, r0, r3
[31m   24148:	ebff99a1 	bl	a7d4 <sprintf@plt>[0m
   2414c:	e5993028 	ldr	r3, [r9, #40]	; 0x28
   24150:	e0803003 	add	r3, r0, r3
--
   243cc:	e1a00004 	mov	r0, r4
   243d0:	059d3468 	ldreq	r3, [sp, #1128]	; 0x468
   243d4:	03833102 	orreq	r3, r3, #-2147483648	; 0x80000000
   243d8:	058d3468 	streq	r3, [sp, #1128]	; 0x468
   243dc:	ebff9932 	bl	a8ac <atoi@plt>
   243e0:	e28d1e42 	add	r1, sp, #1056	; 0x420
   243e4:	e58d04c4 	str	r0, [sp, #1220]	; 0x4c4
   243e8:	e1a00007 	mov	r0, r7
   243ec:	ebff9862 	bl	a57c <set_forward_port@plt>
   243f0:	eaffff18 	b	24058 <_start@@Base+0x1968c>
   243f4:	e59dc558 	ldr	ip, [sp, #1368]	; 0x558
   243f8:	e5992024 	ldr	r2, [r9, #36]	; 0x24
   243fc:	e5990028 	ldr	r0, [r9, #40]	; 0x28
   24400:	e58dc000 	str	ip, [sp]
   24404:	e59dc02c 	ldr	ip, [sp, #44]	; 0x2c
   24408:	e59d3024 	ldr	r3, [sp, #36]	; 0x24
   2440c:	e0820000 	add	r0, r2, r0
   24410:	e59f10c8 	ldr	r1, [pc, #200]	; 244e0 <_start@@Base+0x19b14>
   24414:	e59d253c 	ldr	r2, [sp, #1340]	; 0x53c
   24418:	e58dc004 	str	ip, [sp, #4]
[31m   2441c:	ebff98ec 	bl	a7d4 <sprintf@plt>[0m
   24420:	e5993028 	ldr	r3, [r9, #40]	; 0x28
   24424:	e0803003 	add	r3, r0, r3
   24428:	e5893028 	str	r3, [r9, #40]	; 0x28
   2442c:	eaffff09 	b	24058 <_start@@Base+0x1968c>
   24430:	e5992024 	ldr	r2, [r9, #36]	; 0x24
   24434:	e1a03006 	mov	r3, r6
   24438:	e5990028 	ldr	r0, [r9, #40]	; 0x28
   2443c:	e59dc504 	ldr	ip, [sp, #1284]	; 0x504
   24440:	e59f1098 	ldr	r1, [pc, #152]	; 244e0 <_start@@Base+0x19b14>
   24444:	e0820000 	add	r0, r2, r0
   24448:	e59d24e8 	ldr	r2, [sp, #1256]	; 0x4e8
   2444c:	e58dc000 	str	ip, [sp]
   24450:	e58d8004 	str	r8, [sp, #4]
[31m   24454:	ebff98de 	bl	a7d4 <sprintf@plt>[0m
   24458:	e5993028 	ldr	r3, [r9, #40]	; 0x28
   2445c:	e0803003 	add	r3, r0, r3
--
   24600:	e59f932c 	ldr	r9, [pc, #812]	; 24934 <_start@@Base+0x19f68>
   24604:	e58d1018 	str	r1, [sp, #24]
   24608:	e58d301c 	str	r3, [sp, #28]
   2460c:	ea000017 	b	24670 <_start@@Base+0x19ca4>
   24610:	e59da5a0 	ldr	sl, [sp, #1440]	; 0x5a0
   24614:	e5da2000 	ldrb	r2, [sl]
   24618:	e3520000 	cmp	r2, #0
   2461c:	01a02008 	moveq	r2, r8
   24620:	058d85a0 	streq	r8, [sp, #1440]	; 0x5a0
   24624:	1a000079 	bne	24810 <_start@@Base+0x19e44>
   24628:	e1a0a002 	mov	sl, r2
   2462c:	e5d22000 	ldrb	r2, [r2]
   24630:	e3520000 	cmp	r2, #0
   24634:	1a000075 	bne	24810 <_start@@Base+0x19e44>
   24638:	e5973028 	ldr	r3, [r7, #40]	; 0x28
   2463c:	e5970024 	ldr	r0, [r7, #36]	; 0x24
   24640:	e59de010 	ldr	lr, [sp, #16]
   24644:	e59f12ec 	ldr	r1, [pc, #748]	; 24938 <_start@@Base+0x19f6c>
   24648:	e0800003 	add	r0, r0, r3
   2464c:	e59e2004 	ldr	r2, [lr, #4]
[31m   24650:	ebff985f 	bl	a7d4 <sprintf@plt>[0m
   24654:	e5973028 	ldr	r3, [r7, #40]	; 0x28
   24658:	e0803003 	add	r3, r0, r3
--
   24850:	e1a00008 	mov	r0, r8
   24854:	ebff972d 	bl	a510 <inet_addr@plt>
   24858:	e6bf2f30 	rev	r2, r0
   2485c:	e1a0000a 	mov	r0, sl
   24860:	e58d200c 	str	r2, [sp, #12]
   24864:	ebff9729 	bl	a510 <inet_addr@plt>
   24868:	e59d200c 	ldr	r2, [sp, #12]
   2486c:	e6bf0f30 	rev	r0, r0
   24870:	e59d3008 	ldr	r3, [sp, #8]
   24874:	e1520000 	cmp	r2, r0
   24878:	9affffb9 	bls	24764 <_start@@Base+0x19d98>
   2487c:	e5972024 	ldr	r2, [r7, #36]	; 0x24
   24880:	e1a03008 	mov	r3, r8
   24884:	e5970028 	ldr	r0, [r7, #40]	; 0x28
   24888:	e59dc568 	ldr	ip, [sp, #1384]	; 0x568
   2488c:	e59f10b8 	ldr	r1, [pc, #184]	; 2494c <_start@@Base+0x19f80>
   24890:	e0820000 	add	r0, r2, r0
   24894:	e59d254c 	ldr	r2, [sp, #1356]	; 0x54c
   24898:	e58dc000 	str	ip, [sp]
   2489c:	e58da004 	str	sl, [sp, #4]
[31m   248a0:	ebff97cb 	bl	a7d4 <sprintf@plt>[0m
   248a4:	e5973028 	ldr	r3, [r7, #40]	; 0x28
   248a8:	e0803003 	add	r3, r0, r3
   248ac:	e5873028 	str	r3, [r7, #40]	; 0x28
   248b0:	eaffff6a 	b	24660 <_start@@Base+0x19c94>
   248b4:	e1a0000a 	mov	r0, sl
   248b8:	e59d1018 	ldr	r1, [sp, #24]
   248bc:	ebff978b 	bl	a6f0 <inet_aton@plt>
   248c0:	eaffffc4 	b	247d8 <_start@@Base+0x19e0c>
   248c4:	e1a00008 	mov	r0, r8
   248c8:	e59d101c 	ldr	r1, [sp, #28]
   248cc:	ebff9787 	bl	a6f0 <inet_aton@plt>
   248d0:	e3e02000 	mvn	r2, #0
   248d4:	e59d3008 	ldr	r3, [sp, #8]
   248d8:	e58d24b0 	str	r2, [sp, #1200]	; 0x4b0
   248dc:	eaffffaa 	b	2478c <_start@@Base+0x19dc0>
   248e0:	e5973028 	ldr	r3, [r7, #40]	; 0x28
   248e4:	e1a02004 	mov	r2, r4
   248e8:	e5970024 	ldr	r0, [r7, #36]	; 0x24
   248ec:	e59f105c 	ldr	r1, [pc, #92]	; 24950 <_start@@Base+0x19f84>
   248f0:	e0800003 	add	r0, r0, r3
[31m   248f4:	ebff97b6 	bl	a7d4 <sprintf@plt>[0m
   248f8:	e5973028 	ldr	r3, [r7, #40]	; 0x28
   248fc:	e0803003 	add	r3, r0, r3
--
   24ba4:	e58de010 	str	lr, [sp, #16]
   24ba8:	e3530000 	cmp	r3, #0
   24bac:	0a00001b 	beq	24c20 <_start@@Base+0x1a254>
   24bb0:	e59db7a0 	ldr	fp, [sp, #1952]	; 0x7a0
   24bb4:	e5db3000 	ldrb	r3, [fp]
   24bb8:	e3530000 	cmp	r3, #0
   24bbc:	01a0300a 	moveq	r3, sl
   24bc0:	058da7a0 	streq	sl, [sp, #1952]	; 0x7a0
   24bc4:	1a00004b 	bne	24cf8 <_start@@Base+0x1a32c>
   24bc8:	e1a0b003 	mov	fp, r3
   24bcc:	e5d33000 	ldrb	r3, [r3]
   24bd0:	e3530000 	cmp	r3, #0
   24bd4:	1a000047 	bne	24cf8 <_start@@Base+0x1a32c>
   24bd8:	e5973028 	ldr	r3, [r7, #40]	; 0x28
   24bdc:	e2844001 	add	r4, r4, #1
   24be0:	e5970024 	ldr	r0, [r7, #36]	; 0x24
   24be4:	e59dc00c 	ldr	ip, [sp, #12]
   24be8:	e59f1214 	ldr	r1, [pc, #532]	; 24e04 <_start@@Base+0x1a438>
   24bec:	e0800003 	add	r0, r0, r3
   24bf0:	e59c2004 	ldr	r2, [ip, #4]
[31m   24bf4:	ebff96f6 	bl	a7d4 <sprintf@plt>[0m
   24bf8:	e5973028 	ldr	r3, [r7, #40]	; 0x28
   24bfc:	e1580004 	cmp	r8, r4
--
   24c94:	e28d0b01 	add	r0, sp, #1024	; 0x400
   24c98:	e2811008 	add	r1, r1, #8
   24c9c:	e3a02e1a 	mov	r2, #416	; 0x1a0
   24ca0:	e2800008 	add	r0, r0, #8
   24ca4:	ebff958f 	bl	a2e8 <memcpy@plt>
   24ca8:	e5db3000 	ldrb	r3, [fp]
   24cac:	e3530000 	cmp	r3, #0
   24cb0:	1a000037 	bne	24d94 <_start@@Base+0x1a3c8>
   24cb4:	e28d1e5a 	add	r1, sp, #1440	; 0x5a0
   24cb8:	e28d2b01 	add	r2, sp, #1024	; 0x400
   24cbc:	e1a00004 	mov	r0, r4
   24cc0:	e2811008 	add	r1, r1, #8
   24cc4:	e2822008 	add	r2, r2, #8
   24cc8:	ebff9535 	bl	a1a4 <set_filter_url@plt>
   24ccc:	eaffff6d 	b	24a88 <_start@@Base+0x1a0bc>
   24cd0:	e5973028 	ldr	r3, [r7, #40]	; 0x28
   24cd4:	e1a02005 	mov	r2, r5
   24cd8:	e5970024 	ldr	r0, [r7, #36]	; 0x24
   24cdc:	e59f1128 	ldr	r1, [pc, #296]	; 24e0c <_start@@Base+0x1a440>
   24ce0:	e0800003 	add	r0, r0, r3
[31m   24ce4:	ebff96ba 	bl	a7d4 <sprintf@plt>[0m
   24ce8:	e5973028 	ldr	r3, [r7, #40]	; 0x28
   24cec:	e0803003 	add	r3, r0, r3
--
   24d30:	0affff54 	beq	24a88 <_start@@Base+0x1a0bc>
   24d34:	e1a0000a 	mov	r0, sl
   24d38:	ebff95f4 	bl	a510 <inet_addr@plt>
   24d3c:	e6bf3f30 	rev	r3, r0
   24d40:	e1a0000b 	mov	r0, fp
   24d44:	e58d3008 	str	r3, [sp, #8]
   24d48:	ebff95f0 	bl	a510 <inet_addr@plt>
   24d4c:	e59d3008 	ldr	r3, [sp, #8]
   24d50:	e6bf0f30 	rev	r0, r0
   24d54:	e1530000 	cmp	r3, r0
   24d58:	9affffb7 	bls	24c3c <_start@@Base+0x1a270>
   24d5c:	e5972024 	ldr	r2, [r7, #36]	; 0x24
   24d60:	e1a0300a 	mov	r3, sl
   24d64:	e5970028 	ldr	r0, [r7, #40]	; 0x28
   24d68:	e59dc768 	ldr	ip, [sp, #1896]	; 0x768
   24d6c:	e59f109c 	ldr	r1, [pc, #156]	; 24e10 <_start@@Base+0x1a444>
   24d70:	e0820000 	add	r0, r2, r0
   24d74:	e59d274c 	ldr	r2, [sp, #1868]	; 0x74c
   24d78:	e58dc000 	str	ip, [sp]
   24d7c:	e58db004 	str	fp, [sp, #4]
[31m   24d80:	ebff9693 	bl	a7d4 <sprintf@plt>[0m
   24d84:	e5973028 	ldr	r3, [r7, #40]	; 0x28
   24d88:	e0803003 	add	r3, r0, r3
--
   251b0:	ebff95bd 	bl	a8ac <atoi@plt>
   251b4:	e1a02000 	mov	r2, r0
   251b8:	e59d001c 	ldr	r0, [sp, #28]
   251bc:	e58d2010 	str	r2, [sp, #16]
   251c0:	ebff95b9 	bl	a8ac <atoi@plt>
   251c4:	e59d2010 	ldr	r2, [sp, #16]
   251c8:	e59d3008 	ldr	r3, [sp, #8]
   251cc:	e59dc00c 	ldr	ip, [sp, #12]
   251d0:	e1520000 	cmp	r2, r0
   251d4:	da000050 	ble	2531c <_start@@Base+0x1a950>
   251d8:	e1a0300c 	mov	r3, ip
   251dc:	e59dc5c4 	ldr	ip, [sp, #1476]	; 0x5c4
   251e0:	e5992024 	ldr	r2, [r9, #36]	; 0x24
   251e4:	e5990028 	ldr	r0, [r9, #40]	; 0x28
   251e8:	e58dc000 	str	ip, [sp]
   251ec:	e59dc01c 	ldr	ip, [sp, #28]
   251f0:	e0820000 	add	r0, r2, r0
   251f4:	e59f12c0 	ldr	r1, [pc, #704]	; 254bc <_start@@Base+0x1aaf0>
   251f8:	e59d25a8 	ldr	r2, [sp, #1448]	; 0x5a8
   251fc:	e58dc004 	str	ip, [sp, #4]
[31m   25200:	ebff9573 	bl	a7d4 <sprintf@plt>[0m
   25204:	e5993028 	ldr	r3, [r9, #40]	; 0x28
   25208:	e0803003 	add	r3, r0, r3
   2520c:	e5893028 	str	r3, [r9, #40]	; 0x28
   25210:	e2877001 	add	r7, r7, #1
   25214:	e15b0007 	cmp	fp, r7
   25218:	ba00000e 	blt	25258 <_start@@Base+0x1a88c>
   2521c:	e59d65dc 	ldr	r6, [sp, #1500]	; 0x5dc
   25220:	eaffff61 	b	24fac <_start@@Base+0x1a5e0>
   25224:	e5990024 	ldr	r0, [r9, #36]	; 0x24
   25228:	e5993028 	ldr	r3, [r9, #40]	; 0x28
   2522c:	e59f128c 	ldr	r1, [pc, #652]	; 254c0 <_start@@Base+0x1aaf4>
   25230:	e59dc014 	ldr	ip, [sp, #20]
   25234:	e0800003 	add	r0, r0, r3
   25238:	e2877001 	add	r7, r7, #1
   2523c:	e59c2004 	ldr	r2, [ip, #4]
[31m   25240:	ebff9563 	bl	a7d4 <sprintf@plt>[0m
   25244:	e5993028 	ldr	r3, [r9, #40]	; 0x28
   25248:	e15b0007 	cmp	fp, r7
--
   252a4:	e35c0000 	cmp	ip, #0
   252a8:	1a000006 	bne	252c8 <_start@@Base+0x1a8fc>
   252ac:	e1a00007 	mov	r0, r7
   252b0:	ebff9469 	bl	a45c <del_filter_client@plt>
   252b4:	eaffffd5 	b	25210 <_start@@Base+0x1a844>
   252b8:	e59d162c 	ldr	r1, [sp, #1580]	; 0x62c
   252bc:	e59d0630 	ldr	r0, [sp, #1584]	; 0x630
   252c0:	e5d1c000 	ldrb	ip, [r1]
   252c4:	e5d00000 	ldrb	r0, [r0]
   252c8:	e1a0e002 	mov	lr, r2
   252cc:	e58d663c 	str	r6, [sp, #1596]	; 0x63c
   252d0:	eaffff71 	b	2509c <_start@@Base+0x1a6d0>
   252d4:	e59d162c 	ldr	r1, [sp, #1580]	; 0x62c
   252d8:	e5d1c000 	ldrb	ip, [r1]
   252dc:	eafffff9 	b	252c8 <_start@@Base+0x1a8fc>
   252e0:	e5993028 	ldr	r3, [r9, #40]	; 0x28
   252e4:	e5990024 	ldr	r0, [r9, #36]	; 0x24
   252e8:	e59d2018 	ldr	r2, [sp, #24]
   252ec:	e59f11d4 	ldr	r1, [pc, #468]	; 254c8 <_start@@Base+0x1aafc>
   252f0:	e0800003 	add	r0, r0, r3
[31m   252f4:	ebff9536 	bl	a7d4 <sprintf@plt>[0m
   252f8:	e5993028 	ldr	r3, [r9, #40]	; 0x28
   252fc:	e0803003 	add	r3, r0, r3
--
   25418:	e1a00006 	mov	r0, r6
   2541c:	ebff93b1 	bl	a2e8 <memcpy@plt>
   25420:	e28d1e41 	add	r1, sp, #1040	; 0x410
   25424:	e1a00008 	mov	r0, r8
   25428:	e2811004 	add	r1, r1, #4
   2542c:	ebff94af 	bl	a6f0 <inet_aton@plt>
   25430:	e1a00007 	mov	r0, r7
   25434:	e28d1e4b 	add	r1, sp, #1200	; 0x4b0
   25438:	e1a02006 	mov	r2, r6
   2543c:	ebff94e7 	bl	a7e0 <set_filter_client@plt>
   25440:	eaffff72 	b	25210 <_start@@Base+0x1a844>
   25444:	e5992024 	ldr	r2, [r9, #36]	; 0x24
   25448:	e1a03006 	mov	r3, r6
   2544c:	e5990028 	ldr	r0, [r9, #40]	; 0x28
   25450:	e59dc570 	ldr	ip, [sp, #1392]	; 0x570
   25454:	e59f1060 	ldr	r1, [pc, #96]	; 254bc <_start@@Base+0x1aaf0>
   25458:	e0820000 	add	r0, r2, r0
   2545c:	e59d2554 	ldr	r2, [sp, #1364]	; 0x554
   25460:	e58dc000 	str	ip, [sp]
   25464:	e58d8004 	str	r8, [sp, #4]
[31m   25468:	ebff94d9 	bl	a7d4 <sprintf@plt>[0m
   2546c:	e5993028 	ldr	r3, [r9, #40]	; 0x28
   25470:	e0803003 	add	r3, r0, r3
--
   25f28:	e3a02009 	mov	r2, #9
   25f2c:	e0840000 	add	r0, r4, r0
   25f30:	ebff90ec 	bl	a2e8 <memcpy@plt>
   25f34:	e1a00004 	mov	r0, r4
   25f38:	ebff91f5 	bl	a714 <nvram_get@plt>
   25f3c:	e2507000 	subs	r7, r0, #0
   25f40:	01a03007 	moveq	r3, r7
   25f44:	01a07008 	moveq	r7, r8
   25f48:	0a000001 	beq	25f54 <_start@@Base+0x1b588>
   25f4c:	ebff926b 	bl	a900 <strlen@plt>
   25f50:	e1a03000 	mov	r3, r0
   25f54:	e3a06000 	mov	r6, #0
   25f58:	e59f9334 	ldr	r9, [pc, #820]	; 26294 <_start@@Base+0x1b8c8>
   25f5c:	e1a08006 	mov	r8, r6
   25f60:	e59fb330 	ldr	fp, [pc, #816]	; 26298 <_start@@Base+0x1b8cc>
   25f64:	ea00001b 	b	25fd8 <_start@@Base+0x1b60c>
   25f68:	e7d72006 	ldrb	r2, [r7, r6]
   25f6c:	e3520061 	cmp	r2, #97	; 0x61
   25f70:	11a03009 	movne	r3, r9
   25f74:	01a0300b 	moveq	r3, fp
[31m   25f78:	ebff9215 	bl	a7d4 <sprintf@plt>[0m
   25f7c:	e7d72006 	ldrb	r2, [r7, r6]
   25f80:	e307c324 	movw	ip, #29476	; 0x7324
--
   260a8:	e3a08000 	mov	r8, #0
   260ac:	e5da3000 	ldrb	r3, [sl]
   260b0:	e1a00005 	mov	r0, r5
   260b4:	e59f11f0 	ldr	r1, [pc, #496]	; 262ac <_start@@Base+0x1b8e0>
   260b8:	e353006e 	cmp	r3, #110	; 0x6e
   260bc:	13530073 	cmpne	r3, #115	; 0x73
   260c0:	0a000023 	beq	26154 <_start@@Base+0x1b788>
   260c4:	e3530063 	cmp	r3, #99	; 0x63
   260c8:	0a000021 	beq	26154 <_start@@Base+0x1b788>
   260cc:	e3530068 	cmp	r3, #104	; 0x68
   260d0:	0a00001f 	beq	26154 <_start@@Base+0x1b788>
   260d4:	e3530076 	cmp	r3, #118	; 0x76
   260d8:	e3a02067 	mov	r2, #103	; 0x67
   260dc:	e59f31b0 	ldr	r3, [pc, #432]	; 26294 <_start@@Base+0x1b8c8>
   260e0:	0a00001b 	beq	26154 <_start@@Base+0x1b788>
   260e4:	e596c004 	ldr	ip, [r6, #4]
   260e8:	e1a00004 	mov	r0, r4
   260ec:	e59f11ac 	ldr	r1, [pc, #428]	; 262a0 <_start@@Base+0x1b8d4>
   260f0:	e35c0001 	cmp	ip, #1
   260f4:	0a00004c 	beq	2622c <_start@@Base+0x1b860>
[31m   260f8:	ebff91b5 	bl	a7d4 <sprintf@plt>[0m
   260fc:	e5963004 	ldr	r3, [r6, #4]
   26100:	e307c324 	movw	ip, #29476	; 0x7324
--
   261e4:	e1a04000 	mov	r4, r0
   261e8:	e1a00005 	mov	r0, r5
   261ec:	ebff9079 	bl	a3d8 <fflush@plt>
   261f0:	e3590002 	cmp	r9, #2
   261f4:	059f30b8 	ldreq	r3, [pc, #184]	; 262b4 <_start@@Base+0x1b8e8>
   261f8:	0a000000 	beq	26200 <_start@@Base+0x1b834>
   261fc:	e59f3084 	ldr	r3, [pc, #132]	; 26288 <_start@@Base+0x1b8bc>
   26200:	e59fc08c 	ldr	ip, [pc, #140]	; 26294 <_start@@Base+0x1b8c8>
   26204:	e3a02002 	mov	r2, #2
   26208:	e59f10a0 	ldr	r1, [pc, #160]	; 262b0 <_start@@Base+0x1b8e4>
   2620c:	e1a00005 	mov	r0, r5
   26210:	e58dc000 	str	ip, [sp]
   26214:	ebff90b1 	bl	a4e0 <fprintf@plt>
   26218:	e1a08000 	mov	r8, r0
   2621c:	e1a00005 	mov	r0, r5
   26220:	ebff906c 	bl	a3d8 <fflush@plt>
   26224:	e0888004 	add	r8, r8, r4
   26228:	eaffff6e 	b	25fe8 <_start@@Base+0x1b61c>
   2622c:	e3a02061 	mov	r2, #97	; 0x61
   26230:	e59f3060 	ldr	r3, [pc, #96]	; 26298 <_start@@Base+0x1b8cc>
[31m   26234:	ebff9166 	bl	a7d4 <sprintf@plt>[0m
   26238:	eaffffaf 	b	260fc <_start@@Base+0x1b730>
   2623c:	e59fc054 	ldr	ip, [pc, #84]	; 26298 <_start@@Base+0x1b8cc>
--
   262f8:	ebff9150 	bl	a840 <fwrite@plt>
   262fc:	e3a00016 	mov	r0, #22
   26300:	e28dd048 	add	sp, sp, #72	; 0x48
   26304:	e8bd8070 	pop	{r4, r5, r6, pc}
   26308:	e28d1044 	add	r1, sp, #68	; 0x44
   2630c:	e28d2040 	add	r2, sp, #64	; 0x40
   26310:	ebff9153 	bl	a864 <get_ifname_unit@plt>
   26314:	e2505000 	subs	r5, r0, #0
   26318:	0a000006 	beq	26338 <_start@@Base+0x1b96c>
   2631c:	e59f005c 	ldr	r0, [pc, #92]	; 26380 <_start@@Base+0x1b9b4>
   26320:	e3a01001 	mov	r1, #1
   26324:	e3a0201b 	mov	r2, #27
   26328:	e1a03004 	mov	r3, r4
   2632c:	ebff9143 	bl	a840 <fwrite@plt>
   26330:	e3a00016 	mov	r0, #22
   26334:	eafffff1 	b	26300 <_start@@Base+0x1b934>
   26338:	e59d2044 	ldr	r2, [sp, #68]	; 0x44
   2633c:	e1a0000d 	mov	r0, sp
   26340:	e59f103c 	ldr	r1, [pc, #60]	; 26384 <_start@@Base+0x1b9b8>
   26344:	e1a0600d 	mov	r6, sp
[31m   26348:	ebff9121 	bl	a7d4 <sprintf@plt>[0m
   2634c:	e1a0000d 	mov	r0, sp
   26350:	ebff90ef 	bl	a714 <nvram_get@plt>
--
   263c8:	ebff911c 	bl	a840 <fwrite@plt>
   263cc:	e3a00016 	mov	r0, #22
   263d0:	e28dd048 	add	sp, sp, #72	; 0x48
   263d4:	e8bd8070 	pop	{r4, r5, r6, pc}
   263d8:	e28d1044 	add	r1, sp, #68	; 0x44
   263dc:	e28d2040 	add	r2, sp, #64	; 0x40
   263e0:	ebff911f 	bl	a864 <get_ifname_unit@plt>
   263e4:	e2505000 	subs	r5, r0, #0
   263e8:	0a000006 	beq	26408 <_start@@Base+0x1ba3c>
   263ec:	e59f005c 	ldr	r0, [pc, #92]	; 26450 <_start@@Base+0x1ba84>
   263f0:	e3a01001 	mov	r1, #1
   263f4:	e3a0201b 	mov	r2, #27
   263f8:	e1a03004 	mov	r3, r4
   263fc:	ebff910f 	bl	a840 <fwrite@plt>
   26400:	e3a00016 	mov	r0, #22
   26404:	eafffff1 	b	263d0 <_start@@Base+0x1ba04>
   26408:	e59d2044 	ldr	r2, [sp, #68]	; 0x44
   2640c:	e1a0000d 	mov	r0, sp
   26410:	e59f103c 	ldr	r1, [pc, #60]	; 26454 <_start@@Base+0x1ba88>
   26414:	e1a0600d 	mov	r6, sp
[31m   26418:	ebff90ed 	bl	a7d4 <sprintf@plt>[0m
   2641c:	e1a0000d 	mov	r0, sp
   26420:	ebff90bb 	bl	a714 <nvram_get@plt>
--
   26498:	ebff90e8 	bl	a840 <fwrite@plt>
   2649c:	e3a00016 	mov	r0, #22
   264a0:	e28dd048 	add	sp, sp, #72	; 0x48
   264a4:	e8bd8070 	pop	{r4, r5, r6, pc}
   264a8:	e28d1044 	add	r1, sp, #68	; 0x44
   264ac:	e28d2040 	add	r2, sp, #64	; 0x40
   264b0:	ebff90eb 	bl	a864 <get_ifname_unit@plt>
   264b4:	e2505000 	subs	r5, r0, #0
   264b8:	0a000006 	beq	264d8 <_start@@Base+0x1bb0c>
   264bc:	e59f0098 	ldr	r0, [pc, #152]	; 2655c <_start@@Base+0x1bb90>
   264c0:	e3a01001 	mov	r1, #1
   264c4:	e3a0201b 	mov	r2, #27
   264c8:	e1a03004 	mov	r3, r4
   264cc:	ebff90db 	bl	a840 <fwrite@plt>
   264d0:	e3a00016 	mov	r0, #22
   264d4:	eafffff1 	b	264a0 <_start@@Base+0x1bad4>
   264d8:	e59f1080 	ldr	r1, [pc, #128]	; 26560 <_start@@Base+0x1bb94>
   264dc:	e1a0000d 	mov	r0, sp
   264e0:	e59d2044 	ldr	r2, [sp, #68]	; 0x44
   264e4:	e1a0600d 	mov	r6, sp
[31m   264e8:	ebff90b9 	bl	a7d4 <sprintf@plt>[0m
   264ec:	e1a0000d 	mov	r0, sp
   264f0:	ebff9087 	bl	a714 <nvram_get@plt>
--
   265ac:	ebff90a3 	bl	a840 <fwrite@plt>
   265b0:	e3a00016 	mov	r0, #22
   265b4:	e28dd048 	add	sp, sp, #72	; 0x48
   265b8:	e8bd8070 	pop	{r4, r5, r6, pc}
   265bc:	e28d1044 	add	r1, sp, #68	; 0x44
   265c0:	e28d2040 	add	r2, sp, #64	; 0x40
   265c4:	ebff90a6 	bl	a864 <get_ifname_unit@plt>
   265c8:	e3500000 	cmp	r0, #0
   265cc:	0a000006 	beq	265ec <_start@@Base+0x1bc20>
   265d0:	e59f0130 	ldr	r0, [pc, #304]	; 26708 <_start@@Base+0x1bd3c>
   265d4:	e3a01001 	mov	r1, #1
   265d8:	e3a0201b 	mov	r2, #27
   265dc:	e1a03004 	mov	r3, r4
   265e0:	ebff9096 	bl	a840 <fwrite@plt>
   265e4:	e3a00016 	mov	r0, #22
   265e8:	eafffff1 	b	265b4 <_start@@Base+0x1bbe8>
   265ec:	e59f1118 	ldr	r1, [pc, #280]	; 2670c <_start@@Base+0x1bd40>
   265f0:	e1a0000d 	mov	r0, sp
   265f4:	e59d2044 	ldr	r2, [sp, #68]	; 0x44
   265f8:	e1a0500d 	mov	r5, sp
[31m   265fc:	ebff9074 	bl	a7d4 <sprintf@plt>[0m
   26600:	e1a0000d 	mov	r0, sp
   26604:	ebff9042 	bl	a714 <nvram_get@plt>
   26608:	e2506000 	subs	r6, r0, #0
   2660c:	0a000027 	beq	266b0 <_start@@Base+0x1bce4>
   26610:	e59f10f8 	ldr	r1, [pc, #248]	; 26710 <_start@@Base+0x1bd44>
   26614:	e3a02003 	mov	r2, #3
   26618:	ebff8ff2 	bl	a5e8 <strncmp@plt>
   2661c:	e3500000 	cmp	r0, #0
   26620:	1a000016 	bne	26680 <_start@@Base+0x1bcb4>
   26624:	e3a06001 	mov	r6, #1
   26628:	e59f10e4 	ldr	r1, [pc, #228]	; 26714 <_start@@Base+0x1bd48>
   2662c:	e1a0000d 	mov	r0, sp
   26630:	e59d2044 	ldr	r2, [sp, #68]	; 0x44
[31m   26634:	ebff9066 	bl	a7d4 <sprintf@plt>[0m
   26638:	e1a0000d 	mov	r0, sp
   2663c:	ebff9034 	bl	a714 <nvram_get@plt>
--
   2676c:	ebff9033 	bl	a840 <fwrite@plt>
   26770:	e3a00016 	mov	r0, #22
   26774:	e28dd048 	add	sp, sp, #72	; 0x48
   26778:	e8bd8070 	pop	{r4, r5, r6, pc}
   2677c:	e28d1044 	add	r1, sp, #68	; 0x44
   26780:	e28d2040 	add	r2, sp, #64	; 0x40
   26784:	ebff9036 	bl	a864 <get_ifname_unit@plt>
   26788:	e2505000 	subs	r5, r0, #0
   2678c:	0a000006 	beq	267ac <_start@@Base+0x1bde0>
   26790:	e59f0098 	ldr	r0, [pc, #152]	; 26830 <_start@@Base+0x1be64>
   26794:	e3a01001 	mov	r1, #1
   26798:	e3a0201b 	mov	r2, #27
   2679c:	e1a03004 	mov	r3, r4
   267a0:	ebff9026 	bl	a840 <fwrite@plt>
   267a4:	e3a00016 	mov	r0, #22
   267a8:	eafffff1 	b	26774 <_start@@Base+0x1bda8>
   267ac:	e59f1080 	ldr	r1, [pc, #128]	; 26834 <_start@@Base+0x1be68>
   267b0:	e1a0000d 	mov	r0, sp
   267b4:	e59d2044 	ldr	r2, [sp, #68]	; 0x44
   267b8:	e1a0600d 	mov	r6, sp
[31m   267bc:	ebff9004 	bl	a7d4 <sprintf@plt>[0m
   267c0:	e1a0000d 	mov	r0, sp
   267c4:	ebff8fd2 	bl	a714 <nvram_get@plt>
--
   28354:	e59f36b4 	ldr	r3, [pc, #1716]	; 28a10 <_start@@Base+0x1e044>
   28358:	e3a02016 	mov	r2, #22
   2835c:	e3a00000 	mov	r0, #0
   28360:	e5832000 	str	r2, [r3]
   28364:	eafffff2 	b	28334 <_start@@Base+0x1d968>
   28368:	e28d1ea2 	add	r1, sp, #2592	; 0xa20
   2836c:	e28d2ea2 	add	r2, sp, #2592	; 0xa20
   28370:	e2811004 	add	r1, r1, #4
   28374:	ebff893a 	bl	a864 <get_ifname_unit@plt>
   28378:	eaffffc5 	b	28294 <_start@@Base+0x1d8c8>
   2837c:	e59f368c 	ldr	r3, [pc, #1676]	; 28a10 <_start@@Base+0x1e044>
   28380:	e3a02016 	mov	r2, #22
   28384:	e1a00008 	mov	r0, r8
   28388:	e5832000 	str	r2, [r3]
   2838c:	eaffffe8 	b	28334 <_start@@Base+0x1d968>
   28390:	e28dbd26 	add	fp, sp, #2432	; 0x980
   28394:	e59f167c 	ldr	r1, [pc, #1660]	; 28a18 <_start@@Base+0x1e04c>
   28398:	e28bb00c 	add	fp, fp, #12
   2839c:	e59d2a24 	ldr	r2, [sp, #2596]	; 0xa24
   283a0:	e1a0000b 	mov	r0, fp
[31m   283a4:	ebff890a 	bl	a7d4 <sprintf@plt>[0m
   283a8:	e1a0000b 	mov	r0, fp
   283ac:	ebff88d8 	bl	a714 <nvram_get@plt>
--
   284b0:	e2822008 	add	r2, r2, #8
   284b4:	e0823000 	add	r3, r2, r0
   284b8:	e1a0000a 	mov	r0, sl
   284bc:	e543941c 	strb	r9, [r3, #-1052]	; 0xfffffbe4
   284c0:	e5cd970b 	strb	r9, [sp, #1803]	; 0x70b
   284c4:	ebff8919 	bl	a930 <strchr@plt>
   284c8:	e5dd360c 	ldrb	r3, [sp, #1548]	; 0x60c
   284cc:	e1a0a000 	mov	sl, r0
   284d0:	e3530000 	cmp	r3, #0
   284d4:	1affffda 	bne	28444 <_start@@Base+0x1da78>
   284d8:	e59d2004 	ldr	r2, [sp, #4]
   284dc:	e1a00005 	mov	r0, r5
   284e0:	e59d3000 	ldr	r3, [sp]
   284e4:	e59f1540 	ldr	r1, [pc, #1344]	; 28a2c <_start@@Base+0x1e060>
   284e8:	e2728001 	rsbs	r8, r2, #1
   284ec:	33a08000 	movcc	r8, #0
   284f0:	e59d2a24 	ldr	r2, [sp, #2596]	; 0xa24
   284f4:	e273a001 	rsbs	sl, r3, #1
   284f8:	33a0a000 	movcc	sl, #0
   284fc:	e2622001 	rsb	r2, r2, #1
[31m   28500:	ebff88b3 	bl	a7d4 <sprintf@plt>[0m
   28504:	e1a00005 	mov	r0, r5
   28508:	ebff8881 	bl	a714 <nvram_get@plt>
--
   285b0:	e3a020ff 	mov	r2, #255	; 0xff
   285b4:	e1a00008 	mov	r0, r8
   285b8:	ebff87e6 	bl	a558 <add_to_list@plt>
   285bc:	e3063c77 	movw	r3, #27767	; 0x6c77
   285c0:	e1a01008 	mov	r1, r8
   285c4:	e3403031 	movt	r3, #49	; 0x31
   285c8:	e3a02040 	mov	r2, #64	; 0x40
   285cc:	e1a0000b 	mov	r0, fp
   285d0:	e58d398c 	str	r3, [sp, #2444]	; 0x98c
   285d4:	ebff883f 	bl	a6d8 <nvifname_to_osifname@plt>
   285d8:	e1a01009 	mov	r1, r9
   285dc:	e1a00008 	mov	r0, r8
   285e0:	e3a020ff 	mov	r2, #255	; 0xff
   285e4:	ebff87db 	bl	a558 <add_to_list@plt>
   285e8:	e1a00005 	mov	r0, r5
   285ec:	e1a01009 	mov	r1, r9
   285f0:	ebff87db 	bl	a564 <nvram_set@plt>
   285f4:	e59f1438 	ldr	r1, [pc, #1080]	; 28a34 <_start@@Base+0x1e068>
   285f8:	e1a0000b 	mov	r0, fp
   285fc:	e59d2a24 	ldr	r2, [sp, #2596]	; 0xa24
[31m   28600:	ebff8873 	bl	a7d4 <sprintf@plt>[0m
   28604:	e1a00005 	mov	r0, r5
   28608:	e59f1428 	ldr	r1, [pc, #1064]	; 28a38 <_start@@Base+0x1e06c>
   2860c:	e59d2a24 	ldr	r2, [sp, #2596]	; 0xa24
[31m   28610:	ebff886f 	bl	a7d4 <sprintf@plt>[0m
   28614:	e35a0000 	cmp	sl, #0
   28618:	0a0000bf 	beq	2891c <_start@@Base+0x1df50>
   2861c:	e3a020ff 	mov	r2, #255	; 0xff
   28620:	e1a01006 	mov	r1, r6
   28624:	e1a0000b 	mov	r0, fp
   28628:	ebff87eb 	bl	a5dc <remove_from_list@plt>
   2862c:	e1a01006 	mov	r1, r6
   28630:	e1a00004 	mov	r0, r4
   28634:	ebff87ca 	bl	a564 <nvram_set@plt>
   28638:	e1a00005 	mov	r0, r5
   2863c:	e59f13c8 	ldr	r1, [pc, #968]	; 28a0c <_start@@Base+0x1e040>
   28640:	ebff87c7 	bl	a564 <nvram_set@plt>
   28644:	e59f13f0 	ldr	r1, [pc, #1008]	; 28a3c <_start@@Base+0x1e070>
   28648:	e59f03f0 	ldr	r0, [pc, #1008]	; 28a40 <_start@@Base+0x1e074>
   2864c:	ebff87c4 	bl	a564 <nvram_set@plt>
   28650:	e59d2a24 	ldr	r2, [sp, #2596]	; 0xa24
   28654:	e1a00005 	mov	r0, r5
   28658:	e59f13e4 	ldr	r1, [pc, #996]	; 28a44 <_start@@Base+0x1e078>
[31m   2865c:	ebff885c 	bl	a7d4 <sprintf@plt>[0m
   28660:	e59f13e0 	ldr	r1, [pc, #992]	; 28a48 <_start@@Base+0x1e07c>
   28664:	e1a00005 	mov	r0, r5
   28668:	ebff87bd 	bl	a564 <nvram_set@plt>
   2866c:	e59d2a24 	ldr	r2, [sp, #2596]	; 0xa24
   28670:	e1a00005 	mov	r0, r5
   28674:	e59f13d0 	ldr	r1, [pc, #976]	; 28a4c <_start@@Base+0x1e080>
[31m   28678:	ebff8855 	bl	a7d4 <sprintf@plt>[0m
   2867c:	e59f13c4 	ldr	r1, [pc, #964]	; 28a48 <_start@@Base+0x1e07c>
   28680:	e1a00005 	mov	r0, r5
   28684:	ebff87b6 	bl	a564 <nvram_set@plt>
   28688:	e59f33c0 	ldr	r3, [pc, #960]	; 28a50 <_start@@Base+0x1e084>
   2868c:	e28d2c09 	add	r2, sp, #2304	; 0x900
   28690:	e8930003 	ldm	r3, {r0, r1}
   28694:	e58d09cc 	str	r0, [sp, #2508]	; 0x9cc
   28698:	e1a00005 	mov	r0, r5
   2869c:	e1a03821 	lsr	r3, r1, #16
   286a0:	e1c21db0 	strh	r1, [r2, #208]	; 0xd0
   286a4:	e5cd39d2 	strb	r3, [sp, #2514]	; 0x9d2
   286a8:	ebff8819 	bl	a714 <nvram_get@plt>
   286ac:	e2504000 	subs	r4, r0, #0
   286b0:	0a000002 	beq	286c0 <_start@@Base+0x1dcf4>
   286b4:	e5d43000 	ldrb	r3, [r4]
   286b8:	e3530000 	cmp	r3, #0
   286bc:	1a0000b5 	bne	28998 <_start@@Base+0x1dfcc>
   286c0:	e59f138c 	ldr	r1, [pc, #908]	; 28a54 <_start@@Base+0x1e088>
   286c4:	e1a00005 	mov	r0, r5
   286c8:	e59d2a24 	ldr	r2, [sp, #2596]	; 0xa24
[31m   286cc:	ebff8840 	bl	a7d4 <sprintf@plt>[0m
   286d0:	e1a00005 	mov	r0, r5
   286d4:	ebff880e 	bl	a714 <nvram_get@plt>
   286d8:	e2504000 	subs	r4, r0, #0
   286dc:	0a000002 	beq	286ec <_start@@Base+0x1dd20>
   286e0:	e5d43000 	ldrb	r3, [r4]
   286e4:	e3530000 	cmp	r3, #0
   286e8:	1a000096 	bne	28948 <_start@@Base+0x1df7c>
   286ec:	e1a00005 	mov	r0, r5
   286f0:	e59f1360 	ldr	r1, [pc, #864]	; 28a58 <_start@@Base+0x1e08c>
   286f4:	e59d2a24 	ldr	r2, [sp, #2596]	; 0xa24
[31m   286f8:	ebff8835 	bl	a7d4 <sprintf@plt>[0m
   286fc:	e35a0000 	cmp	sl, #0
   28700:	0a00007d 	beq	288fc <_start@@Base+0x1df30>
   28704:	e1a00005 	mov	r0, r5
   28708:	e59f132c 	ldr	r1, [pc, #812]	; 28a3c <_start@@Base+0x1e070>
   2870c:	ebff8794 	bl	a564 <nvram_set@plt>
   28710:	e59f12f4 	ldr	r1, [pc, #756]	; 28a0c <_start@@Base+0x1e040>
   28714:	e59f0340 	ldr	r0, [pc, #832]	; 28a5c <_start@@Base+0x1e090>
   28718:	ebff8791 	bl	a564 <nvram_set@plt>
   2871c:	e59f033c 	ldr	r0, [pc, #828]	; 28a60 <_start@@Base+0x1e094>
   28720:	e59f12e4 	ldr	r1, [pc, #740]	; 28a0c <_start@@Base+0x1e040>
   28724:	ebff878e 	bl	a564 <nvram_set@plt>
   28728:	e3570002 	cmp	r7, #2
   2872c:	da00000b 	ble	28760 <_start@@Base+0x1dd94>
   28730:	e3a04002 	mov	r4, #2
   28734:	e1a03004 	mov	r3, r4
   28738:	e59f1324 	ldr	r1, [pc, #804]	; 28a64 <_start@@Base+0x1e098>
   2873c:	e59d2a24 	ldr	r2, [sp, #2596]	; 0xa24
   28740:	e1a00005 	mov	r0, r5
[31m   28744:	ebff8822 	bl	a7d4 <sprintf@plt>[0m
   28748:	e2844001 	add	r4, r4, #1
   2874c:	e1a00005 	mov	r0, r5
--
   287a8:	e59f0280 	ldr	r0, [pc, #640]	; 28a30 <_start@@Base+0x1e064>
   287ac:	ebff876c 	bl	a564 <nvram_set@plt>
   287b0:	e1a00004 	mov	r0, r4
   287b4:	ebff87d6 	bl	a714 <nvram_get@plt>
   287b8:	e2505000 	subs	r5, r0, #0
   287bc:	0a000089 	beq	289e8 <_start@@Base+0x1e01c>
   287c0:	ebff884e 	bl	a900 <strlen@plt>
   287c4:	e35000fe 	cmp	r0, #254	; 0xfe
   287c8:	8a000047 	bhi	288ec <_start@@Base+0x1df20>
   287cc:	e28d6b02 	add	r6, sp, #2048	; 0x800
   287d0:	e1a01005 	mov	r1, r5
   287d4:	e286600c 	add	r6, r6, #12
   287d8:	e3a020ff 	mov	r2, #255	; 0xff
   287dc:	e1a00006 	mov	r0, r6
   287e0:	e28d5d25 	add	r5, sp, #2368	; 0x940
   287e4:	ebff8785 	bl	a600 <strncpy@plt>
   287e8:	e59d2a24 	ldr	r2, [sp, #2596]	; 0xa24
   287ec:	e1a0000b 	mov	r0, fp
   287f0:	e59f123c 	ldr	r1, [pc, #572]	; 28a34 <_start@@Base+0x1e068>
   287f4:	e285500c 	add	r5, r5, #12
[31m   287f8:	ebff87f5 	bl	a7d4 <sprintf@plt>[0m
   287fc:	e1a01006 	mov	r1, r6
   28800:	e3a020ff 	mov	r2, #255	; 0xff
   28804:	e1a0000b 	mov	r0, fp
   28808:	ebff8773 	bl	a5dc <remove_from_list@plt>
   2880c:	e59f1258 	ldr	r1, [pc, #600]	; 28a6c <_start@@Base+0x1e0a0>
   28810:	e1a0000b 	mov	r0, fp
   28814:	e59d2a24 	ldr	r2, [sp, #2596]	; 0xa24
[31m   28818:	ebff87ed 	bl	a7d4 <sprintf@plt>[0m
   2881c:	e3a02040 	mov	r2, #64	; 0x40
   28820:	e1a01005 	mov	r1, r5
--
   28838:	ebff8746 	bl	a558 <add_to_list@plt>
   2883c:	e1a01006 	mov	r1, r6
   28840:	e1a00004 	mov	r0, r4
   28844:	ebff8746 	bl	a564 <nvram_set@plt>
   28848:	e59f1220 	ldr	r1, [pc, #544]	; 28a70 <_start@@Base+0x1e0a4>
   2884c:	e59f0208 	ldr	r0, [pc, #520]	; 28a5c <_start@@Base+0x1e090>
   28850:	ebff8743 	bl	a564 <nvram_set@plt>
   28854:	e1a00006 	mov	r0, r6
   28858:	e3a01000 	mov	r1, #0
   2885c:	e3a020ff 	mov	r2, #255	; 0xff
   28860:	ebff87b4 	bl	a738 <memset@plt>
   28864:	e3570001 	cmp	r7, #1
   28868:	da00001a 	ble	288d8 <_start@@Base+0x1df0c>
   2886c:	e28d4c0a 	add	r4, sp, #2560	; 0xa00
   28870:	e3a05001 	mov	r5, #1
   28874:	e284400c 	add	r4, r4, #12
   28878:	e1a03005 	mov	r3, r5
   2887c:	e59d2a24 	ldr	r2, [sp, #2596]	; 0xa24
   28880:	e59f11ec 	ldr	r1, [pc, #492]	; 28a74 <_start@@Base+0x1e0a8>
   28884:	e1a0000b 	mov	r0, fp
[31m   28888:	ebff87d1 	bl	a7d4 <sprintf@plt>[0m
   2888c:	e3a020ff 	mov	r2, #255	; 0xff
   28890:	e1a01006 	mov	r1, r6
--
   28d94:	e59d31e4 	ldr	r3, [sp, #484]	; 0x1e4
   28d98:	e1530002 	cmp	r3, r2
   28d9c:	8a000001 	bhi	28da8 <_start@@Base+0x1e3dc>
   28da0:	e313001f 	tst	r3, #31
   28da4:	0a000020 	beq	28e2c <_start@@Base+0x1e460>
   28da8:	e59f51a0 	ldr	r5, [pc, #416]	; 28f50 <_start@@Base+0x1e584>
   28dac:	ea000000 	b	28db4 <_start@@Base+0x1e3e8>
   28db0:	e59f519c 	ldr	r5, [pc, #412]	; 28f54 <_start@@Base+0x1e588>
   28db4:	e5943028 	ldr	r3, [r4, #40]	; 0x28
   28db8:	e3a02020 	mov	r2, #32
   28dbc:	e5940024 	ldr	r0, [r4, #36]	; 0x24
   28dc0:	e59f1190 	ldr	r1, [pc, #400]	; 28f58 <_start@@Base+0x1e58c>
   28dc4:	e0800003 	add	r0, r0, r3
   28dc8:	ebff8546 	bl	a2e8 <memcpy@plt>
   28dcc:	e5943028 	ldr	r3, [r4, #40]	; 0x28
   28dd0:	e1a01005 	mov	r1, r5
   28dd4:	e5940024 	ldr	r0, [r4, #36]	; 0x24
   28dd8:	e283301f 	add	r3, r3, #31
   28ddc:	e0800003 	add	r0, r0, r3
   28de0:	e5843028 	str	r3, [r4, #40]	; 0x28
[31m   28de4:	ebff867a 	bl	a7d4 <sprintf@plt>[0m
   28de8:	e5943028 	ldr	r3, [r4, #40]	; 0x28
   28dec:	e3a02008 	mov	r2, #8
--
   28ea0:	e59f10c8 	ldr	r1, [pc, #200]	; 28f70 <_start@@Base+0x1e5a4>
   28ea4:	ebff863e 	bl	a7a4 <strcmp@plt>
   28ea8:	e3500000 	cmp	r0, #0
   28eac:	1a000015 	bne	28f08 <_start@@Base+0x1e53c>
   28eb0:	e28d8f47 	add	r8, sp, #284	; 0x11c
   28eb4:	e1a0100a 	mov	r1, sl
   28eb8:	e1a00008 	mov	r0, r8
   28ebc:	ebff84af 	bl	a180 <strcpy@plt>
   28ec0:	e59dc1ec 	ldr	ip, [sp, #492]	; 0x1ec
   28ec4:	e1a00006 	mov	r0, r6
   28ec8:	e59d31f0 	ldr	r3, [sp, #496]	; 0x1f0
   28ecc:	e59f105c 	ldr	r1, [pc, #92]	; 28f30 <_start@@Base+0x1e564>
   28ed0:	e58dc000 	str	ip, [sp]
   28ed4:	e59dc1e8 	ldr	ip, [sp, #488]	; 0x1e8
   28ed8:	e59d21f4 	ldr	r2, [sp, #500]	; 0x1f4
   28edc:	e58d700c 	str	r7, [sp, #12]
   28ee0:	e58dc004 	str	ip, [sp, #4]
   28ee4:	e59dc1e4 	ldr	ip, [sp, #484]	; 0x1e4
   28ee8:	e58d8010 	str	r8, [sp, #16]
   28eec:	e58dc008 	str	ip, [sp, #8]
[31m   28ef0:	ebff8637 	bl	a7d4 <sprintf@plt>[0m
   28ef4:	e5950000 	ldr	r0, [r5]
   28ef8:	e1a01006 	mov	r1, r6
--
   292d8:	e5950000 	ldr	r0, [r5]
   292dc:	ebff9772 	bl	f0ac <_start@@Base+0x46e0>
   292e0:	ebff85ee 	bl	aaa0 <_start@@Base+0xd4>
   292e4:	e3500000 	cmp	r0, #0
   292e8:	0a000001 	beq	292f4 <_start@@Base+0x1e928>
   292ec:	ebff856e 	bl	a8ac <atoi@plt>
   292f0:	e58d0374 	str	r0, [sp, #884]	; 0x374
   292f4:	e59f042c 	ldr	r0, [pc, #1068]	; 29728 <_start@@Base+0x1ed5c>
   292f8:	e28d6fd9 	add	r6, sp, #868	; 0x364
   292fc:	ebff8504 	bl	a714 <nvram_get@plt>
   29300:	e59dc37c 	ldr	ip, [sp, #892]	; 0x37c
   29304:	e1a00007 	mov	r0, r7
   29308:	e59d2384 	ldr	r2, [sp, #900]	; 0x384
   2930c:	e59d3380 	ldr	r3, [sp, #896]	; 0x380
   29310:	e58dc000 	str	ip, [sp]
   29314:	e59dc378 	ldr	ip, [sp, #888]	; 0x378
   29318:	e59f13e0 	ldr	r1, [pc, #992]	; 29700 <_start@@Base+0x1ed34>
   2931c:	e58dc004 	str	ip, [sp, #4]
   29320:	e59dc374 	ldr	ip, [sp, #884]	; 0x374
   29324:	e58dc008 	str	ip, [sp, #8]
[31m   29328:	ebff8529 	bl	a7d4 <sprintf@plt>[0m
   2932c:	e1a01007 	mov	r1, r7
   29330:	e5950000 	ldr	r0, [r5]
--
   29370:	e3500001 	cmp	r0, #1
   29374:	daffff72 	ble	29144 <_start@@Base+0x1e778>
   29378:	e0855000 	add	r5, r5, r0
   2937c:	e5553002 	ldrb	r3, [r5, #-2]
   29380:	e3530062 	cmp	r3, #98	; 0x62
   29384:	0a0000b3 	beq	29658 <_start@@Base+0x1ec8c>
   29388:	e3530076 	cmp	r3, #118	; 0x76
   2938c:	1affff6c 	bne	29144 <_start@@Base+0x1e778>
   29390:	e5553001 	ldrb	r3, [r5, #-1]
   29394:	e3530069 	cmp	r3, #105	; 0x69
   29398:	0a0000b5 	beq	29674 <_start@@Base+0x1eca8>
   2939c:	e353006f 	cmp	r3, #111	; 0x6f
   293a0:	03a07003 	moveq	r7, #3
   293a4:	1affff66 	bne	29144 <_start@@Base+0x1e778>
   293a8:	e59f0380 	ldr	r0, [pc, #896]	; 29730 <_start@@Base+0x1ed64>
   293ac:	e28d5024 	add	r5, sp, #36	; 0x24
   293b0:	ebff84d7 	bl	a714 <nvram_get@plt>
   293b4:	e59f1378 	ldr	r1, [pc, #888]	; 29734 <_start@@Base+0x1ed68>
   293b8:	e1a02000 	mov	r2, r0
   293bc:	e1a00006 	mov	r0, r6
[31m   293c0:	ebff8503 	bl	a7d4 <sprintf@plt>[0m
   293c4:	e1a01006 	mov	r1, r6
   293c8:	e1a00005 	mov	r0, r5
--
   294cc:	1afffff9 	bne	294b8 <_start@@Base+0x1eaec>
   294d0:	e59d0018 	ldr	r0, [sp, #24]
   294d4:	e28d1fd1 	add	r1, sp, #836	; 0x344
   294d8:	e59dc01c 	ldr	ip, [sp, #28]
   294dc:	e7810003 	str	r0, [r1, r3]
   294e0:	e28d1fc9 	add	r1, sp, #804	; 0x324
   294e4:	e781c003 	str	ip, [r1, r3]
   294e8:	eafffff2 	b	294b8 <_start@@Base+0x1eaec>
   294ec:	e5943028 	ldr	r3, [r4, #40]	; 0x28
   294f0:	e3a0202b 	mov	r2, #43	; 0x2b
   294f4:	e5940024 	ldr	r0, [r4, #36]	; 0x24
   294f8:	e59f1248 	ldr	r1, [pc, #584]	; 29748 <_start@@Base+0x1ed7c>
   294fc:	e0800003 	add	r0, r0, r3
   29500:	ebff8378 	bl	a2e8 <memcpy@plt>
   29504:	e5943028 	ldr	r3, [r4, #40]	; 0x28
   29508:	e1a01005 	mov	r1, r5
   2950c:	e5940024 	ldr	r0, [r4, #36]	; 0x24
   29510:	e283302a 	add	r3, r3, #42	; 0x2a
   29514:	e0800003 	add	r0, r0, r3
   29518:	e5843028 	str	r3, [r4, #40]	; 0x28
[31m   2951c:	ebff84ac 	bl	a7d4 <sprintf@plt>[0m
   29520:	e5943028 	ldr	r3, [r4, #40]	; 0x28
   29524:	e3a02008 	mov	r2, #8
--
   29544:	e2833007 	add	r3, r3, #7
   29548:	e5843028 	str	r3, [r4, #40]	; 0x28
   2954c:	eafffefe 	b	2914c <_start@@Base+0x1e780>
   29550:	e59dc34c 	ldr	ip, [sp, #844]	; 0x34c
   29554:	e28d7f49 	add	r7, sp, #292	; 0x124
   29558:	e59d3348 	ldr	r3, [sp, #840]	; 0x348
   2955c:	e1a00007 	mov	r0, r7
   29560:	e59d2344 	ldr	r2, [sp, #836]	; 0x344
   29564:	e58dc000 	str	ip, [sp]
   29568:	e59dc350 	ldr	ip, [sp, #848]	; 0x350
   2956c:	e59f11c8 	ldr	r1, [pc, #456]	; 2973c <_start@@Base+0x1ed70>
   29570:	e58dc004 	str	ip, [sp, #4]
   29574:	e59dc354 	ldr	ip, [sp, #852]	; 0x354
   29578:	e58dc008 	str	ip, [sp, #8]
   2957c:	e59dc358 	ldr	ip, [sp, #856]	; 0x358
   29580:	e58dc00c 	str	ip, [sp, #12]
   29584:	e59dc35c 	ldr	ip, [sp, #860]	; 0x35c
   29588:	e58dc010 	str	ip, [sp, #16]
   2958c:	e59dc360 	ldr	ip, [sp, #864]	; 0x360
   29590:	e58dc014 	str	ip, [sp, #20]
[31m   29594:	ebff848e 	bl	a7d4 <sprintf@plt>[0m
   29598:	e1a01006 	mov	r1, r6
   2959c:	e1a00005 	mov	r0, r5
--
   295b8:	ebff834a 	bl	a2e8 <memcpy@plt>
   295bc:	e1a01007 	mov	r1, r7
   295c0:	e1a00005 	mov	r0, r5
   295c4:	ebff83e6 	bl	a564 <nvram_set@plt>
   295c8:	e59dc32c 	ldr	ip, [sp, #812]	; 0x32c
   295cc:	e1a00007 	mov	r0, r7
   295d0:	e59d3328 	ldr	r3, [sp, #808]	; 0x328
   295d4:	e59d2324 	ldr	r2, [sp, #804]	; 0x324
   295d8:	e58dc000 	str	ip, [sp]
   295dc:	e59dc330 	ldr	ip, [sp, #816]	; 0x330
   295e0:	e59f1154 	ldr	r1, [pc, #340]	; 2973c <_start@@Base+0x1ed70>
   295e4:	e58dc004 	str	ip, [sp, #4]
   295e8:	e59dc334 	ldr	ip, [sp, #820]	; 0x334
   295ec:	e58dc008 	str	ip, [sp, #8]
   295f0:	e59dc338 	ldr	ip, [sp, #824]	; 0x338
   295f4:	e58dc00c 	str	ip, [sp, #12]
   295f8:	e59dc33c 	ldr	ip, [sp, #828]	; 0x33c
   295fc:	e58dc010 	str	ip, [sp, #16]
   29600:	e59dc340 	ldr	ip, [sp, #832]	; 0x340
   29604:	e58dc014 	str	ip, [sp, #20]
[31m   29608:	ebff8471 	bl	a7d4 <sprintf@plt>[0m
   2960c:	e1a01006 	mov	r1, r6
   29610:	e1a00005 	mov	r0, r5
--
   2af74:	00047324 	andeq	r7, r4, r4, lsr #6
   2af78:	0004e95c 	andeq	lr, r4, ip, asr r9
   2af7c:	00049c48 	andeq	r9, r4, r8, asr #24
   2af80:	0004e980 	andeq	lr, r4, r0, lsl #19
   2af84:	00052e68 	andeq	r2, r5, r8, ror #28
   2af88:	000549a4 	andeq	r4, r5, r4, lsr #19
   2af8c:	00052540 	andeq	r2, r5, r0, asr #10
   2af90:	0004d4a4 	andeq	sp, r4, r4, lsr #9
   2af94:	e92d4070 	push	{r4, r5, r6, lr}
   2af98:	e24dd020 	sub	sp, sp, #32
   2af9c:	e59f40b4 	ldr	r4, [pc, #180]	; 2b058 <_start@@Base+0x2068c>
   2afa0:	e1a06001 	mov	r6, r1
   2afa4:	e1a0500d 	mov	r5, sp
   2afa8:	e59f00ac 	ldr	r0, [pc, #172]	; 2b05c <_start@@Base+0x20690>
   2afac:	ebff7dd8 	bl	a714 <nvram_get@plt>
   2afb0:	e3500000 	cmp	r0, #0
   2afb4:	e59f10a4 	ldr	r1, [pc, #164]	; 2b060 <_start@@Base+0x20694>
   2afb8:	01a02004 	moveq	r2, r4
   2afbc:	11a02000 	movne	r2, r0
   2afc0:	e1a0000d 	mov	r0, sp
[31m   2afc4:	ebff7e02 	bl	a7d4 <sprintf@plt>[0m
   2afc8:	e1a0000d 	mov	r0, sp
   2afcc:	ebff7dd0 	bl	a714 <nvram_get@plt>
--
   2b338:	e1a0a000 	mov	sl, r0
   2b33c:	e1a00008 	mov	r0, r8
   2b340:	ebff7d6e 	bl	a900 <strlen@plt>
   2b344:	e1a01006 	mov	r1, r6
   2b348:	e060200a 	rsb	r2, r0, sl
   2b34c:	e1a00007 	mov	r0, r7
   2b350:	ebff7caa 	bl	a600 <strncpy@plt>
   2b354:	e1a00006 	mov	r0, r6
   2b358:	ebff7d68 	bl	a900 <strlen@plt>
   2b35c:	e1a06000 	mov	r6, r0
   2b360:	e1a00008 	mov	r0, r8
   2b364:	ebff7d65 	bl	a900 <strlen@plt>
   2b368:	e28d2078 	add	r2, sp, #120	; 0x78
   2b36c:	e0603006 	rsb	r3, r0, r6
   2b370:	e0823003 	add	r3, r2, r3
   2b374:	e3a0c000 	mov	ip, #0
   2b378:	e1a00004 	mov	r0, r4
   2b37c:	e59f1164 	ldr	r1, [pc, #356]	; 2b4e8 <_start@@Base+0x20b1c>
   2b380:	e1a02007 	mov	r2, r7
   2b384:	e543c074 	strb	ip, [r3, #-116]	; 0xffffff8c
[31m   2b388:	ebff7d11 	bl	a7d4 <sprintf@plt>[0m
   2b38c:	e1a01004 	mov	r1, r4
   2b390:	e1a00007 	mov	r0, r7
--
   2b478:	e1a01004 	mov	r1, r4
   2b47c:	e1a00006 	mov	r0, r6
   2b480:	ebff7c1c 	bl	a4f8 <strcat@plt>
   2b484:	e2840001 	add	r0, r4, #1
   2b488:	e3a01022 	mov	r1, #34	; 0x22
   2b48c:	ebff7d27 	bl	a930 <strchr@plt>
   2b490:	e2504000 	subs	r4, r0, #0
   2b494:	1affffd0 	bne	2b3dc <_start@@Base+0x20a10>
   2b498:	e1a00005 	mov	r0, r5
   2b49c:	e1a01006 	mov	r1, r6
   2b4a0:	ebff7c0e 	bl	a4e0 <fprintf@plt>
   2b4a4:	e1a04000 	mov	r4, r0
   2b4a8:	e1a00005 	mov	r0, r5
   2b4ac:	ebff7bc9 	bl	a3d8 <fflush@plt>
   2b4b0:	eaffff83 	b	2b2c4 <_start@@Base+0x208f8>
   2b4b4:	e59f6034 	ldr	r6, [pc, #52]	; 2b4f0 <_start@@Base+0x20b24>
   2b4b8:	e1a00004 	mov	r0, r4
   2b4bc:	e59f1024 	ldr	r1, [pc, #36]	; 2b4e8 <_start@@Base+0x20b1c>
   2b4c0:	e1a02006 	mov	r2, r6
   2b4c4:	e28d7004 	add	r7, sp, #4
[31m   2b4c8:	ebff7cc1 	bl	a7d4 <sprintf@plt>[0m
   2b4cc:	eaffffae 	b	2b38c <_start@@Base+0x209c0>
   2b4d0:	0004ac14 	andeq	sl, r4, r4, lsl ip
--
   2bc0c:	e1a00007 	mov	r0, r7
   2bc10:	ebff7abf 	bl	a714 <nvram_get@plt>
   2bc14:	e3500000 	cmp	r0, #0
   2bc18:	0a000003 	beq	2bc2c <_start@@Base+0x21260>
   2bc1c:	e1a01004 	mov	r1, r4
   2bc20:	ebff7adf 	bl	a7a4 <strcmp@plt>
   2bc24:	e3500000 	cmp	r0, #0
   2bc28:	0a000003 	beq	2bc3c <_start@@Base+0x21270>
   2bc2c:	e1a01004 	mov	r1, r4
   2bc30:	e1a00007 	mov	r0, r7
   2bc34:	ebff7a4a 	bl	a564 <nvram_set@plt>
   2bc38:	ebffee39 	bl	27524 <_start@@Base+0x1cb58>
   2bc3c:	e3a03000 	mov	r3, #0
   2bc40:	e5863000 	str	r3, [r6]
   2bc44:	e8bd80f8 	pop	{r3, r4, r5, r6, r7, pc}
   2bc48:	e5963028 	ldr	r3, [r6, #40]	; 0x28
   2bc4c:	e1a02004 	mov	r2, r4
   2bc50:	e5960024 	ldr	r0, [r6, #36]	; 0x24
   2bc54:	e59f102c 	ldr	r1, [pc, #44]	; 2bc88 <_start@@Base+0x212bc>
   2bc58:	e0800003 	add	r0, r0, r3
[31m   2bc5c:	ebff7adc 	bl	a7d4 <sprintf@plt>[0m
   2bc60:	e5963028 	ldr	r3, [r6, #40]	; 0x28
   2bc64:	e0803003 	add	r3, r0, r3
--
   2bd20:	e5d57000 	ldrb	r7, [r5]
   2bd24:	e3570000 	cmp	r7, #0
   2bd28:	0affffea 	beq	2bcd8 <_start@@Base+0x2130c>
   2bd2c:	ebff7abd 	bl	a828 <__ctype_b_loc@plt>
   2bd30:	e1a02005 	mov	r2, r5
   2bd34:	e5901000 	ldr	r1, [r0]
   2bd38:	ea000002 	b	2bd48 <_start@@Base+0x2137c>
   2bd3c:	e5f27001 	ldrb	r7, [r2, #1]!
   2bd40:	e3570000 	cmp	r7, #0
   2bd44:	0affffe3 	beq	2bcd8 <_start@@Base+0x2130c>
   2bd48:	e1a03087 	lsl	r3, r7, #1
   2bd4c:	e19130b3 	ldrh	r3, [r1, r3]
   2bd50:	e3130010 	tst	r3, #16
   2bd54:	1afffff8 	bne	2bd3c <_start@@Base+0x21370>
   2bd58:	e594c024 	ldr	ip, [r4, #36]	; 0x24
   2bd5c:	e1a03007 	mov	r3, r7
   2bd60:	e5940028 	ldr	r0, [r4, #40]	; 0x28
   2bd64:	e59f1058 	ldr	r1, [pc, #88]	; 2bdc4 <_start@@Base+0x213f8>
   2bd68:	e5962004 	ldr	r2, [r6, #4]
   2bd6c:	e08c0000 	add	r0, ip, r0
[31m   2bd70:	ebff7a97 	bl	a7d4 <sprintf@plt>[0m
   2bd74:	e5943028 	ldr	r3, [r4, #40]	; 0x28
   2bd78:	e0803003 	add	r3, r0, r3
   2bd7c:	e5843028 	str	r3, [r4, #40]	; 0x28
   2bd80:	e8bd81f0 	pop	{r4, r5, r6, r7, r8, pc}
   2bd84:	e5943028 	ldr	r3, [r4, #40]	; 0x28
   2bd88:	e5940024 	ldr	r0, [r4, #36]	; 0x24
   2bd8c:	e59f1034 	ldr	r1, [pc, #52]	; 2bdc8 <_start@@Base+0x213fc>
   2bd90:	e5962004 	ldr	r2, [r6, #4]
   2bd94:	e0800003 	add	r0, r0, r3
[31m   2bd98:	ebff7a8d 	bl	a7d4 <sprintf@plt>[0m
   2bd9c:	e5943028 	ldr	r3, [r4, #40]	; 0x28
   2bda0:	e0803003 	add	r3, r0, r3
--
   2d208:	e1a01004 	mov	r1, r4
   2d20c:	e1a0000a 	mov	r0, sl
   2d210:	ebff74d3 	bl	a564 <nvram_set@plt>
   2d214:	ebffe8c2 	bl	27524 <_start@@Base+0x1cb58>
   2d218:	e3a03000 	mov	r3, #0
   2d21c:	e5853000 	str	r3, [r5]
   2d220:	ea000010 	b	2d268 <_start@@Base+0x2289c>
   2d224:	e59f01b8 	ldr	r0, [pc, #440]	; 2d3e4 <_start@@Base+0x22a18>
   2d228:	ebff761c 	bl	aaa0 <_start@@Base+0xd4>
   2d22c:	e59f3198 	ldr	r3, [pc, #408]	; 2d3cc <_start@@Base+0x22a00>
   2d230:	e3500000 	cmp	r0, #0
   2d234:	01a00003 	moveq	r0, r3
   2d238:	e5d03000 	ldrb	r3, [r0]
   2d23c:	e3530000 	cmp	r3, #0
   2d240:	1affff8b 	bne	2d074 <_start@@Base+0x226a8>
   2d244:	e5950024 	ldr	r0, [r5, #36]	; 0x24
   2d248:	e5953028 	ldr	r3, [r5, #40]	; 0x28
   2d24c:	e59f1194 	ldr	r1, [pc, #404]	; 2d3e8 <_start@@Base+0x22a1c>
   2d250:	e0800003 	add	r0, r0, r3
   2d254:	e5942004 	ldr	r2, [r4, #4]
[31m   2d258:	ebff755d 	bl	a7d4 <sprintf@plt>[0m
   2d25c:	e5953028 	ldr	r3, [r5, #40]	; 0x28
   2d260:	e0803003 	add	r3, r0, r3
--
   2d624:	e2509000 	subs	r9, r0, #0
   2d628:	ba000113 	blt	2da7c <_start@@Base+0x230b0>
   2d62c:	e59d38e4 	ldr	r3, [sp, #2276]	; 0x8e4
   2d630:	e3530000 	cmp	r3, #0
   2d634:	ba000110 	blt	2da7c <_start@@Base+0x230b0>
   2d638:	e59f0a84 	ldr	r0, [pc, #2692]	; 2e0c4 <_start@@Base+0x236f8>
   2d63c:	ebff7434 	bl	a714 <nvram_get@plt>
   2d640:	e3500000 	cmp	r0, #0
   2d644:	0a000003 	beq	2d658 <_start@@Base+0x22c8c>
   2d648:	e59f1a78 	ldr	r1, [pc, #2680]	; 2e0c8 <_start@@Base+0x236fc>
   2d64c:	ebff7454 	bl	a7a4 <strcmp@plt>
   2d650:	e3500000 	cmp	r0, #0
   2d654:	0a00011c 	beq	2dacc <_start@@Base+0x23100>
   2d658:	e3a0b001 	mov	fp, #1
   2d65c:	e28d4d21 	add	r4, sp, #2112	; 0x840
   2d660:	e59f1a64 	ldr	r1, [pc, #2660]	; 2e0cc <_start@@Base+0x23700>
   2d664:	e284400c 	add	r4, r4, #12
   2d668:	e59d28e4 	ldr	r2, [sp, #2276]	; 0x8e4
   2d66c:	e1a00004 	mov	r0, r4
   2d670:	e28d6018 	add	r6, sp, #24
[31m   2d674:	ebff7456 	bl	a7d4 <sprintf@plt>[0m
   2d678:	e1a00004 	mov	r0, r4
   2d67c:	e246600c 	sub	r6, r6, #12
--
   2d7a4:	e54382dc 	strb	r8, [r3, #-732]	; 0xfffffd24
   2d7a8:	e5cd870b 	strb	r8, [sp, #1803]	; 0x70b
   2d7ac:	ebff745f 	bl	a930 <strchr@plt>
   2d7b0:	e5dd360c 	ldrb	r3, [sp, #1548]	; 0x60c
   2d7b4:	e1a06000 	mov	r6, r0
   2d7b8:	e3530000 	cmp	r3, #0
   2d7bc:	1affffd4 	bne	2d714 <_start@@Base+0x22d48>
   2d7c0:	e3590001 	cmp	r9, #1
   2d7c4:	1a0000c3 	bne	2dad8 <_start@@Base+0x2310c>
   2d7c8:	e59f8900 	ldr	r8, [pc, #2304]	; 2e0d0 <_start@@Base+0x23704>
   2d7cc:	e28d7d22 	add	r7, sp, #2176	; 0x880
   2d7d0:	e3a06000 	mov	r6, #0
   2d7d4:	e287700c 	add	r7, r7, #12
   2d7d8:	e59d38e4 	ldr	r3, [sp, #2276]	; 0x8e4
   2d7dc:	e1a02006 	mov	r2, r6
   2d7e0:	e59f1900 	ldr	r1, [pc, #2304]	; 2e0e8 <_start@@Base+0x2371c>
   2d7e4:	e1a00007 	mov	r0, r7
   2d7e8:	e1560003 	cmp	r6, r3
   2d7ec:	e2866001 	add	r6, r6, #1
   2d7f0:	0a00000b 	beq	2d824 <_start@@Base+0x22e58>
[31m   2d7f4:	ebff73f6 	bl	a7d4 <sprintf@plt>[0m
   2d7f8:	e1a00007 	mov	r0, r7
   2d7fc:	ebff73c4 	bl	a714 <nvram_get@plt>
--
   2d850:	e59f3878 	ldr	r3, [pc, #2168]	; 2e0d0 <_start@@Base+0x23704>
   2d854:	e3500000 	cmp	r0, #0
   2d858:	01a00003 	moveq	r0, r3
   2d85c:	e5d03000 	ldrb	r3, [r0]
   2d860:	e3530030 	cmp	r3, #48	; 0x30
   2d864:	0a000001 	beq	2d870 <_start@@Base+0x22ea4>
   2d868:	e3530000 	cmp	r3, #0
   2d86c:	1a00008a 	bne	2da9c <_start@@Base+0x230d0>
   2d870:	e59f6874 	ldr	r6, [pc, #2164]	; 2e0ec <_start@@Base+0x23720>
   2d874:	e3a08001 	mov	r8, #1
   2d878:	e59f1848 	ldr	r1, [pc, #2120]	; 2e0c8 <_start@@Base+0x236fc>
   2d87c:	e1a00007 	mov	r0, r7
   2d880:	e5868e14 	str	r8, [r6, #3604]	; 0xe14
   2d884:	ebff7336 	bl	a564 <nvram_set@plt>
   2d888:	e59f1860 	ldr	r1, [pc, #2144]	; 2e0f0 <_start@@Base+0x23724>
   2d88c:	e59f0860 	ldr	r0, [pc, #2144]	; 2e0f4 <_start@@Base+0x23728>
   2d890:	ebff7333 	bl	a564 <nvram_set@plt>
   2d894:	e1a00007 	mov	r0, r7
   2d898:	e59f1858 	ldr	r1, [pc, #2136]	; 2e0f8 <_start@@Base+0x2372c>
   2d89c:	e59d28e4 	ldr	r2, [sp, #2276]	; 0x8e4
[31m   2d8a0:	ebff73cb 	bl	a7d4 <sprintf@plt>[0m
   2d8a4:	e15b0008 	cmp	fp, r8
   2d8a8:	0a000135 	beq	2dd84 <_start@@Base+0x233b8>
   2d8ac:	e59f1848 	ldr	r1, [pc, #2120]	; 2e0fc <_start@@Base+0x23730>
   2d8b0:	e1a00007 	mov	r0, r7
   2d8b4:	ebff732a 	bl	a564 <nvram_set@plt>
   2d8b8:	e59f183c 	ldr	r1, [pc, #2108]	; 2e0fc <_start@@Base+0x23730>
   2d8bc:	e59f083c 	ldr	r0, [pc, #2108]	; 2e100 <_start@@Base+0x23734>
   2d8c0:	ebff7327 	bl	a564 <nvram_set@plt>
   2d8c4:	e59d28e4 	ldr	r2, [sp, #2276]	; 0x8e4
   2d8c8:	e1a00007 	mov	r0, r7
   2d8cc:	e59f1830 	ldr	r1, [pc, #2096]	; 2e104 <_start@@Base+0x23738>
[31m   2d8d0:	ebff73bf 	bl	a7d4 <sprintf@plt>[0m
   2d8d4:	e59f182c 	ldr	r1, [pc, #2092]	; 2e108 <_start@@Base+0x2373c>
   2d8d8:	e1a00007 	mov	r0, r7
   2d8dc:	ebff7320 	bl	a564 <nvram_set@plt>
   2d8e0:	e59f0824 	ldr	r0, [pc, #2084]	; 2e10c <_start@@Base+0x23740>
   2d8e4:	ebff738a 	bl	a714 <nvram_get@plt>
   2d8e8:	e2509000 	subs	r9, r0, #0
   2d8ec:	059f97dc 	ldreq	r9, [pc, #2012]	; 2e0d0 <_start@@Base+0x23704>
   2d8f0:	0a000002 	beq	2d900 <_start@@Base+0x22f34>
   2d8f4:	ebff7401 	bl	a900 <strlen@plt>
   2d8f8:	e35000fe 	cmp	r0, #254	; 0xfe
   2d8fc:	8a000119 	bhi	2dd68 <_start@@Base+0x2339c>
   2d900:	e28d8c07 	add	r8, sp, #1792	; 0x700
   2d904:	e1a01009 	mov	r1, r9
   2d908:	e288800c 	add	r8, r8, #12
   2d90c:	e3a020ff 	mov	r2, #255	; 0xff
   2d910:	e1a00008 	mov	r0, r8
   2d914:	ebff7339 	bl	a600 <strncpy@plt>
   2d918:	e59d28e4 	ldr	r2, [sp, #2276]	; 0x8e4
   2d91c:	e1a00004 	mov	r0, r4
   2d920:	e59f17e8 	ldr	r1, [pc, #2024]	; 2e110 <_start@@Base+0x23744>
[31m   2d924:	ebff73aa 	bl	a7d4 <sprintf@plt>[0m
   2d928:	e1a01008 	mov	r1, r8
   2d92c:	e1a00004 	mov	r0, r4
   2d930:	e3a020ff 	mov	r2, #255	; 0xff
   2d934:	ebff7307 	bl	a558 <add_to_list@plt>
   2d938:	e59f07cc 	ldr	r0, [pc, #1996]	; 2e10c <_start@@Base+0x23740>
   2d93c:	e1a01008 	mov	r1, r8
   2d940:	ebff7307 	bl	a564 <nvram_set@plt>
   2d944:	e59d28e4 	ldr	r2, [sp, #2276]	; 0x8e4
   2d948:	e1a00007 	mov	r0, r7
   2d94c:	e59f17c0 	ldr	r1, [pc, #1984]	; 2e114 <_start@@Base+0x23748>
[31m   2d950:	ebff739f 	bl	a7d4 <sprintf@plt>[0m
   2d954:	e59f17bc 	ldr	r1, [pc, #1980]	; 2e118 <_start@@Base+0x2374c>
   2d958:	e1a00007 	mov	r0, r7
   2d95c:	ebff7300 	bl	a564 <nvram_set@plt>
   2d960:	e59d28e4 	ldr	r2, [sp, #2276]	; 0x8e4
   2d964:	e1a00007 	mov	r0, r7
   2d968:	e59f17ac 	ldr	r1, [pc, #1964]	; 2e11c <_start@@Base+0x23750>
[31m   2d96c:	ebff7398 	bl	a7d4 <sprintf@plt>[0m
   2d970:	e59f17a0 	ldr	r1, [pc, #1952]	; 2e118 <_start@@Base+0x2374c>
   2d974:	e1a00007 	mov	r0, r7
   2d978:	ebff72f9 	bl	a564 <nvram_set@plt>
   2d97c:	e59f379c 	ldr	r3, [pc, #1948]	; 2e120 <_start@@Base+0x23754>
   2d980:	e28d2b02 	add	r2, sp, #2048	; 0x800
   2d984:	e8930003 	ldm	r3, {r0, r1}
   2d988:	e58d088c 	str	r0, [sp, #2188]	; 0x88c
   2d98c:	e1a00007 	mov	r0, r7
   2d990:	e1a03821 	lsr	r3, r1, #16
   2d994:	e1c219b0 	strh	r1, [r2, #144]	; 0x90
   2d998:	e5cd3892 	strb	r3, [sp, #2194]	; 0x892
   2d99c:	ebff735c 	bl	a714 <nvram_get@plt>
   2d9a0:	e2505000 	subs	r5, r0, #0
   2d9a4:	0a000002 	beq	2d9b4 <_start@@Base+0x22fe8>
   2d9a8:	e5d53000 	ldrb	r3, [r5]
   2d9ac:	e3530000 	cmp	r3, #0
   2d9b0:	1a00016d 	bne	2df6c <_start@@Base+0x235a0>
   2d9b4:	e59f1768 	ldr	r1, [pc, #1896]	; 2e124 <_start@@Base+0x23758>
   2d9b8:	e1a00007 	mov	r0, r7
   2d9bc:	e59d28e4 	ldr	r2, [sp, #2276]	; 0x8e4
[31m   2d9c0:	ebff7383 	bl	a7d4 <sprintf@plt>[0m
   2d9c4:	e1a00007 	mov	r0, r7
   2d9c8:	ebff7351 	bl	a714 <nvram_get@plt>
--
   2d9d8:	e3530000 	cmp	r3, #0
   2d9dc:	1a000176 	bne	2dfbc <_start@@Base+0x235f0>
   2d9e0:	e59f16e8 	ldr	r1, [pc, #1768]	; 2e0d0 <_start@@Base+0x23704>
   2d9e4:	e59f073c 	ldr	r0, [pc, #1852]	; 2e128 <_start@@Base+0x2375c>
   2d9e8:	ebff72dd 	bl	a564 <nvram_set@plt>
   2d9ec:	e59f0738 	ldr	r0, [pc, #1848]	; 2e12c <_start@@Base+0x23760>
   2d9f0:	e59f16d8 	ldr	r1, [pc, #1752]	; 2e0d0 <_start@@Base+0x23704>
   2d9f4:	ebff72da 	bl	a564 <nvram_set@plt>
   2d9f8:	e59d38e4 	ldr	r3, [sp, #2276]	; 0x8e4
   2d9fc:	e3530000 	cmp	r3, #0
   2da00:	0a000149 	beq	2df2c <_start@@Base+0x23560>
   2da04:	e59f16e4 	ldr	r1, [pc, #1764]	; 2e0f0 <_start@@Base+0x23724>
   2da08:	e59f0720 	ldr	r0, [pc, #1824]	; 2e130 <_start@@Base+0x23764>
   2da0c:	ebff72d4 	bl	a564 <nvram_set@plt>
   2da10:	e35a0002 	cmp	sl, #2
   2da14:	da000011 	ble	2da60 <_start@@Base+0x23094>
   2da18:	e3a05002 	mov	r5, #2
   2da1c:	e1a02005 	mov	r2, r5
   2da20:	e59f170c 	ldr	r1, [pc, #1804]	; 2e134 <_start@@Base+0x23768>
   2da24:	e1a00004 	mov	r0, r4
[31m   2da28:	ebff7369 	bl	a7d4 <sprintf@plt>[0m
   2da2c:	e59f16bc 	ldr	r1, [pc, #1724]	; 2e0f0 <_start@@Base+0x23724>
   2da30:	e1a00004 	mov	r0, r4
   2da34:	ebff72ca 	bl	a564 <nvram_set@plt>
   2da38:	e1a02005 	mov	r2, r5
   2da3c:	e59f16f4 	ldr	r1, [pc, #1780]	; 2e138 <_start@@Base+0x2376c>
   2da40:	e1a00004 	mov	r0, r4
   2da44:	e2855001 	add	r5, r5, #1
[31m   2da48:	ebff7361 	bl	a7d4 <sprintf@plt>[0m
   2da4c:	e1a00004 	mov	r0, r4
   2da50:	e59f1698 	ldr	r1, [pc, #1688]	; 2e0f0 <_start@@Base+0x23724>
--
   2dbd8:	e1a01008 	mov	r1, r8
   2dbdc:	e1a00009 	mov	r0, r9
   2dbe0:	ebff725c 	bl	a558 <add_to_list@plt>
   2dbe4:	e1a01008 	mov	r1, r8
   2dbe8:	e59f0558 	ldr	r0, [pc, #1368]	; 2e148 <_start@@Base+0x2377c>
   2dbec:	ebff725c 	bl	a564 <nvram_set@plt>
   2dbf0:	e59f0514 	ldr	r0, [pc, #1300]	; 2e10c <_start@@Base+0x23740>
   2dbf4:	ebff72c6 	bl	a714 <nvram_get@plt>
   2dbf8:	e2506000 	subs	r6, r0, #0
   2dbfc:	0a000122 	beq	2e08c <_start@@Base+0x236c0>
   2dc00:	ebff733e 	bl	a900 <strlen@plt>
   2dc04:	e35000fe 	cmp	r0, #254	; 0xfe
   2dc08:	8a0000ce 	bhi	2df48 <_start@@Base+0x2357c>
   2dc0c:	e1a01006 	mov	r1, r6
   2dc10:	e3a020ff 	mov	r2, #255	; 0xff
   2dc14:	e1a00008 	mov	r0, r8
   2dc18:	ebff7278 	bl	a600 <strncpy@plt>
   2dc1c:	e59d28e4 	ldr	r2, [sp, #2276]	; 0x8e4
   2dc20:	e1a00004 	mov	r0, r4
   2dc24:	e59f14e4 	ldr	r1, [pc, #1252]	; 2e110 <_start@@Base+0x23744>
[31m   2dc28:	ebff72e9 	bl	a7d4 <sprintf@plt>[0m
   2dc2c:	e1a01008 	mov	r1, r8
   2dc30:	e3a020ff 	mov	r2, #255	; 0xff
   2dc34:	e1a00004 	mov	r0, r4
   2dc38:	ebff7267 	bl	a5dc <remove_from_list@plt>
   2dc3c:	e59d28e4 	ldr	r2, [sp, #2276]	; 0x8e4
   2dc40:	e1a00004 	mov	r0, r4
   2dc44:	e59f150c 	ldr	r1, [pc, #1292]	; 2e158 <_start@@Base+0x2378c>
[31m   2dc48:	ebff72e1 	bl	a7d4 <sprintf@plt>[0m
   2dc4c:	e1a01009 	mov	r1, r9
   2dc50:	e3a02040 	mov	r2, #64	; 0x40
--
   2dc64:	e1a00009 	mov	r0, r9
   2dc68:	ebff723a 	bl	a558 <add_to_list@plt>
   2dc6c:	e1a01008 	mov	r1, r8
   2dc70:	e59f0494 	ldr	r0, [pc, #1172]	; 2e10c <_start@@Base+0x23740>
   2dc74:	ebff723a 	bl	a564 <nvram_set@plt>
   2dc78:	e59f14dc 	ldr	r1, [pc, #1244]	; 2e15c <_start@@Base+0x23790>
   2dc7c:	e59f04a4 	ldr	r0, [pc, #1188]	; 2e128 <_start@@Base+0x2375c>
   2dc80:	ebff7237 	bl	a564 <nvram_set@plt>
   2dc84:	e1a00008 	mov	r0, r8
   2dc88:	e3a01000 	mov	r1, #0
   2dc8c:	e3a020ff 	mov	r2, #255	; 0xff
   2dc90:	ebff72a8 	bl	a738 <memset@plt>
   2dc94:	e35a0001 	cmp	sl, #1
   2dc98:	da00002d 	ble	2dd54 <_start@@Base+0x23388>
   2dc9c:	e28d5d23 	add	r5, sp, #2240	; 0x8c0
   2dca0:	e3a06001 	mov	r6, #1
   2dca4:	e285500c 	add	r5, r5, #12
   2dca8:	e1a02006 	mov	r2, r6
   2dcac:	e59f14ac 	ldr	r1, [pc, #1196]	; 2e160 <_start@@Base+0x23794>
   2dcb0:	e1a00004 	mov	r0, r4
[31m   2dcb4:	ebff72c6 	bl	a7d4 <sprintf@plt>[0m
   2dcb8:	e3a020ff 	mov	r2, #255	; 0xff
   2dcbc:	e1a01008 	mov	r1, r8
   2dcc0:	e1a00004 	mov	r0, r4
   2dcc4:	ebff7223 	bl	a558 <add_to_list@plt>
   2dcc8:	e1a01004 	mov	r1, r4
   2dccc:	e1a00005 	mov	r0, r5
   2dcd0:	ebff712a 	bl	a180 <strcpy@plt>
   2dcd4:	e1a00005 	mov	r0, r5
   2dcd8:	ebff7308 	bl	a900 <strlen@plt>
   2dcdc:	e3a02008 	mov	r2, #8
   2dce0:	e59f147c 	ldr	r1, [pc, #1148]	; 2e164 <_start@@Base+0x23798>
   2dce4:	e0850000 	add	r0, r5, r0
   2dce8:	ebff717e 	bl	a2e8 <memcpy@plt>
   2dcec:	e59f13dc 	ldr	r1, [pc, #988]	; 2e0d0 <_start@@Base+0x23704>
   2dcf0:	e1a00005 	mov	r0, r5
   2dcf4:	ebff721a 	bl	a564 <nvram_set@plt>
   2dcf8:	e1a02006 	mov	r2, r6
   2dcfc:	e59f1464 	ldr	r1, [pc, #1124]	; 2e168 <_start@@Base+0x2379c>
   2dd00:	e1a00004 	mov	r0, r4
   2dd04:	e2866001 	add	r6, r6, #1
[31m   2dd08:	ebff72b1 	bl	a7d4 <sprintf@plt>[0m
   2dd0c:	e3a020ff 	mov	r2, #255	; 0xff
   2dd10:	e1a01008 	mov	r1, r8
--
   2dd58:	e59f03cc 	ldr	r0, [pc, #972]	; 2e12c <_start@@Base+0x23760>
   2dd5c:	e59f6388 	ldr	r6, [pc, #904]	; 2e0ec <_start@@Base+0x23720>
   2dd60:	ebff71ff 	bl	a564 <nvram_set@plt>
   2dd64:	eaffff3d 	b	2da60 <_start@@Base+0x23094>
   2dd68:	e59f03fc 	ldr	r0, [pc, #1020]	; 2e16c <_start@@Base+0x237a0>
   2dd6c:	e1a01008 	mov	r1, r8
   2dd70:	e3a02010 	mov	r2, #16
   2dd74:	e1a03005 	mov	r3, r5
   2dd78:	ebff72b0 	bl	a840 <fwrite@plt>
   2dd7c:	e5868000 	str	r8, [r6]
   2dd80:	eaffff45 	b	2da9c <_start@@Base+0x230d0>
   2dd84:	e59f13e4 	ldr	r1, [pc, #996]	; 2e170 <_start@@Base+0x237a4>
   2dd88:	e1a00007 	mov	r0, r7
   2dd8c:	ebff71f4 	bl	a564 <nvram_set@plt>
   2dd90:	e59f13d8 	ldr	r1, [pc, #984]	; 2e170 <_start@@Base+0x237a4>
   2dd94:	e59f0364 	ldr	r0, [pc, #868]	; 2e100 <_start@@Base+0x23734>
   2dd98:	ebff71f1 	bl	a564 <nvram_set@plt>
   2dd9c:	e59d28e4 	ldr	r2, [sp, #2276]	; 0x8e4
   2dda0:	e1a00007 	mov	r0, r7
   2dda4:	e59f1358 	ldr	r1, [pc, #856]	; 2e104 <_start@@Base+0x23738>
[31m   2dda8:	ebff7289 	bl	a7d4 <sprintf@plt>[0m
   2ddac:	e59f1354 	ldr	r1, [pc, #852]	; 2e108 <_start@@Base+0x2373c>
   2ddb0:	e1a00007 	mov	r0, r7
   2ddb4:	ebff71ea 	bl	a564 <nvram_set@plt>
   2ddb8:	e59f034c 	ldr	r0, [pc, #844]	; 2e10c <_start@@Base+0x23740>
   2ddbc:	ebff7254 	bl	a714 <nvram_get@plt>
   2ddc0:	e2509000 	subs	r9, r0, #0
   2ddc4:	059f9304 	ldreq	r9, [pc, #772]	; 2e0d0 <_start@@Base+0x23704>
   2ddc8:	0a000002 	beq	2ddd8 <_start@@Base+0x2340c>
   2ddcc:	ebff72cb 	bl	a900 <strlen@plt>
   2ddd0:	e35000fe 	cmp	r0, #254	; 0xfe
   2ddd4:	8a00008c 	bhi	2e00c <_start@@Base+0x23640>
   2ddd8:	e28d8c07 	add	r8, sp, #1792	; 0x700
   2dddc:	e1a01009 	mov	r1, r9
   2dde0:	e288800c 	add	r8, r8, #12
   2dde4:	e3a020ff 	mov	r2, #255	; 0xff
   2dde8:	e1a00008 	mov	r0, r8
   2ddec:	e28d9b02 	add	r9, sp, #2048	; 0x800
   2ddf0:	ebff7202 	bl	a600 <strncpy@plt>
   2ddf4:	e289900c 	add	r9, r9, #12
   2ddf8:	e59f1358 	ldr	r1, [pc, #856]	; 2e158 <_start@@Base+0x2378c>
   2ddfc:	e59d28e4 	ldr	r2, [sp, #2276]	; 0x8e4
   2de00:	e1a00004 	mov	r0, r4
[31m   2de04:	ebff7272 	bl	a7d4 <sprintf@plt>[0m
   2de08:	e3a02040 	mov	r2, #64	; 0x40
   2de0c:	e1a01009 	mov	r1, r9
--
   2deb0:	e1a00009 	mov	r0, r9
   2deb4:	e1a01008 	mov	r1, r8
   2deb8:	ebff71a6 	bl	a558 <add_to_list@plt>
   2debc:	e1a01008 	mov	r1, r8
   2dec0:	e59f0280 	ldr	r0, [pc, #640]	; 2e148 <_start@@Base+0x2377c>
   2dec4:	ebff71a6 	bl	a564 <nvram_set@plt>
   2dec8:	e59f023c 	ldr	r0, [pc, #572]	; 2e10c <_start@@Base+0x23740>
   2decc:	ebff7210 	bl	a714 <nvram_get@plt>
   2ded0:	e2509000 	subs	r9, r0, #0
   2ded4:	0a000076 	beq	2e0b4 <_start@@Base+0x236e8>
   2ded8:	ebff7288 	bl	a900 <strlen@plt>
   2dedc:	e35000fe 	cmp	r0, #254	; 0xfe
   2dee0:	8a000050 	bhi	2e028 <_start@@Base+0x2365c>
   2dee4:	e1a01009 	mov	r1, r9
   2dee8:	e3a020ff 	mov	r2, #255	; 0xff
   2deec:	e1a00008 	mov	r0, r8
   2def0:	ebff71c2 	bl	a600 <strncpy@plt>
   2def4:	e59d28e4 	ldr	r2, [sp, #2276]	; 0x8e4
   2def8:	e1a00004 	mov	r0, r4
   2defc:	e59f120c 	ldr	r1, [pc, #524]	; 2e110 <_start@@Base+0x23744>
[31m   2df00:	ebff7233 	bl	a7d4 <sprintf@plt>[0m
   2df04:	e1a00004 	mov	r0, r4
   2df08:	e1a01008 	mov	r1, r8
--
   2e214:	e1a00008 	mov	r0, r8
   2e218:	e0866003 	add	r6, r6, r3
   2e21c:	e2855001 	add	r5, r5, #1
   2e220:	ebff706c 	bl	a3d8 <fflush@plt>
   2e224:	e5db3038 	ldrb	r3, [fp, #56]	; 0x38
   2e228:	e3530001 	cmp	r3, #1
   2e22c:	1a00002a 	bne	2e2dc <_start@@Base+0x23910>
   2e230:	e5d47026 	ldrb	r7, [r4, #38]	; 0x26
   2e234:	e1a00009 	mov	r0, r9
   2e238:	e5d4e025 	ldrb	lr, [r4, #37]	; 0x25
   2e23c:	e1a0b004 	mov	fp, r4
   2e240:	e5d4a027 	ldrb	sl, [r4, #39]	; 0x27
   2e244:	e5d4c028 	ldrb	ip, [r4, #40]	; 0x28
   2e248:	e5d43024 	ldrb	r3, [r4, #36]	; 0x24
   2e24c:	e5d42023 	ldrb	r2, [r4, #35]	; 0x23
   2e250:	e59f1138 	ldr	r1, [pc, #312]	; 2e390 <_start@@Base+0x239c4>
   2e254:	e58d7004 	str	r7, [sp, #4]
   2e258:	e58de000 	str	lr, [sp]
   2e25c:	e58da008 	str	sl, [sp, #8]
   2e260:	e58dc00c 	str	ip, [sp, #12]
[31m   2e264:	ebff715a 	bl	a7d4 <sprintf@plt>[0m
   2e268:	e300362c 	movw	r3, #1580	; 0x62c
   2e26c:	e2840001 	add	r0, r4, #1
--
   2e3f8:	e1a03005 	mov	r3, r5
   2e3fc:	e59f019c 	ldr	r0, [pc, #412]	; 2e5a0 <_start@@Base+0x23bd4>
   2e400:	ebff710e 	bl	a840 <fwrite@plt>
   2e404:	e1a00005 	mov	r0, r5
   2e408:	ebff6ff2 	bl	a3d8 <fflush@plt>
   2e40c:	e1a03005 	mov	r3, r5
   2e410:	e3a01001 	mov	r1, #1
   2e414:	e3a02064 	mov	r2, #100	; 0x64
   2e418:	e59f0184 	ldr	r0, [pc, #388]	; 2e5a4 <_start@@Base+0x23bd8>
   2e41c:	ebff7107 	bl	a840 <fwrite@plt>
   2e420:	e1a00005 	mov	r0, r5
   2e424:	ebff6feb 	bl	a3d8 <fflush@plt>
   2e428:	ebffac6f 	bl	195ec <_start@@Base+0xec20>
   2e42c:	e5d63130 	ldrb	r3, [r6, #304]	; 0x130
   2e430:	e3530001 	cmp	r3, #1
   2e434:	1a00001c 	bne	2e4ac <_start@@Base+0x23ae0>
   2e438:	e2866e13 	add	r6, r6, #304	; 0x130
   2e43c:	e3a07000 	mov	r7, #0
   2e440:	ea000006 	b	2e460 <_start@@Base+0x23a94>
   2e444:	e0840003 	add	r0, r4, r3
[31m   2e448:	ebff70e1 	bl	a7d4 <sprintf@plt>[0m
   2e44c:	e5d83038 	ldrb	r3, [r8, #56]	; 0x38
   2e450:	e2877001 	add	r7, r7, #1
   2e454:	e2866038 	add	r6, r6, #56	; 0x38
   2e458:	e3530001 	cmp	r3, #1
   2e45c:	1a000012 	bne	2e4ac <_start@@Base+0x23ae0>
   2e460:	e5d63036 	ldrb	r3, [r6, #54]	; 0x36
   2e464:	e1a0000d 	mov	r0, sp
   2e468:	e1a08006 	mov	r8, r6
   2e46c:	e3530000 	cmp	r3, #0
   2e470:	1afffff5 	bne	2e44c <_start@@Base+0x23a80>
   2e474:	ebff7121 	bl	a900 <strlen@plt>
   2e478:	e2503000 	subs	r3, r0, #0
   2e47c:	e59f1124 	ldr	r1, [pc, #292]	; 2e5a8 <_start@@Base+0x23bdc>
   2e480:	e1a02007 	mov	r2, r7
   2e484:	e1a0000d 	mov	r0, sp
   2e488:	1affffed 	bne	2e444 <_start@@Base+0x23a78>
   2e48c:	e1a02007 	mov	r2, r7
   2e490:	e59f1114 	ldr	r1, [pc, #276]	; 2e5ac <_start@@Base+0x23be0>
[31m   2e494:	ebff70ce 	bl	a7d4 <sprintf@plt>[0m
   2e498:	e5d83038 	ldrb	r3, [r8, #56]	; 0x38
   2e49c:	e2877001 	add	r7, r7, #1
--
   2ed18:	e1a00004 	mov	r0, r4
   2ed1c:	ebff6ef7 	bl	a900 <strlen@plt>
   2ed20:	e3a02008 	mov	r2, #8
   2ed24:	e59f1b04 	ldr	r1, [pc, #2820]	; 2f830 <_start@@Base+0x24e64>
   2ed28:	e0840000 	add	r0, r4, r0
   2ed2c:	ebff6d6d 	bl	a2e8 <memcpy@plt>
   2ed30:	e59f1afc 	ldr	r1, [pc, #2812]	; 2f834 <_start@@Base+0x24e68>
   2ed34:	e1a00004 	mov	r0, r4
   2ed38:	ebff6e09 	bl	a564 <nvram_set@plt>
   2ed3c:	e59a3028 	ldr	r3, [sl, #40]	; 0x28
   2ed40:	e1a01005 	mov	r1, r5
   2ed44:	e59a8024 	ldr	r8, [sl, #36]	; 0x24
   2ed48:	e1a02004 	mov	r2, r4
   2ed4c:	e1a00006 	mov	r0, r6
   2ed50:	e0888003 	add	r8, r8, r3
   2ed54:	ebffc270 	bl	1f71c <_start@@Base+0x14d50>
   2ed58:	e59d3014 	ldr	r3, [sp, #20]
   2ed5c:	e1a02000 	mov	r2, r0
   2ed60:	e59f1ad0 	ldr	r1, [pc, #2768]	; 2f838 <_start@@Base+0x24e6c>
   2ed64:	e1a00008 	mov	r0, r8
[31m   2ed68:	ebff6e99 	bl	a7d4 <sprintf@plt>[0m
   2ed6c:	e59a3028 	ldr	r3, [sl, #40]	; 0x28
   2ed70:	e0803003 	add	r3, r0, r3
--
   2f0c0:	ebff6c2e 	bl	a180 <strcpy@plt>
   2f0c4:	e1a00004 	mov	r0, r4
   2f0c8:	ebff6e0c 	bl	a900 <strlen@plt>
   2f0cc:	e3a02008 	mov	r2, #8
   2f0d0:	e59f1758 	ldr	r1, [pc, #1880]	; 2f830 <_start@@Base+0x24e64>
   2f0d4:	e0840000 	add	r0, r4, r0
   2f0d8:	ebff6c82 	bl	a2e8 <memcpy@plt>
   2f0dc:	e59f1750 	ldr	r1, [pc, #1872]	; 2f834 <_start@@Base+0x24e68>
   2f0e0:	e1a00004 	mov	r0, r4
   2f0e4:	ebff6d1e 	bl	a564 <nvram_set@plt>
   2f0e8:	e59a3028 	ldr	r3, [sl, #40]	; 0x28
   2f0ec:	e1a01005 	mov	r1, r5
   2f0f0:	e59a8024 	ldr	r8, [sl, #36]	; 0x24
   2f0f4:	e1a02004 	mov	r2, r4
   2f0f8:	e1a00006 	mov	r0, r6
   2f0fc:	e0888003 	add	r8, r8, r3
   2f100:	ebffc185 	bl	1f71c <_start@@Base+0x14d50>
   2f104:	e59f174c 	ldr	r1, [pc, #1868]	; 2f858 <_start@@Base+0x24e8c>
   2f108:	e1a02000 	mov	r2, r0
   2f10c:	e1a00008 	mov	r0, r8
[31m   2f110:	ebff6daf 	bl	a7d4 <sprintf@plt>[0m
   2f114:	e59a3028 	ldr	r3, [sl, #40]	; 0x28
   2f118:	e0803003 	add	r3, r0, r3
--
   2f30c:	e1a00004 	mov	r0, r4
   2f310:	ebff6d7a 	bl	a900 <strlen@plt>
   2f314:	e3a02008 	mov	r2, #8
   2f318:	e59f1510 	ldr	r1, [pc, #1296]	; 2f830 <_start@@Base+0x24e64>
   2f31c:	e0840000 	add	r0, r4, r0
   2f320:	ebff6bf0 	bl	a2e8 <memcpy@plt>
   2f324:	e59f1508 	ldr	r1, [pc, #1288]	; 2f834 <_start@@Base+0x24e68>
   2f328:	e1a00004 	mov	r0, r4
   2f32c:	ebff6c8c 	bl	a564 <nvram_set@plt>
   2f330:	e59a3024 	ldr	r3, [sl, #36]	; 0x24
   2f334:	e1a01005 	mov	r1, r5
   2f338:	e59a8028 	ldr	r8, [sl, #40]	; 0x28
   2f33c:	e1a02004 	mov	r2, r4
   2f340:	e1a00006 	mov	r0, r6
   2f344:	e0838008 	add	r8, r3, r8
   2f348:	ebffc0f3 	bl	1f71c <_start@@Base+0x14d50>
   2f34c:	e59f1510 	ldr	r1, [pc, #1296]	; 2f864 <_start@@Base+0x24e98>
   2f350:	e1a02000 	mov	r2, r0
   2f354:	e1a00008 	mov	r0, r8
   2f358:	e59d3014 	ldr	r3, [sp, #20]
[31m   2f35c:	ebff6d1c 	bl	a7d4 <sprintf@plt>[0m
   2f360:	e59a3028 	ldr	r3, [sl, #40]	; 0x28
   2f364:	e0803003 	add	r3, r0, r3
--
   2f504:	e1a01005 	mov	r1, r5
   2f508:	e59ac024 	ldr	ip, [sl, #36]	; 0x24
   2f50c:	e1a02004 	mov	r2, r4
   2f510:	e1a00006 	mov	r0, r6
   2f514:	e08cc003 	add	ip, ip, r3
   2f518:	e58dc00c 	str	ip, [sp, #12]
   2f51c:	ebffc07e 	bl	1f71c <_start@@Base+0x14d50>
   2f520:	e1a02000 	mov	r2, r0
   2f524:	e59f031c 	ldr	r0, [pc, #796]	; 2f848 <_start@@Base+0x24e7c>
   2f528:	e58d2010 	str	r2, [sp, #16]
   2f52c:	ebff6c78 	bl	a714 <nvram_get@plt>
   2f530:	e59dc00c 	ldr	ip, [sp, #12]
   2f534:	e3500000 	cmp	r0, #0
   2f538:	11a03000 	movne	r3, r0
   2f53c:	01a0300b 	moveq	r3, fp
   2f540:	e59f1320 	ldr	r1, [pc, #800]	; 2f868 <_start@@Base+0x24e9c>
   2f544:	e1a0000c 	mov	r0, ip
   2f548:	e59dc014 	ldr	ip, [sp, #20]
   2f54c:	e59d2010 	ldr	r2, [sp, #16]
   2f550:	e58dc000 	str	ip, [sp]
[31m   2f554:	ebff6c9e 	bl	a7d4 <sprintf@plt>[0m
   2f558:	e59a3028 	ldr	r3, [sl, #40]	; 0x28
   2f55c:	e0803003 	add	r3, r0, r3
--
   2f784:	ebff6a7d 	bl	a180 <strcpy@plt>
   2f788:	e1a00004 	mov	r0, r4
   2f78c:	ebff6c5b 	bl	a900 <strlen@plt>
   2f790:	e3a02008 	mov	r2, #8
   2f794:	e59f1094 	ldr	r1, [pc, #148]	; 2f830 <_start@@Base+0x24e64>
   2f798:	e0840000 	add	r0, r4, r0
   2f79c:	ebff6ad1 	bl	a2e8 <memcpy@plt>
   2f7a0:	e59f108c 	ldr	r1, [pc, #140]	; 2f834 <_start@@Base+0x24e68>
   2f7a4:	e1a00004 	mov	r0, r4
   2f7a8:	ebff6b6d 	bl	a564 <nvram_set@plt>
   2f7ac:	e59a3024 	ldr	r3, [sl, #36]	; 0x24
   2f7b0:	e1a01005 	mov	r1, r5
   2f7b4:	e59a8028 	ldr	r8, [sl, #40]	; 0x28
   2f7b8:	e1a02004 	mov	r2, r4
   2f7bc:	e1a00006 	mov	r0, r6
   2f7c0:	e0838008 	add	r8, r3, r8
   2f7c4:	ebffbfd4 	bl	1f71c <_start@@Base+0x14d50>
   2f7c8:	e59f10a8 	ldr	r1, [pc, #168]	; 2f878 <_start@@Base+0x24eac>
   2f7cc:	e1a02000 	mov	r2, r0
   2f7d0:	e1a00008 	mov	r0, r8
[31m   2f7d4:	ebff6bfe 	bl	a7d4 <sprintf@plt>[0m
   2f7d8:	e59a3028 	ldr	r3, [sl, #40]	; 0x28
   2f7dc:	e0803003 	add	r3, r0, r3
--
   2fffc:	e3a0100f 	mov	r1, #15
   30000:	e59f2404 	ldr	r2, [pc, #1028]	; 3040c <_start@@Base+0x25a40>
   30004:	e1c03fc0 	bic	r3, r0, r0, asr #31
   30008:	e1a00005 	mov	r0, r5
   3000c:	ebff6888 	bl	a234 <snprintf@plt>
   30010:	e2873008 	add	r3, r7, #8
   30014:	e59f03f4 	ldr	r0, [pc, #1012]	; 30410 <_start@@Base+0x25a44>
   30018:	e5834000 	str	r4, [r3]
   3001c:	e5864000 	str	r4, [r6]
   30020:	e58d40dc 	str	r4, [sp, #220]	; 0xdc
   30024:	e58d40e0 	str	r4, [sp, #224]	; 0xe0
   30028:	ebff69b9 	bl	a714 <nvram_get@plt>
   3002c:	e1500004 	cmp	r0, r4
   30030:	11a01000 	movne	r1, r0
   30034:	01a01008 	moveq	r1, r8
   30038:	e1a00007 	mov	r0, r7
   3003c:	ebff684f 	bl	a180 <strcpy@plt>
   30040:	e1a02007 	mov	r2, r7
   30044:	e59f13c8 	ldr	r1, [pc, #968]	; 30414 <_start@@Base+0x25a48>
   30048:	e1a00007 	mov	r0, r7
[31m   3004c:	ebff69e0 	bl	a7d4 <sprintf@plt>[0m
   30050:	e1a00007 	mov	r0, r7
   30054:	ebff69ae 	bl	a714 <nvram_get@plt>
--
   31824:	ebff649d 	bl	aaa0 <_start@@Base+0xd4>
   31828:	e250a000 	subs	sl, r0, #0
   3182c:	0a000479 	beq	32a18 <_start@@Base+0x2804c>
   31830:	e59f1ae4 	ldr	r1, [pc, #2788]	; 3231c <_start@@Base+0x27950>
   31834:	ebff63da 	bl	a7a4 <strcmp@plt>
   31838:	e3500000 	cmp	r0, #0
   3183c:	0a000110 	beq	31c84 <_start@@Base+0x272b8>
   31840:	e1a0000a 	mov	r0, sl
   31844:	e59f1ad4 	ldr	r1, [pc, #2772]	; 32320 <_start@@Base+0x27954>
   31848:	ebff63d5 	bl	a7a4 <strcmp@plt>
   3184c:	e3500000 	cmp	r0, #0
   31850:	1a0001cb 	bne	31f84 <_start@@Base+0x275b8>
   31854:	e3a03004 	mov	r3, #4
   31858:	e59f4bb4 	ldr	r4, [pc, #2996]	; 32414 <_start@@Base+0x27a48>
   3185c:	e1a02003 	mov	r2, r3
   31860:	e5843e78 	str	r3, [r4, #3704]	; 0xe78
   31864:	e28d8b01 	add	r8, sp, #1024	; 0x400
   31868:	e59f1ab4 	ldr	r1, [pc, #2740]	; 32324 <_start@@Base+0x27958>
   3186c:	e2888008 	add	r8, r8, #8
   31870:	e1a00008 	mov	r0, r8
[31m   31874:	ebff63d6 	bl	a7d4 <sprintf@plt>[0m
   31878:	e1a01008 	mov	r1, r8
   3187c:	e59f0a94 	ldr	r0, [pc, #2708]	; 32318 <_start@@Base+0x2794c>
   31880:	ebff6337 	bl	a564 <nvram_set@plt>
   31884:	e1a0200a 	mov	r2, sl
   31888:	e59f1a98 	ldr	r1, [pc, #2712]	; 32328 <_start@@Base+0x2795c>
   3188c:	e1a00005 	mov	r0, r5
   31890:	e59fab7c 	ldr	sl, [pc, #2940]	; 32414 <_start@@Base+0x27a48>
   31894:	ebff6311 	bl	a4e0 <fprintf@plt>
   31898:	e1a00005 	mov	r0, r5
   3189c:	ebff62cd 	bl	a3d8 <fflush@plt>
   318a0:	e2860004 	add	r0, r6, #4
   318a4:	e59f1b6c 	ldr	r1, [pc, #2924]	; 32418 <_start@@Base+0x27a4c>
   318a8:	e5942e78 	ldr	r2, [r4, #3704]	; 0xe78
[31m   318ac:	ebff63c8 	bl	a7d4 <sprintf@plt>[0m
   318b0:	e5949e78 	ldr	r9, [r4, #3704]	; 0xe78
   318b4:	e2808004 	add	r8, r0, #4
--
   318fc:	ebff63cf 	bl	a840 <fwrite@plt>
   31900:	e1a00005 	mov	r0, r5
   31904:	e28d7e57 	add	r7, sp, #1392	; 0x570
   31908:	ebff62b2 	bl	a3d8 <fflush@plt>
   3190c:	e59f1b5c 	ldr	r1, [pc, #2908]	; 32470 <_start@@Base+0x27aa4>
   31910:	e287700c 	add	r7, r7, #12
   31914:	e59f0b0c 	ldr	r0, [pc, #2828]	; 32428 <_start@@Base+0x27a5c>
   31918:	e28d5e56 	add	r5, sp, #1376	; 0x560
   3191c:	ebff6310 	bl	a564 <nvram_set@plt>
   31920:	e59f0b04 	ldr	r0, [pc, #2820]	; 3242c <_start@@Base+0x27a60>
   31924:	e285500c 	add	r5, r5, #12
   31928:	ebff6379 	bl	a714 <nvram_get@plt>
   3192c:	e3500000 	cmp	r0, #0
   31930:	e59f1968 	ldr	r1, [pc, #2408]	; 322a0 <_start@@Base+0x278d4>
   31934:	11a01000 	movne	r1, r0
   31938:	e59f0af8 	ldr	r0, [pc, #2808]	; 32438 <_start@@Base+0x27a6c>
   3193c:	ebff620f 	bl	a180 <strcpy@plt>
   31940:	e59f1ae8 	ldr	r1, [pc, #2792]	; 32430 <_start@@Base+0x27a64>
   31944:	e3a02001 	mov	r2, #1
   31948:	e0860008 	add	r0, r6, r8
[31m   3194c:	ebff63a0 	bl	a7d4 <sprintf@plt>[0m
   31950:	e59f1adc 	ldr	r1, [pc, #2780]	; 32434 <_start@@Base+0x27a68>
   31954:	e1a0a000 	mov	sl, r0
   31958:	e59f2ad8 	ldr	r2, [pc, #2776]	; 32438 <_start@@Base+0x27a6c>
   3195c:	e1a00007 	mov	r0, r7
[31m   31960:	ebff639b 	bl	a7d4 <sprintf@plt>[0m
   31964:	e1a01005 	mov	r1, r5
   31968:	e3a02010 	mov	r2, #16
   3196c:	e1a00007 	mov	r0, r7
   31970:	ebff6358 	bl	a6d8 <nvifname_to_osifname@plt>
   31974:	e08a0008 	add	r0, sl, r8
   31978:	e59f1abc 	ldr	r1, [pc, #2748]	; 3243c <_start@@Base+0x27a70>
   3197c:	e1a02005 	mov	r2, r5
   31980:	e0860000 	add	r0, r6, r0
[31m   31984:	ebff6392 	bl	a7d4 <sprintf@plt>[0m
   31988:	e1a00006 	mov	r0, r6
   3198c:	ebffa83c 	bl	1ba84 <_start@@Base+0x110b8>
   31990:	ebff637d 	bl	a78c <nvram_commit@plt>
   31994:	e5943e64 	ldr	r3, [r4, #3684]	; 0xe64
   31998:	e3530001 	cmp	r3, #1
   3199c:	0a0001dd 	beq	32118 <_start@@Base+0x2774c>
   319a0:	e59f0984 	ldr	r0, [pc, #2436]	; 3232c <_start@@Base+0x27960>
   319a4:	ebff625e 	bl	a324 <system@plt>
   319a8:	e59f0980 	ldr	r0, [pc, #2432]	; 32330 <_start@@Base+0x27964>
   319ac:	ebff624a 	bl	a2dc <file2str@plt>
   319b0:	e2504000 	subs	r4, r0, #0
   319b4:	0a000101 	beq	31dc0 <_start@@Base+0x273f4>
   319b8:	ebff63bb 	bl	a8ac <atoi@plt>
   319bc:	e1a05000 	mov	r5, r0
   319c0:	e1a00004 	mov	r0, r4
   319c4:	e28d4c05 	add	r4, sp, #1280	; 0x500
   319c8:	e2844008 	add	r4, r4, #8
   319cc:	ebff63fb 	bl	a9c0 <free@plt>
   319d0:	e59f195c 	ldr	r1, [pc, #2396]	; 32334 <_start@@Base+0x27968>
   319d4:	e1a02005 	mov	r2, r5
   319d8:	e1a00004 	mov	r0, r4
[31m   319dc:	ebff637c 	bl	a7d4 <sprintf@plt>[0m
   319e0:	e1a00004 	mov	r0, r4
   319e4:	ebff624e 	bl	a324 <system@plt>
--
   31b38:	e1a00005 	mov	r0, r5
   31b3c:	ebff6225 	bl	a3d8 <fflush@plt>
   31b40:	e59f08b4 	ldr	r0, [pc, #2228]	; 323fc <_start@@Base+0x27a30>
   31b44:	ebff62f2 	bl	a714 <nvram_get@plt>
   31b48:	e2503000 	subs	r3, r0, #0
   31b4c:	e3a00001 	mov	r0, #1
   31b50:	0a000002 	beq	31b60 <_start@@Base+0x27194>
   31b54:	e5d33000 	ldrb	r3, [r3]
   31b58:	e3530000 	cmp	r3, #0
   31b5c:	0a000002 	beq	31b6c <_start@@Base+0x271a0>
   31b60:	ebff61f8 	bl	a348 <sleep@plt>
   31b64:	e2544001 	subs	r4, r4, #1
   31b68:	1afffff4 	bne	31b40 <_start@@Base+0x27174>
   31b6c:	e28d4c05 	add	r4, sp, #1280	; 0x500
   31b70:	e1a02006 	mov	r2, r6
   31b74:	e2844008 	add	r4, r4, #8
   31b78:	e1a03007 	mov	r3, r7
   31b7c:	e59f17dc 	ldr	r1, [pc, #2012]	; 32360 <_start@@Base+0x27994>
   31b80:	e1a00004 	mov	r0, r4
   31b84:	e58d8000 	str	r8, [sp]
[31m   31b88:	ebff6311 	bl	a7d4 <sprintf@plt>[0m
   31b8c:	e1a01004 	mov	r1, r4
   31b90:	e59f0864 	ldr	r0, [pc, #2148]	; 323fc <_start@@Base+0x27a30>
--
   31dd8:	e59f1530 	ldr	r1, [pc, #1328]	; 32310 <_start@@Base+0x27944>
   31ddc:	ebff6270 	bl	a7a4 <strcmp@plt>
   31de0:	e2704001 	rsbs	r4, r0, #1
   31de4:	33a04000 	movcc	r4, #0
   31de8:	e59f0528 	ldr	r0, [pc, #1320]	; 32318 <_start@@Base+0x2794c>
   31dec:	ebff632b 	bl	aaa0 <_start@@Base+0xd4>
   31df0:	e59f15a0 	ldr	r1, [pc, #1440]	; 32398 <_start@@Base+0x279cc>
   31df4:	e1a07000 	mov	r7, r0
   31df8:	ebff6269 	bl	a7a4 <strcmp@plt>
   31dfc:	e3500000 	cmp	r0, #0
   31e00:	0a0000e5 	beq	3219c <_start@@Base+0x277d0>
   31e04:	e1a00007 	mov	r0, r7
   31e08:	e59f150c 	ldr	r1, [pc, #1292]	; 3231c <_start@@Base+0x27950>
   31e0c:	ebff6264 	bl	a7a4 <strcmp@plt>
   31e10:	e3500000 	cmp	r0, #0
   31e14:	1a000056 	bne	31f74 <_start@@Base+0x275a8>
   31e18:	e59f1604 	ldr	r1, [pc, #1540]	; 32424 <_start@@Base+0x27a58>
   31e1c:	e3a02002 	mov	r2, #2
   31e20:	e2860004 	add	r0, r6, #4
   31e24:	e59f4474 	ldr	r4, [pc, #1140]	; 322a0 <_start@@Base+0x278d4>
[31m   31e28:	ebff6269 	bl	a7d4 <sprintf@plt>[0m
   31e2c:	e1a03005 	mov	r3, r5
   31e30:	e3a02002 	mov	r2, #2
--
   31e40:	e28d8e57 	add	r8, sp, #1392	; 0x570
   31e44:	ebff627d 	bl	a840 <fwrite@plt>
   31e48:	e1a00005 	mov	r0, r5
   31e4c:	e288800c 	add	r8, r8, #12
   31e50:	ebff6160 	bl	a3d8 <fflush@plt>
   31e54:	e59f1614 	ldr	r1, [pc, #1556]	; 32470 <_start@@Base+0x27aa4>
   31e58:	e28dae56 	add	sl, sp, #1376	; 0x560
   31e5c:	e59f05c4 	ldr	r0, [pc, #1476]	; 32428 <_start@@Base+0x27a5c>
   31e60:	e28aa00c 	add	sl, sl, #12
   31e64:	ebff61be 	bl	a564 <nvram_set@plt>
   31e68:	e59f05bc 	ldr	r0, [pc, #1468]	; 3242c <_start@@Base+0x27a60>
   31e6c:	ebff6228 	bl	a714 <nvram_get@plt>
   31e70:	e3500000 	cmp	r0, #0
   31e74:	11a01000 	movne	r1, r0
   31e78:	01a01004 	moveq	r1, r4
   31e7c:	e59f05b4 	ldr	r0, [pc, #1460]	; 32438 <_start@@Base+0x27a6c>
   31e80:	ebff60be 	bl	a180 <strcpy@plt>
   31e84:	e59f158c 	ldr	r1, [pc, #1420]	; 32418 <_start@@Base+0x27a4c>
   31e88:	e3a02001 	mov	r2, #1
   31e8c:	e0860007 	add	r0, r6, r7
[31m   31e90:	ebff624f 	bl	a7d4 <sprintf@plt>[0m
   31e94:	e0805007 	add	r5, r0, r7
   31e98:	e59f1590 	ldr	r1, [pc, #1424]	; 32430 <_start@@Base+0x27a64>
   31e9c:	e3a02001 	mov	r2, #1
   31ea0:	e0860005 	add	r0, r6, r5
[31m   31ea4:	ebff624a 	bl	a7d4 <sprintf@plt>[0m
   31ea8:	e59f1584 	ldr	r1, [pc, #1412]	; 32434 <_start@@Base+0x27a68>
   31eac:	e0855000 	add	r5, r5, r0
   31eb0:	e59f2580 	ldr	r2, [pc, #1408]	; 32438 <_start@@Base+0x27a6c>
   31eb4:	e1a00008 	mov	r0, r8
[31m   31eb8:	ebff6245 	bl	a7d4 <sprintf@plt>[0m
   31ebc:	e1a0100a 	mov	r1, sl
   31ec0:	e3a02010 	mov	r2, #16
   31ec4:	e1a00008 	mov	r0, r8
   31ec8:	ebff6202 	bl	a6d8 <nvifname_to_osifname@plt>
   31ecc:	e59f1594 	ldr	r1, [pc, #1428]	; 32468 <_start@@Base+0x27a9c>
   31ed0:	e3a02002 	mov	r2, #2
   31ed4:	e0860005 	add	r0, r6, r5
[31m   31ed8:	ebff623d 	bl	a7d4 <sprintf@plt>[0m
   31edc:	e0855000 	add	r5, r5, r0
   31ee0:	e1a0200a 	mov	r2, sl
   31ee4:	e59f1550 	ldr	r1, [pc, #1360]	; 3243c <_start@@Base+0x27a70>
   31ee8:	e0860005 	add	r0, r6, r5
[31m   31eec:	ebff6238 	bl	a7d4 <sprintf@plt>[0m
   31ef0:	e0855000 	add	r5, r5, r0
   31ef4:	e59f04a0 	ldr	r0, [pc, #1184]	; 3239c <_start@@Base+0x279d0>
   31ef8:	ebff6205 	bl	a714 <nvram_get@plt>
   31efc:	e0863005 	add	r3, r6, r5
   31f00:	e3500000 	cmp	r0, #0
   31f04:	11a02000 	movne	r2, r0
   31f08:	01a02004 	moveq	r2, r4
   31f0c:	e59f148c 	ldr	r1, [pc, #1164]	; 323a0 <_start@@Base+0x279d4>
   31f10:	e1a00003 	mov	r0, r3
[31m   31f14:	ebff622e 	bl	a7d4 <sprintf@plt>[0m
   31f18:	e0805005 	add	r5, r0, r5
   31f1c:	e59f0480 	ldr	r0, [pc, #1152]	; 323a4 <_start@@Base+0x279d8>
   31f20:	ebff61fb 	bl	a714 <nvram_get@plt>
   31f24:	e0863005 	add	r3, r6, r5
   31f28:	e3500000 	cmp	r0, #0
   31f2c:	11a02000 	movne	r2, r0
   31f30:	01a02004 	moveq	r2, r4
   31f34:	e59f146c 	ldr	r1, [pc, #1132]	; 323a8 <_start@@Base+0x279dc>
   31f38:	e1a00003 	mov	r0, r3
[31m   31f3c:	ebff6224 	bl	a7d4 <sprintf@plt>[0m
   31f40:	e0805005 	add	r5, r0, r5
   31f44:	e59f0460 	ldr	r0, [pc, #1120]	; 323ac <_start@@Base+0x279e0>
   31f48:	ebff61f1 	bl	a714 <nvram_get@plt>
   31f4c:	e0865005 	add	r5, r6, r5
   31f50:	e3500000 	cmp	r0, #0
   31f54:	11a02000 	movne	r2, r0
   31f58:	e59f1450 	ldr	r1, [pc, #1104]	; 323b0 <_start@@Base+0x279e4>
   31f5c:	01a02004 	moveq	r2, r4
   31f60:	e1a00005 	mov	r0, r5
[31m   31f64:	ebff621a 	bl	a7d4 <sprintf@plt>[0m
   31f68:	e59f0444 	ldr	r0, [pc, #1092]	; 323b4 <_start@@Base+0x279e8>
   31f6c:	e1a01006 	mov	r1, r6
--
   31f88:	e59f1428 	ldr	r1, [pc, #1064]	; 323b8 <_start@@Base+0x279ec>
   31f8c:	ebff6204 	bl	a7a4 <strcmp@plt>
   31f90:	e3500000 	cmp	r0, #0
   31f94:	159f4478 	ldrne	r4, [pc, #1144]	; 32414 <_start@@Base+0x27a48>
   31f98:	03a03005 	moveq	r3, #5
   31f9c:	059f4470 	ldreq	r4, [pc, #1136]	; 32414 <_start@@Base+0x27a48>
   31fa0:	01a02003 	moveq	r2, r3
   31fa4:	15942e78 	ldrne	r2, [r4, #3704]	; 0xe78
   31fa8:	05843e78 	streq	r3, [r4, #3704]	; 0xe78
   31fac:	eafffe2c 	b	31864 <_start@@Base+0x26e98>
   31fb0:	e3570000 	cmp	r7, #0
   31fb4:	0affff62 	beq	31d44 <_start@@Base+0x27378>
   31fb8:	e5943e78 	ldr	r3, [r4, #3704]	; 0xe78
   31fbc:	e5847e38 	str	r7, [r4, #3640]	; 0xe38
   31fc0:	e2433004 	sub	r3, r3, #4
   31fc4:	e3530001 	cmp	r3, #1
   31fc8:	9a000048 	bls	320f0 <_start@@Base+0x27724>
   31fcc:	e2872001 	add	r2, r7, #1
   31fd0:	e0860008 	add	r0, r6, r8
   31fd4:	e59f13c4 	ldr	r1, [pc, #964]	; 323a0 <_start@@Base+0x279d4>
[31m   31fd8:	ebff61fd 	bl	a7d4 <sprintf@plt>[0m
   31fdc:	e28d1c05 	add	r1, sp, #1280	; 0x500
   31fe0:	e0808008 	add	r8, r0, r8
   31fe4:	e2811008 	add	r1, r1, #8
   31fe8:	e2870023 	add	r0, r7, #35	; 0x23
   31fec:	ebff61ef 	bl	a7b0 <ether_etoa@plt>
   31ff0:	e59f13b0 	ldr	r1, [pc, #944]	; 323a8 <_start@@Base+0x279dc>
   31ff4:	e1a02000 	mov	r2, r0
   31ff8:	e0860008 	add	r0, r6, r8
[31m   31ffc:	ebff61f4 	bl	a7d4 <sprintf@plt>[0m
   32000:	e0888000 	add	r8, r8, r0
   32004:	e59f13b0 	ldr	r1, [pc, #944]	; 323bc <_start@@Base+0x279f0>
   32008:	e0860008 	add	r0, r6, r8
   3200c:	e5d72035 	ldrb	r2, [r7, #53]	; 0x35
[31m   32010:	ebff61ef 	bl	a7d4 <sprintf@plt>[0m
   32014:	e0888000 	add	r8, r8, r0
   32018:	eafffe33 	b	318ec <_start@@Base+0x26f20>
--
   32090:	e3a00001 	mov	r0, #1
   32094:	e5834e14 	str	r4, [r3, #3604]	; 0xe14
   32098:	eafffd54 	b	315f0 <_start@@Base+0x26c24>
   3209c:	e59f0328 	ldr	r0, [pc, #808]	; 323cc <_start@@Base+0x27a00>
   320a0:	ebff627e 	bl	aaa0 <_start@@Base+0xd4>
   320a4:	e59f1324 	ldr	r1, [pc, #804]	; 323d0 <_start@@Base+0x27a04>
   320a8:	e1a0b000 	mov	fp, r0
   320ac:	ebff61bc 	bl	a7a4 <strcmp@plt>
   320b0:	e3500000 	cmp	r0, #0
   320b4:	058a9e64 	streq	r9, [sl, #3684]	; 0xe64
   320b8:	0a000005 	beq	320d4 <_start@@Base+0x27708>
   320bc:	e1a0000b 	mov	r0, fp
   320c0:	e59f130c 	ldr	r1, [pc, #780]	; 323d4 <_start@@Base+0x27a08>
   320c4:	ebff61b6 	bl	a7a4 <strcmp@plt>
   320c8:	e3500000 	cmp	r0, #0
   320cc:	159a9e64 	ldrne	r9, [sl, #3684]	; 0xe64
   320d0:	0a0001ae 	beq	32790 <_start@@Base+0x27dc4>
   320d4:	e0860008 	add	r0, r6, r8
   320d8:	e1a02009 	mov	r2, r9
   320dc:	e59f1340 	ldr	r1, [pc, #832]	; 32424 <_start@@Base+0x27a58>
[31m   320e0:	ebff61bb 	bl	a7d4 <sprintf@plt>[0m
   320e4:	e5949e78 	ldr	r9, [r4, #3704]	; 0xe78
   320e8:	e0888000 	add	r8, r8, r0
   320ec:	eafffdf3 	b	318c0 <_start@@Base+0x26ef4>
   320f0:	e5d7c036 	ldrb	ip, [r7, #54]	; 0x36
   320f4:	e0860008 	add	r0, r6, r8
   320f8:	e59f32d8 	ldr	r3, [pc, #728]	; 323d8 <_start@@Base+0x27a0c>
   320fc:	e59f22d8 	ldr	r2, [pc, #728]	; 323dc <_start@@Base+0x27a10>
   32100:	e35c0000 	cmp	ip, #0
   32104:	e59f12d4 	ldr	r1, [pc, #724]	; 323e0 <_start@@Base+0x27a14>
   32108:	11a02003 	movne	r2, r3
[31m   3210c:	ebff61b0 	bl	a7d4 <sprintf@plt>[0m
   32110:	e0888000 	add	r8, r8, r0
   32114:	eaffffac 	b	31fcc <_start@@Base+0x27600>
   32118:	e59f02c4 	ldr	r0, [pc, #708]	; 323e4 <_start@@Base+0x27a18>
   3211c:	ebff6080 	bl	a324 <system@plt>
   32120:	eafffe1e 	b	319a0 <_start@@Base+0x26fd4>
   32124:	e59f02bc 	ldr	r0, [pc, #700]	; 323e8 <_start@@Base+0x27a1c>
   32128:	ebff625c 	bl	aaa0 <_start@@Base+0xd4>
   3212c:	e2501000 	subs	r1, r0, #0
   32130:	0a000003 	beq	32144 <_start@@Base+0x27778>
   32134:	e1a00007 	mov	r0, r7
   32138:	ebff7db8 	bl	11820 <_start@@Base+0x6e54>
   3213c:	e3500000 	cmp	r0, #0
   32140:	1a00023d 	bne	32a3c <_start@@Base+0x28070>
   32144:	e0860008 	add	r0, r6, r8
   32148:	e59f129c 	ldr	r1, [pc, #668]	; 323ec <_start@@Base+0x27a20>
   3214c:	e1a02007 	mov	r2, r7
[31m   32150:	ebff619f 	bl	a7d4 <sprintf@plt>[0m
   32154:	e0808008 	add	r8, r0, r8
   32158:	e59f12c4 	ldr	r1, [pc, #708]	; 32424 <_start@@Base+0x27a58>
   3215c:	e0860008 	add	r0, r6, r8
   32160:	e3a02001 	mov	r2, #1
[31m   32164:	ebff619a 	bl	a7d4 <sprintf@plt>[0m
   32168:	e5949e78 	ldr	r9, [r4, #3704]	; 0xe78
   3216c:	e0888000 	add	r8, r8, r0
   32170:	eafffdd7 	b	318d4 <_start@@Base+0x26f08>
   32174:	e59f12b4 	ldr	r1, [pc, #692]	; 32430 <_start@@Base+0x27a64>
   32178:	e3a02002 	mov	r2, #2
   3217c:	e2860004 	add	r0, r6, #4
[31m   32180:	ebff6193 	bl	a7d4 <sprintf@plt>[0m
   32184:	e59f128c 	ldr	r1, [pc, #652]	; 32418 <_start@@Base+0x27a4c>
   32188:	e2800004 	add	r0, r0, #4
   3218c:	e3a02000 	mov	r2, #0
   32190:	e0860000 	add	r0, r6, r0
[31m   32194:	ebff618e 	bl	a7d4 <sprintf@plt>[0m
   32198:	eaffff75 	b	31f74 <_start@@Base+0x275a8>
   3219c:	e2860004 	add	r0, r6, #4
   321a0:	e59f127c 	ldr	r1, [pc, #636]	; 32424 <_start@@Base+0x27a58>
   321a4:	e3a02002 	mov	r2, #2
[31m   321a8:	ebff6189 	bl	a7d4 <sprintf@plt>[0m
   321ac:	e3540000 	cmp	r4, #0
   321b0:	e2804004 	add	r4, r0, #4
   321b4:	0a000003 	beq	321c8 <_start@@Base+0x277fc>
   321b8:	e59f3254 	ldr	r3, [pc, #596]	; 32414 <_start@@Base+0x27a48>
   321bc:	e5d33e7c 	ldrb	r3, [r3, #3708]	; 0xe7c
   321c0:	e3530000 	cmp	r3, #0
   321c4:	1a0001c3 	bne	328d8 <_start@@Base+0x27f0c>
   321c8:	e2845017 	add	r5, r4, #23
   321cc:	e0860004 	add	r0, r6, r4
   321d0:	e59f1218 	ldr	r1, [pc, #536]	; 323f0 <_start@@Base+0x27a24>
   321d4:	e3a02018 	mov	r2, #24
   321d8:	ebff6042 	bl	a2e8 <memcpy@plt>
   321dc:	e3a02003 	mov	r2, #3
   321e0:	e0860005 	add	r0, r6, r5
   321e4:	e59f122c 	ldr	r1, [pc, #556]	; 32418 <_start@@Base+0x27a4c>
   321e8:	e28d7e57 	add	r7, sp, #1392	; 0x570
[31m   321ec:	ebff6178 	bl	a7d4 <sprintf@plt>[0m
   321f0:	e59f1278 	ldr	r1, [pc, #632]	; 32470 <_start@@Base+0x27aa4>
   321f4:	e0855000 	add	r5, r5, r0
   321f8:	e59f0228 	ldr	r0, [pc, #552]	; 32428 <_start@@Base+0x27a5c>
   321fc:	e287700c 	add	r7, r7, #12
   32200:	ebff60d7 	bl	a564 <nvram_set@plt>
   32204:	e59f0220 	ldr	r0, [pc, #544]	; 3242c <_start@@Base+0x27a60>
   32208:	e28d4e56 	add	r4, sp, #1376	; 0x560
   3220c:	ebff6140 	bl	a714 <nvram_get@plt>
   32210:	e3500000 	cmp	r0, #0
   32214:	e59f1084 	ldr	r1, [pc, #132]	; 322a0 <_start@@Base+0x278d4>
   32218:	11a01000 	movne	r1, r0
   3221c:	e59f0214 	ldr	r0, [pc, #532]	; 32438 <_start@@Base+0x27a6c>
   32220:	ebff5fd6 	bl	a180 <strcpy@plt>
   32224:	e0860005 	add	r0, r6, r5
   32228:	e59f1200 	ldr	r1, [pc, #512]	; 32430 <_start@@Base+0x27a64>
   3222c:	e3a02001 	mov	r2, #1
   32230:	e284400c 	add	r4, r4, #12
[31m   32234:	ebff6166 	bl	a7d4 <sprintf@plt>[0m
   32238:	e59f11f4 	ldr	r1, [pc, #500]	; 32434 <_start@@Base+0x27a68>
   3223c:	e0805005 	add	r5, r0, r5
   32240:	e59f21f0 	ldr	r2, [pc, #496]	; 32438 <_start@@Base+0x27a6c>
   32244:	e1a00007 	mov	r0, r7
[31m   32248:	ebff6161 	bl	a7d4 <sprintf@plt>[0m
   3224c:	e1a01004 	mov	r1, r4
   32250:	e1a00007 	mov	r0, r7
   32254:	e3a02010 	mov	r2, #16
   32258:	ebff611e 	bl	a6d8 <nvifname_to_osifname@plt>
   3225c:	e0860005 	add	r0, r6, r5
   32260:	e59f1200 	ldr	r1, [pc, #512]	; 32468 <_start@@Base+0x27a9c>
   32264:	e3a02002 	mov	r2, #2
[31m   32268:	ebff6159 	bl	a7d4 <sprintf@plt>[0m
   3226c:	e0850000 	add	r0, r5, r0
   32270:	e59f11c4 	ldr	r1, [pc, #452]	; 3243c <_start@@Base+0x27a70>
   32274:	e0860000 	add	r0, r6, r0
   32278:	e1a02004 	mov	r2, r4
[31m   3227c:	ebff6154 	bl	a7d4 <sprintf@plt>[0m
   32280:	eaffff3b 	b	31f74 <_start@@Base+0x275a8>
   32284:	00046044 	andeq	r6, r4, r4, asr #32
--
   3256c:	ebff60b3 	bl	a840 <fwrite@plt>
   32570:	e1a00005 	mov	r0, r5
   32574:	ebff5f97 	bl	a3d8 <fflush@plt>
   32578:	e3a01001 	mov	r1, #1
   3257c:	e3a02005 	mov	r2, #5
   32580:	e1a03005 	mov	r3, r5
   32584:	e51f0180 	ldr	r0, [pc, #-384]	; 3240c <_start@@Base+0x27a40>
   32588:	ebff60ac 	bl	a840 <fwrite@plt>
   3258c:	e1a00005 	mov	r0, r5
   32590:	ebff5f90 	bl	a3d8 <fflush@plt>
   32594:	e1a00005 	mov	r0, r5
   32598:	e51f1190 	ldr	r1, [pc, #-400]	; 32410 <_start@@Base+0x27a44>
   3259c:	e51f2150 	ldr	r2, [pc, #-336]	; 32454 <_start@@Base+0x27a88>
   325a0:	eafffd9d 	b	31c1c <_start@@Base+0x27250>
   325a4:	e51f4198 	ldr	r4, [pc, #-408]	; 32414 <_start@@Base+0x27a48>
   325a8:	e3a03003 	mov	r3, #3
   325ac:	e1a02003 	mov	r2, r3
   325b0:	e51f11a0 	ldr	r1, [pc, #-416]	; 32418 <_start@@Base+0x27a4c>
   325b4:	e2860004 	add	r0, r6, #4
   325b8:	e5843e78 	str	r3, [r4, #3704]	; 0xe78
[31m   325bc:	ebff6084 	bl	a7d4 <sprintf@plt>[0m
   325c0:	e1a01006 	mov	r1, r6
   325c4:	e2802004 	add	r2, r0, #4
--
   325cc:	ebff78eb 	bl	10980 <_start@@Base+0x5fb4>
   325d0:	e3700001 	cmn	r0, #1
   325d4:	e1a08000 	mov	r8, r0
   325d8:	01a00000 	moveq	r0, r0
   325dc:	0afffc03 	beq	315f0 <_start@@Base+0x26c24>
   325e0:	e51f01cc 	ldr	r0, [pc, #-460]	; 3241c <_start@@Base+0x27a50>
   325e4:	ebff612d 	bl	aaa0 <_start@@Base+0xd4>
   325e8:	e2501000 	subs	r1, r0, #0
   325ec:	0a000016 	beq	3264c <_start@@Base+0x27c80>
   325f0:	e5d13000 	ldrb	r3, [r1]
   325f4:	e3530000 	cmp	r3, #0
   325f8:	1a000088 	bne	32820 <_start@@Base+0x27e54>
   325fc:	e51f31a0 	ldr	r3, [pc, #-416]	; 32464 <_start@@Base+0x27a98>
   32600:	e3a01002 	mov	r1, #2
   32604:	e1a02001 	mov	r2, r1
   32608:	e5841e64 	str	r1, [r4, #3684]	; 0xe64
   3260c:	e8930003 	ldm	r3, {r0, r1}
   32610:	e8870003 	stm	r7, {r0, r1}
   32614:	e0860008 	add	r0, r6, r8
   32618:	e51f11b8 	ldr	r1, [pc, #-440]	; 32468 <_start@@Base+0x27a9c>
[31m   3261c:	ebff606c 	bl	a7d4 <sprintf@plt>[0m
   32620:	e0888000 	add	r8, r8, r0
   32624:	e0860008 	add	r0, r6, r8
   32628:	e51f1210 	ldr	r1, [pc, #-528]	; 32420 <_start@@Base+0x27a54>
   3262c:	e1a02007 	mov	r2, r7
[31m   32630:	ebff6067 	bl	a7d4 <sprintf@plt>[0m
   32634:	e0808008 	add	r8, r0, r8
   32638:	e51f121c 	ldr	r1, [pc, #-540]	; 32424 <_start@@Base+0x27a58>
   3263c:	e0860008 	add	r0, r6, r8
   32640:	e5942e64 	ldr	r2, [r4, #3684]	; 0xe64
[31m   32644:	ebff6062 	bl	a7d4 <sprintf@plt>[0m
   32648:	e0888000 	add	r8, r8, r0
   3264c:	e51f11e4 	ldr	r1, [pc, #-484]	; 32470 <_start@@Base+0x27aa4>
   32650:	e28d5e57 	add	r5, sp, #1392	; 0x570
   32654:	e51f0234 	ldr	r0, [pc, #-564]	; 32428 <_start@@Base+0x27a5c>
   32658:	e285500c 	add	r5, r5, #12
   3265c:	ebff5fc0 	bl	a564 <nvram_set@plt>
   32660:	e51f023c 	ldr	r0, [pc, #-572]	; 3242c <_start@@Base+0x27a60>
   32664:	e28d4e56 	add	r4, sp, #1376	; 0x560
   32668:	ebff6029 	bl	a714 <nvram_get@plt>
   3266c:	e3500000 	cmp	r0, #0
   32670:	e51f1238 	ldr	r1, [pc, #-568]	; 32440 <_start@@Base+0x27a74>
   32674:	11a01000 	movne	r1, r0
   32678:	e51f0248 	ldr	r0, [pc, #-584]	; 32438 <_start@@Base+0x27a6c>
   3267c:	ebff5ebf 	bl	a180 <strcpy@plt>
   32680:	e51f1258 	ldr	r1, [pc, #-600]	; 32430 <_start@@Base+0x27a64>
   32684:	e3a02001 	mov	r2, #1
   32688:	e0860008 	add	r0, r6, r8
   3268c:	e284400c 	add	r4, r4, #12
[31m   32690:	ebff604f 	bl	a7d4 <sprintf@plt>[0m
   32694:	e51f1268 	ldr	r1, [pc, #-616]	; 32434 <_start@@Base+0x27a68>
   32698:	e1a07000 	mov	r7, r0
   3269c:	e51f226c 	ldr	r2, [pc, #-620]	; 32438 <_start@@Base+0x27a6c>
   326a0:	e1a00005 	mov	r0, r5
[31m   326a4:	ebff604a 	bl	a7d4 <sprintf@plt>[0m
   326a8:	e1a01004 	mov	r1, r4
   326ac:	e3a02010 	mov	r2, #16
--
   32760:	eafffba2 	b	315f0 <_start@@Base+0x26c24>
   32764:	e3a01001 	mov	r1, #1
   32768:	e3a02064 	mov	r2, #100	; 0x64
   3276c:	e1a03005 	mov	r3, r5
   32770:	e51f0318 	ldr	r0, [pc, #-792]	; 32460 <_start@@Base+0x27a94>
   32774:	ebff6031 	bl	a840 <fwrite@plt>
   32778:	e1a00005 	mov	r0, r5
   3277c:	ebff5f15 	bl	a3d8 <fflush@plt>
   32780:	e3e00000 	mvn	r0, #0
   32784:	eafffb99 	b	315f0 <_start@@Base+0x26c24>
   32788:	e2877e13 	add	r7, r7, #304	; 0x130
   3278c:	eafffe09 	b	31fb8 <_start@@Base+0x275ec>
   32790:	e51f3334 	ldr	r3, [pc, #-820]	; 32464 <_start@@Base+0x27a98>
   32794:	e3a01002 	mov	r1, #2
   32798:	e1a02001 	mov	r2, r1
   3279c:	e58a1e64 	str	r1, [sl, #3684]	; 0xe64
   327a0:	e8930003 	ldm	r3, {r0, r1}
   327a4:	e8870003 	stm	r7, {r0, r1}
   327a8:	e0860008 	add	r0, r6, r8
   327ac:	e51f134c 	ldr	r1, [pc, #-844]	; 32468 <_start@@Base+0x27a9c>
[31m   327b0:	ebff6007 	bl	a7d4 <sprintf@plt>[0m
   327b4:	e59a9e64 	ldr	r9, [sl, #3684]	; 0xe64
   327b8:	e0888000 	add	r8, r8, r0
--
   3287c:	e5ddc50a 	ldrb	ip, [sp, #1290]	; 0x50a
   32880:	e5dd050b 	ldrb	r0, [sp, #1291]	; 0x50b
   32884:	e5dd150c 	ldrb	r1, [sp, #1292]	; 0x50c
   32888:	e00e9003 	and	r9, lr, r3
   3288c:	e5dd250d 	ldrb	r2, [sp, #1293]	; 0x50d
   32890:	e00c9009 	and	r9, ip, r9
   32894:	e0009009 	and	r9, r0, r9
   32898:	e0019009 	and	r9, r1, r9
   3289c:	e0029009 	and	r9, r2, r9
   328a0:	e35900ff 	cmp	r9, #255	; 0xff
   328a4:	0a00006d 	beq	32a60 <_start@@Base+0x28094>
   328a8:	e18e3003 	orr	r3, lr, r3
   328ac:	e18cc003 	orr	ip, ip, r3
   328b0:	e180000c 	orr	r0, r0, ip
   328b4:	e1811000 	orr	r1, r1, r0
   328b8:	e1921001 	orrs	r1, r2, r1
   328bc:	0a000067 	beq	32a60 <_start@@Base+0x28094>
   328c0:	e0860008 	add	r0, r6, r8
   328c4:	e51f144c 	ldr	r1, [pc, #-1100]	; 32480 <_start@@Base+0x27ab4>
   328c8:	e1a0200a 	mov	r2, sl
[31m   328cc:	ebff5fc0 	bl	a7d4 <sprintf@plt>[0m
   328d0:	e0888000 	add	r8, r8, r0
   328d4:	eaffff52 	b	32624 <_start@@Base+0x27c58>
   328d8:	e0860004 	add	r0, r6, r4
   328dc:	e51f1464 	ldr	r1, [pc, #-1124]	; 32480 <_start@@Base+0x27ab4>
   328e0:	e51f2464 	ldr	r2, [pc, #-1124]	; 32484 <_start@@Base+0x27ab8>
[31m   328e4:	ebff5fba 	bl	a7d4 <sprintf@plt>[0m
   328e8:	e0844000 	add	r4, r4, r0
   328ec:	eafffe35 	b	321c8 <_start@@Base+0x277fc>
--
   331d0:	e58d53c0 	str	r5, [sp, #960]	; 0x3c0
   331d4:	e58d53c4 	str	r5, [sp, #964]	; 0x3c4
   331d8:	ebff5d4d 	bl	a714 <nvram_get@plt>
   331dc:	e1500005 	cmp	r0, r5
   331e0:	e59f1618 	ldr	r1, [pc, #1560]	; 33800 <_start@@Base+0x28e34>
   331e4:	11a01000 	movne	r1, r0
   331e8:	e28d0d0f 	add	r0, sp, #960	; 0x3c0
   331ec:	ebff5be3 	bl	a180 <strcpy@plt>
   331f0:	e2893008 	add	r3, r9, #8
   331f4:	e28d2d0f 	add	r2, sp, #960	; 0x3c0
   331f8:	e4835004 	str	r5, [r3], #4
   331fc:	e1a00009 	mov	r0, r9
   33200:	e4835004 	str	r5, [r3], #4
   33204:	e59f1684 	ldr	r1, [pc, #1668]	; 33890 <_start@@Base+0x28ec4>
   33208:	e4835004 	str	r5, [r3], #4
   3320c:	e4835004 	str	r5, [r3], #4
   33210:	e4835004 	str	r5, [r3], #4
   33214:	e5835000 	str	r5, [r3]
   33218:	e58d5390 	str	r5, [sp, #912]	; 0x390
   3321c:	e58d5394 	str	r5, [sp, #916]	; 0x394
[31m   33220:	ebff5d6b 	bl	a7d4 <sprintf@plt>[0m
   33224:	e28d0e39 	add	r0, sp, #912	; 0x390
   33228:	ebff5c3d 	bl	a324 <system@plt>
--
   33380:	e58d43c0 	str	r4, [sp, #960]	; 0x3c0
   33384:	e58d43c4 	str	r4, [sp, #964]	; 0x3c4
   33388:	ebff5ce1 	bl	a714 <nvram_get@plt>
   3338c:	e1500004 	cmp	r0, r4
   33390:	e59f1468 	ldr	r1, [pc, #1128]	; 33800 <_start@@Base+0x28e34>
   33394:	11a01000 	movne	r1, r0
   33398:	e28d0d0f 	add	r0, sp, #960	; 0x3c0
   3339c:	ebff5b77 	bl	a180 <strcpy@plt>
   333a0:	e2863008 	add	r3, r6, #8
   333a4:	e28d2d0f 	add	r2, sp, #960	; 0x3c0
   333a8:	e4834004 	str	r4, [r3], #4
   333ac:	e1a00006 	mov	r0, r6
   333b0:	e4834004 	str	r4, [r3], #4
   333b4:	e59f14d4 	ldr	r1, [pc, #1236]	; 33890 <_start@@Base+0x28ec4>
   333b8:	e4834004 	str	r4, [r3], #4
   333bc:	e4834004 	str	r4, [r3], #4
   333c0:	e4834004 	str	r4, [r3], #4
   333c4:	e5834000 	str	r4, [r3]
   333c8:	e58d4390 	str	r4, [sp, #912]	; 0x390
   333cc:	e58d4394 	str	r4, [sp, #916]	; 0x394
[31m   333d0:	ebff5cff 	bl	a7d4 <sprintf@plt>[0m
   333d4:	e28d0e39 	add	r0, sp, #912	; 0x390
   333d8:	ebff5bd1 	bl	a324 <system@plt>
--
   33640:	e7c24003 	strb	r4, [r2, r3]
   33644:	e59b1024 	ldr	r1, [fp, #36]	; 0x24
   33648:	ebff5ba4 	bl	a4e0 <fprintf@plt>
   3364c:	e59d001c 	ldr	r0, [sp, #28]
   33650:	ebff5b60 	bl	a3d8 <fflush@plt>
   33654:	e59b0024 	ldr	r0, [fp, #36]	; 0x24
   33658:	ebff5cd8 	bl	a9c0 <free@plt>
   3365c:	e58b4024 	str	r4, [fp, #36]	; 0x24
   33660:	eaffff1f 	b	332e4 <_start@@Base+0x28918>
   33664:	e28d6fa5 	add	r6, sp, #660	; 0x294
   33668:	e3a020fa 	mov	r2, #250	; 0xfa
   3366c:	e1a00006 	mov	r0, r6
   33670:	ebff5c30 	bl	a738 <memset@plt>
   33674:	e59f0274 	ldr	r0, [pc, #628]	; 338f0 <_start@@Base+0x28f24>
   33678:	ebff5c25 	bl	a714 <nvram_get@plt>
   3367c:	e3500000 	cmp	r0, #0
   33680:	e59f2178 	ldr	r2, [pc, #376]	; 33800 <_start@@Base+0x28e34>
   33684:	e59f1268 	ldr	r1, [pc, #616]	; 338f4 <_start@@Base+0x28f28>
   33688:	11a02000 	movne	r2, r0
   3368c:	e1a00006 	mov	r0, r6
[31m   33690:	ebff5c4f 	bl	a7d4 <sprintf@plt>[0m
   33694:	e1a01006 	mov	r1, r6
   33698:	e59f0258 	ldr	r0, [pc, #600]	; 338f8 <_start@@Base+0x28f2c>
--
   342e4:	ebff580e 	bl	a324 <system@plt>
   342e8:	ebff5927 	bl	a78c <nvram_commit@plt>
   342ec:	e3a02010 	mov	r2, #16
   342f0:	e3a01000 	mov	r1, #0
   342f4:	e1a00006 	mov	r0, r6
   342f8:	ebff590e 	bl	a738 <memset@plt>
   342fc:	e59f00d8 	ldr	r0, [pc, #216]	; 343dc <_start@@Base+0x29a10>
   34300:	ebff5903 	bl	a714 <nvram_get@plt>
   34304:	e3500000 	cmp	r0, #0
   34308:	e59f1084 	ldr	r1, [pc, #132]	; 34394 <_start@@Base+0x299c8>
   3430c:	11a01000 	movne	r1, r0
   34310:	e1a00006 	mov	r0, r6
   34314:	ebff5799 	bl	a180 <strcpy@plt>
   34318:	e1a00005 	mov	r0, r5
   3431c:	e3a01000 	mov	r1, #0
   34320:	e3a02020 	mov	r2, #32
   34324:	ebff5903 	bl	a738 <memset@plt>
   34328:	e1a02006 	mov	r2, r6
   3432c:	e59f10ac 	ldr	r1, [pc, #172]	; 343e0 <_start@@Base+0x29a14>
   34330:	e1a00005 	mov	r0, r5
[31m   34334:	ebff5926 	bl	a7d4 <sprintf@plt>[0m
   34338:	e1a00005 	mov	r0, r5
   3433c:	ebff57f8 	bl	a324 <system@plt>
--
   3483c:	e3500000 	cmp	r0, #0
   34840:	01a00003 	moveq	r0, r3
   34844:	ebfff1df 	bl	30fc8 <_start@@Base+0x265fc>
   34848:	e3500000 	cmp	r0, #0
   3484c:	0a000012 	beq	3489c <_start@@Base+0x29ed0>
   34850:	e59f0094 	ldr	r0, [pc, #148]	; 348ec <_start@@Base+0x29f20>
   34854:	ebff5891 	bl	aaa0 <_start@@Base+0xd4>
   34858:	e2506000 	subs	r6, r0, #0
   3485c:	0a00000d 	beq	34898 <_start@@Base+0x29ecc>
   34860:	e28d5004 	add	r5, sp, #4
   34864:	e1a01006 	mov	r1, r6
   34868:	e59f007c 	ldr	r0, [pc, #124]	; 348ec <_start@@Base+0x29f20>
   3486c:	ebff573c 	bl	a564 <nvram_set@plt>
   34870:	e1a01007 	mov	r1, r7
   34874:	e3a02080 	mov	r2, #128	; 0x80
   34878:	e1a00005 	mov	r0, r5
   3487c:	ebff57ad 	bl	a738 <memset@plt>
   34880:	e1a00005 	mov	r0, r5
   34884:	e59f1064 	ldr	r1, [pc, #100]	; 348f0 <_start@@Base+0x29f24>
   34888:	e1a02006 	mov	r2, r6
[31m   3488c:	ebff57d0 	bl	a7d4 <sprintf@plt>[0m
   34890:	e1a00005 	mov	r0, r5
   34894:	ebff56a2 	bl	a324 <system@plt>
--
   35074:	e5837000 	str	r7, [r3]
   35078:	e59f0a78 	ldr	r0, [pc, #2680]	; 35af8 <_start@@Base+0x2b12c>
   3507c:	ebff55a4 	bl	a714 <nvram_get@plt>
   35080:	e1500007 	cmp	r0, r7
   35084:	e59f1a40 	ldr	r1, [pc, #2624]	; 35acc <_start@@Base+0x2b100>
   35088:	11a01000 	movne	r1, r0
   3508c:	e1a00005 	mov	r0, r5
   35090:	ebff543a 	bl	a180 <strcpy@plt>
   35094:	e28a3008 	add	r3, sl, #8
   35098:	e59f1a5c 	ldr	r1, [pc, #2652]	; 35afc <_start@@Base+0x2b130>
   3509c:	e4837004 	str	r7, [r3], #4
   350a0:	e1a02005 	mov	r2, r5
   350a4:	e4837004 	str	r7, [r3], #4
   350a8:	e1a0000a 	mov	r0, sl
   350ac:	e4837004 	str	r7, [r3], #4
   350b0:	e5887018 	str	r7, [r8, #24]
   350b4:	e4837004 	str	r7, [r3], #4
   350b8:	e588701c 	str	r7, [r8, #28]
   350bc:	e4837004 	str	r7, [r3], #4
   350c0:	e5837000 	str	r7, [r3]
[31m   350c4:	ebff55c2 	bl	a7d4 <sprintf@plt>[0m
   350c8:	e1a0000a 	mov	r0, sl
   350cc:	ebff5494 	bl	a324 <system@plt>
--
   35e38:	e59d200c 	ldr	r2, [sp, #12]
   35e3c:	e89d100a 	ldm	sp, {r1, r3, ip}
   35e40:	e1a0b002 	mov	fp, r2
   35e44:	e58d5010 	str	r5, [sp, #16]
   35e48:	e58d4014 	str	r4, [sp, #20]
   35e4c:	e1a0400c 	mov	r4, ip
   35e50:	e58d6018 	str	r6, [sp, #24]
   35e54:	e1a05001 	mov	r5, r1
   35e58:	e1a06003 	mov	r6, r3
   35e5c:	e1a0200a 	mov	r2, sl
   35e60:	e59f1634 	ldr	r1, [pc, #1588]	; 3649c <_start@@Base+0x2bad0>
   35e64:	e1a00009 	mov	r0, r9
   35e68:	e58b7000 	str	r7, [fp]
   35e6c:	e5847000 	str	r7, [r4]
   35e70:	e5847004 	str	r7, [r4, #4]
   35e74:	e5867000 	str	r7, [r6]
   35e78:	e5857000 	str	r7, [r5]
   35e7c:	e5857004 	str	r7, [r5, #4]
   35e80:	e5897000 	str	r7, [r9]
   35e84:	e58d7174 	str	r7, [sp, #372]	; 0x174
[31m   35e88:	ebff5251 	bl	a7d4 <sprintf@plt>[0m
   35e8c:	e1a0200a 	mov	r2, sl
   35e90:	e59f1608 	ldr	r1, [pc, #1544]	; 364a0 <_start@@Base+0x2bad4>
   35e94:	e28d0f5d 	add	r0, sp, #372	; 0x174
[31m   35e98:	ebff524d 	bl	a7d4 <sprintf@plt>[0m
   35e9c:	e1a0200a 	mov	r2, sl
   35ea0:	e59f15fc 	ldr	r1, [pc, #1532]	; 364a4 <_start@@Base+0x2bad8>
   35ea4:	e28d0f45 	add	r0, sp, #276	; 0x114
   35ea8:	e28aa001 	add	sl, sl, #1
[31m   35eac:	ebff5248 	bl	a7d4 <sprintf@plt>[0m
   35eb0:	e1a00009 	mov	r0, r9
   35eb4:	ebff5225 	bl	a750 <nvram_unset@plt>
--
   3614c:	e59d5044 	ldr	r5, [sp, #68]	; 0x44
   36150:	e59d4048 	ldr	r4, [sp, #72]	; 0x48
   36154:	e59d604c 	ldr	r6, [sp, #76]	; 0x4c
   36158:	e3a01000 	mov	r1, #0
   3615c:	e1a00008 	mov	r0, r8
   36160:	e3a02020 	mov	r2, #32
   36164:	e1a07001 	mov	r7, r1
   36168:	ebff5172 	bl	a738 <memset@plt>
   3616c:	e28dcf72 	add	ip, sp, #456	; 0x1c8
   36170:	e7dc3007 	ldrb	r3, [ip, r7]
   36174:	e3530030 	cmp	r3, #48	; 0x30
   36178:	0a0000b4 	beq	36450 <_start@@Base+0x2ba84>
   3617c:	e2877001 	add	r7, r7, #1
   36180:	e3570005 	cmp	r7, #5
   36184:	0a000001 	beq	36190 <_start@@Base+0x2b7c4>
   36188:	e3570004 	cmp	r7, #4
   3618c:	1afffff6 	bne	3616c <_start@@Base+0x2b7a0>
   36190:	e1a02008 	mov	r2, r8
   36194:	e59f1324 	ldr	r1, [pc, #804]	; 364c0 <_start@@Base+0x2baf4>
   36198:	e1a00008 	mov	r0, r8
[31m   3619c:	ebff518c 	bl	a7d4 <sprintf@plt>[0m
   361a0:	e2881001 	add	r1, r8, #1
   361a4:	e59f0318 	ldr	r0, [pc, #792]	; 364c4 <_start@@Base+0x2baf8>
   361a8:	ebff50ed 	bl	a564 <nvram_set@plt>
   361ac:	e59de018 	ldr	lr, [sp, #24]
   361b0:	e35e0002 	cmp	lr, #2
   361b4:	13a01035 	movne	r1, #53	; 0x35
   361b8:	128d2c01 	addne	r2, sp, #256	; 0x100
   361bc:	11c215b4 	strhne	r1, [r2, #84]	; 0x54
   361c0:	0a0000a8 	beq	36468 <_start@@Base+0x2ba9c>
   361c4:	e28d7f6d 	add	r7, sp, #436	; 0x1b4
   361c8:	e1a01008 	mov	r1, r8
   361cc:	e59f02f4 	ldr	r0, [pc, #756]	; 364c8 <_start@@Base+0x2bafc>
   361d0:	ebff50e3 	bl	a564 <nvram_set@plt>
   361d4:	e3a01000 	mov	r1, #0
   361d8:	e3a0200c 	mov	r2, #12
   361dc:	e1a00007 	mov	r0, r7
   361e0:	ebff5154 	bl	a738 <memset@plt>
   361e4:	e59d2018 	ldr	r2, [sp, #24]
   361e8:	e1a00007 	mov	r0, r7
   361ec:	e59f12d8 	ldr	r1, [pc, #728]	; 364cc <_start@@Base+0x2bb00>
[31m   361f0:	ebff5177 	bl	a7d4 <sprintf@plt>[0m
   361f4:	e1a01007 	mov	r1, r7
   361f8:	e59f02d0 	ldr	r0, [pc, #720]	; 364d0 <_start@@Base+0x2bb04>
--
   36244:	ebff5036 	bl	a324 <system@plt>
   36248:	e1a00006 	mov	r0, r6
   3624c:	e1a01005 	mov	r1, r5
   36250:	ebff5d6c 	bl	d808 <_start@@Base+0x2e3c>
   36254:	eafffed8 	b	35dbc <_start@@Base+0x2b3f0>
   36258:	e1a00006 	mov	r0, r6
   3625c:	e59f1288 	ldr	r1, [pc, #648]	; 364ec <_start@@Base+0x2bb20>
   36260:	ebff5d68 	bl	d808 <_start@@Base+0x2e3c>
   36264:	eafffed4 	b	35dbc <_start@@Base+0x2b3f0>
   36268:	e1a01005 	mov	r1, r5
   3626c:	e59f027c 	ldr	r0, [pc, #636]	; 364f0 <_start@@Base+0x2bb24>
   36270:	ebff4fd4 	bl	a1c8 <printf@plt>
   36274:	e1a00005 	mov	r0, r5
   36278:	e59f126c 	ldr	r1, [pc, #620]	; 364ec <_start@@Base+0x2bb20>
   3627c:	e3a02002 	mov	r2, #2
   36280:	ebff5018 	bl	a2e8 <memcpy@plt>
   36284:	eafffe95 	b	35ce0 <_start@@Base+0x2b314>
   36288:	e59f1264 	ldr	r1, [pc, #612]	; 364f4 <_start@@Base+0x2bb28>
   3628c:	e1a02008 	mov	r2, r8
   36290:	e1a00008 	mov	r0, r8
[31m   36294:	ebff514e 	bl	a7d4 <sprintf@plt>[0m
   36298:	e2881001 	add	r1, r8, #1
   3629c:	e1a0000b 	mov	r0, fp
--
   362b4:	e28a3001 	add	r3, sl, #1
   362b8:	e59de010 	ldr	lr, [sp, #16]
   362bc:	e28c2001 	add	r2, ip, #1
   362c0:	e08ee003 	add	lr, lr, r3
   362c4:	e082200a 	add	r2, r2, sl
   362c8:	e58de010 	str	lr, [sp, #16]
   362cc:	e58d2014 	str	r2, [sp, #20]
   362d0:	eaffff99 	b	3613c <_start@@Base+0x2b770>
   362d4:	e28dbf69 	add	fp, sp, #420	; 0x1a4
   362d8:	e3a01000 	mov	r1, #0
   362dc:	e3a02010 	mov	r2, #16
   362e0:	e1a0000b 	mov	r0, fp
   362e4:	ebff5113 	bl	a738 <memset@plt>
   362e8:	e3a01000 	mov	r1, #0
   362ec:	e3a02010 	mov	r2, #16
   362f0:	e28d0f65 	add	r0, sp, #404	; 0x194
   362f4:	ebff510f 	bl	a738 <memset@plt>
   362f8:	e59f11fc 	ldr	r1, [pc, #508]	; 364fc <_start@@Base+0x2bb30>
   362fc:	e1a02009 	mov	r2, r9
   36300:	e1a0000b 	mov	r0, fp
[31m   36304:	ebff5132 	bl	a7d4 <sprintf@plt>[0m
   36308:	e28d0f65 	add	r0, sp, #404	; 0x194
   3630c:	e59f11ec 	ldr	r1, [pc, #492]	; 36500 <_start@@Base+0x2bb34>
   36310:	e1a02009 	mov	r2, r9
[31m   36314:	ebff512e 	bl	a7d4 <sprintf@plt>[0m
   36318:	e59d3014 	ldr	r3, [sp, #20]
   3631c:	e3530000 	cmp	r3, #0
--
   36378:	ebff511b 	bl	a7ec <strcspn@plt>
   3637c:	e1a07000 	mov	r7, r0
   36380:	e1a01004 	mov	r1, r4
   36384:	e1a02007 	mov	r2, r7
   36388:	e1a00006 	mov	r0, r6
   3638c:	ebff509b 	bl	a600 <strncpy@plt>
   36390:	e3570000 	cmp	r7, #0
   36394:	e59f111c 	ldr	r1, [pc, #284]	; 364b8 <_start@@Base+0x2baec>
   36398:	e2873001 	add	r3, r7, #1
   3639c:	e1a00006 	mov	r0, r6
   363a0:	10844003 	addne	r4, r4, r3
   363a4:	ebff50fe 	bl	a7a4 <strcmp@plt>
   363a8:	e3500000 	cmp	r0, #0
   363ac:	e59f1150 	ldr	r1, [pc, #336]	; 36504 <_start@@Base+0x2bb38>
   363b0:	e1a00006 	mov	r0, r6
   363b4:	1affffe3 	bne	36348 <_start@@Base+0x2b97c>
   363b8:	e1a03005 	mov	r3, r5
   363bc:	e1a00008 	mov	r0, r8
   363c0:	e59f1140 	ldr	r1, [pc, #320]	; 36508 <_start@@Base+0x2bb3c>
   363c4:	e1a02008 	mov	r2, r8
[31m   363c8:	ebff5101 	bl	a7d4 <sprintf@plt>[0m
   363cc:	e3a03031 	mov	r3, #49	; 0x31
   363d0:	e28dcf72 	add	ip, sp, #456	; 0x1c8
   363d4:	e7cc3005 	strb	r3, [ip, r5]
   363d8:	eaffffdd 	b	36354 <_start@@Base+0x2b988>
   363dc:	e59f1128 	ldr	r1, [pc, #296]	; 3650c <_start@@Base+0x2bb40>
   363e0:	e1a03005 	mov	r3, r5
   363e4:	e1a00008 	mov	r0, r8
   363e8:	e1a02008 	mov	r2, r8
[31m   363ec:	ebff50f8 	bl	a7d4 <sprintf@plt>[0m
   363f0:	e3a0e031 	mov	lr, #49	; 0x31
   363f4:	e28d1f72 	add	r1, sp, #456	; 0x1c8
   363f8:	e7c1e005 	strb	lr, [r1, r5]
   363fc:	eaffffd4 	b	36354 <_start@@Base+0x2b988>
   36400:	e1a0000a 	mov	r0, sl
   36404:	e59f1104 	ldr	r1, [pc, #260]	; 36510 <_start@@Base+0x2bb44>
   36408:	ebff5091 	bl	a654 <strtok@plt>
   3640c:	e1a07000 	mov	r7, r0
   36410:	e3a01000 	mov	r1, #0
   36414:	e3a02020 	mov	r2, #32
   36418:	e28d0f45 	add	r0, sp, #276	; 0x114
   3641c:	ebff50c5 	bl	a738 <memset@plt>
   36420:	e1a02007 	mov	r2, r7
   36424:	e59f10e8 	ldr	r1, [pc, #232]	; 36514 <_start@@Base+0x2bb48>
   36428:	e28d0f45 	add	r0, sp, #276	; 0x114
[31m   3642c:	ebff50e8 	bl	a7d4 <sprintf@plt>[0m
   36430:	e28d0f45 	add	r0, sp, #276	; 0x114
   36434:	ebff4fba 	bl	a324 <system@plt>
   36438:	e3a00000 	mov	r0, #0
   3643c:	e59f10cc 	ldr	r1, [pc, #204]	; 36510 <_start@@Base+0x2bb44>
   36440:	ebff5083 	bl	a654 <strtok@plt>
   36444:	e2507000 	subs	r7, r0, #0
   36448:	1afffff0 	bne	36410 <_start@@Base+0x2ba44>
   3644c:	eafffeb5 	b	35f28 <_start@@Base+0x2b55c>
   36450:	e1a03007 	mov	r3, r7
   36454:	e1a00008 	mov	r0, r8
   36458:	e59f10ac 	ldr	r1, [pc, #172]	; 3650c <_start@@Base+0x2bb40>
   3645c:	e1a02008 	mov	r2, r8
[31m   36460:	ebff50db 	bl	a7d4 <sprintf@plt>[0m
   36464:	eaffff44 	b	3617c <_start@@Base+0x2b7b0>
   36468:	e1a00008 	mov	r0, r8
   3646c:	e59f10a4 	ldr	r1, [pc, #164]	; 36518 <_start@@Base+0x2bb4c>
   36470:	e3a02004 	mov	r2, #4
[31m   36474:	ebff50d6 	bl	a7d4 <sprintf@plt>[0m
   36478:	eaffff51 	b	361c4 <_start@@Base+0x2b7f8>
   3647c:	00055a68 	andeq	r5, r5, r8, ror #20
--
   3805c:	e5843000 	str	r3, [r4]
   38060:	e28dd06c 	add	sp, sp, #108	; 0x6c
   38064:	e8bd8ff0 	pop	{r4, r5, r6, r7, r8, r9, sl, fp, pc}
   38068:	e1a00009 	mov	r0, r9
   3806c:	e59f1260 	ldr	r1, [pc, #608]	; 382d4 <_start@@Base+0x2d908>
   38070:	ebff49cb 	bl	a7a4 <strcmp@plt>
   38074:	e3500000 	cmp	r0, #0
   38078:	0a000006 	beq	38098 <_start@@Base+0x2d6cc>
   3807c:	e3570000 	cmp	r7, #0
   38080:	0afffff1 	beq	3804c <_start@@Base+0x2d680>
   38084:	e1a00007 	mov	r0, r7
   38088:	e59f123c 	ldr	r1, [pc, #572]	; 382cc <_start@@Base+0x2d900>
   3808c:	ebff49c4 	bl	a7a4 <strcmp@plt>
   38090:	e3500000 	cmp	r0, #0
   38094:	1affffec 	bne	3804c <_start@@Base+0x2d680>
   38098:	e5940024 	ldr	r0, [r4, #36]	; 0x24
   3809c:	e1a02007 	mov	r2, r7
   380a0:	e5943028 	ldr	r3, [r4, #40]	; 0x28
   380a4:	e59f122c 	ldr	r1, [pc, #556]	; 382d8 <_start@@Base+0x2d90c>
   380a8:	e0800003 	add	r0, r0, r3
[31m   380ac:	ebff49c8 	bl	a7d4 <sprintf@plt>[0m
   380b0:	e5943028 	ldr	r3, [r4, #40]	; 0x28
   380b4:	e0803003 	add	r3, r0, r3
--
   3815c:	e28d0010 	add	r0, sp, #16
   38160:	ebff496b 	bl	a714 <nvram_get@plt>
   38164:	e3500000 	cmp	r0, #0
   38168:	01a00007 	moveq	r0, r7
   3816c:	e5d03000 	ldrb	r3, [r0]
   38170:	e3530000 	cmp	r3, #0
   38174:	1affffac 	bne	3802c <_start@@Base+0x2d660>
   38178:	e5943028 	ldr	r3, [r4, #40]	; 0x28
   3817c:	e1a00009 	mov	r0, r9
   38180:	e594a024 	ldr	sl, [r4, #36]	; 0x24
   38184:	e5969004 	ldr	r9, [r6, #4]
   38188:	e59f5128 	ldr	r5, [pc, #296]	; 382b8 <_start@@Base+0x2d8ec>
   3818c:	e08aa003 	add	sl, sl, r3
   38190:	ebff495f 	bl	a714 <nvram_get@plt>
   38194:	e3500000 	cmp	r0, #0
   38198:	e59f1148 	ldr	r1, [pc, #328]	; 382e8 <_start@@Base+0x2d91c>
   3819c:	11a03000 	movne	r3, r0
   381a0:	01a03007 	moveq	r3, r7
   381a4:	e1a02009 	mov	r2, r9
   381a8:	e1a0000a 	mov	r0, sl
[31m   381ac:	ebff4988 	bl	a7d4 <sprintf@plt>[0m
   381b0:	e5943028 	ldr	r3, [r4, #40]	; 0x28
   381b4:	e0803003 	add	r3, r0, r3
   381b8:	e1a00008 	mov	r0, r8
   381bc:	e5843028 	str	r3, [r4, #40]	; 0x28
   381c0:	ebff4953 	bl	a714 <nvram_get@plt>
   381c4:	e3500000 	cmp	r0, #0
   381c8:	0affffa4 	beq	38060 <_start@@Base+0x2d694>
   381cc:	e59f10f4 	ldr	r1, [pc, #244]	; 382c8 <_start@@Base+0x2d8fc>
   381d0:	ebff4973 	bl	a7a4 <strcmp@plt>
   381d4:	e3500000 	cmp	r0, #0
   381d8:	1affffa0 	bne	38060 <_start@@Base+0x2d694>
   381dc:	e5953028 	ldr	r3, [r5, #40]	; 0x28
   381e0:	e5950024 	ldr	r0, [r5, #36]	; 0x24
   381e4:	e59f1100 	ldr	r1, [pc, #256]	; 382ec <_start@@Base+0x2d920>
   381e8:	e5962004 	ldr	r2, [r6, #4]
   381ec:	e0800003 	add	r0, r0, r3
[31m   381f0:	ebff4977 	bl	a7d4 <sprintf@plt>[0m
   381f4:	e5953028 	ldr	r3, [r5, #40]	; 0x28
   381f8:	e59f10f0 	ldr	r1, [pc, #240]	; 382f0 <_start@@Base+0x2d924>
--
   384e0:	e3520000 	cmp	r2, #0
   384e4:	0a0000c6 	beq	38804 <_start@@Base+0x2de38>
   384e8:	e59fb388 	ldr	fp, [pc, #904]	; 38878 <_start@@Base+0x2deac>
   384ec:	e3a03030 	mov	r3, #48	; 0x30
   384f0:	e5d92000 	ldrb	r2, [r9]
   384f4:	e58db01c 	str	fp, [sp, #28]
   384f8:	e307c920 	movw	ip, #31008	; 0x7920
   384fc:	e3520000 	cmp	r2, #0
   38500:	e340c004 	movt	ip, #4
   38504:	01a0900c 	moveq	r9, ip
   38508:	e3530000 	cmp	r3, #0
   3850c:	0a000073 	beq	386e0 <_start@@Base+0x2dd14>
   38510:	e5db3000 	ldrb	r3, [fp]
   38514:	e3530000 	cmp	r3, #0
   38518:	1a000074 	bne	386f0 <_start@@Base+0x2dd24>
   3851c:	e5980024 	ldr	r0, [r8, #36]	; 0x24
   38520:	e5983028 	ldr	r3, [r8, #40]	; 0x28
   38524:	e59f1350 	ldr	r1, [pc, #848]	; 3887c <_start@@Base+0x2deb0>
   38528:	e0800003 	add	r0, r0, r3
   3852c:	e5972004 	ldr	r2, [r7, #4]
[31m   38530:	ebff48a7 	bl	a7d4 <sprintf@plt>[0m
   38534:	e5983028 	ldr	r3, [r8, #40]	; 0x28
   38538:	e0803003 	add	r3, r0, r3
--
   38c20:	e28d00b0 	add	r0, sp, #176	; 0xb0
   38c24:	e1a01004 	mov	r1, r4
   38c28:	ebff464d 	bl	a564 <nvram_set@plt>
   38c2c:	e3a03000 	mov	r3, #0
   38c30:	e5863000 	str	r3, [r6]
   38c34:	eaffffe5 	b	38bd0 <_start@@Base+0x2e204>
   38c38:	e28d009c 	add	r0, sp, #156	; 0x9c
   38c3c:	ebff46b4 	bl	a714 <nvram_get@plt>
   38c40:	e3500000 	cmp	r0, #0
   38c44:	0affffdb 	beq	38bb8 <_start@@Base+0x2e1ec>
   38c48:	e59f10b8 	ldr	r1, [pc, #184]	; 38d08 <_start@@Base+0x2e33c>
   38c4c:	ebff46d4 	bl	a7a4 <strcmp@plt>
   38c50:	e3500000 	cmp	r0, #0
   38c54:	1affffd7 	bne	38bb8 <_start@@Base+0x2e1ec>
   38c58:	e5963028 	ldr	r3, [r6, #40]	; 0x28
   38c5c:	e5960024 	ldr	r0, [r6, #36]	; 0x24
   38c60:	e59d5024 	ldr	r5, [sp, #36]	; 0x24
   38c64:	e59f10a0 	ldr	r1, [pc, #160]	; 38d0c <_start@@Base+0x2e340>
   38c68:	e0800003 	add	r0, r0, r3
   38c6c:	e5952004 	ldr	r2, [r5, #4]
[31m   38c70:	ebff46d7 	bl	a7d4 <sprintf@plt>[0m
   38c74:	e5963028 	ldr	r3, [r6, #40]	; 0x28
   38c78:	e0803003 	add	r3, r0, r3
   38c7c:	e5863028 	str	r3, [r6, #40]	; 0x28
   38c80:	eaffffd2 	b	38bd0 <_start@@Base+0x2e204>
   38c84:	e5962028 	ldr	r2, [r6, #40]	; 0x28
   38c88:	e1a03005 	mov	r3, r5
   38c8c:	e5960024 	ldr	r0, [r6, #36]	; 0x24
   38c90:	e59dc05c 	ldr	ip, [sp, #92]	; 0x5c
   38c94:	e59f1074 	ldr	r1, [pc, #116]	; 38d10 <_start@@Base+0x2e344>
   38c98:	e0800002 	add	r0, r0, r2
   38c9c:	e59d2040 	ldr	r2, [sp, #64]	; 0x40
   38ca0:	e58d4004 	str	r4, [sp, #4]
   38ca4:	e58dc000 	str	ip, [sp]
[31m   38ca8:	ebff46c9 	bl	a7d4 <sprintf@plt>[0m
   38cac:	e5963028 	ldr	r3, [r6, #40]	; 0x28
   38cb0:	e0803003 	add	r3, r0, r3
--
   39168:	eaffff7d 	b	38f64 <_start@@Base+0x2e598>
   3916c:	e1a01008 	mov	r1, r8
   39170:	ebff455e 	bl	a6f0 <inet_aton@plt>
   39174:	e59d35dc 	ldr	r3, [sp, #1500]	; 0x5dc
   39178:	e59d25d8 	ldr	r2, [sp, #1496]	; 0x5d8
   3917c:	e1c33002 	bic	r3, r3, r2
   39180:	e1833005 	orr	r3, r3, r5
   39184:	e1a00003 	mov	r0, r3
   39188:	e58d35dc 	str	r3, [sp, #1500]	; 0x5dc
   3918c:	ebff4578 	bl	a774 <inet_ntoa@plt>
   39190:	e1a01000 	mov	r1, r0
   39194:	e1a00007 	mov	r0, r7
   39198:	ebff44f1 	bl	a564 <nvram_set@plt>
   3919c:	eaffff9d 	b	39018 <_start@@Base+0x2e64c>
   391a0:	e59bc024 	ldr	ip, [fp, #36]	; 0x24
   391a4:	e1a03004 	mov	r3, r4
   391a8:	e59b0028 	ldr	r0, [fp, #40]	; 0x28
   391ac:	e59f1068 	ldr	r1, [pc, #104]	; 3921c <_start@@Base+0x2e850>
   391b0:	e59d2574 	ldr	r2, [sp, #1396]	; 0x574
   391b4:	e08c0000 	add	r0, ip, r0
[31m   391b8:	ebff4585 	bl	a7d4 <sprintf@plt>[0m
   391bc:	e59b3028 	ldr	r3, [fp, #40]	; 0x28
   391c0:	e0803003 	add	r3, r0, r3
--
   39304:	e2888001 	add	r8, r8, #1
   39308:	1afffff1 	bne	392d4 <_start@@Base+0x2e908>
   3930c:	e5f75001 	ldrb	r5, [r7, #1]!
   39310:	e3a08000 	mov	r8, #0
   39314:	e3550000 	cmp	r5, #0
   39318:	1afffff7 	bne	392fc <_start@@Base+0x2e930>
   3931c:	e1a00004 	mov	r0, r4
   39320:	e8bd81f0 	pop	{r4, r5, r6, r7, r8, pc}
   39324:	e3500001 	cmp	r0, #1
   39328:	13a02000 	movne	r2, #0
   3932c:	17c72003 	strbne	r2, [r7, r3]
   39330:	1affffe0 	bne	392b8 <_start@@Base+0x2e8ec>
   39334:	e59f5030 	ldr	r5, [pc, #48]	; 3936c <_start@@Base+0x2e9a0>
   39338:	e1a03007 	mov	r3, r7
   3933c:	e59f102c 	ldr	r1, [pc, #44]	; 39370 <_start@@Base+0x2e9a4>
   39340:	e3a04000 	mov	r4, #0
   39344:	e5962004 	ldr	r2, [r6, #4]
   39348:	e595c024 	ldr	ip, [r5, #36]	; 0x24
   3934c:	e5950028 	ldr	r0, [r5, #40]	; 0x28
   39350:	e08c0000 	add	r0, ip, r0
[31m   39354:	ebff451e 	bl	a7d4 <sprintf@plt>[0m
   39358:	e5953028 	ldr	r3, [r5, #40]	; 0x28
   3935c:	e0803003 	add	r3, r0, r3
--
   39558:	e1570000 	cmp	r7, r0
   3955c:	e1a0c000 	mov	ip, r0
   39560:	ca000016 	bgt	395c0 <_start@@Base+0x2ebf4>
   39564:	e1570004 	cmp	r7, r4
   39568:	ba000006 	blt	39588 <_start@@Base+0x2ebbc>
   3956c:	e1a00008 	mov	r0, r8
   39570:	ebffff7f 	bl	39374 <_start@@Base+0x2e9a8>
   39574:	e2503000 	subs	r3, r0, #0
   39578:	13a03001 	movne	r3, #1
   3957c:	e1a00003 	mov	r0, r3
   39580:	e28dd008 	add	sp, sp, #8
   39584:	e8bd81f0 	pop	{r4, r5, r6, r7, r8, pc}
   39588:	e59f507c 	ldr	r5, [pc, #124]	; 3960c <_start@@Base+0x2ec40>
   3958c:	e1a03008 	mov	r3, r8
   39590:	e5962004 	ldr	r2, [r6, #4]
   39594:	e59f1074 	ldr	r1, [pc, #116]	; 39610 <_start@@Base+0x2ec44>
   39598:	e595c024 	ldr	ip, [r5, #36]	; 0x24
   3959c:	e5950028 	ldr	r0, [r5, #40]	; 0x28
   395a0:	e58d4000 	str	r4, [sp]
   395a4:	e08c0000 	add	r0, ip, r0
[31m   395a8:	ebff4489 	bl	a7d4 <sprintf@plt>[0m
   395ac:	e5952028 	ldr	r2, [r5, #40]	; 0x28
   395b0:	e3a03000 	mov	r3, #0
   395b4:	e0802002 	add	r2, r0, r2
   395b8:	e5852028 	str	r2, [r5, #40]	; 0x28
   395bc:	eaffffee 	b	3957c <_start@@Base+0x2ebb0>
   395c0:	e59f4044 	ldr	r4, [pc, #68]	; 3960c <_start@@Base+0x2ec40>
   395c4:	e1a03008 	mov	r3, r8
   395c8:	e5962004 	ldr	r2, [r6, #4]
   395cc:	e59f1040 	ldr	r1, [pc, #64]	; 39614 <_start@@Base+0x2ec48>
   395d0:	e594e024 	ldr	lr, [r4, #36]	; 0x24
   395d4:	e5940028 	ldr	r0, [r4, #40]	; 0x28
   395d8:	e58dc000 	str	ip, [sp]
   395dc:	e08e0000 	add	r0, lr, r0
[31m   395e0:	ebff447b 	bl	a7d4 <sprintf@plt>[0m
   395e4:	e5942028 	ldr	r2, [r4, #40]	; 0x28
   395e8:	e3a03000 	mov	r3, #0
--
   3a0c4:	ebff4213 	bl	a918 <osifname_to_nvifname@plt>
   3a0c8:	e3500000 	cmp	r0, #0
   3a0cc:	1affffb0 	bne	39f94 <_start@@Base+0x2f5c8>
   3a0d0:	e1a00007 	mov	r0, r7
   3a0d4:	e1a0100a 	mov	r1, sl
   3a0d8:	e1a02009 	mov	r2, r9
   3a0dc:	ebff41e0 	bl	a864 <get_ifname_unit@plt>
   3a0e0:	e3700001 	cmn	r0, #1
   3a0e4:	0affffaa 	beq	39f94 <_start@@Base+0x2f5c8>
   3a0e8:	e59d3098 	ldr	r3, [sp, #152]	; 0x98
   3a0ec:	e3530000 	cmp	r3, #0
   3a0f0:	e59d3094 	ldr	r3, [sp, #148]	; 0x94
   3a0f4:	b58d8098 	strlt	r8, [sp, #152]	; 0x98
   3a0f8:	e3530000 	cmp	r3, #0
   3a0fc:	b58d8094 	strlt	r8, [sp, #148]	; 0x94
   3a100:	ba00000d 	blt	3a13c <_start@@Base+0x2f770>
   3a104:	0a00000c 	beq	3a13c <_start@@Base+0x2f770>
   3a108:	e59f1064 	ldr	r1, [pc, #100]	; 3a174 <_start@@Base+0x2f7a8>
   3a10c:	e59d2098 	ldr	r2, [sp, #152]	; 0x98
   3a110:	e59f0060 	ldr	r0, [pc, #96]	; 3a178 <_start@@Base+0x2f7ac>
[31m   3a114:	ebff41ae 	bl	a7d4 <sprintf@plt>[0m
   3a118:	eaffff9d 	b	39f94 <_start@@Base+0x2f5c8>
   3a11c:	e59f0058 	ldr	r0, [pc, #88]	; 3a17c <_start@@Base+0x2f7b0>
   3a120:	e304208a 	movw	r2, #16522	; 0x408a
   3a124:	e59f1054 	ldr	r1, [pc, #84]	; 3a180 <_start@@Base+0x2f7b4>
   3a128:	ebff4026 	bl	a1c8 <printf@plt>
   3a12c:	e28d30a0 	add	r3, sp, #160	; 0xa0
   3a130:	e0835105 	add	r5, r3, r5, lsl #2
   3a134:	e505609c 	str	r6, [r5, #-156]	; 0xffffff64
   3a138:	eaffff80 	b	39f40 <_start@@Base+0x2f574>
   3a13c:	e59f1040 	ldr	r1, [pc, #64]	; 3a184 <_start@@Base+0x2f7b8>
   3a140:	e59d2098 	ldr	r2, [sp, #152]	; 0x98
   3a144:	e59f002c 	ldr	r0, [pc, #44]	; 3a178 <_start@@Base+0x2f7ac>
[31m   3a148:	ebff41a1 	bl	a7d4 <sprintf@plt>[0m
   3a14c:	eaffff90 	b	39f94 <_start@@Base+0x2f5c8>
   3a150:	0007062c 	andeq	r0, r7, ip, lsr #12
--
   3a4dc:	e59f0e74 	ldr	r0, [pc, #3700]	; 3b358 <_start@@Base+0x3098c>
   3a4e0:	ebff437c 	bl	b2d8 <_start@@Base+0x90c>
   3a4e4:	e59f1e70 	ldr	r1, [pc, #3696]	; 3b35c <_start@@Base+0x30990>
   3a4e8:	e1a03000 	mov	r3, r0
   3a4ec:	e59f2e6c 	ldr	r2, [pc, #3692]	; 3b360 <_start@@Base+0x30994>
   3a4f0:	e1a00004 	mov	r0, r4
   3a4f4:	e58d8000 	str	r8, [sp]
   3a4f8:	ebff3ff8 	bl	a4e0 <fprintf@plt>
   3a4fc:	e1a00004 	mov	r0, r4
   3a500:	ebff3fb4 	bl	a3d8 <fflush@plt>
   3a504:	e1a03004 	mov	r3, r4
   3a508:	e3a01001 	mov	r1, #1
   3a50c:	e3a0203b 	mov	r2, #59	; 0x3b
   3a510:	e59f0e4c 	ldr	r0, [pc, #3660]	; 3b364 <_start@@Base+0x30998>
   3a514:	ebff40c9 	bl	a840 <fwrite@plt>
   3a518:	e1a00004 	mov	r0, r4
   3a51c:	ebff3fad 	bl	a3d8 <fflush@plt>
   3a520:	e59f1e40 	ldr	r1, [pc, #3648]	; 3b368 <_start@@Base+0x3099c>
   3a524:	e1a02005 	mov	r2, r5
   3a528:	e1a00007 	mov	r0, r7
[31m   3a52c:	ebff40a8 	bl	a7d4 <sprintf@plt>[0m
   3a530:	e1a00007 	mov	r0, r7
   3a534:	ebff4076 	bl	a714 <nvram_get@plt>
--
   3bba0:	ebff3adb 	bl	a714 <nvram_get@plt>
   3bba4:	e51f1634 	ldr	r1, [pc, #-1588]	; 3b578 <_start@@Base+0x30bac>
   3bba8:	e1a02000 	mov	r2, r0
   3bbac:	e1a00004 	mov	r0, r4
   3bbb0:	ebff3a4a 	bl	a4e0 <fprintf@plt>
   3bbb4:	e1a00004 	mov	r0, r4
   3bbb8:	ebff3a06 	bl	a3d8 <fflush@plt>
   3bbbc:	e5965e78 	ldr	r5, [r6, #3704]	; 0xe78
   3bbc0:	eafffcd0 	b	3af08 <_start@@Base+0x3053c>
   3bbc4:	e51f6650 	ldr	r6, [pc, #-1616]	; 3b57c <_start@@Base+0x30bb0>
   3bbc8:	e3a02005 	mov	r2, #5
   3bbcc:	e1a03002 	mov	r3, r2
   3bbd0:	e5862e78 	str	r2, [r6, #3704]	; 0xe78
   3bbd4:	eafffa15 	b	3a430 <_start@@Base+0x2fa64>
   3bbd8:	e1a0000b 	mov	r0, fp
   3bbdc:	e28d5018 	add	r5, sp, #24
   3bbe0:	ebff57a0 	bl	11a68 <_start@@Base+0x709c>
   3bbe4:	e28d0018 	add	r0, sp, #24
   3bbe8:	e51f1670 	ldr	r1, [pc, #-1648]	; 3b580 <_start@@Base+0x30bb4>
   3bbec:	e1a0200b 	mov	r2, fp
[31m   3bbf0:	ebff3af7 	bl	a7d4 <sprintf@plt>[0m
   3bbf4:	eafffd28 	b	3b09c <_start@@Base+0x306d0>
   3bbf8:	e51f167c 	ldr	r1, [pc, #-1660]	; 3b584 <_start@@Base+0x30bb8>
--
   3bf88:	ebff3a2c 	bl	a840 <fwrite@plt>
   3bf8c:	e1a00004 	mov	r0, r4
   3bf90:	ebff3910 	bl	a3d8 <fflush@plt>
   3bf94:	e3a01001 	mov	r1, #1
   3bf98:	e3a020b1 	mov	r2, #177	; 0xb1
   3bf9c:	e1a03004 	mov	r3, r4
   3bfa0:	e59f0e58 	ldr	r0, [pc, #3672]	; 3ce00 <_start@@Base+0x32434>
   3bfa4:	ebff3a25 	bl	a840 <fwrite@plt>
   3bfa8:	e1a00004 	mov	r0, r4
   3bfac:	ebff3909 	bl	a3d8 <fflush@plt>
   3bfb0:	e1a03004 	mov	r3, r4
   3bfb4:	e3a01001 	mov	r1, #1
   3bfb8:	e3a0203b 	mov	r2, #59	; 0x3b
   3bfbc:	e59f0e40 	ldr	r0, [pc, #3648]	; 3ce04 <_start@@Base+0x32438>
   3bfc0:	ebff3a1e 	bl	a840 <fwrite@plt>
   3bfc4:	e1a00004 	mov	r0, r4
   3bfc8:	ebff3902 	bl	a3d8 <fflush@plt>
   3bfcc:	e59f1e34 	ldr	r1, [pc, #3636]	; 3ce08 <_start@@Base+0x3243c>
   3bfd0:	e1a02005 	mov	r2, r5
   3bfd4:	e1a00007 	mov	r0, r7
[31m   3bfd8:	ebff39fd 	bl	a7d4 <sprintf@plt>[0m
   3bfdc:	e1a00007 	mov	r0, r7
   3bfe0:	ebff39cb 	bl	a714 <nvram_get@plt>
--
   3d5dc:	e51f05f8 	ldr	r0, [pc, #-1528]	; 3cfec <_start@@Base+0x32620>
   3d5e0:	ebff3496 	bl	a840 <fwrite@plt>
   3d5e4:	e1a00004 	mov	r0, r4
   3d5e8:	ebff337a 	bl	a3d8 <fflush@plt>
   3d5ec:	e3a01001 	mov	r1, #1
   3d5f0:	e3a0200c 	mov	r2, #12
   3d5f4:	e1a03004 	mov	r3, r4
   3d5f8:	e51f0610 	ldr	r0, [pc, #-1552]	; 3cff0 <_start@@Base+0x32624>
   3d5fc:	ebff348f 	bl	a840 <fwrite@plt>
   3d600:	e1a00004 	mov	r0, r4
   3d604:	ebff3373 	bl	a3d8 <fflush@plt>
   3d608:	eafffc8f 	b	3c84c <_start@@Base+0x31e80>
   3d60c:	e28d6f92 	add	r6, sp, #584	; 0x248
   3d610:	e28d7008 	add	r7, sp, #8
   3d614:	e1a00006 	mov	r0, r6
   3d618:	e1a05007 	mov	r5, r7
   3d61c:	ebff5111 	bl	11a68 <_start@@Base+0x709c>
   3d620:	e1a00007 	mov	r0, r7
   3d624:	e51f1638 	ldr	r1, [pc, #-1592]	; 3cff4 <_start@@Base+0x32628>
   3d628:	e1a02006 	mov	r2, r6
[31m   3d62c:	ebff3468 	bl	a7d4 <sprintf@plt>[0m
   3d630:	eafffcea 	b	3c9e0 <_start@@Base+0x32014>
   3d634:	e5d530ec 	ldrb	r3, [r5, #236]	; 0xec
--
   3d9c8:	95cd30cd 	strbls	r3, [sp, #205]	; 0xcd
   3d9cc:	ebff3433 	bl	aaa0 <_start@@Base+0xd4>
   3d9d0:	e2504000 	subs	r4, r0, #0
   3d9d4:	1affff68 	bne	3d77c <_start@@Base+0x32db0>
   3d9d8:	e58d400c 	str	r4, [sp, #12]
   3d9dc:	eaffff6f 	b	3d7a0 <_start@@Base+0x32dd4>
   3d9e0:	e28d0074 	add	r0, sp, #116	; 0x74
   3d9e4:	e1a03004 	mov	r3, r4
   3d9e8:	e3a01040 	mov	r1, #64	; 0x40
   3d9ec:	e59f20ec 	ldr	r2, [pc, #236]	; 3dae0 <_start@@Base+0x33114>
   3d9f0:	e1a04000 	mov	r4, r0
   3d9f4:	e58d5000 	str	r5, [sp]
   3d9f8:	ebff320d 	bl	a234 <snprintf@plt>
   3d9fc:	eaffff72 	b	3d7cc <_start@@Base+0x32e00>
   3da00:	e5dd30cd 	ldrb	r3, [sp, #205]	; 0xcd
   3da04:	e3530000 	cmp	r3, #0
   3da08:	0a000007 	beq	3da2c <_start@@Base+0x33060>
   3da0c:	e28d80c4 	add	r8, sp, #196	; 0xc4
   3da10:	e59f10cc 	ldr	r1, [pc, #204]	; 3dae4 <_start@@Base+0x33118>
   3da14:	e1a00008 	mov	r0, r8
[31m   3da18:	ebff336d 	bl	a7d4 <sprintf@plt>[0m
   3da1c:	eaffff6f 	b	3d7e0 <_start@@Base+0x32e14>
   3da20:	e3a03001 	mov	r3, #1
--
   3e1a4:	e3530000 	cmp	r3, #0
   3e1a8:	1affffed 	bne	3e164 <_start@@Base+0x33798>
   3e1ac:	e3540000 	cmp	r4, #0
   3e1b0:	0affffe0 	beq	3e138 <_start@@Base+0x3376c>
   3e1b4:	e2841001 	add	r1, r4, #1
   3e1b8:	e1a00005 	mov	r0, r5
   3e1bc:	e3510b01 	cmp	r1, #1024	; 0x400
   3e1c0:	23a01b01 	movcs	r1, #1024	; 0x400
   3e1c4:	e1a02006 	mov	r2, r6
   3e1c8:	ebff3040 	bl	a2d0 <fgets@plt>
   3e1cc:	e3500000 	cmp	r0, #0
   3e1d0:	0affffd8 	beq	3e138 <_start@@Base+0x3376c>
   3e1d4:	e28daee3 	add	sl, sp, #3632	; 0xe30
   3e1d8:	e1a00005 	mov	r0, r5
   3e1dc:	ebff31c7 	bl	a900 <strlen@plt>
   3e1e0:	e1a02008 	mov	r2, r8
   3e1e4:	e59f38c0 	ldr	r3, [pc, #2240]	; 3eaac <_start@@Base+0x340e0>
   3e1e8:	e59f18c0 	ldr	r1, [pc, #2240]	; 3eab0 <_start@@Base+0x340e4>
   3e1ec:	e0604004 	rsb	r4, r0, r4
   3e1f0:	e1a0000a 	mov	r0, sl
[31m   3e1f4:	ebff3176 	bl	a7d4 <sprintf@plt>[0m
   3e1f8:	e28d2d63 	add	r2, sp, #6336	; 0x18c0
   3e1fc:	e1a00005 	mov	r0, r5
--
   3e368:	da000078 	ble	3e550 <_start@@Base+0x33b84>
   3e36c:	e28dca01 	add	ip, sp, #4096	; 0x1000
   3e370:	e59c38ec 	ldr	r3, [ip, #2284]	; 0x8ec
   3e374:	e1530005 	cmp	r3, r5
   3e378:	da00000a 	ble	3e3a8 <_start@@Base+0x339dc>
   3e37c:	e300e3fe 	movw	lr, #1022	; 0x3fe
   3e380:	e1a0000b 	mov	r0, fp
   3e384:	e154000e 	cmp	r4, lr
   3e388:	e59d2024 	ldr	r2, [sp, #36]	; 0x24
   3e38c:	d2841001 	addle	r1, r4, #1
   3e390:	c3a01b01 	movgt	r1, #1024	; 0x400
   3e394:	ebff2fcd 	bl	a2d0 <fgets@plt>
   3e398:	e3500000 	cmp	r0, #0
   3e39c:	1affffe3 	bne	3e330 <_start@@Base+0x33964>
   3e3a0:	e59d6024 	ldr	r6, [sp, #36]	; 0x24
   3e3a4:	eaffffa2 	b	3e234 <_start@@Base+0x33868>
   3e3a8:	e59d6024 	ldr	r6, [sp, #36]	; 0x24
   3e3ac:	e2882c02 	add	r2, r8, #512	; 0x200
   3e3b0:	e59f1704 	ldr	r1, [pc, #1796]	; 3eabc <_start@@Base+0x340f0>
   3e3b4:	e1a0000a 	mov	r0, sl
[31m   3e3b8:	ebff3105 	bl	a7d4 <sprintf@plt>[0m
   3e3bc:	e59d0028 	ldr	r0, [sp, #40]	; 0x28
   3e3c0:	e1a0100a 	mov	r1, sl
--
   3ec00:	e1c218b8 	strh	r1, [r2, #136]	; 0x88
   3ec04:	e5cd328a 	strb	r3, [sp, #650]	; 0x28a
   3ec08:	1a00002f 	bne	3eccc <_start@@Base+0x34300>
   3ec0c:	e59f0178 	ldr	r0, [pc, #376]	; 3ed8c <_start@@Base+0x343c0>
   3ec10:	e59f1178 	ldr	r1, [pc, #376]	; 3ed90 <_start@@Base+0x343c4>
   3ec14:	ebff2d68 	bl	a1bc <popen@plt>
   3ec18:	e2507000 	subs	r7, r0, #0
   3ec1c:	0a00002a 	beq	3eccc <_start@@Base+0x34300>
   3ec20:	e3a01003 	mov	r1, #3
   3ec24:	e1a02007 	mov	r2, r7
   3ec28:	e28d0fa3 	add	r0, sp, #652	; 0x28c
   3ec2c:	ebff2da7 	bl	a2d0 <fgets@plt>
   3ec30:	e1a00007 	mov	r0, r7
   3ec34:	ebff2d7b 	bl	a228 <pclose@plt>
   3ec38:	e5dd328c 	ldrb	r3, [sp, #652]	; 0x28c
   3ec3c:	e3530030 	cmp	r3, #48	; 0x30
   3ec40:	1a000021 	bne	3eccc <_start@@Base+0x34300>
   3ec44:	e59f1148 	ldr	r1, [pc, #328]	; 3ed94 <_start@@Base+0x343c8>
   3ec48:	e1a00006 	mov	r0, r6
   3ec4c:	e59d200c 	ldr	r2, [sp, #12]
[31m   3ec50:	ebff2edf 	bl	a7d4 <sprintf@plt>[0m
   3ec54:	e1a00006 	mov	r0, r6
   3ec58:	e59f1130 	ldr	r1, [pc, #304]	; 3ed90 <_start@@Base+0x343c4>
--
   3ec64:	0a000018 	beq	3eccc <_start@@Base+0x34300>
   3ec68:	e1a02007 	mov	r2, r7
   3ec6c:	e3a01040 	mov	r1, #64	; 0x40
   3ec70:	e1a00009 	mov	r0, r9
   3ec74:	ebff2d95 	bl	a2d0 <fgets@plt>
   3ec78:	e1a00007 	mov	r0, r7
   3ec7c:	ebff2d69 	bl	a228 <pclose@plt>
   3ec80:	e1a00009 	mov	r0, r9
   3ec84:	ebff2f1d 	bl	a900 <strlen@plt>
   3ec88:	e28d2e29 	add	r2, sp, #656	; 0x290
   3ec8c:	e2403001 	sub	r3, r0, #1
   3ec90:	e0823003 	add	r3, r2, r3
   3ec94:	e1a00006 	mov	r0, r6
   3ec98:	e553207c 	ldrb	r2, [r3, #-124]	; 0xffffff84
   3ec9c:	e59f10f4 	ldr	r1, [pc, #244]	; 3ed98 <_start@@Base+0x343cc>
   3eca0:	e352000a 	cmp	r2, #10
   3eca4:	e59d200c 	ldr	r2, [sp, #12]
   3eca8:	0543a07c 	strbeq	sl, [r3, #-124]	; 0xffffff84
   3ecac:	e28d3fa1 	add	r3, sp, #644	; 0x284
   3ecb0:	e58d9000 	str	r9, [sp]
[31m   3ecb4:	ebff2ec6 	bl	a7d4 <sprintf@plt>[0m
   3ecb8:	ea000008 	b	3ece0 <_start@@Base+0x34314>
   3ecbc:	e59f30d8 	ldr	r3, [pc, #216]	; 3ed9c <_start@@Base+0x343d0>
   3ecc0:	e8930003 	ldm	r3, {r0, r1}
   3ecc4:	e58d0284 	str	r0, [sp, #644]	; 0x284
   3ecc8:	e5cd1288 	strb	r1, [sp, #648]	; 0x288
   3eccc:	e1a00006 	mov	r0, r6
   3ecd0:	e59f10c8 	ldr	r1, [pc, #200]	; 3eda0 <_start@@Base+0x343d4>
   3ecd4:	e59d200c 	ldr	r2, [sp, #12]
   3ecd8:	e28d3fa1 	add	r3, sp, #644	; 0x284
[31m   3ecdc:	ebff2ebc 	bl	a7d4 <sprintf@plt>[0m
   3ece0:	e1a00006 	mov	r0, r6
   3ece4:	e59f10a4 	ldr	r1, [pc, #164]	; 3ed90 <_start@@Base+0x343c4>
--
   3eeac:	e1a04000 	mov	r4, r0
   3eeb0:	e1a00005 	mov	r0, r5
   3eeb4:	ebff2d47 	bl	a3d8 <fflush@plt>
   3eeb8:	eaffffe9 	b	3ee64 <_start@@Base+0x34498>
   3eebc:	0004d28c 	andeq	sp, r4, ip, lsl #5
   3eec0:	000550d0 	ldrdeq	r5, [r5], -r0
   3eec4:	0004b3e8 	andeq	fp, r4, r8, ror #7
   3eec8:	0005048c 	andeq	r0, r5, ip, lsl #9
   3eecc:	e92d40f0 	push	{r4, r5, r6, r7, lr}
   3eed0:	e24ddf41 	sub	sp, sp, #260	; 0x104
   3eed4:	e1a04001 	mov	r4, r1
   3eed8:	e1a06000 	mov	r6, r0
   3eedc:	e3a01000 	mov	r1, #0
   3eee0:	e3a02c01 	mov	r2, #256	; 0x100
   3eee4:	e1a0000d 	mov	r0, sp
   3eee8:	ebff2e12 	bl	a738 <memset@plt>
   3eeec:	e1a02006 	mov	r2, r6
   3eef0:	e59f1090 	ldr	r1, [pc, #144]	; 3ef88 <_start@@Base+0x345bc>
   3eef4:	e1a0000d 	mov	r0, sp
   3eef8:	e3a06000 	mov	r6, #0
[31m   3eefc:	ebff2e34 	bl	a7d4 <sprintf@plt>[0m
   3ef00:	e59f1084 	ldr	r1, [pc, #132]	; 3ef8c <_start@@Base+0x345c0>
   3ef04:	e1a0000d 	mov	r0, sp
--
   3f26c:	0004b3e8 	andeq	fp, r4, r8, ror #7
   3f270:	00055154 	andeq	r5, r5, r4, asr r1
   3f274:	00055170 	andeq	r5, r5, r0, ror r1
   3f278:	0005514c 	andeq	r5, r5, ip, asr #2
   3f27c:	00047b28 	andeq	r7, r4, r8, lsr #22
   3f280:	00047b30 	andeq	r7, r4, r0, lsr fp
   3f284:	00046984 	andeq	r6, r4, r4, lsl #19
   3f288:	00047b8c 	andeq	r7, r4, ip, lsl #23
   3f28c:	e92d40f0 	push	{r4, r5, r6, r7, lr}
   3f290:	e24ddf41 	sub	sp, sp, #260	; 0x104
   3f294:	e1a04001 	mov	r4, r1
   3f298:	e1a06000 	mov	r6, r0
   3f29c:	e3a01000 	mov	r1, #0
   3f2a0:	e3a02c01 	mov	r2, #256	; 0x100
   3f2a4:	e1a0000d 	mov	r0, sp
   3f2a8:	ebff2d22 	bl	a738 <memset@plt>
   3f2ac:	e1a02006 	mov	r2, r6
   3f2b0:	e59f1090 	ldr	r1, [pc, #144]	; 3f348 <_start@@Base+0x3497c>
   3f2b4:	e1a0000d 	mov	r0, sp
   3f2b8:	e3a06000 	mov	r6, #0
[31m   3f2bc:	ebff2d44 	bl	a7d4 <sprintf@plt>[0m
   3f2c0:	e59f1084 	ldr	r1, [pc, #132]	; 3f34c <_start@@Base+0x34980>
   3f2c4:	e1a0000d 	mov	r0, sp
--
   3ffe8:	e3520a02 	cmp	r2, #8192	; 0x2000
   3ffec:	0a0000d2 	beq	4033c <_start@@Base+0x35970>
   3fff0:	e3520b06 	cmp	r2, #6144	; 0x1800
   3fff4:	e28dea03 	add	lr, sp, #12288	; 0x3000
   3fff8:	059f146c 	ldreq	r1, [pc, #1132]	; 4046c <_start@@Base+0x35aa0>
   3fffc:	e28dcc36 	add	ip, sp, #13824	; 0x3600
   40000:	159f1468 	ldrne	r1, [pc, #1128]	; 40470 <_start@@Base+0x35aa4>
   40004:	e3520b06 	cmp	r2, #6144	; 0x1800
   40008:	e8910003 	ldm	r1, {r0, r1}
   4000c:	e58e0618 	str	r0, [lr, #1560]	; 0x618
   40010:	e6efe073 	uxtb	lr, r3
   40014:	e1a00821 	lsr	r0, r1, #16
   40018:	e1cc11bc 	strh	r1, [ip, #28]
   4001c:	e58de03c 	str	lr, [sp, #60]	; 0x3c
   40020:	e5cc001e 	strb	r0, [ip, #30]
   40024:	0a0000b3 	beq	402f8 <_start@@Base+0x3592c>
   40028:	e28d0c36 	add	r0, sp, #13824	; 0x3600
   4002c:	e59f1440 	ldr	r1, [pc, #1088]	; 40474 <_start@@Base+0x35aa8>
   40030:	e59d203c 	ldr	r2, [sp, #60]	; 0x3c
   40034:	e2800028 	add	r0, r0, #40	; 0x28
[31m   40038:	ebff29e5 	bl	a7d4 <sprintf@plt>[0m
   4003c:	e59f0434 	ldr	r0, [pc, #1076]	; 40478 <_start@@Base+0x35aac>
   40040:	e59f13cc 	ldr	r1, [pc, #972]	; 40414 <_start@@Base+0x35a48>
--
   40084:	da00000c 	ble	400bc <_start@@Base+0x356f0>
   40088:	e2400016 	sub	r0, r0, #22
   4008c:	ebff2a1e 	bl	a90c <__aeabi_i2f@plt>
   40090:	e3a01000 	mov	r1, #0
   40094:	e3441284 	movt	r1, #17028	; 0x4284
   40098:	ebff2868 	bl	a240 <__aeabi_fdiv@plt>
   4009c:	e1a01000 	mov	r1, r0
   400a0:	e3a005fe 	mov	r0, #1065353216	; 0x3f800000
   400a4:	ebff299d 	bl	a720 <__aeabi_fsub@plt>
   400a8:	e3a01000 	mov	r1, #0
   400ac:	e34412c8 	movt	r1, #17096	; 0x42c8
   400b0:	ebff29c1 	bl	a7bc <__aeabi_fmul@plt>
   400b4:	ebff2a0e 	bl	a8f4 <__aeabi_f2iz@plt>
   400b8:	e1a02000 	mov	r2, r0
   400bc:	e28d0c36 	add	r0, sp, #13824	; 0x3600
   400c0:	e28d9c36 	add	r9, sp, #13824	; 0x3600
   400c4:	e59f13b0 	ldr	r1, [pc, #944]	; 4047c <_start@@Base+0x35ab0>
   400c8:	e3a03025 	mov	r3, #37	; 0x25
   400cc:	e2800010 	add	r0, r0, #16
   400d0:	e2899018 	add	r9, r9, #24
[31m   400d4:	ebff29be 	bl	a7d4 <sprintf@plt>[0m
   400d8:	e1a00009 	mov	r0, r9
   400dc:	e59f138c 	ldr	r1, [pc, #908]	; 40470 <_start@@Base+0x35aa4>
--
   4027c:	ebff27ec 	bl	a234 <snprintf@plt>
   40280:	eaffff0f 	b	3fec4 <_start@@Base+0x354f8>
   40284:	e5d63048 	ldrb	r3, [r6, #72]	; 0x48
   40288:	e3a0c058 	mov	ip, #88	; 0x58
   4028c:	e5962054 	ldr	r2, [r6, #84]	; 0x54
   40290:	e1c6c7b4 	strh	ip, [r6, #116]	; 0x74
   40294:	e353000e 	cmp	r3, #14
   40298:	e3831a01 	orr	r1, r3, #4096	; 0x1000
   4029c:	83a03903 	movhi	r3, #49152	; 0xc000
   402a0:	93a03000 	movls	r3, #0
   402a4:	e1813003 	orr	r3, r1, r3
   402a8:	e5862078 	str	r2, [r6, #120]	; 0x78
   402ac:	e1c634b8 	strh	r3, [r6, #72]	; 0x48
   402b0:	eaffff1f 	b	3ff34 <_start@@Base+0x35568>
   402b4:	e1d604b8 	ldrh	r0, [r6, #72]	; 0x48
   402b8:	eb000a40 	bl	42bc0 <_start@@Base+0x381f4>
   402bc:	e1a02000 	mov	r2, r0
   402c0:	e28d0c36 	add	r0, sp, #13824	; 0x3600
   402c4:	e59f11c8 	ldr	r1, [pc, #456]	; 40494 <_start@@Base+0x35ac8>
   402c8:	e2800020 	add	r0, r0, #32
[31m   402cc:	ebff2940 	bl	a7d4 <sprintf@plt>[0m
   402d0:	eaffff89 	b	400fc <_start@@Base+0x35730>
   402d4:	e59f01bc 	ldr	r0, [pc, #444]	; 40498 <_start@@Base+0x35acc>
--
   40ad4:	ebff25d6 	bl	a234 <snprintf@plt>
   40ad8:	e1a01004 	mov	r1, r4
   40adc:	e1a00005 	mov	r0, r5
   40ae0:	ebff267e 	bl	a4e0 <fprintf@plt>
   40ae4:	e1a00005 	mov	r0, r5
   40ae8:	ebff263a 	bl	a3d8 <fflush@plt>
   40aec:	e30c3798 	movw	r3, #51096	; 0xc798
   40af0:	e3403004 	movt	r3, #4
   40af4:	e8930003 	ldm	r3, {r0, r1}
   40af8:	e58d003c 	str	r0, [sp, #60]	; 0x3c
   40afc:	e1a00005 	mov	r0, r5
   40b00:	e1c810b0 	strh	r1, [r8]
   40b04:	e1a01004 	mov	r1, r4
   40b08:	ebff2674 	bl	a4e0 <fprintf@plt>
   40b0c:	e1a00005 	mov	r0, r5
   40b10:	ebff2630 	bl	a3d8 <fflush@plt>
   40b14:	e59dc02c 	ldr	ip, [sp, #44]	; 0x2c
   40b18:	e1a00004 	mov	r0, r4
   40b1c:	e59f19d8 	ldr	r1, [pc, #2520]	; 414fc <_start@@Base+0x36b30>
   40b20:	e51c2464 	ldr	r2, [ip, #-1124]	; 0xfffffb9c
[31m   40b24:	ebff272a 	bl	a7d4 <sprintf@plt>[0m
   40b28:	e1a01004 	mov	r1, r4
   40b2c:	e1a00005 	mov	r0, r5
--
   40b90:	e1a00005 	mov	r0, r5
   40b94:	ebff2651 	bl	a4e0 <fprintf@plt>
   40b98:	e1a00005 	mov	r0, r5
   40b9c:	ebff260d 	bl	a3d8 <fflush@plt>
   40ba0:	e28d0c05 	add	r0, sp, #1280	; 0x500
   40ba4:	e3a01000 	mov	r1, #0
   40ba8:	e3a02080 	mov	r2, #128	; 0x80
   40bac:	e2800004 	add	r0, r0, #4
   40bb0:	ebff26e0 	bl	a738 <memset@plt>
   40bb4:	e1a00004 	mov	r0, r4
   40bb8:	e3a01000 	mov	r1, #0
   40bbc:	e3a02b01 	mov	r2, #1024	; 0x400
   40bc0:	ebff26dc 	bl	a738 <memset@plt>
   40bc4:	e5d63035 	ldrb	r3, [r6, #53]	; 0x35
   40bc8:	e3530000 	cmp	r3, #0
   40bcc:	0a000121 	beq	41058 <_start@@Base+0x3668c>
   40bd0:	e28d2c05 	add	r2, sp, #1280	; 0x500
   40bd4:	e59f1928 	ldr	r1, [pc, #2344]	; 41504 <_start@@Base+0x36b38>
   40bd8:	e2822004 	add	r2, r2, #4
   40bdc:	e1a00004 	mov	r0, r4
[31m   40be0:	ebff26fb 	bl	a7d4 <sprintf@plt>[0m
   40be4:	e1a01004 	mov	r1, r4
   40be8:	e1a00005 	mov	r0, r5
--
   40cb0:	e8ac000f 	stmia	ip!, {r0, r1, r2, r3}
   40cb4:	e8be000f 	ldm	lr!, {r0, r1, r2, r3}
   40cb8:	e8ac000f 	stmia	ip!, {r0, r1, r2, r3}
   40cbc:	e8be000f 	ldm	lr!, {r0, r1, r2, r3}
   40cc0:	e8ac000f 	stmia	ip!, {r0, r1, r2, r3}
   40cc4:	e89e000f 	ldm	lr, {r0, r1, r2, r3}
   40cc8:	e8ac0007 	stmia	ip!, {r0, r1, r2}
   40ccc:	e1a01004 	mov	r1, r4
   40cd0:	e5cc3000 	strb	r3, [ip]
   40cd4:	e1a00005 	mov	r0, r5
   40cd8:	ebff2600 	bl	a4e0 <fprintf@plt>
   40cdc:	e1a00005 	mov	r0, r5
   40ce0:	ebff25bc 	bl	a3d8 <fflush@plt>
   40ce4:	e3a01000 	mov	r1, #0
   40ce8:	e3a02b01 	mov	r2, #1024	; 0x400
   40cec:	e1a00004 	mov	r0, r4
   40cf0:	ebff2690 	bl	a738 <memset@plt>
   40cf4:	e1a02007 	mov	r2, r7
   40cf8:	e59f1808 	ldr	r1, [pc, #2056]	; 41508 <_start@@Base+0x36b3c>
   40cfc:	e1a00004 	mov	r0, r4
[31m   40d00:	ebff26b3 	bl	a7d4 <sprintf@plt>[0m
   40d04:	e1a01004 	mov	r1, r4
   40d08:	e1a00005 	mov	r0, r5
--
   40d14:	ebff25af 	bl	a3d8 <fflush@plt>
   40d18:	e3a01000 	mov	r1, #0
   40d1c:	e3a02b01 	mov	r2, #1024	; 0x400
   40d20:	e1a00004 	mov	r0, r4
   40d24:	ebff2683 	bl	a738 <memset@plt>
   40d28:	e5d6c026 	ldrb	ip, [r6, #38]	; 0x26
   40d2c:	e1a03007 	mov	r3, r7
   40d30:	e5d6e023 	ldrb	lr, [r6, #35]	; 0x23
   40d34:	e1a02007 	mov	r2, r7
   40d38:	e5d69024 	ldrb	r9, [r6, #36]	; 0x24
   40d3c:	e1a00004 	mov	r0, r4
   40d40:	e5d6b025 	ldrb	fp, [r6, #37]	; 0x25
   40d44:	e58dc00c 	str	ip, [sp, #12]
   40d48:	e5d61027 	ldrb	r1, [r6, #39]	; 0x27
   40d4c:	e58d1010 	str	r1, [sp, #16]
   40d50:	e5d6c028 	ldrb	ip, [r6, #40]	; 0x28
   40d54:	e59f17b0 	ldr	r1, [pc, #1968]	; 4150c <_start@@Base+0x36b40>
   40d58:	e58de000 	str	lr, [sp]
   40d5c:	e58dc014 	str	ip, [sp, #20]
   40d60:	e98d0a00 	stmib	sp, {r9, fp}
[31m   40d64:	ebff269a 	bl	a7d4 <sprintf@plt>[0m
   40d68:	e1a01004 	mov	r1, r4
   40d6c:	e1a00005 	mov	r0, r5
   40d70:	ebff25da 	bl	a4e0 <fprintf@plt>
   40d74:	e1a00005 	mov	r0, r5
   40d78:	ebff2596 	bl	a3d8 <fflush@plt>
   40d7c:	e3a01000 	mov	r1, #0
   40d80:	e3a02b01 	mov	r2, #1024	; 0x400
   40d84:	e1a00004 	mov	r0, r4
   40d88:	ebff266a 	bl	a738 <memset@plt>
   40d8c:	e5d6c034 	ldrb	ip, [r6, #52]	; 0x34
   40d90:	e1a03007 	mov	r3, r7
   40d94:	e1a02007 	mov	r2, r7
   40d98:	e59f1770 	ldr	r1, [pc, #1904]	; 41510 <_start@@Base+0x36b44>
   40d9c:	e1a00004 	mov	r0, r4
   40da0:	e58dc000 	str	ip, [sp]
[31m   40da4:	ebff268a 	bl	a7d4 <sprintf@plt>[0m
   40da8:	e1a01004 	mov	r1, r4
   40dac:	e1a00005 	mov	r0, r5
   40db0:	ebff25ca 	bl	a4e0 <fprintf@plt>
   40db4:	e1a00005 	mov	r0, r5
   40db8:	ebff2586 	bl	a3d8 <fflush@plt>
   40dbc:	e3a01000 	mov	r1, #0
   40dc0:	e3a02b01 	mov	r2, #1024	; 0x400
   40dc4:	e1a00004 	mov	r0, r4
   40dc8:	ebff265a 	bl	a738 <memset@plt>
   40dcc:	e5d6c035 	ldrb	ip, [r6, #53]	; 0x35
   40dd0:	e1a03007 	mov	r3, r7
   40dd4:	e1a02007 	mov	r2, r7
   40dd8:	e59f1734 	ldr	r1, [pc, #1844]	; 41514 <_start@@Base+0x36b48>
   40ddc:	e1a00004 	mov	r0, r4
   40de0:	e58dc000 	str	ip, [sp]
[31m   40de4:	ebff267a 	bl	a7d4 <sprintf@plt>[0m
   40de8:	e1a01004 	mov	r1, r4
   40dec:	e1a00005 	mov	r0, r5
--
   40e38:	e3a01000 	mov	r1, #0
   40e3c:	e1a0000a 	mov	r0, sl
   40e40:	ebff263c 	bl	a738 <memset@plt>
   40e44:	e2861001 	add	r1, r6, #1
   40e48:	e1a0000a 	mov	r0, sl
   40e4c:	ebff24cb 	bl	a180 <strcpy@plt>
   40e50:	e1a0000a 	mov	r0, sl
   40e54:	ebff26a9 	bl	a900 <strlen@plt>
   40e58:	e350001f 	cmp	r0, #31
   40e5c:	e1a0000a 	mov	r0, sl
   40e60:	83a03000 	movhi	r3, #0
   40e64:	85cd345c 	strbhi	r3, [sp, #1116]	; 0x45c
   40e68:	ebfff9f7 	bl	3f64c <_start@@Base+0x34c80>
   40e6c:	e3a01000 	mov	r1, #0
   40e70:	e3a02b01 	mov	r2, #1024	; 0x400
   40e74:	e1a00004 	mov	r0, r4
   40e78:	ebff262e 	bl	a738 <memset@plt>
   40e7c:	e1a02007 	mov	r2, r7
   40e80:	e59f1690 	ldr	r1, [pc, #1680]	; 41518 <_start@@Base+0x36b4c>
   40e84:	e1a00004 	mov	r0, r4
[31m   40e88:	ebff2651 	bl	a7d4 <sprintf@plt>[0m
   40e8c:	e1a01004 	mov	r1, r4
   40e90:	e1a00005 	mov	r0, r5
--
   40e98:	e1a00005 	mov	r0, r5
   40e9c:	ebff254d 	bl	a3d8 <fflush@plt>
   40ea0:	e3a01000 	mov	r1, #0
   40ea4:	e3a02b01 	mov	r2, #1024	; 0x400
   40ea8:	e1a00004 	mov	r0, r4
   40eac:	ebff2621 	bl	a738 <memset@plt>
   40eb0:	e5d6c027 	ldrb	ip, [r6, #39]	; 0x27
   40eb4:	e1a02007 	mov	r2, r7
   40eb8:	e5d63023 	ldrb	r3, [r6, #35]	; 0x23
   40ebc:	e1a00004 	mov	r0, r4
   40ec0:	e5d6e024 	ldrb	lr, [r6, #36]	; 0x24
   40ec4:	e5d69025 	ldrb	r9, [r6, #37]	; 0x25
   40ec8:	e5d6b026 	ldrb	fp, [r6, #38]	; 0x26
   40ecc:	e58dc00c 	str	ip, [sp, #12]
   40ed0:	e5d6c028 	ldrb	ip, [r6, #40]	; 0x28
   40ed4:	e59f1640 	ldr	r1, [pc, #1600]	; 4151c <_start@@Base+0x36b50>
   40ed8:	e58de000 	str	lr, [sp]
   40edc:	e58dc010 	str	ip, [sp, #16]
   40ee0:	e98d0a00 	stmib	sp, {r9, fp}
   40ee4:	e58da014 	str	sl, [sp, #20]
[31m   40ee8:	ebff2639 	bl	a7d4 <sprintf@plt>[0m
   40eec:	e1a01004 	mov	r1, r4
   40ef0:	e1a00005 	mov	r0, r5
--
   40f04:	e3a01000 	mov	r1, #0
   40f08:	e1a00004 	mov	r0, r4
   40f0c:	ebff2609 	bl	a738 <memset@plt>
   40f10:	e308ee60 	movw	lr, #36448	; 0x8e60
   40f14:	e340e004 	movt	lr, #4
   40f18:	e89e0003 	ldm	lr, {r0, r1}
   40f1c:	e5840000 	str	r0, [r4]
   40f20:	e1a00005 	mov	r0, r5
   40f24:	e1c810b0 	strh	r1, [r8]
   40f28:	e1a01004 	mov	r1, r4
   40f2c:	ebff256b 	bl	a4e0 <fprintf@plt>
   40f30:	e1a00005 	mov	r0, r5
   40f34:	ebff2527 	bl	a3d8 <fflush@plt>
   40f38:	e3a01000 	mov	r1, #0
   40f3c:	e3a02b01 	mov	r2, #1024	; 0x400
   40f40:	e1a00004 	mov	r0, r4
   40f44:	ebff25fb 	bl	a738 <memset@plt>
   40f48:	e1a02007 	mov	r2, r7
   40f4c:	e59f15cc 	ldr	r1, [pc, #1484]	; 41520 <_start@@Base+0x36b54>
   40f50:	e1a00004 	mov	r0, r4
[31m   40f54:	ebff261e 	bl	a7d4 <sprintf@plt>[0m
   40f58:	e1a01004 	mov	r1, r4
   40f5c:	e1a00005 	mov	r0, r5
   40f60:	ebff255e 	bl	a4e0 <fprintf@plt>
   40f64:	e1a00005 	mov	r0, r5
   40f68:	ebff251a 	bl	a3d8 <fflush@plt>
   40f6c:	e3a01000 	mov	r1, #0
   40f70:	e3a02b01 	mov	r2, #1024	; 0x400
   40f74:	e1a00004 	mov	r0, r4
   40f78:	ebff25ee 	bl	a738 <memset@plt>
   40f7c:	e1d603f6 	ldrsh	r0, [r6, #54]	; 0x36
   40f80:	ebfffdc5 	bl	4069c <_start@@Base+0x35cd0>
   40f84:	e59f1598 	ldr	r1, [pc, #1432]	; 41524 <_start@@Base+0x36b58>
   40f88:	e1a02000 	mov	r2, r0
   40f8c:	e1a00004 	mov	r0, r4
[31m   40f90:	ebff260f 	bl	a7d4 <sprintf@plt>[0m
   40f94:	e1a01004 	mov	r1, r4
   40f98:	e1a00005 	mov	r0, r5
--
   419ec:	e28d4008 	add	r4, sp, #8
   419f0:	ebff2347 	bl	a714 <nvram_get@plt>
   419f4:	e59f008c 	ldr	r0, [pc, #140]	; 41a88 <_start@@Base+0x370bc>
   419f8:	ebff2345 	bl	a714 <nvram_get@plt>
   419fc:	e1a05000 	mov	r5, r0
   41a00:	e59f0084 	ldr	r0, [pc, #132]	; 41a8c <_start@@Base+0x370c0>
   41a04:	ebff2342 	bl	a714 <nvram_get@plt>
   41a08:	e1a07000 	mov	r7, r0
   41a0c:	e59f007c 	ldr	r0, [pc, #124]	; 41a90 <_start@@Base+0x370c4>
   41a10:	ebff233f 	bl	a714 <nvram_get@plt>
   41a14:	e3a01000 	mov	r1, #0
   41a18:	e1a06000 	mov	r6, r0
   41a1c:	e3a02080 	mov	r2, #128	; 0x80
   41a20:	e1a00004 	mov	r0, r4
   41a24:	ebff2343 	bl	a738 <memset@plt>
   41a28:	e59f1064 	ldr	r1, [pc, #100]	; 41a94 <_start@@Base+0x370c8>
   41a2c:	e1a02007 	mov	r2, r7
   41a30:	e1a03006 	mov	r3, r6
   41a34:	e1a00004 	mov	r0, r4
   41a38:	e58d5000 	str	r5, [sp]
[31m   41a3c:	ebff2364 	bl	a7d4 <sprintf@plt>[0m
   41a40:	e59f003c 	ldr	r0, [pc, #60]	; 41a84 <_start@@Base+0x370b8>
   41a44:	ebff2332 	bl	a714 <nvram_get@plt>
--
   41cd8:	ebff2370 	bl	aaa0 <_start@@Base+0xd4>
   41cdc:	e3500000 	cmp	r0, #0
   41ce0:	01a0000a 	moveq	r0, sl
   41ce4:	e58d001c 	str	r0, [sp, #28]
   41ce8:	e59f0230 	ldr	r0, [pc, #560]	; 41f20 <_start@@Base+0x37554>
   41cec:	ebff236b 	bl	aaa0 <_start@@Base+0xd4>
   41cf0:	e59de018 	ldr	lr, [sp, #24]
   41cf4:	e3500000 	cmp	r0, #0
   41cf8:	11a0c000 	movne	ip, r0
   41cfc:	01a0c00a 	moveq	ip, sl
   41d00:	e1a0200b 	mov	r2, fp
   41d04:	e59d3010 	ldr	r3, [sp, #16]
   41d08:	e58de000 	str	lr, [sp]
   41d0c:	e1a00009 	mov	r0, r9
   41d10:	e59de01c 	ldr	lr, [sp, #28]
   41d14:	e59f1208 	ldr	r1, [pc, #520]	; 41f24 <_start@@Base+0x37558>
   41d18:	e58dc00c 	str	ip, [sp, #12]
   41d1c:	e58de004 	str	lr, [sp, #4]
   41d20:	e59de014 	ldr	lr, [sp, #20]
   41d24:	e58de008 	str	lr, [sp, #8]
[31m   41d28:	ebff22a9 	bl	a7d4 <sprintf@plt>[0m
   41d2c:	e1a01009 	mov	r1, r9
   41d30:	e59f01f0 	ldr	r0, [pc, #496]	; 41f28 <_start@@Base+0x3755c>
--
   41d5c:	e58d8140 	str	r8, [sp, #320]	; 0x140
   41d60:	e58d8144 	str	r8, [sp, #324]	; 0x144
   41d64:	ebff226a 	bl	a714 <nvram_get@plt>
   41d68:	e3500000 	cmp	r0, #0
   41d6c:	11a01000 	movne	r1, r0
   41d70:	01a0100a 	moveq	r1, sl
   41d74:	e1a00006 	mov	r0, r6
   41d78:	ebff2100 	bl	a180 <strcpy@plt>
   41d7c:	e59f11b0 	ldr	r1, [pc, #432]	; 41f34 <_start@@Base+0x37568>
   41d80:	e1a02006 	mov	r2, r6
   41d84:	e1a00005 	mov	r0, r5
   41d88:	e2853008 	add	r3, r5, #8
   41d8c:	e4838004 	str	r8, [r3], #4
   41d90:	e58d8120 	str	r8, [sp, #288]	; 0x120
   41d94:	e4838004 	str	r8, [r3], #4
   41d98:	e58d8124 	str	r8, [sp, #292]	; 0x124
   41d9c:	e4838004 	str	r8, [r3], #4
   41da0:	e4838004 	str	r8, [r3], #4
   41da4:	e4838004 	str	r8, [r3], #4
   41da8:	e5838000 	str	r8, [r3]
[31m   41dac:	ebff2288 	bl	a7d4 <sprintf@plt>[0m
   41db0:	e1a00005 	mov	r0, r5
   41db4:	ebff215a 	bl	a324 <system@plt>
--
   43038:	e12fff1e 	bx	lr
   4303c:	e92d4038 	push	{r3, r4, r5, lr}
   43040:	e1a04000 	mov	r4, r0
   43044:	e5d13000 	ldrb	r3, [r1]
   43048:	e3530000 	cmp	r3, #0
   4304c:	0a000012 	beq	4309c <_start@@Base+0x386d0>
   43050:	e1a05001 	mov	r5, r1
   43054:	ea000005 	b	43070 <_start@@Base+0x386a4>
   43058:	e3530025 	cmp	r3, #37	; 0x25
   4305c:	14c43001 	strbne	r3, [r4], #1
   43060:	0a000008 	beq	43088 <_start@@Base+0x386bc>
   43064:	e5f53001 	ldrb	r3, [r5, #1]!
   43068:	e3530000 	cmp	r3, #0
   4306c:	0a00000a 	beq	4309c <_start@@Base+0x386d0>
   43070:	e353003d 	cmp	r3, #61	; 0x3d
   43074:	13530026 	cmpne	r3, #38	; 0x26
   43078:	e1a00004 	mov	r0, r4
   4307c:	e59f1024 	ldr	r1, [pc, #36]	; 430a8 <_start@@Base+0x386dc>
   43080:	e1a02003 	mov	r2, r3
   43084:	1afffff3 	bne	43058 <_start@@Base+0x3868c>
[31m   43088:	ebff1dd1 	bl	a7d4 <sprintf@plt>[0m
   4308c:	e5f53001 	ldrb	r3, [r5, #1]!
   43090:	e0844000 	add	r4, r4, r0
--
   433c0:	e58d2364 	str	r2, [sp, #868]	; 0x364
   433c4:	ea000004 	b	433dc <_start@@Base+0x38a10>
   433c8:	e59d3364 	ldr	r3, [sp, #868]	; 0x364
   433cc:	e2833001 	add	r3, r3, #1
   433d0:	e35300ff 	cmp	r3, #255	; 0xff
   433d4:	e58d3364 	str	r3, [sp, #868]	; 0x364
   433d8:	ca000026 	bgt	43478 <_start@@Base+0x38aac>
   433dc:	e3a01064 	mov	r1, #100	; 0x64
   433e0:	e59f2af8 	ldr	r2, [pc, #2808]	; 43ee0 <_start@@Base+0x39514>
   433e4:	e1a00004 	mov	r0, r4
   433e8:	ebff1b91 	bl	a234 <snprintf@plt>
   433ec:	e1a00004 	mov	r0, r4
   433f0:	ebff1cc7 	bl	a714 <nvram_get@plt>
   433f4:	e3500000 	cmp	r0, #0
   433f8:	0afffff2 	beq	433c8 <_start@@Base+0x389fc>
   433fc:	e5950000 	ldr	r0, [r5]
   43400:	e3a02002 	mov	r2, #2
   43404:	e5963000 	ldr	r3, [r6]
   43408:	e59f1ad4 	ldr	r1, [pc, #2772]	; 43ee4 <_start@@Base+0x39518>
   4340c:	e0800003 	add	r0, r0, r3
[31m   43410:	ebff1cef 	bl	a7d4 <sprintf@plt>[0m
   43414:	e5963000 	ldr	r3, [r6]
   43418:	e0803003 	add	r3, r0, r3
--
   434d0:	1a00000c 	bne	43508 <_start@@Base+0x38b3c>
   434d4:	ebff1e09 	bl	ad00 <_start@@Base+0x334>
   434d8:	e3500001 	cmp	r0, #1
   434dc:	0a000245 	beq	43df8 <_start@@Base+0x3942c>
   434e0:	e5950000 	ldr	r0, [r5]
   434e4:	e3a02003 	mov	r2, #3
   434e8:	e5963000 	ldr	r3, [r6]
   434ec:	ea000009 	b	43518 <_start@@Base+0x38b4c>
   434f0:	e5950000 	ldr	r0, [r5]
   434f4:	e3a02001 	mov	r2, #1
   434f8:	eaffffc1 	b	43404 <_start@@Base+0x38a38>
   434fc:	e5950000 	ldr	r0, [r5]
   43500:	e3a02003 	mov	r2, #3
   43504:	eaffffbe 	b	43404 <_start@@Base+0x38a38>
   43508:	e5950000 	ldr	r0, [r5]
   4350c:	e3a02003 	mov	r2, #3
   43510:	e5963000 	ldr	r3, [r6]
   43514:	e3a04000 	mov	r4, #0
   43518:	e59f19c4 	ldr	r1, [pc, #2500]	; 43ee4 <_start@@Base+0x39518>
   4351c:	e0800003 	add	r0, r0, r3
[31m   43520:	ebff1cab 	bl	a7d4 <sprintf@plt>[0m
   43524:	e5963000 	ldr	r3, [r6]
   43528:	e28dafc5 	add	sl, sp, #788	; 0x314
--
   4367c:	e59fb884 	ldr	fp, [pc, #2180]	; 43f08 <_start@@Base+0x3953c>
   43680:	e59f0884 	ldr	r0, [pc, #2180]	; 43f0c <_start@@Base+0x39540>
   43684:	e0823003 	add	r3, r2, r3
   43688:	e59f9844 	ldr	r9, [pc, #2116]	; 43ed4 <_start@@Base+0x39508>
   4368c:	e58d3010 	str	r3, [sp, #16]
   43690:	ebff1c1f 	bl	a714 <nvram_get@plt>
   43694:	e3500000 	cmp	r0, #0
   43698:	11a03000 	movne	r3, r0
   4369c:	01a0300b 	moveq	r3, fp
   436a0:	e59f0868 	ldr	r0, [pc, #2152]	; 43f10 <_start@@Base+0x39544>
   436a4:	e58d300c 	str	r3, [sp, #12]
   436a8:	ebff1c19 	bl	a714 <nvram_get@plt>
   436ac:	e3500000 	cmp	r0, #0
   436b0:	e1a0200a 	mov	r2, sl
   436b4:	11a0c000 	movne	ip, r0
   436b8:	01a0c00b 	moveq	ip, fp
   436bc:	e59f1850 	ldr	r1, [pc, #2128]	; 43f14 <_start@@Base+0x39548>
   436c0:	e59d300c 	ldr	r3, [sp, #12]
   436c4:	e59d0010 	ldr	r0, [sp, #16]
   436c8:	e58dc000 	str	ip, [sp]
[31m   436cc:	ebff1c40 	bl	a7d4 <sprintf@plt>[0m
   436d0:	e5963000 	ldr	r3, [r6]
   436d4:	e0803003 	add	r3, r0, r3
   436d8:	e59f0838 	ldr	r0, [pc, #2104]	; 43f18 <_start@@Base+0x3954c>
   436dc:	e5863000 	str	r3, [r6]
   436e0:	ebff1afd 	bl	a2dc <file2str@plt>
   436e4:	e250a000 	subs	sl, r0, #0
   436e8:	0a00000a 	beq	43718 <_start@@Base+0x38d4c>
   436ec:	e5993000 	ldr	r3, [r9]
   436f0:	e1a0200a 	mov	r2, sl
   436f4:	e5950000 	ldr	r0, [r5]
   436f8:	e59f181c 	ldr	r1, [pc, #2076]	; 43f1c <_start@@Base+0x39550>
   436fc:	e0800003 	add	r0, r0, r3
[31m   43700:	ebff1c33 	bl	a7d4 <sprintf@plt>[0m
   43704:	e5993000 	ldr	r3, [r9]
   43708:	e0803003 	add	r3, r0, r3
--
   437ac:	e3130001 	tst	r3, #1
   437b0:	0afffff7 	beq	43794 <_start@@Base+0x38dc8>
   437b4:	e5987000 	ldr	r7, [r8]
   437b8:	e1a00007 	mov	r0, r7
   437bc:	ebff1b89 	bl	a5e8 <strncmp@plt>
   437c0:	e3500000 	cmp	r0, #0
   437c4:	0afffff2 	beq	43794 <_start@@Base+0x38dc8>
   437c8:	e1a00007 	mov	r0, r7
   437cc:	ebff1bd0 	bl	a714 <nvram_get@plt>
   437d0:	e3500000 	cmp	r0, #0
   437d4:	11a01000 	movne	r1, r0
   437d8:	01a0100b 	moveq	r1, fp
   437dc:	e1a00009 	mov	r0, r9
   437e0:	ebfffe15 	bl	4303c <_start@@Base+0x38670>
   437e4:	e595c000 	ldr	ip, [r5]
   437e8:	e1a03009 	mov	r3, r9
   437ec:	e5960000 	ldr	r0, [r6]
   437f0:	e5982000 	ldr	r2, [r8]
   437f4:	e59f1730 	ldr	r1, [pc, #1840]	; 43f2c <_start@@Base+0x39560>
   437f8:	e08c0000 	add	r0, ip, r0
[31m   437fc:	ebff1bf4 	bl	a7d4 <sprintf@plt>[0m
   43800:	e5963000 	ldr	r3, [r6]
   43804:	e0803003 	add	r3, r0, r3
   43808:	e5863000 	str	r3, [r6]
   4380c:	eaffffe0 	b	43794 <_start@@Base+0x38dc8>
   43810:	e59d7014 	ldr	r7, [sp, #20]
   43814:	e5963000 	ldr	r3, [r6]
   43818:	e28dbfd5 	add	fp, sp, #852	; 0x354
   4381c:	e5958000 	ldr	r8, [r5]
   43820:	e59fa6e0 	ldr	sl, [pc, #1760]	; 43f08 <_start@@Base+0x3953c>
   43824:	e59f0704 	ldr	r0, [pc, #1796]	; 43f30 <_start@@Base+0x39564>
   43828:	e0888003 	add	r8, r8, r3
   4382c:	ebff1bb8 	bl	a714 <nvram_get@plt>
   43830:	e3500000 	cmp	r0, #0
   43834:	e59f16f8 	ldr	r1, [pc, #1784]	; 43f34 <_start@@Base+0x39568>
   43838:	11a02000 	movne	r2, r0
   4383c:	01a0200a 	moveq	r2, sl
   43840:	e1a00008 	mov	r0, r8
[31m   43844:	ebff1be2 	bl	a7d4 <sprintf@plt>[0m
   43848:	e5963000 	ldr	r3, [r6]
   4384c:	e59f16e4 	ldr	r1, [pc, #1764]	; 43f38 <_start@@Base+0x3956c>
--
   43948:	ebff1bc2 	bl	a858 <wl_ioctl@plt>
   4394c:	e3500000 	cmp	r0, #0
   43950:	1affffda 	bne	438c0 <_start@@Base+0x38ef4>
   43954:	e3a01064 	mov	r1, #100	; 0x64
   43958:	e59f25dc 	ldr	r2, [pc, #1500]	; 43f3c <_start@@Base+0x39570>
   4395c:	e59d3364 	ldr	r3, [sp, #868]	; 0x364
   43960:	e1a00004 	mov	r0, r4
   43964:	ebff1a32 	bl	a234 <snprintf@plt>
   43968:	e5963000 	ldr	r3, [r6]
   4396c:	e1a00004 	mov	r0, r4
   43970:	e5957000 	ldr	r7, [r5]
   43974:	e0877003 	add	r7, r7, r3
   43978:	ebff1b65 	bl	a714 <nvram_get@plt>
   4397c:	e3053a68 	movw	r3, #23144	; 0x5a68
   43980:	e3500000 	cmp	r0, #0
   43984:	e3403005 	movt	r3, #5
   43988:	e1a02004 	mov	r2, r4
   4398c:	11a03000 	movne	r3, r0
   43990:	e59f1594 	ldr	r1, [pc, #1428]	; 43f2c <_start@@Base+0x39560>
   43994:	e1a00007 	mov	r0, r7
[31m   43998:	ebff1b8d 	bl	a7d4 <sprintf@plt>[0m
   4399c:	e59d2010 	ldr	r2, [sp, #16]
   439a0:	e5963000 	ldr	r3, [r6]
--
   43a08:	ebff1a09 	bl	a234 <snprintf@plt>
   43a0c:	e1a00004 	mov	r0, r4
   43a10:	ebff1b3f 	bl	a714 <nvram_get@plt>
   43a14:	e3051a68 	movw	r1, #23144	; 0x5a68
   43a18:	e3500000 	cmp	r0, #0
   43a1c:	e3401005 	movt	r1, #5
   43a20:	11a01000 	movne	r1, r0
   43a24:	e28d0f93 	add	r0, sp, #588	; 0x24c
   43a28:	ebfffd83 	bl	4303c <_start@@Base+0x38670>
   43a2c:	e59d0014 	ldr	r0, [sp, #20]
   43a30:	e1a02004 	mov	r2, r4
   43a34:	e59d1364 	ldr	r1, [sp, #868]	; 0x364
   43a38:	e28d3f93 	add	r3, sp, #588	; 0x24c
   43a3c:	ebfffdde 	bl	431bc <_start@@Base+0x387f0>
   43a40:	e595c000 	ldr	ip, [r5]
   43a44:	e28d3f93 	add	r3, sp, #588	; 0x24c
   43a48:	e5960000 	ldr	r0, [r6]
   43a4c:	e1a02004 	mov	r2, r4
   43a50:	e59f14d4 	ldr	r1, [pc, #1236]	; 43f2c <_start@@Base+0x39560>
   43a54:	e08c0000 	add	r0, ip, r0
[31m   43a58:	ebff1b5d 	bl	a7d4 <sprintf@plt>[0m
   43a5c:	e5963000 	ldr	r3, [r6]
   43a60:	e0803003 	add	r3, r0, r3
--
   43f44:	00063494 	muleq	r6, r4, r4
   43f48:	0005ad2c 	andeq	sl, r5, ip, lsr #26
   43f4c:	0005ad34 	andeq	sl, r5, r4, lsr sp
   43f50:	00048220 	andeq	r8, r4, r0, lsr #4
   43f54:	00047920 	andeq	r7, r4, r0, lsr #18
   43f58:	0005ad3c 	andeq	sl, r5, ip, lsr sp
   43f5c:	00050a54 	andeq	r0, r5, r4, asr sl
   43f60:	0005ad20 	andeq	sl, r5, r0, lsr #26
   43f64:	e92d40f0 	push	{r4, r5, r6, r7, lr}
   43f68:	e24dd024 	sub	sp, sp, #36	; 0x24
   43f6c:	e59f00bc 	ldr	r0, [pc, #188]	; 44030 <_start@@Base+0x39664>
   43f70:	e1a05002 	mov	r5, r2
   43f74:	e1a04001 	mov	r4, r1
   43f78:	ebff19e5 	bl	a714 <nvram_get@plt>
   43f7c:	e3500000 	cmp	r0, #0
   43f80:	e59f10ac 	ldr	r1, [pc, #172]	; 44034 <_start@@Base+0x39668>
   43f84:	e59f30ac 	ldr	r3, [pc, #172]	; 44038 <_start@@Base+0x3966c>
   43f88:	11a03000 	movne	r3, r0
   43f8c:	e59f20a8 	ldr	r2, [pc, #168]	; 4403c <_start@@Base+0x39670>
   43f90:	e59f00a8 	ldr	r0, [pc, #168]	; 44040 <_start@@Base+0x39674>
[31m   43f94:	ebff1a0e 	bl	a7d4 <sprintf@plt>[0m
   43f98:	e59f60a4 	ldr	r6, [pc, #164]	; 44044 <_start@@Base+0x39678>
   43f9c:	e302370e 	movw	r3, #9998	; 0x270e

[0m
[[0;33m*[0m] Function [0;33msprintf[0m used [0;33m253[0m times [0;33mhttpd[0m

