[[0;33m*[0m] Binary protection state of [0;33mrc.svn-base[0m
[REF] s12

  	RELRO          CANARY            NX           PIE       RPATH        RUNPATH      SYMBOLS      
  	[31mNo RELRO[0m       [31mNo Canary found[0m   [32mNX enabled[0m   [31mNo PIE[0m       [32mNo RPATH[0m     [32mNo RUNPATH[0m   [32mNo Symbols[0m

[0m
[[0;33m*[0m] Function [0;33mstrcpy[0m tear down of [0;33mrc.svn-base[0m

    ae2c:	e3a0100e 	mov	r1, #14
    ae30:	e59f2eb8 	ldr	r2, [pc, #3768]	; bcf0 <_start@@Base+0x1bd0>
    ae34:	e1a03006 	mov	r3, r6
    ae38:	ebfffba1 	bl	9cc4 <snprintf@plt>
    ae3c:	e59b4000 	ldr	r4, [fp]
    ae40:	e3540000 	cmp	r4, #0
    ae44:	0a000015 	beq	aea0 <_start@@Base+0xd80>
    ae48:	e59f7e9c 	ldr	r7, [pc, #3740]	; bcec <_start@@Base+0x1bcc>
    ae4c:	ea000002 	b	ae5c <_start@@Base+0xd3c>
    ae50:	e5b7400c 	ldr	r4, [r7, #12]!
    ae54:	e3540000 	cmp	r4, #0
    ae58:	0a000010 	beq	aea0 <_start@@Base+0xd80>
    ae5c:	e3a02003 	mov	r2, #3
    ae60:	e1a00004 	mov	r0, r4
    ae64:	e59f1e88 	ldr	r1, [pc, #3720]	; bcf4 <_start@@Base+0x1bd4>
    ae68:	ebfffb71 	bl	9c34 <strncmp@plt>
    ae6c:	e3500000 	cmp	r0, #0
    ae70:	1afffff6 	bne	ae50 <_start@@Base+0xd30>
    ae74:	e1a01008 	mov	r1, r8
    ae78:	e1a00005 	mov	r0, r5
[31m    ae7c:	ebfffc9e 	bl	a0fc <strcpy@plt>[0m
    ae80:	e2841003 	add	r1, r4, #3
    ae84:	e1a00005 	mov	r0, r5
--
    aea4:	e3a0100e 	mov	r1, #14
    aea8:	e59f2f78 	ldr	r2, [pc, #3960]	; be28 <_start@@Base+0x1d08>
    aeac:	e1a03006 	mov	r3, r6
    aeb0:	ebfffb83 	bl	9cc4 <snprintf@plt>
    aeb4:	e59b4000 	ldr	r4, [fp]
    aeb8:	e3540000 	cmp	r4, #0
    aebc:	0a000015 	beq	af18 <_start@@Base+0xdf8>
    aec0:	e59f7e24 	ldr	r7, [pc, #3620]	; bcec <_start@@Base+0x1bcc>
    aec4:	ea000002 	b	aed4 <_start@@Base+0xdb4>
    aec8:	e5b7400c 	ldr	r4, [r7, #12]!
    aecc:	e3540000 	cmp	r4, #0
    aed0:	0a000010 	beq	af18 <_start@@Base+0xdf8>
    aed4:	e3a02004 	mov	r2, #4
    aed8:	e1a00004 	mov	r0, r4
    aedc:	e59f1fa0 	ldr	r1, [pc, #4000]	; be84 <_start@@Base+0x1d64>
    aee0:	ebfffb53 	bl	9c34 <strncmp@plt>
    aee4:	e3500000 	cmp	r0, #0
    aee8:	1afffff6 	bne	aec8 <_start@@Base+0xda8>
    aeec:	e1a01008 	mov	r1, r8
    aef0:	e1a00005 	mov	r0, r5
[31m    aef4:	ebfffc80 	bl	a0fc <strcpy@plt>[0m
    aef8:	e2841004 	add	r1, r4, #4
    aefc:	e1a00005 	mov	r0, r5
--
    af88:	ebfffb3e 	bl	9c88 <nvram_unset@plt>
    af8c:	e59f0d78 	ldr	r0, [pc, #3448]	; bd0c <_start@@Base+0x1bec>
    af90:	ebfffb3c 	bl	9c88 <nvram_unset@plt>
    af94:	e59fcd74 	ldr	ip, [pc, #3444]	; bd10 <_start@@Base+0x1bf0>
    af98:	e1a0e005 	mov	lr, r5
    af9c:	e8bc000f 	ldm	ip!, {r0, r1, r2, r3}
    afa0:	e59cc000 	ldr	ip, [ip]
    afa4:	e8ae000f 	stmia	lr!, {r0, r1, r2, r3}
    afa8:	e59f0d64 	ldr	r0, [pc, #3428]	; bd14 <_start@@Base+0x1bf4>
    afac:	e58ec000 	str	ip, [lr]
    afb0:	ebfffb34 	bl	9c88 <nvram_unset@plt>
    afb4:	e59f0f0c 	ldr	r0, [pc, #3852]	; bec8 <_start@@Base+0x1da8>
    afb8:	ebfffb32 	bl	9c88 <nvram_unset@plt>
    afbc:	e1a02007 	mov	r2, r7
    afc0:	e59f1d28 	ldr	r1, [pc, #3368]	; bcf0 <_start@@Base+0x1bd0>
    afc4:	e1a00005 	mov	r0, r5
    afc8:	e3a06000 	mov	r6, #0
    afcc:	ebfffbf3 	bl	9fa0 <sprintf@plt>
    afd0:	e1a01005 	mov	r1, r5
    afd4:	e1a00004 	mov	r0, r4
[31m    afd8:	ebfffc47 	bl	a0fc <strcpy@plt>[0m
    afdc:	e1a00004 	mov	r0, r4
    afe0:	ebfffb22 	bl	9c70 <strlen@plt>
    afe4:	e3a02005 	mov	r2, #5
    afe8:	e59f1d28 	ldr	r1, [pc, #3368]	; bd18 <_start@@Base+0x1bf8>
    afec:	e0840000 	add	r0, r4, r0
    aff0:	ebfffacd 	bl	9b2c <memcpy@plt>
    aff4:	e1a00004 	mov	r0, r4
    aff8:	ebfffb22 	bl	9c88 <nvram_unset@plt>
    affc:	e1a01005 	mov	r1, r5
    b000:	e1a00004 	mov	r0, r4
[31m    b004:	ebfffc3c 	bl	a0fc <strcpy@plt>[0m
    b008:	e1a00004 	mov	r0, r4
    b00c:	ebfffb17 	bl	9c70 <strlen@plt>
    b010:	e3a02005 	mov	r2, #5
    b014:	e59f1d00 	ldr	r1, [pc, #3328]	; bd1c <_start@@Base+0x1bfc>
    b018:	e0840000 	add	r0, r4, r0
    b01c:	ebfffac2 	bl	9b2c <memcpy@plt>
    b020:	e1a00004 	mov	r0, r4
    b024:	ebfffb17 	bl	9c88 <nvram_unset@plt>
    b028:	e1a01005 	mov	r1, r5
    b02c:	e1a00004 	mov	r0, r4
[31m    b030:	ebfffc31 	bl	a0fc <strcpy@plt>[0m
    b034:	e1a00004 	mov	r0, r4
    b038:	ebfffb0c 	bl	9c70 <strlen@plt>
    b03c:	e3a02006 	mov	r2, #6
    b040:	e59f1cd8 	ldr	r1, [pc, #3288]	; bd20 <_start@@Base+0x1c00>
    b044:	e0840000 	add	r0, r4, r0
    b048:	ebfffab7 	bl	9b2c <memcpy@plt>
    b04c:	e1a00004 	mov	r0, r4
    b050:	ebfffb0c 	bl	9c88 <nvram_unset@plt>
    b054:	e1a01005 	mov	r1, r5
    b058:	e1a00004 	mov	r0, r4
[31m    b05c:	ebfffc26 	bl	a0fc <strcpy@plt>[0m
    b060:	e1a00004 	mov	r0, r4
    b064:	ebfffb01 	bl	9c70 <strlen@plt>
    b068:	e3a02004 	mov	r2, #4
    b06c:	e59f1cb0 	ldr	r1, [pc, #3248]	; bd24 <_start@@Base+0x1c04>
    b070:	e0840000 	add	r0, r4, r0
    b074:	ebfffaac 	bl	9b2c <memcpy@plt>
    b078:	e1a00004 	mov	r0, r4
    b07c:	ebfffb01 	bl	9c88 <nvram_unset@plt>
    b080:	e1a01005 	mov	r1, r5
    b084:	e1a00004 	mov	r0, r4
[31m    b088:	ebfffc1b 	bl	a0fc <strcpy@plt>[0m
    b08c:	e1a00004 	mov	r0, r4
    b090:	ebfffaf6 	bl	9c70 <strlen@plt>
    b094:	e3a0200f 	mov	r2, #15
    b098:	e59f1c88 	ldr	r1, [pc, #3208]	; bd28 <_start@@Base+0x1c08>
    b09c:	e0840000 	add	r0, r4, r0
    b0a0:	ebfffaa1 	bl	9b2c <memcpy@plt>
    b0a4:	e1a00004 	mov	r0, r4
    b0a8:	ebfffaf6 	bl	9c88 <nvram_unset@plt>
    b0ac:	e1a01005 	mov	r1, r5
    b0b0:	e1a00004 	mov	r0, r4
[31m    b0b4:	ebfffc10 	bl	a0fc <strcpy@plt>[0m
    b0b8:	e1a00004 	mov	r0, r4
    b0bc:	ebfffaeb 	bl	9c70 <strlen@plt>
    b0c0:	e59f1c64 	ldr	r1, [pc, #3172]	; bd2c <_start@@Base+0x1c0c>
    b0c4:	e3a02008 	mov	r2, #8
    b0c8:	e0840000 	add	r0, r4, r0
    b0cc:	ebfffa96 	bl	9b2c <memcpy@plt>
    b0d0:	e1a00004 	mov	r0, r4
    b0d4:	ebfffaeb 	bl	9c88 <nvram_unset@plt>
    b0d8:	e1a02007 	mov	r2, r7
    b0dc:	e59f1c4c 	ldr	r1, [pc, #3148]	; bd30 <_start@@Base+0x1c10>
    b0e0:	e1a00005 	mov	r0, r5
    b0e4:	ebfffbad 	bl	9fa0 <sprintf@plt>
    b0e8:	e1a01005 	mov	r1, r5
    b0ec:	e1a00004 	mov	r0, r4
[31m    b0f0:	ebfffc01 	bl	a0fc <strcpy@plt>[0m
    b0f4:	e1a00004 	mov	r0, r4
    b0f8:	ebfffadc 	bl	9c70 <strlen@plt>
    b0fc:	e3a02007 	mov	r2, #7
    b100:	e59f1c2c 	ldr	r1, [pc, #3116]	; bd34 <_start@@Base+0x1c14>
    b104:	e0840000 	add	r0, r4, r0
    b108:	ebfffa87 	bl	9b2c <memcpy@plt>
    b10c:	e1a00004 	mov	r0, r4
    b110:	ebfffadc 	bl	9c88 <nvram_unset@plt>
    b114:	e1a01005 	mov	r1, r5
    b118:	e1a00004 	mov	r0, r4
[31m    b11c:	ebfffbf6 	bl	a0fc <strcpy@plt>[0m
    b120:	e1a00004 	mov	r0, r4
    b124:	ebfffad1 	bl	9c70 <strlen@plt>
    b128:	e3a02008 	mov	r2, #8
    b12c:	e59f1c04 	ldr	r1, [pc, #3076]	; bd38 <_start@@Base+0x1c18>
    b130:	e0840000 	add	r0, r4, r0
    b134:	ebfffa7c 	bl	9b2c <memcpy@plt>
    b138:	e1a00004 	mov	r0, r4
    b13c:	ebfffad1 	bl	9c88 <nvram_unset@plt>
    b140:	e1a01005 	mov	r1, r5
    b144:	e1a00004 	mov	r0, r4
[31m    b148:	ebfffbeb 	bl	a0fc <strcpy@plt>[0m
    b14c:	e1a00004 	mov	r0, r4
    b150:	ebfffac6 	bl	9c70 <strlen@plt>
    b154:	e3a02008 	mov	r2, #8
    b158:	e59f1bdc 	ldr	r1, [pc, #3036]	; bd3c <_start@@Base+0x1c1c>
    b15c:	e0840000 	add	r0, r4, r0
    b160:	ebfffa71 	bl	9b2c <memcpy@plt>
    b164:	e1a00004 	mov	r0, r4
    b168:	ebfffac6 	bl	9c88 <nvram_unset@plt>
    b16c:	e1a01005 	mov	r1, r5
    b170:	e1a00004 	mov	r0, r4
[31m    b174:	ebfffbe0 	bl	a0fc <strcpy@plt>[0m
    b178:	e1a00004 	mov	r0, r4
    b17c:	ebfffabb 	bl	9c70 <strlen@plt>
    b180:	e3a02006 	mov	r2, #6
    b184:	e59f1bb4 	ldr	r1, [pc, #2996]	; bd40 <_start@@Base+0x1c20>
    b188:	e0840000 	add	r0, r4, r0
    b18c:	ebfffa66 	bl	9b2c <memcpy@plt>
    b190:	e1a00004 	mov	r0, r4
    b194:	ebfffabb 	bl	9c88 <nvram_unset@plt>
    b198:	e1a01005 	mov	r1, r5
    b19c:	e1a00004 	mov	r0, r4
[31m    b1a0:	ebfffbd5 	bl	a0fc <strcpy@plt>[0m
    b1a4:	e1a00004 	mov	r0, r4
    b1a8:	ebfffab0 	bl	9c70 <strlen@plt>
    b1ac:	e3a02007 	mov	r2, #7
    b1b0:	e59f1b8c 	ldr	r1, [pc, #2956]	; bd44 <_start@@Base+0x1c24>
    b1b4:	e0840000 	add	r0, r4, r0
    b1b8:	ebfffa5b 	bl	9b2c <memcpy@plt>
    b1bc:	e1a00004 	mov	r0, r4
    b1c0:	ebfffab0 	bl	9c88 <nvram_unset@plt>
    b1c4:	e1a01005 	mov	r1, r5
    b1c8:	e1a00004 	mov	r0, r4
[31m    b1cc:	ebfffbca 	bl	a0fc <strcpy@plt>[0m
    b1d0:	e1a00004 	mov	r0, r4
    b1d4:	ebfffaa5 	bl	9c70 <strlen@plt>
    b1d8:	e3a02008 	mov	r2, #8
    b1dc:	e59f1b64 	ldr	r1, [pc, #2916]	; bd48 <_start@@Base+0x1c28>
    b1e0:	e0840000 	add	r0, r4, r0
    b1e4:	ebfffa50 	bl	9b2c <memcpy@plt>
    b1e8:	e1a00004 	mov	r0, r4
    b1ec:	ebfffaa5 	bl	9c88 <nvram_unset@plt>
    b1f0:	e1a01005 	mov	r1, r5
    b1f4:	e1a00004 	mov	r0, r4
[31m    b1f8:	ebfffbbf 	bl	a0fc <strcpy@plt>[0m
    b1fc:	e1a00004 	mov	r0, r4
    b200:	ebfffa9a 	bl	9c70 <strlen@plt>
    b204:	e3a02006 	mov	r2, #6
    b208:	e59f1b3c 	ldr	r1, [pc, #2876]	; bd4c <_start@@Base+0x1c2c>
    b20c:	e0840000 	add	r0, r4, r0
    b210:	ebfffa45 	bl	9b2c <memcpy@plt>
    b214:	e1a00004 	mov	r0, r4
    b218:	ebfffa9a 	bl	9c88 <nvram_unset@plt>
    b21c:	e1a01005 	mov	r1, r5
    b220:	e1a00004 	mov	r0, r4
[31m    b224:	ebfffbb4 	bl	a0fc <strcpy@plt>[0m
    b228:	e1a00004 	mov	r0, r4
    b22c:	ebfffa8f 	bl	9c70 <strlen@plt>
    b230:	e3a02004 	mov	r2, #4
    b234:	e59f1b14 	ldr	r1, [pc, #2836]	; bd50 <_start@@Base+0x1c30>
    b238:	e0840000 	add	r0, r4, r0
    b23c:	ebfffa3a 	bl	9b2c <memcpy@plt>
    b240:	e1a00004 	mov	r0, r4
    b244:	ebfffa8f 	bl	9c88 <nvram_unset@plt>
    b248:	e1a01005 	mov	r1, r5
    b24c:	e1a00004 	mov	r0, r4
[31m    b250:	ebfffba9 	bl	a0fc <strcpy@plt>[0m
    b254:	e1a00004 	mov	r0, r4
    b258:	ebfffa84 	bl	9c70 <strlen@plt>
    b25c:	e59f1af0 	ldr	r1, [pc, #2800]	; bd54 <_start@@Base+0x1c34>
    b260:	e3a02007 	mov	r2, #7
    b264:	e0840000 	add	r0, r4, r0
    b268:	ebfffa2f 	bl	9b2c <memcpy@plt>
    b26c:	e1a00004 	mov	r0, r4
    b270:	ebfffa84 	bl	9c88 <nvram_unset@plt>
    b274:	e1a02007 	mov	r2, r7
    b278:	e59f1ad8 	ldr	r1, [pc, #2776]	; bd58 <_start@@Base+0x1c38>
    b27c:	e1a00005 	mov	r0, r5
    b280:	ebfffb46 	bl	9fa0 <sprintf@plt>
    b284:	e1a01005 	mov	r1, r5
    b288:	e1a00004 	mov	r0, r4
[31m    b28c:	ebfffb9a 	bl	a0fc <strcpy@plt>[0m
    b290:	e1a00004 	mov	r0, r4
    b294:	ebfffa75 	bl	9c70 <strlen@plt>
    b298:	e3a02006 	mov	r2, #6
    b29c:	e59f1ab8 	ldr	r1, [pc, #2744]	; bd5c <_start@@Base+0x1c3c>
    b2a0:	e0840000 	add	r0, r4, r0
    b2a4:	ebfffa20 	bl	9b2c <memcpy@plt>
    b2a8:	e1a00004 	mov	r0, r4
    b2ac:	ebfffa75 	bl	9c88 <nvram_unset@plt>
    b2b0:	e1a01005 	mov	r1, r5
    b2b4:	e1a00004 	mov	r0, r4
[31m    b2b8:	ebfffb8f 	bl	a0fc <strcpy@plt>[0m
    b2bc:	e1a00004 	mov	r0, r4
    b2c0:	ebfffa6a 	bl	9c70 <strlen@plt>
    b2c4:	e59f1a94 	ldr	r1, [pc, #2708]	; bd60 <_start@@Base+0x1c40>
    b2c8:	e3a02004 	mov	r2, #4
    b2cc:	e0840000 	add	r0, r4, r0
    b2d0:	ebfffa15 	bl	9b2c <memcpy@plt>
    b2d4:	e1a00004 	mov	r0, r4
    b2d8:	ebfffa6a 	bl	9c88 <nvram_unset@plt>
    b2dc:	e1a03006 	mov	r3, r6
    b2e0:	e1a02007 	mov	r2, r7
    b2e4:	e59f1a78 	ldr	r1, [pc, #2680]	; bd64 <_start@@Base+0x1c44>
    b2e8:	e1a00005 	mov	r0, r5
    b2ec:	ebfffb2b 	bl	9fa0 <sprintf@plt>
    b2f0:	e1a01005 	mov	r1, r5
    b2f4:	e1a00004 	mov	r0, r4
[31m    b2f8:	ebfffb7f 	bl	a0fc <strcpy@plt>[0m
    b2fc:	e1a00004 	mov	r0, r4
    b300:	e2866001 	add	r6, r6, #1
    b304:	ebfffa59 	bl	9c70 <strlen@plt>
    b308:	e3a02005 	mov	r2, #5
    b30c:	e59f1a08 	ldr	r1, [pc, #2568]	; bd1c <_start@@Base+0x1bfc>
    b310:	e0840000 	add	r0, r4, r0
    b314:	ebfffa04 	bl	9b2c <memcpy@plt>
    b318:	e1a00004 	mov	r0, r4
    b31c:	ebfffa59 	bl	9c88 <nvram_unset@plt>
    b320:	e1a01005 	mov	r1, r5
    b324:	e1a00004 	mov	r0, r4
[31m    b328:	ebfffb73 	bl	a0fc <strcpy@plt>[0m
    b32c:	e1a00004 	mov	r0, r4
    b330:	ebfffa4e 	bl	9c70 <strlen@plt>
    b334:	e3a0200f 	mov	r2, #15
    b338:	e59f19e8 	ldr	r1, [pc, #2536]	; bd28 <_start@@Base+0x1c08>
    b33c:	e0840000 	add	r0, r4, r0
    b340:	ebfff9f9 	bl	9b2c <memcpy@plt>
    b344:	e1a00004 	mov	r0, r4
    b348:	ebfffa4e 	bl	9c88 <nvram_unset@plt>
    b34c:	e1a01005 	mov	r1, r5
    b350:	e1a00004 	mov	r0, r4
[31m    b354:	ebfffb68 	bl	a0fc <strcpy@plt>[0m
    b358:	e1a00004 	mov	r0, r4
    b35c:	ebfffa43 	bl	9c70 <strlen@plt>
    b360:	e3a02006 	mov	r2, #6
    b364:	e59f19b4 	ldr	r1, [pc, #2484]	; bd20 <_start@@Base+0x1c00>
    b368:	e0840000 	add	r0, r4, r0
    b36c:	ebfff9ee 	bl	9b2c <memcpy@plt>
    b370:	e1a00004 	mov	r0, r4
    b374:	ebfffa43 	bl	9c88 <nvram_unset@plt>
    b378:	e1a01005 	mov	r1, r5
    b37c:	e1a00004 	mov	r0, r4
[31m    b380:	ebfffb5d 	bl	a0fc <strcpy@plt>[0m
    b384:	e1a00004 	mov	r0, r4
    b388:	ebfffa38 	bl	9c70 <strlen@plt>
    b38c:	e3a02007 	mov	r2, #7
    b390:	e59f19d0 	ldr	r1, [pc, #2512]	; bd68 <_start@@Base+0x1c48>
    b394:	e0840000 	add	r0, r4, r0
    b398:	ebfff9e3 	bl	9b2c <memcpy@plt>
    b39c:	e1a00004 	mov	r0, r4
    b3a0:	ebfffa38 	bl	9c88 <nvram_unset@plt>
    b3a4:	e1a01005 	mov	r1, r5
    b3a8:	e1a00004 	mov	r0, r4
[31m    b3ac:	ebfffb52 	bl	a0fc <strcpy@plt>[0m
    b3b0:	e1a00004 	mov	r0, r4
    b3b4:	ebfffa2d 	bl	9c70 <strlen@plt>
    b3b8:	e3a02008 	mov	r2, #8
    b3bc:	e59f19a8 	ldr	r1, [pc, #2472]	; bd6c <_start@@Base+0x1c4c>
    b3c0:	e0840000 	add	r0, r4, r0
    b3c4:	ebfff9d8 	bl	9b2c <memcpy@plt>
    b3c8:	e1a00004 	mov	r0, r4
    b3cc:	ebfffa2d 	bl	9c88 <nvram_unset@plt>
    b3d0:	e1a01005 	mov	r1, r5
    b3d4:	e1a00004 	mov	r0, r4
[31m    b3d8:	ebfffb47 	bl	a0fc <strcpy@plt>[0m
    b3dc:	e1a00004 	mov	r0, r4
    b3e0:	ebfffa22 	bl	9c70 <strlen@plt>
    b3e4:	e3a02005 	mov	r2, #5
    b3e8:	e59f1980 	ldr	r1, [pc, #2432]	; bd70 <_start@@Base+0x1c50>
    b3ec:	e0840000 	add	r0, r4, r0
    b3f0:	ebfff9cd 	bl	9b2c <memcpy@plt>
    b3f4:	e1a00004 	mov	r0, r4
    b3f8:	ebfffa22 	bl	9c88 <nvram_unset@plt>
    b3fc:	e1a01005 	mov	r1, r5
    b400:	e1a00004 	mov	r0, r4
[31m    b404:	ebfffb3c 	bl	a0fc <strcpy@plt>[0m
    b408:	e1a00004 	mov	r0, r4
    b40c:	ebfffa17 	bl	9c70 <strlen@plt>
    b410:	e3a02004 	mov	r2, #4
    b414:	e59f1958 	ldr	r1, [pc, #2392]	; bd74 <_start@@Base+0x1c54>
    b418:	e0840000 	add	r0, r4, r0
    b41c:	ebfff9c2 	bl	9b2c <memcpy@plt>
    b420:	e1a00004 	mov	r0, r4
    b424:	ebfffa17 	bl	9c88 <nvram_unset@plt>
    b428:	e1a01005 	mov	r1, r5
    b42c:	e1a00004 	mov	r0, r4
[31m    b430:	ebfffb31 	bl	a0fc <strcpy@plt>[0m
    b434:	e1a00004 	mov	r0, r4
    b438:	ebfffa0c 	bl	9c70 <strlen@plt>
    b43c:	e3a0200a 	mov	r2, #10
    b440:	e59f1930 	ldr	r1, [pc, #2352]	; bd78 <_start@@Base+0x1c58>
    b444:	e0840000 	add	r0, r4, r0
    b448:	ebfff9b7 	bl	9b2c <memcpy@plt>
    b44c:	e1a00004 	mov	r0, r4
    b450:	ebfffa0c 	bl	9c88 <nvram_unset@plt>
    b454:	e1a01005 	mov	r1, r5
    b458:	e1a00004 	mov	r0, r4
[31m    b45c:	ebfffb26 	bl	a0fc <strcpy@plt>[0m
    b460:	e1a00004 	mov	r0, r4
    b464:	ebfffa01 	bl	9c70 <strlen@plt>
    b468:	e3a02007 	mov	r2, #7
    b46c:	e59f1908 	ldr	r1, [pc, #2312]	; bd7c <_start@@Base+0x1c5c>
    b470:	e0840000 	add	r0, r4, r0
    b474:	ebfff9ac 	bl	9b2c <memcpy@plt>
    b478:	e1a00004 	mov	r0, r4
    b47c:	ebfffa01 	bl	9c88 <nvram_unset@plt>
    b480:	e1a01005 	mov	r1, r5
    b484:	e1a00004 	mov	r0, r4
[31m    b488:	ebfffb1b 	bl	a0fc <strcpy@plt>[0m
    b48c:	e1a00004 	mov	r0, r4
    b490:	ebfff9f6 	bl	9c70 <strlen@plt>
    b494:	e3a02004 	mov	r2, #4
    b498:	e59f18e0 	ldr	r1, [pc, #2272]	; bd80 <_start@@Base+0x1c60>
    b49c:	e0840000 	add	r0, r4, r0
    b4a0:	ebfff9a1 	bl	9b2c <memcpy@plt>
    b4a4:	e1a00004 	mov	r0, r4
    b4a8:	ebfff9f6 	bl	9c88 <nvram_unset@plt>
    b4ac:	e1a01005 	mov	r1, r5
    b4b0:	e1a00004 	mov	r0, r4
[31m    b4b4:	ebfffb10 	bl	a0fc <strcpy@plt>[0m
    b4b8:	e1a00004 	mov	r0, r4
    b4bc:	ebfff9eb 	bl	9c70 <strlen@plt>
    b4c0:	e3a02007 	mov	r2, #7
    b4c4:	e59f1888 	ldr	r1, [pc, #2184]	; bd54 <_start@@Base+0x1c34>
    b4c8:	e0840000 	add	r0, r4, r0
    b4cc:	ebfff996 	bl	9b2c <memcpy@plt>
    b4d0:	e1a00004 	mov	r0, r4
    b4d4:	ebfff9eb 	bl	9c88 <nvram_unset@plt>
    b4d8:	e1a01005 	mov	r1, r5
    b4dc:	e1a00004 	mov	r0, r4
[31m    b4e0:	ebfffb05 	bl	a0fc <strcpy@plt>[0m
    b4e4:	e1a00004 	mov	r0, r4
    b4e8:	ebfff9e0 	bl	9c70 <strlen@plt>
    b4ec:	e3a0200c 	mov	r2, #12
    b4f0:	e59f188c 	ldr	r1, [pc, #2188]	; bd84 <_start@@Base+0x1c64>
    b4f4:	e0840000 	add	r0, r4, r0
    b4f8:	ebfff98b 	bl	9b2c <memcpy@plt>
    b4fc:	e1a00004 	mov	r0, r4
    b500:	ebfff9e0 	bl	9c88 <nvram_unset@plt>
    b504:	e1a01005 	mov	r1, r5
    b508:	e1a00004 	mov	r0, r4
[31m    b50c:	ebfffafa 	bl	a0fc <strcpy@plt>[0m
    b510:	e1a00004 	mov	r0, r4
    b514:	ebfff9d5 	bl	9c70 <strlen@plt>
    b518:	e3a0200d 	mov	r2, #13
    b51c:	e59f1864 	ldr	r1, [pc, #2148]	; bd88 <_start@@Base+0x1c68>
    b520:	e0840000 	add	r0, r4, r0
    b524:	ebfff980 	bl	9b2c <memcpy@plt>
    b528:	e1a00004 	mov	r0, r4
    b52c:	ebfff9d5 	bl	9c88 <nvram_unset@plt>
    b530:	e1a01005 	mov	r1, r5
    b534:	e1a00004 	mov	r0, r4
[31m    b538:	ebfffaef 	bl	a0fc <strcpy@plt>[0m
    b53c:	e1a00004 	mov	r0, r4
    b540:	ebfff9ca 	bl	9c70 <strlen@plt>
    b544:	e3a02010 	mov	r2, #16
    b548:	e59f183c 	ldr	r1, [pc, #2108]	; bd8c <_start@@Base+0x1c6c>
    b54c:	e0840000 	add	r0, r4, r0
    b550:	ebfff975 	bl	9b2c <memcpy@plt>
    b554:	e1a00004 	mov	r0, r4
    b558:	ebfff9ca 	bl	9c88 <nvram_unset@plt>
    b55c:	e1a01005 	mov	r1, r5
    b560:	e1a00004 	mov	r0, r4
[31m    b564:	ebfffae4 	bl	a0fc <strcpy@plt>[0m
    b568:	e1a00004 	mov	r0, r4
    b56c:	ebfff9bf 	bl	9c70 <strlen@plt>
    b570:	e3a02007 	mov	r2, #7
    b574:	e59f17b8 	ldr	r1, [pc, #1976]	; bd34 <_start@@Base+0x1c14>
    b578:	e0840000 	add	r0, r4, r0
    b57c:	ebfff96a 	bl	9b2c <memcpy@plt>
    b580:	e1a00004 	mov	r0, r4
    b584:	ebfff9bf 	bl	9c88 <nvram_unset@plt>
    b588:	e1a01005 	mov	r1, r5
    b58c:	e1a00004 	mov	r0, r4
[31m    b590:	ebfffad9 	bl	a0fc <strcpy@plt>[0m
    b594:	e1a00004 	mov	r0, r4
    b598:	ebfff9b4 	bl	9c70 <strlen@plt>
    b59c:	e3a02005 	mov	r2, #5
    b5a0:	e59f18e0 	ldr	r1, [pc, #2272]	; be88 <_start@@Base+0x1d68>
    b5a4:	e0840000 	add	r0, r4, r0
    b5a8:	ebfff95f 	bl	9b2c <memcpy@plt>
    b5ac:	e1a00004 	mov	r0, r4
    b5b0:	ebfff9b4 	bl	9c88 <nvram_unset@plt>
    b5b4:	e1a01005 	mov	r1, r5
    b5b8:	e1a00004 	mov	r0, r4
[31m    b5bc:	ebffface 	bl	a0fc <strcpy@plt>[0m
    b5c0:	e1a00004 	mov	r0, r4
    b5c4:	ebfff9a9 	bl	9c70 <strlen@plt>
    b5c8:	e3a0200b 	mov	r2, #11
    b5cc:	e59f17bc 	ldr	r1, [pc, #1980]	; bd90 <_start@@Base+0x1c70>
    b5d0:	e0840000 	add	r0, r4, r0
    b5d4:	ebfff954 	bl	9b2c <memcpy@plt>
    b5d8:	e1a00004 	mov	r0, r4
    b5dc:	ebfff9a9 	bl	9c88 <nvram_unset@plt>
    b5e0:	e1a01005 	mov	r1, r5
    b5e4:	e1a00004 	mov	r0, r4
[31m    b5e8:	ebfffac3 	bl	a0fc <strcpy@plt>[0m
    b5ec:	e1a00004 	mov	r0, r4
    b5f0:	ebfff99e 	bl	9c70 <strlen@plt>
    b5f4:	e3a02008 	mov	r2, #8
    b5f8:	e59f1794 	ldr	r1, [pc, #1940]	; bd94 <_start@@Base+0x1c74>
    b5fc:	e0840000 	add	r0, r4, r0
    b600:	ebfff949 	bl	9b2c <memcpy@plt>
    b604:	e1a00004 	mov	r0, r4
    b608:	ebfff99e 	bl	9c88 <nvram_unset@plt>
    b60c:	e1a01005 	mov	r1, r5
    b610:	e1a00004 	mov	r0, r4
[31m    b614:	ebfffab8 	bl	a0fc <strcpy@plt>[0m
    b618:	e1a00004 	mov	r0, r4
    b61c:	ebfff993 	bl	9c70 <strlen@plt>
    b620:	e3a02008 	mov	r2, #8
    b624:	e59f176c 	ldr	r1, [pc, #1900]	; bd98 <_start@@Base+0x1c78>
    b628:	e0840000 	add	r0, r4, r0
    b62c:	ebfff93e 	bl	9b2c <memcpy@plt>
    b630:	e1a00004 	mov	r0, r4
    b634:	ebfff993 	bl	9c88 <nvram_unset@plt>
    b638:	e1a01005 	mov	r1, r5
    b63c:	e1a00004 	mov	r0, r4
[31m    b640:	ebfffaad 	bl	a0fc <strcpy@plt>[0m
    b644:	e1a00004 	mov	r0, r4
    b648:	ebfff988 	bl	9c70 <strlen@plt>
    b64c:	e3a02009 	mov	r2, #9
    b650:	e59f1744 	ldr	r1, [pc, #1860]	; bd9c <_start@@Base+0x1c7c>
    b654:	e0840000 	add	r0, r4, r0
    b658:	ebfff933 	bl	9b2c <memcpy@plt>
    b65c:	e1a00004 	mov	r0, r4
    b660:	ebfff988 	bl	9c88 <nvram_unset@plt>
    b664:	e1a01005 	mov	r1, r5
    b668:	e1a00004 	mov	r0, r4
[31m    b66c:	ebfffaa2 	bl	a0fc <strcpy@plt>[0m
    b670:	e1a00004 	mov	r0, r4
    b674:	ebfff97d 	bl	9c70 <strlen@plt>
    b678:	e3a02005 	mov	r2, #5
    b67c:	e59f171c 	ldr	r1, [pc, #1820]	; bda0 <_start@@Base+0x1c80>
    b680:	e0840000 	add	r0, r4, r0
    b684:	ebfff928 	bl	9b2c <memcpy@plt>
    b688:	e1a00004 	mov	r0, r4
    b68c:	ebfff97d 	bl	9c88 <nvram_unset@plt>
    b690:	e1a01005 	mov	r1, r5
    b694:	e1a00004 	mov	r0, r4
[31m    b698:	ebfffa97 	bl	a0fc <strcpy@plt>[0m
    b69c:	e1a00004 	mov	r0, r4
    b6a0:	ebfff972 	bl	9c70 <strlen@plt>
    b6a4:	e3a02006 	mov	r2, #6
    b6a8:	e59f16f4 	ldr	r1, [pc, #1780]	; bda4 <_start@@Base+0x1c84>
    b6ac:	e0840000 	add	r0, r4, r0
    b6b0:	ebfff91d 	bl	9b2c <memcpy@plt>
    b6b4:	e1a00004 	mov	r0, r4
    b6b8:	ebfff972 	bl	9c88 <nvram_unset@plt>
    b6bc:	e1a01005 	mov	r1, r5
    b6c0:	e1a00004 	mov	r0, r4
[31m    b6c4:	ebfffa8c 	bl	a0fc <strcpy@plt>[0m
    b6c8:	e1a00004 	mov	r0, r4
    b6cc:	ebfff967 	bl	9c70 <strlen@plt>
    b6d0:	e3a0200e 	mov	r2, #14
    b6d4:	e59f16cc 	ldr	r1, [pc, #1740]	; bda8 <_start@@Base+0x1c88>
    b6d8:	e0840000 	add	r0, r4, r0
    b6dc:	ebfff912 	bl	9b2c <memcpy@plt>
    b6e0:	e1a00004 	mov	r0, r4
    b6e4:	ebfff967 	bl	9c88 <nvram_unset@plt>
    b6e8:	e1a01005 	mov	r1, r5
    b6ec:	e1a00004 	mov	r0, r4
[31m    b6f0:	ebfffa81 	bl	a0fc <strcpy@plt>[0m
    b6f4:	e1a00004 	mov	r0, r4
    b6f8:	ebfff95c 	bl	9c70 <strlen@plt>
    b6fc:	e3a0200c 	mov	r2, #12
    b700:	e59f16a4 	ldr	r1, [pc, #1700]	; bdac <_start@@Base+0x1c8c>
    b704:	e0840000 	add	r0, r4, r0
    b708:	ebfff907 	bl	9b2c <memcpy@plt>
    b70c:	e1a00004 	mov	r0, r4
    b710:	ebfff95c 	bl	9c88 <nvram_unset@plt>
    b714:	e1a01005 	mov	r1, r5
    b718:	e1a00004 	mov	r0, r4
[31m    b71c:	ebfffa76 	bl	a0fc <strcpy@plt>[0m
    b720:	e1a00004 	mov	r0, r4
    b724:	ebfff951 	bl	9c70 <strlen@plt>
    b728:	e3a0200b 	mov	r2, #11
    b72c:	e59f167c 	ldr	r1, [pc, #1660]	; bdb0 <_start@@Base+0x1c90>
    b730:	e0840000 	add	r0, r4, r0
    b734:	ebfff8fc 	bl	9b2c <memcpy@plt>
    b738:	e1a00004 	mov	r0, r4
    b73c:	ebfff951 	bl	9c88 <nvram_unset@plt>
    b740:	e1a01005 	mov	r1, r5
    b744:	e1a00004 	mov	r0, r4
[31m    b748:	ebfffa6b 	bl	a0fc <strcpy@plt>[0m
    b74c:	e1a00004 	mov	r0, r4
    b750:	ebfff946 	bl	9c70 <strlen@plt>
    b754:	e3a02004 	mov	r2, #4
    b758:	e59f1654 	ldr	r1, [pc, #1620]	; bdb4 <_start@@Base+0x1c94>
    b75c:	e0840000 	add	r0, r4, r0
    b760:	ebfff8f1 	bl	9b2c <memcpy@plt>
    b764:	e1a00004 	mov	r0, r4
    b768:	ebfff946 	bl	9c88 <nvram_unset@plt>
    b76c:	e1a01005 	mov	r1, r5
    b770:	e1a00004 	mov	r0, r4
[31m    b774:	ebfffa60 	bl	a0fc <strcpy@plt>[0m
    b778:	e1a00004 	mov	r0, r4
    b77c:	ebfff93b 	bl	9c70 <strlen@plt>
    b780:	e3a02005 	mov	r2, #5
    b784:	e59f162c 	ldr	r1, [pc, #1580]	; bdb8 <_start@@Base+0x1c98>
    b788:	e0840000 	add	r0, r4, r0
    b78c:	ebfff8e6 	bl	9b2c <memcpy@plt>
    b790:	e1a00004 	mov	r0, r4
    b794:	ebfff93b 	bl	9c88 <nvram_unset@plt>
    b798:	e1a01005 	mov	r1, r5
    b79c:	e1a00004 	mov	r0, r4
[31m    b7a0:	ebfffa55 	bl	a0fc <strcpy@plt>[0m
    b7a4:	e1a00004 	mov	r0, r4
    b7a8:	ebfff930 	bl	9c70 <strlen@plt>
    b7ac:	e3a02005 	mov	r2, #5
    b7b0:	e59f1604 	ldr	r1, [pc, #1540]	; bdbc <_start@@Base+0x1c9c>
    b7b4:	e0840000 	add	r0, r4, r0
    b7b8:	ebfff8db 	bl	9b2c <memcpy@plt>
    b7bc:	e1a00004 	mov	r0, r4
    b7c0:	ebfff930 	bl	9c88 <nvram_unset@plt>
    b7c4:	e1a01005 	mov	r1, r5
    b7c8:	e1a00004 	mov	r0, r4
[31m    b7cc:	ebfffa4a 	bl	a0fc <strcpy@plt>[0m
    b7d0:	e1a00004 	mov	r0, r4
    b7d4:	ebfff925 	bl	9c70 <strlen@plt>
    b7d8:	e3a02005 	mov	r2, #5
    b7dc:	e59f15dc 	ldr	r1, [pc, #1500]	; bdc0 <_start@@Base+0x1ca0>
    b7e0:	e0840000 	add	r0, r4, r0
    b7e4:	ebfff8d0 	bl	9b2c <memcpy@plt>
    b7e8:	e1a00004 	mov	r0, r4
    b7ec:	ebfff925 	bl	9c88 <nvram_unset@plt>
    b7f0:	e1a01005 	mov	r1, r5
    b7f4:	e1a00004 	mov	r0, r4
[31m    b7f8:	ebfffa3f 	bl	a0fc <strcpy@plt>[0m
    b7fc:	e1a00004 	mov	r0, r4
    b800:	ebfff91a 	bl	9c70 <strlen@plt>
    b804:	e3a02005 	mov	r2, #5
    b808:	e59f15b4 	ldr	r1, [pc, #1460]	; bdc4 <_start@@Base+0x1ca4>
    b80c:	e0840000 	add	r0, r4, r0
    b810:	ebfff8c5 	bl	9b2c <memcpy@plt>
    b814:	e1a00004 	mov	r0, r4
    b818:	ebfff91a 	bl	9c88 <nvram_unset@plt>
    b81c:	e1a01005 	mov	r1, r5
    b820:	e1a00004 	mov	r0, r4
[31m    b824:	ebfffa34 	bl	a0fc <strcpy@plt>[0m
    b828:	e1a00004 	mov	r0, r4
    b82c:	ebfff90f 	bl	9c70 <strlen@plt>
    b830:	e3a0200e 	mov	r2, #14
    b834:	e59f158c 	ldr	r1, [pc, #1420]	; bdc8 <_start@@Base+0x1ca8>
    b838:	e0840000 	add	r0, r4, r0
    b83c:	ebfff8ba 	bl	9b2c <memcpy@plt>
    b840:	e1a00004 	mov	r0, r4
    b844:	ebfff90f 	bl	9c88 <nvram_unset@plt>
    b848:	e1a01005 	mov	r1, r5
    b84c:	e1a00004 	mov	r0, r4
[31m    b850:	ebfffa29 	bl	a0fc <strcpy@plt>[0m
    b854:	e1a00004 	mov	r0, r4
    b858:	ebfff904 	bl	9c70 <strlen@plt>
--
    ba4c:	e3500000 	cmp	r0, #0
    ba50:	0a00018a 	beq	c080 <_start@@Base+0x1f60>
    ba54:	e59f339c 	ldr	r3, [pc, #924]	; bdf8 <_start@@Base+0x1cd8>
    ba58:	e1a0c008 	mov	ip, r8
    ba5c:	e3a04000 	mov	r4, #0
    ba60:	e893000f 	ldm	r3, {r0, r1, r2, r3}
    ba64:	e8ac0007 	stmia	ip!, {r0, r1, r2}
    ba68:	e1a02823 	lsr	r2, r3, #16
    ba6c:	e1cc30b0 	strh	r3, [ip]
    ba70:	e5c8200e 	strb	r2, [r8, #14]
    ba74:	ea000001 	b	ba80 <_start@@Base+0x1960>
    ba78:	e3540c01 	cmp	r4, #256	; 0x100
    ba7c:	0a0002bd 	beq	c578 <_start@@Base+0x2458>
    ba80:	e1a03004 	mov	r3, r4
    ba84:	e59f239c 	ldr	r2, [pc, #924]	; be28 <_start@@Base+0x1d08>
    ba88:	e3a0100f 	mov	r1, #15
    ba8c:	e1a00008 	mov	r0, r8
    ba90:	ebfff88b 	bl	9cc4 <snprintf@plt>
    ba94:	e1a01008 	mov	r1, r8
    ba98:	e1a00007 	mov	r0, r7
[31m    ba9c:	ebfff996 	bl	a0fc <strcpy@plt>[0m
    baa0:	e1a00007 	mov	r0, r7
    baa4:	e2844001 	add	r4, r4, #1
--
    c224:	e3a0100e 	mov	r1, #14
    c228:	e51f2408 	ldr	r2, [pc, #-1032]	; be28 <_start@@Base+0x1d08>
    c22c:	e1a03009 	mov	r3, r9
    c230:	ebfff6a3 	bl	9cc4 <snprintf@plt>
    c234:	e59b4000 	ldr	r4, [fp]
    c238:	e3540000 	cmp	r4, #0
    c23c:	0a000015 	beq	c298 <_start@@Base+0x2178>
    c240:	e51f5370 	ldr	r5, [pc, #-880]	; bed8 <_start@@Base+0x1db8>
    c244:	ea000002 	b	c254 <_start@@Base+0x2134>
    c248:	e5b5400c 	ldr	r4, [r5, #12]!
    c24c:	e3540000 	cmp	r4, #0
    c250:	0a000010 	beq	c298 <_start@@Base+0x2178>
    c254:	e3a02004 	mov	r2, #4
    c258:	e1a00004 	mov	r0, r4
    c25c:	e51f13e0 	ldr	r1, [pc, #-992]	; be84 <_start@@Base+0x1d64>
    c260:	ebfff673 	bl	9c34 <strncmp@plt>
    c264:	e3500000 	cmp	r0, #0
    c268:	1afffff6 	bne	c248 <_start@@Base+0x2128>
    c26c:	e1a01008 	mov	r1, r8
    c270:	e1a00007 	mov	r0, r7
[31m    c274:	ebfff7a0 	bl	a0fc <strcpy@plt>[0m
    c278:	e2841004 	add	r1, r4, #4
    c27c:	e1a00007 	mov	r0, r7
--
    c578:	e1a00008 	mov	r0, r8
    c57c:	e3a0100f 	mov	r1, #15
    c580:	e51f2708 	ldr	r2, [pc, #-1800]	; be80 <_start@@Base+0x1d60>
    c584:	ebfff5ce 	bl	9cc4 <snprintf@plt>
    c588:	e59b4000 	ldr	r4, [fp]
    c58c:	e3540000 	cmp	r4, #0
    c590:	151f56c0 	ldrne	r5, [pc, #-1728]	; bed8 <_start@@Base+0x1db8>
    c594:	1a000003 	bne	c5a8 <_start@@Base+0x2488>
    c598:	ea000019 	b	c604 <_start@@Base+0x24e4>
    c59c:	e5b5400c 	ldr	r4, [r5, #12]!
    c5a0:	e3540000 	cmp	r4, #0
    c5a4:	0a000016 	beq	c604 <_start@@Base+0x24e4>
    c5a8:	e3a02004 	mov	r2, #4
    c5ac:	e1a00004 	mov	r0, r4
    c5b0:	e51f1734 	ldr	r1, [pc, #-1844]	; be84 <_start@@Base+0x1d64>
    c5b4:	ebfff59e 	bl	9c34 <strncmp@plt>
    c5b8:	e3500000 	cmp	r0, #0
    c5bc:	1afffff6 	bne	c59c <_start@@Base+0x247c>
    c5c0:	e1a01008 	mov	r1, r8
    c5c4:	e1a00007 	mov	r0, r7
[31m    c5c8:	ebfff6cb 	bl	a0fc <strcpy@plt>[0m
    c5cc:	e2841004 	add	r1, r4, #4
    c5d0:	e1a00007 	mov	r0, r7
    c5d4:	ebfff56f 	bl	9b98 <strcat@plt>
    c5d8:	e1a00007 	mov	r0, r7
    c5dc:	ebfff5dc 	bl	9d54 <nvram_get@plt>
    c5e0:	e3500000 	cmp	r0, #0
    c5e4:	1affffec 	bne	c59c <_start@@Base+0x247c>
    c5e8:	e5950000 	ldr	r0, [r5]
    c5ec:	ebfff5d8 	bl	9d54 <nvram_get@plt>
    c5f0:	e2501000 	subs	r1, r0, #0
    c5f4:	e1a00007 	mov	r0, r7
    c5f8:	05951004 	ldreq	r1, [r5, #4]
    c5fc:	ebfff6b2 	bl	a0cc <nvram_set@plt>
    c600:	eaffffe5 	b	c59c <_start@@Base+0x247c>
    c604:	e1a01008 	mov	r1, r8
    c608:	e1a00007 	mov	r0, r7
[31m    c60c:	ebfff6ba 	bl	a0fc <strcpy@plt>[0m
    c610:	e1a00007 	mov	r0, r7
    c614:	ebfff595 	bl	9c70 <strlen@plt>
    c618:	e3a02005 	mov	r2, #5
    c61c:	e51f179c 	ldr	r1, [pc, #-1948]	; be88 <_start@@Base+0x1d68>
    c620:	e0870000 	add	r0, r7, r0
    c624:	ebfff540 	bl	9b2c <memcpy@plt>
    c628:	e1a00007 	mov	r0, r7
    c62c:	e51f1760 	ldr	r1, [pc, #-1888]	; bed4 <_start@@Base+0x1db4>
    c630:	ebfff6a5 	bl	a0cc <nvram_set@plt>
    c634:	e1a01008 	mov	r1, r8
    c638:	e1a00007 	mov	r0, r7
[31m    c63c:	ebfff6ae 	bl	a0fc <strcpy@plt>[0m
    c640:	e1a00007 	mov	r0, r7
    c644:	ebfff589 	bl	9c70 <strlen@plt>
    c648:	e3a02005 	mov	r2, #5
    c64c:	e51f17c8 	ldr	r1, [pc, #-1992]	; be8c <_start@@Base+0x1d6c>
    c650:	e0870000 	add	r0, r7, r0
    c654:	ebfff534 	bl	9b2c <memcpy@plt>
    c658:	e1a00007 	mov	r0, r7
    c65c:	e51f17d4 	ldr	r1, [pc, #-2004]	; be90 <_start@@Base+0x1d70>
    c660:	ebfff699 	bl	a0cc <nvram_set@plt>
    c664:	e1a01008 	mov	r1, r8
    c668:	e1a00007 	mov	r0, r7
[31m    c66c:	ebfff6a2 	bl	a0fc <strcpy@plt>[0m
    c670:	e1a00007 	mov	r0, r7
    c674:	ebfff57d 	bl	9c70 <strlen@plt>
--
    dbb8:	aaffffdc 	bge	db30 <_start@@Base+0x3a10>
    dbbc:	e59f0020 	ldr	r0, [pc, #32]	; dbe4 <_start@@Base+0x3ac4>
    dbc0:	ebfff0de 	bl	9f40 <perror@plt>
    dbc4:	e3e00000 	mvn	r0, #0
    dbc8:	eafffff2 	b	db98 <_start@@Base+0x3a78>
    dbcc:	e59f0014 	ldr	r0, [pc, #20]	; dbe8 <_start@@Base+0x3ac8>
    dbd0:	ebfff0da 	bl	9f40 <perror@plt>
    dbd4:	e3e00000 	mvn	r0, #0
    dbd8:	eaffffee 	b	db98 <_start@@Base+0x3a78>
    dbdc:	00026370 	andeq	r6, r2, r0, ror r3
    dbe0:	0001b7e0 	andeq	fp, r1, r0, ror #15
    dbe4:	0001b904 	andeq	fp, r1, r4, lsl #18
    dbe8:	0001b90c 	andeq	fp, r1, ip, lsl #18
    dbec:	e92d4ff0 	push	{r4, r5, r6, r7, r8, r9, sl, fp, lr}
    dbf0:	e24dd0d4 	sub	sp, sp, #212	; 0xd4
    dbf4:	e28d4010 	add	r4, sp, #16
    dbf8:	e1a05000 	mov	r5, r0
    dbfc:	e1a00004 	mov	r0, r4
    dc00:	e58d100c 	str	r1, [sp, #12]
    dc04:	e1a01005 	mov	r1, r5
[31m    dc08:	ebfff13b 	bl	a0fc <strcpy@plt>[0m
    dc0c:	e1a00004 	mov	r0, r4
    dc10:	ebfff016 	bl	9c70 <strlen@plt>
    dc14:	e3a02006 	mov	r2, #6
    dc18:	e59f11c0 	ldr	r1, [pc, #448]	; dde0 <_start@@Base+0x3cc0>
    dc1c:	e0840000 	add	r0, r4, r0
    dc20:	ebffefc1 	bl	9b2c <memcpy@plt>
    dc24:	e1a00004 	mov	r0, r4
    dc28:	ebfff049 	bl	9d54 <nvram_get@plt>
    dc2c:	e3500000 	cmp	r0, #0
    dc30:	e1a01005 	mov	r1, r5
    dc34:	e59f51a8 	ldr	r5, [pc, #424]	; dde4 <_start@@Base+0x3cc4>
    dc38:	11a05000 	movne	r5, r0
    dc3c:	e1a00004 	mov	r0, r4
[31m    dc40:	ebfff12d 	bl	a0fc <strcpy@plt>[0m
    dc44:	e1a00004 	mov	r0, r4
    dc48:	ebfff008 	bl	9c70 <strlen@plt>
--
    ddbc:	e5cd60c3 	strb	r6, [sp, #195]	; 0xc3
    ddc0:	ebfff0af 	bl	a084 <strchr@plt>
    ddc4:	e5dd3074 	ldrb	r3, [sp, #116]	; 0x74
    ddc8:	e1a04000 	mov	r4, r0
    ddcc:	e3530000 	cmp	r3, #0
    ddd0:	1affffc0 	bne	dcd8 <_start@@Base+0x3bb8>
    ddd4:	e3a00000 	mov	r0, #0
    ddd8:	e28dd0d4 	add	sp, sp, #212	; 0xd4
    dddc:	e8bd8ff0 	pop	{r4, r5, r6, r7, r8, r9, sl, fp, pc}
    dde0:	0001b920 	andeq	fp, r1, r0, lsr #18
    dde4:	0001c28c 	andeq	ip, r1, ip, lsl #5
    dde8:	0001d388 	andeq	sp, r1, r8, lsl #7
    ddec:	0001b928 	andeq	fp, r1, r8, lsr #18
    ddf0:	e92d4ff0 	push	{r4, r5, r6, r7, r8, r9, sl, fp, lr}
    ddf4:	e24dd0d4 	sub	sp, sp, #212	; 0xd4
    ddf8:	e28d4010 	add	r4, sp, #16
    ddfc:	e1a05000 	mov	r5, r0
    de00:	e1a00004 	mov	r0, r4
    de04:	e58d100c 	str	r1, [sp, #12]
    de08:	e1a01005 	mov	r1, r5
[31m    de0c:	ebfff0ba 	bl	a0fc <strcpy@plt>[0m
    de10:	e1a00004 	mov	r0, r4
    de14:	ebffef95 	bl	9c70 <strlen@plt>
    de18:	e3a02006 	mov	r2, #6
    de1c:	e59f11c0 	ldr	r1, [pc, #448]	; dfe4 <_start@@Base+0x3ec4>
    de20:	e0840000 	add	r0, r4, r0
    de24:	ebffef40 	bl	9b2c <memcpy@plt>
    de28:	e1a00004 	mov	r0, r4
    de2c:	ebffefc8 	bl	9d54 <nvram_get@plt>
    de30:	e3500000 	cmp	r0, #0
    de34:	e1a01005 	mov	r1, r5
    de38:	e59f51a8 	ldr	r5, [pc, #424]	; dfe8 <_start@@Base+0x3ec8>
    de3c:	11a05000 	movne	r5, r0
    de40:	e1a00004 	mov	r0, r4
[31m    de44:	ebfff0ac 	bl	a0fc <strcpy@plt>[0m
    de48:	e1a00004 	mov	r0, r4
    de4c:	ebffef87 	bl	9c70 <strlen@plt>
--
    f370:	ebffea2f 	bl	9c34 <strncmp@plt>
    f374:	e2505000 	subs	r5, r0, #0
    f378:	1affffdd 	bne	f2f4 <_start@@Base+0x51d4>
    f37c:	e59f11ac 	ldr	r1, [pc, #428]	; f530 <_start@@Base+0x5410>
    f380:	e1a00006 	mov	r0, r6
    f384:	ebffe9fd 	bl	9b80 <strspn@plt>
    f388:	e28d4068 	add	r4, sp, #104	; 0x68
    f38c:	e0866000 	add	r6, r6, r0
    f390:	e3a02050 	mov	r2, #80	; 0x50
    f394:	e1a01006 	mov	r1, r6
    f398:	e1a00004 	mov	r0, r4
    f39c:	ea000028 	b	f444 <_start@@Base+0x5324>
    f3a0:	e59f118c 	ldr	r1, [pc, #396]	; f534 <_start@@Base+0x5414>
    f3a4:	e3a02002 	mov	r2, #2
    f3a8:	e1a00004 	mov	r0, r4
    f3ac:	ebffea20 	bl	9c34 <strncmp@plt>
    f3b0:	e3500000 	cmp	r0, #0
    f3b4:	e1a01004 	mov	r1, r4
    f3b8:	e1a00007 	mov	r0, r7
    f3bc:	1a00000d 	bne	f3f8 <_start@@Base+0x52d8>
[31m    f3c0:	ebffeb4d 	bl	a0fc <strcpy@plt>[0m
    f3c4:	e1a00007 	mov	r0, r7
    f3c8:	ebffea28 	bl	9c70 <strlen@plt>
--
    ff40:	e59f1c14 	ldr	r1, [pc, #3092]	; 10b5c <_start@@Base+0x6a3c>
    ff44:	e1a00004 	mov	r0, r4
    ff48:	ebffe808 	bl	9f70 <strcspn@plt>
    ff4c:	e28dcfce 	add	ip, sp, #824	; 0x338
    ff50:	e3a01020 	mov	r1, #32
    ff54:	e08c3000 	add	r3, ip, r0
    ff58:	e1a00006 	mov	r0, r6
    ff5c:	e54351c0 	strb	r5, [r3, #-448]	; 0xfffffe40
    ff60:	e5cd51c7 	strb	r5, [sp, #455]	; 0x1c7
    ff64:	ebffe846 	bl	a084 <strchr@plt>
    ff68:	e5dd3178 	ldrb	r3, [sp, #376]	; 0x178
    ff6c:	e1a05000 	mov	r5, r0
    ff70:	e3530000 	cmp	r3, #0
    ff74:	0a000146 	beq	10494 <_start@@Base+0x6374>
    ff78:	e1a0b00a 	mov	fp, sl
    ff7c:	e1a0a007 	mov	sl, r7
    ff80:	ea00002a 	b	10030 <_start@@Base+0x5f10>
    ff84:	e28d6f45 	add	r6, sp, #276	; 0x114
    ff88:	e1a01004 	mov	r1, r4
    ff8c:	e1a00006 	mov	r0, r6
[31m    ff90:	ebffe859 	bl	a0fc <strcpy@plt>[0m
    ff94:	e1a00006 	mov	r0, r6
    ff98:	ebffe734 	bl	9c70 <strlen@plt>
--
   10300:	e3500000 	cmp	r0, #0
   10304:	0a000003 	beq	10318 <_start@@Base+0x61f8>
   10308:	e59f1880 	ldr	r1, [pc, #2176]	; 10b90 <_start@@Base+0x6a70>
   1030c:	ebffe744 	bl	a024 <strcmp@plt>
   10310:	e3500000 	cmp	r0, #0
   10314:	0a00017b 	beq	10908 <_start@@Base+0x67e8>
   10318:	e59f0874 	ldr	r0, [pc, #2164]	; 10b94 <_start@@Base+0x6a74>
   1031c:	ebffe68c 	bl	9d54 <nvram_get@plt>
   10320:	e3500000 	cmp	r0, #0
   10324:	e1a01004 	mov	r1, r4
   10328:	01a00009 	moveq	r0, r9
   1032c:	ebffe739 	bl	a018 <strstr@plt>
   10330:	e3500000 	cmp	r0, #0
   10334:	0a00001b 	beq	103a8 <_start@@Base+0x6288>
   10338:	e59de008 	ldr	lr, [sp, #8]
   1033c:	e30b19f0 	movw	r1, #47600	; 0xb9f0
   10340:	e3401001 	movt	r1, #1
   10344:	e1a00004 	mov	r0, r4
   10348:	e35e0000 	cmp	lr, #0
   1034c:	11a01009 	movne	r1, r9
[31m   10350:	ebffe769 	bl	a0fc <strcpy@plt>[0m
   10354:	e59d3008 	ldr	r3, [sp, #8]
   10358:	e3a00002 	mov	r0, #2
--
   10724:	e3a07000 	mov	r7, #0
   10728:	ebffe5d4 	bl	9e80 <strncpy@plt>
   1072c:	e59f1428 	ldr	r1, [pc, #1064]	; 10b5c <_start@@Base+0x6a3c>
   10730:	e1a00004 	mov	r0, r4
   10734:	ebffe60d 	bl	9f70 <strcspn@plt>
   10738:	e28d2fce 	add	r2, sp, #824	; 0x338
   1073c:	e3a01020 	mov	r1, #32
   10740:	e0823000 	add	r3, r2, r0
   10744:	e1a00005 	mov	r0, r5
   10748:	e54371c0 	strb	r7, [r3, #-448]	; 0xfffffe40
   1074c:	e5cd71c7 	strb	r7, [sp, #455]	; 0x1c7
   10750:	ebffe64b 	bl	a084 <strchr@plt>
   10754:	e5dd3178 	ldrb	r3, [sp, #376]	; 0x178
   10758:	e1a06000 	mov	r6, r0
   1075c:	e1530007 	cmp	r3, r7
   10760:	0a00001e 	beq	107e0 <_start@@Base+0x66c0>
   10764:	e28d3f96 	add	r3, sp, #600	; 0x258
   10768:	e283500c 	add	r5, r3, #12
   1076c:	e1a01004 	mov	r1, r4
   10770:	e1a00005 	mov	r0, r5
[31m   10774:	ebffe660 	bl	a0fc <strcpy@plt>[0m
   10778:	e3560000 	cmp	r6, #0
   1077c:	e1a00006 	mov	r0, r6
--
   10f98:	e5c4200e 	strb	r2, [r4, #14]
   10f9c:	eb0024e2 	bl	1a32c <_start@@Base+0x1020c>
   10fa0:	e2505000 	subs	r5, r0, #0
   10fa4:	ba000002 	blt	10fb4 <_start@@Base+0x6e94>
   10fa8:	e1a00005 	mov	r0, r5
   10fac:	e28dd07c 	add	sp, sp, #124	; 0x7c
   10fb0:	e8bd80f0 	pop	{r4, r5, r6, r7, pc}
   10fb4:	e3a05000 	mov	r5, #0
   10fb8:	e28d7004 	add	r7, sp, #4
   10fbc:	ea000002 	b	10fcc <_start@@Base+0x6eac>
   10fc0:	e2855001 	add	r5, r5, #1
   10fc4:	e3550c01 	cmp	r5, #256	; 0x100
   10fc8:	0a000038 	beq	110b0 <_start@@Base+0x6f90>
   10fcc:	e1a03005 	mov	r3, r5
   10fd0:	e59f20e4 	ldr	r2, [pc, #228]	; 110bc <_start@@Base+0x6f9c>
   10fd4:	e3a0100f 	mov	r1, #15
   10fd8:	e1a00004 	mov	r0, r4
   10fdc:	ebffe338 	bl	9cc4 <snprintf@plt>
   10fe0:	e1a01004 	mov	r1, r4
   10fe4:	e1a00007 	mov	r0, r7
[31m   10fe8:	ebffe443 	bl	a0fc <strcpy@plt>[0m
   10fec:	e1a00007 	mov	r0, r7
   10ff0:	ebffe31e 	bl	9c70 <strlen@plt>
   10ff4:	e59f10c4 	ldr	r1, [pc, #196]	; 110c0 <_start@@Base+0x6fa0>
   10ff8:	e3a02007 	mov	r2, #7
   10ffc:	e0870000 	add	r0, r7, r0
   11000:	ebffe2c9 	bl	9b2c <memcpy@plt>
   11004:	e1a00007 	mov	r0, r7
   11008:	ebffe351 	bl	9d54 <nvram_get@plt>
   1100c:	e3500000 	cmp	r0, #0
   11010:	e1a01006 	mov	r1, r6
   11014:	0affffe9 	beq	10fc0 <_start@@Base+0x6ea0>
   11018:	ebffe401 	bl	a024 <strcmp@plt>
   1101c:	e3500000 	cmp	r0, #0
   11020:	1affffe6 	bne	10fc0 <_start@@Base+0x6ea0>
   11024:	e1a01004 	mov	r1, r4
   11028:	e1a00007 	mov	r0, r7
[31m   1102c:	ebffe432 	bl	a0fc <strcpy@plt>[0m
   11030:	e1a00007 	mov	r0, r7
   11034:	ebffe30d 	bl	9c70 <strlen@plt>
   11038:	e59f1084 	ldr	r1, [pc, #132]	; 110c4 <_start@@Base+0x6fa4>
   1103c:	e3a02006 	mov	r2, #6
   11040:	e0870000 	add	r0, r7, r0
   11044:	ebffe2b8 	bl	9b2c <memcpy@plt>
   11048:	e1a00007 	mov	r0, r7
   1104c:	ebffe340 	bl	9d54 <nvram_get@plt>
   11050:	e3500000 	cmp	r0, #0
   11054:	e59f106c 	ldr	r1, [pc, #108]	; 110c8 <_start@@Base+0x6fa8>
   11058:	0a000002 	beq	11068 <_start@@Base+0x6f48>
   1105c:	ebffe3f0 	bl	a024 <strcmp@plt>
   11060:	e3500000 	cmp	r0, #0
   11064:	0affffcf 	beq	10fa8 <_start@@Base+0x6e88>
   11068:	e1a01004 	mov	r1, r4
   1106c:	e1a00007 	mov	r0, r7
[31m   11070:	ebffe421 	bl	a0fc <strcpy@plt>[0m
   11074:	e1a00007 	mov	r0, r7
   11078:	ebffe2fc 	bl	9c70 <strlen@plt>
--
   11160:	e92d4ff0 	push	{r4, r5, r6, r7, r8, r9, sl, fp, lr}
   11164:	e1a05000 	mov	r5, r0
   11168:	e59f43d4 	ldr	r4, [pc, #980]	; 11544 <_start@@Base+0x7424>
   1116c:	e24ddf75 	sub	sp, sp, #468	; 0x1d4
   11170:	e28dcd07 	add	ip, sp, #448	; 0x1c0
   11174:	e1a0600c 	mov	r6, ip
   11178:	e894000f 	ldm	r4, {r0, r1, r2, r3}
   1117c:	e8ac0007 	stmia	ip!, {r0, r1, r2}
   11180:	e1a00005 	mov	r0, r5
   11184:	e1a02823 	lsr	r2, r3, #16
   11188:	e0cc30b2 	strh	r3, [ip], #2
   1118c:	e1a01006 	mov	r1, r6
   11190:	e5cc2000 	strb	r2, [ip]
   11194:	ebffffcd 	bl	110d0 <_start@@Base+0x6fb0>
   11198:	e3500000 	cmp	r0, #0
   1119c:	ba0000c9 	blt	114c8 <_start@@Base+0x73a8>
   111a0:	e28d7f4f 	add	r7, sp, #316	; 0x13c
   111a4:	e1a01006 	mov	r1, r6
   111a8:	e1a00007 	mov	r0, r7
   111ac:	e59f8394 	ldr	r8, [pc, #916]	; 11548 <_start@@Base+0x7428>
[31m   111b0:	ebffe3d1 	bl	a0fc <strcpy@plt>[0m
   111b4:	e1a00007 	mov	r0, r7
   111b8:	ebffe2ac 	bl	9c70 <strlen@plt>
   111bc:	e3a02006 	mov	r2, #6
   111c0:	e59f1384 	ldr	r1, [pc, #900]	; 1154c <_start@@Base+0x742c>
   111c4:	e0870000 	add	r0, r7, r0
   111c8:	ebffe257 	bl	9b2c <memcpy@plt>
   111cc:	e1a00007 	mov	r0, r7
   111d0:	ebffe2df 	bl	9d54 <nvram_get@plt>
   111d4:	e3500000 	cmp	r0, #0
   111d8:	e1a01005 	mov	r1, r5
   111dc:	11a02000 	movne	r2, r0
   111e0:	01a02008 	moveq	r2, r8
   111e4:	e59f0364 	ldr	r0, [pc, #868]	; 11550 <_start@@Base+0x7430>
   111e8:	ebffe3ab 	bl	a09c <printf@plt>
   111ec:	e1a01006 	mov	r1, r6
   111f0:	e1a00007 	mov	r0, r7
[31m   111f4:	ebffe3c0 	bl	a0fc <strcpy@plt>[0m
   111f8:	e1a00007 	mov	r0, r7
   111fc:	ebffe29b 	bl	9c70 <strlen@plt>
--
   112dc:	e3a01064 	mov	r1, #100	; 0x64
   112e0:	e1a0200b 	mov	r2, fp
   112e4:	ebffe2d9 	bl	9e50 <fgets@plt>
   112e8:	e2505000 	subs	r5, r0, #0
   112ec:	0a00005c 	beq	11464 <_start@@Base+0x7344>
   112f0:	e1a00008 	mov	r0, r8
   112f4:	e59f1270 	ldr	r1, [pc, #624]	; 1156c <_start@@Base+0x744c>
   112f8:	ebffe2b6 	bl	9dd8 <strtok@plt>
   112fc:	e3500000 	cmp	r0, #0
   11300:	0afffff4 	beq	112d8 <_start@@Base+0x71b8>
   11304:	e59f1264 	ldr	r1, [pc, #612]	; 11570 <_start@@Base+0x7450>
   11308:	ebffe345 	bl	a024 <strcmp@plt>
   1130c:	e3500000 	cmp	r0, #0
   11310:	1afffff0 	bne	112d8 <_start@@Base+0x71b8>
   11314:	e59f1250 	ldr	r1, [pc, #592]	; 1156c <_start@@Base+0x744c>
   11318:	ebffe2ae 	bl	9dd8 <strtok@plt>
   1131c:	e250a000 	subs	sl, r0, #0
   11320:	0affffec 	beq	112d8 <_start@@Base+0x71b8>
   11324:	e1a01009 	mov	r1, r9
   11328:	e1a00004 	mov	r0, r4
[31m   1132c:	ebffe372 	bl	a0fc <strcpy@plt>[0m
   11330:	e1a00004 	mov	r0, r4
   11334:	e30c528c 	movw	r5, #49804	; 0xc28c
   11338:	ebffe24c 	bl	9c70 <strlen@plt>
   1133c:	e3a02004 	mov	r2, #4
   11340:	e59f122c 	ldr	r1, [pc, #556]	; 11574 <_start@@Base+0x7454>
   11344:	e0840000 	add	r0, r4, r0
   11348:	e3405001 	movt	r5, #1
   1134c:	ebffe1f6 	bl	9b2c <memcpy@plt>
   11350:	e1a00004 	mov	r0, r4
   11354:	ebffe27e 	bl	9d54 <nvram_get@plt>
   11358:	e3500000 	cmp	r0, #0
   1135c:	e1a01009 	mov	r1, r9
   11360:	11a05000 	movne	r5, r0
   11364:	e1a00004 	mov	r0, r4
[31m   11368:	ebffe363 	bl	a0fc <strcpy@plt>[0m
   1136c:	e1a00004 	mov	r0, r4
   11370:	ebffe23e 	bl	9c70 <strlen@plt>
--
   11488:	e3a01064 	mov	r1, #100	; 0x64
   1148c:	e59f20ec 	ldr	r2, [pc, #236]	; 11580 <_start@@Base+0x7460>
   11490:	e3a03001 	mov	r3, #1
   11494:	e1a00004 	mov	r0, r4
   11498:	ebffe209 	bl	9cc4 <snprintf@plt>
   1149c:	e59fc0e0 	ldr	ip, [pc, #224]	; 11584 <_start@@Base+0x7464>
   114a0:	e1a02005 	mov	r2, r5
   114a4:	e28d0e1a 	add	r0, sp, #416	; 0x1a0
   114a8:	e59f10d8 	ldr	r1, [pc, #216]	; 11588 <_start@@Base+0x7468>
   114ac:	e1a03005 	mov	r3, r5
   114b0:	e58d41a4 	str	r4, [sp, #420]	; 0x1a4
   114b4:	e58dc1a0 	str	ip, [sp, #416]	; 0x1a0
   114b8:	e59fc0cc 	ldr	ip, [pc, #204]	; 1158c <_start@@Base+0x746c>
   114bc:	e58d51ac 	str	r5, [sp, #428]	; 0x1ac
   114c0:	e58dc1a8 	str	ip, [sp, #424]	; 0x1a8
   114c4:	ebffe279 	bl	9eb0 <_eval@plt>
   114c8:	e28ddf75 	add	sp, sp, #468	; 0x1d4
   114cc:	e8bd8ff0 	pop	{r4, r5, r6, r7, r8, r9, sl, fp, pc}
   114d0:	e1a01006 	mov	r1, r6
   114d4:	e1a00007 	mov	r0, r7
[31m   114d8:	ebffe307 	bl	a0fc <strcpy@plt>[0m
   114dc:	e1a00007 	mov	r0, r7
   114e0:	ebffe1e2 	bl	9c70 <strlen@plt>
--
   1159c:	0001bd7c 	andeq	fp, r1, ip, ror sp
   115a0:	e92d4ff0 	push	{r4, r5, r6, r7, r8, r9, sl, fp, lr}
   115a4:	e1a05000 	mov	r5, r0
   115a8:	e59fb78c 	ldr	fp, [pc, #1932]	; 11d3c <_start@@Base+0x7c1c>
   115ac:	e24ddf81 	sub	sp, sp, #516	; 0x204
   115b0:	e28dce1f 	add	ip, sp, #496	; 0x1f0
   115b4:	e1a0400c 	mov	r4, ip
   115b8:	e89b000f 	ldm	fp, {r0, r1, r2, r3}
   115bc:	e8ac0007 	stmia	ip!, {r0, r1, r2}
   115c0:	e1a00005 	mov	r0, r5
   115c4:	e1a02823 	lsr	r2, r3, #16
   115c8:	e0cc30b2 	strh	r3, [ip], #2
   115cc:	e1a01004 	mov	r1, r4
   115d0:	e5cc2000 	strb	r2, [ip]
   115d4:	ebfffebd 	bl	110d0 <_start@@Base+0x6fb0>
   115d8:	e3500000 	cmp	r0, #0
   115dc:	ba000171 	blt	11ba8 <_start@@Base+0x7a88>
   115e0:	e28d6f52 	add	r6, sp, #328	; 0x148
   115e4:	e1a01004 	mov	r1, r4
   115e8:	e1a00006 	mov	r0, r6
[31m   115ec:	ebffe2c2 	bl	a0fc <strcpy@plt>[0m
   115f0:	e1a00006 	mov	r0, r6
   115f4:	ebffe19d 	bl	9c70 <strlen@plt>
   115f8:	e3a02006 	mov	r2, #6
   115fc:	e59f173c 	ldr	r1, [pc, #1852]	; 11d40 <_start@@Base+0x7c20>
   11600:	e0860000 	add	r0, r6, r0
   11604:	ebffe148 	bl	9b2c <memcpy@plt>
   11608:	e1a00006 	mov	r0, r6
   1160c:	ebffe1d0 	bl	9d54 <nvram_get@plt>
   11610:	e1a01004 	mov	r1, r4
   11614:	e1a00006 	mov	r0, r6
[31m   11618:	ebffe2b7 	bl	a0fc <strcpy@plt>[0m
   1161c:	e1a00006 	mov	r0, r6
   11620:	ebffe192 	bl	9c70 <strlen@plt>
--
   11664:	e89b000f 	ldm	fp, {r0, r1, r2, r3}
   11668:	e28dce1e 	add	ip, sp, #480	; 0x1e0
   1166c:	e8ac0007 	stmia	ip!, {r0, r1, r2}
   11670:	e1a00005 	mov	r0, r5
   11674:	e1a02823 	lsr	r2, r3, #16
   11678:	e0cc30b2 	strh	r3, [ip], #2
   1167c:	e28d1e1e 	add	r1, sp, #480	; 0x1e0
   11680:	e5cc2000 	strb	r2, [ip]
   11684:	ebfffe91 	bl	110d0 <_start@@Base+0x6fb0>
   11688:	e3500000 	cmp	r0, #0
   1168c:	ba000084 	blt	118a4 <_start@@Base+0x7784>
   11690:	e59f06b4 	ldr	r0, [pc, #1716]	; 11d4c <_start@@Base+0x7c2c>
   11694:	e59f16b4 	ldr	r1, [pc, #1716]	; 11d50 <_start@@Base+0x7c30>
   11698:	ebffe1bc 	bl	9d90 <fopen@plt>
   1169c:	e2507000 	subs	r7, r0, #0
   116a0:	0a0001a2 	beq	11d30 <_start@@Base+0x7c10>
   116a4:	e28d90e4 	add	r9, sp, #228	; 0xe4
   116a8:	e28d1e1e 	add	r1, sp, #480	; 0x1e0
   116ac:	e1a00009 	mov	r0, r9
   116b0:	e3a0a000 	mov	sl, #0
[31m   116b4:	ebffe290 	bl	a0fc <strcpy@plt>[0m
   116b8:	e1a00009 	mov	r0, r9
   116bc:	e59f8690 	ldr	r8, [pc, #1680]	; 11d54 <_start@@Base+0x7c34>
   116c0:	ebffe16a 	bl	9c70 <strlen@plt>
   116c4:	e3a02004 	mov	r2, #4
   116c8:	e59f1688 	ldr	r1, [pc, #1672]	; 11d58 <_start@@Base+0x7c38>
   116cc:	e0890000 	add	r0, r9, r0
   116d0:	e28d4080 	add	r4, sp, #128	; 0x80
   116d4:	ebffe114 	bl	9b2c <memcpy@plt>
   116d8:	e1a00009 	mov	r0, r9
   116dc:	ebffe19c 	bl	9d54 <nvram_get@plt>
   116e0:	e150000a 	cmp	r0, sl
   116e4:	e28d1e1e 	add	r1, sp, #480	; 0x1e0
   116e8:	11a06000 	movne	r6, r0
   116ec:	e1a00009 	mov	r0, r9
   116f0:	01a06008 	moveq	r6, r8
[31m   116f4:	ebffe280 	bl	a0fc <strcpy@plt>[0m
   116f8:	e1a00009 	mov	r0, r9
   116fc:	ebffe15b 	bl	9c70 <strlen@plt>
--
   118a4:	eb000a9f 	bl	14328 <_start@@Base+0xa208>
   118a8:	e1a00005 	mov	r0, r5
   118ac:	e28d6e1e 	add	r6, sp, #480	; 0x1e0
   118b0:	eb001a7e 	bl	182b0 <_start@@Base+0xe190>
   118b4:	eb0018f1 	bl	17c80 <_start@@Base+0xdb60>
   118b8:	e89b000f 	ldm	fp, {r0, r1, r2, r3}
   118bc:	e59dc00c 	ldr	ip, [sp, #12]
   118c0:	e8ac0007 	stmia	ip!, {r0, r1, r2}
   118c4:	e1a02823 	lsr	r2, r3, #16
   118c8:	e1a00005 	mov	r0, r5
   118cc:	e1cc30b0 	strh	r3, [ip]
   118d0:	e1a01006 	mov	r1, r6
   118d4:	e5cd21ee 	strb	r2, [sp, #494]	; 0x1ee
   118d8:	ebfffdfc 	bl	110d0 <_start@@Base+0x6fb0>
   118dc:	e3500000 	cmp	r0, #0
   118e0:	ba0000b0 	blt	11ba8 <_start@@Base+0x7a88>
   118e4:	e28d4080 	add	r4, sp, #128	; 0x80
   118e8:	e1a01006 	mov	r1, r6
   118ec:	e1a00004 	mov	r0, r4
   118f0:	e59f745c 	ldr	r7, [pc, #1116]	; 11d54 <_start@@Base+0x7c34>
[31m   118f4:	ebffe200 	bl	a0fc <strcpy@plt>[0m
   118f8:	e1a00004 	mov	r0, r4
   118fc:	ebffe0db 	bl	9c70 <strlen@plt>
--
   11b68:	e1500004 	cmp	r0, r4
   11b6c:	0a000003 	beq	11b80 <_start@@Base+0x7a60>
   11b70:	e59f1270 	ldr	r1, [pc, #624]	; 11de8 <_start@@Base+0x7cc8>
   11b74:	ebffe12a 	bl	a024 <strcmp@plt>
   11b78:	e1500004 	cmp	r0, r4
   11b7c:	0a000065 	beq	11d18 <_start@@Base+0x7bf8>
   11b80:	e59f0264 	ldr	r0, [pc, #612]	; 11dec <_start@@Base+0x7ccc>
   11b84:	ebffe072 	bl	9d54 <nvram_get@plt>
   11b88:	e59f31c4 	ldr	r3, [pc, #452]	; 11d54 <_start@@Base+0x7c34>
   11b8c:	e3500000 	cmp	r0, #0
   11b90:	01a00003 	moveq	r0, r3
   11b94:	ebffe06e 	bl	9d54 <nvram_get@plt>
   11b98:	e59f31b4 	ldr	r3, [pc, #436]	; 11d54 <_start@@Base+0x7c34>
   11b9c:	e3500000 	cmp	r0, #0
   11ba0:	01a00003 	moveq	r0, r3
   11ba4:	eb0021b0 	bl	1a26c <_start@@Base+0x1014c>
   11ba8:	e28ddf81 	add	sp, sp, #516	; 0x204
   11bac:	e8bd8ff0 	pop	{r4, r5, r6, r7, r8, r9, sl, fp, pc}
   11bb0:	e1a01004 	mov	r1, r4
   11bb4:	e1a00006 	mov	r0, r6
[31m   11bb8:	ebffe14f 	bl	a0fc <strcpy@plt>[0m
   11bbc:	e1a00006 	mov	r0, r6
   11bc0:	ebffe02a 	bl	9c70 <strlen@plt>
--
   11e0c:	e59f30b0 	ldr	r3, [pc, #176]	; 11ec4 <_start@@Base+0x7da4>
   11e10:	e92d4070 	push	{r4, r5, r6, lr}
   11e14:	e1a04000 	mov	r4, r0
   11e18:	e24dd080 	sub	sp, sp, #128	; 0x80
   11e1c:	e28dc070 	add	ip, sp, #112	; 0x70
   11e20:	e893000f 	ldm	r3, {r0, r1, r2, r3}
   11e24:	e1a0500c 	mov	r5, ip
   11e28:	e8ac0007 	stmia	ip!, {r0, r1, r2}
   11e2c:	e1a00004 	mov	r0, r4
   11e30:	e1a02823 	lsr	r2, r3, #16
   11e34:	e1a01005 	mov	r1, r5
   11e38:	e0cc30b2 	strh	r3, [ip], #2
   11e3c:	e5cc2000 	strb	r2, [ip]
   11e40:	ebfffca2 	bl	110d0 <_start@@Base+0x6fb0>
   11e44:	e3500000 	cmp	r0, #0
   11e48:	b3e00000 	mvnlt	r0, #0
   11e4c:	ba000014 	blt	11ea4 <_start@@Base+0x7d84>
   11e50:	e28d600c 	add	r6, sp, #12
   11e54:	e1a01005 	mov	r1, r5
   11e58:	e1a00006 	mov	r0, r6
[31m   11e5c:	ebffe0a6 	bl	a0fc <strcpy@plt>[0m
   11e60:	e1a00006 	mov	r0, r6
   11e64:	ebffdf81 	bl	9c70 <strlen@plt>
--
   11f38:	e28d4020 	add	r4, sp, #32
   11f3c:	ebffdf24 	bl	9bd4 <symlink@plt>
   11f40:	e59f1c84 	ldr	r1, [pc, #3204]	; 12bcc <_start@@Base+0x8aac>
   11f44:	e1a06007 	mov	r6, r7
   11f48:	e59f0c78 	ldr	r0, [pc, #3192]	; 12bc8 <_start@@Base+0x8aa8>
   11f4c:	ebffdf20 	bl	9bd4 <symlink@plt>
   11f50:	e59f1c78 	ldr	r1, [pc, #3192]	; 12bd0 <_start@@Base+0x8ab0>
   11f54:	e59f0c6c 	ldr	r0, [pc, #3180]	; 12bc8 <_start@@Base+0x8aa8>
   11f58:	ebffdf1d 	bl	9bd4 <symlink@plt>
   11f5c:	ea000002 	b	11f6c <_start@@Base+0x7e4c>
   11f60:	e2877001 	add	r7, r7, #1
   11f64:	e3570c01 	cmp	r7, #256	; 0x100
   11f68:	0a000069 	beq	12114 <_start@@Base+0x7ff4>
   11f6c:	e1a03007 	mov	r3, r7
   11f70:	e59f2c5c 	ldr	r2, [pc, #3164]	; 12bd4 <_start@@Base+0x8ab4>
   11f74:	e3a0100f 	mov	r1, #15
   11f78:	e1a00008 	mov	r0, r8
   11f7c:	ebffdf50 	bl	9cc4 <snprintf@plt>
   11f80:	e1a01008 	mov	r1, r8
   11f84:	e1a00004 	mov	r0, r4
[31m   11f88:	ebffe05b 	bl	a0fc <strcpy@plt>[0m
   11f8c:	e1a00004 	mov	r0, r4
   11f90:	ebffdf36 	bl	9c70 <strlen@plt>
   11f94:	e59f1c3c 	ldr	r1, [pc, #3132]	; 12bd8 <_start@@Base+0x8ab8>
   11f98:	e3a02007 	mov	r2, #7
   11f9c:	e0840000 	add	r0, r4, r0
   11fa0:	ebffdee1 	bl	9b2c <memcpy@plt>
   11fa4:	e1a00004 	mov	r0, r4
   11fa8:	ebffdf69 	bl	9d54 <nvram_get@plt>
   11fac:	e2509000 	subs	r9, r0, #0
   11fb0:	0affffea 	beq	11f60 <_start@@Base+0x7e40>
   11fb4:	e1a01008 	mov	r1, r8
   11fb8:	e1a00004 	mov	r0, r4
[31m   11fbc:	ebffe04e 	bl	a0fc <strcpy@plt>[0m
   11fc0:	e1a00004 	mov	r0, r4
   11fc4:	ebffdf29 	bl	9c70 <strlen@plt>
--
   12090:	e3a02050 	mov	r2, #80	; 0x50
   12094:	e1a0100a 	mov	r1, sl
   12098:	e1a00005 	mov	r0, r5
   1209c:	ebffdf77 	bl	9e80 <strncpy@plt>
   120a0:	e59f1b40 	ldr	r1, [pc, #2880]	; 12be8 <_start@@Base+0x8ac8>
   120a4:	e1a00005 	mov	r0, r5
   120a8:	ebffdfb0 	bl	9f70 <strcspn@plt>
   120ac:	e28d2e15 	add	r2, sp, #336	; 0x150
   120b0:	e3a01020 	mov	r1, #32
   120b4:	e0823000 	add	r3, r2, r0
   120b8:	e54360cc 	strb	r6, [r3, #-204]	; 0xffffff34
   120bc:	e1a0000a 	mov	r0, sl
   120c0:	e5cd60d3 	strb	r6, [sp, #211]	; 0xd3
   120c4:	ebffdfee 	bl	a084 <strchr@plt>
   120c8:	e5dd3084 	ldrb	r3, [sp, #132]	; 0x84
   120cc:	e1a0a000 	mov	sl, r0
   120d0:	e3530000 	cmp	r3, #0
   120d4:	1affffe1 	bne	12060 <_start@@Base+0x7f40>
   120d8:	e1a01008 	mov	r1, r8
   120dc:	e1a00004 	mov	r0, r4
[31m   120e0:	ebffe005 	bl	a0fc <strcpy@plt>[0m
   120e4:	e1a00004 	mov	r0, r4
   120e8:	e2877001 	add	r7, r7, #1
--
   1215c:	e3a02010 	mov	r2, #16
   12160:	e1a0000a 	mov	r0, sl
   12164:	ebffdf45 	bl	9e80 <strncpy@plt>
   12168:	e59d0010 	ldr	r0, [sp, #16]
   1216c:	e3081913 	movw	r1, #35091	; 0x8913
   12170:	e1a0200a 	mov	r2, sl
   12174:	ebffdeba 	bl	9c64 <ioctl@plt>
   12178:	e3500000 	cmp	r0, #0
   1217c:	1a00004f 	bne	122c0 <_start@@Base+0x81a0>
   12180:	e28dcc01 	add	ip, sp, #256	; 0x100
   12184:	e1dc30bc 	ldrh	r3, [ip, #12]
   12188:	e2133001 	ands	r3, r3, #1
   1218c:	1a000036 	bne	1226c <_start@@Base+0x814c>
   12190:	e28ae012 	add	lr, sl, #18
   12194:	e1ca31b2 	strh	r3, [sl, #18]
   12198:	e1ca31b4 	strh	r3, [sl, #20]
   1219c:	e1a01008 	mov	r1, r8
   121a0:	e1ca31b6 	strh	r3, [sl, #22]
   121a4:	e1a00004 	mov	r0, r4
   121a8:	e58de014 	str	lr, [sp, #20]
[31m   121ac:	ebffdfd2 	bl	a0fc <strcpy@plt>[0m
   121b0:	e1a00004 	mov	r0, r4
   121b4:	ebffdead 	bl	9c70 <strlen@plt>
   121b8:	e59f1a34 	ldr	r1, [pc, #2612]	; 12bf4 <_start@@Base+0x8ad4>
   121bc:	e3a02007 	mov	r2, #7
   121c0:	e0840000 	add	r0, r4, r0
   121c4:	ebffde58 	bl	9b2c <memcpy@plt>
   121c8:	e1a00004 	mov	r0, r4
   121cc:	ebffdee0 	bl	9d54 <nvram_get@plt>
   121d0:	e3500000 	cmp	r0, #0
   121d4:	0a000002 	beq	121e4 <_start@@Base+0x80c4>
   121d8:	e5d03000 	ldrb	r3, [r0]
   121dc:	e3530000 	cmp	r3, #0
   121e0:	1a000039 	bne	122cc <_start@@Base+0x81ac>
   121e4:	e59d0010 	ldr	r0, [sp, #16]
   121e8:	e3081927 	movw	r1, #35111	; 0x8927
   121ec:	e1a0200a 	mov	r2, sl
   121f0:	ebffde9b 	bl	9c64 <ioctl@plt>
   121f4:	e3500000 	cmp	r0, #0
   121f8:	1a000030 	bne	122c0 <_start@@Base+0x81a0>
   121fc:	e1a01008 	mov	r1, r8
   12200:	e1a00004 	mov	r0, r4
[31m   12204:	ebffdfbc 	bl	a0fc <strcpy@plt>[0m
   12208:	e1a00004 	mov	r0, r4
   1220c:	ebffde97 	bl	9c70 <strlen@plt>
--
   12284:	e3500000 	cmp	r0, #0
   12288:	0a000060 	beq	12410 <_start@@Base+0x82f0>
   1228c:	e1a0000b 	mov	r0, fp
   12290:	e59f1968 	ldr	r1, [pc, #2408]	; 12c00 <_start@@Base+0x8ae0>
   12294:	ebffdf62 	bl	a024 <strcmp@plt>
   12298:	e3500000 	cmp	r0, #0
   1229c:	0a00002b 	beq	12350 <_start@@Base+0x8230>
   122a0:	e1a0000b 	mov	r0, fp
   122a4:	e59f1958 	ldr	r1, [pc, #2392]	; 12c04 <_start@@Base+0x8ae4>
   122a8:	ebffdf5d 	bl	a024 <strcmp@plt>
   122ac:	e3500000 	cmp	r0, #0
   122b0:	0a00021a 	beq	12b20 <_start@@Base+0x8a00>
   122b4:	e1a00009 	mov	r0, r9
   122b8:	eb001eac 	bl	19d70 <_start@@Base+0xfc50>
   122bc:	eaffff27 	b	11f60 <_start@@Base+0x7e40>
   122c0:	e59d0010 	ldr	r0, [sp, #16]
   122c4:	ebffded5 	bl	9e20 <close@plt>
   122c8:	eaffff24 	b	11f60 <_start@@Base+0x7e40>
   122cc:	e1a01008 	mov	r1, r8
   122d0:	e1a00004 	mov	r0, r4
[31m   122d4:	ebffdf88 	bl	a0fc <strcpy@plt>[0m
   122d8:	e1a00004 	mov	r0, r4
   122dc:	ebffde63 	bl	9c70 <strlen@plt>
--
   12308:	01a00002 	moveq	r0, r2
   1230c:	ebffde6f 	bl	9cd0 <ether_atoe@plt>
   12310:	e3500000 	cmp	r0, #0
   12314:	0affffb2 	beq	121e4 <_start@@Base+0x80c4>
   12318:	e59d0014 	ldr	r0, [sp, #20]
   1231c:	e3a02006 	mov	r2, #6
   12320:	e59f18e0 	ldr	r1, [pc, #2272]	; 12c08 <_start@@Base+0x8ae8>
   12324:	ebffdf17 	bl	9f88 <memcmp@plt>
   12328:	e3500000 	cmp	r0, #0
   1232c:	0affffac 	beq	121e4 <_start@@Base+0x80c4>
   12330:	e3a03001 	mov	r3, #1
   12334:	e28dcc01 	add	ip, sp, #256	; 0x100
   12338:	e59d0010 	ldr	r0, [sp, #16]
   1233c:	e3081924 	movw	r1, #35108	; 0x8924
   12340:	e1a0200a 	mov	r2, sl
   12344:	e1cc30bc 	strh	r3, [ip, #12]
   12348:	ebffde45 	bl	9c64 <ioctl@plt>
   1234c:	eaffffb9 	b	12238 <_start@@Base+0x8118>
   12350:	e1a01008 	mov	r1, r8
   12354:	e1a00004 	mov	r0, r4
[31m   12358:	ebffdf67 	bl	a0fc <strcpy@plt>[0m
   1235c:	e1a00004 	mov	r0, r4
   12360:	e30c528c 	movw	r5, #49804	; 0xc28c
--
   123c8:	159fe844 	ldrne	lr, [pc, #2116]	; 12c14 <_start@@Base+0x8af4>
   123cc:	e58dc0e0 	str	ip, [sp, #224]	; 0xe0
   123d0:	01a05003 	moveq	r5, r3
   123d4:	e59fc83c 	ldr	ip, [pc, #2108]	; 12c18 <_start@@Base+0x8af8>
   123d8:	01a0e005 	moveq	lr, r5
   123dc:	e28d00d4 	add	r0, sp, #212	; 0xd4
   123e0:	e1a02001 	mov	r2, r1
   123e4:	e28d3f53 	add	r3, sp, #332	; 0x14c
   123e8:	e58d90dc 	str	r9, [sp, #220]	; 0xdc
   123ec:	e58dc0e8 	str	ip, [sp, #232]	; 0xe8
   123f0:	e59fc7d8 	ldr	ip, [pc, #2008]	; 12bd0 <_start@@Base+0x8ab0>
   123f4:	e58d40e4 	str	r4, [sp, #228]	; 0xe4
   123f8:	e58de0f0 	str	lr, [sp, #240]	; 0xf0
   123fc:	e58dc0ec 	str	ip, [sp, #236]	; 0xec
   12400:	e58d50f4 	str	r5, [sp, #244]	; 0xf4
   12404:	e58d10f8 	str	r1, [sp, #248]	; 0xf8
   12408:	ebffdea8 	bl	9eb0 <_eval@plt>
   1240c:	eaffffa8 	b	122b4 <_start@@Base+0x8194>
   12410:	e1a01008 	mov	r1, r8
   12414:	e1a00004 	mov	r0, r4
[31m   12418:	ebffdf37 	bl	a0fc <strcpy@plt>[0m
   1241c:	e1a00004 	mov	r0, r4
   12420:	e30c928c 	movw	r9, #49804	; 0xc28c
   12424:	ebffde11 	bl	9c70 <strlen@plt>
   12428:	e3a02007 	mov	r2, #7
   1242c:	e59f17a4 	ldr	r1, [pc, #1956]	; 12bd8 <_start@@Base+0x8ab8>
   12430:	e0840000 	add	r0, r4, r0
   12434:	e3409001 	movt	r9, #1
   12438:	ebffddbb 	bl	9b2c <memcpy@plt>
   1243c:	e1a00004 	mov	r0, r4
   12440:	ebffde43 	bl	9d54 <nvram_get@plt>
   12444:	e3500000 	cmp	r0, #0
   12448:	e1a01008 	mov	r1, r8
   1244c:	11a09000 	movne	r9, r0
   12450:	e1a00004 	mov	r0, r4
[31m   12454:	ebffdf28 	bl	a0fc <strcpy@plt>[0m
   12458:	e1a00004 	mov	r0, r4
   1245c:	ebffde03 	bl	9c70 <strlen@plt>
   12460:	e3a0200f 	mov	r2, #15
   12464:	e59f17b0 	ldr	r1, [pc, #1968]	; 12c1c <_start@@Base+0x8afc>
   12468:	e0840000 	add	r0, r4, r0
   1246c:	ebffddae 	bl	9b2c <memcpy@plt>
   12470:	e1a00004 	mov	r0, r4
   12474:	ebffde36 	bl	9d54 <nvram_get@plt>
   12478:	e30c228c 	movw	r2, #49804	; 0xc28c
   1247c:	e3500000 	cmp	r0, #0
   12480:	e3402001 	movt	r2, #1
   12484:	e1a01008 	mov	r1, r8
   12488:	11a02000 	movne	r2, r0
   1248c:	e1a00004 	mov	r0, r4
   12490:	e58d2010 	str	r2, [sp, #16]
[31m   12494:	ebffdf18 	bl	a0fc <strcpy@plt>[0m
   12498:	e1a00004 	mov	r0, r4
   1249c:	ebffddf3 	bl	9c70 <strlen@plt>
   124a0:	e3a0200d 	mov	r2, #13
   124a4:	e59f1774 	ldr	r1, [pc, #1908]	; 12c20 <_start@@Base+0x8b00>
   124a8:	e0840000 	add	r0, r4, r0
   124ac:	ebffdd9e 	bl	9b2c <memcpy@plt>
   124b0:	e1a00004 	mov	r0, r4
   124b4:	ebffde26 	bl	9d54 <nvram_get@plt>
   124b8:	e30c328c 	movw	r3, #49804	; 0xc28c
   124bc:	e3500000 	cmp	r0, #0
   124c0:	e3403001 	movt	r3, #1
   124c4:	e1a01008 	mov	r1, r8
   124c8:	11a03000 	movne	r3, r0
   124cc:	e1a00004 	mov	r0, r4
   124d0:	e58d3014 	str	r3, [sp, #20]
[31m   124d4:	ebffdf08 	bl	a0fc <strcpy@plt>[0m
   124d8:	e1a00004 	mov	r0, r4
   124dc:	ebffdde3 	bl	9c70 <strlen@plt>
   124e0:	e3a0200a 	mov	r2, #10
   124e4:	e59f1738 	ldr	r1, [pc, #1848]	; 12c24 <_start@@Base+0x8b04>
   124e8:	e0840000 	add	r0, r4, r0
   124ec:	ebffdd8e 	bl	9b2c <memcpy@plt>
   124f0:	e1a00004 	mov	r0, r4
   124f4:	ebffde16 	bl	9d54 <nvram_get@plt>
   124f8:	e30cc28c 	movw	ip, #49804	; 0xc28c
   124fc:	e3500000 	cmp	r0, #0
   12500:	e340c001 	movt	ip, #1
   12504:	e1a01008 	mov	r1, r8
   12508:	11a0c000 	movne	ip, r0
   1250c:	e1a00004 	mov	r0, r4
   12510:	e58dc018 	str	ip, [sp, #24]
[31m   12514:	ebffdef8 	bl	a0fc <strcpy@plt>[0m
   12518:	e1a00004 	mov	r0, r4
   1251c:	ebffddd3 	bl	9c70 <strlen@plt>
   12520:	e3a0200a 	mov	r2, #10
   12524:	e59f16fc 	ldr	r1, [pc, #1788]	; 12c28 <_start@@Base+0x8b08>
   12528:	e0840000 	add	r0, r4, r0
   1252c:	ebffdd7e 	bl	9b2c <memcpy@plt>
   12530:	e1a00004 	mov	r0, r4
   12534:	ebffde06 	bl	9d54 <nvram_get@plt>
   12538:	e30ce28c 	movw	lr, #49804	; 0xc28c
   1253c:	e3500000 	cmp	r0, #0
   12540:	e340e001 	movt	lr, #1
   12544:	e1a01008 	mov	r1, r8
   12548:	11a0e000 	movne	lr, r0
   1254c:	e1a00004 	mov	r0, r4
   12550:	e58de01c 	str	lr, [sp, #28]
[31m   12554:	ebffdee8 	bl	a0fc <strcpy@plt>[0m
   12558:	e1a00004 	mov	r0, r4
   1255c:	ebffddc3 	bl	9c70 <strlen@plt>
--
   12610:	e58d109c 	str	r1, [sp, #156]	; 0x9c
   12614:	e59f1624 	ldr	r1, [pc, #1572]	; 12c40 <_start@@Base+0x8b20>
   12618:	e58de0bc 	str	lr, [sp, #188]	; 0xbc
   1261c:	e58de0c0 	str	lr, [sp, #192]	; 0xc0
   12620:	e58d10a4 	str	r1, [sp, #164]	; 0xa4
   12624:	e59d101c 	ldr	r1, [sp, #28]
   12628:	e58de0c4 	str	lr, [sp, #196]	; 0xc4
   1262c:	e58de0c8 	str	lr, [sp, #200]	; 0xc8
   12630:	e58d10a8 	str	r1, [sp, #168]	; 0xa8
   12634:	e58de0cc 	str	lr, [sp, #204]	; 0xcc
   12638:	e58de0d0 	str	lr, [sp, #208]	; 0xd0
   1263c:	e5c23000 	strb	r3, [r2]
   12640:	e59dc004 	ldr	ip, [sp, #4]
   12644:	ea000000 	b	1264c <_start@@Base+0x852c>
   12648:	e5bc9004 	ldr	r9, [ip, #4]!
   1264c:	e3590000 	cmp	r9, #0
   12650:	e1a0900c 	mov	r9, ip
   12654:	1afffffb 	bne	12648 <_start@@Base+0x8528>
   12658:	e1a01008 	mov	r1, r8
   1265c:	e1a00004 	mov	r0, r4
[31m   12660:	ebffdea5 	bl	a0fc <strcpy@plt>[0m
   12664:	e1a00004 	mov	r0, r4
   12668:	ebffdd80 	bl	9c70 <strlen@plt>
   1266c:	e59f15d0 	ldr	r1, [pc, #1488]	; 12c44 <_start@@Base+0x8b24>
   12670:	e3a0200e 	mov	r2, #14
   12674:	e0840000 	add	r0, r4, r0
   12678:	ebffdd2b 	bl	9b2c <memcpy@plt>
   1267c:	e1a00004 	mov	r0, r4
   12680:	ebffddb3 	bl	9d54 <nvram_get@plt>
   12684:	e3500000 	cmp	r0, #0
   12688:	0a000018 	beq	126f0 <_start@@Base+0x85d0>
   1268c:	e5d03000 	ldrb	r3, [r0]
   12690:	e3530000 	cmp	r3, #0
   12694:	0a000015 	beq	126f0 <_start@@Base+0x85d0>
   12698:	e59f2578 	ldr	r2, [pc, #1400]	; 12c18 <_start@@Base+0x8af8>
   1269c:	e1a03009 	mov	r3, r9
   126a0:	e1a01008 	mov	r1, r8
   126a4:	e1a00004 	mov	r0, r4
   126a8:	e4832004 	str	r2, [r3], #4
   126ac:	e58d300c 	str	r3, [sp, #12]
[31m   126b0:	ebffde91 	bl	a0fc <strcpy@plt>[0m
   126b4:	e1a00004 	mov	r0, r4
   126b8:	ebffdd6c 	bl	9c70 <strlen@plt>
   126bc:	e59f1580 	ldr	r1, [pc, #1408]	; 12c44 <_start@@Base+0x8b24>
   126c0:	e3a0200e 	mov	r2, #14
   126c4:	e0840000 	add	r0, r4, r0
   126c8:	ebffdd17 	bl	9b2c <memcpy@plt>
   126cc:	e1a00004 	mov	r0, r4
   126d0:	ebffdd9f 	bl	9d54 <nvram_get@plt>
   126d4:	e30c128c 	movw	r1, #49804	; 0xc28c
   126d8:	e3500000 	cmp	r0, #0
   126dc:	e3401001 	movt	r1, #1
   126e0:	01a00001 	moveq	r0, r1
   126e4:	e5890004 	str	r0, [r9, #4]
   126e8:	e59d300c 	ldr	r3, [sp, #12]
   126ec:	e2839004 	add	r9, r3, #4
   126f0:	e1a01008 	mov	r1, r8
   126f4:	e1a00004 	mov	r0, r4
[31m   126f8:	ebffde7f 	bl	a0fc <strcpy@plt>[0m
   126fc:	e1a00004 	mov	r0, r4
   12700:	ebffdd5a 	bl	9c70 <strlen@plt>
   12704:	e59f153c 	ldr	r1, [pc, #1340]	; 12c48 <_start@@Base+0x8b28>
   12708:	e3a02009 	mov	r2, #9
   1270c:	e0840000 	add	r0, r4, r0
   12710:	ebffdd05 	bl	9b2c <memcpy@plt>
   12714:	e1a00004 	mov	r0, r4
   12718:	ebffdd8d 	bl	9d54 <nvram_get@plt>
   1271c:	e3500000 	cmp	r0, #0
   12720:	0a000018 	beq	12788 <_start@@Base+0x8668>
   12724:	e5d03000 	ldrb	r3, [r0]
   12728:	e3530000 	cmp	r3, #0
   1272c:	0a000015 	beq	12788 <_start@@Base+0x8668>
   12730:	e59f2514 	ldr	r2, [pc, #1300]	; 12c4c <_start@@Base+0x8b2c>
   12734:	e1a03009 	mov	r3, r9
   12738:	e1a01008 	mov	r1, r8
   1273c:	e1a00004 	mov	r0, r4
   12740:	e4832004 	str	r2, [r3], #4
   12744:	e58d300c 	str	r3, [sp, #12]
[31m   12748:	ebffde6b 	bl	a0fc <strcpy@plt>[0m
   1274c:	e1a00004 	mov	r0, r4
   12750:	ebffdd46 	bl	9c70 <strlen@plt>
   12754:	e3a02009 	mov	r2, #9
   12758:	e59f14e8 	ldr	r1, [pc, #1256]	; 12c48 <_start@@Base+0x8b28>
   1275c:	e0840000 	add	r0, r4, r0
   12760:	ebffdcf1 	bl	9b2c <memcpy@plt>
   12764:	e1a00004 	mov	r0, r4
   12768:	ebffdd79 	bl	9d54 <nvram_get@plt>
   1276c:	e30c228c 	movw	r2, #49804	; 0xc28c
   12770:	e3500000 	cmp	r0, #0
   12774:	e3402001 	movt	r2, #1
   12778:	01a00002 	moveq	r0, r2
   1277c:	e5890004 	str	r0, [r9, #4]
   12780:	e59d300c 	ldr	r3, [sp, #12]
   12784:	e2839004 	add	r9, r3, #4
   12788:	e1a01008 	mov	r1, r8
   1278c:	e1a00004 	mov	r0, r4
[31m   12790:	ebffde59 	bl	a0fc <strcpy@plt>[0m
   12794:	e1a00004 	mov	r0, r4
   12798:	ebffdd34 	bl	9c70 <strlen@plt>
   1279c:	e59f1488 	ldr	r1, [pc, #1160]	; 12c2c <_start@@Base+0x8b0c>
   127a0:	e3a0200d 	mov	r2, #13
   127a4:	e0840000 	add	r0, r4, r0
   127a8:	ebffdcdf 	bl	9b2c <memcpy@plt>
   127ac:	e1a00004 	mov	r0, r4
   127b0:	ebffdd67 	bl	9d54 <nvram_get@plt>
   127b4:	e3500000 	cmp	r0, #0
   127b8:	0a000003 	beq	127cc <_start@@Base+0x86ac>
   127bc:	e59f13f8 	ldr	r1, [pc, #1016]	; 12bbc <_start@@Base+0x8a9c>
   127c0:	ebffde17 	bl	a024 <strcmp@plt>
   127c4:	e3500000 	cmp	r0, #0
   127c8:	0a0000d1 	beq	12b14 <_start@@Base+0x89f4>
   127cc:	e1a01008 	mov	r1, r8
   127d0:	e1a00004 	mov	r0, r4
[31m   127d4:	ebffde48 	bl	a0fc <strcpy@plt>[0m
   127d8:	e1a00004 	mov	r0, r4
   127dc:	ebffdd23 	bl	9c70 <strlen@plt>
--
   12800:	e59f13b4 	ldr	r1, [pc, #948]	; 12bbc <_start@@Base+0x8a9c>
   12804:	ebffde06 	bl	a024 <strcmp@plt>
   12808:	e3500000 	cmp	r0, #0
   1280c:	0a0000c0 	beq	12b14 <_start@@Base+0x89f4>
   12810:	e3a0100d 	mov	r1, #13
   12814:	e59f2438 	ldr	r2, [pc, #1080]	; 12c54 <_start@@Base+0x8b34>
   12818:	e1a03007 	mov	r3, r7
   1281c:	e1a0000b 	mov	r0, fp
   12820:	ebffdd27 	bl	9cc4 <snprintf@plt>
   12824:	e59fc42c 	ldr	ip, [pc, #1068]	; 12c58 <_start@@Base+0x8b38>
   12828:	e3a01000 	mov	r1, #0
   1282c:	e28d3f53 	add	r3, sp, #332	; 0x14c
   12830:	e1a02001 	mov	r2, r1
   12834:	e589b004 	str	fp, [r9, #4]
   12838:	e1a00005 	mov	r0, r5
   1283c:	e589c000 	str	ip, [r9]
   12840:	e30c928c 	movw	r9, #49804	; 0xc28c
   12844:	ebffdd99 	bl	9eb0 <_eval@plt>
   12848:	e1a01008 	mov	r1, r8
   1284c:	e1a00004 	mov	r0, r4
[31m   12850:	ebffde29 	bl	a0fc <strcpy@plt>[0m
   12854:	e1a00004 	mov	r0, r4
   12858:	e3409001 	movt	r9, #1
   1285c:	ebffdd03 	bl	9c70 <strlen@plt>
   12860:	e3a0200d 	mov	r2, #13
   12864:	e59f13f0 	ldr	r1, [pc, #1008]	; 12c5c <_start@@Base+0x8b3c>
   12868:	e0840000 	add	r0, r4, r0
   1286c:	ebffdcae 	bl	9b2c <memcpy@plt>
   12870:	e1a00004 	mov	r0, r4
   12874:	ebffdd36 	bl	9d54 <nvram_get@plt>
   12878:	e3500000 	cmp	r0, #0
   1287c:	e1a01008 	mov	r1, r8
   12880:	11a09000 	movne	r9, r0
   12884:	e1a00004 	mov	r0, r4
[31m   12888:	ebffde1b 	bl	a0fc <strcpy@plt>[0m
   1288c:	e1a00004 	mov	r0, r4
   12890:	ebffdcf6 	bl	9c70 <strlen@plt>
--
   12918:	e3a00002 	mov	r0, #2
   1291c:	e3a01003 	mov	r1, #3
   12920:	e3a020ff 	mov	r2, #255	; 0xff
   12924:	ebffdda0 	bl	9fac <socket@plt>
   12928:	e2505000 	subs	r5, r0, #0
   1292c:	bafffd8b 	blt	11f60 <_start@@Base+0x7e40>
   12930:	e1a01009 	mov	r1, r9
   12934:	e3a02010 	mov	r2, #16
   12938:	e1a0000a 	mov	r0, sl
   1293c:	ebffdd4f 	bl	9e80 <strncpy@plt>
   12940:	e1a00005 	mov	r0, r5
   12944:	e3081915 	movw	r1, #35093	; 0x8915
   12948:	e1a0200a 	mov	r2, sl
   1294c:	ebffdcc4 	bl	9c64 <ioctl@plt>
   12950:	e3500000 	cmp	r0, #0
   12954:	0a000001 	beq	12960 <_start@@Base+0x8840>
   12958:	e1a00009 	mov	r0, r9
   1295c:	ebffdd77 	bl	9f40 <perror@plt>
   12960:	e1a01008 	mov	r1, r8
   12964:	e1a00004 	mov	r0, r4
[31m   12968:	ebffdde3 	bl	a0fc <strcpy@plt>[0m
   1296c:	e1a00004 	mov	r0, r4
   12970:	ebffdcbe 	bl	9c70 <strlen@plt>
   12974:	e3a02007 	mov	r2, #7
   12978:	e59f12e0 	ldr	r1, [pc, #736]	; 12c60 <_start@@Base+0x8b40>
   1297c:	e0840000 	add	r0, r4, r0
   12980:	ebffdc69 	bl	9b2c <memcpy@plt>
   12984:	e59a0014 	ldr	r0, [sl, #20]
   12988:	ebffdd66 	bl	9f28 <inet_ntoa@plt>
   1298c:	e1a01000 	mov	r1, r0
   12990:	e1a00004 	mov	r0, r4
   12994:	ebffddcc 	bl	a0cc <nvram_set@plt>
   12998:	e1a01008 	mov	r1, r8
   1299c:	e1a00004 	mov	r0, r4
[31m   129a0:	ebffddd5 	bl	a0fc <strcpy@plt>[0m
   129a4:	e1a00004 	mov	r0, r4
   129a8:	ebffdcb0 	bl	9c70 <strlen@plt>
   129ac:	e3a02008 	mov	r2, #8
   129b0:	e59f12ac 	ldr	r1, [pc, #684]	; 12c64 <_start@@Base+0x8b44>
   129b4:	e0840000 	add	r0, r4, r0
   129b8:	ebffdc5b 	bl	9b2c <memcpy@plt>
   129bc:	e59f12a4 	ldr	r1, [pc, #676]	; 12c68 <_start@@Base+0x8b48>
   129c0:	e1a00004 	mov	r0, r4
   129c4:	ebffddc0 	bl	a0cc <nvram_set@plt>
   129c8:	e1a00005 	mov	r0, r5
   129cc:	e3081917 	movw	r1, #35095	; 0x8917
   129d0:	e1a0200a 	mov	r2, sl
   129d4:	ebffdca2 	bl	9c64 <ioctl@plt>
   129d8:	e3500000 	cmp	r0, #0
   129dc:	0a000001 	beq	129e8 <_start@@Base+0x88c8>
   129e0:	e1a00009 	mov	r0, r9
   129e4:	ebffdd55 	bl	9f40 <perror@plt>
   129e8:	e1a01008 	mov	r1, r8
   129ec:	e1a00004 	mov	r0, r4
[31m   129f0:	ebffddc1 	bl	a0fc <strcpy@plt>[0m
   129f4:	e1a00004 	mov	r0, r4
   129f8:	ebffdc9c 	bl	9c70 <strlen@plt>
--
   12a8c:	e58de0dc 	str	lr, [sp, #220]	; 0xdc
   12a90:	e58dc00c 	str	ip, [sp, #12]
   12a94:	e58d90d8 	str	r9, [sp, #216]	; 0xd8
   12a98:	ebffdd04 	bl	9eb0 <_eval@plt>
   12a9c:	e30be9b0 	movw	lr, #47536	; 0xb9b0
   12aa0:	e59dc00c 	ldr	ip, [sp, #12]
   12aa4:	e340e001 	movt	lr, #1
   12aa8:	e28d00d4 	add	r0, sp, #212	; 0xd4
   12aac:	e58de0d4 	str	lr, [sp, #212]	; 0xd4
   12ab0:	e59fe1c4 	ldr	lr, [pc, #452]	; 12c7c <_start@@Base+0x8b5c>
   12ab4:	e1a0200c 	mov	r2, ip
   12ab8:	e59f11b8 	ldr	r1, [pc, #440]	; 12c78 <_start@@Base+0x8b58>
   12abc:	e1a0300c 	mov	r3, ip
   12ac0:	e58d90d8 	str	r9, [sp, #216]	; 0xd8
   12ac4:	e58de0dc 	str	lr, [sp, #220]	; 0xdc
   12ac8:	e58dc0e0 	str	ip, [sp, #224]	; 0xe0
   12acc:	ebffdcf7 	bl	9eb0 <_eval@plt>
   12ad0:	eafffde5 	b	1226c <_start@@Base+0x814c>
   12ad4:	e1a01008 	mov	r1, r8
   12ad8:	e1a00004 	mov	r0, r4
[31m   12adc:	ebffdd86 	bl	a0fc <strcpy@plt>[0m
   12ae0:	e1a00004 	mov	r0, r4
   12ae4:	ebffdc61 	bl	9c70 <strlen@plt>
   12ae8:	e59f1190 	ldr	r1, [pc, #400]	; 12c80 <_start@@Base+0x8b60>
   12aec:	e3a0200f 	mov	r2, #15
   12af0:	e0840000 	add	r0, r4, r0
   12af4:	ebffdc0c 	bl	9b2c <memcpy@plt>
   12af8:	e1a00004 	mov	r0, r4
   12afc:	ebffdc94 	bl	9d54 <nvram_get@plt>
   12b00:	e30ce28c 	movw	lr, #49804	; 0xc28c
   12b04:	e3500000 	cmp	r0, #0
   12b08:	e340e001 	movt	lr, #1
   12b0c:	11a0e000 	movne	lr, r0
   12b10:	eafffe9f 	b	12594 <_start@@Base+0x8474>
   12b14:	e59f3168 	ldr	r3, [pc, #360]	; 12c84 <_start@@Base+0x8b64>
   12b18:	e4893004 	str	r3, [r9], #4
   12b1c:	eaffff3b 	b	12810 <_start@@Base+0x86f0>
   12b20:	e1a01008 	mov	r1, r8
   12b24:	e1a00004 	mov	r0, r4
[31m   12b28:	ebffdd73 	bl	a0fc <strcpy@plt>[0m
   12b2c:	e1a00004 	mov	r0, r4
   12b30:	e30c528c 	movw	r5, #49804	; 0xc28c
   12b34:	ebffdc4d 	bl	9c70 <strlen@plt>
   12b38:	e3a02007 	mov	r2, #7
   12b3c:	e59f111c 	ldr	r1, [pc, #284]	; 12c60 <_start@@Base+0x8b40>
   12b40:	e0840000 	add	r0, r4, r0
   12b44:	e3405001 	movt	r5, #1
   12b48:	ebffdbf7 	bl	9b2c <memcpy@plt>
   12b4c:	e1a00004 	mov	r0, r4
   12b50:	ebffdc7f 	bl	9d54 <nvram_get@plt>
   12b54:	e3500000 	cmp	r0, #0
   12b58:	e1a01008 	mov	r1, r8
   12b5c:	11a05000 	movne	r5, r0
   12b60:	e1a00004 	mov	r0, r4
[31m   12b64:	ebffdd64 	bl	a0fc <strcpy@plt>[0m
   12b68:	e1a00004 	mov	r0, r4
   12b6c:	ebffdc3f 	bl	9c70 <strlen@plt>
--
   12c8c:	e24dd078 	sub	sp, sp, #120	; 0x78
   12c90:	e59f809c 	ldr	r8, [pc, #156]	; 12d34 <_start@@Base+0x8c14>
   12c94:	e28d4068 	add	r4, sp, #104	; 0x68
   12c98:	e3a06000 	mov	r6, #0
   12c9c:	e28d5004 	add	r5, sp, #4
   12ca0:	e1a07004 	mov	r7, r4
   12ca4:	e898000f 	ldm	r8, {r0, r1, r2, r3}
   12ca8:	e1a0e004 	mov	lr, r4
   12cac:	e8ae0007 	stmia	lr!, {r0, r1, r2}
   12cb0:	e3a0100f 	mov	r1, #15
   12cb4:	e1a0c823 	lsr	ip, r3, #16
   12cb8:	e1ce30b0 	strh	r3, [lr]
   12cbc:	e1a00007 	mov	r0, r7
   12cc0:	e5c4c00e 	strb	ip, [r4, #14]
   12cc4:	e1a03006 	mov	r3, r6
   12cc8:	e59f2068 	ldr	r2, [pc, #104]	; 12d38 <_start@@Base+0x8c18>
   12ccc:	e1a04007 	mov	r4, r7
   12cd0:	ebffdbfb 	bl	9cc4 <snprintf@plt>
   12cd4:	e1a01007 	mov	r1, r7
   12cd8:	e1a00005 	mov	r0, r5
[31m   12cdc:	ebffdd06 	bl	a0fc <strcpy@plt>[0m
   12ce0:	e1a00005 	mov	r0, r5
   12ce4:	ebffdbe1 	bl	9c70 <strlen@plt>
--
   1510c:	e1a00005 	mov	r0, r5
   15110:	e1a02823 	lsr	r2, r3, #16
   15114:	e1cc30b0 	strh	r3, [ip]
   15118:	e5c4200e 	strb	r2, [r4, #14]
   1511c:	ebffef92 	bl	10f6c <_start@@Base+0x6e4c>
   15120:	e2503000 	subs	r3, r0, #0
   15124:	b3e00000 	mvnlt	r0, #0
   15128:	ba0000a6 	blt	153c8 <_start@@Base+0xb2a8>
   1512c:	e3a0100f 	mov	r1, #15
   15130:	e59f22a4 	ldr	r2, [pc, #676]	; 153dc <_start@@Base+0xb2bc>
   15134:	e1a00004 	mov	r0, r4
   15138:	ebffd2e1 	bl	9cc4 <snprintf@plt>
   1513c:	e59f029c 	ldr	r0, [pc, #668]	; 153e0 <_start@@Base+0xb2c0>
   15140:	ebffd26d 	bl	9afc <getenv@plt>
   15144:	e2507000 	subs	r7, r0, #0
   15148:	028d6004 	addeq	r6, sp, #4
   1514c:	0a00000c 	beq	15184 <_start@@Base+0xb064>
   15150:	e28d6004 	add	r6, sp, #4
   15154:	e1a01004 	mov	r1, r4
   15158:	e1a00006 	mov	r0, r6
[31m   1515c:	ebffd3e6 	bl	a0fc <strcpy@plt>[0m
   15160:	e1a00006 	mov	r0, r6
   15164:	ebffd2c1 	bl	9c70 <strlen@plt>
   15168:	e59f1274 	ldr	r1, [pc, #628]	; 153e4 <_start@@Base+0xb2c4>
   1516c:	e0860000 	add	r0, r6, r0
   15170:	e3a02007 	mov	r2, #7
   15174:	ebffd26c 	bl	9b2c <memcpy@plt>
   15178:	e1a00006 	mov	r0, r6
   1517c:	e1a01007 	mov	r1, r7
   15180:	ebffd3d1 	bl	a0cc <nvram_set@plt>
   15184:	e59f025c 	ldr	r0, [pc, #604]	; 153e8 <_start@@Base+0xb2c8>
   15188:	ebffd25b 	bl	9afc <getenv@plt>
   1518c:	e2507000 	subs	r7, r0, #0
   15190:	0a00000b 	beq	151c4 <_start@@Base+0xb0a4>
   15194:	e1a01004 	mov	r1, r4
   15198:	e1a00006 	mov	r0, r6
[31m   1519c:	ebffd3d6 	bl	a0fc <strcpy@plt>[0m
   151a0:	e1a00006 	mov	r0, r6
   151a4:	ebffd2b1 	bl	9c70 <strlen@plt>
   151a8:	e59f123c 	ldr	r1, [pc, #572]	; 153ec <_start@@Base+0xb2cc>
   151ac:	e0860000 	add	r0, r6, r0
   151b0:	e3a02008 	mov	r2, #8
   151b4:	ebffd25c 	bl	9b2c <memcpy@plt>
   151b8:	e1a00006 	mov	r0, r6
   151bc:	e1a01007 	mov	r1, r7
   151c0:	ebffd3c1 	bl	a0cc <nvram_set@plt>
   151c4:	e59f0224 	ldr	r0, [pc, #548]	; 153f0 <_start@@Base+0xb2d0>
   151c8:	ebffd24b 	bl	9afc <getenv@plt>
   151cc:	e2507000 	subs	r7, r0, #0
   151d0:	0a00000b 	beq	15204 <_start@@Base+0xb0e4>
   151d4:	e1a01004 	mov	r1, r4
   151d8:	e1a00006 	mov	r0, r6
[31m   151dc:	ebffd3c6 	bl	a0fc <strcpy@plt>[0m
   151e0:	e1a00006 	mov	r0, r6
   151e4:	ebffd2a1 	bl	9c70 <strlen@plt>
   151e8:	e59f1204 	ldr	r1, [pc, #516]	; 153f4 <_start@@Base+0xb2d4>
   151ec:	e0860000 	add	r0, r6, r0
   151f0:	e3a02008 	mov	r2, #8
   151f4:	ebffd24c 	bl	9b2c <memcpy@plt>
   151f8:	e1a00006 	mov	r0, r6
   151fc:	e1a01007 	mov	r1, r7
   15200:	ebffd3b1 	bl	a0cc <nvram_set@plt>
   15204:	e59f01ec 	ldr	r0, [pc, #492]	; 153f8 <_start@@Base+0xb2d8>
   15208:	ebffd23b 	bl	9afc <getenv@plt>
   1520c:	e2507000 	subs	r7, r0, #0
   15210:	0a00000b 	beq	15244 <_start@@Base+0xb124>
   15214:	e1a01004 	mov	r1, r4
   15218:	e1a00006 	mov	r0, r6
[31m   1521c:	ebffd3b6 	bl	a0fc <strcpy@plt>[0m
   15220:	e1a00006 	mov	r0, r6
   15224:	ebffd291 	bl	9c70 <strlen@plt>
   15228:	e59f11c8 	ldr	r1, [pc, #456]	; 153f8 <_start@@Base+0xb2d8>
   1522c:	e0860000 	add	r0, r6, r0
   15230:	e3a02004 	mov	r2, #4
   15234:	ebffd23c 	bl	9b2c <memcpy@plt>
   15238:	e1a00006 	mov	r0, r6
   1523c:	e1a01007 	mov	r1, r7
   15240:	ebffd3a1 	bl	a0cc <nvram_set@plt>
   15244:	e59f01b0 	ldr	r0, [pc, #432]	; 153fc <_start@@Base+0xb2dc>
   15248:	ebffd22b 	bl	9afc <getenv@plt>
   1524c:	e2507000 	subs	r7, r0, #0
   15250:	0a00000b 	beq	15284 <_start@@Base+0xb164>
   15254:	e1a01004 	mov	r1, r4
   15258:	e1a00006 	mov	r0, r6
[31m   1525c:	ebffd3a6 	bl	a0fc <strcpy@plt>[0m
   15260:	e1a00006 	mov	r0, r6
   15264:	ebffd281 	bl	9c70 <strlen@plt>
--
   1526c:	e0860000 	add	r0, r6, r0
   15270:	e3a02005 	mov	r2, #5
   15274:	ebffd22c 	bl	9b2c <memcpy@plt>
   15278:	e1a00006 	mov	r0, r6
   1527c:	e1a01007 	mov	r1, r7
   15280:	ebffd391 	bl	a0cc <nvram_set@plt>
   15284:	e59f0174 	ldr	r0, [pc, #372]	; 15400 <_start@@Base+0xb2e0>
   15288:	ebffd21b 	bl	9afc <getenv@plt>
   1528c:	e2507000 	subs	r7, r0, #0
   15290:	0a000003 	beq	152a4 <_start@@Base+0xb184>
   15294:	ebffd275 	bl	9c70 <strlen@plt>
   15298:	e2801001 	add	r1, r0, #1
   1529c:	e1a00007 	mov	r0, r7
   152a0:	ebffd2a8 	bl	9d48 <sethostname@plt>
   152a4:	e59f0158 	ldr	r0, [pc, #344]	; 15404 <_start@@Base+0xb2e4>
   152a8:	ebffd213 	bl	9afc <getenv@plt>
   152ac:	e2507000 	subs	r7, r0, #0
   152b0:	0a00000b 	beq	152e4 <_start@@Base+0xb1c4>
   152b4:	e1a01004 	mov	r1, r4
   152b8:	e1a00006 	mov	r0, r6
[31m   152bc:	ebffd38e 	bl	a0fc <strcpy@plt>[0m
   152c0:	e1a00006 	mov	r0, r6
   152c4:	ebffd269 	bl	9c70 <strlen@plt>
   152c8:	e59f1134 	ldr	r1, [pc, #308]	; 15404 <_start@@Base+0xb2e4>
   152cc:	e0860000 	add	r0, r6, r0
   152d0:	e3a02007 	mov	r2, #7
   152d4:	ebffd214 	bl	9b2c <memcpy@plt>
   152d8:	e1a00006 	mov	r0, r6
   152dc:	e1a01007 	mov	r1, r7
   152e0:	ebffd379 	bl	a0cc <nvram_set@plt>
   152e4:	e59f011c 	ldr	r0, [pc, #284]	; 15408 <_start@@Base+0xb2e8>
   152e8:	ebffd203 	bl	9afc <getenv@plt>
   152ec:	e2507000 	subs	r7, r0, #0
   152f0:	0a000010 	beq	15338 <_start@@Base+0xb218>
   152f4:	e1a01004 	mov	r1, r4
   152f8:	e1a00006 	mov	r0, r6
[31m   152fc:	ebffd37e 	bl	a0fc <strcpy@plt>[0m
   15300:	e1a00006 	mov	r0, r6
   15304:	ebffd259 	bl	9c70 <strlen@plt>
   15308:	e3a02006 	mov	r2, #6
   1530c:	e59f10f4 	ldr	r1, [pc, #244]	; 15408 <_start@@Base+0xb2e8>
   15310:	e0860000 	add	r0, r6, r0
   15314:	ebffd204 	bl	9b2c <memcpy@plt>
   15318:	e1a01007 	mov	r1, r7
   1531c:	e1a00006 	mov	r0, r6
   15320:	ebffd369 	bl	a0cc <nvram_set@plt>
   15324:	e1a00007 	mov	r0, r7
   15328:	ebffd349 	bl	a054 <atoi@plt>
   1532c:	e1a01000 	mov	r1, r0
   15330:	e1a00005 	mov	r0, r5
   15334:	ebfffee2 	bl	14ec4 <_start@@Base+0xada4>
   15338:	e1a01004 	mov	r1, r4
   1533c:	e1a00006 	mov	r0, r6
[31m   15340:	ebffd36d 	bl	a0fc <strcpy@plt>[0m
   15344:	e1a00006 	mov	r0, r6
   15348:	e59f7088 	ldr	r7, [pc, #136]	; 153d8 <_start@@Base+0xb2b8>
   1534c:	ebffd247 	bl	9c70 <strlen@plt>
   15350:	e3a02007 	mov	r2, #7
   15354:	e59f1088 	ldr	r1, [pc, #136]	; 153e4 <_start@@Base+0xb2c4>
   15358:	e0860000 	add	r0, r6, r0
   1535c:	ebffd1f2 	bl	9b2c <memcpy@plt>
   15360:	e1a00006 	mov	r0, r6
   15364:	ebffd27a 	bl	9d54 <nvram_get@plt>
   15368:	e3500000 	cmp	r0, #0
   1536c:	e1a01004 	mov	r1, r4
   15370:	11a04000 	movne	r4, r0
   15374:	e1a00006 	mov	r0, r6
   15378:	01a04007 	moveq	r4, r7
[31m   1537c:	ebffd35e 	bl	a0fc <strcpy@plt>[0m
   15380:	e1a00006 	mov	r0, r6
   15384:	ebffd239 	bl	9c70 <strlen@plt>
--
   1a164:	e18ec0b3 	strh	ip, [lr, r3]
   1a168:	e3a03006 	mov	r3, #6
   1a16c:	e58d3014 	str	r3, [sp, #20]
   1a170:	ebfffad0 	bl	18cb8 <_start@@Base+0xeb98>
   1a174:	e3a03011 	mov	r3, #17
   1a178:	e1a00004 	mov	r0, r4
   1a17c:	e3a01001 	mov	r1, #1
   1a180:	e1a02006 	mov	r2, r6
   1a184:	e58d3014 	str	r3, [sp, #20]
   1a188:	ebfffaca 	bl	18cb8 <_start@@Base+0xeb98>
   1a18c:	e1a00005 	mov	r0, r5
   1a190:	e28d4f55 	add	r4, sp, #340	; 0x154
   1a194:	ebffdb74 	bl	10f6c <_start@@Base+0x6e4c>
   1a198:	e59f20b8 	ldr	r2, [pc, #184]	; 1a258 <_start@@Base+0x10138>
   1a19c:	e1a03000 	mov	r3, r0
   1a1a0:	e3a0100f 	mov	r1, #15
   1a1a4:	e1a0000b 	mov	r0, fp
   1a1a8:	ebffbec5 	bl	9cc4 <snprintf@plt>
   1a1ac:	e1a0100b 	mov	r1, fp
   1a1b0:	e1a00004 	mov	r0, r4
[31m   1a1b4:	ebffbfd0 	bl	a0fc <strcpy@plt>[0m
   1a1b8:	e1a00004 	mov	r0, r4
   1a1bc:	ebffbeab 	bl	9c70 <strlen@plt>
--
   1a400:	e1a00004 	mov	r0, r4
   1a404:	e5cd2112 	strb	r2, [sp, #274]	; 0x112
   1a408:	ebffbde2 	bl	9b98 <strcat@plt>
   1a40c:	e1a00004 	mov	r0, r4
   1a410:	e59f11c0 	ldr	r1, [pc, #448]	; 1a5d8 <_start@@Base+0x104b8>
   1a414:	ebffbe5d 	bl	9d90 <fopen@plt>
   1a418:	e3500000 	cmp	r0, #0
   1a41c:	0a000063 	beq	1a5b0 <_start@@Base+0x10490>
   1a420:	ebffbe54 	bl	9d78 <fclose@plt>
   1a424:	e59f01b0 	ldr	r0, [pc, #432]	; 1a5dc <_start@@Base+0x104bc>
   1a428:	ebffbdb3 	bl	9afc <getenv@plt>
   1a42c:	e2507000 	subs	r7, r0, #0
   1a430:	0a00001c 	beq	1a4a8 <_start@@Base+0x10388>
   1a434:	e59f31a4 	ldr	r3, [pc, #420]	; 1a5e0 <_start@@Base+0x104c0>
   1a438:	e1a02007 	mov	r2, r7
   1a43c:	e3011043 	movw	r1, #4163	; 0x1043
   1a440:	e1a00006 	mov	r0, r6
   1a444:	ebffcc20 	bl	d4cc <_start@@Base+0x33ac>
   1a448:	e1a01005 	mov	r1, r5
   1a44c:	e1a00004 	mov	r0, r4
[31m   1a450:	ebffbf29 	bl	a0fc <strcpy@plt>[0m
   1a454:	e1a00004 	mov	r0, r4
   1a458:	ebffbe04 	bl	9c70 <strlen@plt>
   1a45c:	e3a02007 	mov	r2, #7
   1a460:	e59f117c 	ldr	r1, [pc, #380]	; 1a5e4 <_start@@Base+0x104c4>
   1a464:	e0840000 	add	r0, r4, r0
   1a468:	ebffbdaf 	bl	9b2c <memcpy@plt>
   1a46c:	e1a01007 	mov	r1, r7
   1a470:	e1a00004 	mov	r0, r4
   1a474:	ebffbf14 	bl	a0cc <nvram_set@plt>
   1a478:	e1a01005 	mov	r1, r5
   1a47c:	e1a00004 	mov	r0, r4
[31m   1a480:	ebffbf1d 	bl	a0fc <strcpy@plt>[0m
   1a484:	e1a00004 	mov	r0, r4
   1a488:	ebffbdf8 	bl	9c70 <strlen@plt>
   1a48c:	e59f1154 	ldr	r1, [pc, #340]	; 1a5e8 <_start@@Base+0x104c8>
   1a490:	e0840000 	add	r0, r4, r0
   1a494:	e3a02008 	mov	r2, #8
   1a498:	ebffbda3 	bl	9b2c <memcpy@plt>
   1a49c:	e1a00004 	mov	r0, r4
   1a4a0:	e59f1138 	ldr	r1, [pc, #312]	; 1a5e0 <_start@@Base+0x104c0>
   1a4a4:	ebffbf08 	bl	a0cc <nvram_set@plt>
   1a4a8:	e59f013c 	ldr	r0, [pc, #316]	; 1a5ec <_start@@Base+0x104cc>
   1a4ac:	ebffbd92 	bl	9afc <getenv@plt>
   1a4b0:	e2507000 	subs	r7, r0, #0
   1a4b4:	0a00000b 	beq	1a4e8 <_start@@Base+0x103c8>
   1a4b8:	e1a01005 	mov	r1, r5
   1a4bc:	e1a00004 	mov	r0, r4
[31m   1a4c0:	ebffbf0d 	bl	a0fc <strcpy@plt>[0m
   1a4c4:	e1a00004 	mov	r0, r4
   1a4c8:	ebffbde8 	bl	9c70 <strlen@plt>
   1a4cc:	e59f111c 	ldr	r1, [pc, #284]	; 1a5f0 <_start@@Base+0x104d0>
   1a4d0:	e0840000 	add	r0, r4, r0
   1a4d4:	e3a02008 	mov	r2, #8
   1a4d8:	ebffbd93 	bl	9b2c <memcpy@plt>
   1a4dc:	e1a00004 	mov	r0, r4
   1a4e0:	e1a01007 	mov	r1, r7
   1a4e4:	ebffbef8 	bl	a0cc <nvram_set@plt>
   1a4e8:	e3a03000 	mov	r3, #0
   1a4ec:	e59f0100 	ldr	r0, [pc, #256]	; 1a5f4 <_start@@Base+0x104d4>
   1a4f0:	e5cd3004 	strb	r3, [sp, #4]
   1a4f4:	ebffbd80 	bl	9afc <getenv@plt>
   1a4f8:	e3500000 	cmp	r0, #0
   1a4fc:	028d7004 	addeq	r7, sp, #4
   1a500:	0a000005 	beq	1a51c <_start@@Base+0x103fc>
   1a504:	e59f00e8 	ldr	r0, [pc, #232]	; 1a5f4 <_start@@Base+0x104d4>
   1a508:	e28d7004 	add	r7, sp, #4
   1a50c:	ebffbd7a 	bl	9afc <getenv@plt>
   1a510:	e1a01000 	mov	r1, r0
   1a514:	e1a00007 	mov	r0, r7
[31m   1a518:	ebffbef7 	bl	a0fc <strcpy@plt>[0m
   1a51c:	e59f00d4 	ldr	r0, [pc, #212]	; 1a5f8 <_start@@Base+0x104d8>
   1a520:	ebffbd75 	bl	9afc <getenv@plt>
   1a524:	e3500000 	cmp	r0, #0
   1a528:	0a00000f 	beq	1a56c <_start@@Base+0x1044c>
   1a52c:	e1a00007 	mov	r0, r7
   1a530:	ebffbdce 	bl	9c70 <strlen@plt>
   1a534:	e5dd8004 	ldrb	r8, [sp, #4]
   1a538:	e087a000 	add	sl, r7, r0
   1a53c:	e59f30b8 	ldr	r3, [pc, #184]	; 1a5fc <_start@@Base+0x104dc>
   1a540:	e59f2084 	ldr	r2, [pc, #132]	; 1a5cc <_start@@Base+0x104ac>
   1a544:	e3580000 	cmp	r8, #0
   1a548:	e59f00a8 	ldr	r0, [pc, #168]	; 1a5f8 <_start@@Base+0x104d8>
   1a54c:	11a08003 	movne	r8, r3
   1a550:	01a08002 	moveq	r8, r2
   1a554:	ebffbd68 	bl	9afc <getenv@plt>
   1a558:	e59f10a0 	ldr	r1, [pc, #160]	; 1a600 <_start@@Base+0x104e0>
   1a55c:	e1a03000 	mov	r3, r0
   1a560:	e1a02008 	mov	r2, r8
   1a564:	e1a0000a 	mov	r0, sl
   1a568:	ebffbe8c 	bl	9fa0 <sprintf@plt>
   1a56c:	e1a01005 	mov	r1, r5
   1a570:	e1a00004 	mov	r0, r4
[31m   1a574:	ebffbee0 	bl	a0fc <strcpy@plt>[0m
   1a578:	e1a00004 	mov	r0, r4
   1a57c:	ebffbdbb 	bl	9c70 <strlen@plt>

[0m
[[0;33m*[0m] Function [0;33mstrcpy[0m used [0;33m123[0m times [0;33mrc.svn-base[0m

