[[0;33m*[0m] Binary protection state of [0;33mses[0m
[REF] s12

  	RELRO          CANARY            NX           PIE       RPATH        RUNPATH      SYMBOLS      
  	[31mNo RELRO[0m       [31mNo Canary found[0m   [32mNX enabled[0m   [31mNo PIE[0m       [32mNo RPATH[0m     [32mNo RUNPATH[0m   [32mNo Symbols[0m

[0m
[[0;33m*[0m] Function [0;33mstrcpy[0m tear down of [0;33mses[0m

    99b8:	e59f20c8 	ldr	r2, [pc, #200]	; 9a88 <_start+0x7b8>
    99bc:	e59d3010 	ldr	r3, [sp, #16]
    99c0:	eb0002f2 	bl	a590 <_start+0x12c0>
    99c4:	e3500006 	cmp	r0, #6
    99c8:	0affffb5 	beq	98a4 <_start+0x5d4>
    99cc:	e1a05000 	mov	r5, r0
    99d0:	ea00001f 	b	9a54 <_start+0x784>
    99d4:	e59f30b0 	ldr	r3, [pc, #176]	; 9a8c <_start+0x7bc>
    99d8:	e08a608a 	add	r6, sl, sl, lsl #1
    99dc:	e58da00c 	str	sl, [sp, #12]
    99e0:	e0836086 	add	r6, r3, r6, lsl #1
    99e4:	e59d300c 	ldr	r3, [sp, #12]
    99e8:	e307e0ec 	movw	lr, #28908	; 0x70ec
    99ec:	e59f209c 	ldr	r2, [pc, #156]	; 9a90 <_start+0x7c0>
    99f0:	e340e001 	movt	lr, #1
    99f4:	e08ea10a 	add	sl, lr, sl, lsl #2
    99f8:	e59f1080 	ldr	r1, [pc, #128]	; 9a80 <_start+0x7b0>
    99fc:	e0820203 	add	r0, r2, r3, lsl #4
    9a00:	e3a03001 	mov	r3, #1
    9a04:	e58a30b4 	str	r3, [sl, #180]	; 0xb4
[31m    9a08:	ebfffd52 	bl	8f58 <strcpy@plt>[0m
    9a0c:	e1a00006 	mov	r0, r6
    9a10:	e59f1070 	ldr	r1, [pc, #112]	; 9a88 <_start+0x7b8>
--
    9d38:	e5c431c6 	strb	r3, [r4, #454]	; 0x1c6
    9d3c:	e5967118 	ldr	r7, [r6, #280]	; 0x118
    9d40:	e59731a0 	ldr	r3, [r7, #416]	; 0x1a0
    9d44:	e3530000 	cmp	r3, #0
    9d48:	0a000042 	beq	9e58 <_start+0xb88>
    9d4c:	e3530010 	cmp	r3, #16
    9d50:	1a000061 	bne	9edc <_start+0xc0c>
    9d54:	e2877f69 	add	r7, r7, #420	; 0x1a4
    9d58:	e28dae22 	add	sl, sp, #544	; 0x220
    9d5c:	e897000f 	ldm	r7, {r0, r1, r2, r3}
    9d60:	e88a000f 	stm	sl, {r0, r1, r2, r3}
    9d64:	e3a03000 	mov	r3, #0
    9d68:	e2857022 	add	r7, r5, #34	; 0x22
    9d6c:	e5c431d6 	strb	r3, [r4, #470]	; 0x1d6
    9d70:	e286100c 	add	r1, r6, #12
    9d74:	e5c431d7 	strb	r3, [r4, #471]	; 0x1d7
    9d78:	e286802d 	add	r8, r6, #45	; 0x2d
    9d7c:	e5c53024 	strb	r3, [r5, #36]	; 0x24
    9d80:	e1a00007 	mov	r0, r7
    9d84:	e5c431d9 	strb	r3, [r4, #473]	; 0x1d9
[31m    9d88:	ebfffc72 	bl	8f58 <strcpy@plt>[0m
    9d8c:	e1a00008 	mov	r0, r8
    9d90:	ebfffd36 	bl	9270 <strlen@plt>
--
    b678:	e5843034 	str	r3, [r4, #52]	; 0x34
    b67c:	e1a00008 	mov	r0, r8
    b680:	e5845030 	str	r5, [r4, #48]	; 0x30
    b684:	ebfff6f9 	bl	9270 <strlen@plt>
    b688:	e1a01008 	mov	r1, r8
    b68c:	e1a02000 	mov	r2, r0
    b690:	e2840038 	add	r0, r4, #56	; 0x38
    b694:	ebfff6a4 	bl	912c <strncpy@plt>
    b698:	e5dd206e 	ldrb	r2, [sp, #110]	; 0x6e
    b69c:	e1a00007 	mov	r0, r7
    b6a0:	e5dd306f 	ldrb	r3, [sp, #111]	; 0x6f
    b6a4:	e5c4213f 	strb	r2, [r4, #319]	; 0x13f
    b6a8:	e5c43140 	strb	r3, [r4, #320]	; 0x140
    b6ac:	ebfff6ef 	bl	9270 <strlen@plt>
    b6b0:	e350003f 	cmp	r0, #63	; 0x3f
    b6b4:	8a000032 	bhi	b784 <_start+0x24b4>
    b6b8:	e1a01007 	mov	r1, r7
    b6bc:	e28a8011 	add	r8, sl, #17
    b6c0:	e2840059 	add	r0, r4, #89	; 0x59
    b6c4:	e28a7091 	add	r7, sl, #145	; 0x91
[31m    b6c8:	ebfff622 	bl	8f58 <strcpy@plt>[0m
    b6cc:	e1a00008 	mov	r0, r8
    b6d0:	e3a0500c 	mov	r5, #12
--
    bcc0:	ebfff570 	bl	9288 <__assert@plt>
    bcc4:	0000db84 	andeq	sp, r0, r4, lsl #23
    bcc8:	0000db8c 	andeq	sp, r0, ip, lsl #23
    bccc:	0000db44 	andeq	sp, r0, r4, asr #22
    bcd0:	e92d4ff8 	push	{r3, r4, r5, r6, r7, r8, r9, sl, fp, lr}
    bcd4:	e1a0b000 	mov	fp, r0
    bcd8:	e59d602c 	ldr	r6, [sp, #44]	; 0x2c
    bcdc:	e1a07001 	mov	r7, r1
    bce0:	e1a05002 	mov	r5, r2
    bce4:	e1a09003 	mov	r9, r3
    bce8:	e2868011 	add	r8, r6, #17
    bcec:	e1a00008 	mov	r0, r8
    bcf0:	ebfff4bc 	bl	8fe8 <malloc@plt>
    bcf4:	e2504000 	subs	r4, r0, #0
    bcf8:	0a00002a 	beq	bda8 <_start+0x2ad8>
    bcfc:	e1a02008 	mov	r2, r8
    bd00:	e3a01000 	mov	r1, #0
    bd04:	ebfff51d 	bl	9180 <memset@plt>
    bd08:	e1a01007 	mov	r1, r7
    bd0c:	e1a00004 	mov	r0, r4
[31m    bd10:	ebfff490 	bl	8f58 <strcpy@plt>[0m
    bd14:	e1a0cc25 	lsr	ip, r5, #24
    bd18:	e3a03000 	mov	r3, #0
--
    c3c4:	0000dcdc 	ldrdeq	sp, [r0], -ip
    c3c8:	e92d45f0 	push	{r4, r5, r6, r7, r8, sl, lr}
    c3cc:	e24ddf43 	sub	sp, sp, #268	; 0x10c
    c3d0:	e59f5134 	ldr	r5, [pc, #308]	; c50c <_start+0x323c>
    c3d4:	e1a07000 	mov	r7, r0
    c3d8:	e28d6088 	add	r6, sp, #136	; 0x88
    c3dc:	e1a00001 	mov	r0, r1
    c3e0:	ebffff11 	bl	c02c <_start+0x2d5c>
    c3e4:	e3a01080 	mov	r1, #128	; 0x80
    c3e8:	e1a03000 	mov	r3, r0
    c3ec:	e59f211c 	ldr	r2, [pc, #284]	; c510 <_start+0x3240>
    c3f0:	e1a00006 	mov	r0, r6
    c3f4:	ebfff2ec 	bl	8fac <snprintf@plt>
    c3f8:	e5954000 	ldr	r4, [r5]
    c3fc:	e3540000 	cmp	r4, #0
    c400:	0a00001d 	beq	c47c <_start+0x31ac>
    c404:	e28da008 	add	sl, sp, #8
    c408:	ea00000b 	b	c43c <_start+0x316c>
    c40c:	e1a01006 	mov	r1, r6
    c410:	e1a0000a 	mov	r0, sl
[31m    c414:	ebfff2cf 	bl	8f58 <strcpy@plt>[0m
    c418:	e2841003 	add	r1, r4, #3
    c41c:	e1a0000a 	mov	r0, sl
--
    c540:	e1a07002 	mov	r7, r2
    c544:	e28d5f42 	add	r5, sp, #264	; 0x108
    c548:	ebfffeb7 	bl	c02c <_start+0x2d5c>
    c54c:	e1a06000 	mov	r6, r0
    c550:	e3a01080 	mov	r1, #128	; 0x80
    c554:	e1a03006 	mov	r3, r6
    c558:	e1a00005 	mov	r0, r5
    c55c:	e59f2138 	ldr	r2, [pc, #312]	; c69c <_start+0x33cc>
    c560:	ebfff291 	bl	8fac <snprintf@plt>
    c564:	e5d73022 	ldrb	r3, [r7, #34]	; 0x22
    c568:	e3530000 	cmp	r3, #0
    c56c:	0a000045 	beq	c688 <_start+0x33b8>
    c570:	e59f9128 	ldr	r9, [pc, #296]	; c6a0 <_start+0x33d0>
    c574:	e5998000 	ldr	r8, [r9]
    c578:	e3580000 	cmp	r8, #0
    c57c:	028d4088 	addeq	r4, sp, #136	; 0x88
    c580:	0a00000c 	beq	c5b8 <_start+0x32e8>
    c584:	e28d4088 	add	r4, sp, #136	; 0x88
    c588:	e1a01005 	mov	r1, r5
    c58c:	e1a00004 	mov	r0, r4
[31m    c590:	ebfff270 	bl	8f58 <strcpy@plt>[0m
    c594:	e2881003 	add	r1, r8, #3
    c598:	e1a00004 	mov	r0, r4
--
    c6e8:	e59f20f8 	ldr	r2, [pc, #248]	; c7e8 <_start+0x3518>
    c6ec:	e1a00004 	mov	r0, r4
    c6f0:	ebfff22d 	bl	8fac <snprintf@plt>
    c6f4:	e5967000 	ldr	r7, [r6]
    c6f8:	e3570000 	cmp	r7, #0
    c6fc:	0a000035 	beq	c7d8 <_start+0x3508>
    c700:	e59fa0e4 	ldr	sl, [pc, #228]	; c7ec <_start+0x351c>
    c704:	e286600c 	add	r6, r6, #12
    c708:	e1a0500d 	mov	r5, sp
    c70c:	e3a08000 	mov	r8, #0
    c710:	ea000002 	b	c720 <_start+0x3450>
    c714:	e496700c 	ldr	r7, [r6], #12
    c718:	e3570000 	cmp	r7, #0
    c71c:	0a00002d 	beq	c7d8 <_start+0x3508>
    c720:	e5163008 	ldr	r3, [r6, #-8]
    c724:	e5d33000 	ldrb	r3, [r3]
    c728:	e3530000 	cmp	r3, #0
    c72c:	0afffff8 	beq	c714 <_start+0x3444>
    c730:	e1a01004 	mov	r1, r4
    c734:	e1a0000d 	mov	r0, sp
[31m    c738:	ebfff206 	bl	8f58 <strcpy@plt>[0m
    c73c:	e2871003 	add	r1, r7, #3
    c740:	e1a0000d 	mov	r0, sp
    c744:	ebfff251 	bl	9090 <strcat@plt>
    c748:	e1a0000d 	mov	r0, sp
    c74c:	ebfff288 	bl	9174 <nvram_get@plt>
    c750:	e3500000 	cmp	r0, #0
    c754:	11a01000 	movne	r1, r0
    c758:	01a0100a 	moveq	r1, sl
    c75c:	e1a0000d 	mov	r0, sp
[31m    c760:	ebfff1fc 	bl	8f58 <strcpy@plt>[0m
    c764:	e1a0000d 	mov	r0, sp
    c768:	ebfff2c0 	bl	9270 <strlen@plt>
--
    c904:	e92d45f0 	push	{r4, r5, r6, r7, r8, sl, lr}
    c908:	e1a00001 	mov	r0, r1
    c90c:	e24dd084 	sub	sp, sp, #132	; 0x84
    c910:	e1a05002 	mov	r5, r2
    c914:	e285a001 	add	sl, r5, #1
    c918:	e1a07005 	mov	r7, r5
    c91c:	ebfffdc2 	bl	c02c <_start+0x2d5c>
    c920:	e59f8260 	ldr	r8, [pc, #608]	; cb88 <_start+0x38b8>
    c924:	e3a01080 	mov	r1, #128	; 0x80
    c928:	e1a03000 	mov	r3, r0
    c92c:	e59f2258 	ldr	r2, [pc, #600]	; cb8c <_start+0x38bc>
    c930:	e1a06000 	mov	r6, r0
    c934:	e1a0000d 	mov	r0, sp
    c938:	ebfff19b 	bl	8fac <snprintf@plt>
    c93c:	e1a0000d 	mov	r0, sp
    c940:	ebfff20b 	bl	9174 <nvram_get@plt>
    c944:	e3500000 	cmp	r0, #0
    c948:	11a01000 	movne	r1, r0
    c94c:	01a01008 	moveq	r1, r8
    c950:	e1a0000a 	mov	r0, sl
[31m    c954:	ebfff17f 	bl	8f58 <strcpy@plt>[0m
    c958:	e3a01080 	mov	r1, #128	; 0x80
    c95c:	e59f222c 	ldr	r2, [pc, #556]	; cb90 <_start+0x38c0>
--
    c968:	ebfff18f 	bl	8fac <snprintf@plt>
    c96c:	e1a0000d 	mov	r0, sp
    c970:	ebfff1ff 	bl	9174 <nvram_get@plt>
    c974:	e3500000 	cmp	r0, #0
    c978:	01a00008 	moveq	r0, r8
    c97c:	ebfff232 	bl	924c <atoi@plt>
    c980:	e2700001 	rsbs	r0, r0, #1
    c984:	33a00000 	movcc	r0, #0
    c988:	e3a01080 	mov	r1, #128	; 0x80
    c98c:	e59f2200 	ldr	r2, [pc, #512]	; cb94 <_start+0x38c4>
    c990:	e1a03006 	mov	r3, r6
    c994:	e4c70022 	strb	r0, [r7], #34	; 0x22
    c998:	e1a0000d 	mov	r0, sp
    c99c:	ebfff182 	bl	8fac <snprintf@plt>
    c9a0:	e1a0000d 	mov	r0, sp
    c9a4:	ebfff1f2 	bl	9174 <nvram_get@plt>
    c9a8:	e3500000 	cmp	r0, #0
    c9ac:	11a01000 	movne	r1, r0
    c9b0:	01a01008 	moveq	r1, r8
    c9b4:	e1a00007 	mov	r0, r7
[31m    c9b8:	ebfff166 	bl	8f58 <strcpy@plt>[0m
    c9bc:	e1a00007 	mov	r0, r7
    c9c0:	ebfff22a 	bl	9270 <strlen@plt>
--
    cc08:	e3500000 	cmp	r0, #0
    cc0c:	0a000021 	beq	cc98 <_start+0x39c8>
    cc10:	e59f10e4 	ldr	r1, [pc, #228]	; ccfc <_start+0x3a2c>
    cc14:	ebfff132 	bl	90e4 <strstr@plt>
    cc18:	e3500000 	cmp	r0, #0
    cc1c:	0a00001d 	beq	cc98 <_start+0x39c8>
    cc20:	e3a01080 	mov	r1, #128	; 0x80
    cc24:	e1a03006 	mov	r3, r6
    cc28:	e59f20d0 	ldr	r2, [pc, #208]	; cd00 <_start+0x3a30>
    cc2c:	e1a00005 	mov	r0, r5
    cc30:	e59f70cc 	ldr	r7, [pc, #204]	; cd04 <_start+0x3a34>
    cc34:	e2848001 	add	r8, r4, #1
    cc38:	ebfff0db 	bl	8fac <snprintf@plt>
    cc3c:	e1a00005 	mov	r0, r5
    cc40:	e284a022 	add	sl, r4, #34	; 0x22
    cc44:	ebfff14a 	bl	9174 <nvram_get@plt>
    cc48:	e3500000 	cmp	r0, #0
    cc4c:	11a01000 	movne	r1, r0
    cc50:	01a01007 	moveq	r1, r7
    cc54:	e1a00008 	mov	r0, r8
[31m    cc58:	ebfff0be 	bl	8f58 <strcpy@plt>[0m
    cc5c:	e3a01080 	mov	r1, #128	; 0x80
    cc60:	e1a03006 	mov	r3, r6
    cc64:	e59f209c 	ldr	r2, [pc, #156]	; cd08 <_start+0x3a38>
    cc68:	e1a00005 	mov	r0, r5
    cc6c:	ebfff0ce 	bl	8fac <snprintf@plt>
    cc70:	e1a00005 	mov	r0, r5
    cc74:	ebfff13e 	bl	9174 <nvram_get@plt>
    cc78:	e3500000 	cmp	r0, #0
    cc7c:	11a01000 	movne	r1, r0
    cc80:	01a01007 	moveq	r1, r7
    cc84:	e1a0000a 	mov	r0, sl
[31m    cc88:	ebfff0b2 	bl	8f58 <strcpy@plt>[0m
    cc8c:	e3a03001 	mov	r3, #1
    cc90:	e5c43000 	strb	r3, [r4]
--
    cfac:	e58d0008 	str	r0, [sp, #8]
    cfb0:	e59f0310 	ldr	r0, [pc, #784]	; d2c8 <_start+0x3ff8>
    cfb4:	ebfff06e 	bl	9174 <nvram_get@plt>
    cfb8:	e59f32f4 	ldr	r3, [pc, #756]	; d2b4 <_start+0x3fe4>
    cfbc:	e3500000 	cmp	r0, #0
    cfc0:	01a00003 	moveq	r0, r3
    cfc4:	e5d03000 	ldrb	r3, [r0]
    cfc8:	e3530000 	cmp	r3, #0
    cfcc:	03a03001 	moveq	r3, #1
    cfd0:	058d300c 	streq	r3, [sp, #12]
    cfd4:	1a000061 	bne	d160 <_start+0x3e90>
    cfd8:	e3a03001 	mov	r3, #1
    cfdc:	e5843008 	str	r3, [r4, #8]
    cfe0:	e59f72cc 	ldr	r7, [pc, #716]	; d2b4 <_start+0x3fe4>
    cfe4:	e59f02e0 	ldr	r0, [pc, #736]	; d2cc <_start+0x3ffc>
    cfe8:	ebfff061 	bl	9174 <nvram_get@plt>
    cfec:	e3500000 	cmp	r0, #0
    cff0:	11a01000 	movne	r1, r0
    cff4:	01a01007 	moveq	r1, r7
    cff8:	e2850011 	add	r0, r5, #17
[31m    cffc:	ebffefd5 	bl	8f58 <strcpy@plt>[0m
    d000:	e59f02c8 	ldr	r0, [pc, #712]	; d2d0 <_start+0x4000>
    d004:	ebfff05a 	bl	9174 <nvram_get@plt>
--
    d048:	1a000048 	bne	d170 <_start+0x3ea0>
    d04c:	e28d70a4 	add	r7, sp, #164	; 0xa4
    d050:	e3a01080 	mov	r1, #128	; 0x80
    d054:	e59f2278 	ldr	r2, [pc, #632]	; d2d4 <_start+0x4004>
    d058:	e1a00007 	mov	r0, r7
    d05c:	e59d31e4 	ldr	r3, [sp, #484]	; 0x1e4
    d060:	ebffefd1 	bl	8fac <snprintf@plt>
    d064:	e1a00007 	mov	r0, r7
    d068:	ebfff041 	bl	9174 <nvram_get@plt>
    d06c:	e3500000 	cmp	r0, #0
    d070:	0a000003 	beq	d084 <_start+0x3db4>
    d074:	e59f125c 	ldr	r1, [pc, #604]	; d2d8 <_start+0x4008>
    d078:	ebfff04f 	bl	91bc <strcmp@plt>
    d07c:	e3500000 	cmp	r0, #0
    d080:	0a00003a 	beq	d170 <_start+0x3ea0>
    d084:	eb0000aa 	bl	d334 <_start+0x4064>
    d088:	e2507000 	subs	r7, r0, #0
    d08c:	1a000037 	bne	d170 <_start+0x3ea0>
    d090:	e1a0100a 	mov	r1, sl
    d094:	e2850091 	add	r0, r5, #145	; 0x91
[31m    d098:	ebffefae 	bl	8f58 <strcpy@plt>[0m
    d09c:	e1a0100a 	mov	r1, sl
    d0a0:	e59f0234 	ldr	r0, [pc, #564]	; d2dc <_start+0x400c>
[31m    d0a4:	ebffefab 	bl	8f58 <strcpy@plt>[0m
    d0a8:	e59f3230 	ldr	r3, [pc, #560]	; d2e0 <_start+0x4010>
    d0ac:	e3a02040 	mov	r2, #64	; 0x40

[0m
[[0;33m*[0m] Function [0;33mstrcpy[0m used [0;33m15[0m times [0;33mses[0m

