[[0;33m*[0m] Binary protection state of [0;33mlibxt_physdev.so.svn-base[0m
[REF] s12

  	RELRO          CANARY            NX           PIE       RPATH        RUNPATH      SYMBOLS      
  	[31mNo RELRO[0m       [31mNo Canary found[0m   [32mNX enabled[0m   [33mDSO[0m          [32mNo RPATH[0m     [32mNo RUNPATH[0m   [31mSymbols
	[31mNo RELRO[0m       [31mNo Canary found[0m   [32mNX enabled[0m   [33mDSO[0m          [32mNo RPATH[0m     [32mNo RUNPATH[0m   [32mNo Symbols[0m

[0m
[[0;33m*[0m] Function [0;33mprintf[0m tear down of [0;33mlibxt_physdev.so.svn-base[0m

 774:	e5d53014 	ldrb	r3, [r5, #20]
 778:	e3530000 	cmp	r3, #0
 77c:	15d43040 	ldrbne	r3, [r4, #64]	; 0x40
 780:	13833010 	orrne	r3, r3, #16
 784:	15c43040 	strbne	r3, [r4, #64]	; 0x40
 788:	e8bd8038 	pop	{r3, r4, r5, pc}
 78c:	e92d4070 	push	{r4, r5, r6, lr}
 790:	e2815020 	add	r5, r1, #32
 794:	e5d53041 	ldrb	r3, [r5, #65]	; 0x41
 798:	e59f4120 	ldr	r4, [pc, #288]	; 8c0 <__register_frame_info@plt+0x380>
 79c:	e3130008 	tst	r3, #8
 7a0:	e08f4004 	add	r4, pc, r4
 7a4:	0a000008 	beq	7cc <__register_frame_info@plt+0x28c>
 7a8:	e5d53040 	ldrb	r3, [r5, #64]	; 0x40
 7ac:	e3130008 	tst	r3, #8
 7b0:	1a00003f 	bne	8b4 <__register_frame_info@plt+0x374>
 7b4:	e59f1108 	ldr	r1, [pc, #264]	; 8c4 <__register_frame_info@plt+0x384>
 7b8:	e0841001 	add	r1, r4, r1
 7bc:	e59f0104 	ldr	r0, [pc, #260]	; 8c8 <__register_frame_info@plt+0x388>
 7c0:	e0840000 	add	r0, r4, r0
[31m 7c4:	ebffff48 	bl	4ec <printf@plt>[0m
 7c8:	e5d53041 	ldrb	r3, [r5, #65]	; 0x41
 7cc:	e3130001 	tst	r3, #1
 7d0:	0a000009 	beq	7fc <__register_frame_info@plt+0x2bc>
 7d4:	e5d53040 	ldrb	r3, [r5, #64]	; 0x40
 7d8:	e3130001 	tst	r3, #1
 7dc:	1a000031 	bne	8a8 <__register_frame_info@plt+0x368>
 7e0:	e59f10dc 	ldr	r1, [pc, #220]	; 8c4 <__register_frame_info@plt+0x384>
 7e4:	e0841001 	add	r1, r4, r1
 7e8:	e59f00dc 	ldr	r0, [pc, #220]	; 8cc <__register_frame_info@plt+0x38c>
 7ec:	e1a02005 	mov	r2, r5
 7f0:	e0840000 	add	r0, r4, r0
[31m 7f4:	ebffff3c 	bl	4ec <printf@plt>[0m
 7f8:	e5d53041 	ldrb	r3, [r5, #65]	; 0x41
 7fc:	e3130010 	tst	r3, #16
 800:	0a000008 	beq	828 <__register_frame_info@plt+0x2e8>
 804:	e5d53040 	ldrb	r3, [r5, #64]	; 0x40
 808:	e3130010 	tst	r3, #16
 80c:	1a000022 	bne	89c <__register_frame_info@plt+0x35c>
 810:	e59f10ac 	ldr	r1, [pc, #172]	; 8c4 <__register_frame_info@plt+0x384>
 814:	e0841001 	add	r1, r4, r1
 818:	e59f00b0 	ldr	r0, [pc, #176]	; 8d0 <__register_frame_info@plt+0x390>
 81c:	e0840000 	add	r0, r4, r0
[31m 820:	ebffff31 	bl	4ec <printf@plt>[0m
 824:	e5d53041 	ldrb	r3, [r5, #65]	; 0x41
 828:	e3130002 	tst	r3, #2
 82c:	0a000009 	beq	858 <__register_frame_info@plt+0x318>
 830:	e5d53040 	ldrb	r3, [r5, #64]	; 0x40
 834:	e3130002 	tst	r3, #2
 838:	1a000014 	bne	890 <__register_frame_info@plt+0x350>
 83c:	e59f1080 	ldr	r1, [pc, #128]	; 8c4 <__register_frame_info@plt+0x384>
 840:	e0841001 	add	r1, r4, r1
 844:	e59f0088 	ldr	r0, [pc, #136]	; 8d4 <__register_frame_info@plt+0x394>
 848:	e2852020 	add	r2, r5, #32
 84c:	e0840000 	add	r0, r4, r0
[31m 850:	ebffff25 	bl	4ec <printf@plt>[0m
 854:	e5d53041 	ldrb	r3, [r5, #65]	; 0x41
 858:	e3130004 	tst	r3, #4
--
 8a8:	e59f102c 	ldr	r1, [pc, #44]	; 8dc <__register_frame_info@plt+0x39c>
 8ac:	e0841001 	add	r1, r4, r1
 8b0:	eaffffcc 	b	7e8 <__register_frame_info@plt+0x2a8>
 8b4:	e59f1020 	ldr	r1, [pc, #32]	; 8dc <__register_frame_info@plt+0x39c>
 8b8:	e0841001 	add	r1, r4, r1
 8bc:	eaffffbe 	b	7bc <__register_frame_info@plt+0x27c>
 8c0:	000086f4 	strdeq	r8, [r0], -r4
 8c4:	ffff7c14 			; <UNDEFINED> instruction: 0xffff7c14
 8c8:	ffff7c1c 			; <UNDEFINED> instruction: 0xffff7c1c
 8cc:	ffff7c30 			; <UNDEFINED> instruction: 0xffff7c30
 8d0:	ffff7c44 			; <UNDEFINED> instruction: 0xffff7c44
 8d4:	ffff7c58 			; <UNDEFINED> instruction: 0xffff7c58
 8d8:	ffff7c6c 			; <UNDEFINED> instruction: 0xffff7c6c
 8dc:	ffff7c18 			; <UNDEFINED> instruction: 0xffff7c18
 8e0:	e92d4070 	push	{r4, r5, r6, lr}
 8e4:	e2815020 	add	r5, r1, #32
 8e8:	e59f4130 	ldr	r4, [pc, #304]	; a20 <__register_frame_info@plt+0x4e0>
 8ec:	e59f0130 	ldr	r0, [pc, #304]	; a24 <__register_frame_info@plt+0x4e4>
 8f0:	e08f4004 	add	r4, pc, r4
 8f4:	e0840000 	add	r0, r4, r0
[31m 8f8:	ebfffefb 	bl	4ec <printf@plt>[0m
 8fc:	e5d53041 	ldrb	r3, [r5, #65]	; 0x41
 900:	e3130008 	tst	r3, #8
 904:	0a000008 	beq	92c <__register_frame_info@plt+0x3ec>
 908:	e5d53040 	ldrb	r3, [r5, #64]	; 0x40
 90c:	e3130008 	tst	r3, #8
 910:	1a00003f 	bne	a14 <__register_frame_info@plt+0x4d4>
 914:	e59f110c 	ldr	r1, [pc, #268]	; a28 <__register_frame_info@plt+0x4e8>
 918:	e0841001 	add	r1, r4, r1
 91c:	e59f0108 	ldr	r0, [pc, #264]	; a2c <__register_frame_info@plt+0x4ec>
 920:	e0840000 	add	r0, r4, r0
[31m 924:	ebfffef0 	bl	4ec <printf@plt>[0m
 928:	e5d53041 	ldrb	r3, [r5, #65]	; 0x41
 92c:	e3130001 	tst	r3, #1
 930:	0a000009 	beq	95c <__register_frame_info@plt+0x41c>
 934:	e5d53040 	ldrb	r3, [r5, #64]	; 0x40
 938:	e3130001 	tst	r3, #1
 93c:	1a000031 	bne	a08 <__register_frame_info@plt+0x4c8>
 940:	e59f10e0 	ldr	r1, [pc, #224]	; a28 <__register_frame_info@plt+0x4e8>
 944:	e0841001 	add	r1, r4, r1
 948:	e59f00e0 	ldr	r0, [pc, #224]	; a30 <__register_frame_info@plt+0x4f0>
 94c:	e1a02005 	mov	r2, r5
 950:	e0840000 	add	r0, r4, r0
[31m 954:	ebfffee4 	bl	4ec <printf@plt>[0m
 958:	e5d53041 	ldrb	r3, [r5, #65]	; 0x41
 95c:	e3130010 	tst	r3, #16
 960:	0a000008 	beq	988 <__register_frame_info@plt+0x448>
 964:	e5d53040 	ldrb	r3, [r5, #64]	; 0x40
 968:	e3130010 	tst	r3, #16
 96c:	1a000022 	bne	9fc <__register_frame_info@plt+0x4bc>
 970:	e59f10b0 	ldr	r1, [pc, #176]	; a28 <__register_frame_info@plt+0x4e8>
 974:	e0841001 	add	r1, r4, r1
 978:	e59f00b4 	ldr	r0, [pc, #180]	; a34 <__register_frame_info@plt+0x4f4>
 97c:	e0840000 	add	r0, r4, r0
[31m 980:	ebfffed9 	bl	4ec <printf@plt>[0m
 984:	e5d53041 	ldrb	r3, [r5, #65]	; 0x41
 988:	e3130002 	tst	r3, #2
 98c:	0a000009 	beq	9b8 <__register_frame_info@plt+0x478>
 990:	e5d53040 	ldrb	r3, [r5, #64]	; 0x40
 994:	e3130002 	tst	r3, #2
 998:	1a000014 	bne	9f0 <__register_frame_info@plt+0x4b0>
 99c:	e59f1084 	ldr	r1, [pc, #132]	; a28 <__register_frame_info@plt+0x4e8>
 9a0:	e0841001 	add	r1, r4, r1
 9a4:	e59f008c 	ldr	r0, [pc, #140]	; a38 <__register_frame_info@plt+0x4f8>
 9a8:	e2852020 	add	r2, r5, #32
 9ac:	e0840000 	add	r0, r4, r0
[31m 9b0:	ebfffecd 	bl	4ec <printf@plt>[0m
 9b4:	e5d53041 	ldrb	r3, [r5, #65]	; 0x41
 9b8:	e3130004 	tst	r3, #4

[0m
[[0;33m*[0m] Function [0;33mprintf[0m used [0;33m9[0m times [0;33mlibxt_physdev.so.svn-base[0m

