[[0;33m*[0m] Binary protection state of [0;33mwlconf[0m
[REF] s12

  	RELRO          CANARY            NX           PIE       RPATH        RUNPATH      SYMBOLS      
  	[31mNo RELRO[0m       [31mNo Canary found[0m   [32mNX enabled[0m   [31mNo PIE[0m       [32mNo RPATH[0m     [32mNo RUNPATH[0m   [32mNo Symbols[0m

[0m
[[0;33m*[0m] Function [0;33mstrcpy[0m tear down of [0;33mwlconf[0m

    8efc:	e59f0028 	ldr	r0, [pc, #40]	; 8f2c <_start@@Base+0xcc>
    8f00:	e5903000 	ldr	r3, [r0]
    8f04:	e3530000 	cmp	r3, #0
    8f08:	08bd8008 	popeq	{r3, pc}
    8f0c:	e59f301c 	ldr	r3, [pc, #28]	; 8f30 <_start@@Base+0xd0>
    8f10:	e3530000 	cmp	r3, #0
    8f14:	08bd8008 	popeq	{r3, pc}
    8f18:	e12fff33 	blx	r3
    8f1c:	e8bd8008 	pop	{r3, pc}
    8f20:	00000000 	andeq	r0, r0, r0
    8f24:	00011d44 	andeq	r1, r1, r4, asr #26
    8f28:	0001b360 	andeq	fp, r1, r0, ror #6
    8f2c:	0001a008 	andeq	sl, r1, r8
    8f30:	00000000 	andeq	r0, r0, r0
    8f34:	e92d4038 	push	{r3, r4, r5, lr}
    8f38:	e1a03000 	mov	r3, r0
    8f3c:	e1a04002 	mov	r4, r2
    8f40:	e1a05001 	mov	r5, r1
    8f44:	e1a00002 	mov	r0, r2
    8f48:	e1a01003 	mov	r1, r3
[31m    8f4c:	ebffff27 	bl	8bf0 <strcpy@plt>[0m
    8f50:	e1a00004 	mov	r0, r4
    8f54:	e1a01005 	mov	r1, r5
--
    8f80:	e92d4010 	push	{r4, lr}
    8f84:	e1a04001 	mov	r4, r1
    8f88:	ebffff72 	bl	8d58 <nvram_get@plt>
    8f8c:	e2503000 	subs	r3, r0, #0
    8f90:	0a000004 	beq	8fa8 <_start@@Base+0x148>
    8f94:	e1a01004 	mov	r1, r4
    8f98:	ebffff7a 	bl	8d88 <strcmp@plt>
    8f9c:	e2700001 	rsbs	r0, r0, #1
    8fa0:	33a00000 	movcc	r0, #0
    8fa4:	e8bd8010 	pop	{r4, pc}
    8fa8:	e1a00003 	mov	r0, r3
    8fac:	e8bd8010 	pop	{r4, pc}
    8fb0:	e3a03ffa 	mov	r3, #1000	; 0x3e8
    8fb4:	e0000093 	mul	r0, r3, r0
    8fb8:	eaffff1b 	b	8c2c <usleep@plt>
    8fbc:	e92d40f0 	push	{r4, r5, r6, r7, lr}
    8fc0:	e24dd044 	sub	sp, sp, #68	; 0x44
    8fc4:	e28d4020 	add	r4, sp, #32
    8fc8:	e1a01000 	mov	r1, r0
    8fcc:	e1a00004 	mov	r0, r4
[31m    8fd0:	ebffff06 	bl	8bf0 <strcpy@plt>[0m
    8fd4:	e1a00004 	mov	r0, r4
    8fd8:	ebffff8e 	bl	8e18 <strlen@plt>
--
    9174:	0a00000d 	beq	91b0 <_start@@Base+0x350>
    9178:	e59f1068 	ldr	r1, [pc, #104]	; 91e8 <_start@@Base+0x388>
    917c:	e1a00004 	mov	r0, r4
    9180:	e3a02003 	mov	r2, #3
    9184:	ebfffedb 	bl	8cf8 <strncmp@plt>
    9188:	e3500000 	cmp	r0, #0
    918c:	e1a01006 	mov	r1, r6
    9190:	e2840003 	add	r0, r4, #3
    9194:	1a000002 	bne	91a4 <_start@@Base+0x344>
    9198:	ebfffefa 	bl	8d88 <strcmp@plt>
    919c:	e3500000 	cmp	r0, #0
    91a0:	0a000004 	beq	91b8 <_start@@Base+0x358>
    91a4:	e5b5400c 	ldr	r4, [r5, #12]!
    91a8:	e3540000 	cmp	r4, #0
    91ac:	1afffff1 	bne	9178 <_start@@Base+0x318>
    91b0:	e28dd06c 	add	sp, sp, #108	; 0x6c
    91b4:	e8bd80f0 	pop	{r4, r5, r6, r7, pc}
    91b8:	e28d4004 	add	r4, sp, #4
    91bc:	e1a01007 	mov	r1, r7
    91c0:	e1a00004 	mov	r0, r4
[31m    91c4:	ebfffe89 	bl	8bf0 <strcpy@plt>[0m
    91c8:	e1a01006 	mov	r1, r6
    91cc:	e1a00004 	mov	r0, r4
    91d0:	ebfffeb9 	bl	8cbc <strcat@plt>
    91d4:	e1a00004 	mov	r0, r4
    91d8:	e5951004 	ldr	r1, [r5, #4]
    91dc:	ebfffebf 	bl	8ce0 <nvram_set@plt>
    91e0:	eafffff2 	b	91b0 <_start@@Base+0x350>
    91e4:	0001a1f8 	strdeq	sl, [r1], -r8
    91e8:	00011138 	andeq	r1, r1, r8, lsr r1
    91ec:	e92d41f0 	push	{r4, r5, r6, r7, r8, lr}
    91f0:	e1a05000 	mov	r5, r0
    91f4:	e24dd068 	sub	sp, sp, #104	; 0x68
    91f8:	e1a00001 	mov	r0, r1
    91fc:	e1a08001 	mov	r8, r1
    9200:	e1a06002 	mov	r6, r2
    9204:	ebffff6c 	bl	8fbc <_start@@Base+0x15c>
    9208:	e2504000 	subs	r4, r0, #0
    920c:	028d7004 	addeq	r7, sp, #4
    9210:	1a00001e 	bne	9290 <_start@@Base+0x430>
    9214:	e1a01008 	mov	r1, r8
    9218:	e1a00007 	mov	r0, r7
[31m    921c:	ebfffe73 	bl	8bf0 <strcpy@plt>[0m
    9220:	e1a00007 	mov	r0, r7
    9224:	ebfffefb 	bl	8e18 <strlen@plt>
--
    924c:	ebfffecd 	bl	8d88 <strcmp@plt>
    9250:	e3500000 	cmp	r0, #0
    9254:	03844001 	orreq	r4, r4, #1
    9258:	e1a02006 	mov	r2, r6
    925c:	e1a03004 	mov	r3, r4
    9260:	e59f1118 	ldr	r1, [pc, #280]	; 9380 <_start@@Base+0x520>
    9264:	e1a00005 	mov	r0, r5
    9268:	ebfffe78 	bl	8c50 <wl_bssiovar_setint@plt>
    926c:	e1a00005 	mov	r0, r5
    9270:	e59f110c 	ldr	r1, [pc, #268]	; 9384 <_start@@Base+0x524>
    9274:	e1a02006 	mov	r2, r6
    9278:	e2543000 	subs	r3, r4, #0
    927c:	13a03001 	movne	r3, #1
    9280:	ebfffe72 	bl	8c50 <wl_bssiovar_setint@plt>
    9284:	e3a00000 	mov	r0, #0
    9288:	e28dd068 	add	sp, sp, #104	; 0x68
    928c:	e8bd81f0 	pop	{r4, r5, r6, r7, r8, pc}
    9290:	e28d7004 	add	r7, sp, #4
    9294:	e1a01008 	mov	r1, r8
    9298:	e1a00007 	mov	r0, r7
[31m    929c:	ebfffe53 	bl	8bf0 <strcpy@plt>[0m
    92a0:	e1a00007 	mov	r0, r7
    92a4:	ebfffedb 	bl	8e18 <strlen@plt>
    92a8:	e59f10d8 	ldr	r1, [pc, #216]	; 9388 <_start@@Base+0x528>
    92ac:	e3a02007 	mov	r2, #7
    92b0:	e0870000 	add	r0, r7, r0
    92b4:	ebfffe5f 	bl	8c38 <memcpy@plt>
    92b8:	e1a00007 	mov	r0, r7
    92bc:	ebfffea5 	bl	8d58 <nvram_get@plt>
    92c0:	e3500000 	cmp	r0, #0
    92c4:	0a000003 	beq	92d8 <_start@@Base+0x478>
    92c8:	e59f10bc 	ldr	r1, [pc, #188]	; 938c <_start@@Base+0x52c>
    92cc:	ebfffead 	bl	8d88 <strcmp@plt>
    92d0:	e3500000 	cmp	r0, #0
    92d4:	0a000023 	beq	9368 <_start@@Base+0x508>
    92d8:	e1a01008 	mov	r1, r8
    92dc:	e1a00007 	mov	r0, r7
[31m    92e0:	ebfffe42 	bl	8bf0 <strcpy@plt>[0m
    92e4:	e1a00007 	mov	r0, r7
    92e8:	ebfffeca 	bl	8e18 <strlen@plt>
    92ec:	e59f1094 	ldr	r1, [pc, #148]	; 9388 <_start@@Base+0x528>
    92f0:	e3a02007 	mov	r2, #7
    92f4:	e0870000 	add	r0, r7, r0
    92f8:	ebfffe4e 	bl	8c38 <memcpy@plt>
    92fc:	e1a00007 	mov	r0, r7
    9300:	ebfffe94 	bl	8d58 <nvram_get@plt>
    9304:	e3500000 	cmp	r0, #0
    9308:	0a000003 	beq	931c <_start@@Base+0x4bc>
    930c:	e59f107c 	ldr	r1, [pc, #124]	; 9390 <_start@@Base+0x530>
    9310:	ebfffe9c 	bl	8d88 <strcmp@plt>
    9314:	e3500000 	cmp	r0, #0
    9318:	0a000014 	beq	9370 <_start@@Base+0x510>
    931c:	e1a01008 	mov	r1, r8
    9320:	e1a00007 	mov	r0, r7
[31m    9324:	ebfffe31 	bl	8bf0 <strcpy@plt>[0m
    9328:	e1a00007 	mov	r0, r7
    932c:	ebfffeb9 	bl	8e18 <strlen@plt>
--
    9388:	0001113c 	andeq	r1, r1, ip, lsr r1
    938c:	00011144 	andeq	r1, r1, r4, asr #2
    9390:	0001114c 	andeq	r1, r1, ip, asr #2
    9394:	00011150 	andeq	r1, r1, r0, asr r1
    9398:	e92d4ff0 	push	{r4, r5, r6, r7, r8, r9, sl, fp, lr}
    939c:	e24ddf5f 	sub	sp, sp, #380	; 0x17c
    93a0:	e58d0010 	str	r0, [sp, #16]
    93a4:	e1a09001 	mov	r9, r1
    93a8:	e1a06003 	mov	r6, r3
    93ac:	e58d2014 	str	r2, [sp, #20]
    93b0:	e5dd81a0 	ldrb	r8, [sp, #416]	; 0x1a0
    93b4:	ebffff8c 	bl	91ec <_start@@Base+0x38c>
    93b8:	e3500000 	cmp	r0, #0
    93bc:	1a000106 	bne	97dc <_start@@Base+0x97c>
    93c0:	e28d50cc 	add	r5, sp, #204	; 0xcc
    93c4:	e1a00009 	mov	r0, r9
    93c8:	ebfffefb 	bl	8fbc <_start@@Base+0x15c>
    93cc:	e1a01009 	mov	r1, r9
    93d0:	e1a04000 	mov	r4, r0
    93d4:	e1a00005 	mov	r0, r5
[31m    93d8:	ebfffe04 	bl	8bf0 <strcpy@plt>[0m
    93dc:	e1a00005 	mov	r0, r5
    93e0:	ebfffe8c 	bl	8e18 <strlen@plt>
--
    942c:	e3570000 	cmp	r7, #0
    9430:	0a000001 	beq	943c <_start@@Base+0x5dc>
    9434:	e31400c6 	tst	r4, #198	; 0xc6
    9438:	1a0000b2 	bne	9708 <_start@@Base+0x8a8>
    943c:	e3560000 	cmp	r6, #0
    9440:	0a000001 	beq	944c <_start@@Base+0x5ec>
    9444:	e3140084 	tst	r4, #132	; 0x84
    9448:	1a0000f4 	bne	9820 <_start@@Base+0x9c0>
    944c:	e3570000 	cmp	r7, #0
    9450:	0a0000c7 	beq	9774 <_start@@Base+0x914>
    9454:	e3540000 	cmp	r4, #0
    9458:	13a04001 	movne	r4, #1
    945c:	0a0000cc 	beq	9794 <_start@@Base+0x934>
    9460:	e1a03004 	mov	r3, r4
    9464:	e59d2014 	ldr	r2, [sp, #20]
    9468:	e59f144c 	ldr	r1, [pc, #1100]	; 98bc <_start@@Base+0xa5c>
    946c:	e59d0010 	ldr	r0, [sp, #16]
    9470:	ebfffdf6 	bl	8c50 <wl_bssiovar_setint@plt>
    9474:	e1a01009 	mov	r1, r9
    9478:	e1a00005 	mov	r0, r5
[31m    947c:	ebfffddb 	bl	8bf0 <strcpy@plt>[0m
    9480:	e1a00005 	mov	r0, r5
    9484:	ebfffe63 	bl	8e18 <strlen@plt>
    9488:	e59f1430 	ldr	r1, [pc, #1072]	; 98c0 <_start@@Base+0xa60>
    948c:	e3a02004 	mov	r2, #4
    9490:	e0850000 	add	r0, r5, r0
    9494:	ebfffde7 	bl	8c38 <memcpy@plt>
    9498:	e1a00005 	mov	r0, r5
    949c:	ebfffe2d 	bl	8d58 <nvram_get@plt>
    94a0:	e3500000 	cmp	r0, #0
    94a4:	0a000003 	beq	94b8 <_start@@Base+0x658>
    94a8:	e59f1414 	ldr	r1, [pc, #1044]	; 98c4 <_start@@Base+0xa64>
    94ac:	ebfffe35 	bl	8d88 <strcmp@plt>
    94b0:	e3500000 	cmp	r0, #0
    94b4:	0a000015 	beq	9510 <_start@@Base+0x6b0>
    94b8:	e1a01009 	mov	r1, r9
    94bc:	e1a00005 	mov	r0, r5
[31m    94c0:	ebfffdca 	bl	8bf0 <strcpy@plt>[0m
    94c4:	e1a00005 	mov	r0, r5
    94c8:	ebfffe52 	bl	8e18 <strlen@plt>
--
    9658:	e5f83002 	ldrb	r3, [r8, #2]!
    965c:	e3530000 	cmp	r3, #0
    9660:	1afffff3 	bne	9634 <_start@@Base+0x7d4>
    9664:	e59d3020 	ldr	r3, [sp, #32]
    9668:	e3530000 	cmp	r3, #0
    966c:	1a00000e 	bne	96ac <_start@@Base+0x84c>
    9670:	e3a0c0a4 	mov	ip, #164	; 0xa4
    9674:	e59d0010 	ldr	r0, [sp, #16]
    9678:	e59f1254 	ldr	r1, [pc, #596]	; 98d4 <_start@@Base+0xa74>
    967c:	e1a0300b 	mov	r3, fp
    9680:	e59d2014 	ldr	r2, [sp, #20]
    9684:	e2866001 	add	r6, r6, #1
    9688:	e58dc000 	str	ip, [sp]
    968c:	ebfffdae 	bl	8d4c <wl_bssiovar_set@plt>
    9690:	e3560005 	cmp	r6, #5
    9694:	1affffa3 	bne	9528 <_start@@Base+0x6c8>
    9698:	eaffff86 	b	94b8 <_start@@Base+0x658>
    969c:	e28b0008 	add	r0, fp, #8
    96a0:	e1a01008 	mov	r1, r8
    96a4:	e58d3020 	str	r3, [sp, #32]
[31m    96a8:	ebfffd50 	bl	8bf0 <strcpy@plt>[0m
    96ac:	e1a01009 	mov	r1, r9
    96b0:	e1a00007 	mov	r0, r7
[31m    96b4:	ebfffd4d 	bl	8bf0 <strcpy@plt>[0m
    96b8:	e1a00007 	mov	r0, r7
    96bc:	ebfffdd5 	bl	8e18 <strlen@plt>
--
    974c:	e1530001 	cmp	r3, r1
    9750:	bafffff9 	blt	973c <_start@@Base+0x8dc>
    9754:	e3a0c0b0 	mov	ip, #176	; 0xb0
    9758:	e59d0010 	ldr	r0, [sp, #16]
    975c:	e59f117c 	ldr	r1, [pc, #380]	; 98e0 <_start@@Base+0xa80>
    9760:	e1a0300b 	mov	r3, fp
    9764:	e59d2014 	ldr	r2, [sp, #20]
    9768:	e58dc000 	str	ip, [sp]
    976c:	ebfffd76 	bl	8d4c <wl_bssiovar_set@plt>
    9770:	eaffff31 	b	943c <_start@@Base+0x5dc>
    9774:	e1a03004 	mov	r3, r4
    9778:	e59d0010 	ldr	r0, [sp, #16]
    977c:	e59f1160 	ldr	r1, [pc, #352]	; 98e4 <_start@@Base+0xa84>
    9780:	e59d2014 	ldr	r2, [sp, #20]
    9784:	ebfffd31 	bl	8c50 <wl_bssiovar_setint@plt>
    9788:	e3540000 	cmp	r4, #0
    978c:	13a04001 	movne	r4, #1
    9790:	1affff32 	bne	9460 <_start@@Base+0x600>
    9794:	e1a01009 	mov	r1, r9
    9798:	e1a00005 	mov	r0, r5
[31m    979c:	ebfffd13 	bl	8bf0 <strcpy@plt>[0m
    97a0:	e1a00005 	mov	r0, r5
    97a4:	ebfffd9b 	bl	8e18 <strlen@plt>
--
    97d8:	eaffff20 	b	9460 <_start@@Base+0x600>
    97dc:	e1a00009 	mov	r0, r9
    97e0:	e59f1100 	ldr	r1, [pc, #256]	; 98e8 <_start@@Base+0xa88>
    97e4:	ebfffe5b 	bl	9158 <_start@@Base+0x2f8>
    97e8:	e1a00009 	mov	r0, r9
    97ec:	e59f10d4 	ldr	r1, [pc, #212]	; 98c8 <_start@@Base+0xa68>
    97f0:	ebfffe58 	bl	9158 <_start@@Base+0x2f8>
    97f4:	e1a00009 	mov	r0, r9
    97f8:	e59f10f0 	ldr	r1, [pc, #240]	; 98f0 <_start@@Base+0xa90>
    97fc:	ebfffe55 	bl	9158 <_start@@Base+0x2f8>
    9800:	e1a00009 	mov	r0, r9
    9804:	e59f10b4 	ldr	r1, [pc, #180]	; 98c0 <_start@@Base+0xa60>
    9808:	ebfffe52 	bl	9158 <_start@@Base+0x2f8>
    980c:	e59d0010 	ldr	r0, [sp, #16]
    9810:	e1a01009 	mov	r1, r9
    9814:	e59d2014 	ldr	r2, [sp, #20]
    9818:	ebfffe73 	bl	91ec <_start@@Base+0x38c>
    981c:	eafffee7 	b	93c0 <_start@@Base+0x560>
    9820:	e1a01009 	mov	r1, r9
    9824:	e1a00005 	mov	r0, r5
[31m    9828:	ebfffcf0 	bl	8bf0 <strcpy@plt>[0m
    982c:	e1a00005 	mov	r0, r5
    9830:	ebfffd78 	bl	8e18 <strlen@plt>
--
    9848:	ebfffd42 	bl	8d58 <nvram_get@plt>
    984c:	e2506000 	subs	r6, r0, #0
    9850:	0a000003 	beq	9864 <_start@@Base+0xa04>
    9854:	ebfffd6f 	bl	8e18 <strlen@plt>
    9858:	e3500040 	cmp	r0, #64	; 0x40
    985c:	e1a03000 	mov	r3, r0
    9860:	9a000004 	bls	9878 <_start@@Base+0xa18>
    9864:	e59d0010 	ldr	r0, [sp, #16]
    9868:	e3a02001 	mov	r2, #1
    986c:	e59f1084 	ldr	r1, [pc, #132]	; 98f8 <_start@@Base+0xa98>
    9870:	ebfffd29 	bl	8d1c <wl_iovar_setint@plt>
    9874:	eafffef4 	b	944c <_start@@Base+0x5ec>
    9878:	e28d2e13 	add	r2, sp, #304	; 0x130
    987c:	e28dcc01 	add	ip, sp, #256	; 0x100
    9880:	e3a0e001 	mov	lr, #1
    9884:	e1a01006 	mov	r1, r6
    9888:	e1cc33b0 	strh	r3, [ip, #48]	; 0x30
    988c:	e2820004 	add	r0, r2, #4
    9890:	e1cce3b2 	strh	lr, [ip, #50]	; 0x32
    9894:	e58d200c 	str	r2, [sp, #12]
[31m    9898:	ebfffcd4 	bl	8bf0 <strcpy@plt>[0m
    989c:	e59d0010 	ldr	r0, [sp, #16]
    98a0:	e3a01f43 	mov	r1, #268	; 0x10c
--
    98fc:	e92d45f0 	push	{r4, r5, r6, r7, r8, sl, lr}
    9900:	e1a04000 	mov	r4, r0
    9904:	e24dd0bc 	sub	sp, sp, #188	; 0xbc
    9908:	e3000444 	movw	r0, #1092	; 0x444
    990c:	e1a05001 	mov	r5, r1
    9910:	ebfffcd1 	bl	8c5c <malloc@plt>
    9914:	e2506000 	subs	r6, r0, #0
    9918:	0a000076 	beq	9af8 <_start@@Base+0xc98>
    991c:	e3a01000 	mov	r1, #0
    9920:	e3002444 	movw	r2, #1092	; 0x444
    9924:	ebfffd0e 	bl	8d64 <memset@plt>
    9928:	e3a03000 	mov	r3, #0
    992c:	e3a0201f 	mov	r2, #31
    9930:	e1a01004 	mov	r1, r4
    9934:	e5863004 	str	r3, [r6, #4]
    9938:	e2860008 	add	r0, r6, #8
    993c:	e28d4004 	add	r4, sp, #4
    9940:	ebfffcef 	bl	8d04 <strncpy@plt>
    9944:	e1a01005 	mov	r1, r5
    9948:	e2860028 	add	r0, r6, #40	; 0x28
[31m    994c:	ebfffca7 	bl	8bf0 <strcpy@plt>[0m
    9950:	e3a03001 	mov	r3, #1
    9954:	e1a01005 	mov	r1, r5
    9958:	e5863000 	str	r3, [r6]
    995c:	e1a00004 	mov	r0, r4
[31m    9960:	ebfffca2 	bl	8bf0 <strcpy@plt>[0m
    9964:	e1a00004 	mov	r0, r4
    9968:	ebfffd2a 	bl	8e18 <strlen@plt>
    996c:	e3a02005 	mov	r2, #5
    9970:	e59f118c 	ldr	r1, [pc, #396]	; 9b04 <_start@@Base+0xca4>
    9974:	e0840000 	add	r0, r4, r0
    9978:	ebfffcae 	bl	8c38 <memcpy@plt>
    997c:	e1a00004 	mov	r0, r4
    9980:	ebfffcf4 	bl	8d58 <nvram_get@plt>
    9984:	e3500000 	cmp	r0, #0
    9988:	e1a01005 	mov	r1, r5
    998c:	e59f5174 	ldr	r5, [pc, #372]	; 9b08 <_start@@Base+0xca8>
    9990:	11a05000 	movne	r5, r0
    9994:	e1a00004 	mov	r0, r4
[31m    9998:	ebfffc94 	bl	8bf0 <strcpy@plt>[0m
    999c:	e1a00004 	mov	r0, r4
    99a0:	ebfffd1c 	bl	8e18 <strlen@plt>
--
    9dac:	e28dec05 	add	lr, sp, #1280	; 0x500
    9db0:	e28dcedd 	add	ip, sp, #3536	; 0xdd0
    9db4:	e28d2ee5 	add	r2, sp, #3664	; 0xe50
    9db8:	e28cc004 	add	ip, ip, #4
    9dbc:	e3a03004 	mov	r3, #4
    9dc0:	e8980003 	ldm	r8, {r0, r1}
    9dc4:	e58dc014 	str	ip, [sp, #20]
    9dc8:	e58da018 	str	sl, [sp, #24]
    9dcc:	e1ce12b4 	strh	r1, [lr, #36]	; 0x24
    9dd0:	e3a0100e 	mov	r1, #14
    9dd4:	e58d0520 	str	r0, [sp, #1312]	; 0x520
    9dd8:	e1a00005 	mov	r0, r5
    9ddc:	ebfffc01 	bl	8de8 <wl_ioctl@plt>
    9de0:	e59d3e50 	ldr	r3, [sp, #3664]	; 0xe50
    9de4:	e3a01020 	mov	r1, #32
    9de8:	e59f2bb8 	ldr	r2, [pc, #3000]	; a9a8 <_start@@Base+0x1b48>
    9dec:	e28d0ed5 	add	r0, sp, #3408	; 0xd50
    9df0:	ebfffb84 	bl	8c08 <snprintf@plt>
    9df4:	e28d1ed5 	add	r1, sp, #3408	; 0xd50
    9df8:	e1a00004 	mov	r0, r4
[31m    9dfc:	ebfffb7b 	bl	8bf0 <strcpy@plt>[0m
    9e00:	e1a00004 	mov	r0, r4
    9e04:	e59f7ba0 	ldr	r7, [pc, #2976]	; a9ac <_start@@Base+0x1b4c>
--
    9e68:	e1cc00b0 	strh	r0, [ip]
    9e6c:	e89e0007 	ldm	lr, {r0, r1, r2}
    9e70:	e8880007 	stm	r8, {r0, r1, r2}
    9e74:	0a00006f 	beq	a038 <_start@@Base+0x11d8>
    9e78:	e28d8d2d 	add	r8, sp, #2880	; 0xb40
    9e7c:	e58d902c 	str	r9, [sp, #44]	; 0x2c
    9e80:	e288800c 	add	r8, r8, #12
    9e84:	e1a09005 	mov	r9, r5
    9e88:	ea000002 	b	9e98 <_start@@Base+0x1038>
    9e8c:	e5b7600c 	ldr	r6, [r7, #12]!
    9e90:	e3560000 	cmp	r6, #0
    9e94:	0a000065 	beq	a030 <_start@@Base+0x11d0>
    9e98:	e1a00006 	mov	r0, r6
    9e9c:	e59f1b14 	ldr	r1, [pc, #2836]	; a9b8 <_start@@Base+0x1b58>
    9ea0:	e3a02003 	mov	r2, #3
    9ea4:	ebfffb93 	bl	8cf8 <strncmp@plt>
    9ea8:	e3500000 	cmp	r0, #0
    9eac:	1afffff6 	bne	9e8c <_start@@Base+0x102c>
    9eb0:	e28d1ed5 	add	r1, sp, #3408	; 0xd50
    9eb4:	e1a00008 	mov	r0, r8
[31m    9eb8:	ebfffb4c 	bl	8bf0 <strcpy@plt>[0m
    9ebc:	e1a00008 	mov	r0, r8
    9ec0:	e2861003 	add	r1, r6, #3
--
    9ff0:	e59f19c4 	ldr	r1, [pc, #2500]	; a9bc <_start@@Base+0x1b5c>
    9ff4:	ebfffb63 	bl	8d88 <strcmp@plt>
    9ff8:	e3500000 	cmp	r0, #0
    9ffc:	1a001477 	bne	f1e0 <_start@@Base+0x6380>
    a000:	e28d0d2a 	add	r0, sp, #2688	; 0xa80
    a004:	e28d3edd 	add	r3, sp, #3536	; 0xdd0
    a008:	e2800004 	add	r0, r0, #4
    a00c:	e3a0101c 	mov	r1, #28
    a010:	e59f29c0 	ldr	r2, [pc, #2496]	; a9d8 <_start@@Base+0x1b78>
    a014:	e2833004 	add	r3, r3, #4
    a018:	ebfffafa 	bl	8c08 <snprintf@plt>
    a01c:	e28d1d2a 	add	r1, sp, #2688	; 0xa80
    a020:	e1a00008 	mov	r0, r8
    a024:	e2811004 	add	r1, r1, #4
    a028:	ebfffb2c 	bl	8ce0 <nvram_set@plt>
    a02c:	eaffff96 	b	9e8c <_start@@Base+0x102c>
    a030:	e1a05009 	mov	r5, r9
    a034:	e59d902c 	ldr	r9, [sp, #44]	; 0x2c
    a038:	e28d1ed5 	add	r1, sp, #3408	; 0xd50
    a03c:	e1a00004 	mov	r0, r4
[31m    a040:	ebfffaea 	bl	8bf0 <strcpy@plt>[0m
    a044:	e1a00004 	mov	r0, r4
    a048:	e3a06000 	mov	r6, #0
    a04c:	ebfffb71 	bl	8e18 <strlen@plt>
    a050:	e3a02007 	mov	r2, #7
    a054:	e0840000 	add	r0, r4, r0
    a058:	e59f1950 	ldr	r1, [pc, #2384]	; a9b0 <_start@@Base+0x1b50>
    a05c:	e28d8d39 	add	r8, sp, #3648	; 0xe40
    a060:	ebfffaf4 	bl	8c38 <memcpy@plt>
    a064:	e1a01005 	mov	r1, r5
    a068:	e1a00004 	mov	r0, r4
    a06c:	ebfffb1b 	bl	8ce0 <nvram_set@plt>
    a070:	e28d1ed5 	add	r1, sp, #3408	; 0xd50
    a074:	e1a00004 	mov	r0, r4
[31m    a078:	ebfffadc 	bl	8bf0 <strcpy@plt>[0m
    a07c:	e28d2d37 	add	r2, sp, #3520	; 0xdc0
    a080:	e1a00004 	mov	r0, r4
--
    a08c:	e58d2010 	str	r2, [sp, #16]
    a090:	e2888004 	add	r8, r8, #4
    a094:	ebfffb5f 	bl	8e18 <strlen@plt>
    a098:	e3a02007 	mov	r2, #7
    a09c:	e59f1938 	ldr	r1, [pc, #2360]	; a9dc <_start@@Base+0x1b7c>
    a0a0:	e0840000 	add	r0, r4, r0
    a0a4:	ebfffae3 	bl	8c38 <memcpy@plt>
    a0a8:	e28d1ed3 	add	r1, sp, #3376	; 0xd30
    a0ac:	e28d0e82 	add	r0, sp, #2080	; 0x820
    a0b0:	ebfffb37 	bl	8d94 <ether_etoa@plt>
    a0b4:	e1a01000 	mov	r1, r0
    a0b8:	e1a00004 	mov	r0, r4
    a0bc:	ebfffb07 	bl	8ce0 <nvram_set@plt>
    a0c0:	e59d3e50 	ldr	r3, [sp, #3664]	; 0xe50
    a0c4:	e28d0e82 	add	r0, sp, #2080	; 0x820
    a0c8:	e59f29dc 	ldr	r2, [pc, #2524]	; aaac <_start@@Base+0x1c4c>
    a0cc:	e3a01c01 	mov	r1, #256	; 0x100
    a0d0:	ebfffacc 	bl	8c08 <snprintf@plt>
    a0d4:	e28d1ed5 	add	r1, sp, #3408	; 0xd50
    a0d8:	e1a00004 	mov	r0, r4
[31m    a0dc:	ebfffac3 	bl	8bf0 <strcpy@plt>[0m
    a0e0:	e1a00004 	mov	r0, r4
    a0e4:	ebfffb4b 	bl	8e18 <strlen@plt>
--
    a170:	e28d1ed5 	add	r1, sp, #3408	; 0xd50
    a174:	ebfffde0 	bl	98fc <_start@@Base+0xa9c>
    a178:	e2507000 	subs	r7, r0, #0
    a17c:	03e02000 	mvneq	r2, #0
    a180:	058d2030 	streq	r2, [sp, #48]	; 0x30
    a184:	0afffe8e 	beq	9bc4 <_start@@Base+0xd64>
    a188:	e5973000 	ldr	r3, [r7]
    a18c:	e3530001 	cmp	r3, #1
    a190:	928d8ec7 	addls	r8, sp, #3184	; 0xc70
    a194:	92888008 	addls	r8, r8, #8
    a198:	9a000019 	bls	a204 <_start@@Base+0x13a4>
    a19c:	e28d8ec7 	add	r8, sp, #3184	; 0xc70
    a1a0:	e3a06001 	mov	r6, #1
    a1a4:	e2888008 	add	r8, r8, #8
    a1a8:	e086a206 	add	sl, r6, r6, lsl #4
    a1ac:	e1a00008 	mov	r0, r8
    a1b0:	e2866001 	add	r6, r6, #1
    a1b4:	e1a0a10a 	lsl	sl, sl, #2
    a1b8:	e087100a 	add	r1, r7, sl
    a1bc:	e2811008 	add	r1, r1, #8
[31m    a1c0:	ebfffa8a 	bl	8bf0 <strcpy@plt>[0m
    a1c4:	e087100a 	add	r1, r7, sl
    a1c8:	e1a00004 	mov	r0, r4
    a1cc:	e2811028 	add	r1, r1, #40	; 0x28
[31m    a1d0:	ebfffa86 	bl	8bf0 <strcpy@plt>[0m
    a1d4:	e1a00004 	mov	r0, r4
    a1d8:	ebfffb0e 	bl	8e18 <strlen@plt>
    a1dc:	e3a02007 	mov	r2, #7
    a1e0:	e59f17c8 	ldr	r1, [pc, #1992]	; a9b0 <_start@@Base+0x1b50>
    a1e4:	e0840000 	add	r0, r4, r0
    a1e8:	ebfffa92 	bl	8c38 <memcpy@plt>
    a1ec:	e1a00004 	mov	r0, r4
    a1f0:	e1a01008 	mov	r1, r8
    a1f4:	ebfffab9 	bl	8ce0 <nvram_set@plt>
    a1f8:	e5973000 	ldr	r3, [r7]
    a1fc:	e1530006 	cmp	r3, r6
    a200:	8affffe8 	bhi	a1a8 <_start@@Base+0x1348>
    a204:	e28d1ed5 	add	r1, sp, #3408	; 0xd50
    a208:	e1a00004 	mov	r0, r4
[31m    a20c:	ebfffa77 	bl	8bf0 <strcpy@plt>[0m
    a210:	e1a00004 	mov	r0, r4
    a214:	ebfffaff 	bl	8e18 <strlen@plt>
--
    a290:	1a0013df 	bne	f214 <_start@@Base+0x63b4>
    a294:	e1a00005 	mov	r0, r5
    a298:	e59f1758 	ldr	r1, [pc, #1880]	; a9f8 <_start@@Base+0x1b98>
    a29c:	e3a02000 	mov	r2, #0
    a2a0:	ebfffa9d 	bl	8d1c <wl_iovar_setint@plt>
    a2a4:	e5973000 	ldr	r3, [r7]
    a2a8:	e3530000 	cmp	r3, #0
    a2ac:	0a000034 	beq	a384 <_start@@Base+0x1524>
    a2b0:	e28dcc0d 	add	ip, sp, #3328	; 0xd00
    a2b4:	e3a0a000 	mov	sl, #0
    a2b8:	e28cc00c 	add	ip, ip, #12
    a2bc:	e58d9028 	str	r9, [sp, #40]	; 0x28
    a2c0:	e28c3004 	add	r3, ip, #4
    a2c4:	e1a09008 	mov	r9, r8
    a2c8:	e1a0600a 	mov	r6, sl
    a2cc:	e1a08003 	mov	r8, r3
    a2d0:	e0861206 	add	r1, r6, r6, lsl #4
    a2d4:	e1a00004 	mov	r0, r4
    a2d8:	e0871101 	add	r1, r7, r1, lsl #2
    a2dc:	e2811028 	add	r1, r1, #40	; 0x28
[31m    a2e0:	ebfffa42 	bl	8bf0 <strcpy@plt>[0m
    a2e4:	e1a00004 	mov	r0, r4
    a2e8:	ebfffaca 	bl	8e18 <strlen@plt>
--
    a470:	e59f258c 	ldr	r2, [pc, #1420]	; aa04 <_start@@Base+0x1ba4>
    a474:	e24e6008 	sub	r6, lr, #8
    a478:	e59d3e50 	ldr	r3, [sp, #3664]	; 0xe50
    a47c:	e1a00004 	mov	r0, r4
    a480:	ebfff9e0 	bl	8c08 <snprintf@plt>
    a484:	e3a0c006 	mov	ip, #6
    a488:	e3a02001 	mov	r2, #1
    a48c:	e1a03006 	mov	r3, r6
    a490:	e59f1570 	ldr	r1, [pc, #1392]	; aa08 <_start@@Base+0x1ba8>
    a494:	e1a00005 	mov	r0, r5
    a498:	e58dc000 	str	ip, [sp]
    a49c:	ebfffa2a 	bl	8d4c <wl_bssiovar_set@plt>
    a4a0:	e28d1ed3 	add	r1, sp, #3376	; 0xd30
    a4a4:	e1a00006 	mov	r0, r6
    a4a8:	ebfffa39 	bl	8d94 <ether_etoa@plt>
    a4ac:	e1a01000 	mov	r1, r0
    a4b0:	e1a00004 	mov	r0, r4
    a4b4:	ebfffa09 	bl	8ce0 <nvram_set@plt>
    a4b8:	e28d1ed5 	add	r1, sp, #3408	; 0xd50
    a4bc:	e1a00004 	mov	r0, r4
[31m    a4c0:	ebfff9ca 	bl	8bf0 <strcpy@plt>[0m
    a4c4:	e1a00004 	mov	r0, r4
    a4c8:	e59f6640 	ldr	r6, [pc, #1600]	; ab10 <_start@@Base+0x1cb0>
--
    a654:	e3510000 	cmp	r1, #0
    a658:	1a0013b6 	bne	f538 <_start@@Base+0x66d8>
    a65c:	e59da04c 	ldr	sl, [sp, #76]	; 0x4c
    a660:	e59d3e40 	ldr	r3, [sp, #3648]	; 0xe40
    a664:	e59dc02c 	ldr	ip, [sp, #44]	; 0x2c
    a668:	e1a0200a 	mov	r2, sl
    a66c:	e58da050 	str	sl, [sp, #80]	; 0x50
    a670:	e19cc003 	orrs	ip, ip, r3
    a674:	13822001 	orrne	r2, r2, #1
    a678:	e3520000 	cmp	r2, #0
    a67c:	1a000006 	bne	a69c <_start@@Base+0x183c>
    a680:	e59de05c 	ldr	lr, [sp, #92]	; 0x5c
    a684:	e35e0000 	cmp	lr, #0
    a688:	059d1064 	ldreq	r1, [sp, #100]	; 0x64
    a68c:	058d1050 	streq	r1, [sp, #80]	; 0x50
    a690:	0a000031 	beq	a75c <_start@@Base+0x18fc>
    a694:	e59d0064 	ldr	r0, [sp, #100]	; 0x64
    a698:	e58d0050 	str	r0, [sp, #80]	; 0x50
    a69c:	e28d1ed5 	add	r1, sp, #3408	; 0xd50
    a6a0:	e1a00004 	mov	r0, r4
[31m    a6a4:	ebfff951 	bl	8bf0 <strcpy@plt>[0m
    a6a8:	e1a00004 	mov	r0, r4
    a6ac:	ebfff9d9 	bl	8e18 <strlen@plt>
    a6b0:	e59f136c 	ldr	r1, [pc, #876]	; aa24 <_start@@Base+0x1bc4>
    a6b4:	e3a0200f 	mov	r2, #15
    a6b8:	e0840000 	add	r0, r4, r0
    a6bc:	ebfff95d 	bl	8c38 <memcpy@plt>
    a6c0:	e1a00004 	mov	r0, r4
    a6c4:	ebfff9a3 	bl	8d58 <nvram_get@plt>
    a6c8:	e59f3440 	ldr	r3, [pc, #1088]	; ab10 <_start@@Base+0x1cb0>
    a6cc:	e3500000 	cmp	r0, #0
    a6d0:	01a00003 	moveq	r0, r3
    a6d4:	ebfff9c9 	bl	8e00 <atoi@plt>
    a6d8:	e59f1344 	ldr	r1, [pc, #836]	; aa24 <_start@@Base+0x1bc4>
    a6dc:	e1a02000 	mov	r2, r0
    a6e0:	e1a00005 	mov	r0, r5
    a6e4:	ebfff98c 	bl	8d1c <wl_iovar_setint@plt>
    a6e8:	e28d1ed5 	add	r1, sp, #3408	; 0xd50
    a6ec:	e1a00004 	mov	r0, r4
[31m    a6f0:	ebfff93e 	bl	8bf0 <strcpy@plt>[0m
    a6f4:	e1a00004 	mov	r0, r4
    a6f8:	ebfff9c6 	bl	8e18 <strlen@plt>
--
    a748:	e3a01037 	mov	r1, #55	; 0x37
    a74c:	e2822004 	add	r2, r2, #4
    a750:	e58dcdc8 	str	ip, [sp, #3528]	; 0xdc8
    a754:	ebfff9a3 	bl	8de8 <wl_ioctl@plt>
    a758:	e59d3e40 	ldr	r3, [sp, #3648]	; 0xe40
    a75c:	e59d2064 	ldr	r2, [sp, #100]	; 0x64
    a760:	e0093003 	and	r3, r9, r3
    a764:	e58d3e40 	str	r3, [sp, #3648]	; 0xe40
    a768:	e1922003 	orrs	r2, r2, r3
    a76c:	e59d2050 	ldr	r2, [sp, #80]	; 0x50
    a770:	e3a03001 	mov	r3, #1
    a774:	e58d3e54 	str	r3, [sp, #3668]	; 0xe54
    a778:	13822001 	orrne	r2, r2, #1
    a77c:	e31200ff 	tst	r2, #255	; 0xff
    a780:	1a000002 	bne	a790 <_start@@Base+0x1930>
    a784:	e59d305c 	ldr	r3, [sp, #92]	; 0x5c
    a788:	e3530000 	cmp	r3, #0
    a78c:	0a00000f 	beq	a7d0 <_start@@Base+0x1970>
    a790:	e28d1ed5 	add	r1, sp, #3408	; 0xd50
    a794:	e1a00004 	mov	r0, r4
[31m    a798:	ebfff914 	bl	8bf0 <strcpy@plt>[0m
    a79c:	e1a00004 	mov	r0, r4
    a7a0:	ebfff99c 	bl	8e18 <strlen@plt>
--
    a7fc:	e1a0600a 	mov	r6, sl
    a800:	e58d8028 	str	r8, [sp, #40]	; 0x28
    a804:	e59d805c 	ldr	r8, [sp, #92]	; 0x5c
    a808:	e18c900e 	orr	r9, ip, lr
    a80c:	e0861206 	add	r1, r6, r6, lsl #4
    a810:	e3a02000 	mov	r2, #0
    a814:	e1590002 	cmp	r9, r2
    a818:	e58d2e54 	str	r2, [sp, #3668]	; 0xe54
    a81c:	e0871101 	add	r1, r7, r1, lsl #2
    a820:	e1a00004 	mov	r0, r4
    a824:	e2283001 	eor	r3, r8, #1
    a828:	e2811028 	add	r1, r1, #40	; 0x28
    a82c:	1a000006 	bne	a84c <_start@@Base+0x19ec>
    a830:	e59dc02c 	ldr	ip, [sp, #44]	; 0x2c
    a834:	e113000c 	tst	r3, ip
    a838:	e1a03009 	mov	r3, r9
    a83c:	0a000012 	beq	a88c <_start@@Base+0x1a2c>
    a840:	e59d2e40 	ldr	r2, [sp, #3648]	; 0xe40
    a844:	e3520000 	cmp	r2, #0
    a848:	1a00000f 	bne	a88c <_start@@Base+0x1a2c>
[31m    a84c:	ebfff8e7 	bl	8bf0 <strcpy@plt>[0m
    a850:	e1a00004 	mov	r0, r4
    a854:	ebfff96f 	bl	8e18 <strlen@plt>
--
    a8b4:	e59d8028 	ldr	r8, [sp, #40]	; 0x28
    a8b8:	e59d006c 	ldr	r0, [sp, #108]	; 0x6c
    a8bc:	e3500000 	cmp	r0, #0
    a8c0:	1a000f1f 	bne	e544 <_start@@Base+0x56e4>
    a8c4:	e59d2e40 	ldr	r2, [sp, #3648]	; 0xe40
    a8c8:	e59d1064 	ldr	r1, [sp, #100]	; 0x64
    a8cc:	e1912002 	orrs	r2, r1, r2
    a8d0:	0a000f17 	beq	e534 <_start@@Base+0x56d4>
    a8d4:	e59d204c 	ldr	r2, [sp, #76]	; 0x4c
    a8d8:	e3520000 	cmp	r2, #0
    a8dc:	1a000ee7 	bne	e480 <_start@@Base+0x5620>
    a8e0:	e59da05c 	ldr	sl, [sp, #92]	; 0x5c
    a8e4:	e35a0000 	cmp	sl, #0
    a8e8:	0a000dfa 	beq	e0d8 <_start@@Base+0x5278>
    a8ec:	e3a02002 	mov	r2, #2
    a8f0:	e59f1128 	ldr	r1, [pc, #296]	; aa20 <_start@@Base+0x1bc0>
    a8f4:	e1a00005 	mov	r0, r5
    a8f8:	ebfff907 	bl	8d1c <wl_iovar_setint@plt>
    a8fc:	e28d1ed5 	add	r1, sp, #3408	; 0xd50
    a900:	e1a00004 	mov	r0, r4
[31m    a904:	ebfff8b9 	bl	8bf0 <strcpy@plt>[0m
    a908:	e1a00004 	mov	r0, r4
    a90c:	ebfff941 	bl	8e18 <strlen@plt>
--
    aae8:	0001168c 	andeq	r1, r1, ip, lsl #13
    aaec:	00011c24 	andeq	r1, r1, r4, lsr #24
    aaf0:	000116b8 			; <UNDEFINED> instruction: 0x000116b8
    aaf4:	00011b1c 	andeq	r1, r1, ip, lsl fp
    aaf8:	000116d0 	ldrdeq	r1, [r1], -r0
    aafc:	000116dc 	ldrdeq	r1, [r1], -ip
    ab00:	00011788 	andeq	r1, r1, r8, lsl #15
    ab04:	00011214 	andeq	r1, r1, r4, lsl r2
    ab08:	00011798 	muleq	r1, r8, r7
    ab0c:	000117a4 	andeq	r1, r1, r4, lsr #15
    ab10:	00011120 	andeq	r1, r1, r0, lsr #2
    ab14:	000117b0 			; <UNDEFINED> instruction: 0x000117b0
    ab18:	e59d3028 	ldr	r3, [sp, #40]	; 0x28
    ab1c:	e1a07208 	lsl	r7, r8, #4
    ab20:	e08a5003 	add	r5, sl, r3
    ab24:	e0877008 	add	r7, r7, r8
    ab28:	e1a00004 	mov	r0, r4
    ab2c:	e08a7107 	add	r7, sl, r7, lsl #2
    ab30:	e2877028 	add	r7, r7, #40	; 0x28
    ab34:	e1a01007 	mov	r1, r7
[31m    ab38:	ebfff82c 	bl	8bf0 <strcpy@plt>[0m
    ab3c:	e1a00004 	mov	r0, r4
    ab40:	ebfff8b4 	bl	8e18 <strlen@plt>
    ab44:	e51f1110 	ldr	r1, [pc, #-272]	; aa3c <_start@@Base+0x1bdc>
    ab48:	e3a02007 	mov	r2, #7
    ab4c:	e0840000 	add	r0, r4, r0
    ab50:	ebfff838 	bl	8c38 <memcpy@plt>
    ab54:	e1a00004 	mov	r0, r4
    ab58:	ebfff87e 	bl	8d58 <nvram_get@plt>
    ab5c:	e3500000 	cmp	r0, #0
    ab60:	01a00009 	moveq	r0, r9
    ab64:	ebfff8a5 	bl	8e00 <atoi@plt>
    ab68:	e51f1130 	ldr	r1, [pc, #-304]	; aa40 <_start@@Base+0x1be0>
    ab6c:	e1a03000 	mov	r3, r0
    ab70:	e58d0e54 	str	r0, [sp, #3668]	; 0xe54
    ab74:	e1a00006 	mov	r0, r6
    ab78:	e5952004 	ldr	r2, [r5, #4]
    ab7c:	ebfff833 	bl	8c50 <wl_bssiovar_setint@plt>
    ab80:	e1a01007 	mov	r1, r7
    ab84:	e1a00004 	mov	r0, r4
[31m    ab88:	ebfff818 	bl	8bf0 <strcpy@plt>[0m
    ab8c:	e1a00004 	mov	r0, r4
    ab90:	ebfff8a0 	bl	8e18 <strlen@plt>
--
    abb8:	e51f117c 	ldr	r1, [pc, #-380]	; aa44 <_start@@Base+0x1be4>
    abbc:	e1a03000 	mov	r3, r0
    abc0:	e58d0e54 	str	r0, [sp, #3668]	; 0xe54
    abc4:	e1a00006 	mov	r0, r6
    abc8:	e5952004 	ldr	r2, [r5, #4]
    abcc:	ebfff81f 	bl	8c50 <wl_bssiovar_setint@plt>
    abd0:	e59d003c 	ldr	r0, [sp, #60]	; 0x3c
    abd4:	e3500000 	cmp	r0, #0
    abd8:	1a000083 	bne	adec <_start@@Base+0x1f8c>
    abdc:	e59d3e40 	ldr	r3, [sp, #3648]	; 0xe40
    abe0:	e59d1050 	ldr	r1, [sp, #80]	; 0x50
    abe4:	e3530000 	cmp	r3, #0
    abe8:	13811001 	orrne	r1, r1, #1
    abec:	e31100ff 	tst	r1, #255	; 0xff
    abf0:	1a000002 	bne	ac00 <_start@@Base+0x1da0>
    abf4:	e59d205c 	ldr	r2, [sp, #92]	; 0x5c
    abf8:	e3520000 	cmp	r2, #0
    abfc:	0a000013 	beq	ac50 <_start@@Base+0x1df0>
    ac00:	e1a01007 	mov	r1, r7
    ac04:	e1a00004 	mov	r0, r4
[31m    ac08:	ebfff7f8 	bl	8bf0 <strcpy@plt>[0m
    ac0c:	e1a00004 	mov	r0, r4
    ac10:	ebfff880 	bl	8e18 <strlen@plt>
--
    ac80:	9a000136 	bls	b160 <_start@@Base+0x2300>
    ac84:	e59d0034 	ldr	r0, [sp, #52]	; 0x34
    ac88:	e3500000 	cmp	r0, #0
    ac8c:	1a000053 	bne	ade0 <_start@@Base+0x1f80>
    ac90:	e59d202c 	ldr	r2, [sp, #44]	; 0x2c
    ac94:	e3520000 	cmp	r2, #0
    ac98:	0affff9e 	beq	ab18 <_start@@Base+0x1cb8>
    ac9c:	e59dc028 	ldr	ip, [sp, #40]	; 0x28
    aca0:	e08a500c 	add	r5, sl, ip
    aca4:	e5953004 	ldr	r3, [r5, #4]
    aca8:	e3530000 	cmp	r3, #0
    acac:	01a07208 	lsleq	r7, r8, #4
    acb0:	0affff9b 	beq	ab24 <_start@@Base+0x1cc4>
    acb4:	e1a07208 	lsl	r7, r8, #4
    acb8:	e1a00004 	mov	r0, r4
    acbc:	e0873008 	add	r3, r7, r8
    acc0:	e08a3103 	add	r3, sl, r3, lsl #2
    acc4:	e2833028 	add	r3, r3, #40	; 0x28
    acc8:	e1a01003 	mov	r1, r3
    accc:	e58d3038 	str	r3, [sp, #56]	; 0x38
[31m    acd0:	ebfff7c6 	bl	8bf0 <strcpy@plt>[0m
    acd4:	e1a00004 	mov	r0, r4
    acd8:	ebfff84e 	bl	8e18 <strlen@plt>
--
    ad3c:	e3500000 	cmp	r0, #0
    ad40:	e59dc024 	ldr	ip, [sp, #36]	; 0x24
    ad44:	1a00000b 	bne	ad78 <_start@@Base+0x1f18>
    ad48:	e59d3058 	ldr	r3, [sp, #88]	; 0x58
    ad4c:	e1a00006 	mov	r0, r6
    ad50:	e51f1308 	ldr	r1, [pc, #-776]	; aa50 <_start@@Base+0x1bf0>
    ad54:	e1a0200c 	mov	r2, ip
    ad58:	e3530000 	cmp	r3, #0
    ad5c:	159d3e30 	ldrne	r3, [sp, #3632]	; 0xe30
    ad60:	059d3e30 	ldreq	r3, [sp, #3632]	; 0xe30
    ad64:	13833001 	orrne	r3, r3, #1
    ad68:	03c33001 	biceq	r3, r3, #1
    ad6c:	158d3e30 	strne	r3, [sp, #3632]	; 0xe30
    ad70:	058d3e30 	streq	r3, [sp, #3632]	; 0xe30
    ad74:	ebfff7b5 	bl	8c50 <wl_bssiovar_setint@plt>
    ad78:	e59dc034 	ldr	ip, [sp, #52]	; 0x34
    ad7c:	e35c0000 	cmp	ip, #0
    ad80:	0a0000ef 	beq	b144 <_start@@Base+0x22e4>
    ad84:	e59d1038 	ldr	r1, [sp, #56]	; 0x38
    ad88:	e1a00004 	mov	r0, r4
[31m    ad8c:	ebfff797 	bl	8bf0 <strcpy@plt>[0m
    ad90:	e1a00004 	mov	r0, r4
    ad94:	ebfff81f 	bl	8e18 <strlen@plt>
--
    ada4:	ebfff7a3 	bl	8c38 <memcpy@plt>
    ada8:	e1a00004 	mov	r0, r4
    adac:	ebfff7e9 	bl	8d58 <nvram_get@plt>
    adb0:	e3500000 	cmp	r0, #0
    adb4:	01a00009 	moveq	r0, r9
    adb8:	ebfff810 	bl	8e00 <atoi@plt>
    adbc:	e3500000 	cmp	r0, #0
    adc0:	e1a03000 	mov	r3, r0
    adc4:	e58d0e54 	str	r0, [sp, #3668]	; 0xe54
    adc8:	da0000d2 	ble	b118 <_start@@Base+0x22b8>
    adcc:	e1a00006 	mov	r0, r6
    add0:	e51f1384 	ldr	r1, [pc, #-900]	; aa54 <_start@@Base+0x1bf4>
    add4:	e5952004 	ldr	r2, [r5, #4]
    add8:	ebfff79c 	bl	8c50 <wl_bssiovar_setint@plt>
    addc:	eaffff50 	b	ab24 <_start@@Base+0x1cc4>
    ade0:	e59d1028 	ldr	r1, [sp, #40]	; 0x28
    ade4:	e08a5001 	add	r5, sl, r1
    ade8:	eaffffb1 	b	acb4 <_start@@Base+0x1e54>
    adec:	e1a01007 	mov	r1, r7
    adf0:	e1a00004 	mov	r0, r4
[31m    adf4:	ebfff77d 	bl	8bf0 <strcpy@plt>[0m
    adf8:	e1a00004 	mov	r0, r4
    adfc:	ebfff805 	bl	8e18 <strlen@plt>
    ae00:	e51f13b0 	ldr	r1, [pc, #-944]	; aa58 <_start@@Base+0x1bf8>
    ae04:	e3a0200f 	mov	r2, #15
    ae08:	e0840000 	add	r0, r4, r0
    ae0c:	ebfff789 	bl	8c38 <memcpy@plt>
    ae10:	e1a00004 	mov	r0, r4
    ae14:	ebfff7cf 	bl	8d58 <nvram_get@plt>
    ae18:	e3500000 	cmp	r0, #0
    ae1c:	01a00009 	moveq	r0, r9
    ae20:	ebfff7f6 	bl	8e00 <atoi@plt>
    ae24:	e51f13d4 	ldr	r1, [pc, #-980]	; aa58 <_start@@Base+0x1bf8>
    ae28:	e1a03000 	mov	r3, r0
    ae2c:	e58d0e54 	str	r0, [sp, #3668]	; 0xe54
    ae30:	e1a00006 	mov	r0, r6
    ae34:	e5952004 	ldr	r2, [r5, #4]
    ae38:	ebfff784 	bl	8c50 <wl_bssiovar_setint@plt>
    ae3c:	eaffff66 	b	abdc <_start@@Base+0x1d7c>
    ae40:	e1a01007 	mov	r1, r7
    ae44:	e1a00004 	mov	r0, r4
[31m    ae48:	ebfff768 	bl	8bf0 <strcpy@plt>[0m
    ae4c:	e1a00004 	mov	r0, r4
    ae50:	ebfff7f0 	bl	8e18 <strlen@plt>
    ae54:	e51f1400 	ldr	r1, [pc, #-1024]	; aa5c <_start@@Base+0x1bfc>
    ae58:	e3a02015 	mov	r2, #21
    ae5c:	e0840000 	add	r0, r4, r0
    ae60:	ebfff774 	bl	8c38 <memcpy@plt>
    ae64:	e1a00004 	mov	r0, r4
    ae68:	ebfff7ba 	bl	8d58 <nvram_get@plt>
    ae6c:	e3500000 	cmp	r0, #0
    ae70:	01a00009 	moveq	r0, r9
    ae74:	ebfff7e1 	bl	8e00 <atoi@plt>
    ae78:	e51f1424 	ldr	r1, [pc, #-1060]	; aa5c <_start@@Base+0x1bfc>
    ae7c:	e1a03000 	mov	r3, r0
    ae80:	e58d0e54 	str	r0, [sp, #3668]	; 0xe54
    ae84:	e1a00006 	mov	r0, r6
    ae88:	e5952004 	ldr	r2, [r5, #4]
    ae8c:	ebfff76f 	bl	8c50 <wl_bssiovar_setint@plt>
    ae90:	e1a01007 	mov	r1, r7
    ae94:	e1a00004 	mov	r0, r4
[31m    ae98:	ebfff754 	bl	8bf0 <strcpy@plt>[0m
    ae9c:	e1a00004 	mov	r0, r4
    aea0:	ebfff7dc 	bl	8e18 <strlen@plt>
    aea4:	e51f144c 	ldr	r1, [pc, #-1100]	; aa60 <_start@@Base+0x1c00>
    aea8:	e3a02019 	mov	r2, #25
    aeac:	e0840000 	add	r0, r4, r0
    aeb0:	ebfff760 	bl	8c38 <memcpy@plt>
    aeb4:	e1a00004 	mov	r0, r4
    aeb8:	ebfff7a6 	bl	8d58 <nvram_get@plt>
    aebc:	e3500000 	cmp	r0, #0
    aec0:	01a00009 	moveq	r0, r9
    aec4:	ebfff7cd 	bl	8e00 <atoi@plt>
    aec8:	e51f1470 	ldr	r1, [pc, #-1136]	; aa60 <_start@@Base+0x1c00>
    aecc:	e1a03000 	mov	r3, r0
    aed0:	e58d0e54 	str	r0, [sp, #3668]	; 0xe54
    aed4:	e1a00006 	mov	r0, r6
    aed8:	e5952004 	ldr	r2, [r5, #4]
    aedc:	ebfff75b 	bl	8c50 <wl_bssiovar_setint@plt>
    aee0:	e1a01007 	mov	r1, r7
    aee4:	e1a00004 	mov	r0, r4
[31m    aee8:	ebfff740 	bl	8bf0 <strcpy@plt>[0m
    aeec:	e1a00004 	mov	r0, r4
    aef0:	ebfff7c8 	bl	8e18 <strlen@plt>
    aef4:	e51f1498 	ldr	r1, [pc, #-1176]	; aa64 <_start@@Base+0x1c04>
    aef8:	e3a02012 	mov	r2, #18
    aefc:	e0840000 	add	r0, r4, r0
    af00:	ebfff74c 	bl	8c38 <memcpy@plt>
    af04:	e1a00004 	mov	r0, r4
    af08:	ebfff792 	bl	8d58 <nvram_get@plt>
    af0c:	e3500000 	cmp	r0, #0
    af10:	01a00009 	moveq	r0, r9
    af14:	ebfff7b9 	bl	8e00 <atoi@plt>
    af18:	e51f14bc 	ldr	r1, [pc, #-1212]	; aa64 <_start@@Base+0x1c04>
    af1c:	e1a03000 	mov	r3, r0
    af20:	e58d0e54 	str	r0, [sp, #3668]	; 0xe54
    af24:	e1a00006 	mov	r0, r6
    af28:	e5952004 	ldr	r2, [r5, #4]
    af2c:	ebfff747 	bl	8c50 <wl_bssiovar_setint@plt>
    af30:	e1a01007 	mov	r1, r7
    af34:	e1a00004 	mov	r0, r4
[31m    af38:	ebfff72c 	bl	8bf0 <strcpy@plt>[0m
    af3c:	e1a00004 	mov	r0, r4
    af40:	ebfff7b4 	bl	8e18 <strlen@plt>
    af44:	e51f14e4 	ldr	r1, [pc, #-1252]	; aa68 <_start@@Base+0x1c08>
    af48:	e3a02014 	mov	r2, #20
    af4c:	e0840000 	add	r0, r4, r0
    af50:	ebfff738 	bl	8c38 <memcpy@plt>
    af54:	e1a00004 	mov	r0, r4
    af58:	ebfff77e 	bl	8d58 <nvram_get@plt>
    af5c:	e3500000 	cmp	r0, #0
    af60:	01a00009 	moveq	r0, r9
    af64:	ebfff7a5 	bl	8e00 <atoi@plt>
    af68:	e51f1508 	ldr	r1, [pc, #-1288]	; aa68 <_start@@Base+0x1c08>
    af6c:	e1a03000 	mov	r3, r0
    af70:	e58d0e54 	str	r0, [sp, #3668]	; 0xe54
    af74:	e1a00006 	mov	r0, r6
    af78:	e5952004 	ldr	r2, [r5, #4]
    af7c:	ebfff733 	bl	8c50 <wl_bssiovar_setint@plt>
    af80:	e1a01007 	mov	r1, r7
    af84:	e1a00004 	mov	r0, r4
[31m    af88:	ebfff718 	bl	8bf0 <strcpy@plt>[0m
    af8c:	e1a00004 	mov	r0, r4
    af90:	ebfff7a0 	bl	8e18 <strlen@plt>
    af94:	e51f1530 	ldr	r1, [pc, #-1328]	; aa6c <_start@@Base+0x1c0c>
    af98:	e3a0201f 	mov	r2, #31
    af9c:	e0840000 	add	r0, r4, r0
    afa0:	ebfff724 	bl	8c38 <memcpy@plt>
    afa4:	e1a00004 	mov	r0, r4
    afa8:	ebfff76a 	bl	8d58 <nvram_get@plt>
    afac:	e3500000 	cmp	r0, #0
    afb0:	01a00009 	moveq	r0, r9
    afb4:	ebfff791 	bl	8e00 <atoi@plt>
    afb8:	e51f1554 	ldr	r1, [pc, #-1364]	; aa6c <_start@@Base+0x1c0c>
    afbc:	e1a03000 	mov	r3, r0
    afc0:	e58d0e54 	str	r0, [sp, #3668]	; 0xe54
    afc4:	e1a00006 	mov	r0, r6
    afc8:	e5952004 	ldr	r2, [r5, #4]
    afcc:	ebfff71f 	bl	8c50 <wl_bssiovar_setint@plt>
    afd0:	eaffff24 	b	ac68 <_start@@Base+0x1e08>
    afd4:	e1a01007 	mov	r1, r7
    afd8:	e1a00004 	mov	r0, r4
[31m    afdc:	ebfff703 	bl	8bf0 <strcpy@plt>[0m
    afe0:	e1a00004 	mov	r0, r4
    afe4:	ebfff78b 	bl	8e18 <strlen@plt>
    afe8:	e51f1580 	ldr	r1, [pc, #-1408]	; aa70 <_start@@Base+0x1c10>
    afec:	e3a02017 	mov	r2, #23
    aff0:	e0840000 	add	r0, r4, r0
    aff4:	ebfff70f 	bl	8c38 <memcpy@plt>
    aff8:	e1a00004 	mov	r0, r4
    affc:	ebfff755 	bl	8d58 <nvram_get@plt>
    b000:	e3500000 	cmp	r0, #0
    b004:	01a00009 	moveq	r0, r9
    b008:	ebfff77c 	bl	8e00 <atoi@plt>
    b00c:	e51f15a4 	ldr	r1, [pc, #-1444]	; aa70 <_start@@Base+0x1c10>
    b010:	e1a03000 	mov	r3, r0
    b014:	e58d0e54 	str	r0, [sp, #3668]	; 0xe54
    b018:	e1a00006 	mov	r0, r6
    b01c:	e5952004 	ldr	r2, [r5, #4]
    b020:	ebfff70a 	bl	8c50 <wl_bssiovar_setint@plt>
    b024:	e1a01007 	mov	r1, r7
    b028:	e1a00004 	mov	r0, r4
[31m    b02c:	ebfff6ef 	bl	8bf0 <strcpy@plt>[0m
    b030:	e1a00004 	mov	r0, r4
    b034:	ebfff777 	bl	8e18 <strlen@plt>
    b038:	e51f15cc 	ldr	r1, [pc, #-1484]	; aa74 <_start@@Base+0x1c14>
    b03c:	e3a0201b 	mov	r2, #27
    b040:	e0840000 	add	r0, r4, r0
    b044:	ebfff6fb 	bl	8c38 <memcpy@plt>
    b048:	e1a00004 	mov	r0, r4
    b04c:	ebfff741 	bl	8d58 <nvram_get@plt>
    b050:	e3500000 	cmp	r0, #0
    b054:	01a00009 	moveq	r0, r9
    b058:	ebfff768 	bl	8e00 <atoi@plt>
    b05c:	e51f15f0 	ldr	r1, [pc, #-1520]	; aa74 <_start@@Base+0x1c14>
    b060:	e1a03000 	mov	r3, r0
    b064:	e58d0e54 	str	r0, [sp, #3668]	; 0xe54
    b068:	e1a00006 	mov	r0, r6
    b06c:	e5952004 	ldr	r2, [r5, #4]
    b070:	ebfff6f6 	bl	8c50 <wl_bssiovar_setint@plt>
    b074:	e1a01007 	mov	r1, r7
    b078:	e1a00004 	mov	r0, r4
[31m    b07c:	ebfff6db 	bl	8bf0 <strcpy@plt>[0m
    b080:	e1a00004 	mov	r0, r4
    b084:	ebfff763 	bl	8e18 <strlen@plt>
    b088:	e51f1618 	ldr	r1, [pc, #-1560]	; aa78 <_start@@Base+0x1c18>
    b08c:	e3a02014 	mov	r2, #20
    b090:	e0840000 	add	r0, r4, r0
    b094:	ebfff6e7 	bl	8c38 <memcpy@plt>
    b098:	e1a00004 	mov	r0, r4
    b09c:	ebfff72d 	bl	8d58 <nvram_get@plt>
    b0a0:	e3500000 	cmp	r0, #0
    b0a4:	01a00009 	moveq	r0, r9
    b0a8:	ebfff754 	bl	8e00 <atoi@plt>
    b0ac:	e51f163c 	ldr	r1, [pc, #-1596]	; aa78 <_start@@Base+0x1c18>
    b0b0:	e1a03000 	mov	r3, r0
    b0b4:	e58d0e54 	str	r0, [sp, #3668]	; 0xe54
    b0b8:	e1a00006 	mov	r0, r6
    b0bc:	e5952004 	ldr	r2, [r5, #4]
    b0c0:	ebfff6e2 	bl	8c50 <wl_bssiovar_setint@plt>
    b0c4:	e1a01007 	mov	r1, r7
    b0c8:	e1a00004 	mov	r0, r4
[31m    b0cc:	ebfff6c7 	bl	8bf0 <strcpy@plt>[0m
    b0d0:	e1a00004 	mov	r0, r4
    b0d4:	ebfff74f 	bl	8e18 <strlen@plt>
--
    b124:	e59d0068 	ldr	r0, [sp, #104]	; 0x68
    b128:	e3a01050 	mov	r1, #80	; 0x50
    b12c:	e51f2688 	ldr	r2, [pc, #-1672]	; aaac <_start@@Base+0x1c4c>
    b130:	ebfff6b4 	bl	8c08 <snprintf@plt>
    b134:	e1a00004 	mov	r0, r4
    b138:	e59d1068 	ldr	r1, [sp, #104]	; 0x68
    b13c:	ebfff6e7 	bl	8ce0 <nvram_set@plt>
    b140:	eafffe77 	b	ab24 <_start@@Base+0x1cc4>
    b144:	e59de02c 	ldr	lr, [sp, #44]	; 0x2c
    b148:	e35e0000 	cmp	lr, #0
    b14c:	0afffe74 	beq	ab24 <_start@@Base+0x1cc4>
    b150:	e5953004 	ldr	r3, [r5, #4]
    b154:	e3530000 	cmp	r3, #0
    b158:	1affff09 	bne	ad84 <_start@@Base+0x1f24>
    b15c:	eafffe70 	b	ab24 <_start@@Base+0x1cc4>
    b160:	e59d8068 	ldr	r8, [sp, #104]	; 0x68
    b164:	e1a0700a 	mov	r7, sl
    b168:	e1a05006 	mov	r5, r6
    b16c:	e28d1ed5 	add	r1, sp, #3408	; 0xd50
    b170:	e1a00004 	mov	r0, r4
[31m    b174:	ebfff69d 	bl	8bf0 <strcpy@plt>[0m
    b178:	e1a00004 	mov	r0, r4
    b17c:	e28d6ebb 	add	r6, sp, #2992	; 0xbb0
    b180:	ebfff724 	bl	8e18 <strlen@plt>
    b184:	e3a0200d 	mov	r2, #13
    b188:	e51f1708 	ldr	r1, [pc, #-1800]	; aa88 <_start@@Base+0x1c28>
    b18c:	e0840000 	add	r0, r4, r0
    b190:	ebfff6a8 	bl	8c38 <memcpy@plt>
    b194:	e1a00004 	mov	r0, r4
    b198:	ebfff6ee 	bl	8d58 <nvram_get@plt>
    b19c:	e28d1ed5 	add	r1, sp, #3408	; 0xd50
    b1a0:	e1a0a000 	mov	sl, r0
    b1a4:	e1a00006 	mov	r0, r6
[31m    b1a8:	ebfff690 	bl	8bf0 <strcpy@plt>[0m
    b1ac:	e1a00006 	mov	r0, r6
    b1b0:	ebfff718 	bl	8e18 <strlen@plt>
--
    b1d4:	0a000007 	beq	b1f8 <_start@@Base+0x2398>
    b1d8:	e5da3000 	ldrb	r3, [sl]
    b1dc:	e3530000 	cmp	r3, #0
    b1e0:	0a000004 	beq	b1f8 <_start@@Base+0x2398>
    b1e4:	e3500000 	cmp	r0, #0
    b1e8:	0a000002 	beq	b1f8 <_start@@Base+0x2398>
    b1ec:	e5d03000 	ldrb	r3, [r0]
    b1f0:	e3530000 	cmp	r3, #0
    b1f4:	1a000f83 	bne	f008 <_start@@Base+0x61a8>
    b1f8:	e3a0300c 	mov	r3, #12
    b1fc:	e1a0200b 	mov	r2, fp
    b200:	e51f1788 	ldr	r1, [pc, #-1928]	; aa80 <_start@@Base+0x1c20>
    b204:	e28b6008 	add	r6, fp, #8
    b208:	e1a00005 	mov	r0, r5
    b20c:	ebfff6a7 	bl	8cb0 <wl_iovar_get@plt>
    b210:	e1a01006 	mov	r1, r6
    b214:	e51f0798 	ldr	r0, [pc, #-1944]	; aa84 <_start@@Base+0x1c24>
    b218:	ebfff6b0 	bl	8ce0 <nvram_set@plt>
    b21c:	e28d1ed5 	add	r1, sp, #3408	; 0xd50
    b220:	e1a00004 	mov	r0, r4
[31m    b224:	ebfff671 	bl	8bf0 <strcpy@plt>[0m
    b228:	e1a00004 	mov	r0, r4
    b22c:	ebfff6f9 	bl	8e18 <strlen@plt>
    b230:	e3a0200d 	mov	r2, #13
    b234:	e51f17b4 	ldr	r1, [pc, #-1972]	; aa88 <_start@@Base+0x1c28>
    b238:	e0840000 	add	r0, r4, r0
    b23c:	ebfff67d 	bl	8c38 <memcpy@plt>
    b240:	e1a01006 	mov	r1, r6
    b244:	e1a00004 	mov	r0, r4
    b248:	ebfff6a4 	bl	8ce0 <nvram_set@plt>
    b24c:	e51f27a8 	ldr	r2, [pc, #-1960]	; aaac <_start@@Base+0x1c4c>
    b250:	e3a01c01 	mov	r1, #256	; 0x100
    b254:	e59d3de8 	ldr	r3, [sp, #3560]	; 0xde8
    b258:	e28d0e82 	add	r0, sp, #2080	; 0x820
    b25c:	ebfff669 	bl	8c08 <snprintf@plt>
    b260:	e28d1e82 	add	r1, sp, #2080	; 0x820
    b264:	e51f07e0 	ldr	r0, [pc, #-2016]	; aa8c <_start@@Base+0x1c2c>
    b268:	ebfff69c 	bl	8ce0 <nvram_set@plt>
    b26c:	e28d1ed5 	add	r1, sp, #3408	; 0xd50
    b270:	e1a00004 	mov	r0, r4
[31m    b274:	ebfff65d 	bl	8bf0 <strcpy@plt>[0m
    b278:	e1a00004 	mov	r0, r4
    b27c:	ebfff6e5 	bl	8e18 <strlen@plt>
    b280:	e51f17f8 	ldr	r1, [pc, #-2040]	; aa90 <_start@@Base+0x1c30>
    b284:	e0840000 	add	r0, r4, r0
    b288:	e3a0200c 	mov	r2, #12
    b28c:	ebfff669 	bl	8c38 <memcpy@plt>
    b290:	e1a00004 	mov	r0, r4
    b294:	e28d1e82 	add	r1, sp, #2080	; 0x820
    b298:	ebfff690 	bl	8ce0 <nvram_set@plt>
    b29c:	e28d1ed5 	add	r1, sp, #3408	; 0xd50
    b2a0:	e1a00004 	mov	r0, r4
[31m    b2a4:	ebfff651 	bl	8bf0 <strcpy@plt>[0m
    b2a8:	e1a00004 	mov	r0, r4
    b2ac:	ebfff6d9 	bl	8e18 <strlen@plt>
    b2b0:	e51f1824 	ldr	r1, [pc, #-2084]	; aa94 <_start@@Base+0x1c34>
    b2b4:	e3a02006 	mov	r2, #6
    b2b8:	e0840000 	add	r0, r4, r0
    b2bc:	ebfff65d 	bl	8c38 <memcpy@plt>
    b2c0:	e1a00004 	mov	r0, r4
    b2c4:	ebfff6a3 	bl	8d58 <nvram_get@plt>
    b2c8:	e51f37c0 	ldr	r3, [pc, #-1984]	; ab10 <_start@@Base+0x1cb0>
    b2cc:	e3a01000 	mov	r1, #0
    b2d0:	e1500001 	cmp	r0, r1
    b2d4:	e3a02010 	mov	r2, #16
    b2d8:	01a00003 	moveq	r0, r3
    b2dc:	ebfff661 	bl	8c68 <strtoul@plt>
    b2e0:	e2502000 	subs	r2, r0, #0
    b2e4:	1a000c6a 	bne	e494 <_start@@Base+0x5634>
    b2e8:	e28d1ed5 	add	r1, sp, #3408	; 0xd50
    b2ec:	e1a00004 	mov	r0, r4
[31m    b2f0:	ebfff63e 	bl	8bf0 <strcpy@plt>[0m
    b2f4:	e1a00004 	mov	r0, r4
    b2f8:	ebfff6c6 	bl	8e18 <strlen@plt>
--
    b320:	ebfff698 	bl	8d88 <strcmp@plt>
    b324:	e3500000 	cmp	r0, #0
    b328:	03a0c001 	moveq	ip, #1
    b32c:	07dfc81c 	bfieq	ip, ip, #16, #16
    b330:	0a000000 	beq	b338 <_start@@Base+0x24d8>
    b334:	e3a0c801 	mov	ip, #65536	; 0x10000
    b338:	e3a01026 	mov	r1, #38	; 0x26
    b33c:	e59d2048 	ldr	r2, [sp, #72]	; 0x48
    b340:	e3a03004 	mov	r3, #4
    b344:	e1a00005 	mov	r0, r5
    b348:	e58dce54 	str	ip, [sp, #3668]	; 0xe54
    b34c:	e28d9d33 	add	r9, sp, #3264	; 0xcc0
    b350:	ebfff6a4 	bl	8de8 <wl_ioctl@plt>
    b354:	e3a03050 	mov	r3, #80	; 0x50
    b358:	e1a02008 	mov	r2, r8
    b35c:	e3a010b4 	mov	r1, #180	; 0xb4
    b360:	e1a00005 	mov	r0, r5
    b364:	ebfff69f 	bl	8de8 <wl_ioctl@plt>
    b368:	e28d1ed5 	add	r1, sp, #3408	; 0xd50
    b36c:	e1a00004 	mov	r0, r4
[31m    b370:	ebfff61e 	bl	8bf0 <strcpy@plt>[0m
    b374:	e1a00004 	mov	r0, r4
    b378:	e51fb870 	ldr	fp, [pc, #-2160]	; ab10 <_start@@Base+0x1cb0>
--
    b470:	e51f19d8 	ldr	r1, [pc, #-2520]	; aaa0 <_start@@Base+0x1c40>
    b474:	01a0200b 	moveq	r2, fp
    b478:	e7ef3653 	ubfx	r3, r3, #12, #16
    b47c:	ebfff64a 	bl	8dac <sprintf@plt>
    b480:	e2866001 	add	r6, r6, #1
    b484:	e08aa000 	add	sl, sl, r0
    b488:	eaffffc9 	b	b3b4 <_start@@Base+0x2554>
    b48c:	e3a03008 	mov	r3, #8
    b490:	eaffffe1 	b	b41c <_start@@Base+0x25bc>
    b494:	e3a03001 	mov	r3, #1
    b498:	e58d3e54 	str	r3, [sp, #3668]	; 0xe54
    b49c:	eaffffe4 	b	b434 <_start@@Base+0x25d4>
    b4a0:	e3a03002 	mov	r3, #2
    b4a4:	e58d3e54 	str	r3, [sp, #3668]	; 0xe54
    b4a8:	eaffffe1 	b	b434 <_start@@Base+0x25d4>
    b4ac:	e3a03006 	mov	r3, #6
    b4b0:	eaffffd9 	b	b41c <_start@@Base+0x25bc>
    b4b4:	e28d1ed5 	add	r1, sp, #3408	; 0xd50
    b4b8:	e1a00004 	mov	r0, r4
    b4bc:	e59d7028 	ldr	r7, [sp, #40]	; 0x28
[31m    b4c0:	ebfff5ca 	bl	8bf0 <strcpy@plt>[0m
    b4c4:	e1a00004 	mov	r0, r4
    b4c8:	ebfff652 	bl	8e18 <strlen@plt>
    b4cc:	e3a02009 	mov	r2, #9
    b4d0:	e51f1a34 	ldr	r1, [pc, #-2612]	; aaa4 <_start@@Base+0x1c44>
    b4d4:	e0840000 	add	r0, r4, r0
    b4d8:	ebfff5d6 	bl	8c38 <memcpy@plt>
    b4dc:	e28d1e82 	add	r1, sp, #2080	; 0x820
    b4e0:	e1a00004 	mov	r0, r4
    b4e4:	ebfff5fd 	bl	8ce0 <nvram_set@plt>
    b4e8:	e28d1ed5 	add	r1, sp, #3408	; 0xd50
    b4ec:	e1a00004 	mov	r0, r4
[31m    b4f0:	ebfff5be 	bl	8bf0 <strcpy@plt>[0m
    b4f4:	e1a00004 	mov	r0, r4
    b4f8:	ebfff646 	bl	8e18 <strlen@plt>
--
    b528:	e3530062 	cmp	r3, #98	; 0x62
    b52c:	0a000ec9 	beq	f058 <_start@@Base+0x61f8>
    b530:	e353006c 	cmp	r3, #108	; 0x6c
    b534:	0a000ec7 	beq	f058 <_start@@Base+0x61f8>
    b538:	e3530067 	cmp	r3, #103	; 0x67
    b53c:	0a000ec5 	beq	f058 <_start@@Base+0x61f8>
    b540:	e3530073 	cmp	r3, #115	; 0x73
    b544:	0a000f60 	beq	f2cc <_start@@Base+0x646c>
    b548:	e3530068 	cmp	r3, #104	; 0x68
    b54c:	0a000f7f 	beq	f350 <_start@@Base+0x64f0>
    b550:	e3530076 	cmp	r3, #118	; 0x76
    b554:	03a0300b 	moveq	r3, #11
    b558:	058d3e54 	streq	r3, [sp, #3668]	; 0xe54
    b55c:	0a000003 	beq	b570 <_start@@Base+0x2710>
    b560:	e3530063 	cmp	r3, #99	; 0x63
    b564:	13a03004 	movne	r3, #4
    b568:	0a0004bc 	beq	c860 <_start@@Base+0x3a00>
    b56c:	e58d3e54 	str	r3, [sp, #3668]	; 0xe54
    b570:	e28d1ed5 	add	r1, sp, #3408	; 0xd50
    b574:	e1a00004 	mov	r0, r4
[31m    b578:	ebfff59c 	bl	8bf0 <strcpy@plt>[0m
    b57c:	e1a00004 	mov	r0, r4
    b580:	ebfff624 	bl	8e18 <strlen@plt>
--
    b5e4:	e35c0061 	cmp	ip, #97	; 0x61
    b5e8:	13a0c002 	movne	ip, #2
    b5ec:	03a0c001 	moveq	ip, #1
    b5f0:	e58dce54 	str	ip, [sp, #3668]	; 0xe54
    b5f4:	e58dce30 	str	ip, [sp, #3632]	; 0xe30
    b5f8:	ebfff5fa 	bl	8de8 <wl_ioctl@plt>
    b5fc:	e59dae54 	ldr	sl, [sp, #3668]	; 0xe54
    b600:	e3a01062 	mov	r1, #98	; 0x62
    b604:	e1a02009 	mov	r2, r9
    b608:	e3a03044 	mov	r3, #68	; 0x44
    b60c:	e1a00005 	mov	r0, r5
    b610:	e58da040 	str	sl, [sp, #64]	; 0x40
    b614:	ebfff5f3 	bl	8de8 <wl_ioctl@plt>
    b618:	e59d3cd8 	ldr	r3, [sp, #3288]	; 0xcd8
    b61c:	e3a01c01 	mov	r1, #256	; 0x100
    b620:	e51f2b7c 	ldr	r2, [pc, #-2940]	; aaac <_start@@Base+0x1c4c>
    b624:	e28d0e82 	add	r0, sp, #2080	; 0x820
    b628:	ebfff576 	bl	8c08 <snprintf@plt>
    b62c:	e28d1ed5 	add	r1, sp, #3408	; 0xd50
    b630:	e1a00004 	mov	r0, r4
[31m    b634:	ebfff56d 	bl	8bf0 <strcpy@plt>[0m
    b638:	e1a00004 	mov	r0, r4
    b63c:	ebfff5f5 	bl	8e18 <strlen@plt>
--
    b708:	e3530006 	cmp	r3, #6
    b70c:	051f3c50 	ldreq	r3, [pc, #-3152]	; aac4 <_start@@Base+0x1c64>
    b710:	0a00000a 	beq	b740 <_start@@Base+0x28e0>
    b714:	e3530007 	cmp	r3, #7
    b718:	051f3c3c 	ldreq	r3, [pc, #-3132]	; aae4 <_start@@Base+0x1c84>
    b71c:	0a000007 	beq	b740 <_start@@Base+0x28e0>
    b720:	e353000b 	cmp	r3, #11
    b724:	051f3c64 	ldreq	r3, [pc, #-3172]	; aac8 <_start@@Base+0x1c68>
    b728:	0a000004 	beq	b740 <_start@@Base+0x28e0>
    b72c:	e51f1c68 	ldr	r1, [pc, #-3176]	; aacc <_start@@Base+0x1c6c>
    b730:	e3530008 	cmp	r3, #8
    b734:	e51f2c6c 	ldr	r2, [pc, #-3180]	; aad0 <_start@@Base+0x1c70>
    b738:	01a03001 	moveq	r3, r1
    b73c:	11a03002 	movne	r3, r2
    b740:	e51f2c74 	ldr	r2, [pc, #-3188]	; aad4 <_start@@Base+0x1c74>
    b744:	e3a01c01 	mov	r1, #256	; 0x100
    b748:	e28d0e82 	add	r0, sp, #2080	; 0x820
    b74c:	ebfff52d 	bl	8c08 <snprintf@plt>
    b750:	e28d1ed5 	add	r1, sp, #3408	; 0xd50
    b754:	e1a00004 	mov	r0, r4
[31m    b758:	ebfff524 	bl	8bf0 <strcpy@plt>[0m
    b75c:	e1a00004 	mov	r0, r4
    b760:	ebfff5ac 	bl	8e18 <strlen@plt>
    b764:	e3a02008 	mov	r2, #8
    b768:	e51f1c98 	ldr	r1, [pc, #-3224]	; aad8 <_start@@Base+0x1c78>
    b76c:	e0840000 	add	r0, r4, r0
    b770:	ebfff530 	bl	8c38 <memcpy@plt>
    b774:	e28d1e82 	add	r1, sp, #2080	; 0x820
    b778:	e1a00004 	mov	r0, r4
    b77c:	ebfff557 	bl	8ce0 <nvram_set@plt>
    b780:	e28d1ed5 	add	r1, sp, #3408	; 0xd50
    b784:	e1a00004 	mov	r0, r4
[31m    b788:	ebfff518 	bl	8bf0 <strcpy@plt>[0m
    b78c:	e1a00004 	mov	r0, r4
    b790:	ebfff5a0 	bl	8e18 <strlen@plt>
--
    b804:	e1a00004 	mov	r0, r4
    b808:	e51f1d24 	ldr	r1, [pc, #-3364]	; aaec <_start@@Base+0x1c8c>
    b80c:	ebfff5db 	bl	8f80 <_start@@Base+0x120>
    b810:	e3500000 	cmp	r0, #0
    b814:	058d0084 	streq	r0, [sp, #132]	; 0x84
    b818:	1a000ece 	bne	f358 <_start@@Base+0x64f8>
    b81c:	e59d3e4c 	ldr	r3, [sp, #3660]	; 0xe4c
    b820:	e3530004 	cmp	r3, #4
    b824:	13530006 	cmpne	r3, #6
    b828:	13a06000 	movne	r6, #0
    b82c:	03a06001 	moveq	r6, #1
    b830:	0a0005dd 	beq	cfac <_start@@Base+0x414c>
    b834:	e3530008 	cmp	r3, #8
    b838:	0a0005db 	beq	cfac <_start@@Base+0x414c>
    b83c:	e3530007 	cmp	r3, #7
    b840:	0a0005d9 	beq	cfac <_start@@Base+0x414c>
    b844:	e353000b 	cmp	r3, #11
    b848:	0a0005d7 	beq	cfac <_start@@Base+0x414c>
    b84c:	e28d1ed5 	add	r1, sp, #3408	; 0xd50
    b850:	e1a00004 	mov	r0, r4
[31m    b854:	ebfff4e5 	bl	8bf0 <strcpy@plt>[0m
    b858:	e1a00004 	mov	r0, r4
    b85c:	e58d6068 	str	r6, [sp, #104]	; 0x68
    b860:	ebfff56c 	bl	8e18 <strlen@plt>
    b864:	e3a0ca01 	mov	ip, #4096	; 0x1000
    b868:	e51f1d80 	ldr	r1, [pc, #-3456]	; aaf0 <_start@@Base+0x1c90>
    b86c:	e3a02006 	mov	r2, #6
    b870:	e0840000 	add	r0, r4, r0
    b874:	e58dc07c 	str	ip, [sp, #124]	; 0x7c
    b878:	e28dbd2d 	add	fp, sp, #2880	; 0xb40
    b87c:	ebfff4ed 	bl	8c38 <memcpy@plt>
    b880:	e1a00004 	mov	r0, r4
    b884:	e51f1d98 	ldr	r1, [pc, #-3480]	; aaf4 <_start@@Base+0x1c94>
    b888:	e28bb00c 	add	fp, fp, #12
    b88c:	ebfff513 	bl	8ce0 <nvram_set@plt>
    b890:	e28d1ed5 	add	r1, sp, #3408	; 0xd50
    b894:	e1a00004 	mov	r0, r4
[31m    b898:	ebfff4d4 	bl	8bf0 <strcpy@plt>[0m
    b89c:	e1a00004 	mov	r0, r4
    b8a0:	ebfff55c 	bl	8e18 <strlen@plt>
    b8a4:	e51f1db4 	ldr	r1, [pc, #-3508]	; aaf8 <_start@@Base+0x1c98>
    b8a8:	e3a02009 	mov	r2, #9
    b8ac:	e0840000 	add	r0, r4, r0
    b8b0:	ebfff4e0 	bl	8c38 <memcpy@plt>
    b8b4:	e1a00004 	mov	r0, r4
    b8b8:	ebfff526 	bl	8d58 <nvram_get@plt>
    b8bc:	e2503000 	subs	r3, r0, #0
    b8c0:	058d3074 	streq	r3, [sp, #116]	; 0x74
    b8c4:	0a000003 	beq	b8d8 <_start@@Base+0x2a78>
    b8c8:	eb00131f 	bl	1054c <_start@@Base+0x76ec>
    b8cc:	e3500000 	cmp	r0, #0
    b8d0:	e58d0074 	str	r0, [sp, #116]	; 0x74
    b8d4:	1a000d51 	bne	ee20 <_start@@Base+0x5fc0>
    b8d8:	e28d1ed5 	add	r1, sp, #3408	; 0xd50
    b8dc:	e1a00004 	mov	r0, r4
[31m    b8e0:	ebfff4c2 	bl	8bf0 <strcpy@plt>[0m
    b8e4:	e1a00004 	mov	r0, r4
    b8e8:	ebfff54a 	bl	8e18 <strlen@plt>
--
    b9bc:	e1a00005 	mov	r0, r5
    b9c0:	e3a01048 	mov	r1, #72	; 0x48
    b9c4:	e28d2edb 	add	r2, sp, #3504	; 0xdb0
    b9c8:	e3a03014 	mov	r3, #20
    b9cc:	ebfff505 	bl	8de8 <wl_ioctl@plt>
    b9d0:	e59de040 	ldr	lr, [sp, #64]	; 0x40
    b9d4:	e35e0002 	cmp	lr, #2
    b9d8:	0a000d3e 	beq	eed8 <_start@@Base+0x6078>
    b9dc:	e59d3e4c 	ldr	r3, [sp, #3660]	; 0xe4c
    b9e0:	e3530004 	cmp	r3, #4
    b9e4:	13530006 	cmpne	r3, #6
    b9e8:	0a0005f4 	beq	d1c0 <_start@@Base+0x4360>
    b9ec:	e3530008 	cmp	r3, #8
    b9f0:	0a0005f2 	beq	d1c0 <_start@@Base+0x4360>
    b9f4:	e3530007 	cmp	r3, #7
    b9f8:	0a0005f0 	beq	d1c0 <_start@@Base+0x4360>
    b9fc:	e353000b 	cmp	r3, #11
    ba00:	0a0005ee 	beq	d1c0 <_start@@Base+0x4360>
    ba04:	e28d1ed5 	add	r1, sp, #3408	; 0xd50
    ba08:	e1a00004 	mov	r0, r4
[31m    ba0c:	ebfff477 	bl	8bf0 <strcpy@plt>[0m
    ba10:	e1a00004 	mov	r0, r4
    ba14:	ebfff4ff 	bl	8e18 <strlen@plt>
    ba18:	e3a0200f 	mov	r2, #15
    ba1c:	e51f1f24 	ldr	r1, [pc, #-3876]	; ab00 <_start@@Base+0x1ca0>
    ba20:	e0840000 	add	r0, r4, r0
    ba24:	ebfff483 	bl	8c38 <memcpy@plt>
    ba28:	e1a00004 	mov	r0, r4
    ba2c:	ebfff4c9 	bl	8d58 <nvram_get@plt>
    ba30:	e2503000 	subs	r3, r0, #0
    ba34:	01a02003 	moveq	r2, r3
    ba38:	0a000003 	beq	ba4c <_start@@Base+0x2bec>
    ba3c:	e51f1f40 	ldr	r1, [pc, #-3904]	; ab04 <_start@@Base+0x1ca4>
    ba40:	ebfff4d0 	bl	8d88 <strcmp@plt>
    ba44:	e2702001 	rsbs	r2, r0, #1
    ba48:	33a02000 	movcc	r2, #0
    ba4c:	e51f1f4c 	ldr	r1, [pc, #-3916]	; ab08 <_start@@Base+0x1ca8>
    ba50:	e1a00005 	mov	r0, r5
    ba54:	ebfff4b0 	bl	8d1c <wl_iovar_setint@plt>
    ba58:	e28d1ed5 	add	r1, sp, #3408	; 0xd50
    ba5c:	e1a00004 	mov	r0, r4
[31m    ba60:	ebfff462 	bl	8bf0 <strcpy@plt>[0m
    ba64:	e1a00004 	mov	r0, r4
    ba68:	ebfff4ea 	bl	8e18 <strlen@plt>
--
    ba7c:	e1a00004 	mov	r0, r4
    ba80:	ebfff4b4 	bl	8d58 <nvram_get@plt>
    ba84:	e51f3f7c 	ldr	r3, [pc, #-3964]	; ab10 <_start@@Base+0x1cb0>
    ba88:	e3500000 	cmp	r0, #0
    ba8c:	01a00003 	moveq	r0, r3
    ba90:	ebfff4da 	bl	8e00 <atoi@plt>
    ba94:	e3a03004 	mov	r3, #4
    ba98:	e3a01027 	mov	r1, #39	; 0x27
    ba9c:	e59d2060 	ldr	r2, [sp, #96]	; 0x60
    baa0:	e58d0044 	str	r0, [sp, #68]	; 0x44
    baa4:	e1a00005 	mov	r0, r5
    baa8:	ebfff4ce 	bl	8de8 <wl_ioctl@plt>
    baac:	e28d0fa6 	add	r0, sp, #664	; 0x298
    bab0:	ebfff47b 	bl	8ca4 <uname@plt>
    bab4:	e3a02000 	mov	r2, #0
    bab8:	e51f1fac 	ldr	r1, [pc, #-4012]	; ab14 <_start@@Base+0x1cb4>
    babc:	e1a00005 	mov	r0, r5
    bac0:	ebfff495 	bl	8d1c <wl_iovar_setint@plt>
    bac4:	e28d1ed5 	add	r1, sp, #3408	; 0xd50
    bac8:	e28d0e92 	add	r0, sp, #2336	; 0x920
[31m    bacc:	ebfff447 	bl	8bf0 <strcpy@plt>[0m
    bad0:	e28d0e92 	add	r0, sp, #2336	; 0x920
    bad4:	ebfff4cf 	bl	8e18 <strlen@plt>
--
    bb94:	058d3058 	streq	r3, [sp, #88]	; 0x58
    bb98:	0a000058 	beq	bd00 <_start@@Base+0x2ea0>
    bb9c:	e58d8070 	str	r8, [sp, #112]	; 0x70
    bba0:	e28d9e42 	add	r9, sp, #1056	; 0x420
    bba4:	e1a0800a 	mov	r8, sl
    bba8:	e58da028 	str	sl, [sp, #40]	; 0x28
    bbac:	e58da034 	str	sl, [sp, #52]	; 0x34
    bbb0:	e58da058 	str	sl, [sp, #88]	; 0x58
    bbb4:	e58d7038 	str	r7, [sp, #56]	; 0x38
    bbb8:	e58d503c 	str	r5, [sp, #60]	; 0x3c
    bbbc:	e3a02050 	mov	r2, #80	; 0x50
    bbc0:	e59f1ca8 	ldr	r1, [pc, #3240]	; c870 <_start@@Base+0x3a10>
    bbc4:	e1a0000b 	mov	r0, fp
    bbc8:	ebfff44a 	bl	8cf8 <strncmp@plt>
    bbcc:	e3500000 	cmp	r0, #0
    bbd0:	e28d1ed5 	add	r1, sp, #3408	; 0xd50
    bbd4:	05cd0b51 	strbeq	r0, [sp, #2897]	; 0xb51
    bbd8:	e1a00009 	mov	r0, r9
    bbdc:	03a07001 	moveq	r7, #1
    bbe0:	13a07000 	movne	r7, #0
[31m    bbe4:	ebfff401 	bl	8bf0 <strcpy@plt>[0m
    bbe8:	e1a0100b 	mov	r1, fp
    bbec:	e1a00009 	mov	r0, r9
--
    bd8c:	e35a0000 	cmp	sl, #0
    bd90:	1a000667 	bne	d734 <_start@@Base+0x48d4>
    bd94:	e5973000 	ldr	r3, [r7]
    bd98:	e3530000 	cmp	r3, #0
    bd9c:	0a00005f 	beq	bf20 <_start@@Base+0x30c0>
    bda0:	e58db034 	str	fp, [sp, #52]	; 0x34
    bda4:	e3a09000 	mov	r9, #0
    bda8:	e59da078 	ldr	sl, [sp, #120]	; 0x78
    bdac:	e1a06009 	mov	r6, r9
    bdb0:	e59db02c 	ldr	fp, [sp, #44]	; 0x2c
    bdb4:	e58d8028 	str	r8, [sp, #40]	; 0x28
    bdb8:	e1a08206 	lsl	r8, r6, #4
    bdbc:	e35b0000 	cmp	fp, #0
    bdc0:	e28d1ed5 	add	r1, sp, #3408	; 0xd50
    bdc4:	e0883006 	add	r3, r8, r6
    bdc8:	e1a00004 	mov	r0, r4
    bdcc:	00873103 	addeq	r3, r7, r3, lsl #2
    bdd0:	11a08206 	lslne	r8, r6, #4
    bdd4:	02831028 	addeq	r1, r3, #40	; 0x28
    bdd8:	e0888006 	add	r8, r8, r6
[31m    bddc:	ebfff383 	bl	8bf0 <strcpy@plt>[0m
    bde0:	e1a00004 	mov	r0, r4
    bde4:	e2866001 	add	r6, r6, #1
    bde8:	ebfff40a 	bl	8e18 <strlen@plt>
    bdec:	e3a02004 	mov	r2, #4
    bdf0:	e59f1bb8 	ldr	r1, [pc, #3000]	; c9b0 <_start@@Base+0x3b50>
    bdf4:	e0840000 	add	r0, r4, r0
    bdf8:	ebfff38e 	bl	8c38 <memcpy@plt>
    bdfc:	e301c214 	movw	ip, #4628	; 0x1214
    be00:	e35a0000 	cmp	sl, #0
    be04:	e340c001 	movt	ip, #1
    be08:	e3011218 	movw	r1, #4632	; 0x1218
    be0c:	e3401001 	movt	r1, #1
    be10:	e1a00004 	mov	r0, r4
    be14:	11a0100c 	movne	r1, ip
    be18:	ebfff3b0 	bl	8ce0 <nvram_set@plt>
    be1c:	e0871108 	add	r1, r7, r8, lsl #2
    be20:	e1a00004 	mov	r0, r4
    be24:	e2811028 	add	r1, r1, #40	; 0x28
[31m    be28:	ebfff370 	bl	8bf0 <strcpy@plt>[0m
    be2c:	e1a00004 	mov	r0, r4
    be30:	ebfff3f8 	bl	8e18 <strlen@plt>
--
    be74:	13a03000 	movne	r3, #0
    be78:	03a03001 	moveq	r3, #1
    be7c:	e58d3e54 	str	r3, [sp, #3668]	; 0xe54
    be80:	e5922004 	ldr	r2, [r2, #4]
    be84:	ebfff371 	bl	8c50 <wl_bssiovar_setint@plt>
    be88:	e5973000 	ldr	r3, [r7]
    be8c:	e1530006 	cmp	r3, r6
    be90:	8affffc8 	bhi	bdb8 <_start@@Base+0x2f58>
    be94:	e3530000 	cmp	r3, #0
    be98:	e59d8028 	ldr	r8, [sp, #40]	; 0x28
    be9c:	e59db034 	ldr	fp, [sp, #52]	; 0x34
    bea0:	0a00001e 	beq	bf20 <_start@@Base+0x30c0>
    bea4:	e59f9b10 	ldr	r9, [pc, #2832]	; c9bc <_start@@Base+0x3b5c>
    bea8:	e3a0a000 	mov	sl, #0
    beac:	e1a0600a 	mov	r6, sl
    beb0:	e0861206 	add	r1, r6, r6, lsl #4
    beb4:	e1a00004 	mov	r0, r4
    beb8:	e2866001 	add	r6, r6, #1
    bebc:	e0871101 	add	r1, r7, r1, lsl #2
    bec0:	e2811028 	add	r1, r1, #40	; 0x28
[31m    bec4:	ebfff349 	bl	8bf0 <strcpy@plt>[0m
    bec8:	e1a00004 	mov	r0, r4
    becc:	ebfff3d1 	bl	8e18 <strlen@plt>
--
    beec:	01a00009 	moveq	r0, r9
    bef0:	ebfff3c2 	bl	8e00 <atoi@plt>
    bef4:	e087200a 	add	r2, r7, sl
    bef8:	e1a03000 	mov	r3, r0
    befc:	e58d0e54 	str	r0, [sp, #3668]	; 0xe54
    bf00:	e1a00005 	mov	r0, r5
    bf04:	e59f197c 	ldr	r1, [pc, #2428]	; c888 <_start@@Base+0x3a28>
    bf08:	e28aa044 	add	sl, sl, #68	; 0x44
    bf0c:	e5922004 	ldr	r2, [r2, #4]
    bf10:	ebfff34e 	bl	8c50 <wl_bssiovar_setint@plt>
    bf14:	e5973000 	ldr	r3, [r7]
    bf18:	e1530006 	cmp	r3, r6
    bf1c:	8affffe3 	bhi	beb0 <_start@@Base+0x3050>
    bf20:	e3a03014 	mov	r3, #20
    bf24:	e28d2edb 	add	r2, sp, #3504	; 0xdb0
    bf28:	e3a01072 	mov	r1, #114	; 0x72
    bf2c:	e1a00005 	mov	r0, r5
    bf30:	ebfff3ac 	bl	8de8 <wl_ioctl@plt>
    bf34:	e28d1ed5 	add	r1, sp, #3408	; 0xd50
    bf38:	e1a00004 	mov	r0, r4
[31m    bf3c:	ebfff32b 	bl	8bf0 <strcpy@plt>[0m
    bf40:	e1a00004 	mov	r0, r4
    bf44:	ebfff3b3 	bl	8e18 <strlen@plt>
--
    bfbc:	e59d3e4c 	ldr	r3, [sp, #3660]	; 0xe4c
    bfc0:	e3530001 	cmp	r3, #1
    bfc4:	0a000502 	beq	d3d4 <_start@@Base+0x4574>
    bfc8:	e3530004 	cmp	r3, #4
    bfcc:	13530006 	cmpne	r3, #6
    bfd0:	0a0004fc 	beq	d3c8 <_start@@Base+0x4568>
    bfd4:	e3530008 	cmp	r3, #8
    bfd8:	0a0004fa 	beq	d3c8 <_start@@Base+0x4568>
    bfdc:	e3530007 	cmp	r3, #7
    bfe0:	0a0004f8 	beq	d3c8 <_start@@Base+0x4568>
    bfe4:	e353000b 	cmp	r3, #11
    bfe8:	0a0004f6 	beq	d3c8 <_start@@Base+0x4568>
    bfec:	e3530002 	cmp	r3, #2
    bff0:	13530005 	cmpne	r3, #5
    bff4:	1a000002 	bne	c004 <_start@@Base+0x31a4>
    bff8:	e59d3e48 	ldr	r3, [sp, #3656]	; 0xe48
    bffc:	e3530001 	cmp	r3, #1
    c000:	9a0004f3 	bls	d3d4 <_start@@Base+0x4574>
    c004:	e28d1ed5 	add	r1, sp, #3408	; 0xd50
    c008:	e1a00004 	mov	r0, r4
[31m    c00c:	ebfff2f7 	bl	8bf0 <strcpy@plt>[0m
    c010:	e1a00004 	mov	r0, r4
    c014:	ebfff37f 	bl	8e18 <strlen@plt>
--
    c07c:	0a000401 	beq	d088 <_start@@Base+0x4228>
    c080:	e59dc044 	ldr	ip, [sp, #68]	; 0x44
    c084:	e35c0002 	cmp	ip, #2
    c088:	0a000995 	beq	e6e4 <_start@@Base+0x5884>
    c08c:	e59f1808 	ldr	r1, [pc, #2056]	; c89c <_start@@Base+0x3a3c>
    c090:	e1a00005 	mov	r0, r5
    c094:	ebfff320 	bl	8d1c <wl_iovar_setint@plt>
    c098:	e59f1800 	ldr	r1, [pc, #2048]	; c8a0 <_start@@Base+0x3a40>
    c09c:	e1a06000 	mov	r6, r0
    c0a0:	e59d2e54 	ldr	r2, [sp, #3668]	; 0xe54
    c0a4:	e1a00005 	mov	r0, r5
    c0a8:	ebfff31b 	bl	8d1c <wl_iovar_setint@plt>
    c0ac:	e3500000 	cmp	r0, #0
    c0b0:	13560000 	cmpne	r6, #0
    c0b4:	1a00096e 	bne	e674 <_start@@Base+0x5814>
    c0b8:	e59de068 	ldr	lr, [sp, #104]	; 0x68
    c0bc:	e35e0000 	cmp	lr, #0
    c0c0:	1a0009b4 	bne	e798 <_start@@Base+0x5938>
    c0c4:	e28d1ed5 	add	r1, sp, #3408	; 0xd50
    c0c8:	e1a00004 	mov	r0, r4
[31m    c0cc:	ebfff2c7 	bl	8bf0 <strcpy@plt>[0m
    c0d0:	e1a00004 	mov	r0, r4
    c0d4:	ebfff34f 	bl	8e18 <strlen@plt>
--
    c108:	e30d3e83 	movw	r3, #56963	; 0xde83
    c10c:	e344331b 	movt	r3, #17179	; 0x431b
    c110:	e0c3c093 	smull	ip, r3, r3, r0
    c114:	e35a0002 	cmp	sl, #2
    c118:	e06228c3 	rsb	r2, r2, r3, asr #17
    c11c:	e58d2e54 	str	r2, [sp, #3668]	; 0xe54
    c120:	0a000996 	beq	e780 <_start@@Base+0x5920>
    c124:	e59f177c 	ldr	r1, [pc, #1916]	; c8a8 <_start@@Base+0x3a48>
    c128:	e1a00005 	mov	r0, r5
    c12c:	ebfff2fa 	bl	8d1c <wl_iovar_setint@plt>
    c130:	e59f1774 	ldr	r1, [pc, #1908]	; c8ac <_start@@Base+0x3a4c>
    c134:	e1a06000 	mov	r6, r0
    c138:	e59d2e54 	ldr	r2, [sp, #3668]	; 0xe54
    c13c:	e1a00005 	mov	r0, r5
    c140:	ebfff2f5 	bl	8d1c <wl_iovar_setint@plt>
    c144:	e3500000 	cmp	r0, #0
    c148:	13560000 	cmpne	r6, #0
    c14c:	1a00096f 	bne	e710 <_start@@Base+0x58b0>
    c150:	e28d1ed5 	add	r1, sp, #3408	; 0xd50
    c154:	e1a00004 	mov	r0, r4
[31m    c158:	ebfff2a4 	bl	8bf0 <strcpy@plt>[0m
    c15c:	e1a00004 	mov	r0, r4
    c160:	e59f6854 	ldr	r6, [pc, #2132]	; c9bc <_start@@Base+0x3b5c>
    c164:	ebfff32b 	bl	8e18 <strlen@plt>
    c168:	e59f1740 	ldr	r1, [pc, #1856]	; c8b0 <_start@@Base+0x3a50>
    c16c:	e3a02005 	mov	r2, #5
    c170:	e0840000 	add	r0, r4, r0
    c174:	ebfff2af 	bl	8c38 <memcpy@plt>
    c178:	e1a00004 	mov	r0, r4
    c17c:	ebfff2f5 	bl	8d58 <nvram_get@plt>
    c180:	e3500000 	cmp	r0, #0
    c184:	01a00006 	moveq	r0, r6
    c188:	ebfff31c 	bl	8e00 <atoi@plt>
    c18c:	e59f1720 	ldr	r1, [pc, #1824]	; c8b4 <_start@@Base+0x3a54>
    c190:	e1a03000 	mov	r3, r0
    c194:	e1a02000 	mov	r2, r0
    c198:	e1a00005 	mov	r0, r5
    c19c:	e58d3e54 	str	r3, [sp, #3668]	; 0xe54
    c1a0:	ebfff2dd 	bl	8d1c <wl_iovar_setint@plt>
    c1a4:	e28d1ed5 	add	r1, sp, #3408	; 0xd50
    c1a8:	e1a00004 	mov	r0, r4
[31m    c1ac:	ebfff28f 	bl	8bf0 <strcpy@plt>[0m
    c1b0:	e1a00004 	mov	r0, r4
    c1b4:	ebfff317 	bl	8e18 <strlen@plt>
    c1b8:	e59f16f8 	ldr	r1, [pc, #1784]	; c8b8 <_start@@Base+0x3a58>
    c1bc:	e3a02004 	mov	r2, #4
    c1c0:	e0840000 	add	r0, r4, r0
    c1c4:	ebfff29b 	bl	8c38 <memcpy@plt>
    c1c8:	e1a00004 	mov	r0, r4
    c1cc:	ebfff2e1 	bl	8d58 <nvram_get@plt>
    c1d0:	e3500000 	cmp	r0, #0
    c1d4:	01a00006 	moveq	r0, r6
    c1d8:	ebfff308 	bl	8e00 <atoi@plt>
    c1dc:	e59f16d8 	ldr	r1, [pc, #1752]	; c8bc <_start@@Base+0x3a5c>
    c1e0:	e1a03000 	mov	r3, r0
    c1e4:	e1a02000 	mov	r2, r0
    c1e8:	e1a00005 	mov	r0, r5
    c1ec:	e58d3e54 	str	r3, [sp, #3668]	; 0xe54
    c1f0:	ebfff2c9 	bl	8d1c <wl_iovar_setint@plt>
    c1f4:	e28d1ed5 	add	r1, sp, #3408	; 0xd50
    c1f8:	e1a00004 	mov	r0, r4
[31m    c1fc:	ebfff27b 	bl	8bf0 <strcpy@plt>[0m
    c200:	e1a00004 	mov	r0, r4
    c204:	ebfff303 	bl	8e18 <strlen@plt>
    c208:	e59f16b0 	ldr	r1, [pc, #1712]	; c8c0 <_start@@Base+0x3a60>
    c20c:	e3a02005 	mov	r2, #5
    c210:	e0840000 	add	r0, r4, r0
    c214:	ebfff287 	bl	8c38 <memcpy@plt>
    c218:	e1a00004 	mov	r0, r4
    c21c:	ebfff2cd 	bl	8d58 <nvram_get@plt>
    c220:	e3500000 	cmp	r0, #0
    c224:	01a00006 	moveq	r0, r6
    c228:	ebfff2f4 	bl	8e00 <atoi@plt>
    c22c:	e3a03004 	mov	r3, #4
    c230:	e59d2048 	ldr	r2, [sp, #72]	; 0x48
    c234:	e58d0e54 	str	r0, [sp, #3668]	; 0xe54
    c238:	e3a0104e 	mov	r1, #78	; 0x4e
    c23c:	e1a00005 	mov	r0, r5
    c240:	ebfff2e8 	bl	8de8 <wl_ioctl@plt>
    c244:	e28d1ed5 	add	r1, sp, #3408	; 0xd50
    c248:	e1a00004 	mov	r0, r4
[31m    c24c:	ebfff267 	bl	8bf0 <strcpy@plt>[0m
    c250:	e1a00004 	mov	r0, r4
    c254:	ebfff2ef 	bl	8e18 <strlen@plt>
    c258:	e59f1664 	ldr	r1, [pc, #1636]	; c8c4 <_start@@Base+0x3a64>
    c25c:	e3a02004 	mov	r2, #4
    c260:	e0840000 	add	r0, r4, r0
    c264:	ebfff273 	bl	8c38 <memcpy@plt>
    c268:	e1a00004 	mov	r0, r4
    c26c:	ebfff2b9 	bl	8d58 <nvram_get@plt>
    c270:	e3500000 	cmp	r0, #0
    c274:	01a00006 	moveq	r0, r6
    c278:	ebfff2e0 	bl	8e00 <atoi@plt>
    c27c:	e3a03004 	mov	r3, #4
    c280:	e59d2048 	ldr	r2, [sp, #72]	; 0x48
    c284:	e58d0e54 	str	r0, [sp, #3668]	; 0xe54
    c288:	e3a0104c 	mov	r1, #76	; 0x4c
    c28c:	e1a00005 	mov	r0, r5
    c290:	ebfff2d4 	bl	8de8 <wl_ioctl@plt>
    c294:	e28d1ed5 	add	r1, sp, #3408	; 0xd50
    c298:	e1a00004 	mov	r0, r4
[31m    c29c:	ebfff253 	bl	8bf0 <strcpy@plt>[0m
    c2a0:	e1a00004 	mov	r0, r4
    c2a4:	ebfff2db 	bl	8e18 <strlen@plt>
--
    c2b0:	e0840000 	add	r0, r4, r0
    c2b4:	ebfff25f 	bl	8c38 <memcpy@plt>
    c2b8:	e1a00004 	mov	r0, r4
    c2bc:	ebfff2a5 	bl	8d58 <nvram_get@plt>
    c2c0:	e3500000 	cmp	r0, #0
    c2c4:	0a000c02 	beq	f2d4 <_start@@Base+0x6474>
    c2c8:	ebfff2cc 	bl	8e00 <atoi@plt>
    c2cc:	e1a03000 	mov	r3, r0
    c2d0:	e59f15f0 	ldr	r1, [pc, #1520]	; c8c8 <_start@@Base+0x3a68>
    c2d4:	e1a02003 	mov	r2, r3
    c2d8:	e1a00005 	mov	r0, r5
    c2dc:	e58d3e54 	str	r3, [sp, #3668]	; 0xe54
    c2e0:	ebfff28d 	bl	8d1c <wl_iovar_setint@plt>
    c2e4:	e59de044 	ldr	lr, [sp, #68]	; 0x44
    c2e8:	e35e0002 	cmp	lr, #2
    c2ec:	03a03000 	moveq	r3, #0
    c2f0:	058d3e54 	streq	r3, [sp, #3668]	; 0xe54
    c2f4:	0a000011 	beq	c340 <_start@@Base+0x34e0>
    c2f8:	e28d1ed5 	add	r1, sp, #3408	; 0xd50
    c2fc:	e1a00004 	mov	r0, r4
[31m    c300:	ebfff23a 	bl	8bf0 <strcpy@plt>[0m
    c304:	e1a00004 	mov	r0, r4
    c308:	ebfff2c2 	bl	8e18 <strlen@plt>
--
    c354:	e59d3e4c 	ldr	r3, [sp, #3660]	; 0xe4c
    c358:	e3530004 	cmp	r3, #4
    c35c:	13530007 	cmpne	r3, #7
    c360:	13a02000 	movne	r2, #0
    c364:	03a02001 	moveq	r2, #1
    c368:	0a000446 	beq	d488 <_start@@Base+0x4628>
    c36c:	e353000b 	cmp	r3, #11
    c370:	0a000444 	beq	d488 <_start@@Base+0x4628>
    c374:	e3530006 	cmp	r3, #6
    c378:	03822001 	orreq	r2, r2, #1
    c37c:	e3520000 	cmp	r2, #0
    c380:	1a000355 	bne	d0dc <_start@@Base+0x427c>
    c384:	e3530008 	cmp	r3, #8
    c388:	0a000353 	beq	d0dc <_start@@Base+0x427c>
    c38c:	e3530007 	cmp	r3, #7
    c390:	0a000351 	beq	d0dc <_start@@Base+0x427c>
    c394:	e353000b 	cmp	r3, #11
    c398:	0a00034f 	beq	d0dc <_start@@Base+0x427c>
    c39c:	e28d1ed5 	add	r1, sp, #3408	; 0xd50
    c3a0:	e1a00004 	mov	r0, r4
[31m    c3a4:	ebfff211 	bl	8bf0 <strcpy@plt>[0m
    c3a8:	e1a00004 	mov	r0, r4
    c3ac:	ebfff299 	bl	8e18 <strlen@plt>
--
    c3d4:	ebfff26b 	bl	8d88 <strcmp@plt>
    c3d8:	e3500000 	cmp	r0, #0
    c3dc:	0a0008c6 	beq	e6fc <_start@@Base+0x589c>
    c3e0:	e1a00006 	mov	r0, r6
    c3e4:	e59f15a4 	ldr	r1, [pc, #1444]	; c990 <_start@@Base+0x3b30>
    c3e8:	ebfff266 	bl	8d88 <strcmp@plt>
    c3ec:	e2502000 	subs	r2, r0, #0
    c3f0:	0a000a4f 	beq	ed34 <_start@@Base+0x5ed4>
    c3f4:	e59d3e4c 	ldr	r3, [sp, #3660]	; 0xe4c
    c3f8:	e3530004 	cmp	r3, #4
    c3fc:	13530006 	cmpne	r3, #6
    c400:	0a000365 	beq	d19c <_start@@Base+0x433c>
    c404:	e3530008 	cmp	r3, #8
    c408:	0a000363 	beq	d19c <_start@@Base+0x433c>
    c40c:	e3530007 	cmp	r3, #7
    c410:	0a000361 	beq	d19c <_start@@Base+0x433c>
    c414:	e353000b 	cmp	r3, #11
    c418:	0a00035f 	beq	d19c <_start@@Base+0x433c>
    c41c:	e28d1ed5 	add	r1, sp, #3408	; 0xd50
    c420:	e1a00004 	mov	r0, r4
[31m    c424:	ebfff1f1 	bl	8bf0 <strcpy@plt>[0m
    c428:	e1a00004 	mov	r0, r4
    c42c:	ebfff279 	bl	8e18 <strlen@plt>
--
    c460:	e59f146c 	ldr	r1, [pc, #1132]	; c8d4 <_start@@Base+0x3a74>
    c464:	ebfff22c 	bl	8d1c <wl_iovar_setint@plt>
    c468:	e59d3e54 	ldr	r3, [sp, #3668]	; 0xe54
    c46c:	e3530000 	cmp	r3, #0
    c470:	1a00084b 	bne	e5a4 <_start@@Base+0x5744>
    c474:	e3a03044 	mov	r3, #68	; 0x44
    c478:	e1a00005 	mov	r0, r5
    c47c:	e3a01062 	mov	r1, #98	; 0x62
    c480:	e59d203c 	ldr	r2, [sp, #60]	; 0x3c
    c484:	ebfff257 	bl	8de8 <wl_ioctl@plt>
    c488:	e59d3af8 	ldr	r3, [sp, #2808]	; 0xaf8
    c48c:	e3530027 	cmp	r3, #39	; 0x27
    c490:	8a00062d 	bhi	dd4c <_start@@Base+0x4eec>
    c494:	e3a02000 	mov	r2, #0
    c498:	e3a01002 	mov	r1, #2
    c49c:	e1a03002 	mov	r3, r2
    c4a0:	e1a00005 	mov	r0, r5
    c4a4:	ebfff24f 	bl	8de8 <wl_ioctl@plt>
    c4a8:	e28d1ed5 	add	r1, sp, #3408	; 0xd50
    c4ac:	e1a00004 	mov	r0, r4
[31m    c4b0:	ebfff1ce 	bl	8bf0 <strcpy@plt>[0m
    c4b4:	e1a00004 	mov	r0, r4
    c4b8:	ebfff256 	bl	8e18 <strlen@plt>
--
    c4d8:	e3500000 	cmp	r0, #0
    c4dc:	01a00003 	moveq	r0, r3
    c4e0:	ebfff246 	bl	8e00 <atoi@plt>
    c4e4:	e3a03004 	mov	r3, #4
    c4e8:	e59d2048 	ldr	r2, [sp, #72]	; 0x48
    c4ec:	e58d0e54 	str	r0, [sp, #3668]	; 0xe54
    c4f0:	e3a01040 	mov	r1, #64	; 0x40
    c4f4:	e1a00005 	mov	r0, r5
    c4f8:	ebfff23a 	bl	8de8 <wl_ioctl@plt>
    c4fc:	e59dc038 	ldr	ip, [sp, #56]	; 0x38
    c500:	e3a03000 	mov	r3, #0
    c504:	e28d1ed5 	add	r1, sp, #3408	; 0xd50
    c508:	e28d0e92 	add	r0, sp, #2336	; 0x920
    c50c:	e58d3dc4 	str	r3, [sp, #3524]	; 0xdc4
    c510:	e28c2004 	add	r2, ip, #4
    c514:	e5cd3dc8 	strb	r3, [sp, #3528]	; 0xdc8
    c518:	e4823004 	str	r3, [r2], #4
    c51c:	e4823004 	str	r3, [r2], #4
    c520:	e5823000 	str	r3, [r2]
    c524:	e58d3d9c 	str	r3, [sp, #3484]	; 0xd9c
[31m    c528:	ebfff1b0 	bl	8bf0 <strcpy@plt>[0m
    c52c:	e28d0e92 	add	r0, sp, #2336	; 0x920
    c530:	ebfff238 	bl	8e18 <strlen@plt>
--
    c53c:	e3a0200b 	mov	r2, #11
    c540:	e08e0000 	add	r0, lr, r0
    c544:	ebfff1bb 	bl	8c38 <memcpy@plt>
    c548:	e28d0e92 	add	r0, sp, #2336	; 0x920
    c54c:	ebfff201 	bl	8d58 <nvram_get@plt>
    c550:	e2509000 	subs	r9, r0, #0
    c554:	0a000007 	beq	c578 <_start@@Base+0x3718>
    c558:	ebfff22e 	bl	8e18 <strlen@plt>
    c55c:	e2706001 	rsbs	r6, r0, #1
    c560:	33a06000 	movcc	r6, #0
    c564:	e1a0a000 	mov	sl, r0
    c568:	e35000ff 	cmp	r0, #255	; 0xff
    c56c:	c3866001 	orrgt	r6, r6, #1
    c570:	e3560000 	cmp	r6, #0
    c574:	0a000735 	beq	e250 <_start@@Base+0x53f0>
    c578:	e59de084 	ldr	lr, [sp, #132]	; 0x84
    c57c:	e35e0000 	cmp	lr, #0
    c580:	1a0008f5 	bne	e95c <_start@@Base+0x5afc>
    c584:	e28d1ed5 	add	r1, sp, #3408	; 0xd50
    c588:	e1a00004 	mov	r0, r4
[31m    c58c:	ebfff197 	bl	8bf0 <strcpy@plt>[0m
    c590:	e1a00004 	mov	r0, r4
    c594:	ebfff21f 	bl	8e18 <strlen@plt>
    c598:	e59f1340 	ldr	r1, [pc, #832]	; c8e0 <_start@@Base+0x3a80>
    c59c:	e3a0200c 	mov	r2, #12
    c5a0:	e0840000 	add	r0, r4, r0
    c5a4:	ebfff1a3 	bl	8c38 <memcpy@plt>
    c5a8:	e1a00004 	mov	r0, r4
    c5ac:	ebfff1e9 	bl	8d58 <nvram_get@plt>
    c5b0:	e3500000 	cmp	r0, #0
    c5b4:	0a000005 	beq	c5d0 <_start@@Base+0x3770>
    c5b8:	ebfff210 	bl	8e00 <atoi@plt>
    c5bc:	e2502000 	subs	r2, r0, #0
    c5c0:	da000002 	ble	c5d0 <_start@@Base+0x3770>
    c5c4:	e1a00005 	mov	r0, r5
    c5c8:	e59f1314 	ldr	r1, [pc, #788]	; c8e4 <_start@@Base+0x3a84>
    c5cc:	ebfff1d2 	bl	8d1c <wl_iovar_setint@plt>
    c5d0:	e28d1ed5 	add	r1, sp, #3408	; 0xd50
    c5d4:	e1a00004 	mov	r0, r4
[31m    c5d8:	ebfff184 	bl	8bf0 <strcpy@plt>[0m
    c5dc:	e1a00004 	mov	r0, r4
    c5e0:	ebfff20c 	bl	8e18 <strlen@plt>
    c5e4:	e59f12fc 	ldr	r1, [pc, #764]	; c8e8 <_start@@Base+0x3a88>
    c5e8:	e3a02009 	mov	r2, #9
    c5ec:	e0840000 	add	r0, r4, r0
    c5f0:	ebfff190 	bl	8c38 <memcpy@plt>
    c5f4:	e1a00004 	mov	r0, r4
    c5f8:	ebfff1d6 	bl	8d58 <nvram_get@plt>
    c5fc:	e3500000 	cmp	r0, #0
    c600:	0a000005 	beq	c61c <_start@@Base+0x37bc>
    c604:	ebfff1fd 	bl	8e00 <atoi@plt>
    c608:	e2502000 	subs	r2, r0, #0
    c60c:	da000002 	ble	c61c <_start@@Base+0x37bc>
    c610:	e1a00005 	mov	r0, r5
    c614:	e59f12d0 	ldr	r1, [pc, #720]	; c8ec <_start@@Base+0x3a8c>
    c618:	ebfff1bf 	bl	8d1c <wl_iovar_setint@plt>
    c61c:	e28d1ed5 	add	r1, sp, #3408	; 0xd50
    c620:	e1a00004 	mov	r0, r4
[31m    c624:	ebfff171 	bl	8bf0 <strcpy@plt>[0m
    c628:	e1a00004 	mov	r0, r4
    c62c:	ebfff1f9 	bl	8e18 <strlen@plt>
    c630:	e59f12b8 	ldr	r1, [pc, #696]	; c8f0 <_start@@Base+0x3a90>
    c634:	e3a0200b 	mov	r2, #11
    c638:	e0840000 	add	r0, r4, r0
    c63c:	ebfff17d 	bl	8c38 <memcpy@plt>
    c640:	e1a00004 	mov	r0, r4
    c644:	ebfff1c3 	bl	8d58 <nvram_get@plt>
    c648:	e3500000 	cmp	r0, #0
    c64c:	0a000005 	beq	c668 <_start@@Base+0x3808>
    c650:	ebfff1ea 	bl	8e00 <atoi@plt>
    c654:	e2502000 	subs	r2, r0, #0
    c658:	ba000002 	blt	c668 <_start@@Base+0x3808>
    c65c:	e1a00005 	mov	r0, r5
    c660:	e59f12a0 	ldr	r1, [pc, #672]	; c908 <_start@@Base+0x3aa8>
    c664:	ebfff1ac 	bl	8d1c <wl_iovar_setint@plt>
    c668:	e28d1ed5 	add	r1, sp, #3408	; 0xd50
    c66c:	e1a00004 	mov	r0, r4
[31m    c670:	ebfff15e 	bl	8bf0 <strcpy@plt>[0m
    c674:	e1a00004 	mov	r0, r4
    c678:	ebfff1e6 	bl	8e18 <strlen@plt>
--
    cac4:	e1a0b00a 	mov	fp, sl
    cac8:	e28ee00a 	add	lr, lr, #10
    cacc:	e28cc004 	add	ip, ip, #4
    cad0:	e58da028 	str	sl, [sp, #40]	; 0x28
    cad4:	e28c0004 	add	r0, ip, #4
    cad8:	e58dc050 	str	ip, [sp, #80]	; 0x50
    cadc:	e58de044 	str	lr, [sp, #68]	; 0x44
    cae0:	e58d0040 	str	r0, [sp, #64]	; 0x40
    cae4:	e58d702c 	str	r7, [sp, #44]	; 0x2c
    cae8:	e58d503c 	str	r5, [sp, #60]	; 0x3c
    caec:	e59d102c 	ldr	r1, [sp, #44]	; 0x2c
    caf0:	e08b920b 	add	r9, fp, fp, lsl #4
    caf4:	e59d2028 	ldr	r2, [sp, #40]	; 0x28
    caf8:	e1a00004 	mov	r0, r4
    cafc:	e0813002 	add	r3, r1, r2
    cb00:	e0819109 	add	r9, r1, r9, lsl #2
    cb04:	e5933004 	ldr	r3, [r3, #4]
    cb08:	e2899028 	add	r9, r9, #40	; 0x28
    cb0c:	e1a01009 	mov	r1, r9
    cb10:	e58d3034 	str	r3, [sp, #52]	; 0x34
[31m    cb14:	ebfff035 	bl	8bf0 <strcpy@plt>[0m
    cb18:	e1a00004 	mov	r0, r4
    cb1c:	ebfff0bd 	bl	8e18 <strlen@plt>
    cb20:	e3a0200c 	mov	r2, #12
    cb24:	e51f1220 	ldr	r1, [pc, #-544]	; c90c <_start@@Base+0x3aac>
    cb28:	e0840000 	add	r0, r4, r0
    cb2c:	ebfff041 	bl	8c38 <memcpy@plt>
    cb30:	e1a00004 	mov	r0, r4
    cb34:	ebfff087 	bl	8d58 <nvram_get@plt>
    cb38:	e1a01009 	mov	r1, r9
    cb3c:	e1a00004 	mov	r0, r4
    cb40:	e58d6820 	str	r6, [sp, #2080]	; 0x820
[31m    cb44:	ebfff029 	bl	8bf0 <strcpy@plt>[0m
    cb48:	e1a00004 	mov	r0, r4
    cb4c:	ebfff0b1 	bl	8e18 <strlen@plt>
    cb50:	e51f123c 	ldr	r1, [pc, #-572]	; c91c <_start@@Base+0x3abc>
    cb54:	e3a02008 	mov	r2, #8
    cb58:	e0840000 	add	r0, r4, r0
    cb5c:	ebfff035 	bl	8c38 <memcpy@plt>
    cb60:	e1a00004 	mov	r0, r4
    cb64:	ebfff07b 	bl	8d58 <nvram_get@plt>
    cb68:	e3500000 	cmp	r0, #0
    cb6c:	0a000003 	beq	cb80 <_start@@Base+0x3d20>
    cb70:	e51f1268 	ldr	r1, [pc, #-616]	; c910 <_start@@Base+0x3ab0>
    cb74:	ebfff083 	bl	8d88 <strcmp@plt>
    cb78:	e3500000 	cmp	r0, #0
    cb7c:	0a000062 	beq	cd0c <_start@@Base+0x3eac>
    cb80:	e1a01009 	mov	r1, r9
    cb84:	e1a00004 	mov	r0, r4
[31m    cb88:	ebfff018 	bl	8bf0 <strcpy@plt>[0m
    cb8c:	e1a00004 	mov	r0, r4
    cb90:	e3015120 	movw	r5, #4384	; 0x1120
    cb94:	ebfff09f 	bl	8e18 <strlen@plt>
    cb98:	e3a02008 	mov	r2, #8
    cb9c:	e51f1290 	ldr	r1, [pc, #-656]	; c914 <_start@@Base+0x3ab4>
    cba0:	e0840000 	add	r0, r4, r0
    cba4:	e3405001 	movt	r5, #1
    cba8:	ebfff022 	bl	8c38 <memcpy@plt>
    cbac:	e1a00004 	mov	r0, r4
    cbb0:	ebfff068 	bl	8d58 <nvram_get@plt>
    cbb4:	e3500000 	cmp	r0, #0
    cbb8:	e1a01009 	mov	r1, r9
    cbbc:	11a05000 	movne	r5, r0
    cbc0:	e1a00004 	mov	r0, r4
[31m    cbc4:	ebfff009 	bl	8bf0 <strcpy@plt>[0m
    cbc8:	e1a00004 	mov	r0, r4
    cbcc:	ebfff091 	bl	8e18 <strlen@plt>
--
    cce8:	e1a00005 	mov	r0, r5
    ccec:	e54361e0 	strb	r6, [r3, #-480]	; 0xfffffe20
    ccf0:	e5cd6cc7 	strb	r6, [sp, #3271]	; 0xcc7
    ccf4:	ebfff04a 	bl	8e24 <strchr@plt>
    ccf8:	e5dd3c78 	ldrb	r3, [sp, #3192]	; 0xc78
    ccfc:	e1a05000 	mov	r5, r0
    cd00:	e3530000 	cmp	r3, #0
    cd04:	1affffda 	bne	cc74 <_start@@Base+0x3e14>
    cd08:	e59d904c 	ldr	r9, [sp, #76]	; 0x4c
    cd0c:	e59d3034 	ldr	r3, [sp, #52]	; 0x34
    cd10:	e3530000 	cmp	r3, #0
    cd14:	059d503c 	ldreq	r5, [sp, #60]	; 0x3c
    cd18:	1a000032 	bne	cde8 <_start@@Base+0x3f88>
    cd1c:	e3a03c01 	mov	r3, #256	; 0x100
    cd20:	e28d2e82 	add	r2, sp, #2080	; 0x820
    cd24:	e3a01046 	mov	r1, #70	; 0x46
    cd28:	e1a00005 	mov	r0, r5
    cd2c:	ebfff02d 	bl	8de8 <wl_ioctl@plt>
    cd30:	e1a01009 	mov	r1, r9
    cd34:	e1a00004 	mov	r0, r4
[31m    cd38:	ebffefac 	bl	8bf0 <strcpy@plt>[0m
    cd3c:	e1a00004 	mov	r0, r4
    cd40:	ebfff034 	bl	8e18 <strlen@plt>
--
    ce1c:	da000006 	ble	ce3c <_start@@Base+0x3fdc>
    ce20:	e28deee5 	add	lr, sp, #3664	; 0xe50
    ce24:	e2403001 	sub	r3, r0, #1
    ce28:	e28ee008 	add	lr, lr, #8
    ce2c:	e08e3003 	add	r3, lr, r3
    ce30:	e55320bc 	ldrb	r2, [r3, #-188]	; 0xffffff44
    ce34:	e352005f 	cmp	r2, #95	; 0x5f
    ce38:	054360bc 	strbeq	r6, [r3, #-188]	; 0xffffff44
    ce3c:	e28d1edd 	add	r1, sp, #3536	; 0xdd0
    ce40:	e59d0038 	ldr	r0, [sp, #56]	; 0x38
    ce44:	e2811004 	add	r1, r1, #4
    ce48:	e3a02010 	mov	r2, #16
    ce4c:	e1a05001 	mov	r5, r1
    ce50:	ebffefb7 	bl	8d34 <nvifname_to_osifname@plt>
    ce54:	eaffffb0 	b	cd1c <_start@@Base+0x3ebc>
    ce58:	e3a03002 	mov	r3, #2
    ce5c:	e58d3e54 	str	r3, [sp, #3668]	; 0xe54
    ce60:	eaffffcf 	b	cda4 <_start@@Base+0x3f44>
    ce64:	e28d1ed5 	add	r1, sp, #3408	; 0xd50
    ce68:	e1a00004 	mov	r0, r4
[31m    ce6c:	ebffef5f 	bl	8bf0 <strcpy@plt>[0m
    ce70:	e1a00004 	mov	r0, r4
    ce74:	ebffefe7 	bl	8e18 <strlen@plt>
--
    cf64:	e35c0000 	cmp	ip, #0
    cf68:	1a000514 	bne	e3c0 <_start@@Base+0x5560>
    cf6c:	e59d306c 	ldr	r3, [sp, #108]	; 0x6c
    cf70:	e59de07c 	ldr	lr, [sp, #124]	; 0x7c
    cf74:	e35e0b06 	cmp	lr, #6144	; 0x1800
    cf78:	13a03000 	movne	r3, #0
    cf7c:	02033001 	andeq	r3, r3, #1
    cf80:	e3530000 	cmp	r3, #0
    cf84:	0a000002 	beq	cf94 <_start@@Base+0x4134>
    cf88:	e59d0040 	ldr	r0, [sp, #64]	; 0x40
    cf8c:	e3500002 	cmp	r0, #2
    cf90:	0a00050a 	beq	e3c0 <_start@@Base+0x5560>
    cf94:	e59d2064 	ldr	r2, [sp, #100]	; 0x64
    cf98:	e1a06002 	mov	r6, r2
    cf9c:	e1a00005 	mov	r0, r5
    cfa0:	e51f166c 	ldr	r1, [pc, #-1644]	; c93c <_start@@Base+0x3adc>
    cfa4:	ebffef5c 	bl	8d1c <wl_iovar_setint@plt>
    cfa8:	eafffdd1 	b	c6f4 <_start@@Base+0x3894>
    cfac:	e28d1ed5 	add	r1, sp, #3408	; 0xd50
    cfb0:	e1a00004 	mov	r0, r4
[31m    cfb4:	ebffef0d 	bl	8bf0 <strcpy@plt>[0m
    cfb8:	e1a00004 	mov	r0, r4
    cfbc:	ebffef95 	bl	8e18 <strlen@plt>
    cfc0:	e51f161c 	ldr	r1, [pc, #-1564]	; c9ac <_start@@Base+0x3b4c>
    cfc4:	e3a02006 	mov	r2, #6
    cfc8:	e0840000 	add	r0, r4, r0
    cfcc:	ebffef19 	bl	8c38 <memcpy@plt>
    cfd0:	e1a00004 	mov	r0, r4
    cfd4:	ebffef5f 	bl	8d58 <nvram_get@plt>
    cfd8:	e3500000 	cmp	r0, #0
    cfdc:	0a000003 	beq	cff0 <_start@@Base+0x4190>
    cfe0:	e51f16a8 	ldr	r1, [pc, #-1704]	; c940 <_start@@Base+0x3ae0>
    cfe4:	ebffef67 	bl	8d88 <strcmp@plt>
    cfe8:	e2503000 	subs	r3, r0, #0
    cfec:	0a0001c4 	beq	d704 <_start@@Base+0x48a4>
    cff0:	e28dbd2d 	add	fp, sp, #2880	; 0xb40
    cff4:	e3e02000 	mvn	r2, #0
    cff8:	e28bb00c 	add	fp, fp, #12
    cffc:	e51f1658 	ldr	r1, [pc, #-1624]	; c9ac <_start@@Base+0x3b4c>
    d000:	e1a00005 	mov	r0, r5
    d004:	ebffef44 	bl	8d1c <wl_iovar_setint@plt>
    d008:	e28d1ed5 	add	r1, sp, #3408	; 0xd50
    d00c:	e1a0000b 	mov	r0, fp
[31m    d010:	ebffeef6 	bl	8bf0 <strcpy@plt>[0m
    d014:	e1a0000b 	mov	r0, fp
    d018:	ebffef7e 	bl	8e18 <strlen@plt>
--
    d040:	e3500007 	cmp	r0, #7
    d044:	e58d0e54 	str	r0, [sp, #3668]	; 0xe54
    d048:	1a00081f 	bne	f0cc <_start@@Base+0x626c>
    d04c:	e1a0c000 	mov	ip, r0
    d050:	e3e02000 	mvn	r2, #0
    d054:	e3a03a02 	mov	r3, #8192	; 0x2000
    d058:	e58d2068 	str	r2, [sp, #104]	; 0x68
    d05c:	e58d307c 	str	r3, [sp, #124]	; 0x7c
    d060:	e59da040 	ldr	sl, [sp, #64]	; 0x40
    d064:	e28d2d37 	add	r2, sp, #3520	; 0xdc0
    d068:	e1a00005 	mov	r0, r5
    d06c:	e51f1730 	ldr	r1, [pc, #-1840]	; c944 <_start@@Base+0x3ae4>
    d070:	e2822004 	add	r2, r2, #4
    d074:	e3a03008 	mov	r3, #8
    d078:	e58dadc4 	str	sl, [sp, #3524]	; 0xdc4
    d07c:	e5cdcdc8 	strb	ip, [sp, #3528]	; 0xdc8
    d080:	ebffeefb 	bl	8c74 <wl_iovar_set@plt>
    d084:	eafffa01 	b	b890 <_start@@Base+0x2a30>
    d088:	e28d1ed5 	add	r1, sp, #3408	; 0xd50
    d08c:	e1a00004 	mov	r0, r4
[31m    d090:	ebffeed6 	bl	8bf0 <strcpy@plt>[0m
    d094:	e1a00004 	mov	r0, r4
    d098:	ebffef5e 	bl	8e18 <strlen@plt>
    d09c:	e3a02008 	mov	r2, #8
    d0a0:	e51f1760 	ldr	r1, [pc, #-1888]	; c948 <_start@@Base+0x3ae8>
    d0a4:	e0840000 	add	r0, r4, r0
    d0a8:	ebffeee2 	bl	8c38 <memcpy@plt>
    d0ac:	e1a00004 	mov	r0, r4
    d0b0:	ebffef28 	bl	8d58 <nvram_get@plt>
    d0b4:	e51f3700 	ldr	r3, [pc, #-1792]	; c9bc <_start@@Base+0x3b5c>
    d0b8:	e3500000 	cmp	r0, #0
    d0bc:	01a00003 	moveq	r0, r3
    d0c0:	ebffef4e 	bl	8e00 <atoi@plt>
    d0c4:	e3700001 	cmn	r0, #1
    d0c8:	03a03000 	moveq	r3, #0
    d0cc:	159d2e54 	ldrne	r2, [sp, #3668]	; 0xe54
    d0d0:	01a02003 	moveq	r2, r3
    d0d4:	058d3e54 	streq	r3, [sp, #3668]	; 0xe54
    d0d8:	eafffbe8 	b	c080 <_start@@Base+0x3220>
    d0dc:	e28d1ed5 	add	r1, sp, #3408	; 0xd50
    d0e0:	e1a00004 	mov	r0, r4
[31m    d0e4:	ebffeec1 	bl	8bf0 <strcpy@plt>[0m
    d0e8:	e1a00004 	mov	r0, r4
    d0ec:	ebffef49 	bl	8e18 <strlen@plt>
    d0f0:	e51f17ac 	ldr	r1, [pc, #-1964]	; c94c <_start@@Base+0x3aec>
    d0f4:	e3a02005 	mov	r2, #5
    d0f8:	e0840000 	add	r0, r4, r0
    d0fc:	ebffeecd 	bl	8c38 <memcpy@plt>
    d100:	e1a00004 	mov	r0, r4
    d104:	ebffef13 	bl	8d58 <nvram_get@plt>
    d108:	e2506000 	subs	r6, r0, #0
    d10c:	0a000008 	beq	d134 <_start@@Base+0x42d4>
    d110:	e51f178c 	ldr	r1, [pc, #-1932]	; c98c <_start@@Base+0x3b2c>
    d114:	ebffef1b 	bl	8d88 <strcmp@plt>
    d118:	e3500000 	cmp	r0, #0
    d11c:	0a0006ff 	beq	ed20 <_start@@Base+0x5ec0>
    d120:	e1a00006 	mov	r0, r6
    d124:	e51f179c 	ldr	r1, [pc, #-1948]	; c990 <_start@@Base+0x3b30>
    d128:	ebffef16 	bl	8d88 <strcmp@plt>
    d12c:	e2502000 	subs	r2, r0, #0
    d130:	0a0007a4 	beq	efc8 <_start@@Base+0x6168>
    d134:	e28d1ed5 	add	r1, sp, #3408	; 0xd50
    d138:	e1a00004 	mov	r0, r4
[31m    d13c:	ebffeeab 	bl	8bf0 <strcpy@plt>[0m
    d140:	e1a00004 	mov	r0, r4
    d144:	ebffef33 	bl	8e18 <strlen@plt>
--
    d180:	ebffef00 	bl	8d88 <strcmp@plt>
    d184:	e2502000 	subs	r2, r0, #0
    d188:	1afffc83 	bne	c39c <_start@@Base+0x353c>
    d18c:	e1a00005 	mov	r0, r5
    d190:	e51f1848 	ldr	r1, [pc, #-2120]	; c950 <_start@@Base+0x3af0>
    d194:	ebffeee0 	bl	8d1c <wl_iovar_setint@plt>
    d198:	eafffc7f 	b	c39c <_start@@Base+0x353c>
    d19c:	e30dc4c0 	movw	ip, #54464	; 0xd4c0
    d1a0:	e1a00005 	mov	r0, r5
    d1a4:	e340c001 	movt	ip, #1
    d1a8:	e51f185c 	ldr	r1, [pc, #-2140]	; c954 <_start@@Base+0x3af4>
    d1ac:	e59d2048 	ldr	r2, [sp, #72]	; 0x48
    d1b0:	e3a03004 	mov	r3, #4
    d1b4:	e58dce54 	str	ip, [sp, #3668]	; 0xe54
    d1b8:	ebffeead 	bl	8c74 <wl_iovar_set@plt>
    d1bc:	eafffc96 	b	c41c <_start@@Base+0x35bc>
    d1c0:	e28d1ed5 	add	r1, sp, #3408	; 0xd50
    d1c4:	e3a06000 	mov	r6, #0
    d1c8:	e1a00004 	mov	r0, r4
    d1cc:	e58d6e30 	str	r6, [sp, #3632]	; 0xe30
[31m    d1d0:	ebffee86 	bl	8bf0 <strcpy@plt>[0m
    d1d4:	e1a00004 	mov	r0, r4
    d1d8:	ebffef0e 	bl	8e18 <strlen@plt>
--
    d224:	ebffeebc 	bl	8d1c <wl_iovar_setint@plt>
    d228:	e1a00005 	mov	r0, r5
    d22c:	e3a010b3 	mov	r1, #179	; 0xb3
    d230:	e59d2060 	ldr	r2, [sp, #96]	; 0x60
    d234:	e3a03004 	mov	r3, #4
    d238:	ebffeeea 	bl	8de8 <wl_ioctl@plt>
    d23c:	eafff9f0 	b	ba04 <_start@@Base+0x2ba4>
    d240:	e28d6ee2 	add	r6, sp, #3616	; 0xe20
    d244:	e51f18ec 	ldr	r1, [pc, #-2284]	; c960 <_start@@Base+0x3b00>
    d248:	e286600c 	add	r6, r6, #12
    d24c:	e1a00005 	mov	r0, r5
    d250:	e1a02006 	mov	r2, r6
    d254:	ebffee68 	bl	8bfc <wl_iovar_getint@plt>
    d258:	e59d3e2c 	ldr	r3, [sp, #3628]	; 0xe2c
    d25c:	e3a01050 	mov	r1, #80	; 0x50
    d260:	e51f2900 	ldr	r2, [pc, #-2304]	; c968 <_start@@Base+0x3b08>
    d264:	e1a00008 	mov	r0, r8
    d268:	ebffee66 	bl	8c08 <snprintf@plt>
    d26c:	e28d1ed5 	add	r1, sp, #3408	; 0xd50
    d270:	e1a00004 	mov	r0, r4
[31m    d274:	ebffee5d 	bl	8bf0 <strcpy@plt>[0m
    d278:	e1a00004 	mov	r0, r4
    d27c:	ebffeee5 	bl	8e18 <strlen@plt>
    d280:	e3a0200b 	mov	r2, #11
    d284:	e51f192c 	ldr	r1, [pc, #-2348]	; c960 <_start@@Base+0x3b00>
    d288:	e0840000 	add	r0, r4, r0
    d28c:	ebffee69 	bl	8c38 <memcpy@plt>
    d290:	e1a01008 	mov	r1, r8
    d294:	e1a00004 	mov	r0, r4
    d298:	ebffee90 	bl	8ce0 <nvram_set@plt>
    d29c:	e28d1ed5 	add	r1, sp, #3408	; 0xd50
    d2a0:	e1a00004 	mov	r0, r4
[31m    d2a4:	ebffee51 	bl	8bf0 <strcpy@plt>[0m
    d2a8:	e1a00004 	mov	r0, r4
    d2ac:	ebffeed9 	bl	8e18 <strlen@plt>
--
    d2c8:	e51f3914 	ldr	r3, [pc, #-2324]	; c9bc <_start@@Base+0x3b5c>
    d2cc:	e3500000 	cmp	r0, #0
    d2d0:	01a00003 	moveq	r0, r3
    d2d4:	ebffeec9 	bl	8e00 <atoi@plt>
    d2d8:	e2502000 	subs	r2, r0, #0
    d2dc:	0a000681 	beq	ece8 <_start@@Base+0x5e88>
    d2e0:	e51f1984 	ldr	r1, [pc, #-2436]	; c964 <_start@@Base+0x3b04>
    d2e4:	e1a00005 	mov	r0, r5
    d2e8:	ebffee8b 	bl	8d1c <wl_iovar_setint@plt>
    d2ec:	e51f1988 	ldr	r1, [pc, #-2440]	; c96c <_start@@Base+0x3b0c>
    d2f0:	e1a02006 	mov	r2, r6
    d2f4:	e1a00005 	mov	r0, r5
    d2f8:	ebffee3f 	bl	8bfc <wl_iovar_getint@plt>
    d2fc:	e59d3e2c 	ldr	r3, [sp, #3628]	; 0xe2c
    d300:	e3a01050 	mov	r1, #80	; 0x50
    d304:	e51f29a4 	ldr	r2, [pc, #-2468]	; c968 <_start@@Base+0x3b08>
    d308:	e1a00008 	mov	r0, r8
    d30c:	ebffee3d 	bl	8c08 <snprintf@plt>
    d310:	e28d1ed5 	add	r1, sp, #3408	; 0xd50
    d314:	e1a00004 	mov	r0, r4
[31m    d318:	ebffee34 	bl	8bf0 <strcpy@plt>[0m
    d31c:	e1a00004 	mov	r0, r4
    d320:	ebffeebc 	bl	8e18 <strlen@plt>
    d324:	e3a0200b 	mov	r2, #11
    d328:	e51f19c4 	ldr	r1, [pc, #-2500]	; c96c <_start@@Base+0x3b0c>
    d32c:	e0840000 	add	r0, r4, r0
    d330:	ebffee40 	bl	8c38 <memcpy@plt>
    d334:	e1a01008 	mov	r1, r8
    d338:	e1a00004 	mov	r0, r4
    d33c:	ebffee67 	bl	8ce0 <nvram_set@plt>
    d340:	e28d1ed5 	add	r1, sp, #3408	; 0xd50
    d344:	e1a00004 	mov	r0, r4
[31m    d348:	ebffee28 	bl	8bf0 <strcpy@plt>[0m
    d34c:	e1a00004 	mov	r0, r4
    d350:	ebffeeb0 	bl	8e18 <strlen@plt>
--
    d38c:	ebffee62 	bl	8d1c <wl_iovar_setint@plt>
    d390:	eafff982 	b	b9a0 <_start@@Base+0x2b40>
    d394:	e59d1db0 	ldr	r1, [sp, #3504]	; 0xdb0
    d398:	e3510000 	cmp	r1, #0
    d39c:	0afffafd 	beq	bf98 <_start@@Base+0x3138>
    d3a0:	e28d3edb 	add	r3, sp, #3504	; 0xdb0
    d3a4:	e0831001 	add	r1, r3, r1
    d3a8:	e5d32004 	ldrb	r2, [r3, #4]
    d3ac:	e2833001 	add	r3, r3, #1
    d3b0:	e1530001 	cmp	r3, r1
    d3b4:	e1e02c82 	mvn	r2, r2, lsl #25
    d3b8:	e1e02ca2 	mvn	r2, r2, lsr #25
    d3bc:	e5c32003 	strb	r2, [r3, #3]
    d3c0:	1afffff8 	bne	d3a8 <_start@@Base+0x4548>
    d3c4:	eafffaf3 	b	bf98 <_start@@Base+0x3138>
    d3c8:	e59d2040 	ldr	r2, [sp, #64]	; 0x40
    d3cc:	e3520002 	cmp	r2, #2
    d3d0:	1afffb05 	bne	bfec <_start@@Base+0x318c>
    d3d4:	e28d1ed5 	add	r1, sp, #3408	; 0xd50
    d3d8:	e1a00004 	mov	r0, r4
[31m    d3dc:	ebffee03 	bl	8bf0 <strcpy@plt>[0m
    d3e0:	e1a00004 	mov	r0, r4
    d3e4:	ebffee8b 	bl	8e18 <strlen@plt>
--
    d440:	ebffee50 	bl	8d88 <strcmp@plt>
    d444:	e250a000 	subs	sl, r0, #0
    d448:	0a000048 	beq	d570 <_start@@Base+0x4710>
    d44c:	e1a00006 	mov	r0, r6
    d450:	e51f1ad8 	ldr	r1, [pc, #-2776]	; c980 <_start@@Base+0x3b20>
    d454:	ebffee4b 	bl	8d88 <strcmp@plt>
    d458:	e3500000 	cmp	r0, #0
    d45c:	0a000043 	beq	d570 <_start@@Base+0x4710>
    d460:	e1a00006 	mov	r0, r6
    d464:	e51f1ae8 	ldr	r1, [pc, #-2792]	; c984 <_start@@Base+0x3b24>
    d468:	ebffee46 	bl	8d88 <strcmp@plt>
    d46c:	e3500000 	cmp	r0, #0
    d470:	0a00003e 	beq	d570 <_start@@Base+0x4710>
    d474:	e3a03000 	mov	r3, #0
    d478:	e3a09001 	mov	r9, #1
    d47c:	e58d302c 	str	r3, [sp, #44]	; 0x2c
    d480:	e58d3064 	str	r3, [sp, #100]	; 0x64
    d484:	eafff437 	b	a568 <_start@@Base+0x1708>
    d488:	e28d1ed5 	add	r1, sp, #3408	; 0xd50
    d48c:	e1a00004 	mov	r0, r4
[31m    d490:	ebffedd6 	bl	8bf0 <strcpy@plt>[0m
    d494:	e1a00004 	mov	r0, r4
    d498:	ebffee5e 	bl	8e18 <strlen@plt>
--
    d4b8:	0a000010 	beq	d500 <_start@@Base+0x46a0>
    d4bc:	e51f1b3c 	ldr	r1, [pc, #-2876]	; c988 <_start@@Base+0x3b28>
    d4c0:	ebffee30 	bl	8d88 <strcmp@plt>
    d4c4:	e3500000 	cmp	r0, #0
    d4c8:	0a0006c2 	beq	efd8 <_start@@Base+0x6178>
    d4cc:	e1a00006 	mov	r0, r6
    d4d0:	e51f1b4c 	ldr	r1, [pc, #-2892]	; c98c <_start@@Base+0x3b2c>
    d4d4:	ebffee2b 	bl	8d88 <strcmp@plt>
    d4d8:	e3500000 	cmp	r0, #0
    d4dc:	0a000747 	beq	f200 <_start@@Base+0x63a0>
    d4e0:	e1a00006 	mov	r0, r6
    d4e4:	e51f1b5c 	ldr	r1, [pc, #-2908]	; c990 <_start@@Base+0x3b30>
    d4e8:	ebffee26 	bl	8d88 <strcmp@plt>
    d4ec:	e2502000 	subs	r2, r0, #0
    d4f0:	1a000002 	bne	d500 <_start@@Base+0x46a0>
    d4f4:	e1a00005 	mov	r0, r5
    d4f8:	e51f1b6c 	ldr	r1, [pc, #-2924]	; c994 <_start@@Base+0x3b34>
    d4fc:	ebffee06 	bl	8d1c <wl_iovar_setint@plt>
    d500:	e28d1ed5 	add	r1, sp, #3408	; 0xd50
    d504:	e1a00004 	mov	r0, r4
[31m    d508:	ebffedb8 	bl	8bf0 <strcpy@plt>[0m
    d50c:	e1a00004 	mov	r0, r4
    d510:	ebffee40 	bl	8e18 <strlen@plt>
--
    d5bc:	e1a00005 	mov	r0, r5
    d5c0:	e58d6e54 	str	r6, [sp, #3668]	; 0xe54
    d5c4:	ebffee07 	bl	8de8 <wl_ioctl@plt>
    d5c8:	e1a00004 	mov	r0, r4
    d5cc:	ebffede1 	bl	8d58 <nvram_get@plt>
    d5d0:	e3500000 	cmp	r0, #0
    d5d4:	0a000003 	beq	d5e8 <_start@@Base+0x4788>
    d5d8:	e51f1c44 	ldr	r1, [pc, #-3140]	; c99c <_start@@Base+0x3b3c>
    d5dc:	ebffede9 	bl	8d88 <strcmp@plt>
    d5e0:	e3500000 	cmp	r0, #0
    d5e4:	0a000639 	beq	eed0 <_start@@Base+0x6070>
    d5e8:	e3a03002 	mov	r3, #2
    d5ec:	e58d3e54 	str	r3, [sp, #3668]	; 0xe54
    d5f0:	e3a03004 	mov	r3, #4
    d5f4:	e59d2048 	ldr	r2, [sp, #72]	; 0x48
    d5f8:	e3a010f4 	mov	r1, #244	; 0xf4
    d5fc:	e1a00005 	mov	r0, r5
    d600:	ebffedf8 	bl	8de8 <wl_ioctl@plt>
    d604:	e28d1ed5 	add	r1, sp, #3408	; 0xd50
    d608:	e1a00004 	mov	r0, r4
[31m    d60c:	ebffed77 	bl	8bf0 <strcpy@plt>[0m
    d610:	e1a00004 	mov	r0, r4
    d614:	ebffedff 	bl	8e18 <strlen@plt>
    d618:	e51f1c80 	ldr	r1, [pc, #-3200]	; c9a0 <_start@@Base+0x3b40>
    d61c:	e3a0200b 	mov	r2, #11
    d620:	e0840000 	add	r0, r4, r0
    d624:	ebffed83 	bl	8c38 <memcpy@plt>
    d628:	e1a00004 	mov	r0, r4
    d62c:	ebffedc9 	bl	8d58 <nvram_get@plt>
    d630:	e3500000 	cmp	r0, #0
    d634:	0a000006 	beq	d654 <_start@@Base+0x47f4>
    d638:	ebffedf0 	bl	8e00 <atoi@plt>
    d63c:	e1a03000 	mov	r3, r0
    d640:	e51f1ca8 	ldr	r1, [pc, #-3240]	; c9a0 <_start@@Base+0x3b40>
    d644:	e1a00005 	mov	r0, r5
    d648:	e1a02003 	mov	r2, r3
    d64c:	e58d3e54 	str	r3, [sp, #3668]	; 0xe54
    d650:	ebffedb1 	bl	8d1c <wl_iovar_setint@plt>
    d654:	e28d1ed5 	add	r1, sp, #3408	; 0xd50
    d658:	e1a00004 	mov	r0, r4
[31m    d65c:	ebffed63 	bl	8bf0 <strcpy@plt>[0m
    d660:	e1a00004 	mov	r0, r4
    d664:	ebffedeb 	bl	8e18 <strlen@plt>
    d668:	e51f1ccc 	ldr	r1, [pc, #-3276]	; c9a4 <_start@@Base+0x3b44>
    d66c:	e3a0200c 	mov	r2, #12
    d670:	e0840000 	add	r0, r4, r0
    d674:	ebffed6f 	bl	8c38 <memcpy@plt>
    d678:	e1a00004 	mov	r0, r4
    d67c:	ebffedb5 	bl	8d58 <nvram_get@plt>
    d680:	e3500000 	cmp	r0, #0
    d684:	0a000006 	beq	d6a4 <_start@@Base+0x4844>
    d688:	ebffeddc 	bl	8e00 <atoi@plt>
    d68c:	e1a03000 	mov	r3, r0
    d690:	e51f1cf4 	ldr	r1, [pc, #-3316]	; c9a4 <_start@@Base+0x3b44>
    d694:	e1a00005 	mov	r0, r5
    d698:	e1a02003 	mov	r2, r3
    d69c:	e58d3e54 	str	r3, [sp, #3668]	; 0xe54
    d6a0:	ebffed9d 	bl	8d1c <wl_iovar_setint@plt>
    d6a4:	e28d1ed5 	add	r1, sp, #3408	; 0xd50
    d6a8:	e1a00004 	mov	r0, r4
[31m    d6ac:	ebffed4f 	bl	8bf0 <strcpy@plt>[0m
    d6b0:	e3a0c001 	mov	ip, #1
    d6b4:	e1a00004 	mov	r0, r4
--
    d7e0:	e28dcc0e 	add	ip, sp, #3584	; 0xe00
    d7e4:	e28daea2 	add	sl, sp, #2592	; 0xa20
    d7e8:	e58d3afc 	str	r3, [sp, #2812]	; 0xafc
    d7ec:	e28cc00c 	add	ip, ip, #12
    d7f0:	e8be000f 	ldm	lr!, {r0, r1, r2, r3}
    d7f4:	e28aa008 	add	sl, sl, #8
    d7f8:	e24aa008 	sub	sl, sl, #8
    d7fc:	e58dcb00 	str	ip, [sp, #2816]	; 0xb00
    d800:	e59dc00c 	ldr	ip, [sp, #12]
    d804:	e8ac000f 	stmia	ip!, {r0, r1, r2, r3}
    d808:	e28d2ee2 	add	r2, sp, #3616	; 0xe20
    d80c:	e89e0003 	ldm	lr, {r0, r1}
    d810:	e3a03004 	mov	r3, #4
    d814:	e282200c 	add	r2, r2, #12
    d818:	e88c0003 	stm	ip, {r0, r1}
    d81c:	e3a01027 	mov	r1, #39	; 0x27
    d820:	e1a00005 	mov	r0, r5
    d824:	ebffed6f 	bl	8de8 <wl_ioctl@plt>
    d828:	e28d1ed5 	add	r1, sp, #3408	; 0xd50
    d82c:	e1a0000a 	mov	r0, sl
[31m    d830:	ebffecee 	bl	8bf0 <strcpy@plt>[0m
    d834:	e1a0000a 	mov	r0, sl
    d838:	ebffed76 	bl	8e18 <strlen@plt>
--
    d84c:	e1a0000a 	mov	r0, sl
    d850:	ebffed40 	bl	8d58 <nvram_get@plt>
    d854:	e3500000 	cmp	r0, #0
    d858:	01a00006 	moveq	r0, r6
    d85c:	ebffed67 	bl	8e00 <atoi@plt>
    d860:	e58d8090 	str	r8, [sp, #144]	; 0x90
    d864:	e1a08005 	mov	r8, r5
    d868:	e2700001 	rsbs	r0, r0, #1
    d86c:	33a00000 	movcc	r0, #0
    d870:	e58d708c 	str	r7, [sp, #140]	; 0x8c
    d874:	e58d0034 	str	r0, [sp, #52]	; 0x34
    d878:	e58db094 	str	fp, [sp, #148]	; 0x94
    d87c:	e3a02c02 	mov	r2, #512	; 0x200
    d880:	e3a01000 	mov	r1, #0
    d884:	e28d0098 	add	r0, sp, #152	; 0x98
    d888:	e28d6ed7 	add	r6, sp, #3440	; 0xd70
    d88c:	ebffed34 	bl	8d64 <memset@plt>
    d890:	e59dc058 	ldr	ip, [sp, #88]	; 0x58
    d894:	e28d0098 	add	r0, sp, #152	; 0x98
    d898:	e7b6100c 	ldr	r1, [r6, ip]!
[31m    d89c:	ebffecd3 	bl	8bf0 <strcpy@plt>[0m
    d8a0:	e59de080 	ldr	lr, [sp, #128]	; 0x80
    d8a4:	e28d0098 	add	r0, sp, #152	; 0x98
--
    d8d0:	e58d1070 	str	r1, [sp, #112]	; 0x70
    d8d4:	e58d6028 	str	r6, [sp, #40]	; 0x28
    d8d8:	e59d6080 	ldr	r6, [sp, #128]	; 0x80
    d8dc:	e5b6c004 	ldr	ip, [r6, #4]!
    d8e0:	e28d2edd 	add	r2, sp, #3536	; 0xdd0
    d8e4:	e59de028 	ldr	lr, [sp, #40]	; 0x28
    d8e8:	e3a01064 	mov	r1, #100	; 0x64
    d8ec:	e2822004 	add	r2, r2, #4
    d8f0:	e28d3ed5 	add	r3, sp, #3408	; 0xd50
    d8f4:	e1a0000a 	mov	r0, sl
    d8f8:	e58dc004 	str	ip, [sp, #4]
    d8fc:	e58de000 	str	lr, [sp]
    d900:	ebffecc0 	bl	8c08 <snprintf@plt>
    d904:	e1a0000a 	mov	r0, sl
    d908:	ebffed12 	bl	8d58 <nvram_get@plt>
    d90c:	e3011120 	movw	r1, #4384	; 0x1120
    d910:	e3500000 	cmp	r0, #0
    d914:	e3401001 	movt	r1, #1
    d918:	11a01000 	movne	r1, r0
    d91c:	e1a0000a 	mov	r0, sl
[31m    d920:	ebffecb2 	bl	8bf0 <strcpy@plt>[0m
    d924:	e59d103c 	ldr	r1, [sp, #60]	; 0x3c
    d928:	e2410004 	sub	r0, r1, #4
--
    da80:	e28d2098 	add	r2, sp, #152	; 0x98
    da84:	e1a00008 	mov	r0, r8
    da88:	e3a03c02 	mov	r3, #512	; 0x200
    da8c:	e5c5c000 	strb	ip, [r5]
    da90:	ebffecd4 	bl	8de8 <wl_ioctl@plt>
    da94:	e3570004 	cmp	r7, #4
    da98:	1affff8f 	bne	d8dc <_start@@Base+0x4a7c>
    da9c:	e59d2058 	ldr	r2, [sp, #88]	; 0x58
    daa0:	e2822008 	add	r2, r2, #8
    daa4:	e3520010 	cmp	r2, #16
    daa8:	e58d2058 	str	r2, [sp, #88]	; 0x58
    daac:	1affff72 	bne	d87c <_start@@Base+0x4a1c>
    dab0:	e28d1ed5 	add	r1, sp, #3408	; 0xd50
    dab4:	e1a0000a 	mov	r0, sl
    dab8:	e1a05008 	mov	r5, r8
    dabc:	e59d708c 	ldr	r7, [sp, #140]	; 0x8c
    dac0:	e59d8090 	ldr	r8, [sp, #144]	; 0x90
    dac4:	e28d6ee2 	add	r6, sp, #3616	; 0xe20
    dac8:	e59db094 	ldr	fp, [sp, #148]	; 0x94
    dacc:	e28d9ed9 	add	r9, sp, #3472	; 0xd90
[31m    dad0:	ebffec46 	bl	8bf0 <strcpy@plt>[0m
    dad4:	e1a0000a 	mov	r0, sl
    dad8:	e2899008 	add	r9, r9, #8
    dadc:	ebffeccd 	bl	8e18 <strlen@plt>
    dae0:	e3a0200b 	mov	r2, #11
    dae4:	e59f1d30 	ldr	r1, [pc, #3376]	; e81c <_start@@Base+0x59bc>
    dae8:	e08a0000 	add	r0, sl, r0
    daec:	ebffec51 	bl	8c38 <memcpy@plt>
    daf0:	e1a0000a 	mov	r0, sl
    daf4:	ebffec97 	bl	8d58 <nvram_get@plt>
    daf8:	e3013120 	movw	r3, #4384	; 0x1120
    dafc:	e3500000 	cmp	r0, #0
    db00:	e3403001 	movt	r3, #1
    db04:	e59f1d0c 	ldr	r1, [pc, #3340]	; e818 <_start@@Base+0x59b8>
    db08:	01a00003 	moveq	r0, r3
    db0c:	ebffec9d 	bl	8d88 <strcmp@plt>
    db10:	e59f1d08 	ldr	r1, [pc, #3336]	; e820 <_start@@Base+0x59c0>
    db14:	e2702001 	rsbs	r2, r0, #1
    db18:	33a02000 	movcc	r2, #0
    db1c:	e1a00005 	mov	r0, r5
    db20:	ebffec7d 	bl	8d1c <wl_iovar_setint@plt>
    db24:	e28d1ed5 	add	r1, sp, #3408	; 0xd50
    db28:	e1a0000a 	mov	r0, sl
[31m    db2c:	ebffec2f 	bl	8bf0 <strcpy@plt>[0m
    db30:	e1a0000a 	mov	r0, sl
    db34:	ebffecb7 	bl	8e18 <strlen@plt>
--
    dc08:	e58d2a84 	str	r2, [sp, #2692]	; 0xa84
    dc0c:	e58d2a88 	str	r2, [sp, #2696]	; 0xa88
    dc10:	e5812000 	str	r2, [r1]
    dc14:	e5b6c004 	ldr	ip, [r6, #4]!
    dc18:	e28d2edd 	add	r2, sp, #3536	; 0xdd0
    dc1c:	e59de034 	ldr	lr, [sp, #52]	; 0x34
    dc20:	e3a01064 	mov	r1, #100	; 0x64
    dc24:	e2822004 	add	r2, r2, #4
    dc28:	e28d3ed5 	add	r3, sp, #3408	; 0xd50
    dc2c:	e1a0000a 	mov	r0, sl
    dc30:	e58dc004 	str	ip, [sp, #4]
    dc34:	e58de000 	str	lr, [sp]
    dc38:	ebffebf2 	bl	8c08 <snprintf@plt>
    dc3c:	e1a0000a 	mov	r0, sl
    dc40:	ebffec44 	bl	8d58 <nvram_get@plt>
    dc44:	e3011120 	movw	r1, #4384	; 0x1120
    dc48:	e3500000 	cmp	r0, #0
    dc4c:	e3401001 	movt	r1, #1
    dc50:	11a01000 	movne	r1, r0
    dc54:	e1a0000a 	mov	r0, sl
[31m    dc58:	ebffebe4 	bl	8bf0 <strcpy@plt>[0m
    dc5c:	e28d0d36 	add	r0, sp, #3456	; 0xd80
    dc60:	e1a0100a 	mov	r1, sl
--
    dd10:	e1c300b4 	strh	r0, [r3, #4]
    dd14:	1affffbe 	bne	dc14 <_start@@Base+0x4db4>
    dd18:	e1a0c005 	mov	ip, r5
    dd1c:	e28d2d2a 	add	r2, sp, #2688	; 0xa80
    dd20:	e1a05007 	mov	r5, r7
    dd24:	e59d1d80 	ldr	r1, [sp, #3456]	; 0xd80
    dd28:	e1a00005 	mov	r0, r5
    dd2c:	e2822004 	add	r2, r2, #4
    dd30:	e1a0300c 	mov	r3, ip
    dd34:	e59d7058 	ldr	r7, [sp, #88]	; 0x58
    dd38:	ebffebcd 	bl	8c74 <wl_iovar_set@plt>
    dd3c:	eafff814 	b	bd94 <_start@@Base+0x2f34>
    dd40:	e59d0e04 	ldr	r0, [sp, #3588]	; 0xe04
    dd44:	ebffec2d 	bl	8e00 <atoi@plt>
    dd48:	eaffff3a 	b	da38 <_start@@Base+0x4bd8>
    dd4c:	e28daea2 	add	sl, sp, #2592	; 0xa20
    dd50:	e28d1ed5 	add	r1, sp, #3408	; 0xd50
    dd54:	e28aa008 	add	sl, sl, #8
    dd58:	e24aa008 	sub	sl, sl, #8
    dd5c:	e1a0000a 	mov	r0, sl
[31m    dd60:	ebffeba2 	bl	8bf0 <strcpy@plt>[0m
    dd64:	e1a0000a 	mov	r0, sl
    dd68:	ebffec2a 	bl	8e18 <strlen@plt>
--
    dd70:	e3a0200d 	mov	r2, #13
    dd74:	e08a0000 	add	r0, sl, r0
    dd78:	ebffebae 	bl	8c38 <memcpy@plt>
    dd7c:	e1a0000a 	mov	r0, sl
    dd80:	ebffebf4 	bl	8d58 <nvram_get@plt>
    dd84:	e3500000 	cmp	r0, #0
    dd88:	0a00000a 	beq	ddb8 <_start@@Base+0x4f58>
    dd8c:	ebffec1b 	bl	8e00 <atoi@plt>
    dd90:	e2506000 	subs	r6, r0, #0
    dd94:	0a000426 	beq	ee34 <_start@@Base+0x5fd4>
    dd98:	e59f1b28 	ldr	r1, [pc, #2856]	; e8c8 <_start@@Base+0x5a68>
    dd9c:	e3a02001 	mov	r2, #1
    dda0:	e1a00005 	mov	r0, r5
    dda4:	ebffebdc 	bl	8d1c <wl_iovar_setint@plt>
    dda8:	e1a00005 	mov	r0, r5
    ddac:	e59f1b10 	ldr	r1, [pc, #2832]	; e8c4 <_start@@Base+0x5a64>
    ddb0:	e3a02001 	mov	r2, #1
    ddb4:	ebffebd8 	bl	8d1c <wl_iovar_setint@plt>
    ddb8:	e28d1ed5 	add	r1, sp, #3408	; 0xd50
    ddbc:	e1a0000a 	mov	r0, sl
[31m    ddc0:	ebffeb8a 	bl	8bf0 <strcpy@plt>[0m
    ddc4:	e1a0000a 	mov	r0, sl
    ddc8:	ebffec12 	bl	8e18 <strlen@plt>
--
    dee8:	e59de014 	ldr	lr, [sp, #20]
    deec:	e3a09000 	mov	r9, #0
    def0:	e58d8080 	str	r8, [sp, #128]	; 0x80
    def4:	e1a08005 	mov	r8, r5
    def8:	e8930003 	ldm	r3, {r0, r1}
    defc:	e2833008 	add	r3, r3, #8
    df00:	e28cc00c 	add	ip, ip, #12
    df04:	e28aa008 	add	sl, sl, #8
    df08:	e58da03c 	str	sl, [sp, #60]	; 0x3c
    df0c:	e88e0003 	stm	lr, {r0, r1}
    df10:	e8930003 	ldm	r3, {r0, r1}
    df14:	e58dc038 	str	ip, [sp, #56]	; 0x38
    df18:	e58d7070 	str	r7, [sp, #112]	; 0x70
    df1c:	e88c0003 	stm	ip, {r0, r1}
    df20:	e28d0edd 	add	r0, sp, #3536	; 0xdd0
    df24:	e28d1ed5 	add	r1, sp, #3408	; 0xd50
    df28:	e2800004 	add	r0, r0, #4
    df2c:	e7905009 	ldr	r5, [r0, r9]
    df30:	e28d0d2a 	add	r0, sp, #2688	; 0xa80
    df34:	e2800004 	add	r0, r0, #4
[31m    df38:	ebffeb2c 	bl	8bf0 <strcpy@plt>[0m
    df3c:	e28d0d2a 	add	r0, sp, #2688	; 0xa80
    df40:	e1a01005 	mov	r1, r5
    df44:	e2800004 	add	r0, r0, #4
    df48:	ebffeb5b 	bl	8cbc <strcat@plt>
    df4c:	e28d0d2a 	add	r0, sp, #2688	; 0xa80
    df50:	e2800004 	add	r0, r0, #4
    df54:	ebffeb7f 	bl	8d58 <nvram_get@plt>
    df58:	e2506000 	subs	r6, r0, #0
    df5c:	0a0004bc 	beq	f254 <_start@@Base+0x63f4>
    df60:	ebffebac 	bl	8e18 <strlen@plt>
    df64:	e1a01006 	mov	r1, r6
    df68:	e1a05000 	mov	r5, r0
    df6c:	e59d003c 	ldr	r0, [sp, #60]	; 0x3c
[31m    df70:	ebffeb1e 	bl	8bf0 <strcpy@plt>[0m
    df74:	e3550000 	cmp	r5, #0
    df78:	ba000023 	blt	e00c <_start@@Base+0x51ac>
--
    e378:	e15a000c 	cmp	sl, ip
    e37c:	1affffeb 	bne	e330 <_start@@Base+0x54d0>
    e380:	e1a00009 	mov	r0, r9
    e384:	e1a05007 	mov	r5, r7
    e388:	e1a07003 	mov	r7, r3
    e38c:	ebffeaa1 	bl	8e18 <strlen@plt>
    e390:	e28d1d37 	add	r1, sp, #3520	; 0xdc0
    e394:	e2800001 	add	r0, r0, #1
    e398:	e2811004 	add	r1, r1, #4
    e39c:	e3a02005 	mov	r2, #5
    e3a0:	e0890000 	add	r0, r9, r0
    e3a4:	ebffea23 	bl	8c38 <memcpy@plt>
    e3a8:	e1a00005 	mov	r0, r5
    e3ac:	e3001107 	movw	r1, #263	; 0x107
    e3b0:	e1a02009 	mov	r2, r9
    e3b4:	e3a03c01 	mov	r3, #256	; 0x100
    e3b8:	ebffea8a 	bl	8de8 <wl_ioctl@plt>
    e3bc:	eafff86d 	b	c578 <_start@@Base+0x3718>
    e3c0:	e28d1ed5 	add	r1, sp, #3408	; 0xd50
    e3c4:	e1a00004 	mov	r0, r4
[31m    e3c8:	ebffea08 	bl	8bf0 <strcpy@plt>[0m
    e3cc:	e1a00004 	mov	r0, r4
    e3d0:	ebffea90 	bl	8e18 <strlen@plt>
    e3d4:	e3a0200a 	mov	r2, #10
    e3d8:	e59f1484 	ldr	r1, [pc, #1156]	; e864 <_start@@Base+0x5a04>
    e3dc:	e0840000 	add	r0, r4, r0
    e3e0:	ebffea14 	bl	8c38 <memcpy@plt>
    e3e4:	e1a00004 	mov	r0, r4
    e3e8:	ebffea5a 	bl	8d58 <nvram_get@plt>
    e3ec:	e59f34dc 	ldr	r3, [pc, #1244]	; e8d0 <_start@@Base+0x5a70>
    e3f0:	e3500000 	cmp	r0, #0
    e3f4:	01a00003 	moveq	r0, r3
    e3f8:	ebffea80 	bl	8e00 <atoi@plt>
    e3fc:	e6ef6070 	uxtb	r6, r0
    e400:	e1a02006 	mov	r2, r6
    e404:	eafffae4 	b	cf9c <_start@@Base+0x413c>
    e408:	e28d1ed5 	add	r1, sp, #3408	; 0xd50
    e40c:	e1a0000b 	mov	r0, fp
[31m    e410:	ebffe9f6 	bl	8bf0 <strcpy@plt>[0m
    e414:	e1a0000b 	mov	r0, fp
    e418:	ebffea7e 	bl	8e18 <strlen@plt>
--
    e4fc:	e5d30004 	ldrb	r0, [r3, #4]
    e500:	e28d1ee5 	add	r1, sp, #3664	; 0xe50
    e504:	e2811008 	add	r1, r1, #8
    e508:	e2833001 	add	r3, r3, #1
    e50c:	e081c002 	add	ip, r1, r2
    e510:	e200107f 	and	r1, r0, #127	; 0x7f
    e514:	e3510002 	cmp	r1, #2
    e518:	13510004 	cmpne	r1, #4
    e51c:	12822001 	addne	r2, r2, #1
    e520:	154c00a4 	strbne	r0, [ip, #-164]	; 0xffffff5c
    e524:	e153000e 	cmp	r3, lr
    e528:	1afffff3 	bne	e4fc <_start@@Base+0x569c>
    e52c:	e58d2db0 	str	r2, [sp, #3504]	; 0xdb0
    e530:	eafff69c 	b	bfa8 <_start@@Base+0x3148>
    e534:	e1a00005 	mov	r0, r5
    e538:	e59f1338 	ldr	r1, [pc, #824]	; e878 <_start@@Base+0x5a18>
    e53c:	ebffe9f6 	bl	8d1c <wl_iovar_setint@plt>
    e540:	eafff0e3 	b	a8d4 <_start@@Base+0x1a74>
    e544:	e28d1ed5 	add	r1, sp, #3408	; 0xd50
    e548:	e1a00004 	mov	r0, r4
[31m    e54c:	ebffe9a7 	bl	8bf0 <strcpy@plt>[0m
    e550:	e1a00004 	mov	r0, r4
    e554:	ebffea2f 	bl	8e18 <strlen@plt>
--
    e55c:	e59f13cc 	ldr	r1, [pc, #972]	; e930 <_start@@Base+0x5ad0>
    e560:	e0840000 	add	r0, r4, r0
    e564:	ebffe9b3 	bl	8c38 <memcpy@plt>
    e568:	e1a00004 	mov	r0, r4
    e56c:	ebffe9f9 	bl	8d58 <nvram_get@plt>
    e570:	e59f3358 	ldr	r3, [pc, #856]	; e8d0 <_start@@Base+0x5a70>
    e574:	e3500000 	cmp	r0, #0
    e578:	01a00003 	moveq	r0, r3
    e57c:	ebffea1f 	bl	8e00 <atoi@plt>
    e580:	e3500000 	cmp	r0, #0
    e584:	e1a02000 	mov	r2, r0
    e588:	e58d0e54 	str	r0, [sp, #3668]	; 0xe54
    e58c:	e58d0e34 	str	r0, [sp, #3636]	; 0xe34
    e590:	da000342 	ble	f2a0 <_start@@Base+0x6440>
    e594:	e1a00005 	mov	r0, r5
    e598:	e59f1390 	ldr	r1, [pc, #912]	; e930 <_start@@Base+0x5ad0>
    e59c:	ebffe9de 	bl	8d1c <wl_iovar_setint@plt>
    e5a0:	eafff0c7 	b	a8c4 <_start@@Base+0x1a64>
    e5a4:	e28d1ed5 	add	r1, sp, #3408	; 0xd50
    e5a8:	e1a00004 	mov	r0, r4
[31m    e5ac:	ebffe98f 	bl	8bf0 <strcpy@plt>[0m
    e5b0:	e1a00004 	mov	r0, r4
    e5b4:	ebffea17 	bl	8e18 <strlen@plt>
    e5b8:	e59f12bc 	ldr	r1, [pc, #700]	; e87c <_start@@Base+0x5a1c>
    e5bc:	e3a02011 	mov	r2, #17
    e5c0:	e0840000 	add	r0, r4, r0
    e5c4:	ebffe99b 	bl	8c38 <memcpy@plt>
    e5c8:	e1a00004 	mov	r0, r4
    e5cc:	ebffe9e1 	bl	8d58 <nvram_get@plt>
    e5d0:	e3500000 	cmp	r0, #0
    e5d4:	0a000004 	beq	e5ec <_start@@Base+0x578c>
    e5d8:	ebffea08 	bl	8e00 <atoi@plt>
    e5dc:	e59f1298 	ldr	r1, [pc, #664]	; e87c <_start@@Base+0x5a1c>
    e5e0:	e1a02000 	mov	r2, r0
    e5e4:	e1a00005 	mov	r0, r5
    e5e8:	ebffe9cb 	bl	8d1c <wl_iovar_setint@plt>
    e5ec:	e28d1ed5 	add	r1, sp, #3408	; 0xd50
    e5f0:	e1a00004 	mov	r0, r4
[31m    e5f4:	ebffe97d 	bl	8bf0 <strcpy@plt>[0m
    e5f8:	e1a00004 	mov	r0, r4
    e5fc:	ebffea05 	bl	8e18 <strlen@plt>
--
    e668:	e59d2068 	ldr	r2, [sp, #104]	; 0x68
    e66c:	ebffe9aa 	bl	8d1c <wl_iovar_setint@plt>
    e670:	eafff5c4 	b	bd88 <_start@@Base+0x2f28>
    e674:	e3a03000 	mov	r3, #0
    e678:	e59f1204 	ldr	r1, [pc, #516]	; e884 <_start@@Base+0x5a24>
    e67c:	e1a02003 	mov	r2, r3
    e680:	e1a00005 	mov	r0, r5
    e684:	e58d3e54 	str	r3, [sp, #3668]	; 0xe54
    e688:	ebffe9a3 	bl	8d1c <wl_iovar_setint@plt>
    e68c:	e59d2e54 	ldr	r2, [sp, #3668]	; 0xe54
    e690:	e1a00005 	mov	r0, r5
    e694:	e59f11ec 	ldr	r1, [pc, #492]	; e888 <_start@@Base+0x5a28>
    e698:	ebffe99f 	bl	8d1c <wl_iovar_setint@plt>
    e69c:	e59d3e54 	ldr	r3, [sp, #3668]	; 0xe54
    e6a0:	e28d0e82 	add	r0, sp, #2080	; 0x820
    e6a4:	e59f22a8 	ldr	r2, [pc, #680]	; e954 <_start@@Base+0x5af4>
    e6a8:	e3a01c01 	mov	r1, #256	; 0x100
    e6ac:	ebffe955 	bl	8c08 <snprintf@plt>
    e6b0:	e28d1ed5 	add	r1, sp, #3408	; 0xd50
    e6b4:	e1a00004 	mov	r0, r4
[31m    e6b8:	ebffe94c 	bl	8bf0 <strcpy@plt>[0m
    e6bc:	e1a00004 	mov	r0, r4
    e6c0:	ebffe9d4 	bl	8e18 <strlen@plt>
--
    e704:	e3a02001 	mov	r2, #1
    e708:	ebffe983 	bl	8d1c <wl_iovar_setint@plt>
    e70c:	eafff738 	b	c3f4 <_start@@Base+0x3594>
    e710:	e3a03000 	mov	r3, #0
    e714:	e59f1174 	ldr	r1, [pc, #372]	; e890 <_start@@Base+0x5a30>
    e718:	e1a02003 	mov	r2, r3
    e71c:	e1a00005 	mov	r0, r5
    e720:	e58d3e54 	str	r3, [sp, #3668]	; 0xe54
    e724:	ebffe97c 	bl	8d1c <wl_iovar_setint@plt>
    e728:	e59d2e54 	ldr	r2, [sp, #3668]	; 0xe54
    e72c:	e1a00005 	mov	r0, r5
    e730:	e59f115c 	ldr	r1, [pc, #348]	; e894 <_start@@Base+0x5a34>
    e734:	ebffe978 	bl	8d1c <wl_iovar_setint@plt>
    e738:	e59d3e54 	ldr	r3, [sp, #3668]	; 0xe54
    e73c:	e28d0e82 	add	r0, sp, #2080	; 0x820
    e740:	e59f220c 	ldr	r2, [pc, #524]	; e954 <_start@@Base+0x5af4>
    e744:	e3a01c01 	mov	r1, #256	; 0x100
    e748:	ebffe92e 	bl	8c08 <snprintf@plt>
    e74c:	e28d1ed5 	add	r1, sp, #3408	; 0xd50
    e750:	e1a00004 	mov	r0, r4
[31m    e754:	ebffe925 	bl	8bf0 <strcpy@plt>[0m
    e758:	e1a00004 	mov	r0, r4
    e75c:	ebffe9ad 	bl	8e18 <strlen@plt>
    e760:	e59f1130 	ldr	r1, [pc, #304]	; e898 <_start@@Base+0x5a38>
    e764:	e0840000 	add	r0, r4, r0
    e768:	e3a02006 	mov	r2, #6
    e76c:	ebffe931 	bl	8c38 <memcpy@plt>
    e770:	e1a00004 	mov	r0, r4
    e774:	e28d1e82 	add	r1, sp, #2080	; 0x820
    e778:	ebffe958 	bl	8ce0 <nvram_set@plt>
    e77c:	eafff673 	b	c150 <_start@@Base+0x32f0>
    e780:	e3520002 	cmp	r2, #2
    e784:	13520004 	cmpne	r2, #4
    e788:	03a0300b 	moveq	r3, #11
    e78c:	01a02003 	moveq	r2, r3
    e790:	058d3e54 	streq	r3, [sp, #3668]	; 0xe54
    e794:	eafff662 	b	c124 <_start@@Base+0x32c4>
    e798:	e28d1ed5 	add	r1, sp, #3408	; 0xd50
    e79c:	e1a00004 	mov	r0, r4
[31m    e7a0:	ebffe912 	bl	8bf0 <strcpy@plt>[0m
    e7a4:	e1a00004 	mov	r0, r4
    e7a8:	ebffe99a 	bl	8e18 <strlen@plt>
--
    e9a0:	e58d3a88 	str	r3, [sp, #2696]	; 0xa88
    e9a4:	e28d3ee1 	add	r3, sp, #3600	; 0xe10
    e9a8:	e2833004 	add	r3, r3, #4
    e9ac:	e58d3a8c 	str	r3, [sp, #2700]	; 0xa8c
    e9b0:	e28d3ee1 	add	r3, sp, #3600	; 0xe10
    e9b4:	e58d3a90 	str	r3, [sp, #2704]	; 0xa90
    e9b8:	e28d3c0e 	add	r3, sp, #3584	; 0xe00
    e9bc:	e283300c 	add	r3, r3, #12
    e9c0:	e58d3a94 	str	r3, [sp, #2708]	; 0xa94
    e9c4:	e28d3c0e 	add	r3, sp, #3584	; 0xe00
    e9c8:	e2833008 	add	r3, r3, #8
    e9cc:	e58d3a98 	str	r3, [sp, #2712]	; 0xa98
    e9d0:	e28d3c0e 	add	r3, sp, #3584	; 0xe00
    e9d4:	e2833004 	add	r3, r3, #4
    e9d8:	e58d3a9c 	str	r3, [sp, #2716]	; 0xa9c
    e9dc:	e28d3c0e 	add	r3, sp, #3584	; 0xe00
    e9e0:	e58d3aa0 	str	r3, [sp, #2720]	; 0xaa0
    e9e4:	e28d3edf 	add	r3, sp, #3568	; 0xdf0
    e9e8:	e283300c 	add	r3, r3, #12
    e9ec:	e58d3aa4 	str	r3, [sp, #2724]	; 0xaa4
[31m    e9f0:	ebffe87e 	bl	8bf0 <strcpy@plt>[0m
    e9f4:	e28d0e92 	add	r0, sp, #2336	; 0x920
    e9f8:	ebffe906 	bl	8e18 <strlen@plt>
--
    ec68:	ebffe7f2 	bl	8c38 <memcpy@plt>
    ec6c:	e1a00005 	mov	r0, r5
    ec70:	e3001107 	movw	r1, #263	; 0x107
    ec74:	e1a02009 	mov	r2, r9
    ec78:	e3a03c01 	mov	r3, #256	; 0x100
    ec7c:	ebffe859 	bl	8de8 <wl_ioctl@plt>
    ec80:	eafff63f 	b	c584 <_start@@Base+0x3724>
    ec84:	e1a09003 	mov	r9, r3
    ec88:	e58d3028 	str	r3, [sp, #40]	; 0x28
    ec8c:	e58d3040 	str	r3, [sp, #64]	; 0x40
    ec90:	e58d3044 	str	r3, [sp, #68]	; 0x44
    ec94:	e58d303c 	str	r3, [sp, #60]	; 0x3c
    ec98:	eaffec34 	b	9d70 <_start@@Base+0xf10>
    ec9c:	e1a00005 	mov	r0, r5
    eca0:	e51f1404 	ldr	r1, [pc, #-1028]	; e8a4 <_start@@Base+0x5a44>
    eca4:	e3e02000 	mvn	r2, #0
    eca8:	ebffe81b 	bl	8d1c <wl_iovar_setint@plt>
    ecac:	eafff5ba 	b	c39c <_start@@Base+0x353c>
    ecb0:	e28d1ed5 	add	r1, sp, #3408	; 0xd50
    ecb4:	e1a00004 	mov	r0, r4
[31m    ecb8:	ebffe7cc 	bl	8bf0 <strcpy@plt>[0m
    ecbc:	e1a00004 	mov	r0, r4
    ecc0:	ebffe854 	bl	8e18 <strlen@plt>
    ecc4:	e3a02008 	mov	r2, #8
    ecc8:	e51f1428 	ldr	r1, [pc, #-1064]	; e8a8 <_start@@Base+0x5a48>
    eccc:	e0840000 	add	r0, r4, r0
    ecd0:	ebffe7d8 	bl	8c38 <memcpy@plt>
    ecd4:	e1a00004 	mov	r0, r4
    ecd8:	e1a01008 	mov	r1, r8
    ecdc:	ebffe7ff 	bl	8ce0 <nvram_set@plt>
    ece0:	e59d2e2c 	ldr	r2, [sp, #3628]	; 0xe2c
    ece4:	eafff9a6 	b	d384 <_start@@Base+0x4524>
    ece8:	e28d1ed5 	add	r1, sp, #3408	; 0xd50
    ecec:	e1a00004 	mov	r0, r4
[31m    ecf0:	ebffe7be 	bl	8bf0 <strcpy@plt>[0m
    ecf4:	e1a00004 	mov	r0, r4
    ecf8:	ebffe846 	bl	8e18 <strlen@plt>
--
    ee9c:	e1e01c81 	mvn	r1, r1, lsl #25
    eea0:	e3520002 	cmp	r2, #2
    eea4:	13520004 	cmpne	r2, #4
    eea8:	15c32003 	strbne	r2, [r3, #3]
    eeac:	e1e01ca1 	mvn	r1, r1, lsr #25
    eeb0:	05c31003 	strbeq	r1, [r3, #3]
    eeb4:	e1530000 	cmp	r3, r0
    eeb8:	1afffff4 	bne	ee90 <_start@@Base+0x6030>
    eebc:	eafff435 	b	bf98 <_start@@Base+0x3138>
    eec0:	e1a00002 	mov	r0, r2
    eec4:	eb000735 	bl	10ba0 <_start@@Base+0x7d40>
    eec8:	e1a0a000 	mov	sl, r0
    eecc:	eafff618 	b	c734 <_start@@Base+0x38d4>
    eed0:	e58d6e54 	str	r6, [sp, #3668]	; 0xe54
    eed4:	eafff9c5 	b	d5f0 <_start@@Base+0x4790>
    eed8:	e3a03000 	mov	r3, #0
    eedc:	e28d1ed5 	add	r1, sp, #3408	; 0xd50
    eee0:	e1a00004 	mov	r0, r4
    eee4:	e58d3e2c 	str	r3, [sp, #3628]	; 0xe2c
    eee8:	e58d3e30 	str	r3, [sp, #3632]	; 0xe30
[31m    eeec:	ebffe73f 	bl	8bf0 <strcpy@plt>[0m
    eef0:	e1a00004 	mov	r0, r4
    eef4:	ebffe7c7 	bl	8e18 <strlen@plt>
    eef8:	e51f1634 	ldr	r1, [pc, #-1588]	; e8cc <_start@@Base+0x5a6c>
    eefc:	e3a02006 	mov	r2, #6
    ef00:	e0840000 	add	r0, r4, r0
    ef04:	ebffe74b 	bl	8c38 <memcpy@plt>
    ef08:	e1a00004 	mov	r0, r4
    ef0c:	ebffe791 	bl	8d58 <nvram_get@plt>
    ef10:	e51f3648 	ldr	r3, [pc, #-1608]	; e8d0 <_start@@Base+0x5a70>
    ef14:	e3500000 	cmp	r0, #0
    ef18:	01a00003 	moveq	r0, r3
    ef1c:	ebffe7b7 	bl	8e00 <atoi@plt>
    ef20:	e28d2ee5 	add	r2, sp, #3664	; 0xe50
    ef24:	e3a03004 	mov	r3, #4
    ef28:	e2822008 	add	r2, r2, #8
    ef2c:	e3a0106e 	mov	r1, #110	; 0x6e
    ef30:	e5220010 	str	r0, [r2, #-16]!
    ef34:	e1a00005 	mov	r0, r5
    ef38:	ebffe7aa 	bl	8de8 <wl_ioctl@plt>
    ef3c:	e28d1ed5 	add	r1, sp, #3408	; 0xd50
    ef40:	e1a00004 	mov	r0, r4
[31m    ef44:	ebffe729 	bl	8bf0 <strcpy@plt>[0m
    ef48:	e1a00004 	mov	r0, r4
    ef4c:	ebffe7b1 	bl	8e18 <strlen@plt>
--
   10300:	ebffe2a0 	bl	8d88 <strcmp@plt>
   10304:	e3500000 	cmp	r0, #0
   10308:	1affffe1 	bne	10294 <_start@@Base+0x7434>
   1030c:	e5944004 	ldr	r4, [r4, #4]
   10310:	e28d1094 	add	r1, sp, #148	; 0x94
   10314:	e28d2090 	add	r2, sp, #144	; 0x90
   10318:	e1a00004 	mov	r0, r4
   1031c:	ebffe2b4 	bl	8df4 <get_ifname_unit@plt>
   10320:	e3500000 	cmp	r0, #0
   10324:	13e00000 	mvnne	r0, #0
   10328:	1affffe0 	bne	102b0 <_start@@Base+0x7450>
   1032c:	e28d6070 	add	r6, sp, #112	; 0x70
   10330:	e59d3094 	ldr	r3, [sp, #148]	; 0x94
   10334:	e59f20dc 	ldr	r2, [pc, #220]	; 10418 <_start@@Base+0x75b8>
   10338:	e28d500c 	add	r5, sp, #12
   1033c:	e3a01020 	mov	r1, #32
   10340:	e1a00006 	mov	r0, r6
   10344:	ebffe22f 	bl	8c08 <snprintf@plt>
   10348:	e1a01006 	mov	r1, r6
   1034c:	e1a00005 	mov	r0, r5
[31m   10350:	ebffe226 	bl	8bf0 <strcpy@plt>[0m
   10354:	e1a00005 	mov	r0, r5
   10358:	ebffe2ae 	bl	8e18 <strlen@plt>

[0m
[[0;33m*[0m] Function [0;33mstrcpy[0m used [0;33m134[0m times [0;33mwlconf[0m

