[[0;33m*[0m] Binary protection state of [0;33mntpclient.svn-base[0m
[REF] s12

  	RELRO          CANARY            NX           PIE       RPATH        RUNPATH      SYMBOLS      
  	[31mNo RELRO[0m       [31mNo Canary found[0m   [32mNX enabled[0m   [31mNo PIE[0m       [32mNo RPATH[0m     [32mNo RUNPATH[0m   [32mNo Symbols[0m

[0m
[[0;33m*[0m] Function [0;33mprintf[0m tear down of [0;33mntpclient.svn-base[0m

    8ec8:	e0623623 	rsb	r3, r2, r3, lsr #12
    8ecc:	e58d3054 	str	r3, [sp, #84]	; 0x54
    8ed0:	e28d0050 	add	r0, sp, #80	; 0x50
    8ed4:	e3a01000 	mov	r1, #0
    8ed8:	ebfffe79 	bl	88c4 <settimeofday@plt>
    8edc:	e3500000 	cmp	r0, #0
    8ee0:	aa000003 	bge	8ef4 <_start+0x4e0>
    8ee4:	e59f03b4 	ldr	r0, [pc, #948]	; 92a0 <_start+0x88c>
    8ee8:	ebfffe6c 	bl	88a0 <perror@plt>
    8eec:	e3a00001 	mov	r0, #1
    8ef0:	ebfffeaf 	bl	89b4 <exit@plt>
    8ef4:	e30431b0 	movw	r3, #16816	; 0x41b0
    8ef8:	e3403001 	movt	r3, #1
    8efc:	e5933000 	ldr	r3, [r3]
    8f00:	e3530000 	cmp	r3, #0
    8f04:	0a00005b 	beq	9078 <_start+0x664>
    8f08:	e30b0898 	movw	r0, #47256	; 0xb898
    8f0c:	e3400000 	movt	r0, #0
    8f10:	e59d1050 	ldr	r1, [sp, #80]	; 0x50
    8f14:	e59d2054 	ldr	r2, [sp, #84]	; 0x54
[31m    8f18:	ebfffe54 	bl	8870 <printf@plt>[0m
    8f1c:	e30431b0 	movw	r3, #16816	; 0x41b0
    8f20:	e3403001 	movt	r3, #1
    8f24:	e5933000 	ldr	r3, [r3]
    8f28:	e3530000 	cmp	r3, #0
    8f2c:	0a000051 	beq	9078 <_start+0x664>
    8f30:	e1a03c27 	lsr	r3, r7, #24
    8f34:	e1833c07 	orr	r3, r3, r7, lsl #24
    8f38:	e20728ff 	and	r2, r7, #16711680	; 0xff0000
    8f3c:	e1833422 	orr	r3, r3, r2, lsr #8
    8f40:	e2077cff 	and	r7, r7, #65280	; 0xff00
    8f44:	e1837407 	orr	r7, r3, r7, lsl #8
    8f48:	e7e73855 	ubfx	r3, r5, #16, #8
    8f4c:	e58d3000 	str	r3, [sp]
    8f50:	e7e73455 	ubfx	r3, r5, #8, #8
    8f54:	e98d0048 	stmib	sp, {r3, r6}
    8f58:	e30b08b0 	movw	r0, #47280	; 0xb8b0
    8f5c:	e3400000 	movt	r0, #0
    8f60:	e1a01f25 	lsr	r1, r5, #30
    8f64:	e7e22dd5 	ubfx	r2, r5, #27, #3
    8f68:	e7e23c55 	ubfx	r3, r5, #24, #3
[31m    8f6c:	ebfffe3f 	bl	8870 <printf@plt>[0m
    8f70:	e30b58ec 	movw	r5, #47340	; 0xb8ec
    8f74:	e3405000 	movt	r5, #0
--
    8f9c:	e344302e 	movt	r3, #16430	; 0x402e
    8fa0:	eb000804 	bl	afb8 <_start+0x25a4>
    8fa4:	e1cd02f8 	strd	r0, [sp, #40]	; 0x28
    8fa8:	e59d0044 	ldr	r0, [sp, #68]	; 0x44
    8fac:	eb0007ca 	bl	aedc <_start+0x24c8>
    8fb0:	e3a02000 	mov	r2, #0
    8fb4:	e3083480 	movw	r3, #33920	; 0x8480
    8fb8:	e344302e 	movt	r3, #16430	; 0x402e
    8fbc:	eb0007fd 	bl	afb8 <_start+0x25a4>
    8fc0:	e1cd00f0 	strd	r0, [sp]
    8fc4:	e1a03c27 	lsr	r3, r7, #24
    8fc8:	e58d3008 	str	r3, [sp, #8]
    8fcc:	e7e73857 	ubfx	r3, r7, #16, #8
    8fd0:	e58d300c 	str	r3, [sp, #12]
    8fd4:	e7e73457 	ubfx	r3, r7, #8, #8
    8fd8:	e58d3010 	str	r3, [sp, #16]
    8fdc:	e20770ff 	and	r7, r7, #255	; 0xff
    8fe0:	e58d7014 	str	r7, [sp, #20]
    8fe4:	e1a00005 	mov	r0, r5
    8fe8:	e1cd22d8 	ldrd	r2, [sp, #40]	; 0x28
[31m    8fec:	ebfffe1f 	bl	8870 <printf@plt>[0m
    8ff0:	e1a01c2a 	lsr	r1, sl, #24
    8ff4:	e1811c0a 	orr	r1, r1, sl, lsl #24
    8ff8:	e20a38ff 	and	r3, sl, #16711680	; 0xff0000
    8ffc:	e1811423 	orr	r1, r1, r3, lsr #8
    9000:	e20aacff 	and	sl, sl, #65280	; 0xff00
    9004:	e1a03c29 	lsr	r3, r9, #24
    9008:	e1833c09 	orr	r3, r3, r9, lsl #24
    900c:	e20928ff 	and	r2, r9, #16711680	; 0xff0000
    9010:	e1833422 	orr	r3, r3, r2, lsr #8
    9014:	e2092cff 	and	r2, r9, #65280	; 0xff00
    9018:	e30b091c 	movw	r0, #47388	; 0xb91c
    901c:	e3400000 	movt	r0, #0
    9020:	e181140a 	orr	r1, r1, sl, lsl #8
    9024:	e1832402 	orr	r2, r3, r2, lsl #8
[31m    9028:	ebfffe10 	bl	8870 <printf@plt>[0m
    902c:	e30b0930 	movw	r0, #47408	; 0xb930
    9030:	e3400000 	movt	r0, #0
    9034:	e59d1068 	ldr	r1, [sp, #104]	; 0x68
    9038:	e59d206c 	ldr	r2, [sp, #108]	; 0x6c
[31m    903c:	ebfffe0b 	bl	8870 <printf@plt>[0m
    9040:	e30b0944 	movw	r0, #47428	; 0xb944
    9044:	e3400000 	movt	r0, #0
    9048:	e59d1060 	ldr	r1, [sp, #96]	; 0x60
    904c:	e59d2064 	ldr	r2, [sp, #100]	; 0x64
[31m    9050:	ebfffe06 	bl	8870 <printf@plt>[0m
    9054:	e30b0958 	movw	r0, #47448	; 0xb958
    9058:	e3400000 	movt	r0, #0
    905c:	e59d1058 	ldr	r1, [sp, #88]	; 0x58
    9060:	e59d205c 	ldr	r2, [sp, #92]	; 0x5c
[31m    9064:	ebfffe01 	bl	8870 <printf@plt>[0m
    9068:	e30b096c 	movw	r0, #47468	; 0xb96c
    906c:	e3400000 	movt	r0, #0
    9070:	e8940006 	ldm	r4, {r1, r2}
[31m    9074:	ebfffdfd 	bl	8870 <printf@plt>[0m
    9078:	e28d5068 	add	r5, sp, #104	; 0x68
    907c:	e1a00005 	mov	r0, r5
--
    90c0:	ebffff09 	bl	8cec <_start+0x2d8>
    90c4:	e1cd03f8 	strd	r0, [sp, #56]	; 0x38
    90c8:	ebfffe86 	bl	8ae8 <_start+0xd4>
    90cc:	e1a06000 	mov	r6, r0
    90d0:	e30431b0 	movw	r3, #16816	; 0x41b0
    90d4:	e3403001 	movt	r3, #1
    90d8:	e5933000 	ldr	r3, [r3]
    90dc:	e3530000 	cmp	r3, #0
    90e0:	0a000044 	beq	91f8 <_start+0x7e4>
    90e4:	e30b5980 	movw	r5, #47488	; 0xb980
    90e8:	e3405000 	movt	r5, #0
    90ec:	e1cd22d8 	ldrd	r2, [sp, #40]	; 0x28
    90f0:	e1cd20f0 	strd	r2, [sp]
    90f4:	e1a0000a 	mov	r0, sl
    90f8:	e1a0100b 	mov	r1, fp
    90fc:	eb0006c1 	bl	ac08 <_start+0x21f4>
    9100:	e1cd00f8 	strd	r0, [sp, #8]
    9104:	e1a00005 	mov	r0, r5
    9108:	e1a0200a 	mov	r2, sl
    910c:	e1a0300b 	mov	r3, fp
[31m    9110:	ebfffdd6 	bl	8870 <printf@plt>[0m
    9114:	e1cd03d0 	ldrd	r0, [sp, #48]	; 0x30
    9118:	e1cd23d8 	ldrd	r2, [sp, #56]	; 0x38
    911c:	eb0006b9 	bl	ac08 <_start+0x21f4>
    9120:	e3a02000 	mov	r2, #0
    9124:	e3a03000 	mov	r3, #0
    9128:	e3433fe0 	movt	r3, #16352	; 0x3fe0
    912c:	eb0007a1 	bl	afb8 <_start+0x25a4>
    9130:	e1cd04f8 	strd	r0, [sp, #72]	; 0x48
    9134:	e58d6000 	str	r6, [sp]
    9138:	e30b09c0 	movw	r0, #47552	; 0xb9c0
    913c:	e3400000 	movt	r0, #0
    9140:	e1cd24d8 	ldrd	r2, [sp, #72]	; 0x48
[31m    9144:	ebfffdc9 	bl	8870 <printf@plt>[0m
    9148:	e30431b0 	movw	r3, #16816	; 0x41b0
    914c:	e3403001 	movt	r3, #1
--
    9194:	e3475d00 	movt	r5, #32000	; 0x7d00
    9198:	e0852395 	umull	r2, r5, r5, r3
    919c:	e1a05aa5 	lsr	r5, r5, #21
    91a0:	e1cda0f0 	strd	sl, [sp]
    91a4:	e1cd22d8 	ldrd	r2, [sp, #40]	; 0x28
    91a8:	e1cd20f8 	strd	r2, [sp, #8]
    91ac:	e1cd24d8 	ldrd	r2, [sp, #72]	; 0x48
    91b0:	e1cd21f0 	strd	r2, [sp, #16]
    91b4:	e59d0044 	ldr	r0, [sp, #68]	; 0x44
    91b8:	eb000747 	bl	aedc <_start+0x24c8>
    91bc:	e3a02000 	mov	r2, #0
    91c0:	e3083480 	movw	r3, #33920	; 0x8480
    91c4:	e344302e 	movt	r3, #16430	; 0x402e
    91c8:	eb00077a 	bl	afb8 <_start+0x25a4>
    91cc:	e1cd01f8 	strd	r0, [sp, #24]
    91d0:	e58d6020 	str	r6, [sp, #32]
    91d4:	e1a00007 	mov	r0, r7
    91d8:	e1a01008 	mov	r1, r8
    91dc:	e1a02009 	mov	r2, r9
    91e0:	e1a03005 	mov	r3, r5
[31m    91e4:	ebfffda1 	bl	8870 <printf@plt>[0m
    91e8:	e3043180 	movw	r3, #16768	; 0x4180
    91ec:	e3403001 	movt	r3, #1
--
    92c4:	e3073e80 	movw	r3, #32384	; 0x7e80
    92c8:	e34833aa 	movt	r3, #33706	; 0x83aa
    92cc:	e59d2008 	ldr	r2, [sp, #8]
    92d0:	e0823003 	add	r3, r2, r3
    92d4:	e58d3000 	str	r3, [sp]
    92d8:	e59d300c 	ldr	r3, [sp, #12]
    92dc:	e30027bd 	movw	r2, #1981	; 0x7bd
    92e0:	e0020392 	mul	r2, r2, r3
    92e4:	e30110c6 	movw	r1, #4294	; 0x10c6
    92e8:	e0030391 	mul	r3, r1, r3
    92ec:	e08335c2 	add	r3, r3, r2, asr #11
    92f0:	e58d3004 	str	r3, [sp, #4]
    92f4:	e30431b0 	movw	r3, #16816	; 0x41b0
    92f8:	e3403001 	movt	r3, #1
    92fc:	e5933000 	ldr	r3, [r3]
    9300:	e3530000 	cmp	r3, #0
    9304:	0a000015 	beq	9360 <_start+0x94c>
    9308:	e30b0a54 	movw	r0, #47700	; 0xba54
    930c:	e3400000 	movt	r0, #0
    9310:	e1a01006 	mov	r1, r6
[31m    9314:	ebfffd55 	bl	8870 <printf@plt>[0m
    9318:	e1d510b0 	ldrh	r1, [r5]
    931c:	e3510002 	cmp	r1, #2
    9320:	1a00000b 	bne	9354 <_start+0x940>
    9324:	e1d530b2 	ldrh	r3, [r5, #2]
    9328:	e1a06403 	lsl	r6, r3, #8
    932c:	e1866423 	orr	r6, r6, r3, lsr #8
    9330:	e6ff6076 	uxth	r6, r6
    9334:	e5950004 	ldr	r0, [r5, #4]
    9338:	ebfffd8e 	bl	8978 <inet_ntoa@plt>
    933c:	e1a02000 	mov	r2, r0
    9340:	e30b0a74 	movw	r0, #47732	; 0xba74
    9344:	e3400000 	movt	r0, #0
    9348:	e1a01006 	mov	r1, r6
[31m    934c:	ebfffd47 	bl	8870 <printf@plt>[0m
    9350:	ea000002 	b	9360 <_start+0x94c>
    9354:	e30b0a94 	movw	r0, #47764	; 0xba94
    9358:	e3400000 	movt	r0, #0
[31m    935c:	ebfffd43 	bl	8870 <printf@plt>[0m
    9360:	e1a00004 	mov	r0, r4
    9364:	e1a0100d 	mov	r1, sp
--
    9640:	e2501000 	subs	r1, r0, #0
    9644:	aa000002 	bge	9654 <_start+0xc40>
    9648:	e59f0094 	ldr	r0, [pc, #148]	; 96e4 <_start+0xcd0>
    964c:	ebfffc93 	bl	88a0 <perror@plt>
    9650:	ea000013 	b	96a4 <_start+0xc90>
    9654:	e2412001 	sub	r2, r1, #1
    9658:	e30035da 	movw	r3, #1498	; 0x5da
    965c:	e1520003 	cmp	r2, r3
    9660:	8a000008 	bhi	9688 <_start+0xc74>
    9664:	e1a02001 	mov	r2, r1
    9668:	e59d3014 	ldr	r3, [sp, #20]
    966c:	e58d3000 	str	r3, [sp]
    9670:	e1a00008 	mov	r0, r8
    9674:	e59f1064 	ldr	r1, [pc, #100]	; 96e0 <_start+0xccc>
    9678:	e28d3018 	add	r3, sp, #24
    967c:	ebffff08 	bl	92a4 <_start+0x890>
    9680:	e3a00000 	mov	r0, #0
    9684:	ea000010 	b	96cc <_start+0xcb8>
    9688:	e30b0b10 	movw	r0, #47888	; 0xbb10
    968c:	e3400000 	movt	r0, #0
[31m    9690:	ebfffc76 	bl	8870 <printf@plt>[0m
    9694:	e3043180 	movw	r3, #16768	; 0x4180
    9698:	e3403001 	movt	r3, #1
--
    9794:	e59d0048 	ldr	r0, [sp, #72]	; 0x48
    9798:	eb000818 	bl	b800 <_start+0x2dec>
    979c:	e0840000 	add	r0, r4, r0
    97a0:	e3a04c3e 	mov	r4, #15872	; 0x3e00
    97a4:	e34b42a6 	movt	r4, #45734	; 0xb2a6
    97a8:	e0804004 	add	r4, r0, r4
    97ac:	e59d0044 	ldr	r0, [sp, #68]	; 0x44
    97b0:	e59d103c 	ldr	r1, [sp, #60]	; 0x3c
    97b4:	eb000780 	bl	b5bc <_start+0x2ba8>
    97b8:	eb0005d1 	bl	af04 <_start+0x24f0>
    97bc:	e1cd01f8 	strd	r0, [sp, #24]
    97c0:	e5963000 	ldr	r3, [r6]
    97c4:	e3530000 	cmp	r3, #0
    97c8:	0a000006 	beq	97e8 <_start+0xdd4>
    97cc:	e1cd00f0 	strd	r0, [sp]
    97d0:	e59d304c 	ldr	r3, [sp, #76]	; 0x4c
    97d4:	e58d3008 	str	r3, [sp, #8]
    97d8:	e59d002c 	ldr	r0, [sp, #44]	; 0x2c
    97dc:	e1a01004 	mov	r1, r4
    97e0:	e1cd23d0 	ldrd	r2, [sp, #48]	; 0x30
[31m    97e4:	ebfffc21 	bl	8870 <printf@plt>[0m
    97e8:	e3570000 	cmp	r7, #0
    97ec:	059d504c 	ldreq	r5, [sp, #76]	; 0x4c
--
    981c:	eb0005e5 	bl	afb8 <_start+0x25a4>
    9820:	e3a02000 	mov	r2, #0
    9824:	e3a03000 	mov	r3, #0
    9828:	e3433ef0 	movt	r3, #16112	; 0x3ef0
    982c:	eb0005e1 	bl	afb8 <_start+0x25a4>
    9830:	e1a02000 	mov	r2, r0
    9834:	e1a03001 	mov	r3, r1
    9838:	e1a00008 	mov	r0, r8
    983c:	e1a01009 	mov	r1, r9
    9840:	eb0004f1 	bl	ac0c <_start+0x21f8>
    9844:	e1a08000 	mov	r8, r0
    9848:	e1a09001 	mov	r9, r1
    984c:	e5963000 	ldr	r3, [r6]
    9850:	e3530000 	cmp	r3, #0
    9854:	0a000005 	beq	9870 <_start+0xe5c>
    9858:	e58d5000 	str	r5, [sp]
    985c:	e30b0b60 	movw	r0, #47968	; 0xbb60
    9860:	e3400000 	movt	r0, #0
    9864:	e1a02008 	mov	r2, r8
    9868:	e1a03001 	mov	r3, r1
[31m    986c:	ebfffbff 	bl	8870 <printf@plt>[0m
    9870:	e1a00008 	mov	r0, r8
    9874:	e1a01009 	mov	r1, r9
--
    9a8c:	e30431b0 	movw	r3, #16816	; 0x41b0
    9a90:	e3403001 	movt	r3, #1
    9a94:	e5932000 	ldr	r2, [r3]
    9a98:	e3520000 	cmp	r2, #0
    9a9c:	0a00000f 	beq	9ae0 <_start+0x10cc>
    9aa0:	e59d3014 	ldr	r3, [sp, #20]
    9aa4:	e58d3000 	str	r3, [sp]
    9aa8:	e30431b0 	movw	r3, #16816	; 0x41b0
    9aac:	e3403001 	movt	r3, #1
    9ab0:	e5931008 	ldr	r1, [r3, #8]
    9ab4:	e58d1004 	str	r1, [sp, #4]
    9ab8:	e59d0018 	ldr	r0, [sp, #24]
    9abc:	e6bf1070 	sxth	r1, r0
    9ac0:	e58d1008 	str	r1, [sp, #8]
    9ac4:	e5933004 	ldr	r3, [r3, #4]
    9ac8:	e58d300c 	str	r3, [sp, #12]
    9acc:	e30b0be4 	movw	r0, #48100	; 0xbbe4
    9ad0:	e3400000 	movt	r0, #0
    9ad4:	e1a0100a 	mov	r1, sl
    9ad8:	e59d3010 	ldr	r3, [sp, #16]
[31m    9adc:	ebfffb63 	bl	8870 <printf@plt>[0m
    9ae0:	e30b5c80 	movw	r5, #48256	; 0xbc80
    9ae4:	e3405000 	movt	r5, #0
--
    9ff8:	eb000302 	bl	ac08 <_start+0x21f4>
    9ffc:	e1a0a000 	mov	sl, r0
    a000:	e1a0b001 	mov	fp, r1
    a004:	e1a02004 	mov	r2, r4
    a008:	e1a03005 	mov	r3, r5
    a00c:	eb00053c 	bl	b504 <_start+0x2af0>
    a010:	e3500000 	cmp	r0, #0
    a014:	11a0400a 	movne	r4, sl
    a018:	11a0500b 	movne	r5, fp
    a01c:	e30431b0 	movw	r3, #16816	; 0x41b0
    a020:	e3403001 	movt	r3, #1
    a024:	e5933000 	ldr	r3, [r3]
    a028:	e3530000 	cmp	r3, #0
    a02c:	0a000006 	beq	a04c <_start+0x1638>
    a030:	e1cd60f0 	strd	r6, [sp]
    a034:	e1cd40f8 	strd	r4, [sp, #8]
    a038:	e30b0c8c 	movw	r0, #48268	; 0xbc8c
    a03c:	e3400000 	movt	r0, #0
    a040:	e1a02008 	mov	r2, r8
    a044:	e1a03009 	mov	r3, r9
[31m    a048:	ebfffa08 	bl	8870 <printf@plt>[0m
    a04c:	e1a00004 	mov	r0, r4
    a050:	e1a01005 	mov	r1, r5
--
    a060:	e3500000 	cmp	r0, #0
    a064:	13a04000 	movne	r4, #0
    a068:	13a05000 	movne	r5, #0
    a06c:	e1a00004 	mov	r0, r4
    a070:	e1a01005 	mov	r1, r5
    a074:	e28dd014 	add	sp, sp, #20
    a078:	e8bd8ff0 	pop	{r4, r5, r6, r7, r8, r9, sl, fp, pc}
    a07c:	e92d40f0 	push	{r4, r5, r6, r7, lr}
    a080:	e24dd00c 	sub	sp, sp, #12
    a084:	e1a04000 	mov	r4, r0
    a088:	e30431b0 	movw	r3, #16816	; 0x41b0
    a08c:	e3403001 	movt	r3, #1
    a090:	e5933000 	ldr	r3, [r3]
    a094:	e3530000 	cmp	r3, #0
    a098:	0a000005 	beq	a0b4 <_start+0x16a0>
    a09c:	e1c020d0 	ldrd	r2, [r0]
    a0a0:	e1c000d8 	ldrd	r0, [r0, #8]
    a0a4:	e1cd00f0 	strd	r0, [sp]
    a0a8:	e30b0ca4 	movw	r0, #48292	; 0xbca4
    a0ac:	e3400000 	movt	r0, #0
[31m    a0b0:	ebfff9ee 	bl	8870 <printf@plt>[0m
    a0b4:	e8940009 	ldm	r4, {r0, r3}
    a0b8:	e2831102 	add	r1, r3, #-2147483648	; 0x80000000
--
    a11c:	e1a02004 	mov	r2, r4
    a120:	e1a03005 	mov	r3, r5
    a124:	eb000505 	bl	b540 <_start+0x2b2c>
    a128:	e3500000 	cmp	r0, #0
    a12c:	13043bb8 	movwne	r3, #19384	; 0x4bb8
    a130:	13403001 	movtne	r3, #1
    a134:	11c340f8 	strdne	r4, [r3, #8]
    a138:	e30431b0 	movw	r3, #16816	; 0x41b0
    a13c:	e3403001 	movt	r3, #1
    a140:	e5933000 	ldr	r3, [r3]
    a144:	e3530000 	cmp	r3, #0
    a148:	0a000016 	beq	a1a8 <_start+0x1794>
    a14c:	e3043bb8 	movw	r3, #19384	; 0x4bb8
    a150:	e3403001 	movt	r3, #1
    a154:	e1c320d0 	ldrd	r2, [r3]
    a158:	e1cd20f0 	strd	r2, [sp]
    a15c:	e30b0cb0 	movw	r0, #48304	; 0xbcb0
    a160:	e3400000 	movt	r0, #0
    a164:	e1a02006 	mov	r2, r6
    a168:	e1a03007 	mov	r3, r7
[31m    a16c:	ebfff9bf 	bl	8870 <printf@plt>[0m
    a170:	e30431b0 	movw	r3, #16816	; 0x41b0
    a174:	e3403001 	movt	r3, #1
    a178:	e5933000 	ldr	r3, [r3]
    a17c:	e3530000 	cmp	r3, #0
    a180:	0a000008 	beq	a1a8 <_start+0x1794>
    a184:	e3043bb8 	movw	r3, #19384	; 0x4bb8
    a188:	e3403001 	movt	r3, #1
    a18c:	e1c320d8 	ldrd	r2, [r3, #8]
    a190:	e1cd20f0 	strd	r2, [sp]
    a194:	e30b0ccc 	movw	r0, #48332	; 0xbccc
    a198:	e3400000 	movt	r0, #0
    a19c:	e1a02004 	mov	r2, r4
    a1a0:	e1a03005 	mov	r3, r5
[31m    a1a4:	ebfff9b1 	bl	8870 <printf@plt>[0m
    a1a8:	e28dd00c 	add	sp, sp, #12
    a1ac:	e8bd80f0 	pop	{r4, r5, r6, r7, pc}
--
    a288:	e1a00004 	mov	r0, r4
    a28c:	e1a01005 	mov	r1, r5
    a290:	eb00025d 	bl	ac0c <_start+0x21f8>
    a294:	e1a02000 	mov	r2, r0
    a298:	e1a03001 	mov	r3, r1
    a29c:	e3a00000 	mov	r0, #0
    a2a0:	e3a01000 	mov	r1, #0
    a2a4:	e344104e 	movt	r1, #16462	; 0x404e
    a2a8:	eb0003dd 	bl	b224 <_start+0x2810>
    a2ac:	e1a04000 	mov	r4, r0
    a2b0:	e1a05001 	mov	r5, r1
    a2b4:	e30431b0 	movw	r3, #16816	; 0x41b0
    a2b8:	e3403001 	movt	r3, #1
    a2bc:	e5933000 	ldr	r3, [r3]
    a2c0:	e3530000 	cmp	r3, #0
    a2c4:	0a000004 	beq	a2dc <_start+0x18c8>
    a2c8:	e1cd40f0 	strd	r4, [sp]
    a2cc:	e30b0ce8 	movw	r0, #48360	; 0xbce8
    a2d0:	e3400000 	movt	r0, #0
    a2d4:	e1cd20d8 	ldrd	r2, [sp, #8]
[31m    a2d8:	ebfff964 	bl	8870 <printf@plt>[0m
    a2dc:	e1a00004 	mov	r0, r4
    a2e0:	e1a01005 	mov	r1, r5
--
    a2f4:	e92d4ff0 	push	{r4, r5, r6, r7, r8, r9, sl, fp, lr}
    a2f8:	e24dd084 	sub	sp, sp, #132	; 0x84
    a2fc:	e58d0028 	str	r0, [sp, #40]	; 0x28
    a300:	e1a06002 	mov	r6, r2
    a304:	e1a07003 	mov	r7, r3
    a308:	e1cd8ad8 	ldrd	r8, [sp, #168]	; 0xa8
    a30c:	e3a03000 	mov	r3, #0
    a310:	e58d307c 	str	r3, [sp, #124]	; 0x7c
    a314:	e30431b0 	movw	r3, #16816	; 0x41b0
    a318:	e3403001 	movt	r3, #1
    a31c:	e5933000 	ldr	r3, [r3]
    a320:	e3530000 	cmp	r3, #0
    a324:	0a000007 	beq	a348 <_start+0x1934>
    a328:	e1cd80f0 	strd	r8, [sp]
    a32c:	e59d10b0 	ldr	r1, [sp, #176]	; 0xb0
    a330:	e58d1008 	str	r1, [sp, #8]
    a334:	e30b0d00 	movw	r0, #48384	; 0xbd00
    a338:	e3400000 	movt	r0, #0
    a33c:	e59d1028 	ldr	r1, [sp, #40]	; 0x28
    a340:	e1a03007 	mov	r3, r7
[31m    a344:	ebfff949 	bl	8870 <printf@plt>[0m
    a348:	e30441bc 	movw	r4, #16828	; 0x41bc
    a34c:	e3404001 	movt	r4, #1
--
    a440:	e1c400d8 	ldrd	r0, [r4, #8]
    a444:	e1a02008 	mov	r2, r8
    a448:	e1a03009 	mov	r3, r9
    a44c:	eb0001ed 	bl	ac08 <_start+0x21f4>
    a450:	e1c421d0 	ldrd	r2, [r4, #16]
    a454:	eb0001eb 	bl	ac08 <_start+0x21f4>
    a458:	e1c402f0 	strd	r0, [r4, #32]
    a45c:	e59a3000 	ldr	r3, [sl]
    a460:	e3530000 	cmp	r3, #0
    a464:	0a00000a 	beq	a494 <_start+0x1a80>
    a468:	e0853085 	add	r3, r5, r5, lsl #1
    a46c:	e7962203 	ldr	r2, [r6, r3, lsl #4]
    a470:	e1cd80f0 	strd	r8, [sp]
    a474:	e1cd00f8 	strd	r0, [sp, #8]
    a478:	e1c402d8 	ldrd	r0, [r4, #40]	; 0x28
    a47c:	e1cd01f0 	strd	r0, [sp, #16]
    a480:	e59d0034 	ldr	r0, [sp, #52]	; 0x34
    a484:	e1a01005 	mov	r1, r5
    a488:	e59d3028 	ldr	r3, [sp, #40]	; 0x28
    a48c:	e0632002 	rsb	r2, r3, r2
[31m    a490:	ebfff8f6 	bl	8870 <printf@plt>[0m
    a494:	e1a00005 	mov	r0, r5
    a498:	ebfffe1a 	bl	9d08 <_start+0x12f4>
--
    a614:	e1cd02d0 	ldrd	r0, [sp, #32]
    a618:	e1cd25d8 	ldrd	r2, [sp, #88]	; 0x58
    a61c:	eb0003b8 	bl	b504 <_start+0x2af0>
    a620:	e3500000 	cmp	r0, #0
    a624:	0a000004 	beq	a63c <_start+0x1c28>
    a628:	e28dc058 	add	ip, sp, #88	; 0x58
    a62c:	e59de01c 	ldr	lr, [sp, #28]
    a630:	e89e000f 	ldm	lr, {r0, r1, r2, r3}
    a634:	e88c000f 	stm	ip, {r0, r1, r2, r3}
    a638:	e58d9034 	str	r9, [sp, #52]	; 0x34
    a63c:	e30411b0 	movw	r1, #16816	; 0x41b0
    a640:	e3401001 	movt	r1, #1
    a644:	e5913000 	ldr	r3, [r1]
    a648:	e3530000 	cmp	r3, #0
    a64c:	0a000005 	beq	a668 <_start+0x1c54>
    a650:	e1c521d0 	ldrd	r2, [r5, #16]
    a654:	e1c501d8 	ldrd	r0, [r5, #24]
    a658:	e1cd00f0 	strd	r0, [sp]
    a65c:	e59d0038 	ldr	r0, [sp, #56]	; 0x38
    a660:	e1a0100b 	mov	r1, fp
[31m    a664:	ebfff881 	bl	8870 <printf@plt>[0m
    a668:	e1c521d0 	ldrd	r2, [r5, #16]
    a66c:	e1cd22f8 	strd	r2, [sp, #40]	; 0x28
--
    a678:	e5973000 	ldr	r3, [r7]
    a67c:	e15a0003 	cmp	sl, r3
    a680:	1affffbd 	bne	a57c <_start+0x1b68>
    a684:	e59d3034 	ldr	r3, [sp, #52]	; 0x34
    a688:	e58d3044 	str	r3, [sp, #68]	; 0x44
    a68c:	e30431b0 	movw	r3, #16816	; 0x41b0
    a690:	e3403001 	movt	r3, #1
    a694:	e5932000 	ldr	r2, [r3]
    a698:	e59de034 	ldr	lr, [sp, #52]	; 0x34
    a69c:	e22e3001 	eor	r3, lr, #1
    a6a0:	e3520000 	cmp	r2, #0
    a6a4:	03a03000 	moveq	r3, #0
    a6a8:	12033001 	andne	r3, r3, #1
    a6ac:	e3530000 	cmp	r3, #0
    a6b0:	0a000005 	beq	a6cc <_start+0x1cb8>
    a6b4:	e1cd26d0 	ldrd	r2, [sp, #96]	; 0x60
    a6b8:	e1cd20f0 	strd	r2, [sp]
    a6bc:	e30b0d50 	movw	r0, #48464	; 0xbd50
    a6c0:	e3400000 	movt	r0, #0
    a6c4:	e1cd25d8 	ldrd	r2, [sp, #88]	; 0x58
[31m    a6c8:	ebfff868 	bl	8870 <printf@plt>[0m
    a6cc:	e30431bc 	movw	r3, #16828	; 0x41bc
    a6d0:	e3403001 	movt	r3, #1
--
    a7cc:	e1cd02d0 	ldrd	r0, [sp, #32]
    a7d0:	e1cd24d8 	ldrd	r2, [sp, #72]	; 0x48
    a7d4:	eb00034a 	bl	b504 <_start+0x2af0>
    a7d8:	e3500000 	cmp	r0, #0
    a7dc:	0a000004 	beq	a7f4 <_start+0x1de0>
    a7e0:	e28dc048 	add	ip, sp, #72	; 0x48
    a7e4:	e59de018 	ldr	lr, [sp, #24]
    a7e8:	e89e000f 	ldm	lr, {r0, r1, r2, r3}
    a7ec:	e88c000f 	stm	ip, {r0, r1, r2, r3}
    a7f0:	e58d8034 	str	r8, [sp, #52]	; 0x34
    a7f4:	e30411b0 	movw	r1, #16816	; 0x41b0
    a7f8:	e3401001 	movt	r1, #1
    a7fc:	e5913000 	ldr	r3, [r1]
    a800:	e3530000 	cmp	r3, #0
    a804:	0a000005 	beq	a820 <_start+0x1e0c>
    a808:	e1c621d0 	ldrd	r2, [r6, #16]
    a80c:	e1c601d8 	ldrd	r0, [r6, #24]
    a810:	e1cd00f0 	strd	r0, [sp]
    a814:	e59d0038 	ldr	r0, [sp, #56]	; 0x38
    a818:	e1a01005 	mov	r1, r5
[31m    a81c:	ebfff813 	bl	8870 <printf@plt>[0m
    a820:	e1c621d0 	ldrd	r2, [r6, #16]
    a824:	e1cd22f8 	strd	r2, [sp, #40]	; 0x28
--
    a83c:	e59d3034 	ldr	r3, [sp, #52]	; 0x34
    a840:	e3530001 	cmp	r3, #1
    a844:	03a01001 	moveq	r1, #1
    a848:	058d1044 	streq	r1, [sp, #68]	; 0x44
    a84c:	0a00000f 	beq	a890 <_start+0x1e7c>
    a850:	e30431b0 	movw	r3, #16816	; 0x41b0
    a854:	e3403001 	movt	r3, #1
    a858:	e5932000 	ldr	r2, [r3]
    a85c:	e59de034 	ldr	lr, [sp, #52]	; 0x34
    a860:	e22e3001 	eor	r3, lr, #1
    a864:	e3520000 	cmp	r2, #0
    a868:	03a03000 	moveq	r3, #0
    a86c:	12033001 	andne	r3, r3, #1
    a870:	e3530000 	cmp	r3, #0
    a874:	0a000005 	beq	a890 <_start+0x1e7c>
    a878:	e1cd25d0 	ldrd	r2, [sp, #80]	; 0x50
    a87c:	e1cd20f0 	strd	r2, [sp]
    a880:	e30b0d7c 	movw	r0, #48508	; 0xbd7c
    a884:	e3400000 	movt	r0, #0
    a888:	e1cd24d8 	ldrd	r2, [sp, #72]	; 0x48
[31m    a88c:	ebfff7f7 	bl	8870 <printf@plt>[0m
    a890:	ebfffd7c 	bl	9e88 <_start+0x1474>
    a894:	e28d0058 	add	r0, sp, #88	; 0x58
--
    aa6c:	e3520000 	cmp	r2, #0
    aa70:	0a000004 	beq	aa88 <_start+0x2074>
    aa74:	e30b0de0 	movw	r0, #48608	; 0xbde0
    aa78:	e3400000 	movt	r0, #0
    aa7c:	ebfff78a 	bl	88ac <puts@plt>
    aa80:	e59d00b0 	ldr	r0, [sp, #176]	; 0xb0
    aa84:	ea00004b 	b	abb8 <_start+0x21a4>
    aa88:	e28d007c 	add	r0, sp, #124	; 0x7c
    aa8c:	ebfffd05 	bl	9ea8 <_start+0x1494>
    aa90:	e1a06000 	mov	r6, r0
    aa94:	e1a07001 	mov	r7, r1
    aa98:	e30431b0 	movw	r3, #16816	; 0x41b0
    aa9c:	e3403001 	movt	r3, #1
    aaa0:	e5933000 	ldr	r3, [r3]
    aaa4:	e3530000 	cmp	r3, #0
    aaa8:	0a000004 	beq	aac0 <_start+0x20ac>
    aaac:	e30b0df0 	movw	r0, #48624	; 0xbdf0
    aab0:	e3400000 	movt	r0, #0
    aab4:	e1a02006 	mov	r2, r6
    aab8:	e1a03001 	mov	r3, r1
[31m    aabc:	ebfff76b 	bl	8870 <printf@plt>[0m
    aac0:	e59d307c 	ldr	r3, [sp, #124]	; 0x7c
    aac4:	e3530000 	cmp	r3, #0
--
    aaf0:	e34430f0 	movt	r3, #16624	; 0x40f0
    aaf4:	eb00012f 	bl	afb8 <_start+0x25a4>
    aaf8:	e3a02000 	mov	r2, #0
    aafc:	e3a03000 	mov	r3, #0
    ab00:	e3433fe0 	movt	r3, #16352	; 0x3fe0
    ab04:	eb000040 	bl	ac0c <_start+0x21f8>
    ab08:	eb000291 	bl	b554 <_start+0x2b40>
    ab0c:	e1a04000 	mov	r4, r0
    ab10:	e30431b0 	movw	r3, #16816	; 0x41b0
    ab14:	e3403001 	movt	r3, #1
    ab18:	e5933000 	ldr	r3, [r3]
    ab1c:	e3530000 	cmp	r3, #0
    ab20:	0a000007 	beq	ab44 <_start+0x2130>
    ab24:	e58d0000 	str	r0, [sp]
    ab28:	e59d307c 	ldr	r3, [sp, #124]	; 0x7c
    ab2c:	e58d3004 	str	r3, [sp, #4]
    ab30:	e30b0e00 	movw	r0, #48640	; 0xbe00
    ab34:	e3400000 	movt	r0, #0
    ab38:	e1a02006 	mov	r2, r6
    ab3c:	e1a03007 	mov	r3, r7
[31m    ab40:	ebfff74a 	bl	8870 <printf@plt>[0m
    ab44:	e59d30b0 	ldr	r3, [sp, #176]	; 0xb0
    ab48:	e0644003 	rsb	r4, r4, r3
    ab4c:	e1cd26d0 	ldrd	r2, [sp, #96]	; 0x60
    ab50:	e1cd20f0 	strd	r2, [sp]
    ab54:	e30b0e24 	movw	r0, #48676	; 0xbe24
    ab58:	e3400000 	movt	r0, #0
    ab5c:	e1cd25d8 	ldrd	r2, [sp, #88]	; 0x58
[31m    ab60:	ebfff742 	bl	8870 <printf@plt>[0m
    ab64:	e1cd25d0 	ldrd	r2, [sp, #80]	; 0x50
    ab68:	e1cd20f0 	strd	r2, [sp]
    ab6c:	e30b0e3c 	movw	r0, #48700	; 0xbe3c
    ab70:	e3400000 	movt	r0, #0
    ab74:	e1cd24d8 	ldrd	r2, [sp, #72]	; 0x48
[31m    ab78:	ebfff73c 	bl	8870 <printf@plt>[0m
    ab7c:	e58d4000 	str	r4, [sp]
    ab80:	e30b0e50 	movw	r0, #48720	; 0xbe50
    ab84:	e3400000 	movt	r0, #0
    ab88:	e1a02006 	mov	r2, r6
    ab8c:	e1a03007 	mov	r3, r7
[31m    ab90:	ebfff736 	bl	8870 <printf@plt>[0m
    ab94:	e3070280 	movw	r0, #29312	; 0x7280
    ab98:	e34f0fa4 	movt	r0, #65444	; 0xffa4

[0m
[[0;33m*[0m] Function [0;33mprintf[0m used [0;33m34[0m times [0;33mntpclient.svn-base[0m

