[[0;33m*[0m] Binary protection state of [0;33mlibxt_CT.so[0m
[REF] s12

  	RELRO          CANARY            NX           PIE       RPATH        RUNPATH      SYMBOLS      
  	[31mNo RELRO[0m       [31mNo Canary found[0m   [32mNX enabled[0m   [33mDSO[0m          [32mNo RPATH[0m     [32mNo RUNPATH[0m   [31mSymbols
	[31mNo RELRO[0m       [31mNo Canary found[0m   [32mNX enabled[0m   [33mDSO[0m          [32mNo RPATH[0m     [32mNo RUNPATH[0m   [32mNo Symbols[0m

[0m
[[0;33m*[0m] Function [0;33mprintf[0m tear down of [0;33mlibxt_CT.so[0m

 874:	e8bd8070 	pop	{r4, r5, r6, pc}
 878:	e59f301c 	ldr	r3, [pc, #28]	; 89c <__register_frame_info@plt+0x294>
 87c:	e3a01001 	mov	r1, #1
 880:	e5962000 	ldr	r2, [r6]
 884:	e0844003 	add	r4, r4, r3
 888:	e2840050 	add	r0, r4, #80	; 0x50
 88c:	ebffff9c 	bl	704 <__register_frame_info@plt+0xfc>
 890:	e5850008 	str	r0, [r5, #8]
 894:	e8bd8070 	pop	{r4, r5, r6, pc}
 898:	000089e8 	andeq	r8, r0, r8, ror #19
 89c:	fffffdf0 			; <UNDEFINED> instruction: 0xfffffdf0
 8a0:	e92d4ff8 	push	{r3, r4, r5, r6, r7, r8, r9, sl, fp, lr}
 8a4:	e1a04001 	mov	r4, r1
 8a8:	e59f9088 	ldr	r9, [pc, #136]	; 938 <__register_frame_info@plt+0x330>
 8ac:	e1a01000 	mov	r1, r0
 8b0:	e1a05002 	mov	r5, r2
 8b4:	e1a08003 	mov	r8, r3
 8b8:	e59f007c 	ldr	r0, [pc, #124]	; 93c <__register_frame_info@plt+0x334>
 8bc:	e08f9009 	add	r9, pc, r9
 8c0:	e0890000 	add	r0, r9, r0
[31m 8c4:	ebffff34 	bl	59c <printf@plt>[0m
 8c8:	e3550000 	cmp	r5, #0
 8cc:	08bd8ff8 	popeq	{r3, r4, r5, r6, r7, r8, r9, sl, fp, pc}
 8d0:	e59f1068 	ldr	r1, [pc, #104]	; 940 <__register_frame_info@plt+0x338>
 8d4:	e3a06000 	mov	r6, #0
 8d8:	e59fb064 	ldr	fp, [pc, #100]	; 944 <__register_frame_info@plt+0x33c>
 8dc:	e1a07006 	mov	r7, r6
 8e0:	e59f3060 	ldr	r3, [pc, #96]	; 948 <__register_frame_info@plt+0x340>
 8e4:	e3a0a001 	mov	sl, #1
 8e8:	e0891001 	add	r1, r9, r1
 8ec:	e089b00b 	add	fp, r9, fp
 8f0:	e0899003 	add	r9, r9, r3
 8f4:	ea000002 	b	904 <__register_frame_info@plt+0x2fc>
 8f8:	e1550007 	cmp	r5, r7
 8fc:	e2866008 	add	r6, r6, #8
 900:	9a00000b 	bls	934 <__register_frame_info@plt+0x32c>
 904:	e0843006 	add	r3, r4, r6
 908:	e2877001 	add	r7, r7, #1
 90c:	e5933004 	ldr	r3, [r3, #4]
 910:	e018331a 	ands	r3, r8, sl, lsl r3
 914:	0afffff7 	beq	8f8 <__register_frame_info@plt+0x2f0>
 918:	e7942006 	ldr	r2, [r4, r6]
 91c:	e1a0000b 	mov	r0, fp
[31m 920:	ebffff1d 	bl	59c <printf@plt>[0m
 924:	e1550007 	cmp	r5, r7
 928:	e1a01009 	mov	r1, r9
--
 9ac:	e3a02001 	mov	r2, #1
 9b0:	e59f0068 	ldr	r0, [pc, #104]	; a20 <__register_frame_info@plt+0x418>
 9b4:	e0841001 	add	r1, r4, r1
 9b8:	e2811050 	add	r1, r1, #80	; 0x50
 9bc:	e0840000 	add	r0, r4, r0
 9c0:	ebffffb6 	bl	8a0 <__register_frame_info@plt+0x298>
 9c4:	e1d510b2 	ldrh	r1, [r5, #2]
 9c8:	e3510000 	cmp	r1, #0
 9cc:	08bd8070 	popeq	{r4, r5, r6, pc}
 9d0:	eafffff0 	b	998 <__register_frame_info@plt+0x390>
 9d4:	e59f0048 	ldr	r0, [pc, #72]	; a24 <__register_frame_info@plt+0x41c>
 9d8:	e3a0200a 	mov	r2, #10
 9dc:	e59f1038 	ldr	r1, [pc, #56]	; a1c <__register_frame_info@plt+0x414>
 9e0:	e0840000 	add	r0, r4, r0
 9e4:	e0841001 	add	r1, r4, r1
 9e8:	ebffffac 	bl	8a0 <__register_frame_info@plt+0x298>
 9ec:	eaffffe3 	b	980 <__register_frame_info@plt+0x378>
 9f0:	e59f0030 	ldr	r0, [pc, #48]	; a28 <__register_frame_info@plt+0x420>
 9f4:	e285100c 	add	r1, r5, #12
 9f8:	e0840000 	add	r0, r4, r0
[31m 9fc:	ebfffee6 	bl	59c <printf@plt>[0m
 a00:	eaffffdb 	b	974 <__register_frame_info@plt+0x36c>
 a04:	e59f0020 	ldr	r0, [pc, #32]	; a2c <__register_frame_info@plt+0x424>
 a08:	e0840000 	add	r0, r4, r0
[31m a0c:	ebfffee2 	bl	59c <printf@plt>[0m
 a10:	eaffffd4 	b	968 <__register_frame_info@plt+0x360>
 a14:	000088b8 			; <UNDEFINED> instruction: 0x000088b8
 a18:	ffff79b0 			; <UNDEFINED> instruction: 0xffff79b0
 a1c:	fffffdf0 			; <UNDEFINED> instruction: 0xfffffdf0
 a20:	ffff79a4 			; <UNDEFINED> instruction: 0xffff79a4
 a24:	ffff7998 			; <UNDEFINED> instruction: 0xffff7998
 a28:	ffff7988 			; <UNDEFINED> instruction: 0xffff7988
 a2c:	ffff797c 			; <UNDEFINED> instruction: 0xffff797c
 a30:	e92d4070 	push	{r4, r5, r6, lr}
 a34:	e1a06001 	mov	r6, r1
 a38:	e59f40c8 	ldr	r4, [pc, #200]	; b08 <__register_frame_info@plt+0x500>
 a3c:	e2815020 	add	r5, r1, #32
 a40:	e59f00c4 	ldr	r0, [pc, #196]	; b0c <__register_frame_info@plt+0x504>
 a44:	e08f4004 	add	r4, pc, r4
 a48:	e0840000 	add	r0, r4, r0
[31m a4c:	ebfffed2 	bl	59c <printf@plt>[0m
 a50:	e1d632b0 	ldrh	r3, [r6, #32]
 a54:	e3130001 	tst	r3, #1
--
 aa0:	e3a02001 	mov	r2, #1
 aa4:	e59f006c 	ldr	r0, [pc, #108]	; b18 <__register_frame_info@plt+0x510>
 aa8:	e0841001 	add	r1, r4, r1
 aac:	e2811050 	add	r1, r1, #80	; 0x50
 ab0:	e0840000 	add	r0, r4, r0
 ab4:	ebffff79 	bl	8a0 <__register_frame_info@plt+0x298>
 ab8:	e1d510b2 	ldrh	r1, [r5, #2]
 abc:	e3510000 	cmp	r1, #0
 ac0:	08bd8070 	popeq	{r4, r5, r6, pc}
 ac4:	eafffff0 	b	a8c <__register_frame_info@plt+0x484>
 ac8:	e59f004c 	ldr	r0, [pc, #76]	; b1c <__register_frame_info@plt+0x514>
 acc:	e3a0200a 	mov	r2, #10
 ad0:	e59f103c 	ldr	r1, [pc, #60]	; b14 <__register_frame_info@plt+0x50c>
 ad4:	e0840000 	add	r0, r4, r0
 ad8:	e0841001 	add	r1, r4, r1
 adc:	ebffff6f 	bl	8a0 <__register_frame_info@plt+0x298>
 ae0:	eaffffe3 	b	a74 <__register_frame_info@plt+0x46c>
 ae4:	e59f0034 	ldr	r0, [pc, #52]	; b20 <__register_frame_info@plt+0x518>
 ae8:	e285100c 	add	r1, r5, #12
 aec:	e0840000 	add	r0, r4, r0
[31m af0:	ebfffea9 	bl	59c <printf@plt>[0m
 af4:	eaffffdb 	b	a68 <__register_frame_info@plt+0x460>
 af8:	e59f0024 	ldr	r0, [pc, #36]	; b24 <__register_frame_info@plt+0x51c>
 afc:	e0840000 	add	r0, r4, r0
[31m b00:	ebfffea5 	bl	59c <printf@plt>[0m
 b04:	eaffffd4 	b	a5c <__register_frame_info@plt+0x454>
 b08:	000087d4 	ldrdeq	r8, [r0], -r4

[0m
[[0;33m*[0m] Function [0;33mprintf[0m used [0;33m7[0m times [0;33mlibxt_CT.so[0m

