[[0;33m*[0m] Binary protection state of [0;33mlibipt_LOG.so[0m
[REF] s12

  	RELRO          CANARY            NX           PIE       RPATH        RUNPATH      SYMBOLS      
  	[31mNo RELRO[0m       [31mNo Canary found[0m   [32mNX enabled[0m   [33mDSO[0m          [32mNo RPATH[0m     [32mNo RUNPATH[0m   [31mSymbols
	[31mNo RELRO[0m       [31mNo Canary found[0m   [32mNX enabled[0m   [33mDSO[0m          [32mNo RPATH[0m     [32mNo RUNPATH[0m   [32mNo Symbols[0m

[0m
[[0;33m*[0m] Function [0;33mprintf[0m tear down of [0;33mlibipt_LOG.so[0m

 770:	e8bd8070 	pop	{r4, r5, r6, pc}
 774:	e5d63001 	ldrb	r3, [r6, #1]
 778:	e3833004 	orr	r3, r3, #4
 77c:	e5c63001 	strb	r3, [r6, #1]
 780:	e8bd8070 	pop	{r4, r5, r6, pc}
 784:	e5d63001 	ldrb	r3, [r6, #1]
 788:	e3833008 	orr	r3, r3, #8
 78c:	e5c63001 	strb	r3, [r6, #1]
 790:	e8bd8070 	pop	{r4, r5, r6, pc}
 794:	00008b78 	andeq	r8, r0, r8, ror fp
 798:	0000003c 	andeq	r0, r0, ip, lsr r0
 79c:	ffff7838 			; <UNDEFINED> instruction: 0xffff7838
 7a0:	e92d41f0 	push	{r4, r5, r6, r7, r8, lr}
 7a4:	e1a06002 	mov	r6, r2
 7a8:	e59f4168 	ldr	r4, [pc, #360]	; 918 <__register_frame_info@plt+0x358>
 7ac:	e1a07001 	mov	r7, r1
 7b0:	e2815020 	add	r5, r1, #32
 7b4:	e59f0160 	ldr	r0, [pc, #352]	; 91c <__register_frame_info@plt+0x35c>
 7b8:	e08f4004 	add	r4, pc, r4
 7bc:	e0840000 	add	r0, r4, r0
[31m 7c0:	ebffff66 	bl	560 <printf@plt>[0m
 7c4:	e3560000 	cmp	r6, #0
 7c8:	1a00000d 	bne	804 <__register_frame_info@plt+0x244>
 7cc:	e59f214c 	ldr	r2, [pc, #332]	; 920 <__register_frame_info@plt+0x360>
 7d0:	e5d71020 	ldrb	r1, [r7, #32]
 7d4:	e0842002 	add	r2, r4, r2
 7d8:	e0823186 	add	r3, r2, r6, lsl #3
 7dc:	e5933004 	ldr	r3, [r3, #4]
 7e0:	e1530001 	cmp	r3, r1
 7e4:	0a000013 	beq	838 <__register_frame_info@plt+0x278>
 7e8:	e2866001 	add	r6, r6, #1
 7ec:	e3560009 	cmp	r6, #9
 7f0:	1afffff8 	bne	7d8 <__register_frame_info@plt+0x218>
 7f4:	e59f0128 	ldr	r0, [pc, #296]	; 924 <__register_frame_info@plt+0x364>
 7f8:	e0840000 	add	r0, r4, r0
[31m 7fc:	ebffff57 	bl	560 <printf@plt>[0m
 800:	ea000013 	b	854 <__register_frame_info@plt+0x294>
 804:	e59f011c 	ldr	r0, [pc, #284]	; 928 <__register_frame_info@plt+0x368>
 808:	e5d51001 	ldrb	r1, [r5, #1]
 80c:	e5d72020 	ldrb	r2, [r7, #32]
 810:	e0840000 	add	r0, r4, r0
[31m 814:	ebffff51 	bl	560 <printf@plt>[0m
 818:	e5d53002 	ldrb	r3, [r5, #2]
 81c:	e3530000 	cmp	r3, #0
 820:	08bd81f0 	popeq	{r4, r5, r6, r7, r8, pc}
 824:	e59f0100 	ldr	r0, [pc, #256]	; 92c <__register_frame_info@plt+0x36c>
 828:	e2851002 	add	r1, r5, #2
 82c:	e0840000 	add	r0, r4, r0
 830:	e8bd41f0 	pop	{r4, r5, r6, r7, r8, lr}
[31m 834:	eaffff49 	b	560 <printf@plt>[0m
 838:	e59f00f0 	ldr	r0, [pc, #240]	; 930 <__register_frame_info@plt+0x370>
 83c:	e7921186 	ldr	r1, [r2, r6, lsl #3]
 840:	e0840000 	add	r0, r4, r0
[31m 844:	ebffff45 	bl	560 <printf@plt>[0m
 848:	e3560009 	cmp	r6, #9
 84c:	05d71020 	ldrbeq	r1, [r7, #32]
 850:	0affffe7 	beq	7f4 <__register_frame_info@plt+0x234>
 854:	e5d53001 	ldrb	r3, [r5, #1]
 858:	e3130001 	tst	r3, #1
 85c:	1a000010 	bne	8a4 <__register_frame_info@plt+0x2e4>
 860:	e3130002 	tst	r3, #2
 864:	1a000014 	bne	8bc <__register_frame_info@plt+0x2fc>
 868:	e3130004 	tst	r3, #4
 86c:	1a000018 	bne	8d4 <__register_frame_info@plt+0x314>
 870:	e3130008 	tst	r3, #8
 874:	1a00001c 	bne	8ec <__register_frame_info@plt+0x32c>
 878:	e3130020 	tst	r3, #32
 87c:	1a000020 	bne	904 <__register_frame_info@plt+0x344>
 880:	e31300d0 	tst	r3, #208	; 0xd0
 884:	0affffe3 	beq	818 <__register_frame_info@plt+0x258>
 888:	e59f00a4 	ldr	r0, [pc, #164]	; 934 <__register_frame_info@plt+0x374>
 88c:	e0840000 	add	r0, r4, r0
[31m 890:	ebffff32 	bl	560 <printf@plt>[0m
 894:	e5d53002 	ldrb	r3, [r5, #2]
 898:	e3530000 	cmp	r3, #0
 89c:	08bd81f0 	popeq	{r4, r5, r6, r7, r8, pc}
 8a0:	eaffffdf 	b	824 <__register_frame_info@plt+0x264>
 8a4:	e59f008c 	ldr	r0, [pc, #140]	; 938 <__register_frame_info@plt+0x378>
 8a8:	e0840000 	add	r0, r4, r0
[31m 8ac:	ebffff2b 	bl	560 <printf@plt>[0m
 8b0:	e5d53001 	ldrb	r3, [r5, #1]
 8b4:	e3130002 	tst	r3, #2
 8b8:	0affffea 	beq	868 <__register_frame_info@plt+0x2a8>
 8bc:	e59f0078 	ldr	r0, [pc, #120]	; 93c <__register_frame_info@plt+0x37c>
 8c0:	e0840000 	add	r0, r4, r0
[31m 8c4:	ebffff25 	bl	560 <printf@plt>[0m
 8c8:	e5d53001 	ldrb	r3, [r5, #1]
 8cc:	e3130004 	tst	r3, #4
 8d0:	0affffe6 	beq	870 <__register_frame_info@plt+0x2b0>
 8d4:	e59f0064 	ldr	r0, [pc, #100]	; 940 <__register_frame_info@plt+0x380>
 8d8:	e0840000 	add	r0, r4, r0
[31m 8dc:	ebffff1f 	bl	560 <printf@plt>[0m
 8e0:	e5d53001 	ldrb	r3, [r5, #1]
 8e4:	e3130008 	tst	r3, #8
 8e8:	0affffe2 	beq	878 <__register_frame_info@plt+0x2b8>
 8ec:	e59f0050 	ldr	r0, [pc, #80]	; 944 <__register_frame_info@plt+0x384>
 8f0:	e0840000 	add	r0, r4, r0
[31m 8f4:	ebffff19 	bl	560 <printf@plt>[0m
 8f8:	e5d53001 	ldrb	r3, [r5, #1]
 8fc:	e3130020 	tst	r3, #32
 900:	0affffde 	beq	880 <__register_frame_info@plt+0x2c0>
 904:	e59f003c 	ldr	r0, [pc, #60]	; 948 <__register_frame_info@plt+0x388>
 908:	e0840000 	add	r0, r4, r0
[31m 90c:	ebffff13 	bl	560 <printf@plt>[0m
 910:	e5d53001 	ldrb	r3, [r5, #1]
 914:	eaffffd9 	b	880 <__register_frame_info@plt+0x2c0>
--
 930:	ffff787c 			; <UNDEFINED> instruction: 0xffff787c
 934:	ffff78dc 			; <UNDEFINED> instruction: 0xffff78dc
 938:	ffff789c 			; <UNDEFINED> instruction: 0xffff789c
 93c:	ffff78ac 			; <UNDEFINED> instruction: 0xffff78ac
 940:	ffff78bc 			; <UNDEFINED> instruction: 0xffff78bc
 944:	ffff78c8 			; <UNDEFINED> instruction: 0xffff78c8
 948:	ffff78d0 			; <UNDEFINED> instruction: 0xffff78d0
 94c:	e92d4070 	push	{r4, r5, r6, lr}
 950:	e2815020 	add	r5, r1, #32
 954:	e5d53002 	ldrb	r3, [r5, #2]
 958:	e1a06001 	mov	r6, r1
 95c:	e59f40cc 	ldr	r4, [pc, #204]	; a30 <__register_frame_info@plt+0x470>
 960:	e3530000 	cmp	r3, #0
 964:	e08f4004 	add	r4, pc, r4
 968:	1a00002a 	bne	a18 <__register_frame_info@plt+0x458>
 96c:	e5d61020 	ldrb	r1, [r6, #32]
 970:	e3510004 	cmp	r1, #4
 974:	0a000002 	beq	984 <__register_frame_info@plt+0x3c4>
 978:	e59f00b4 	ldr	r0, [pc, #180]	; a34 <__register_frame_info@plt+0x474>
 97c:	e0840000 	add	r0, r4, r0
[31m 980:	ebfffef6 	bl	560 <printf@plt>[0m
 984:	e5d53001 	ldrb	r3, [r5, #1]
 988:	e3130001 	tst	r3, #1
 98c:	1a00001c 	bne	a04 <__register_frame_info@plt+0x444>
 990:	e3130002 	tst	r3, #2
 994:	1a000015 	bne	9f0 <__register_frame_info@plt+0x430>
 998:	e3130004 	tst	r3, #4
 99c:	1a00000e 	bne	9dc <__register_frame_info@plt+0x41c>
 9a0:	e3130008 	tst	r3, #8
 9a4:	1a000005 	bne	9c0 <__register_frame_info@plt+0x400>
 9a8:	e3130020 	tst	r3, #32
 9ac:	08bd8070 	popeq	{r4, r5, r6, pc}
 9b0:	e59f0080 	ldr	r0, [pc, #128]	; a38 <__register_frame_info@plt+0x478>
 9b4:	e0840000 	add	r0, r4, r0
 9b8:	e8bd4070 	pop	{r4, r5, r6, lr}
[31m 9bc:	eafffee7 	b	560 <printf@plt>[0m
 9c0:	e59f0074 	ldr	r0, [pc, #116]	; a3c <__register_frame_info@plt+0x47c>
 9c4:	e0840000 	add	r0, r4, r0
[31m 9c8:	ebfffee4 	bl	560 <printf@plt>[0m
 9cc:	e5d53001 	ldrb	r3, [r5, #1]
 9d0:	e3130020 	tst	r3, #32
 9d4:	08bd8070 	popeq	{r4, r5, r6, pc}
 9d8:	eafffff4 	b	9b0 <__register_frame_info@plt+0x3f0>
 9dc:	e59f005c 	ldr	r0, [pc, #92]	; a40 <__register_frame_info@plt+0x480>
 9e0:	e0840000 	add	r0, r4, r0
[31m 9e4:	ebfffedd 	bl	560 <printf@plt>[0m
 9e8:	e5d53001 	ldrb	r3, [r5, #1]
 9ec:	eaffffeb 	b	9a0 <__register_frame_info@plt+0x3e0>
 9f0:	e59f004c 	ldr	r0, [pc, #76]	; a44 <__register_frame_info@plt+0x484>
 9f4:	e0840000 	add	r0, r4, r0
[31m 9f8:	ebfffed8 	bl	560 <printf@plt>[0m
 9fc:	e5d53001 	ldrb	r3, [r5, #1]
 a00:	eaffffe4 	b	998 <__register_frame_info@plt+0x3d8>
 a04:	e59f003c 	ldr	r0, [pc, #60]	; a48 <__register_frame_info@plt+0x488>
 a08:	e0840000 	add	r0, r4, r0
[31m a0c:	ebfffed3 	bl	560 <printf@plt>[0m
 a10:	e5d53001 	ldrb	r3, [r5, #1]
 a14:	eaffffdd 	b	990 <__register_frame_info@plt+0x3d0>
 a18:	e59f002c 	ldr	r0, [pc, #44]	; a4c <__register_frame_info@plt+0x48c>
 a1c:	e0840000 	add	r0, r4, r0
[31m a20:	ebfffece 	bl	560 <printf@plt>[0m
 a24:	e2860022 	add	r0, r6, #34	; 0x22
 a28:	ebfffede 	bl	5a8 <xtables_save_string@plt>

[0m
[[0;33m*[0m] Function [0;33mprintf[0m used [0;33m16[0m times [0;33mlibipt_LOG.so[0m

