[[0;33m*[0m] Binary protection state of [0;33macs_cli[0m
[REF] s12

  	RELRO          CANARY            NX           PIE       RPATH        RUNPATH      SYMBOLS      
  	[31mNo RELRO[0m       [31mNo Canary found[0m   [32mNX enabled[0m   [31mNo PIE[0m       [32mNo RPATH[0m     [32mNo RUNPATH[0m   [32mNo Symbols[0m

[0m
[[0;33m*[0m] Function [0;33mprintf[0m tear down of [0;33macs_cli[0m

    9044:	e3500000 	cmp	r0, #0
    9048:	ba000174 	blt	9620 <_start+0xc78>
    904c:	e3017118 	movw	r7, #4376	; 0x1118
    9050:	e2846018 	add	r6, r4, #24
    9054:	e5940004 	ldr	r0, [r4, #4]
    9058:	e1a01006 	mov	r1, r6
    905c:	e7942007 	ldr	r2, [r4, r7]
    9060:	eb0004ae 	bl	a320 <_start+0x1978>
    9064:	e7943007 	ldr	r3, [r4, r7]
    9068:	e1500003 	cmp	r0, r3
    906c:	2a00001b 	bcs	90e0 <_start+0x738>
    9070:	e59f38a0 	ldr	r3, [pc, #2208]	; 9918 <_start+0xf70>
    9074:	e5933000 	ldr	r3, [r3]
    9078:	e3130001 	tst	r3, #1
    907c:	1a000007 	bne	90a0 <_start+0x6f8>
    9080:	e3e00000 	mvn	r0, #0
    9084:	e28dd054 	add	sp, sp, #84	; 0x54
    9088:	e8bd8ff0 	pop	{r4, r5, r6, r7, r8, r9, sl, fp, pc}
    908c:	e1a01004 	mov	r1, r4
    9090:	e59f0884 	ldr	r0, [pc, #2180]	; 991c <_start+0xf74>
[31m    9094:	ebfffde3 	bl	8828 <printf@plt>[0m
    9098:	ebfffebc 	bl	8b90 <_start+0x1e8>
    909c:	eaffffe3 	b	9030 <_start+0x688>
    90a0:	e59f0878 	ldr	r0, [pc, #2168]	; 9920 <_start+0xf78>
    90a4:	e3a02f56 	mov	r2, #344	; 0x158
    90a8:	e59f1874 	ldr	r1, [pc, #2164]	; 9924 <_start+0xf7c>
[31m    90ac:	ebfffddd 	bl	8828 <printf@plt>[0m
    90b0:	e3e00000 	mvn	r0, #0
    90b4:	eafffff2 	b	9084 <_start+0x6dc>
--
    925c:	eafffe88 	b	8c84 <_start+0x2dc>
    9260:	ebfffe4a 	bl	8b90 <_start+0x1e8>
    9264:	e59f4620 	ldr	r4, [pc, #1568]	; 988c <_start+0xee4>
    9268:	e301771c 	movw	r7, #5916	; 0x171c
    926c:	eaffff4e 	b	8fac <_start+0x604>
    9270:	e1a00004 	mov	r0, r4
    9274:	e59f1634 	ldr	r1, [pc, #1588]	; 98b0 <_start+0xf08>
    9278:	ebfffe10 	bl	8ac0 <_start+0x118>
    927c:	eafffe80 	b	8c84 <_start+0x2dc>
    9280:	e59f3690 	ldr	r3, [pc, #1680]	; 9918 <_start+0xf70>
    9284:	e5933000 	ldr	r3, [r3]
    9288:	e3130001 	tst	r3, #1
    928c:	0affff7b 	beq	9080 <_start+0x6d8>
    9290:	ebfffdbb 	bl	8984 <__errno_location@plt>
    9294:	e5900000 	ldr	r0, [r0]
    9298:	ebfffd68 	bl	8840 <strerror@plt>
    929c:	e59f1680 	ldr	r1, [pc, #1664]	; 9924 <_start+0xf7c>
    92a0:	e1a03000 	mov	r3, r0
    92a4:	e3002163 	movw	r2, #355	; 0x163
    92a8:	e59f068c 	ldr	r0, [pc, #1676]	; 993c <_start+0xf94>
[31m    92ac:	ebfffd5d 	bl	8828 <printf@plt>[0m
    92b0:	e3e00000 	mvn	r0, #0
    92b4:	eaffff72 	b	9084 <_start+0x6dc>
--
    9364:	e5d4701b 	ldrb	r7, [r4, #27]
    9368:	e5d4601c 	ldrb	r6, [r4, #28]
    936c:	e5d4e01d 	ldrb	lr, [r4, #29]
    9370:	e5d4801e 	ldrb	r8, [r4, #30]
    9374:	e5d4a01f 	ldrb	sl, [r4, #31]
    9378:	e5d49020 	ldrb	r9, [r4, #32]
    937c:	e5d4b021 	ldrb	fp, [r4, #33]	; 0x21
    9380:	e58d001c 	str	r0, [sp, #28]
    9384:	e5d40023 	ldrb	r0, [r4, #35]	; 0x23
    9388:	e58d0020 	str	r0, [sp, #32]
    938c:	e5d4c024 	ldrb	ip, [r4, #36]	; 0x24
    9390:	e284400d 	add	r4, r4, #13
    9394:	e59f05b0 	ldr	r0, [pc, #1456]	; 994c <_start+0xfa4>
    9398:	e58d7000 	str	r7, [sp]
    939c:	e98d4040 	stmib	sp, {r6, lr}
    93a0:	e58d800c 	str	r8, [sp, #12]
    93a4:	e58da010 	str	sl, [sp, #16]
    93a8:	e58d9014 	str	r9, [sp, #20]
    93ac:	e58db018 	str	fp, [sp, #24]
    93b0:	e58dc024 	str	ip, [sp, #36]	; 0x24
[31m    93b4:	ebfffd1b 	bl	8828 <printf@plt>[0m
    93b8:	e59d202c 	ldr	r2, [sp, #44]	; 0x2c
    93bc:	e1520005 	cmp	r2, r5
--
    9450:	0a000088 	beq	9678 <_start+0xcd0>
    9454:	e59fa4f8 	ldr	sl, [pc, #1272]	; 9954 <_start+0xfac>
    9458:	e59f54f8 	ldr	r5, [pc, #1272]	; 9958 <_start+0xfb0>
    945c:	e1d411b8 	ldrh	r1, [r4, #24]
    9460:	e1a03006 	mov	r3, r6
    9464:	e3a0200a 	mov	r2, #10
    9468:	e1a00401 	lsl	r0, r1, #8
    946c:	e1801421 	orr	r1, r0, r1, lsr #8
    9470:	e6ff1071 	uxth	r1, r1
    9474:	e1c411b8 	strh	r1, [r4, #24]
    9478:	e593c008 	ldr	ip, [r3, #8]
    947c:	e2522001 	subs	r2, r2, #1
    9480:	e593000c 	ldr	r0, [r3, #12]
    9484:	e6bfcf3c 	rev	ip, ip
    9488:	e6bf0f30 	rev	r0, r0
    948c:	e583c008 	str	ip, [r3, #8]
    9490:	e583000c 	str	r0, [r3, #12]
    9494:	e2833008 	add	r3, r3, #8
    9498:	1afffff6 	bne	9478 <_start+0xad0>
    949c:	e59f04b8 	ldr	r0, [pc, #1208]	; 995c <_start+0xfb4>
[31m    94a0:	ebfffce0 	bl	8828 <printf@plt>[0m
    94a4:	e5d4101e 	ldrb	r1, [r4, #30]
    94a8:	e59f04b0 	ldr	r0, [pc, #1200]	; 9960 <_start+0xfb8>
[31m    94ac:	ebfffcdd 	bl	8828 <printf@plt>[0m
    94b0:	e5d4101a 	ldrb	r1, [r4, #26]
    94b4:	e30ae764 	movw	lr, #42852	; 0xa764
    94b8:	e340e000 	movt	lr, #0
    94bc:	e59f04a0 	ldr	r0, [pc, #1184]	; 9964 <_start+0xfbc>
    94c0:	e3510000 	cmp	r1, #0
    94c4:	11a0e00a 	movne	lr, sl
    94c8:	e1a0100e 	mov	r1, lr
[31m    94cc:	ebfffcd5 	bl	8828 <printf@plt>[0m
    94d0:	e5d4301a 	ldrb	r3, [r4, #26]
    94d4:	e3530000 	cmp	r3, #0
--
    9518:	e59fe44c 	ldr	lr, [pc, #1100]	; 996c <_start+0xfc4>
    951c:	01a01005 	moveq	r1, r5
    9520:	e3100008 	tst	r0, #8
    9524:	01a02005 	moveq	r2, r5
    9528:	e59f9440 	ldr	r9, [pc, #1088]	; 9970 <_start+0xfc8>
    952c:	e3100010 	tst	r0, #16
    9530:	e59fb43c 	ldr	fp, [pc, #1084]	; 9974 <_start+0xfcc>
    9534:	01a03005 	moveq	r3, r5
    9538:	e3100020 	tst	r0, #32
    953c:	01a0e005 	moveq	lr, r5
    9540:	e59fc430 	ldr	ip, [pc, #1072]	; 9978 <_start+0xfd0>
    9544:	e3100040 	tst	r0, #64	; 0x40
    9548:	e58de000 	str	lr, [sp]
    954c:	01a09005 	moveq	r9, r5
    9550:	e3100080 	tst	r0, #128	; 0x80
    9554:	01a0b005 	moveq	fp, r5
    9558:	e3100c01 	tst	r0, #256	; 0x100
    955c:	01a0c005 	moveq	ip, r5
    9560:	e59f0414 	ldr	r0, [pc, #1044]	; 997c <_start+0xfd4>
    9564:	e98d1a00 	stmib	sp, {r9, fp, ip}
[31m    9568:	ebfffcae 	bl	8828 <printf@plt>[0m
    956c:	e5d4301a 	ldrb	r3, [r4, #26]
    9570:	e3530000 	cmp	r3, #0
--
    95c4:	e8a5000f 	stmia	r5!, {r0, r1, r2, r3}
    95c8:	e89c0007 	ldm	ip, {r0, r1, r2}
    95cc:	e8850007 	stm	r5, {r0, r1, r2}
    95d0:	ebfffd29 	bl	8a7c <_start+0xd4>
    95d4:	e3500000 	cmp	r0, #0
    95d8:	1affff4f 	bne	931c <_start+0x974>
    95dc:	e30c6ccd 	movw	r6, #52429	; 0xcccd
    95e0:	e34c6ccc 	movt	r6, #52428	; 0xcccc
    95e4:	e0860a96 	umull	r0, r6, r6, sl
    95e8:	e1b06226 	lsrs	r6, r6, #4
    95ec:	1a000061 	bne	9778 <_start+0xdd0>
    95f0:	e59f0390 	ldr	r0, [pc, #912]	; 9988 <_start+0xfe0>
    95f4:	ebfffca0 	bl	887c <puts@plt>
    95f8:	e3a00000 	mov	r0, #0
    95fc:	eafffea0 	b	9084 <_start+0x6dc>
    9600:	ebfffcdf 	bl	8984 <__errno_location@plt>
    9604:	e5900000 	ldr	r0, [r0]
    9608:	ebfffc8c 	bl	8840 <strerror@plt>
    960c:	e1a01000 	mov	r1, r0
    9610:	e59f0374 	ldr	r0, [pc, #884]	; 998c <_start+0xfe4>
[31m    9614:	ebfffc83 	bl	8828 <printf@plt>[0m
    9618:	e3a00002 	mov	r0, #2
    961c:	eafffe98 	b	9084 <_start+0x6dc>
    9620:	ebfffcd7 	bl	8984 <__errno_location@plt>
    9624:	e5900000 	ldr	r0, [r0]
    9628:	ebfffc84 	bl	8840 <strerror@plt>
    962c:	e1a01000 	mov	r1, r0
    9630:	e59f0358 	ldr	r0, [pc, #856]	; 9990 <_start+0xfe8>
[31m    9634:	ebfffc7b 	bl	8828 <printf@plt>[0m
    9638:	e3a00002 	mov	r0, #2
    963c:	eafffe90 	b	9084 <_start+0x6dc>
--
    9674:	eafffd82 	b	8c84 <_start+0x2dc>
    9678:	e1a00008 	mov	r0, r8
    967c:	eafffe80 	b	9084 <_start+0x6dc>
    9680:	e1a00004 	mov	r0, r4
    9684:	e59f1250 	ldr	r1, [pc, #592]	; 98dc <_start+0xf34>
    9688:	ebfffd0c 	bl	8ac0 <_start+0x118>
    968c:	eafffd7c 	b	8c84 <_start+0x2dc>
    9690:	e1a00004 	mov	r0, r4
    9694:	e59f1244 	ldr	r1, [pc, #580]	; 98e0 <_start+0xf38>
    9698:	ebfffd08 	bl	8ac0 <_start+0x118>
    969c:	eafffd78 	b	8c84 <_start+0x2dc>
    96a0:	e1a00004 	mov	r0, r4
    96a4:	e59f1238 	ldr	r1, [pc, #568]	; 98e4 <_start+0xf3c>
    96a8:	ebfffd04 	bl	8ac0 <_start+0x118>
    96ac:	eafffd74 	b	8c84 <_start+0x2dc>
    96b0:	e1a00004 	mov	r0, r4
    96b4:	e59f122c 	ldr	r1, [pc, #556]	; 98e8 <_start+0xf40>
    96b8:	ebfffd00 	bl	8ac0 <_start+0x118>
    96bc:	eafffd70 	b	8c84 <_start+0x2dc>
    96c0:	e59f02cc 	ldr	r0, [pc, #716]	; 9994 <_start+0xfec>
[31m    96c4:	ebfffc57 	bl	8828 <printf@plt>[0m
    96c8:	e59f02c8 	ldr	r0, [pc, #712]	; 9998 <_start+0xff0>
    96cc:	ebfffc6a 	bl	887c <puts@plt>
    96d0:	e5960008 	ldr	r0, [r6, #8]
    96d4:	e3500000 	cmp	r0, #0
    96d8:	0afffe69 	beq	9084 <_start+0x6dc>
    96dc:	e2844024 	add	r4, r4, #36	; 0x24
    96e0:	e1d431b2 	ldrh	r3, [r4, #18]
    96e4:	e2848007 	add	r8, r4, #7
    96e8:	e59f02ac 	ldr	r0, [pc, #684]	; 999c <_start+0xff4>
    96ec:	e3a07000 	mov	r7, #0
    96f0:	e1a02403 	lsl	r2, r3, #8
    96f4:	e1823423 	orr	r3, r2, r3, lsr #8
    96f8:	e6ff3073 	uxth	r3, r3
    96fc:	e1a01003 	mov	r1, r3
    9700:	e1c431b2 	strh	r3, [r4, #18]
[31m    9704:	ebfffc47 	bl	8828 <printf@plt>[0m
    9708:	e59f0290 	ldr	r0, [pc, #656]	; 99a0 <_start+0xff8>
    970c:	e2877001 	add	r7, r7, #1
    9710:	e5f81001 	ldrb	r1, [r8, #1]!
[31m    9714:	ebfffc43 	bl	8828 <printf@plt>[0m
    9718:	e3570009 	cmp	r7, #9
    971c:	1afffff9 	bne	9708 <_start+0xd60>
    9720:	e5941000 	ldr	r1, [r4]
    9724:	e2855001 	add	r5, r5, #1
    9728:	e5942004 	ldr	r2, [r4, #4]
    972c:	e594c014 	ldr	ip, [r4, #20]
    9730:	e1d431d1 	ldrsb	r3, [r4, #17]
    9734:	e6bf1f31 	rev	r1, r1
    9738:	e6bf2f32 	rev	r2, r2
    973c:	e59f0260 	ldr	r0, [pc, #608]	; 99a4 <_start+0xffc>
    9740:	e6bfcf3c 	rev	ip, ip
    9744:	e58dc000 	str	ip, [sp]
[31m    9748:	ebfffc36 	bl	8828 <printf@plt>[0m
    974c:	e3a0000a 	mov	r0, #10
    9750:	ebfffc2e 	bl	8810 <putchar@plt>
--
    977c:	e3a05000 	mov	r5, #0
    9780:	e59f40e8 	ldr	r4, [pc, #232]	; 9870 <_start+0xec8>
    9784:	ebfffc3c 	bl	887c <puts@plt>
    9788:	e1d431ba 	ldrh	r3, [r4, #26]
    978c:	e28d0050 	add	r0, sp, #80	; 0x50
    9790:	e5d42019 	ldrb	r2, [r4, #25]
    9794:	e2855001 	add	r5, r5, #1
    9798:	e5941028 	ldr	r1, [r4, #40]	; 0x28
    979c:	e1d4e1dc 	ldrsb	lr, [r4, #28]
    97a0:	e1a07403 	lsl	r7, r3, #8
    97a4:	e5d4c024 	ldrb	ip, [r4, #36]	; 0x24
    97a8:	e0802102 	add	r2, r0, r2, lsl #2
    97ac:	e6bf1f31 	rev	r1, r1
    97b0:	e1873423 	orr	r3, r7, r3, lsr #8
    97b4:	e59f01f0 	ldr	r0, [pc, #496]	; 99ac <_start+0x1004>
    97b8:	e512201c 	ldr	r2, [r2, #-28]	; 0xffffffe4
    97bc:	e2844014 	add	r4, r4, #20
    97c0:	e6ff3073 	uxth	r3, r3
    97c4:	e58de000 	str	lr, [sp]
    97c8:	e58dc004 	str	ip, [sp, #4]
[31m    97cc:	ebfffc15 	bl	8828 <printf@plt>[0m
    97d0:	e1560005 	cmp	r6, r5
    97d4:	caffffeb 	bgt	9788 <_start+0xde0>
--
    9a90:	e2844001 	add	r4, r4, #1
    9a94:	e2877001 	add	r7, r7, #1
    9a98:	e3540000 	cmp	r4, #0
    9a9c:	e1a06005 	mov	r6, r5
    9aa0:	e59f1024 	ldr	r1, [pc, #36]	; 9acc <_start+0x1124>
    9aa4:	e1a00005 	mov	r0, r5
    9aa8:	1afffff1 	bne	9a74 <_start+0x10cc>
    9aac:	e59f1018 	ldr	r1, [pc, #24]	; 9acc <_start+0x1124>
    9ab0:	e7d82004 	ldrb	r2, [r8, r4]
[31m    9ab4:	ebfffba6 	bl	8954 <sprintf@plt>[0m
    9ab8:	e0855000 	add	r5, r5, r0
    9abc:	eafffff3 	b	9a90 <_start+0x10e8>
    9ac0:	e59f0000 	ldr	r0, [pc]	; 9ac8 <_start+0x1120>
    9ac4:	e8bd85f8 	pop	{r3, r4, r5, r6, r7, r8, sl, pc}
    9ac8:	000131fc 	strdeq	r3, [r1], -ip
    9acc:	0000ad10 	andeq	sl, r0, r0, lsl sp
    9ad0:	e92d47f0 	push	{r4, r5, r6, r7, r8, r9, sl, lr}
    9ad4:	e1a07001 	mov	r7, r1
    9ad8:	e1a06000 	mov	r6, r0
    9adc:	e59f0080 	ldr	r0, [pc, #128]	; 9b64 <_start+0x11bc>
[31m    9ae0:	ebfffb50 	bl	8828 <printf@plt>[0m
    9ae4:	e3570000 	cmp	r7, #0
    9ae8:	0a00001a 	beq	9b58 <_start+0x11b0>
--
    9afc:	e3a04000 	mov	r4, #0
    9b00:	e6ef3073 	uxtb	r3, r3
    9b04:	e59f505c 	ldr	r5, [pc, #92]	; 9b68 <_start+0x11c0>
    9b08:	e59f805c 	ldr	r8, [pc, #92]	; 9b6c <_start+0x11c4>
    9b0c:	e59fa05c 	ldr	sl, [pc, #92]	; 9b70 <_start+0x11c8>
    9b10:	ea000004 	b	9b28 <_start+0x1180>
    9b14:	e5f61001 	ldrb	r1, [r6, #1]!
    9b18:	e3c1307f 	bic	r3, r1, #127	; 0x7f
    9b1c:	e211107f 	ands	r1, r1, #127	; 0x7f
    9b20:	e6ef3073 	uxtb	r3, r3
    9b24:	0a00000b 	beq	9b58 <_start+0x11b0>
    9b28:	e3110001 	tst	r1, #1
    9b2c:	e59f0040 	ldr	r0, [pc, #64]	; 9b74 <_start+0x11cc>
    9b30:	01a02005 	moveq	r2, r5
    9b34:	11a02008 	movne	r2, r8
    9b38:	e3530000 	cmp	r3, #0
    9b3c:	01a03005 	moveq	r3, r5
    9b40:	11a0300a 	movne	r3, sl
    9b44:	e1a010a1 	lsr	r1, r1, #1
    9b48:	e2844001 	add	r4, r4, #1
[31m    9b4c:	ebfffb35 	bl	8828 <printf@plt>[0m
    9b50:	e1570004 	cmp	r7, r4
    9b54:	8affffee 	bhi	9b14 <_start+0x116c>
--
    9bd0:	03a03001 	moveq	r3, #1
    9bd4:	e3530000 	cmp	r3, #0
    9bd8:	0a00000a 	beq	9c08 <_start+0x1260>
    9bdc:	e5d43048 	ldrb	r3, [r4, #72]	; 0x48
    9be0:	e3a02058 	mov	r2, #88	; 0x58
    9be4:	e1c427b4 	strh	r2, [r4, #116]	; 0x74
    9be8:	e5942054 	ldr	r2, [r4, #84]	; 0x54
    9bec:	e353000e 	cmp	r3, #14
    9bf0:	e3831a01 	orr	r1, r3, #4096	; 0x1000
    9bf4:	83a03903 	movhi	r3, #49152	; 0xc000
    9bf8:	93a03000 	movls	r3, #0
    9bfc:	e1813003 	orr	r3, r1, r3
    9c00:	e5842078 	str	r2, [r4, #120]	; 0x78
    9c04:	e1c434b8 	strh	r3, [r4, #72]	; 0x48
    9c08:	e2841013 	add	r1, r4, #19
    9c0c:	e5d42012 	ldrb	r2, [r4, #18]
    9c10:	e1a00008 	mov	r0, r8
    9c14:	ebffff65 	bl	99b0 <_start+0x1008>
    9c18:	e1a01008 	mov	r1, r8
    9c1c:	e59f0528 	ldr	r0, [pc, #1320]	; a14c <_start+0x17a4>
[31m    9c20:	ebfffb00 	bl	8828 <printf@plt>[0m
    9c24:	e5d53012 	ldrb	r3, [r5, #18]
    9c28:	e3530000 	cmp	r3, #0
    9c2c:	11d431b0 	ldrhne	r3, [r4, #16]
    9c30:	01d411b0 	ldrheq	r1, [r4, #16]
    9c34:	11a01423 	lsrne	r1, r3, #8
    9c38:	11811403 	orrne	r1, r1, r3, lsl #8
    9c3c:	16ff1071 	uxthne	r1, r1
    9c40:	e2011003 	and	r1, r1, #3
    9c44:	e3510001 	cmp	r1, #1
    9c48:	059f1500 	ldreq	r1, [pc, #1280]	; a150 <_start+0x17a8>
    9c4c:	0a000002 	beq	9c5c <_start+0x12b4>
    9c50:	e3510002 	cmp	r1, #2
    9c54:	11a0100a 	movne	r1, sl
    9c58:	01a01009 	moveq	r1, r9
    9c5c:	e59f04f0 	ldr	r0, [pc, #1264]	; a154 <_start+0x17ac>
[31m    9c60:	ebfffaf0 	bl	8828 <printf@plt>[0m
    9c64:	e5d53012 	ldrb	r3, [r5, #18]
    9c68:	e59f04e8 	ldr	r0, [pc, #1256]	; a158 <_start+0x17b0>
    9c6c:	e3530000 	cmp	r3, #0
    9c70:	11d434be 	ldrhne	r3, [r4, #78]	; 0x4e
    9c74:	01d414fe 	ldrsheq	r1, [r4, #78]	; 0x4e
    9c78:	11a01423 	lsrne	r1, r3, #8
    9c7c:	11813403 	orrne	r3, r1, r3, lsl #8
    9c80:	16bf1073 	sxthne	r1, r3
[31m    9c84:	ebfffae7 	bl	8828 <printf@plt>[0m
    9c88:	e5d53012 	ldrb	r3, [r5, #18]
    9c8c:	e3530000 	cmp	r3, #0
    9c90:	0a000087 	beq	9eb4 <_start+0x150c>
    9c94:	e5942000 	ldr	r2, [r4]
    9c98:	e6bf2f32 	rev	r2, r2
    9c9c:	e352006d 	cmp	r2, #109	; 0x6d
    9ca0:	13a02000 	movne	r2, #0
    9ca4:	03a02001 	moveq	r2, #1
    9ca8:	e3520000 	cmp	r2, #0
    9cac:	0a000007 	beq	9cd0 <_start+0x1328>
    9cb0:	e3530000 	cmp	r3, #0
    9cb4:	e59f04a0 	ldr	r0, [pc, #1184]	; a15c <_start+0x17b4>
    9cb8:	11d437bc 	ldrhne	r3, [r4, #124]	; 0x7c
    9cbc:	01d417fc 	ldrsheq	r1, [r4, #124]	; 0x7c
    9cc0:	11a02423 	lsrne	r2, r3, #8
    9cc4:	11823403 	orrne	r3, r2, r3, lsl #8
    9cc8:	16bf1073 	sxthne	r1, r3
[31m    9ccc:	ebfffad5 	bl	8828 <printf@plt>[0m
    9cd0:	e59f0488 	ldr	r0, [pc, #1160]	; a160 <_start+0x17b8>
    9cd4:	e1d415d0 	ldrsb	r1, [r4, #80]	; 0x50
[31m    9cd8:	ebfffad2 	bl	8828 <printf@plt>[0m
    9cdc:	e5d43060 	ldrb	r3, [r4, #96]	; 0x60
    9ce0:	e3530000 	cmp	r3, #0
    9ce4:	0a00000e 	beq	9d24 <_start+0x137c>
    9ce8:	e5d52012 	ldrb	r2, [r5, #18]
    9cec:	e59f0470 	ldr	r0, [pc, #1136]	; a164 <_start+0x17bc>
    9cf0:	e3520000 	cmp	r2, #0
    9cf4:	13a03000 	movne	r3, #0
    9cf8:	e5c43060 	strb	r3, [r4, #96]	; 0x60
[31m    9cfc:	ebfffac9 	bl	8828 <printf@plt>[0m
    9d00:	e5d43060 	ldrb	r3, [r4, #96]	; 0x60
    9d04:	e3130001 	tst	r3, #1
    9d08:	1a0000f6 	bne	a0e8 <_start+0x1740>
    9d0c:	e3130002 	tst	r3, #2
    9d10:	1a0000f0 	bne	a0d8 <_start+0x1730>
    9d14:	e3130004 	tst	r3, #4
    9d18:	1a0000eb 	bne	a0cc <_start+0x1724>
    9d1c:	e3a00009 	mov	r0, #9
    9d20:	ebfffaba 	bl	8810 <putchar@plt>
    9d24:	e5d53012 	ldrb	r3, [r5, #18]
    9d28:	e59f0438 	ldr	r0, [pc, #1080]	; a168 <_start+0x17c0>
    9d2c:	e3530000 	cmp	r3, #0
    9d30:	11d434b8 	ldrhne	r3, [r4, #72]	; 0x48
    9d34:	01d414b8 	ldrheq	r1, [r4, #72]	; 0x48
    9d38:	11a02423 	lsrne	r2, r3, #8
    9d3c:	11823403 	orrne	r3, r2, r3, lsl #8
    9d40:	16ff1073 	uxthne	r1, r3
[31m    9d44:	ebfffab7 	bl	8828 <printf@plt>[0m
    9d48:	e2840008 	add	r0, r4, #8
    9d4c:	ebffff41 	bl	9a58 <_start+0x10b0>
    9d50:	e1a01000 	mov	r1, r0
    9d54:	e59f0410 	ldr	r0, [pc, #1040]	; a16c <_start+0x17c4>
[31m    9d58:	ebfffab2 	bl	8828 <printf@plt>[0m
    9d5c:	e59f040c 	ldr	r0, [pc, #1036]	; a170 <_start+0x17c8>
[31m    9d60:	ebfffab0 	bl	8828 <printf@plt>[0m
    9d64:	e5d53012 	ldrb	r3, [r5, #18]
    9d68:	e3530000 	cmp	r3, #0
--
    9d94:	1a000050 	bne	9edc <_start+0x1534>
    9d98:	e3130004 	tst	r3, #4
    9d9c:	1a000053 	bne	9ef0 <_start+0x1548>
    9da0:	e3130008 	tst	r3, #8
    9da4:	1a000056 	bne	9f04 <_start+0x155c>
    9da8:	e3130010 	tst	r3, #16
    9dac:	1a000059 	bne	9f18 <_start+0x1570>
    9db0:	e3130020 	tst	r3, #32
    9db4:	1a00005c 	bne	9f2c <_start+0x1584>
    9db8:	e3130040 	tst	r3, #64	; 0x40
    9dbc:	1a00005f 	bne	9f40 <_start+0x1598>
    9dc0:	e3130080 	tst	r3, #128	; 0x80
    9dc4:	1a000062 	bne	9f54 <_start+0x15ac>
    9dc8:	e3130b01 	tst	r3, #1024	; 0x400
    9dcc:	1a000065 	bne	9f68 <_start+0x15c0>
    9dd0:	e3130a02 	tst	r3, #8192	; 0x2000
    9dd4:	1a000068 	bne	9f7c <_start+0x15d4>
    9dd8:	e3a0000a 	mov	r0, #10
    9ddc:	ebfffa8b 	bl	8810 <putchar@plt>
    9de0:	e59f038c 	ldr	r0, [pc, #908]	; a174 <_start+0x17cc>
[31m    9de4:	ebfffa8f 	bl	8828 <printf@plt>[0m
    9de8:	e5d53012 	ldrb	r3, [r5, #18]
    9dec:	e2840038 	add	r0, r4, #56	; 0x38
--
    9e7c:	13a03000 	movne	r3, #0
    9e80:	03a03001 	moveq	r3, #1
    9e84:	eaffff52 	b	9bd4 <_start+0x122c>
    9e88:	e59f02e8 	ldr	r0, [pc, #744]	; a178 <_start+0x17d0>
    9e8c:	e3a0306d 	mov	r3, #109	; 0x6d
    9e90:	e59f12e4 	ldr	r1, [pc, #740]	; a17c <_start+0x17d4>
    9e94:	e5900000 	ldr	r0, [r0]
[31m    9e98:	ebfffa8c 	bl	88d0 <fprintf@plt>[0m
    9e9c:	e28dd094 	add	sp, sp, #148	; 0x94
    9ea0:	e8bd8ff0 	pop	{r4, r5, r6, r7, r8, r9, sl, fp, pc}
    9ea4:	e5943000 	ldr	r3, [r4]
    9ea8:	e253306b 	subs	r3, r3, #107	; 0x6b
    9eac:	13a03001 	movne	r3, #1
    9eb0:	eaffffdc 	b	9e28 <_start+0x1480>
    9eb4:	e5942000 	ldr	r2, [r4]
    9eb8:	e352006d 	cmp	r2, #109	; 0x6d
    9ebc:	13a02000 	movne	r2, #0
    9ec0:	03a02001 	moveq	r2, #1
    9ec4:	eaffff77 	b	9ca8 <_start+0x1300>
    9ec8:	e59f02b0 	ldr	r0, [pc, #688]	; a180 <_start+0x17d8>
[31m    9ecc:	ebfffa55 	bl	8828 <printf@plt>[0m
    9ed0:	e1d431b0 	ldrh	r3, [r4, #16]
    9ed4:	e3130002 	tst	r3, #2
    9ed8:	0affffae 	beq	9d98 <_start+0x13f0>
    9edc:	e59f02a0 	ldr	r0, [pc, #672]	; a184 <_start+0x17dc>
[31m    9ee0:	ebfffa50 	bl	8828 <printf@plt>[0m
    9ee4:	e1d431b0 	ldrh	r3, [r4, #16]
    9ee8:	e3130004 	tst	r3, #4
    9eec:	0affffab 	beq	9da0 <_start+0x13f8>
    9ef0:	e59f0290 	ldr	r0, [pc, #656]	; a188 <_start+0x17e0>
[31m    9ef4:	ebfffa4b 	bl	8828 <printf@plt>[0m
    9ef8:	e1d431b0 	ldrh	r3, [r4, #16]
    9efc:	e3130008 	tst	r3, #8
    9f00:	0affffa8 	beq	9da8 <_start+0x1400>
    9f04:	e59f0280 	ldr	r0, [pc, #640]	; a18c <_start+0x17e4>
[31m    9f08:	ebfffa46 	bl	8828 <printf@plt>[0m
    9f0c:	e1d431b0 	ldrh	r3, [r4, #16]
    9f10:	e3130010 	tst	r3, #16
    9f14:	0affffa5 	beq	9db0 <_start+0x1408>
    9f18:	e59f0270 	ldr	r0, [pc, #624]	; a190 <_start+0x17e8>
[31m    9f1c:	ebfffa41 	bl	8828 <printf@plt>[0m
    9f20:	e1d431b0 	ldrh	r3, [r4, #16]
    9f24:	e3130020 	tst	r3, #32
    9f28:	0affffa2 	beq	9db8 <_start+0x1410>
    9f2c:	e59f0260 	ldr	r0, [pc, #608]	; a194 <_start+0x17ec>
[31m    9f30:	ebfffa3c 	bl	8828 <printf@plt>[0m
    9f34:	e1d431b0 	ldrh	r3, [r4, #16]
    9f38:	e3130040 	tst	r3, #64	; 0x40
    9f3c:	0affff9f 	beq	9dc0 <_start+0x1418>
    9f40:	e59f0250 	ldr	r0, [pc, #592]	; a198 <_start+0x17f0>
[31m    9f44:	ebfffa37 	bl	8828 <printf@plt>[0m
    9f48:	e1d431b0 	ldrh	r3, [r4, #16]
    9f4c:	e3130080 	tst	r3, #128	; 0x80
    9f50:	0affff9c 	beq	9dc8 <_start+0x1420>
    9f54:	e59f0240 	ldr	r0, [pc, #576]	; a19c <_start+0x17f4>
[31m    9f58:	ebfffa32 	bl	8828 <printf@plt>[0m
    9f5c:	e1d431b0 	ldrh	r3, [r4, #16]
    9f60:	e3130b01 	tst	r3, #1024	; 0x400
    9f64:	0affff99 	beq	9dd0 <_start+0x1428>
    9f68:	e59f0230 	ldr	r0, [pc, #560]	; a1a0 <_start+0x17f8>
[31m    9f6c:	ebfffa2d 	bl	8828 <printf@plt>[0m
    9f70:	e1d431b0 	ldrh	r3, [r4, #16]
    9f74:	e3130a02 	tst	r3, #8192	; 0x2000
    9f78:	0affff96 	beq	9dd8 <_start+0x1430>
    9f7c:	e59f0220 	ldr	r0, [pc, #544]	; a1a4 <_start+0x17fc>
[31m    9f80:	ebfffa28 	bl	8828 <printf@plt>[0m
    9f84:	eaffff93 	b	9dd8 <_start+0x1430>
    9f88:	e59f0218 	ldr	r0, [pc, #536]	; a1a8 <_start+0x1800>
--
    9fa0:	11d434b8 	ldrhne	r3, [r4, #72]	; 0x48
    9fa4:	01d4c4b8 	ldrheq	ip, [r4, #72]	; 0x48
    9fa8:	11a02423 	lsrne	r2, r3, #8
    9fac:	11823403 	orrne	r3, r2, r3, lsl #8
    9fb0:	e30a2d4c 	movw	r2, #44364	; 0xad4c
    9fb4:	e3402000 	movt	r2, #0
    9fb8:	16ffc073 	uxthne	ip, r3
    9fbc:	e31c0903 	tst	ip, #49152	; 0xc000
    9fc0:	e20c3b0e 	and	r3, ip, #14336	; 0x3800
    9fc4:	11a01002 	movne	r1, r2
    9fc8:	e3530b06 	cmp	r3, #6144	; 0x1800
    9fcc:	e1c4c4b8 	strh	ip, [r4, #72]	; 0x48
    9fd0:	e6ef207c 	uxtb	r2, ip
    9fd4:	03a03028 	moveq	r3, #40	; 0x28
    9fd8:	0a000002 	beq	9fe8 <_start+0x1640>
    9fdc:	e3530a01 	cmp	r3, #4096	; 0x1000
    9fe0:	13a0300a 	movne	r3, #10
    9fe4:	03a03014 	moveq	r3, #20
    9fe8:	e59f01bc 	ldr	r0, [pc, #444]	; a1ac <_start+0x1804>
    9fec:	e58dc000 	str	ip, [sp]
[31m    9ff0:	ebfffa0c 	bl	8828 <printf@plt>[0m
    9ff4:	e5d41058 	ldrb	r1, [r4, #88]	; 0x58
    9ff8:	e59f01b0 	ldr	r0, [pc, #432]	; a1b0 <_start+0x1808>
[31m    9ffc:	ebfffa09 	bl	8828 <printf@plt>[0m
    a000:	e59f01ac 	ldr	r0, [pc, #428]	; a1b4 <_start+0x180c>
[31m    a004:	ebfffa07 	bl	8828 <printf@plt>[0m
    a008:	e5d52012 	ldrb	r2, [r5, #18]
    a00c:	e3520000 	cmp	r2, #0
--
    a02c:	e3520000 	cmp	r2, #0
    a030:	16bf1f33 	revne	r1, r3
    a034:	07e012d3 	ubfxeq	r1, r3, #5, #1
    a038:	17e012d1 	ubfxne	r1, r1, #5, #1
    a03c:	e3510000 	cmp	r1, #0
    a040:	1a000034 	bne	a118 <_start+0x1770>
    a044:	e3520000 	cmp	r2, #0
    a048:	16bf1f33 	revne	r1, r3
    a04c:	07e01353 	ubfxeq	r1, r3, #6, #1
    a050:	17e01351 	ubfxne	r1, r1, #6, #1
    a054:	e3510000 	cmp	r1, #0
    a058:	1a000029 	bne	a104 <_start+0x175c>
    a05c:	e3520000 	cmp	r2, #0
    a060:	16bf3f33 	revne	r3, r3
    a064:	07e03453 	ubfxeq	r3, r3, #8, #1
    a068:	17e03453 	ubfxne	r3, r3, #8, #1
    a06c:	e3530000 	cmp	r3, #0
    a070:	1a000020 	bne	a0f8 <_start+0x1750>
    a074:	e59f013c 	ldr	r0, [pc, #316]	; a1b8 <_start+0x1810>
    a078:	e3a0b000 	mov	fp, #0
[31m    a07c:	ebfff9e9 	bl	8828 <printf@plt>[0m
    a080:	ea000002 	b	a090 <_start+0x16e8>
    a084:	e28bb001 	add	fp, fp, #1
    a088:	e35b0080 	cmp	fp, #128	; 0x80
    a08c:	0a00000b 	beq	a0c0 <_start+0x1718>
    a090:	e08421cb 	add	r2, r4, fp, asr #3
    a094:	e20b3007 	and	r3, fp, #7
    a098:	e5d22064 	ldrb	r2, [r2, #100]	; 0x64
    a09c:	e1a03352 	asr	r3, r2, r3
    a0a0:	e3130001 	tst	r3, #1
    a0a4:	0afffff6 	beq	a084 <_start+0x16dc>
    a0a8:	e1a0100b 	mov	r1, fp
    a0ac:	e59f0108 	ldr	r0, [pc, #264]	; a1bc <_start+0x1814>
    a0b0:	e28bb001 	add	fp, fp, #1
[31m    a0b4:	ebfff9db 	bl	8828 <printf@plt>[0m
    a0b8:	e35b0080 	cmp	fp, #128	; 0x80
    a0bc:	1afffff3 	bne	a090 <_start+0x16e8>
    a0c0:	e59f00f8 	ldr	r0, [pc, #248]	; a1c0 <_start+0x1818>
    a0c4:	ebfff9ec 	bl	887c <puts@plt>
    a0c8:	eaffff5b 	b	9e3c <_start+0x1494>
    a0cc:	e59f00f0 	ldr	r0, [pc, #240]	; a1c4 <_start+0x181c>
[31m    a0d0:	ebfff9d4 	bl	8828 <printf@plt>[0m
    a0d4:	eaffff10 	b	9d1c <_start+0x1374>
    a0d8:	e59f00e8 	ldr	r0, [pc, #232]	; a1c8 <_start+0x1820>
[31m    a0dc:	ebfff9d1 	bl	8828 <printf@plt>[0m
    a0e0:	e5d43060 	ldrb	r3, [r4, #96]	; 0x60
    a0e4:	eaffff0a 	b	9d14 <_start+0x136c>
    a0e8:	e59f00dc 	ldr	r0, [pc, #220]	; a1cc <_start+0x1824>
[31m    a0ec:	ebfff9cd 	bl	8828 <printf@plt>[0m
    a0f0:	e5d43060 	ldrb	r3, [r4, #96]	; 0x60
    a0f4:	eaffff04 	b	9d0c <_start+0x1364>
    a0f8:	e59f00d0 	ldr	r0, [pc, #208]	; a1d0 <_start+0x1828>
[31m    a0fc:	ebfff9c9 	bl	8828 <printf@plt>[0m
    a100:	eaffffdb 	b	a074 <_start+0x16cc>
    a104:	e59f00c8 	ldr	r0, [pc, #200]	; a1d4 <_start+0x182c>
[31m    a108:	ebfff9c6 	bl	8828 <printf@plt>[0m
    a10c:	e5d52012 	ldrb	r2, [r5, #18]
    a110:	e5943054 	ldr	r3, [r4, #84]	; 0x54
    a114:	eaffffd0 	b	a05c <_start+0x16b4>
    a118:	e59f00b8 	ldr	r0, [pc, #184]	; a1d8 <_start+0x1830>
[31m    a11c:	ebfff9c1 	bl	8828 <printf@plt>[0m
    a120:	e5d52012 	ldrb	r2, [r5, #18]
    a124:	e5943054 	ldr	r3, [r4, #84]	; 0x54
    a128:	eaffffc5 	b	a044 <_start+0x169c>
    a12c:	e59f00a8 	ldr	r0, [pc, #168]	; a1dc <_start+0x1834>
[31m    a130:	ebfff9bc 	bl	8828 <printf@plt>[0m
    a134:	e5d52012 	ldrb	r2, [r5, #18]
    a138:	e5943054 	ldr	r3, [r4, #84]	; 0x54
--
    a1d8:	0000af3c 	andeq	sl, r0, ip, lsr pc
    a1dc:	0000af34 	andeq	sl, r0, r4, lsr pc
    a1e0:	e92d4030 	push	{r4, r5, lr}
    a1e4:	e24dd00c 	sub	sp, sp, #12
    a1e8:	e1a04000 	mov	r4, r0
    a1ec:	ebfff9a5 	bl	8888 <malloc@plt>
    a1f0:	e2505000 	subs	r5, r0, #0
    a1f4:	0a00000f 	beq	a238 <_start+0x1890>
    a1f8:	e3a01000 	mov	r1, #0
    a1fc:	e1a02004 	mov	r2, r4
    a200:	ebfff9c7 	bl	8924 <memset@plt>
    a204:	e59f3064 	ldr	r3, [pc, #100]	; a270 <_start+0x18c8>
    a208:	e5933000 	ldr	r3, [r3]
    a20c:	e3130004 	tst	r3, #4
    a210:	0a000005 	beq	a22c <_start+0x1884>
    a214:	e59f0058 	ldr	r0, [pc, #88]	; a274 <_start+0x18cc>
    a218:	e3a020e9 	mov	r2, #233	; 0xe9
    a21c:	e59f1054 	ldr	r1, [pc, #84]	; a278 <_start+0x18d0>
    a220:	e1a03005 	mov	r3, r5
    a224:	e58d4000 	str	r4, [sp]
[31m    a228:	ebfff97e 	bl	8828 <printf@plt>[0m
    a22c:	e1a00005 	mov	r0, r5
    a230:	e28dd00c 	add	sp, sp, #12
    a234:	e8bd8030 	pop	{r4, r5, pc}
    a238:	e59f3030 	ldr	r3, [pc, #48]	; a270 <_start+0x18c8>
    a23c:	e5933000 	ldr	r3, [r3]
    a240:	e3130001 	tst	r3, #1
    a244:	1a000003 	bne	a258 <_start+0x18b0>
    a248:	e59f002c 	ldr	r0, [pc, #44]	; a27c <_start+0x18d4>
    a24c:	ebfff987 	bl	8870 <perror@plt>
    a250:	e3e00000 	mvn	r0, #0
    a254:	ebfff9cd 	bl	8990 <exit@plt>
    a258:	e3a020e3 	mov	r2, #227	; 0xe3
    a25c:	e59f1014 	ldr	r1, [pc, #20]	; a278 <_start+0x18d0>
    a260:	e1a03004 	mov	r3, r4
    a264:	e59f0014 	ldr	r0, [pc, #20]	; a280 <_start+0x18d8>
[31m    a268:	ebfff96e 	bl	8828 <printf@plt>[0m
    a26c:	eafffff5 	b	a248 <_start+0x18a0>
    a270:	000131d8 	ldrdeq	r3, [r1], -r8
--
    a448:	e354000a 	cmp	r4, #10
    a44c:	e2855008 	add	r5, r5, #8
    a450:	0a000013 	beq	a4a4 <_start+0x1afc>
    a454:	e3540008 	cmp	r4, #8
    a458:	13540000 	cmpne	r4, #0
    a45c:	e2844001 	add	r4, r4, #1
    a460:	1afffff8 	bne	a448 <_start+0x1aa0>
    a464:	e1a03007 	mov	r3, r7
    a468:	e28d1010 	add	r1, sp, #16
    a46c:	e7b3e005 	ldr	lr, [r3, r5]!
    a470:	e0812106 	add	r2, r1, r6, lsl #2
    a474:	e59f003c 	ldr	r0, [pc, #60]	; a4b8 <_start+0x1b10>
    a478:	e2866001 	add	r6, r6, #1
    a47c:	e5121008 	ldr	r1, [r2, #-8]
    a480:	e2855008 	add	r5, r5, #8
    a484:	e593c004 	ldr	ip, [r3, #4]
    a488:	e1a0200e 	mov	r2, lr
    a48c:	e1a0300c 	mov	r3, ip
    a490:	e00c0c9e 	mul	ip, lr, ip
    a494:	e58dc000 	str	ip, [sp]
[31m    a498:	ebfff8e2 	bl	8828 <printf@plt>[0m
    a49c:	e354000a 	cmp	r4, #10
    a4a0:	1affffeb 	bne	a454 <_start+0x1aac>

[0m
[[0;33m*[0m] Function [0;33mprintf[0m used [0;33m52[0m times [0;33macs_cli[0m

