[[0;33m*[0m] Binary protection state of [0;33mlibip4tc.so.0.0.0[0m
[REF] s12

  	RELRO          CANARY            NX           PIE       RPATH        RUNPATH      SYMBOLS      
  	[31mNo RELRO[0m       [31mNo Canary found[0m   [32mNX enabled[0m   [33mDSO[0m          [32mNo RPATH[0m     [32mNo RUNPATH[0m   [31mSymbols[0m

[0m
[[0;33m*[0m] Function [0;33mfprintf[0m tear down of [0;33mlibip4tc.so.0.0.0[0m

    1288:	e2882001 	add	r2, r8, #1
    128c:	e1a0000c 	mov	r0, ip
    1290:	e7991102 	ldr	r1, [r9, r2, lsl #2]
    1294:	e88d1008 	stm	sp, {r3, ip}
    1298:	e2811008 	add	r1, r1, #8
    129c:	ebfffeb1 	bl	d68 <strcmp@plt>
    12a0:	e89d1008 	ldm	sp, {r3, ip}
    12a4:	e3500000 	cmp	r0, #0
    12a8:	aa000012 	bge	12f8 <__iptcc_bsearch_chain_index+0x100>
    12ac:	e1a00007 	mov	r0, r7
    12b0:	e28dd00c 	add	sp, sp, #12
    12b4:	e8bd8ff0 	pop	{r4, r5, r6, r7, r8, r9, sl, fp, pc}
    12b8:	e35a0001 	cmp	sl, #1
    12bc:	0a000007 	beq	12e0 <__iptcc_bsearch_chain_index+0xe8>
    12c0:	e59f3094 	ldr	r3, [pc, #148]	; 135c <__iptcc_bsearch_chain_index+0x164>
    12c4:	e1a0200a 	mov	r2, sl
    12c8:	e59f1090 	ldr	r1, [pc, #144]	; 1360 <__iptcc_bsearch_chain_index+0x168>
    12cc:	e7943003 	ldr	r3, [r4, r3]
    12d0:	e0841001 	add	r1, r4, r1
    12d4:	e5930000 	ldr	r0, [r3]
[31m    12d8:	ebfffe93 	bl	d2c <fprintf@plt>[0m
    12dc:	ebfffe8c 	bl	d14 <abort@plt>
    12e0:	e5970060 	ldr	r0, [r7, #96]	; 0x60
--
    1300:	eaffffcb 	b	1234 <__iptcc_bsearch_chain_index+0x3c>
    1304:	e3580000 	cmp	r8, #0
    1308:	0affffe7 	beq	12ac <__iptcc_bsearch_chain_index+0xb4>
    130c:	e1a06008 	mov	r6, r8
    1310:	e595901c 	ldr	r9, [r5, #28]
    1314:	e1a080a8 	lsr	r8, r8, #1
    1318:	eaffffc5 	b	1234 <__iptcc_bsearch_chain_index+0x3c>
    131c:	e595901c 	ldr	r9, [r5, #28]
    1320:	e2882001 	add	r2, r8, #1
    1324:	e7992102 	ldr	r2, [r9, r2, lsl #2]
    1328:	e5920060 	ldr	r0, [r2, #96]	; 0x60
    132c:	e0600003 	rsb	r0, r0, r3
    1330:	eaffffdb 	b	12a4 <__iptcc_bsearch_chain_index+0xac>
    1334:	e59f3020 	ldr	r3, [pc, #32]	; 135c <__iptcc_bsearch_chain_index+0x164>
    1338:	e1a02008 	mov	r2, r8
    133c:	e59f1020 	ldr	r1, [pc, #32]	; 1364 <__iptcc_bsearch_chain_index+0x16c>
    1340:	e2857008 	add	r7, r5, #8
    1344:	e7943003 	ldr	r3, [r4, r3]
    1348:	e0841001 	add	r1, r4, r1
    134c:	e5930000 	ldr	r0, [r3]
[31m    1350:	ebfffe75 	bl	d2c <fprintf@plt>[0m
    1354:	eaffffd4 	b	12ac <__iptcc_bsearch_chain_index+0xb4>
    1358:	0000b808 	.word	0x0000b808
--
    1e74:	ea000003 	b	1e88 <standard_target_map+0x3c>
    1e78:	eaffffff 	b	1e7c <standard_target_map+0x30>
    1e7c:	e59f004c 	ldr	r0, [pc, #76]	; 1ed0 <standard_target_map+0x84>
    1e80:	e0830000 	add	r0, r3, r0
    1e84:	e8bd8008 	pop	{r3, pc}
    1e88:	e59f0044 	ldr	r0, [pc, #68]	; 1ed4 <standard_target_map+0x88>
    1e8c:	e0830000 	add	r0, r3, r0
    1e90:	e8bd8008 	pop	{r3, pc}
    1e94:	e59f003c 	ldr	r0, [pc, #60]	; 1ed8 <standard_target_map+0x8c>
    1e98:	e0830000 	add	r0, r3, r0
    1e9c:	e8bd8008 	pop	{r3, pc}
    1ea0:	e59f0034 	ldr	r0, [pc, #52]	; 1edc <standard_target_map+0x90>
    1ea4:	e0830000 	add	r0, r3, r0
    1ea8:	e8bd8008 	pop	{r3, pc}
    1eac:	e59f102c 	ldr	r1, [pc, #44]	; 1ee0 <standard_target_map+0x94>
    1eb0:	e1a02000 	mov	r2, r0
    1eb4:	e7930001 	ldr	r0, [r3, r1]
    1eb8:	e59f1024 	ldr	r1, [pc, #36]	; 1ee4 <standard_target_map+0x98>
    1ebc:	e5900000 	ldr	r0, [r0]
    1ec0:	e0831001 	add	r1, r3, r1
[31m    1ec4:	ebfffb98 	bl	d2c <fprintf@plt>[0m
    1ec8:	ebfffb91 	bl	d14 <abort@plt>
    1ecc:	0000abd4 	.word	0x0000abd4
--
    25bc:	e5f34001 	ldrb	r4, [r3, #1]!
    25c0:	e5f1c001 	ldrb	ip, [r1, #1]!
    25c4:	e0284004 	eor	r4, r8, r4
    25c8:	e114000c 	tst	r4, ip
    25cc:	1a000010 	bne	2614 <delete_entry+0x494>
    25d0:	e2822001 	add	r2, r2, #1
    25d4:	e1520009 	cmp	r2, r9
    25d8:	3afffff6 	bcc	25b8 <delete_entry+0x438>
    25dc:	eaffffbe 	b	24dc <delete_entry+0x35c>
    25e0:	e5951020 	ldr	r1, [r5, #32]
    25e4:	e59a2020 	ldr	r2, [sl, #32]
    25e8:	e1510002 	cmp	r1, r2
    25ec:	13a02000 	movne	r2, #0
    25f0:	03a02001 	moveq	r2, #1
    25f4:	eaffffb6 	b	24d4 <delete_entry+0x354>
    25f8:	e59f30f8 	ldr	r3, [pc, #248]	; 26f8 <delete_entry+0x578>
    25fc:	e59f10f8 	ldr	r1, [pc, #248]	; 26fc <delete_entry+0x57c>
    2600:	e79b3003 	ldr	r3, [fp, r3]
    2604:	e08b1001 	add	r1, fp, r1
    2608:	e5930000 	ldr	r0, [r3]
[31m    260c:	ebfff9c6 	bl	d2c <fprintf@plt>[0m
    2610:	ebfff9bf 	bl	d14 <abort@plt>
    2614:	e1a0800b 	mov	r8, fp
--
    40cc:	e2811001 	add	r1, r1, #1
    40d0:	e154000c 	cmp	r4, ip
    40d4:	1afffff7 	bne	40b8 <dump_entries+0x3cc>
    40d8:	e58d801c 	str	r8, [sp, #28]
    40dc:	eaffff57 	b	3e40 <dump_entries+0x154>
    40e0:	e1a00006 	mov	r0, r6
    40e4:	e59d1054 	ldr	r1, [sp, #84]	; 0x54
    40e8:	ebfff31e 	bl	d68 <strcmp@plt>
    40ec:	e3500000 	cmp	r0, #0
    40f0:	1affffdf 	bne	4074 <dump_entries+0x388>
    40f4:	e59d005c 	ldr	r0, [sp, #92]	; 0x5c
    40f8:	e2851020 	add	r1, r5, #32
    40fc:	ebfff2f2 	bl	ccc <printf@plt>
    4100:	eaffffdb 	b	4074 <dump_entries+0x388>
    4104:	e59f30c8 	ldr	r3, [pc, #200]	; 41d4 <dump_entries+0x4e8>
    4108:	e0622004 	rsb	r2, r2, r4
    410c:	e59f10c4 	ldr	r1, [pc, #196]	; 41d8 <dump_entries+0x4ec>
    4110:	e7973003 	ldr	r3, [r7, r3]
    4114:	e0871001 	add	r1, r7, r1
    4118:	e5930000 	ldr	r0, [r3]
[31m    411c:	ebfff302 	bl	d2c <fprintf@plt>[0m
    4120:	ebfff2fb 	bl	d14 <abort@plt>
    4124:	e59d0058 	ldr	r0, [sp, #88]	; 0x58

[0m
[[0;33m*[0m] Function [0;33mfprintf[0m used [0;33m5[0m times [0;33mlibip4tc.so.0.0.0[0m

