[[0;33m*[0m] Binary protection state of [0;33mhttpd[0m
[REF] s12

  	RELRO          CANARY            NX           PIE       RPATH        RUNPATH      SYMBOLS      
  	[31mNo RELRO[0m       [31mNo Canary found[0m   [32mNX enabled[0m   [31mNo PIE[0m       [32mNo RPATH[0m     [32mNo RUNPATH[0m   [32mNo Symbols[0m

[0m
[[0;33m*[0m] Function [0;33msystem[0m tear down of [0;33mhttpd[0m

   155cc:	e3500000 	cmp	r0, #0
   155d0:	0a00001e 	beq	15650 <_start@@Base+0xac84>
   155d4:	e28d3088 	add	r3, sp, #136	; 0x88
   155d8:	e28d4004 	add	r4, sp, #4
   155dc:	e5230004 	str	r0, [r3, #-4]!
   155e0:	e1a00003 	mov	r0, r3
   155e4:	e59f1078 	ldr	r1, [pc, #120]	; 15664 <_start@@Base+0xac98>
   155e8:	ebffd488 	bl	a810 <strsep@plt>
   155ec:	e1a01005 	mov	r1, r5
   155f0:	e3a02080 	mov	r2, #128	; 0x80
   155f4:	e1a00004 	mov	r0, r4
   155f8:	ebffd44e 	bl	a738 <memset@plt>
   155fc:	e59f3064 	ldr	r3, [pc, #100]	; 15668 <_start@@Base+0xac9c>
   15600:	e1a0c004 	mov	ip, r4
   15604:	e893000f 	ldm	r3, {r0, r1, r2, r3}
   15608:	e8ac0007 	stmia	ip!, {r0, r1, r2}
   1560c:	e1a00004 	mov	r0, r4
   15610:	e1a02823 	lsr	r2, r3, #16
   15614:	e1cc30b0 	strh	r3, [ip]
   15618:	e5cd2012 	strb	r2, [sp, #18]
[31m   1561c:	ebffd340 	bl	a324 <system@plt>[0m
   15620:	e1a00006 	mov	r0, r6
   15624:	e59f1040 	ldr	r1, [pc, #64]	; 1566c <_start@@Base+0xaca0>
--
   15698:	e3500000 	cmp	r0, #0
   1569c:	0a00001e 	beq	1571c <_start@@Base+0xad50>
   156a0:	e28d3088 	add	r3, sp, #136	; 0x88
   156a4:	e28d5004 	add	r5, sp, #4
   156a8:	e5230004 	str	r0, [r3, #-4]!
   156ac:	e1a00003 	mov	r0, r3
   156b0:	e59f1078 	ldr	r1, [pc, #120]	; 15730 <_start@@Base+0xad64>
   156b4:	ebffd455 	bl	a810 <strsep@plt>
   156b8:	e1a01004 	mov	r1, r4
   156bc:	e3a02080 	mov	r2, #128	; 0x80
   156c0:	e1a00005 	mov	r0, r5
   156c4:	ebffd41b 	bl	a738 <memset@plt>
   156c8:	e59f0064 	ldr	r0, [pc, #100]	; 15734 <_start@@Base+0xad68>
   156cc:	ebffd4f3 	bl	aaa0 <_start@@Base+0xd4>
   156d0:	ebffd475 	bl	a8ac <atoi@plt>
   156d4:	e59f105c 	ldr	r1, [pc, #92]	; 15738 <_start@@Base+0xad6c>
   156d8:	e1a02000 	mov	r2, r0
   156dc:	e1a00005 	mov	r0, r5
   156e0:	ebffd43b 	bl	a7d4 <sprintf@plt>
   156e4:	e1a00005 	mov	r0, r5
[31m   156e8:	ebffd30d 	bl	a324 <system@plt>[0m
   156ec:	e1a00006 	mov	r0, r6
   156f0:	e59f1044 	ldr	r1, [pc, #68]	; 1573c <_start@@Base+0xad70>
--
   15738:	0004990c 	andeq	r9, r4, ip, lsl #18
   1573c:	000498e4 	andeq	r9, r4, r4, ror #17
   15740:	00047b28 	andeq	r7, r4, r8, lsr #22
   15744:	00047b30 	andeq	r7, r4, r0, lsr fp
   15748:	00044e78 	andeq	r4, r4, r8, ror lr
   1574c:	00047b8c 	andeq	r7, r4, ip, lsl #23
   15750:	e92d4030 	push	{r4, r5, lr}
   15754:	e2515000 	subs	r5, r1, #0
   15758:	e24dd00c 	sub	sp, sp, #12
   1575c:	e3a04000 	mov	r4, #0
   15760:	e58d4004 	str	r4, [sp, #4]
   15764:	0a00000f 	beq	157a8 <_start@@Base+0xaddc>
   15768:	e3500000 	cmp	r0, #0
   1576c:	0a000012 	beq	157bc <_start@@Base+0xadf0>
   15770:	e28d3008 	add	r3, sp, #8
   15774:	e59f1054 	ldr	r1, [pc, #84]	; 157d0 <_start@@Base+0xae04>
   15778:	e5230004 	str	r0, [r3, #-4]!
   1577c:	e1a00003 	mov	r0, r3
   15780:	ebffd422 	bl	a810 <strsep@plt>
   15784:	e59f0048 	ldr	r0, [pc, #72]	; 157d4 <_start@@Base+0xae08>
[31m   15788:	ebffd2e5 	bl	a324 <system@plt>[0m
   1578c:	e1a00005 	mov	r0, r5
   15790:	e59f1040 	ldr	r1, [pc, #64]	; 157d8 <_start@@Base+0xae0c>
--
   15834:	e3540000 	cmp	r4, #0
   15838:	e1a0500d 	mov	r5, sp
   1583c:	0a000007 	beq	15860 <_start@@Base+0xae94>
   15840:	e5d43000 	ldrb	r3, [r4]
   15844:	e3530000 	cmp	r3, #0
   15848:	0a000004 	beq	15860 <_start@@Base+0xae94>
   1584c:	e1a00004 	mov	r0, r4
   15850:	e3a0103b 	mov	r1, #59	; 0x3b
   15854:	ebffd435 	bl	a930 <strchr@plt>
   15858:	e3500000 	cmp	r0, #0
   1585c:	0a000003 	beq	15870 <_start@@Base+0xaea4>
   15860:	e3a00000 	mov	r0, #0
   15864:	ebffd4c1 	bl	ab70 <_start@@Base+0x1a4>
   15868:	e28ddf41 	add	sp, sp, #260	; 0x104
   1586c:	e8bd80f0 	pop	{r4, r5, r6, r7, pc}
   15870:	e59f104c 	ldr	r1, [pc, #76]	; 158c4 <_start@@Base+0xaef8>
   15874:	e1a02004 	mov	r2, r4
   15878:	e1a0000d 	mov	r0, sp
   1587c:	ebffd3d4 	bl	a7d4 <sprintf@plt>
   15880:	e1a0000d 	mov	r0, sp
[31m   15884:	ebffd2a6 	bl	a324 <system@plt>[0m
   15888:	e1a00006 	mov	r0, r6
   1588c:	e59f1034 	ldr	r1, [pc, #52]	; 158c8 <_start@@Base+0xaefc>
--
   158c4:	00049960 	andeq	r9, r4, r0, ror #18
   158c8:	0004996c 	andeq	r9, r4, ip, ror #18
   158cc:	00047b28 	andeq	r7, r4, r8, lsr #22
   158d0:	00047b30 	andeq	r7, r4, r0, lsr fp
   158d4:	00044ea0 	andeq	r4, r4, r0, lsr #29
   158d8:	00047b8c 	andeq	r7, r4, ip, lsl #23
   158dc:	e3510000 	cmp	r1, #0
   158e0:	e92d4010 	push	{r4, lr}
   158e4:	e3a04000 	mov	r4, #0
   158e8:	e24dd008 	sub	sp, sp, #8
   158ec:	e58d4004 	str	r4, [sp, #4]
   158f0:	0a000012 	beq	15940 <_start@@Base+0xaf74>
   158f4:	e3500000 	cmp	r0, #0
   158f8:	0a000015 	beq	15954 <_start@@Base+0xaf88>
   158fc:	e28d3008 	add	r3, sp, #8
   15900:	e59f1060 	ldr	r1, [pc, #96]	; 15968 <_start@@Base+0xaf9c>
   15904:	e5230004 	str	r0, [r3, #-4]!
   15908:	e1a00003 	mov	r0, r3
   1590c:	ebffd3bf 	bl	a810 <strsep@plt>
   15910:	e59f0054 	ldr	r0, [pc, #84]	; 1596c <_start@@Base+0xafa0>
[31m   15914:	ebffd282 	bl	a324 <system@plt>[0m
   15918:	e59f0050 	ldr	r0, [pc, #80]	; 15970 <_start@@Base+0xafa4>
[31m   1591c:	ebffd280 	bl	a324 <system@plt>[0m
   15920:	e59f004c 	ldr	r0, [pc, #76]	; 15974 <_start@@Base+0xafa8>
[31m   15924:	ebffd27e 	bl	a324 <system@plt>[0m
   15928:	e59f0048 	ldr	r0, [pc, #72]	; 15978 <_start@@Base+0xafac>
[31m   1592c:	ebffd27c 	bl	a324 <system@plt>[0m
   15930:	e1a00004 	mov	r0, r4
   15934:	ebffd48d 	bl	ab70 <_start@@Base+0x1a4>
--
   15b34:	00047b28 	andeq	r7, r4, r8, lsr #22
   15b38:	00047b30 	andeq	r7, r4, r0, lsr fp
   15b3c:	00044ee0 	andeq	r4, r4, r0, ror #29
   15b40:	00047b8c 	andeq	r7, r4, ip, lsl #23
   15b44:	e3510000 	cmp	r1, #0
   15b48:	e92d4010 	push	{r4, lr}
   15b4c:	e3a04000 	mov	r4, #0
   15b50:	e24dd008 	sub	sp, sp, #8
   15b54:	e58d4004 	str	r4, [sp, #4]
   15b58:	0a00000e 	beq	15b98 <_start@@Base+0xb1cc>
   15b5c:	e3500000 	cmp	r0, #0
   15b60:	0a000011 	beq	15bac <_start@@Base+0xb1e0>
   15b64:	e28d3008 	add	r3, sp, #8
   15b68:	e59f1050 	ldr	r1, [pc, #80]	; 15bc0 <_start@@Base+0xb1f4>
   15b6c:	e5230004 	str	r0, [r3, #-4]!
   15b70:	e1a00003 	mov	r0, r3
   15b74:	ebffd325 	bl	a810 <strsep@plt>
   15b78:	e59f0044 	ldr	r0, [pc, #68]	; 15bc4 <_start@@Base+0xb1f8>
   15b7c:	ebffd1e2 	bl	a30c <puts@plt>
   15b80:	e59f0040 	ldr	r0, [pc, #64]	; 15bc8 <_start@@Base+0xb1fc>
[31m   15b84:	ebffd1e6 	bl	a324 <system@plt>[0m
   15b88:	e1a00004 	mov	r0, r4
   15b8c:	ebffd3f7 	bl	ab70 <_start@@Base+0x1a4>
--
   160b0:	ebffd21b 	bl	a924 <__assert@plt>
   160b4:	0007a240 	andeq	sl, r7, r0, asr #4
   160b8:	00047b8c 	andeq	r7, r4, ip, lsl #23
   160bc:	00047b30 	andeq	r7, r4, r0, lsr fp
   160c0:	00044f18 	andeq	r4, r4, r8, lsl pc
   160c4:	00047b28 	andeq	r7, r4, r8, lsr #22
   160c8:	e92d4030 	push	{r4, r5, lr}
   160cc:	e2514000 	subs	r4, r1, #0
   160d0:	e24dd00c 	sub	sp, sp, #12
   160d4:	e3a05000 	mov	r5, #0
   160d8:	e58d5004 	str	r5, [sp, #4]
   160dc:	0a00001b 	beq	16150 <_start@@Base+0xb784>
   160e0:	e3500000 	cmp	r0, #0
   160e4:	0a00001e 	beq	16164 <_start@@Base+0xb798>
   160e8:	e28d3008 	add	r3, sp, #8
   160ec:	e59f1084 	ldr	r1, [pc, #132]	; 16178 <_start@@Base+0xb7ac>
   160f0:	e5230004 	str	r0, [r3, #-4]!
   160f4:	e1a00003 	mov	r0, r3
   160f8:	ebffd1c4 	bl	a810 <strsep@plt>
   160fc:	e59f0078 	ldr	r0, [pc, #120]	; 1617c <_start@@Base+0xb7b0>
[31m   16100:	ebffd087 	bl	a324 <system@plt>[0m
   16104:	e59f0074 	ldr	r0, [pc, #116]	; 16180 <_start@@Base+0xb7b4>
[31m   16108:	ebffd085 	bl	a324 <system@plt>[0m
   1610c:	e59f0070 	ldr	r0, [pc, #112]	; 16184 <_start@@Base+0xb7b8>
[31m   16110:	ebffd083 	bl	a324 <system@plt>[0m
   16114:	e59f006c 	ldr	r0, [pc, #108]	; 16188 <_start@@Base+0xb7bc>
[31m   16118:	ebffd081 	bl	a324 <system@plt>[0m
   1611c:	e59f0068 	ldr	r0, [pc, #104]	; 1618c <_start@@Base+0xb7c0>
[31m   16120:	ebffd07f 	bl	a324 <system@plt>[0m
   16124:	e1a01004 	mov	r1, r4
   16128:	e3a00031 	mov	r0, #49	; 0x31
--
   16318:	e59f04f4 	ldr	r0, [pc, #1268]	; 16814 <_start@@Base+0xbe48>
   1631c:	e3a01001 	mov	r1, #1
   16320:	e3a0200b 	mov	r2, #11
   16324:	e1a03004 	mov	r3, r4
   16328:	ebffd144 	bl	a840 <fwrite@plt>
   1632c:	e1a00004 	mov	r0, r4
   16330:	ebffd10c 	bl	a768 <fclose@plt>
   16334:	e59f04d4 	ldr	r0, [pc, #1236]	; 16810 <_start@@Base+0xbe44>
   16338:	e59f14cc 	ldr	r1, [pc, #1228]	; 1680c <_start@@Base+0xbe40>
   1633c:	ebffd0f1 	bl	a708 <fopen@plt>
   16340:	e2504000 	subs	r4, r0, #0
   16344:	0a000006 	beq	16364 <_start@@Base+0xb998>
   16348:	e59f04c8 	ldr	r0, [pc, #1224]	; 16818 <_start@@Base+0xbe4c>
   1634c:	e3a01001 	mov	r1, #1
   16350:	e3a02018 	mov	r2, #24
   16354:	e1a03004 	mov	r3, r4
   16358:	ebffd138 	bl	a840 <fwrite@plt>
   1635c:	e1a00004 	mov	r0, r4
   16360:	ebffd100 	bl	a768 <fclose@plt>
   16364:	e59f04b0 	ldr	r0, [pc, #1200]	; 1681c <_start@@Base+0xbe50>
[31m   16368:	ebffcfed 	bl	a324 <system@plt>[0m
   1636c:	e59f049c 	ldr	r0, [pc, #1180]	; 16810 <_start@@Base+0xbe44>
   16370:	e59f1494 	ldr	r1, [pc, #1172]	; 1680c <_start@@Base+0xbe40>
   16374:	ebffd0e3 	bl	a708 <fopen@plt>
   16378:	e2504000 	subs	r4, r0, #0
   1637c:	0a000006 	beq	1639c <_start@@Base+0xb9d0>
   16380:	e59f0498 	ldr	r0, [pc, #1176]	; 16820 <_start@@Base+0xbe54>
   16384:	e3a01001 	mov	r1, #1
   16388:	e3a02017 	mov	r2, #23
   1638c:	e1a03004 	mov	r3, r4
   16390:	ebffd12a 	bl	a840 <fwrite@plt>
   16394:	e1a00004 	mov	r0, r4
   16398:	ebffd0f2 	bl	a768 <fclose@plt>
   1639c:	e59f0480 	ldr	r0, [pc, #1152]	; 16824 <_start@@Base+0xbe58>
[31m   163a0:	ebffcfdf 	bl	a324 <system@plt>[0m
   163a4:	e59f0464 	ldr	r0, [pc, #1124]	; 16810 <_start@@Base+0xbe44>
   163a8:	e59f145c 	ldr	r1, [pc, #1116]	; 1680c <_start@@Base+0xbe40>
   163ac:	ebffd0d5 	bl	a708 <fopen@plt>
   163b0:	e2504000 	subs	r4, r0, #0
   163b4:	0a000006 	beq	163d4 <_start@@Base+0xba08>
   163b8:	e59f0468 	ldr	r0, [pc, #1128]	; 16828 <_start@@Base+0xbe5c>
   163bc:	e3a01001 	mov	r1, #1
   163c0:	e3a02016 	mov	r2, #22
   163c4:	e1a03004 	mov	r3, r4
   163c8:	ebffd11c 	bl	a840 <fwrite@plt>
   163cc:	e1a00004 	mov	r0, r4
   163d0:	ebffd0e4 	bl	a768 <fclose@plt>
   163d4:	e59f0450 	ldr	r0, [pc, #1104]	; 1682c <_start@@Base+0xbe60>
[31m   163d8:	ebffcfd1 	bl	a324 <system@plt>[0m
   163dc:	e59f042c 	ldr	r0, [pc, #1068]	; 16810 <_start@@Base+0xbe44>
   163e0:	e59f1424 	ldr	r1, [pc, #1060]	; 1680c <_start@@Base+0xbe40>
   163e4:	ebffd0c7 	bl	a708 <fopen@plt>
   163e8:	e2504000 	subs	r4, r0, #0
   163ec:	0a000005 	beq	16408 <_start@@Base+0xba3c>
   163f0:	e59f1438 	ldr	r1, [pc, #1080]	; 16830 <_start@@Base+0xbe64>
   163f4:	e30035ae 	movw	r3, #1454	; 0x5ae
   163f8:	e59f2434 	ldr	r2, [pc, #1076]	; 16834 <_start@@Base+0xbe68>
   163fc:	ebffd037 	bl	a4e0 <fprintf@plt>
   16400:	e1a00004 	mov	r0, r4
   16404:	ebffd0d7 	bl	a768 <fclose@plt>
   16408:	e59f0428 	ldr	r0, [pc, #1064]	; 16838 <_start@@Base+0xbe6c>
[31m   1640c:	ebffcfc4 	bl	a324 <system@plt>[0m
   16410:	e59f03f8 	ldr	r0, [pc, #1016]	; 16810 <_start@@Base+0xbe44>
   16414:	e59f13f0 	ldr	r1, [pc, #1008]	; 1680c <_start@@Base+0xbe40>
   16418:	ebffd0ba 	bl	a708 <fopen@plt>
   1641c:	e2504000 	subs	r4, r0, #0
   16420:	0a000005 	beq	1643c <_start@@Base+0xba70>
   16424:	e59f1410 	ldr	r1, [pc, #1040]	; 1683c <_start@@Base+0xbe70>
   16428:	e30035b2 	movw	r3, #1458	; 0x5b2
   1642c:	e59f2400 	ldr	r2, [pc, #1024]	; 16834 <_start@@Base+0xbe68>
   16430:	ebffd02a 	bl	a4e0 <fprintf@plt>
   16434:	e1a00004 	mov	r0, r4
   16438:	ebffd0ca 	bl	a768 <fclose@plt>
   1643c:	e59f03fc 	ldr	r0, [pc, #1020]	; 16840 <_start@@Base+0xbe74>
[31m   16440:	ebffcfb7 	bl	a324 <system@plt>[0m
   16444:	e59f03c4 	ldr	r0, [pc, #964]	; 16810 <_start@@Base+0xbe44>
   16448:	e59f13bc 	ldr	r1, [pc, #956]	; 1680c <_start@@Base+0xbe40>
   1644c:	ebffd0ad 	bl	a708 <fopen@plt>
   16450:	e2504000 	subs	r4, r0, #0
   16454:	0a000005 	beq	16470 <_start@@Base+0xbaa4>
   16458:	e59f13e4 	ldr	r1, [pc, #996]	; 16844 <_start@@Base+0xbe78>
   1645c:	e30035b6 	movw	r3, #1462	; 0x5b6
   16460:	e59f23cc 	ldr	r2, [pc, #972]	; 16834 <_start@@Base+0xbe68>
   16464:	ebffd01d 	bl	a4e0 <fprintf@plt>
   16468:	e1a00004 	mov	r0, r4
   1646c:	ebffd0bd 	bl	a768 <fclose@plt>
   16470:	e59f03d0 	ldr	r0, [pc, #976]	; 16848 <_start@@Base+0xbe7c>
[31m   16474:	ebffcfaa 	bl	a324 <system@plt>[0m
   16478:	e59f0390 	ldr	r0, [pc, #912]	; 16810 <_start@@Base+0xbe44>
   1647c:	e59f1388 	ldr	r1, [pc, #904]	; 1680c <_start@@Base+0xbe40>
   16480:	ebffd0a0 	bl	a708 <fopen@plt>
   16484:	e2504000 	subs	r4, r0, #0
   16488:	0a000005 	beq	164a4 <_start@@Base+0xbad8>
   1648c:	e59f13b8 	ldr	r1, [pc, #952]	; 1684c <_start@@Base+0xbe80>
   16490:	e30035ba 	movw	r3, #1466	; 0x5ba
   16494:	e59f2398 	ldr	r2, [pc, #920]	; 16834 <_start@@Base+0xbe68>
   16498:	ebffd010 	bl	a4e0 <fprintf@plt>
   1649c:	e1a00004 	mov	r0, r4
   164a0:	ebffd0b0 	bl	a768 <fclose@plt>
   164a4:	e59f03a4 	ldr	r0, [pc, #932]	; 16850 <_start@@Base+0xbe84>
[31m   164a8:	ebffcf9d 	bl	a324 <system@plt>[0m
   164ac:	e59f035c 	ldr	r0, [pc, #860]	; 16810 <_start@@Base+0xbe44>
   164b0:	e59f1354 	ldr	r1, [pc, #852]	; 1680c <_start@@Base+0xbe40>
   164b4:	ebffd093 	bl	a708 <fopen@plt>
   164b8:	e2504000 	subs	r4, r0, #0
   164bc:	0a000005 	beq	164d8 <_start@@Base+0xbb0c>
   164c0:	e59f138c 	ldr	r1, [pc, #908]	; 16854 <_start@@Base+0xbe88>
   164c4:	e30035be 	movw	r3, #1470	; 0x5be
   164c8:	e59f2364 	ldr	r2, [pc, #868]	; 16834 <_start@@Base+0xbe68>
   164cc:	ebffd003 	bl	a4e0 <fprintf@plt>
   164d0:	e1a00004 	mov	r0, r4
   164d4:	ebffd0a3 	bl	a768 <fclose@plt>
   164d8:	e59f0378 	ldr	r0, [pc, #888]	; 16858 <_start@@Base+0xbe8c>
[31m   164dc:	ebffcf90 	bl	a324 <system@plt>[0m
   164e0:	e59f0328 	ldr	r0, [pc, #808]	; 16810 <_start@@Base+0xbe44>
   164e4:	e59f1320 	ldr	r1, [pc, #800]	; 1680c <_start@@Base+0xbe40>
   164e8:	ebffd086 	bl	a708 <fopen@plt>
   164ec:	e2504000 	subs	r4, r0, #0
   164f0:	0a000005 	beq	1650c <_start@@Base+0xbb40>
   164f4:	e59f1360 	ldr	r1, [pc, #864]	; 1685c <_start@@Base+0xbe90>
   164f8:	e30035c2 	movw	r3, #1474	; 0x5c2
   164fc:	e59f2330 	ldr	r2, [pc, #816]	; 16834 <_start@@Base+0xbe68>
   16500:	ebffcff6 	bl	a4e0 <fprintf@plt>
   16504:	e1a00004 	mov	r0, r4
   16508:	ebffd096 	bl	a768 <fclose@plt>
   1650c:	e59f034c 	ldr	r0, [pc, #844]	; 16860 <_start@@Base+0xbe94>
[31m   16510:	ebffcf83 	bl	a324 <system@plt>[0m
   16514:	e59f02f4 	ldr	r0, [pc, #756]	; 16810 <_start@@Base+0xbe44>
   16518:	e59f12ec 	ldr	r1, [pc, #748]	; 1680c <_start@@Base+0xbe40>
   1651c:	ebffd079 	bl	a708 <fopen@plt>
   16520:	e2504000 	subs	r4, r0, #0
   16524:	0a000005 	beq	16540 <_start@@Base+0xbb74>
   16528:	e59f1334 	ldr	r1, [pc, #820]	; 16864 <_start@@Base+0xbe98>
   1652c:	e30035c6 	movw	r3, #1478	; 0x5c6
   16530:	e59f22fc 	ldr	r2, [pc, #764]	; 16834 <_start@@Base+0xbe68>
   16534:	ebffcfe9 	bl	a4e0 <fprintf@plt>
   16538:	e1a00004 	mov	r0, r4
   1653c:	ebffd089 	bl	a768 <fclose@plt>
   16540:	e59f0320 	ldr	r0, [pc, #800]	; 16868 <_start@@Base+0xbe9c>
[31m   16544:	ebffcf76 	bl	a324 <system@plt>[0m
   16548:	e59f02c0 	ldr	r0, [pc, #704]	; 16810 <_start@@Base+0xbe44>
   1654c:	e59f12b8 	ldr	r1, [pc, #696]	; 1680c <_start@@Base+0xbe40>
   16550:	ebffd06c 	bl	a708 <fopen@plt>
   16554:	e2504000 	subs	r4, r0, #0
   16558:	0a000005 	beq	16574 <_start@@Base+0xbba8>
   1655c:	e59f1308 	ldr	r1, [pc, #776]	; 1686c <_start@@Base+0xbea0>
   16560:	e30035ca 	movw	r3, #1482	; 0x5ca
   16564:	e59f22c8 	ldr	r2, [pc, #712]	; 16834 <_start@@Base+0xbe68>
   16568:	ebffcfdc 	bl	a4e0 <fprintf@plt>
   1656c:	e1a00004 	mov	r0, r4
   16570:	ebffd07c 	bl	a768 <fclose@plt>
   16574:	e59f02b0 	ldr	r0, [pc, #688]	; 1682c <_start@@Base+0xbe60>
[31m   16578:	ebffcf69 	bl	a324 <system@plt>[0m
   1657c:	e59f028c 	ldr	r0, [pc, #652]	; 16810 <_start@@Base+0xbe44>
   16580:	e59f1284 	ldr	r1, [pc, #644]	; 1680c <_start@@Base+0xbe40>
   16584:	ebffd05f 	bl	a708 <fopen@plt>
   16588:	e2504000 	subs	r4, r0, #0
   1658c:	0a000005 	beq	165a8 <_start@@Base+0xbbdc>
   16590:	e59f12d8 	ldr	r1, [pc, #728]	; 16870 <_start@@Base+0xbea4>
   16594:	e30035ce 	movw	r3, #1486	; 0x5ce
   16598:	e59f2294 	ldr	r2, [pc, #660]	; 16834 <_start@@Base+0xbe68>
   1659c:	ebffcfcf 	bl	a4e0 <fprintf@plt>
   165a0:	e1a00004 	mov	r0, r4
   165a4:	ebffd06f 	bl	a768 <fclose@plt>
   165a8:	e59f02c4 	ldr	r0, [pc, #708]	; 16874 <_start@@Base+0xbea8>
[31m   165ac:	ebffcf5c 	bl	a324 <system@plt>[0m
   165b0:	e59f0258 	ldr	r0, [pc, #600]	; 16810 <_start@@Base+0xbe44>
   165b4:	e59f1250 	ldr	r1, [pc, #592]	; 1680c <_start@@Base+0xbe40>
   165b8:	ebffd052 	bl	a708 <fopen@plt>
   165bc:	e2504000 	subs	r4, r0, #0
   165c0:	0a000005 	beq	165dc <_start@@Base+0xbc10>
   165c4:	e59f12ac 	ldr	r1, [pc, #684]	; 16878 <_start@@Base+0xbeac>
   165c8:	e30035d7 	movw	r3, #1495	; 0x5d7
   165cc:	e59f2260 	ldr	r2, [pc, #608]	; 16834 <_start@@Base+0xbe68>
   165d0:	ebffcfc2 	bl	a4e0 <fprintf@plt>
   165d4:	e1a00004 	mov	r0, r4
   165d8:	ebffd062 	bl	a768 <fclose@plt>
   165dc:	e59f0298 	ldr	r0, [pc, #664]	; 1687c <_start@@Base+0xbeb0>
[31m   165e0:	ebffcf4f 	bl	a324 <system@plt>[0m
   165e4:	e59f0224 	ldr	r0, [pc, #548]	; 16810 <_start@@Base+0xbe44>
   165e8:	e59f121c 	ldr	r1, [pc, #540]	; 1680c <_start@@Base+0xbe40>
   165ec:	ebffd045 	bl	a708 <fopen@plt>
   165f0:	e2504000 	subs	r4, r0, #0
   165f4:	0a000005 	beq	16610 <_start@@Base+0xbc44>
   165f8:	e59f1280 	ldr	r1, [pc, #640]	; 16880 <_start@@Base+0xbeb4>
   165fc:	e30035dc 	movw	r3, #1500	; 0x5dc
   16600:	e59f222c 	ldr	r2, [pc, #556]	; 16834 <_start@@Base+0xbe68>
   16604:	ebffcfb5 	bl	a4e0 <fprintf@plt>
   16608:	e1a00004 	mov	r0, r4
   1660c:	ebffd055 	bl	a768 <fclose@plt>
   16610:	e59f026c 	ldr	r0, [pc, #620]	; 16884 <_start@@Base+0xbeb8>
[31m   16614:	ebffcf42 	bl	a324 <system@plt>[0m
   16618:	e59f01f0 	ldr	r0, [pc, #496]	; 16810 <_start@@Base+0xbe44>
   1661c:	e59f11e8 	ldr	r1, [pc, #488]	; 1680c <_start@@Base+0xbe40>
   16620:	ebffd038 	bl	a708 <fopen@plt>
   16624:	e2504000 	subs	r4, r0, #0
   16628:	0a000005 	beq	16644 <_start@@Base+0xbc78>
   1662c:	e59f1254 	ldr	r1, [pc, #596]	; 16888 <_start@@Base+0xbebc>
   16630:	e30035e6 	movw	r3, #1510	; 0x5e6
   16634:	e59f21f8 	ldr	r2, [pc, #504]	; 16834 <_start@@Base+0xbe68>
   16638:	ebffcfa8 	bl	a4e0 <fprintf@plt>
   1663c:	e1a00004 	mov	r0, r4
   16640:	ebffd048 	bl	a768 <fclose@plt>
   16644:	e59f0240 	ldr	r0, [pc, #576]	; 1688c <_start@@Base+0xbec0>
[31m   16648:	ebffcf35 	bl	a324 <system@plt>[0m
   1664c:	e59f01bc 	ldr	r0, [pc, #444]	; 16810 <_start@@Base+0xbe44>
   16650:	e59f11b4 	ldr	r1, [pc, #436]	; 1680c <_start@@Base+0xbe40>
   16654:	ebffd02b 	bl	a708 <fopen@plt>
   16658:	e2504000 	subs	r4, r0, #0
   1665c:	0a000005 	beq	16678 <_start@@Base+0xbcac>
   16660:	e59f1228 	ldr	r1, [pc, #552]	; 16890 <_start@@Base+0xbec4>
   16664:	e30035e8 	movw	r3, #1512	; 0x5e8
   16668:	e59f21c4 	ldr	r2, [pc, #452]	; 16834 <_start@@Base+0xbe68>
   1666c:	ebffcf9b 	bl	a4e0 <fprintf@plt>
   16670:	e1a00004 	mov	r0, r4
   16674:	ebffd03b 	bl	a768 <fclose@plt>
   16678:	e59f0214 	ldr	r0, [pc, #532]	; 16894 <_start@@Base+0xbec8>
[31m   1667c:	ebffcf28 	bl	a324 <system@plt>[0m
   16680:	e3a00002 	mov	r0, #2
   16684:	ebffcf2f 	bl	a348 <sleep@plt>
--
   168a8:	00047b28 	andeq	r7, r4, r8, lsr #22
   168ac:	e92d45f0 	push	{r4, r5, r6, r7, r8, sl, lr}
   168b0:	e24dde42 	sub	sp, sp, #1056	; 0x420
   168b4:	e24dd004 	sub	sp, sp, #4
   168b8:	e1a06000 	mov	r6, r0
   168bc:	e1a05001 	mov	r5, r1
   168c0:	e59f05e8 	ldr	r0, [pc, #1512]	; 16eb0 <_start@@Base+0xc4e4>
   168c4:	e59f15e8 	ldr	r1, [pc, #1512]	; 16eb4 <_start@@Base+0xc4e8>
   168c8:	e58d2004 	str	r2, [sp, #4]
   168cc:	ebffcf8d 	bl	a708 <fopen@plt>
   168d0:	e2504000 	subs	r4, r0, #0
   168d4:	0a000006 	beq	168f4 <_start@@Base+0xbf28>
   168d8:	e59f05d8 	ldr	r0, [pc, #1496]	; 16eb8 <_start@@Base+0xc4ec>
   168dc:	e3a01001 	mov	r1, #1
   168e0:	e3a02018 	mov	r2, #24
   168e4:	e1a03004 	mov	r3, r4
   168e8:	ebffcfd4 	bl	a840 <fwrite@plt>
   168ec:	e1a00004 	mov	r0, r4
   168f0:	ebffcf9c 	bl	a768 <fclose@plt>
   168f4:	e59f05c0 	ldr	r0, [pc, #1472]	; 16ebc <_start@@Base+0xc4f0>
[31m   168f8:	ebffce89 	bl	a324 <system@plt>[0m
   168fc:	e59f05ac 	ldr	r0, [pc, #1452]	; 16eb0 <_start@@Base+0xc4e4>
   16900:	e59f15ac 	ldr	r1, [pc, #1452]	; 16eb4 <_start@@Base+0xc4e8>
   16904:	ebffcf7f 	bl	a708 <fopen@plt>
   16908:	e2504000 	subs	r4, r0, #0
   1690c:	0a000006 	beq	1692c <_start@@Base+0xbf60>
   16910:	e59f05a8 	ldr	r0, [pc, #1448]	; 16ec0 <_start@@Base+0xc4f4>
   16914:	e3a01001 	mov	r1, #1
   16918:	e3a02017 	mov	r2, #23
   1691c:	e1a03004 	mov	r3, r4
   16920:	ebffcfc6 	bl	a840 <fwrite@plt>
   16924:	e1a00004 	mov	r0, r4
   16928:	ebffcf8e 	bl	a768 <fclose@plt>
   1692c:	e59f0590 	ldr	r0, [pc, #1424]	; 16ec4 <_start@@Base+0xc4f8>
[31m   16930:	ebffce7b 	bl	a324 <system@plt>[0m
   16934:	e59f0574 	ldr	r0, [pc, #1396]	; 16eb0 <_start@@Base+0xc4e4>
   16938:	e59f1574 	ldr	r1, [pc, #1396]	; 16eb4 <_start@@Base+0xc4e8>
   1693c:	ebffcf71 	bl	a708 <fopen@plt>
   16940:	e2504000 	subs	r4, r0, #0
   16944:	0a000006 	beq	16964 <_start@@Base+0xbf98>
   16948:	e59f0578 	ldr	r0, [pc, #1400]	; 16ec8 <_start@@Base+0xc4fc>
   1694c:	e3a01001 	mov	r1, #1
   16950:	e3a02016 	mov	r2, #22
   16954:	e1a03004 	mov	r3, r4
   16958:	ebffcfb8 	bl	a840 <fwrite@plt>
   1695c:	e1a00004 	mov	r0, r4
   16960:	ebffcf80 	bl	a768 <fclose@plt>
   16964:	e59f0560 	ldr	r0, [pc, #1376]	; 16ecc <_start@@Base+0xc500>
[31m   16968:	ebffce6d 	bl	a324 <system@plt>[0m
   1696c:	e59f053c 	ldr	r0, [pc, #1340]	; 16eb0 <_start@@Base+0xc4e4>
   16970:	e59f153c 	ldr	r1, [pc, #1340]	; 16eb4 <_start@@Base+0xc4e8>
   16974:	ebffcf63 	bl	a708 <fopen@plt>
   16978:	e2504000 	subs	r4, r0, #0
   1697c:	0a000005 	beq	16998 <_start@@Base+0xbfcc>
   16980:	e59f1548 	ldr	r1, [pc, #1352]	; 16ed0 <_start@@Base+0xc504>
   16984:	e3043a0b 	movw	r3, #18955	; 0x4a0b
   16988:	e59f2544 	ldr	r2, [pc, #1348]	; 16ed4 <_start@@Base+0xc508>
   1698c:	ebffced3 	bl	a4e0 <fprintf@plt>
   16990:	e1a00004 	mov	r0, r4
   16994:	ebffcf73 	bl	a768 <fclose@plt>
   16998:	e59f0538 	ldr	r0, [pc, #1336]	; 16ed8 <_start@@Base+0xc50c>
[31m   1699c:	ebffce60 	bl	a324 <system@plt>[0m
   169a0:	e59f0508 	ldr	r0, [pc, #1288]	; 16eb0 <_start@@Base+0xc4e4>
   169a4:	e59f1508 	ldr	r1, [pc, #1288]	; 16eb4 <_start@@Base+0xc4e8>
   169a8:	ebffcf56 	bl	a708 <fopen@plt>
   169ac:	e2504000 	subs	r4, r0, #0
   169b0:	0a000005 	beq	169cc <_start@@Base+0xc000>
   169b4:	e59f1520 	ldr	r1, [pc, #1312]	; 16edc <_start@@Base+0xc510>
   169b8:	e3043a0f 	movw	r3, #18959	; 0x4a0f
   169bc:	e59f2510 	ldr	r2, [pc, #1296]	; 16ed4 <_start@@Base+0xc508>
   169c0:	ebffcec6 	bl	a4e0 <fprintf@plt>
   169c4:	e1a00004 	mov	r0, r4
   169c8:	ebffcf66 	bl	a768 <fclose@plt>
   169cc:	e59f050c 	ldr	r0, [pc, #1292]	; 16ee0 <_start@@Base+0xc514>
[31m   169d0:	ebffce53 	bl	a324 <system@plt>[0m
   169d4:	e59f04d4 	ldr	r0, [pc, #1236]	; 16eb0 <_start@@Base+0xc4e4>
   169d8:	e59f14d4 	ldr	r1, [pc, #1236]	; 16eb4 <_start@@Base+0xc4e8>
   169dc:	ebffcf49 	bl	a708 <fopen@plt>
   169e0:	e2504000 	subs	r4, r0, #0
   169e4:	0a000005 	beq	16a00 <_start@@Base+0xc034>
   169e8:	e59f14f4 	ldr	r1, [pc, #1268]	; 16ee4 <_start@@Base+0xc518>
   169ec:	e3043a13 	movw	r3, #18963	; 0x4a13
   169f0:	e59f24dc 	ldr	r2, [pc, #1244]	; 16ed4 <_start@@Base+0xc508>
   169f4:	ebffceb9 	bl	a4e0 <fprintf@plt>
   169f8:	e1a00004 	mov	r0, r4
   169fc:	ebffcf59 	bl	a768 <fclose@plt>
   16a00:	e59f04e0 	ldr	r0, [pc, #1248]	; 16ee8 <_start@@Base+0xc51c>
[31m   16a04:	ebffce46 	bl	a324 <system@plt>[0m
   16a08:	e59f04a0 	ldr	r0, [pc, #1184]	; 16eb0 <_start@@Base+0xc4e4>
   16a0c:	e59f14a0 	ldr	r1, [pc, #1184]	; 16eb4 <_start@@Base+0xc4e8>
   16a10:	ebffcf3c 	bl	a708 <fopen@plt>
   16a14:	e2504000 	subs	r4, r0, #0
   16a18:	0a000005 	beq	16a34 <_start@@Base+0xc068>
   16a1c:	e59f14c8 	ldr	r1, [pc, #1224]	; 16eec <_start@@Base+0xc520>
   16a20:	e3043a17 	movw	r3, #18967	; 0x4a17
   16a24:	e59f24a8 	ldr	r2, [pc, #1192]	; 16ed4 <_start@@Base+0xc508>
   16a28:	ebffceac 	bl	a4e0 <fprintf@plt>
   16a2c:	e1a00004 	mov	r0, r4
   16a30:	ebffcf4c 	bl	a768 <fclose@plt>
   16a34:	e59f04b4 	ldr	r0, [pc, #1204]	; 16ef0 <_start@@Base+0xc524>
[31m   16a38:	ebffce39 	bl	a324 <system@plt>[0m
   16a3c:	e59f046c 	ldr	r0, [pc, #1132]	; 16eb0 <_start@@Base+0xc4e4>
   16a40:	e59f146c 	ldr	r1, [pc, #1132]	; 16eb4 <_start@@Base+0xc4e8>
   16a44:	ebffcf2f 	bl	a708 <fopen@plt>
   16a48:	e2504000 	subs	r4, r0, #0
   16a4c:	0a000005 	beq	16a68 <_start@@Base+0xc09c>
   16a50:	e59f149c 	ldr	r1, [pc, #1180]	; 16ef4 <_start@@Base+0xc528>
   16a54:	e3043a1b 	movw	r3, #18971	; 0x4a1b
   16a58:	e59f2474 	ldr	r2, [pc, #1140]	; 16ed4 <_start@@Base+0xc508>
   16a5c:	ebffce9f 	bl	a4e0 <fprintf@plt>
   16a60:	e1a00004 	mov	r0, r4
   16a64:	ebffcf3f 	bl	a768 <fclose@plt>
   16a68:	e59f0488 	ldr	r0, [pc, #1160]	; 16ef8 <_start@@Base+0xc52c>
[31m   16a6c:	ebffce2c 	bl	a324 <system@plt>[0m
   16a70:	e59f0438 	ldr	r0, [pc, #1080]	; 16eb0 <_start@@Base+0xc4e4>
   16a74:	e59f1438 	ldr	r1, [pc, #1080]	; 16eb4 <_start@@Base+0xc4e8>
   16a78:	ebffcf22 	bl	a708 <fopen@plt>
   16a7c:	e2504000 	subs	r4, r0, #0
   16a80:	0a000005 	beq	16a9c <_start@@Base+0xc0d0>
   16a84:	e59f1470 	ldr	r1, [pc, #1136]	; 16efc <_start@@Base+0xc530>
   16a88:	e3043a1f 	movw	r3, #18975	; 0x4a1f
   16a8c:	e59f2440 	ldr	r2, [pc, #1088]	; 16ed4 <_start@@Base+0xc508>
   16a90:	ebffce92 	bl	a4e0 <fprintf@plt>
   16a94:	e1a00004 	mov	r0, r4
   16a98:	ebffcf32 	bl	a768 <fclose@plt>
   16a9c:	e59f045c 	ldr	r0, [pc, #1116]	; 16f00 <_start@@Base+0xc534>
[31m   16aa0:	ebffce1f 	bl	a324 <system@plt>[0m
   16aa4:	e59f0404 	ldr	r0, [pc, #1028]	; 16eb0 <_start@@Base+0xc4e4>
   16aa8:	e59f1404 	ldr	r1, [pc, #1028]	; 16eb4 <_start@@Base+0xc4e8>
   16aac:	ebffcf15 	bl	a708 <fopen@plt>
   16ab0:	e2504000 	subs	r4, r0, #0
   16ab4:	0a000005 	beq	16ad0 <_start@@Base+0xc104>
   16ab8:	e59f1444 	ldr	r1, [pc, #1092]	; 16f04 <_start@@Base+0xc538>
   16abc:	e3043a23 	movw	r3, #18979	; 0x4a23
   16ac0:	e59f240c 	ldr	r2, [pc, #1036]	; 16ed4 <_start@@Base+0xc508>
   16ac4:	ebffce85 	bl	a4e0 <fprintf@plt>
   16ac8:	e1a00004 	mov	r0, r4
   16acc:	ebffcf25 	bl	a768 <fclose@plt>
   16ad0:	e59f0430 	ldr	r0, [pc, #1072]	; 16f08 <_start@@Base+0xc53c>
[31m   16ad4:	ebffce12 	bl	a324 <system@plt>[0m
   16ad8:	e59f03d0 	ldr	r0, [pc, #976]	; 16eb0 <_start@@Base+0xc4e4>
   16adc:	e59f13d0 	ldr	r1, [pc, #976]	; 16eb4 <_start@@Base+0xc4e8>
   16ae0:	ebffcf08 	bl	a708 <fopen@plt>
   16ae4:	e2504000 	subs	r4, r0, #0
   16ae8:	0a000005 	beq	16b04 <_start@@Base+0xc138>
   16aec:	e59f1418 	ldr	r1, [pc, #1048]	; 16f0c <_start@@Base+0xc540>
   16af0:	e3043a27 	movw	r3, #18983	; 0x4a27
   16af4:	e59f23d8 	ldr	r2, [pc, #984]	; 16ed4 <_start@@Base+0xc508>
   16af8:	ebffce78 	bl	a4e0 <fprintf@plt>
   16afc:	e1a00004 	mov	r0, r4
   16b00:	ebffcf18 	bl	a768 <fclose@plt>
   16b04:	e59f03c0 	ldr	r0, [pc, #960]	; 16ecc <_start@@Base+0xc500>
[31m   16b08:	ebffce05 	bl	a324 <system@plt>[0m
   16b0c:	e59f039c 	ldr	r0, [pc, #924]	; 16eb0 <_start@@Base+0xc4e4>
   16b10:	e59f139c 	ldr	r1, [pc, #924]	; 16eb4 <_start@@Base+0xc4e8>
   16b14:	ebffcefb 	bl	a708 <fopen@plt>
   16b18:	e2504000 	subs	r4, r0, #0
   16b1c:	0a000005 	beq	16b38 <_start@@Base+0xc16c>
   16b20:	e59f13e8 	ldr	r1, [pc, #1000]	; 16f10 <_start@@Base+0xc544>
   16b24:	e3043a2b 	movw	r3, #18987	; 0x4a2b
   16b28:	e59f23a4 	ldr	r2, [pc, #932]	; 16ed4 <_start@@Base+0xc508>
   16b2c:	ebffce6b 	bl	a4e0 <fprintf@plt>
   16b30:	e1a00004 	mov	r0, r4
   16b34:	ebffcf0b 	bl	a768 <fclose@plt>
   16b38:	e59f03d4 	ldr	r0, [pc, #980]	; 16f14 <_start@@Base+0xc548>
[31m   16b3c:	ebffcdf8 	bl	a324 <system@plt>[0m
   16b40:	e59f0368 	ldr	r0, [pc, #872]	; 16eb0 <_start@@Base+0xc4e4>
   16b44:	e59f1368 	ldr	r1, [pc, #872]	; 16eb4 <_start@@Base+0xc4e8>
   16b48:	ebffceee 	bl	a708 <fopen@plt>
   16b4c:	e2504000 	subs	r4, r0, #0
   16b50:	0a000005 	beq	16b6c <_start@@Base+0xc1a0>
   16b54:	e59f13bc 	ldr	r1, [pc, #956]	; 16f18 <_start@@Base+0xc54c>
   16b58:	e3043a34 	movw	r3, #18996	; 0x4a34
   16b5c:	e59f2370 	ldr	r2, [pc, #880]	; 16ed4 <_start@@Base+0xc508>
   16b60:	ebffce5e 	bl	a4e0 <fprintf@plt>
   16b64:	e1a00004 	mov	r0, r4
   16b68:	ebffcefe 	bl	a768 <fclose@plt>
   16b6c:	e59f03a8 	ldr	r0, [pc, #936]	; 16f1c <_start@@Base+0xc550>
[31m   16b70:	ebffcdeb 	bl	a324 <system@plt>[0m
   16b74:	e59f0334 	ldr	r0, [pc, #820]	; 16eb0 <_start@@Base+0xc4e4>
   16b78:	e59f1334 	ldr	r1, [pc, #820]	; 16eb4 <_start@@Base+0xc4e8>
   16b7c:	ebffcee1 	bl	a708 <fopen@plt>
   16b80:	e2504000 	subs	r4, r0, #0
   16b84:	0a000005 	beq	16ba0 <_start@@Base+0xc1d4>
   16b88:	e59f1390 	ldr	r1, [pc, #912]	; 16f20 <_start@@Base+0xc554>
   16b8c:	e3043a39 	movw	r3, #19001	; 0x4a39
   16b90:	e59f233c 	ldr	r2, [pc, #828]	; 16ed4 <_start@@Base+0xc508>
   16b94:	ebffce51 	bl	a4e0 <fprintf@plt>
   16b98:	e1a00004 	mov	r0, r4
   16b9c:	ebffcef1 	bl	a768 <fclose@plt>
   16ba0:	e59f037c 	ldr	r0, [pc, #892]	; 16f24 <_start@@Base+0xc558>
[31m   16ba4:	ebffcdde 	bl	a324 <system@plt>[0m
   16ba8:	e59f0300 	ldr	r0, [pc, #768]	; 16eb0 <_start@@Base+0xc4e4>
   16bac:	e59f1300 	ldr	r1, [pc, #768]	; 16eb4 <_start@@Base+0xc4e8>
   16bb0:	ebffced4 	bl	a708 <fopen@plt>
   16bb4:	e2504000 	subs	r4, r0, #0
   16bb8:	0a000005 	beq	16bd4 <_start@@Base+0xc208>
   16bbc:	e59f1364 	ldr	r1, [pc, #868]	; 16f28 <_start@@Base+0xc55c>
   16bc0:	e3043a3c 	movw	r3, #19004	; 0x4a3c
   16bc4:	e59f2308 	ldr	r2, [pc, #776]	; 16ed4 <_start@@Base+0xc508>
   16bc8:	ebffce44 	bl	a4e0 <fprintf@plt>
   16bcc:	e1a00004 	mov	r0, r4
   16bd0:	ebffcee4 	bl	a768 <fclose@plt>
   16bd4:	e59f0350 	ldr	r0, [pc, #848]	; 16f2c <_start@@Base+0xc560>
[31m   16bd8:	ebffcdd1 	bl	a324 <system@plt>[0m
   16bdc:	e59f02cc 	ldr	r0, [pc, #716]	; 16eb0 <_start@@Base+0xc4e4>
   16be0:	e59f12cc 	ldr	r1, [pc, #716]	; 16eb4 <_start@@Base+0xc4e8>
   16be4:	ebffcec7 	bl	a708 <fopen@plt>
   16be8:	e2504000 	subs	r4, r0, #0
   16bec:	0a000005 	beq	16c08 <_start@@Base+0xc23c>
   16bf0:	e59f1338 	ldr	r1, [pc, #824]	; 16f30 <_start@@Base+0xc564>
   16bf4:	e3043a3f 	movw	r3, #19007	; 0x4a3f
   16bf8:	e59f22d4 	ldr	r2, [pc, #724]	; 16ed4 <_start@@Base+0xc508>
   16bfc:	ebffce37 	bl	a4e0 <fprintf@plt>
   16c00:	e1a00004 	mov	r0, r4
   16c04:	ebffced7 	bl	a768 <fclose@plt>
   16c08:	e59f0324 	ldr	r0, [pc, #804]	; 16f34 <_start@@Base+0xc568>
[31m   16c0c:	ebffcdc4 	bl	a324 <system@plt>[0m
   16c10:	e59f0298 	ldr	r0, [pc, #664]	; 16eb0 <_start@@Base+0xc4e4>
   16c14:	e59f1298 	ldr	r1, [pc, #664]	; 16eb4 <_start@@Base+0xc4e8>
   16c18:	ebffceba 	bl	a708 <fopen@plt>
   16c1c:	e2504000 	subs	r4, r0, #0
   16c20:	0a000005 	beq	16c3c <_start@@Base+0xc270>
   16c24:	e59f130c 	ldr	r1, [pc, #780]	; 16f38 <_start@@Base+0xc56c>
   16c28:	e3043a43 	movw	r3, #19011	; 0x4a43
   16c2c:	e59f22a0 	ldr	r2, [pc, #672]	; 16ed4 <_start@@Base+0xc508>
   16c30:	ebffce2a 	bl	a4e0 <fprintf@plt>
   16c34:	e1a00004 	mov	r0, r4
   16c38:	ebffceca 	bl	a768 <fclose@plt>
   16c3c:	e59f02f8 	ldr	r0, [pc, #760]	; 16f3c <_start@@Base+0xc570>
[31m   16c40:	ebffcdb7 	bl	a324 <system@plt>[0m
   16c44:	e59f0264 	ldr	r0, [pc, #612]	; 16eb0 <_start@@Base+0xc4e4>
   16c48:	e59f1264 	ldr	r1, [pc, #612]	; 16eb4 <_start@@Base+0xc4e8>
   16c4c:	ebffcead 	bl	a708 <fopen@plt>
   16c50:	e2504000 	subs	r4, r0, #0
   16c54:	0a000005 	beq	16c70 <_start@@Base+0xc2a4>
   16c58:	e59f12e0 	ldr	r1, [pc, #736]	; 16f40 <_start@@Base+0xc574>
   16c5c:	e3043a45 	movw	r3, #19013	; 0x4a45
   16c60:	e59f226c 	ldr	r2, [pc, #620]	; 16ed4 <_start@@Base+0xc508>
   16c64:	ebffce1d 	bl	a4e0 <fprintf@plt>
   16c68:	e1a00004 	mov	r0, r4
   16c6c:	ebffcebd 	bl	a768 <fclose@plt>
   16c70:	e59f02cc 	ldr	r0, [pc, #716]	; 16f44 <_start@@Base+0xc578>
[31m   16c74:	ebffcdaa 	bl	a324 <system@plt>[0m
   16c78:	e3a00002 	mov	r0, #2
   16c7c:	ebffcdb1 	bl	a348 <sleep@plt>
--
   16d78:	e59f11dc 	ldr	r1, [pc, #476]	; 16f5c <_start@@Base+0xc590>
   16d7c:	e060a00a 	rsb	sl, r0, sl
   16d80:	e1a00004 	mov	r0, r4
   16d84:	e58da004 	str	sl, [sp, #4]
   16d88:	ebffce85 	bl	a7a4 <strcmp@plt>
   16d8c:	e3500000 	cmp	r0, #0
   16d90:	0a000004 	beq	16da8 <_start@@Base+0xc3dc>
   16d94:	e1a00004 	mov	r0, r4
   16d98:	e59f11c0 	ldr	r1, [pc, #448]	; 16f60 <_start@@Base+0xc594>
   16d9c:	ebffce80 	bl	a7a4 <strcmp@plt>
   16da0:	e3500000 	cmp	r0, #0
   16da4:	1affffe6 	bne	16d44 <_start@@Base+0xc378>
   16da8:	e3a00000 	mov	r0, #0
   16dac:	e1a01005 	mov	r1, r5
   16db0:	e247200c 	sub	r2, r7, #12
   16db4:	ebfffcf9 	bl	161a0 <_start@@Base+0xb7d4>
   16db8:	e3500000 	cmp	r0, #0
   16dbc:	e5880000 	str	r0, [r8]
   16dc0:	1a000023 	bne	16e54 <_start@@Base+0xc488>
   16dc4:	e59f0198 	ldr	r0, [pc, #408]	; 16f64 <_start@@Base+0xc598>
[31m   16dc8:	ebffcd55 	bl	a324 <system@plt>[0m
   16dcc:	ea000001 	b	16dd8 <_start@@Base+0xc40c>
   16dd0:	e1a00005 	mov	r0, r5
--
   19270:	e1a03009 	mov	r3, r9
   19274:	ebffc571 	bl	a840 <fwrite@plt>
   19278:	e1a00009 	mov	r0, r9
   1927c:	ebffc455 	bl	a3d8 <fflush@plt>
   19280:	e1a00009 	mov	r0, r9
   19284:	ebffc453 	bl	a3d8 <fflush@plt>
   19288:	e3a00000 	mov	r0, #0
   1928c:	e28dde1d 	add	sp, sp, #464	; 0x1d0
   19290:	e8bd87f0 	pop	{r4, r5, r6, r7, r8, r9, sl, pc}
   19294:	e1a0000a 	mov	r0, sl
   19298:	ebffc532 	bl	a768 <fclose@plt>
   1929c:	e3a01000 	mov	r1, #0
   192a0:	e3a02040 	mov	r2, #64	; 0x40
   192a4:	e1a00006 	mov	r0, r6
   192a8:	ebffc522 	bl	a738 <memset@plt>
   192ac:	e1a02005 	mov	r2, r5
   192b0:	e59f1078 	ldr	r1, [pc, #120]	; 19330 <_start@@Base+0xe964>
   192b4:	e1a00006 	mov	r0, r6
   192b8:	ebffc545 	bl	a7d4 <sprintf@plt>
   192bc:	e1a00006 	mov	r0, r6
[31m   192c0:	ebffc417 	bl	a324 <system@plt>[0m
   192c4:	e1a00006 	mov	r0, r6
   192c8:	e3a01000 	mov	r1, #0
   192cc:	e3a02040 	mov	r2, #64	; 0x40
   192d0:	ebffc518 	bl	a738 <memset@plt>
   192d4:	e1a00006 	mov	r0, r6
   192d8:	e59f1054 	ldr	r1, [pc, #84]	; 19334 <_start@@Base+0xe968>
   192dc:	e1a02005 	mov	r2, r5
   192e0:	e59f3050 	ldr	r3, [pc, #80]	; 19338 <_start@@Base+0xe96c>
   192e4:	ebffc53a 	bl	a7d4 <sprintf@plt>
   192e8:	e1a00006 	mov	r0, r6
[31m   192ec:	ebffc40c 	bl	a324 <system@plt>[0m
   192f0:	eaffffd4 	b	19248 <_start@@Base+0xe87c>
   192f4:	e3a01001 	mov	r1, #1
--
   19408:	e3500000 	cmp	r0, #0
   1940c:	11a04000 	movne	r4, r0
   19410:	01a04006 	moveq	r4, r6
   19414:	e59f00d4 	ldr	r0, [pc, #212]	; 194f0 <_start@@Base+0xeb24>
   19418:	ebffc5a0 	bl	aaa0 <_start@@Base+0xd4>
   1941c:	e5d43000 	ldrb	r3, [r4]
   19420:	e3500000 	cmp	r0, #0
   19424:	11a06000 	movne	r6, r0
   19428:	e353002f 	cmp	r3, #47	; 0x2f
   1942c:	13530000 	cmpne	r3, #0
   19430:	1a000019 	bne	1949c <_start@@Base+0xead0>
   19434:	e1a00006 	mov	r0, r6
   19438:	e59f10b4 	ldr	r1, [pc, #180]	; 194f4 <_start@@Base+0xeb28>
   1943c:	ebffc4d8 	bl	a7a4 <strcmp@plt>
   19440:	e3500000 	cmp	r0, #0
   19444:	0a00000e 	beq	19484 <_start@@Base+0xeab8>
   19448:	e59f10a8 	ldr	r1, [pc, #168]	; 194f8 <_start@@Base+0xeb2c>
   1944c:	e59f00a8 	ldr	r0, [pc, #168]	; 194fc <_start@@Base+0xeb30>
   19450:	ebffc443 	bl	a564 <nvram_set@plt>
   19454:	e59f00a4 	ldr	r0, [pc, #164]	; 19500 <_start@@Base+0xeb34>
[31m   19458:	ebffc3b1 	bl	a324 <system@plt>[0m
   1945c:	e59f00a0 	ldr	r0, [pc, #160]	; 19504 <_start@@Base+0xeb38>
[31m   19460:	ebffc3af 	bl	a324 <system@plt>[0m
   19464:	ebffc4c8 	bl	a78c <nvram_commit@plt>
   19468:	e1a00005 	mov	r0, r5
   1946c:	e1a01004 	mov	r1, r4
   19470:	ebffd0e4 	bl	d808 <_start@@Base+0x2e3c>
   19474:	e3a00000 	mov	r0, #0
   19478:	ebffc5bc 	bl	ab70 <_start@@Base+0x1a4>
   1947c:	e28dd008 	add	sp, sp, #8
   19480:	e8bd8070 	pop	{r4, r5, r6, pc}
   19484:	e59f007c 	ldr	r0, [pc, #124]	; 19508 <_start@@Base+0xeb3c>
[31m   19488:	ebffc3a5 	bl	a324 <system@plt>[0m
   1948c:	e59f1078 	ldr	r1, [pc, #120]	; 1950c <_start@@Base+0xeb40>
   19490:	e59f0064 	ldr	r0, [pc, #100]	; 194fc <_start@@Base+0xeb30>
--
   2b548:	0a000003 	beq	2b55c <_start@@Base+0x20b90>
   2b54c:	e59f1108 	ldr	r1, [pc, #264]	; 2b65c <_start@@Base+0x20c90>
   2b550:	ebff7c93 	bl	a7a4 <strcmp@plt>
   2b554:	e2508000 	subs	r8, r0, #0
   2b558:	0a000008 	beq	2b580 <_start@@Base+0x20bb4>
   2b55c:	e3e08000 	mvn	r8, #0
   2b560:	e59f00f8 	ldr	r0, [pc, #248]	; 2b660 <_start@@Base+0x20c94>
   2b564:	e3a01001 	mov	r1, #1
   2b568:	e3a02020 	mov	r2, #32
   2b56c:	e1a03005 	mov	r3, r5
   2b570:	ebff7cb2 	bl	a840 <fwrite@plt>
   2b574:	e1a00008 	mov	r0, r8
   2b578:	e28dde11 	add	sp, sp, #272	; 0x110
   2b57c:	e8bd81f0 	pop	{r4, r5, r6, r7, r8, pc}
   2b580:	e1a00007 	mov	r0, r7
   2b584:	ebff7b7b 	bl	a378 <mktemp@plt>
   2b588:	e1a01007 	mov	r1, r7
   2b58c:	e1a0000d 	mov	r0, sp
   2b590:	ebff7bd8 	bl	a4f8 <strcat@plt>
   2b594:	e1a0000d 	mov	r0, sp
[31m   2b598:	ebff7b61 	bl	a324 <system@plt>[0m
   2b59c:	e59f10c0 	ldr	r1, [pc, #192]	; 2b664 <_start@@Base+0x20c98>
   2b5a0:	e1a00007 	mov	r0, r7
--
   310a4:	e5230004 	str	r0, [r3, #-4]!
   310a8:	e1a00003 	mov	r0, r3
   310ac:	ebff65d7 	bl	a810 <strsep@plt>
   310b0:	e59f0128 	ldr	r0, [pc, #296]	; 311e0 <_start@@Base+0x26814>
   310b4:	ebff6679 	bl	aaa0 <_start@@Base+0xd4>
   310b8:	e1a05000 	mov	r5, r0
   310bc:	e59f0120 	ldr	r0, [pc, #288]	; 311e4 <_start@@Base+0x26818>
   310c0:	ebff6676 	bl	aaa0 <_start@@Base+0xd4>
   310c4:	e59f311c 	ldr	r3, [pc, #284]	; 311e8 <_start@@Base+0x2681c>
   310c8:	e3500000 	cmp	r0, #0
   310cc:	01a00003 	moveq	r0, r3
   310d0:	ebffffbc 	bl	30fc8 <_start@@Base+0x265fc>
   310d4:	e3500000 	cmp	r0, #0
   310d8:	0a000031 	beq	311a4 <_start@@Base+0x267d8>
   310dc:	e1a00005 	mov	r0, r5
   310e0:	e59f1104 	ldr	r1, [pc, #260]	; 311ec <_start@@Base+0x26820>
   310e4:	ebff65ae 	bl	a7a4 <strcmp@plt>
   310e8:	e3500000 	cmp	r0, #0
   310ec:	0a000018 	beq	31154 <_start@@Base+0x26788>
   310f0:	e59f00f8 	ldr	r0, [pc, #248]	; 311f0 <_start@@Base+0x26824>
[31m   310f4:	ebff648a 	bl	a324 <system@plt>[0m
   310f8:	e59f00f4 	ldr	r0, [pc, #244]	; 311f4 <_start@@Base+0x26828>
[31m   310fc:	ebff6488 	bl	a324 <system@plt>[0m
   31100:	e59f00f0 	ldr	r0, [pc, #240]	; 311f8 <_start@@Base+0x2682c>
[31m   31104:	ebff6486 	bl	a324 <system@plt>[0m
   31108:	e59f10ec 	ldr	r1, [pc, #236]	; 311fc <_start@@Base+0x26830>
   3110c:	e59f00ec 	ldr	r0, [pc, #236]	; 31200 <_start@@Base+0x26834>
   31110:	ebff6513 	bl	a564 <nvram_set@plt>
   31114:	ebff659c 	bl	a78c <nvram_commit@plt>
   31118:	e59f00e4 	ldr	r0, [pc, #228]	; 31204 <_start@@Base+0x26838>
[31m   3111c:	ebff6480 	bl	a324 <system@plt>[0m
   31120:	e59f00e0 	ldr	r0, [pc, #224]	; 31208 <_start@@Base+0x2683c>
   31124:	e3a01001 	mov	r1, #1
   31128:	e3a02010 	mov	r2, #16
   3112c:	e1a03004 	mov	r3, r4
   31130:	ebff65c2 	bl	a840 <fwrite@plt>
   31134:	e1a00004 	mov	r0, r4
   31138:	ebff64a6 	bl	a3d8 <fflush@plt>
   3113c:	e1a00004 	mov	r0, r4
   31140:	ebff64a4 	bl	a3d8 <fflush@plt>
   31144:	e3a00000 	mov	r0, #0
   31148:	ebff6688 	bl	ab70 <_start@@Base+0x1a4>
   3114c:	e28dd00c 	add	sp, sp, #12
   31150:	e8bd8030 	pop	{r4, r5, pc}
   31154:	e59f10b0 	ldr	r1, [pc, #176]	; 3120c <_start@@Base+0x26840>
   31158:	e59f00a0 	ldr	r0, [pc, #160]	; 31200 <_start@@Base+0x26834>
   3115c:	ebff6500 	bl	a564 <nvram_set@plt>
   31160:	ebff6589 	bl	a78c <nvram_commit@plt>
   31164:	e59f0098 	ldr	r0, [pc, #152]	; 31204 <_start@@Base+0x26838>
[31m   31168:	ebff646d 	bl	a324 <system@plt>[0m
   3116c:	e59f009c 	ldr	r0, [pc, #156]	; 31210 <_start@@Base+0x26844>
[31m   31170:	ebff646b 	bl	a324 <system@plt>[0m
   31174:	e59f0098 	ldr	r0, [pc, #152]	; 31214 <_start@@Base+0x26848>
[31m   31178:	ebff6469 	bl	a324 <system@plt>[0m
   3117c:	e59f0094 	ldr	r0, [pc, #148]	; 31218 <_start@@Base+0x2684c>
[31m   31180:	ebff6467 	bl	a324 <system@plt>[0m
   31184:	e3a01001 	mov	r1, #1
   31188:	e3a0200f 	mov	r2, #15
--
   31364:	e5cc3000 	strb	r3, [ip]
   31368:	e240000b 	sub	r0, r0, #11
   3136c:	e5c61004 	strb	r1, [r6, #4]
   31370:	e1a01003 	mov	r1, r3
   31374:	e58d359c 	str	r3, [sp, #1436]	; 0x59c
   31378:	e284400c 	add	r4, r4, #12
   3137c:	ebff64ed 	bl	a738 <memset@plt>
   31380:	e59f3f00 	ldr	r3, [pc, #3840]	; 32288 <_start@@Base+0x278bc>
   31384:	e1a0c004 	mov	ip, r4
   31388:	e893000f 	ldm	r3, {r0, r1, r2, r3}
   3138c:	e8ac0007 	stmia	ip!, {r0, r1, r2}
   31390:	e59f0ef4 	ldr	r0, [pc, #3828]	; 3228c <_start@@Base+0x278c0>
   31394:	e1cc30b0 	strh	r3, [ip]
   31398:	ebff65c0 	bl	aaa0 <_start@@Base+0xd4>
   3139c:	e3500000 	cmp	r0, #0
   313a0:	0a000004 	beq	313b8 <_start@@Base+0x269ec>
   313a4:	e59f0ee0 	ldr	r0, [pc, #3808]	; 3228c <_start@@Base+0x278c0>
   313a8:	e59f1ee0 	ldr	r1, [pc, #3808]	; 32290 <_start@@Base+0x278c4>
   313ac:	ebff646c 	bl	a564 <nvram_set@plt>
   313b0:	e59f0edc 	ldr	r0, [pc, #3804]	; 32294 <_start@@Base+0x278c8>
[31m   313b4:	ebff63da 	bl	a324 <system@plt>[0m
   313b8:	e59f0ed8 	ldr	r0, [pc, #3800]	; 32298 <_start@@Base+0x278cc>
   313bc:	ebff65b7 	bl	aaa0 <_start@@Base+0xd4>
--
   31954:	e1a0a000 	mov	sl, r0
   31958:	e59f2ad8 	ldr	r2, [pc, #2776]	; 32438 <_start@@Base+0x27a6c>
   3195c:	e1a00007 	mov	r0, r7
   31960:	ebff639b 	bl	a7d4 <sprintf@plt>
   31964:	e1a01005 	mov	r1, r5
   31968:	e3a02010 	mov	r2, #16
   3196c:	e1a00007 	mov	r0, r7
   31970:	ebff6358 	bl	a6d8 <nvifname_to_osifname@plt>
   31974:	e08a0008 	add	r0, sl, r8
   31978:	e59f1abc 	ldr	r1, [pc, #2748]	; 3243c <_start@@Base+0x27a70>
   3197c:	e1a02005 	mov	r2, r5
   31980:	e0860000 	add	r0, r6, r0
   31984:	ebff6392 	bl	a7d4 <sprintf@plt>
   31988:	e1a00006 	mov	r0, r6
   3198c:	ebffa83c 	bl	1ba84 <_start@@Base+0x110b8>
   31990:	ebff637d 	bl	a78c <nvram_commit@plt>
   31994:	e5943e64 	ldr	r3, [r4, #3684]	; 0xe64
   31998:	e3530001 	cmp	r3, #1
   3199c:	0a0001dd 	beq	32118 <_start@@Base+0x2774c>
   319a0:	e59f0984 	ldr	r0, [pc, #2436]	; 3232c <_start@@Base+0x27960>
[31m   319a4:	ebff625e 	bl	a324 <system@plt>[0m
   319a8:	e59f0980 	ldr	r0, [pc, #2432]	; 32330 <_start@@Base+0x27964>
   319ac:	ebff624a 	bl	a2dc <file2str@plt>
   319b0:	e2504000 	subs	r4, r0, #0
   319b4:	0a000101 	beq	31dc0 <_start@@Base+0x273f4>
   319b8:	ebff63bb 	bl	a8ac <atoi@plt>
   319bc:	e1a05000 	mov	r5, r0
   319c0:	e1a00004 	mov	r0, r4
   319c4:	e28d4c05 	add	r4, sp, #1280	; 0x500
   319c8:	e2844008 	add	r4, r4, #8
   319cc:	ebff63fb 	bl	a9c0 <free@plt>
   319d0:	e59f195c 	ldr	r1, [pc, #2396]	; 32334 <_start@@Base+0x27968>
   319d4:	e1a02005 	mov	r2, r5
   319d8:	e1a00004 	mov	r0, r4
   319dc:	ebff637c 	bl	a7d4 <sprintf@plt>
   319e0:	e1a00004 	mov	r0, r4
[31m   319e4:	ebff624e 	bl	a324 <system@plt>[0m
   319e8:	e3a00001 	mov	r0, #1
   319ec:	eafffeff 	b	315f0 <_start@@Base+0x26c24>
--
   320cc:	159a9e64 	ldrne	r9, [sl, #3684]	; 0xe64
   320d0:	0a0001ae 	beq	32790 <_start@@Base+0x27dc4>
   320d4:	e0860008 	add	r0, r6, r8
   320d8:	e1a02009 	mov	r2, r9
   320dc:	e59f1340 	ldr	r1, [pc, #832]	; 32424 <_start@@Base+0x27a58>
   320e0:	ebff61bb 	bl	a7d4 <sprintf@plt>
   320e4:	e5949e78 	ldr	r9, [r4, #3704]	; 0xe78
   320e8:	e0888000 	add	r8, r8, r0
   320ec:	eafffdf3 	b	318c0 <_start@@Base+0x26ef4>
   320f0:	e5d7c036 	ldrb	ip, [r7, #54]	; 0x36
   320f4:	e0860008 	add	r0, r6, r8
   320f8:	e59f32d8 	ldr	r3, [pc, #728]	; 323d8 <_start@@Base+0x27a0c>
   320fc:	e59f22d8 	ldr	r2, [pc, #728]	; 323dc <_start@@Base+0x27a10>
   32100:	e35c0000 	cmp	ip, #0
   32104:	e59f12d4 	ldr	r1, [pc, #724]	; 323e0 <_start@@Base+0x27a14>
   32108:	11a02003 	movne	r2, r3
   3210c:	ebff61b0 	bl	a7d4 <sprintf@plt>
   32110:	e0888000 	add	r8, r8, r0
   32114:	eaffffac 	b	31fcc <_start@@Base+0x27600>
   32118:	e59f02c4 	ldr	r0, [pc, #708]	; 323e4 <_start@@Base+0x27a18>
[31m   3211c:	ebff6080 	bl	a324 <system@plt>[0m
   32120:	eafffe1e 	b	319a0 <_start@@Base+0x26fd4>
   32124:	e59f02bc 	ldr	r0, [pc, #700]	; 323e8 <_start@@Base+0x27a1c>
--
   32c80:	e3500000 	cmp	r0, #0
   32c84:	0a000109 	beq	330b0 <_start@@Base+0x286e4>
   32c88:	e59f0b94 	ldr	r0, [pc, #2964]	; 33824 <_start@@Base+0x28e58>
   32c8c:	ebff5f83 	bl	aaa0 <_start@@Base+0xd4>
   32c90:	e3500000 	cmp	r0, #0
   32c94:	01a00004 	moveq	r0, r4
   32c98:	e58d002c 	str	r0, [sp, #44]	; 0x2c
   32c9c:	e59f0b84 	ldr	r0, [pc, #2948]	; 33828 <_start@@Base+0x28e5c>
   32ca0:	ebff5f7e 	bl	aaa0 <_start@@Base+0xd4>
   32ca4:	e3500000 	cmp	r0, #0
   32ca8:	01a00004 	moveq	r0, r4
   32cac:	ebff5efe 	bl	a8ac <atoi@plt>
   32cb0:	e3500001 	cmp	r0, #1
   32cb4:	e59f1b70 	ldr	r1, [pc, #2928]	; 3382c <_start@@Base+0x28e60>
   32cb8:	03a03001 	moveq	r3, #1
   32cbc:	13a03002 	movne	r3, #2
   32cc0:	e58b3e14 	str	r3, [fp, #3604]	; 0xe14
   32cc4:	e59f0b64 	ldr	r0, [pc, #2916]	; 33830 <_start@@Base+0x28e64>
   32cc8:	ebff5e25 	bl	a564 <nvram_set@plt>
   32ccc:	e59f0b60 	ldr	r0, [pc, #2912]	; 33834 <_start@@Base+0x28e68>
[31m   32cd0:	ebff5d93 	bl	a324 <system@plt>[0m
   32cd4:	e59f0b5c 	ldr	r0, [pc, #2908]	; 33838 <_start@@Base+0x28e6c>
   32cd8:	e59d1018 	ldr	r1, [sp, #24]
--
   331d8:	ebff5d4d 	bl	a714 <nvram_get@plt>
   331dc:	e1500005 	cmp	r0, r5
   331e0:	e59f1618 	ldr	r1, [pc, #1560]	; 33800 <_start@@Base+0x28e34>
   331e4:	11a01000 	movne	r1, r0
   331e8:	e28d0d0f 	add	r0, sp, #960	; 0x3c0
   331ec:	ebff5be3 	bl	a180 <strcpy@plt>
   331f0:	e2893008 	add	r3, r9, #8
   331f4:	e28d2d0f 	add	r2, sp, #960	; 0x3c0
   331f8:	e4835004 	str	r5, [r3], #4
   331fc:	e1a00009 	mov	r0, r9
   33200:	e4835004 	str	r5, [r3], #4
   33204:	e59f1684 	ldr	r1, [pc, #1668]	; 33890 <_start@@Base+0x28ec4>
   33208:	e4835004 	str	r5, [r3], #4
   3320c:	e4835004 	str	r5, [r3], #4
   33210:	e4835004 	str	r5, [r3], #4
   33214:	e5835000 	str	r5, [r3]
   33218:	e58d5390 	str	r5, [sp, #912]	; 0x390
   3321c:	e58d5394 	str	r5, [sp, #916]	; 0x394
   33220:	ebff5d6b 	bl	a7d4 <sprintf@plt>
   33224:	e28d0e39 	add	r0, sp, #912	; 0x390
[31m   33228:	ebff5c3d 	bl	a324 <system@plt>[0m
   3322c:	e3a00002 	mov	r0, #2
   33230:	ebff5c44 	bl	a348 <sleep@plt>
--
   33388:	ebff5ce1 	bl	a714 <nvram_get@plt>
   3338c:	e1500004 	cmp	r0, r4
   33390:	e59f1468 	ldr	r1, [pc, #1128]	; 33800 <_start@@Base+0x28e34>
   33394:	11a01000 	movne	r1, r0
   33398:	e28d0d0f 	add	r0, sp, #960	; 0x3c0
   3339c:	ebff5b77 	bl	a180 <strcpy@plt>
   333a0:	e2863008 	add	r3, r6, #8
   333a4:	e28d2d0f 	add	r2, sp, #960	; 0x3c0
   333a8:	e4834004 	str	r4, [r3], #4
   333ac:	e1a00006 	mov	r0, r6
   333b0:	e4834004 	str	r4, [r3], #4
   333b4:	e59f14d4 	ldr	r1, [pc, #1236]	; 33890 <_start@@Base+0x28ec4>
   333b8:	e4834004 	str	r4, [r3], #4
   333bc:	e4834004 	str	r4, [r3], #4
   333c0:	e4834004 	str	r4, [r3], #4
   333c4:	e5834000 	str	r4, [r3]
   333c8:	e58d4390 	str	r4, [sp, #912]	; 0x390
   333cc:	e58d4394 	str	r4, [sp, #916]	; 0x394
   333d0:	ebff5cff 	bl	a7d4 <sprintf@plt>
   333d4:	e28d0e39 	add	r0, sp, #912	; 0x390
[31m   333d8:	ebff5bd1 	bl	a324 <system@plt>[0m
   333dc:	e3a00002 	mov	r0, #2
   333e0:	ebff5bd8 	bl	a348 <sleep@plt>
--
   33654:	e59b0024 	ldr	r0, [fp, #36]	; 0x24
   33658:	ebff5cd8 	bl	a9c0 <free@plt>
   3365c:	e58b4024 	str	r4, [fp, #36]	; 0x24
   33660:	eaffff1f 	b	332e4 <_start@@Base+0x28918>
   33664:	e28d6fa5 	add	r6, sp, #660	; 0x294
   33668:	e3a020fa 	mov	r2, #250	; 0xfa
   3366c:	e1a00006 	mov	r0, r6
   33670:	ebff5c30 	bl	a738 <memset@plt>
   33674:	e59f0274 	ldr	r0, [pc, #628]	; 338f0 <_start@@Base+0x28f24>
   33678:	ebff5c25 	bl	a714 <nvram_get@plt>
   3367c:	e3500000 	cmp	r0, #0
   33680:	e59f2178 	ldr	r2, [pc, #376]	; 33800 <_start@@Base+0x28e34>
   33684:	e59f1268 	ldr	r1, [pc, #616]	; 338f4 <_start@@Base+0x28f28>
   33688:	11a02000 	movne	r2, r0
   3368c:	e1a00006 	mov	r0, r6
   33690:	ebff5c4f 	bl	a7d4 <sprintf@plt>
   33694:	e1a01006 	mov	r1, r6
   33698:	e59f0258 	ldr	r0, [pc, #600]	; 338f8 <_start@@Base+0x28f2c>
   3369c:	ebff5ac9 	bl	a1c8 <printf@plt>
   336a0:	e1a00006 	mov	r0, r6
[31m   336a4:	ebff5b1e 	bl	a324 <system@plt>[0m
   336a8:	e3a03002 	mov	r3, #2
   336ac:	e58b3e14 	str	r3, [fp, #3604]	; 0xe14
--
   34294:	e3500000 	cmp	r0, #0
   34298:	1affff75 	bne	34074 <_start@@Base+0x296a8>
   3429c:	e1a0000a 	mov	r0, sl
   342a0:	e59f1114 	ldr	r1, [pc, #276]	; 343bc <_start@@Base+0x299f0>
   342a4:	ebff58bd 	bl	a5a0 <strstr@plt>
   342a8:	e3500000 	cmp	r0, #0
   342ac:	1affff70 	bne	34074 <_start@@Base+0x296a8>
   342b0:	e1a0000a 	mov	r0, sl
   342b4:	e59f1104 	ldr	r1, [pc, #260]	; 343c0 <_start@@Base+0x299f4>
   342b8:	ebff58b8 	bl	a5a0 <strstr@plt>
   342bc:	e3500000 	cmp	r0, #0
   342c0:	1affff6b 	bne	34074 <_start@@Base+0x296a8>
   342c4:	e35a0000 	cmp	sl, #0
   342c8:	0a000001 	beq	342d4 <_start@@Base+0x29908>
   342cc:	e1a0000a 	mov	r0, sl
   342d0:	ebff59ba 	bl	a9c0 <free@plt>
   342d4:	e59f00f8 	ldr	r0, [pc, #248]	; 343d4 <_start@@Base+0x29a08>
   342d8:	e1a01008 	mov	r1, r8
   342dc:	ebff58a0 	bl	a564 <nvram_set@plt>
   342e0:	e59f00f0 	ldr	r0, [pc, #240]	; 343d8 <_start@@Base+0x29a0c>
[31m   342e4:	ebff580e 	bl	a324 <system@plt>[0m
   342e8:	ebff5927 	bl	a78c <nvram_commit@plt>
   342ec:	e3a02010 	mov	r2, #16
   342f0:	e3a01000 	mov	r1, #0
   342f4:	e1a00006 	mov	r0, r6
   342f8:	ebff590e 	bl	a738 <memset@plt>
   342fc:	e59f00d8 	ldr	r0, [pc, #216]	; 343dc <_start@@Base+0x29a10>
   34300:	ebff5903 	bl	a714 <nvram_get@plt>
   34304:	e3500000 	cmp	r0, #0
   34308:	e59f1084 	ldr	r1, [pc, #132]	; 34394 <_start@@Base+0x299c8>
   3430c:	11a01000 	movne	r1, r0
   34310:	e1a00006 	mov	r0, r6
   34314:	ebff5799 	bl	a180 <strcpy@plt>
   34318:	e1a00005 	mov	r0, r5
   3431c:	e3a01000 	mov	r1, #0
   34320:	e3a02020 	mov	r2, #32
   34324:	ebff5903 	bl	a738 <memset@plt>
   34328:	e1a02006 	mov	r2, r6
   3432c:	e59f10ac 	ldr	r1, [pc, #172]	; 343e0 <_start@@Base+0x29a14>
   34330:	e1a00005 	mov	r0, r5
   34334:	ebff5926 	bl	a7d4 <sprintf@plt>
   34338:	e1a00005 	mov	r0, r5
[31m   3433c:	ebff57f8 	bl	a324 <system@plt>[0m
   34340:	e3a00002 	mov	r0, #2
   34344:	ebff57ff 	bl	a348 <sleep@plt>
--
   34844:	ebfff1df 	bl	30fc8 <_start@@Base+0x265fc>
   34848:	e3500000 	cmp	r0, #0
   3484c:	0a000012 	beq	3489c <_start@@Base+0x29ed0>
   34850:	e59f0094 	ldr	r0, [pc, #148]	; 348ec <_start@@Base+0x29f20>
   34854:	ebff5891 	bl	aaa0 <_start@@Base+0xd4>
   34858:	e2506000 	subs	r6, r0, #0
   3485c:	0a00000d 	beq	34898 <_start@@Base+0x29ecc>
   34860:	e28d5004 	add	r5, sp, #4
   34864:	e1a01006 	mov	r1, r6
   34868:	e59f007c 	ldr	r0, [pc, #124]	; 348ec <_start@@Base+0x29f20>
   3486c:	ebff573c 	bl	a564 <nvram_set@plt>
   34870:	e1a01007 	mov	r1, r7
   34874:	e3a02080 	mov	r2, #128	; 0x80
   34878:	e1a00005 	mov	r0, r5
   3487c:	ebff57ad 	bl	a738 <memset@plt>
   34880:	e1a00005 	mov	r0, r5
   34884:	e59f1064 	ldr	r1, [pc, #100]	; 348f0 <_start@@Base+0x29f24>
   34888:	e1a02006 	mov	r2, r6
   3488c:	ebff57d0 	bl	a7d4 <sprintf@plt>
   34890:	e1a00005 	mov	r0, r5
[31m   34894:	ebff56a2 	bl	a324 <system@plt>[0m
   34898:	ebff57bb 	bl	a78c <nvram_commit@plt>
   3489c:	e1a00004 	mov	r0, r4
--
   3507c:	ebff55a4 	bl	a714 <nvram_get@plt>
   35080:	e1500007 	cmp	r0, r7
   35084:	e59f1a40 	ldr	r1, [pc, #2624]	; 35acc <_start@@Base+0x2b100>
   35088:	11a01000 	movne	r1, r0
   3508c:	e1a00005 	mov	r0, r5
   35090:	ebff543a 	bl	a180 <strcpy@plt>
   35094:	e28a3008 	add	r3, sl, #8
   35098:	e59f1a5c 	ldr	r1, [pc, #2652]	; 35afc <_start@@Base+0x2b130>
   3509c:	e4837004 	str	r7, [r3], #4
   350a0:	e1a02005 	mov	r2, r5
   350a4:	e4837004 	str	r7, [r3], #4
   350a8:	e1a0000a 	mov	r0, sl
   350ac:	e4837004 	str	r7, [r3], #4
   350b0:	e5887018 	str	r7, [r8, #24]
   350b4:	e4837004 	str	r7, [r3], #4
   350b8:	e588701c 	str	r7, [r8, #28]
   350bc:	e4837004 	str	r7, [r3], #4
   350c0:	e5837000 	str	r7, [r3]
   350c4:	ebff55c2 	bl	a7d4 <sprintf@plt>
   350c8:	e1a0000a 	mov	r0, sl
[31m   350cc:	ebff5494 	bl	a324 <system@plt>[0m
   350d0:	e3a00002 	mov	r0, #2
   350d4:	ebff549b 	bl	a348 <sleep@plt>
--
   361f4:	e1a01007 	mov	r1, r7
   361f8:	e59f02d0 	ldr	r0, [pc, #720]	; 364d0 <_start@@Base+0x2bb04>
   361fc:	ebff50d8 	bl	a564 <nvram_set@plt>
   36200:	e1a01007 	mov	r1, r7
   36204:	e59f02c8 	ldr	r0, [pc, #712]	; 364d4 <_start@@Base+0x2bb08>
   36208:	ebff50d5 	bl	a564 <nvram_set@plt>
   3620c:	e1a01007 	mov	r1, r7
   36210:	e59f02c0 	ldr	r0, [pc, #704]	; 364d8 <_start@@Base+0x2bb0c>
   36214:	ebff50d2 	bl	a564 <nvram_set@plt>
   36218:	e1a01007 	mov	r1, r7
   3621c:	e59f02b8 	ldr	r0, [pc, #696]	; 364dc <_start@@Base+0x2bb10>
   36220:	ebff50cf 	bl	a564 <nvram_set@plt>
   36224:	e1a01007 	mov	r1, r7
   36228:	e59f02b0 	ldr	r0, [pc, #688]	; 364e0 <_start@@Base+0x2bb14>
   3622c:	ebff50cc 	bl	a564 <nvram_set@plt>
   36230:	e1a01004 	mov	r1, r4
   36234:	e59f02a8 	ldr	r0, [pc, #680]	; 364e4 <_start@@Base+0x2bb18>
   36238:	ebff50c9 	bl	a564 <nvram_set@plt>
   3623c:	ebff5152 	bl	a78c <nvram_commit@plt>
   36240:	e59f02a0 	ldr	r0, [pc, #672]	; 364e8 <_start@@Base+0x2bb1c>
[31m   36244:	ebff5036 	bl	a324 <system@plt>[0m
   36248:	e1a00006 	mov	r0, r6
   3624c:	e1a01005 	mov	r1, r5
--
   363e4:	e1a00008 	mov	r0, r8
   363e8:	e1a02008 	mov	r2, r8
   363ec:	ebff50f8 	bl	a7d4 <sprintf@plt>
   363f0:	e3a0e031 	mov	lr, #49	; 0x31
   363f4:	e28d1f72 	add	r1, sp, #456	; 0x1c8
   363f8:	e7c1e005 	strb	lr, [r1, r5]
   363fc:	eaffffd4 	b	36354 <_start@@Base+0x2b988>
   36400:	e1a0000a 	mov	r0, sl
   36404:	e59f1104 	ldr	r1, [pc, #260]	; 36510 <_start@@Base+0x2bb44>
   36408:	ebff5091 	bl	a654 <strtok@plt>
   3640c:	e1a07000 	mov	r7, r0
   36410:	e3a01000 	mov	r1, #0
   36414:	e3a02020 	mov	r2, #32
   36418:	e28d0f45 	add	r0, sp, #276	; 0x114
   3641c:	ebff50c5 	bl	a738 <memset@plt>
   36420:	e1a02007 	mov	r2, r7
   36424:	e59f10e8 	ldr	r1, [pc, #232]	; 36514 <_start@@Base+0x2bb48>
   36428:	e28d0f45 	add	r0, sp, #276	; 0x114
   3642c:	ebff50e8 	bl	a7d4 <sprintf@plt>
   36430:	e28d0f45 	add	r0, sp, #276	; 0x114
[31m   36434:	ebff4fba 	bl	a324 <system@plt>[0m
   36438:	e3a00000 	mov	r0, #0
   3643c:	e59f10cc 	ldr	r1, [pc, #204]	; 36510 <_start@@Base+0x2bb44>
--
   41a14:	e3a01000 	mov	r1, #0
   41a18:	e1a06000 	mov	r6, r0
   41a1c:	e3a02080 	mov	r2, #128	; 0x80
   41a20:	e1a00004 	mov	r0, r4
   41a24:	ebff2343 	bl	a738 <memset@plt>
   41a28:	e59f1064 	ldr	r1, [pc, #100]	; 41a94 <_start@@Base+0x370c8>
   41a2c:	e1a02007 	mov	r2, r7
   41a30:	e1a03006 	mov	r3, r6
   41a34:	e1a00004 	mov	r0, r4
   41a38:	e58d5000 	str	r5, [sp]
   41a3c:	ebff2364 	bl	a7d4 <sprintf@plt>
   41a40:	e59f003c 	ldr	r0, [pc, #60]	; 41a84 <_start@@Base+0x370b8>
   41a44:	ebff2332 	bl	a714 <nvram_get@plt>
   41a48:	e3500000 	cmp	r0, #0
   41a4c:	0a000003 	beq	41a60 <_start@@Base+0x37094>
   41a50:	e59f1040 	ldr	r1, [pc, #64]	; 41a98 <_start@@Base+0x370cc>
   41a54:	ebff2352 	bl	a7a4 <strcmp@plt>
   41a58:	e3500000 	cmp	r0, #0
   41a5c:	0a000003 	beq	41a70 <_start@@Base+0x370a4>
   41a60:	e59f0034 	ldr	r0, [pc, #52]	; 41a9c <_start@@Base+0x370d0>
[31m   41a64:	ebff222e 	bl	a324 <system@plt>[0m
   41a68:	e28dd08c 	add	sp, sp, #140	; 0x8c
   41a6c:	e8bd80f0 	pop	{r4, r5, r6, r7, pc}
   41a70:	e59f0024 	ldr	r0, [pc, #36]	; 41a9c <_start@@Base+0x370d0>
[31m   41a74:	ebff222a 	bl	a324 <system@plt>[0m
   41a78:	e1a00004 	mov	r0, r4
[31m   41a7c:	ebff2228 	bl	a324 <system@plt>[0m
   41a80:	eafffff8 	b	41a68 <_start@@Base+0x3709c>
   41a84:	00056640 	andeq	r6, r5, r0, asr #12
--
   41c18:	ebffff70 	bl	419e0 <_start@@Base+0x37014>
   41c1c:	e1a00008 	mov	r0, r8
   41c20:	e59f12cc 	ldr	r1, [pc, #716]	; 41ef4 <_start@@Base+0x37528>
   41c24:	ebff22de 	bl	a7a4 <strcmp@plt>
   41c28:	e3500000 	cmp	r0, #0
   41c2c:	0a00006c 	beq	41de4 <_start@@Base+0x37418>
   41c30:	e1a00008 	mov	r0, r8
   41c34:	e59f12bc 	ldr	r1, [pc, #700]	; 41ef8 <_start@@Base+0x3752c>
   41c38:	ebff22d9 	bl	a7a4 <strcmp@plt>
   41c3c:	e2508000 	subs	r8, r0, #0
   41c40:	1affffc8 	bne	41b68 <_start@@Base+0x3719c>
   41c44:	e59f12b0 	ldr	r1, [pc, #688]	; 41efc <_start@@Base+0x37530>
   41c48:	e28d9024 	add	r9, sp, #36	; 0x24
   41c4c:	e59f02ac 	ldr	r0, [pc, #684]	; 41f00 <_start@@Base+0x37534>
   41c50:	ebff2243 	bl	a564 <nvram_set@plt>
   41c54:	e59f12a0 	ldr	r1, [pc, #672]	; 41efc <_start@@Base+0x37530>
   41c58:	e59f02a4 	ldr	r0, [pc, #676]	; 41f04 <_start@@Base+0x37538>
   41c5c:	ebff2240 	bl	a564 <nvram_set@plt>
   41c60:	ebff22c9 	bl	a78c <nvram_commit@plt>
   41c64:	e59f029c 	ldr	r0, [pc, #668]	; 41f08 <_start@@Base+0x3753c>
[31m   41c68:	ebff21ad 	bl	a324 <system@plt>[0m
   41c6c:	e59fa258 	ldr	sl, [pc, #600]	; 41ecc <_start@@Base+0x37500>
   41c70:	e1a01008 	mov	r1, r8
--
   41cec:	ebff236b 	bl	aaa0 <_start@@Base+0xd4>
   41cf0:	e59de018 	ldr	lr, [sp, #24]
   41cf4:	e3500000 	cmp	r0, #0
   41cf8:	11a0c000 	movne	ip, r0
   41cfc:	01a0c00a 	moveq	ip, sl
   41d00:	e1a0200b 	mov	r2, fp
   41d04:	e59d3010 	ldr	r3, [sp, #16]
   41d08:	e58de000 	str	lr, [sp]
   41d0c:	e1a00009 	mov	r0, r9
   41d10:	e59de01c 	ldr	lr, [sp, #28]
   41d14:	e59f1208 	ldr	r1, [pc, #520]	; 41f24 <_start@@Base+0x37558>
   41d18:	e58dc00c 	str	ip, [sp, #12]
   41d1c:	e58de004 	str	lr, [sp, #4]
   41d20:	e59de014 	ldr	lr, [sp, #20]
   41d24:	e58de008 	str	lr, [sp, #8]
   41d28:	ebff22a9 	bl	a7d4 <sprintf@plt>
   41d2c:	e1a01009 	mov	r1, r9
   41d30:	e59f01f0 	ldr	r0, [pc, #496]	; 41f28 <_start@@Base+0x3755c>
   41d34:	ebff2123 	bl	a1c8 <printf@plt>
   41d38:	e1a00009 	mov	r0, r9
[31m   41d3c:	ebff2178 	bl	a324 <system@plt>[0m
   41d40:	e59f11e4 	ldr	r1, [pc, #484]	; 41f2c <_start@@Base+0x37560>
   41d44:	e1a00007 	mov	r0, r7
--
   41d64:	ebff226a 	bl	a714 <nvram_get@plt>
   41d68:	e3500000 	cmp	r0, #0
   41d6c:	11a01000 	movne	r1, r0
   41d70:	01a0100a 	moveq	r1, sl
   41d74:	e1a00006 	mov	r0, r6
   41d78:	ebff2100 	bl	a180 <strcpy@plt>
   41d7c:	e59f11b0 	ldr	r1, [pc, #432]	; 41f34 <_start@@Base+0x37568>
   41d80:	e1a02006 	mov	r2, r6
   41d84:	e1a00005 	mov	r0, r5
   41d88:	e2853008 	add	r3, r5, #8
   41d8c:	e4838004 	str	r8, [r3], #4
   41d90:	e58d8120 	str	r8, [sp, #288]	; 0x120
   41d94:	e4838004 	str	r8, [r3], #4
   41d98:	e58d8124 	str	r8, [sp, #292]	; 0x124
   41d9c:	e4838004 	str	r8, [r3], #4
   41da0:	e4838004 	str	r8, [r3], #4
   41da4:	e4838004 	str	r8, [r3], #4
   41da8:	e5838000 	str	r8, [r3]
   41dac:	ebff2288 	bl	a7d4 <sprintf@plt>
   41db0:	e1a00005 	mov	r0, r5
[31m   41db4:	ebff215a 	bl	a324 <system@plt>[0m
   41db8:	e3a00002 	mov	r0, #2
   41dbc:	ebff2161 	bl	a348 <sleep@plt>

[0m
[[0;33m*[0m] Function [0;33msystem[0m used [0;33m83[0m times [0;33mhttpd[0m

