[[0;33m*[0m] Binary protection state of [0;33mlibxt_tcp.so[0m
[REF] s12

  	RELRO          CANARY            NX           PIE       RPATH        RUNPATH      SYMBOLS      
  	[31mNo RELRO[0m       [31mNo Canary found[0m   [32mNX enabled[0m   [33mDSO[0m          [32mNo RPATH[0m     [32mNo RUNPATH[0m   [31mSymbols
	[31mNo RELRO[0m       [31mNo Canary found[0m   [32mNX enabled[0m   [33mDSO[0m          [32mNo RPATH[0m     [32mNo RUNPATH[0m   [32mNo Symbols[0m

[0m
[[0;33m*[0m] Function [0;33mprintf[0m tear down of [0;33mlibxt_tcp.so[0m

     838:	0a000025 	beq	8d4 <free@plt+0x1bc>
     83c:	e59f60a4 	ldr	r6, [pc, #164]	; 8e8 <free@plt+0x1d0>
     840:	e2148001 	ands	r8, r4, #1
     844:	e59f70a0 	ldr	r7, [pc, #160]	; 8ec <free@plt+0x1d4>
     848:	e3a02000 	mov	r2, #0
     84c:	e0836006 	add	r6, r3, r6
     850:	e0837007 	add	r7, r3, r7
     854:	01a03006 	moveq	r3, r6
     858:	1a000011 	bne	8a4 <free@plt+0x18c>
     85c:	e593500c 	ldr	r5, [r3, #12]
     860:	e2888001 	add	r8, r8, #1
     864:	e2833008 	add	r3, r3, #8
     868:	e1140005 	tst	r4, r5
     86c:	0afffffa 	beq	85c <free@plt+0x144>
     870:	e3520000 	cmp	r2, #0
     874:	e1e05005 	mvn	r5, r5
     878:	e6ef5075 	uxtb	r5, r5
     87c:	1a00000c 	bne	8b4 <free@plt+0x19c>
     880:	e1a00007 	mov	r0, r7
     884:	e7961188 	ldr	r1, [r6, r8, lsl #3]
[31m     888:	ebffff7b 	bl	67c <printf@plt>[0m
     88c:	e0154004 	ands	r4, r5, r4
     890:	0a00000e 	beq	8d0 <free@plt+0x1b8>
     894:	e2148001 	ands	r8, r4, #1
     898:	e3a02001 	mov	r2, #1
     89c:	01a03006 	moveq	r3, r6
     8a0:	0affffed 	beq	85c <free@plt+0x144>
     8a4:	e3520000 	cmp	r2, #0
     8a8:	e3a050fe 	mov	r5, #254	; 0xfe
     8ac:	e3a08000 	mov	r8, #0
     8b0:	0afffff2 	beq	880 <free@plt+0x168>
     8b4:	e3a0002c 	mov	r0, #44	; 0x2c
     8b8:	ebffff6c 	bl	670 <putchar@plt>
     8bc:	e1a00007 	mov	r0, r7
     8c0:	e7961188 	ldr	r1, [r6, r8, lsl #3]
[31m     8c4:	ebffff6c 	bl	67c <printf@plt>[0m
     8c8:	e0154004 	ands	r4, r5, r4
     8cc:	1afffff0 	bne	894 <free@plt+0x17c>
--
     8f4:	e92d4070 	push	{r4, r5, r6, lr}
     8f8:	e1a06001 	mov	r6, r1
     8fc:	e1d112b0 	ldrh	r1, [r1, #32]
     900:	e2864020 	add	r4, r6, #32
     904:	e59f517c 	ldr	r5, [pc, #380]	; a88 <free@plt+0x370>
     908:	e3510000 	cmp	r1, #0
     90c:	e08f5005 	add	r5, pc, r5
     910:	1a000003 	bne	924 <free@plt+0x20c>
     914:	e1d420b2 	ldrh	r2, [r4, #2]
     918:	e30f3fff 	movw	r3, #65535	; 0xffff
     91c:	e1520003 	cmp	r2, r3
     920:	0a000008 	beq	948 <free@plt+0x230>
     924:	e5d4300b 	ldrb	r3, [r4, #11]
     928:	e3130001 	tst	r3, #1
     92c:	1a00004a 	bne	a5c <free@plt+0x344>
     930:	e1d420b2 	ldrh	r2, [r4, #2]
     934:	e1520001 	cmp	r2, r1
     938:	0a00004e 	beq	a78 <free@plt+0x360>
     93c:	e59f0148 	ldr	r0, [pc, #328]	; a8c <free@plt+0x374>
     940:	e0850000 	add	r0, r5, r0
[31m     944:	ebffff4c 	bl	67c <printf@plt>[0m
     948:	e1d410b4 	ldrh	r1, [r4, #4]
     94c:	e3510000 	cmp	r1, #0
     950:	1a000003 	bne	964 <free@plt+0x24c>
     954:	e1d420b6 	ldrh	r2, [r4, #6]
     958:	e30f3fff 	movw	r3, #65535	; 0xffff
     95c:	e1520003 	cmp	r2, r3
     960:	0a000008 	beq	988 <free@plt+0x270>
     964:	e5d4300b 	ldrb	r3, [r4, #11]
     968:	e3130002 	tst	r3, #2
     96c:	1a00002f 	bne	a30 <free@plt+0x318>
     970:	e1d420b6 	ldrh	r2, [r4, #6]
     974:	e1520001 	cmp	r2, r1
     978:	0a000033 	beq	a4c <free@plt+0x334>
     97c:	e59f010c 	ldr	r0, [pc, #268]	; a90 <free@plt+0x378>
     980:	e0850000 	add	r0, r5, r0
[31m     984:	ebffff3c 	bl	67c <printf@plt>[0m
     988:	e5d41008 	ldrb	r1, [r4, #8]
     98c:	e3510000 	cmp	r1, #0
     990:	1a00000b 	bne	9c4 <free@plt+0x2ac>
     994:	e5d4300b 	ldrb	r3, [r4, #11]
     998:	e3130008 	tst	r3, #8
     99c:	1a00001e 	bne	a1c <free@plt+0x304>
     9a0:	e5d42009 	ldrb	r2, [r4, #9]
     9a4:	e3520000 	cmp	r2, #0
     9a8:	1a00000f 	bne	9ec <free@plt+0x2d4>
     9ac:	e3130004 	tst	r3, #4
     9b0:	08bd8070 	popeq	{r4, r5, r6, pc}
     9b4:	e59f00d8 	ldr	r0, [pc, #216]	; a94 <free@plt+0x37c>
     9b8:	e0850000 	add	r0, r5, r0
[31m     9bc:	ebffff2e 	bl	67c <printf@plt>[0m
     9c0:	ea00000b 	b	9f4 <free@plt+0x2dc>
     9c4:	e5d4300b 	ldrb	r3, [r4, #11]
     9c8:	e3130008 	tst	r3, #8
     9cc:	1a000012 	bne	a1c <free@plt+0x304>
     9d0:	e59f00c0 	ldr	r0, [pc, #192]	; a98 <free@plt+0x380>
     9d4:	e0850000 	add	r0, r5, r0
[31m     9d8:	ebffff27 	bl	67c <printf@plt>[0m
     9dc:	e5d42009 	ldrb	r2, [r4, #9]
     9e0:	e5d4300b 	ldrb	r3, [r4, #11]
     9e4:	e3520000 	cmp	r2, #0
     9e8:	0affffef 	beq	9ac <free@plt+0x294>
     9ec:	e3130004 	tst	r3, #4
     9f0:	1affffef 	bne	9b4 <free@plt+0x29c>
     9f4:	e59f00a0 	ldr	r0, [pc, #160]	; a9c <free@plt+0x384>
     9f8:	e0850000 	add	r0, r5, r0
[31m     9fc:	ebffff1e 	bl	67c <printf@plt>[0m
     a00:	e5d40009 	ldrb	r0, [r4, #9]
     a04:	ebffff87 	bl	828 <free@plt+0x110>
     a08:	e3a00020 	mov	r0, #32
     a0c:	ebffff17 	bl	670 <putchar@plt>
     a10:	e5d4000a 	ldrb	r0, [r4, #10]
     a14:	e8bd4070 	pop	{r4, r5, r6, lr}
     a18:	eaffff82 	b	828 <free@plt+0x110>
     a1c:	e59f0070 	ldr	r0, [pc, #112]	; a94 <free@plt+0x37c>
     a20:	e0850000 	add	r0, r5, r0
[31m     a24:	ebffff14 	bl	67c <printf@plt>[0m
     a28:	e5d41008 	ldrb	r1, [r4, #8]
     a2c:	eaffffe7 	b	9d0 <free@plt+0x2b8>
     a30:	e59f005c 	ldr	r0, [pc, #92]	; a94 <free@plt+0x37c>
     a34:	e0850000 	add	r0, r5, r0
[31m     a38:	ebffff0f 	bl	67c <printf@plt>[0m
     a3c:	e1d410b4 	ldrh	r1, [r4, #4]
     a40:	e1d420b6 	ldrh	r2, [r4, #6]
     a44:	e1520001 	cmp	r2, r1
     a48:	1affffcb 	bne	97c <free@plt+0x264>
     a4c:	e59f004c 	ldr	r0, [pc, #76]	; aa0 <free@plt+0x388>
     a50:	e0850000 	add	r0, r5, r0
[31m     a54:	ebffff08 	bl	67c <printf@plt>[0m
     a58:	eaffffca 	b	988 <free@plt+0x270>
     a5c:	e59f0030 	ldr	r0, [pc, #48]	; a94 <free@plt+0x37c>
     a60:	e0850000 	add	r0, r5, r0
[31m     a64:	ebffff04 	bl	67c <printf@plt>[0m
     a68:	e1d612b0 	ldrh	r1, [r6, #32]
     a6c:	e1d420b2 	ldrh	r2, [r4, #2]
     a70:	e1520001 	cmp	r2, r1
     a74:	1affffb0 	bne	93c <free@plt+0x224>
     a78:	e59f0024 	ldr	r0, [pc, #36]	; aa4 <free@plt+0x38c>
     a7c:	e0850000 	add	r0, r5, r0
[31m     a80:	ebfffefd 	bl	67c <printf@plt>[0m
     a84:	eaffffaf 	b	948 <free@plt+0x230>
     a88:	00008f40 	andeq	r8, r0, r0, asr #30
--
     b1c:	ffff7a94 			; <UNDEFINED> instruction: 0xffff7a94
     b20:	e92d41f0 	push	{r4, r5, r6, r7, r8, lr}
     b24:	e3530000 	cmp	r3, #0
     b28:	e59f40c4 	ldr	r4, [pc, #196]	; bf4 <free@plt+0x4dc>
     b2c:	e1a05001 	mov	r5, r1
     b30:	e1a06002 	mov	r6, r2
     b34:	e59d7018 	ldr	r7, [sp, #24]
     b38:	e08f4004 	add	r4, pc, r4
     b3c:	0a000018 	beq	ba4 <free@plt+0x48c>
     b40:	e59f80b0 	ldr	r8, [pc, #176]	; bf8 <free@plt+0x4e0>
     b44:	e30f2fff 	movw	r2, #65535	; 0xffff
     b48:	e3550000 	cmp	r5, #0
     b4c:	01560002 	cmpeq	r6, r2
     b50:	e0848008 	add	r8, r4, r8
     b54:	1a000018 	bne	bbc <free@plt+0x4a4>
     b58:	e3530000 	cmp	r3, #0
     b5c:	08bd81f0 	popeq	{r4, r5, r6, r7, r8, pc}
     b60:	e1a01000 	mov	r1, r0
     b64:	e59f0090 	ldr	r0, [pc, #144]	; bfc <free@plt+0x4e4>
     b68:	e0840000 	add	r0, r4, r0
[31m     b6c:	ebfffec2 	bl	67c <printf@plt>[0m
     b70:	e59f0088 	ldr	r0, [pc, #136]	; c00 <free@plt+0x4e8>
     b74:	e1a01008 	mov	r1, r8
     b78:	e0840000 	add	r0, r4, r0
[31m     b7c:	ebfffebe 	bl	67c <printf@plt>[0m
     b80:	e1a01007 	mov	r1, r7
     b84:	e1a00005 	mov	r0, r5
     b88:	ebffffc6 	bl	aa8 <free@plt+0x390>
     b8c:	e3a0003a 	mov	r0, #58	; 0x3a
     b90:	ebfffeb6 	bl	670 <putchar@plt>
     b94:	e1a00006 	mov	r0, r6
     b98:	e1a01007 	mov	r1, r7
     b9c:	e8bd41f0 	pop	{r4, r5, r6, r7, r8, lr}
     ba0:	eaffffc0 	b	aa8 <free@plt+0x390>
     ba4:	e59f8058 	ldr	r8, [pc, #88]	; c04 <free@plt+0x4ec>
     ba8:	e30f2fff 	movw	r2, #65535	; 0xffff
     bac:	e3550000 	cmp	r5, #0
     bb0:	01560002 	cmpeq	r6, r2
     bb4:	e0848008 	add	r8, r4, r8
     bb8:	0affffe6 	beq	b58 <free@plt+0x440>
     bbc:	e1a01000 	mov	r1, r0
     bc0:	e59f0034 	ldr	r0, [pc, #52]	; bfc <free@plt+0x4e4>
     bc4:	e0840000 	add	r0, r4, r0
[31m     bc8:	ebfffeab 	bl	67c <printf@plt>[0m
     bcc:	e1550006 	cmp	r5, r6
     bd0:	1affffe6 	bne	b70 <free@plt+0x458>
     bd4:	e59f002c 	ldr	r0, [pc, #44]	; c08 <free@plt+0x4f0>
     bd8:	e1a01008 	mov	r1, r8
     bdc:	e0840000 	add	r0, r4, r0
[31m     be0:	ebfffea5 	bl	67c <printf@plt>[0m
     be4:	e1a00005 	mov	r0, r5
     be8:	e1a01007 	mov	r1, r7
     bec:	e8bd41f0 	pop	{r4, r5, r6, r7, r8, lr}
     bf0:	eaffffac 	b	aa8 <free@plt+0x390>
     bf4:	00008d14 	andeq	r8, r0, r4, lsl sp
     bf8:	ffff7acc 			; <UNDEFINED> instruction: 0xffff7acc
     bfc:	ffff7ad0 			; <UNDEFINED> instruction: 0xffff7ad0
     c00:	ffff7afc 			; <UNDEFINED> instruction: 0xffff7afc
     c04:	ffff7a64 			; <UNDEFINED> instruction: 0xffff7a64
     c08:	ffff7ad4 			; <UNDEFINED> instruction: 0xffff7ad4
     c0c:	e92d41f0 	push	{r4, r5, r6, r7, r8, lr}
     c10:	e2814020 	add	r4, r1, #32
     c14:	e59f516c 	ldr	r5, [pc, #364]	; d88 <free@plt+0x670>
     c18:	e24dd008 	sub	sp, sp, #8
     c1c:	e1a06002 	mov	r6, r2
     c20:	e1a07001 	mov	r7, r1
     c24:	e59f0160 	ldr	r0, [pc, #352]	; d8c <free@plt+0x674>
     c28:	e08f5005 	add	r5, pc, r5
     c2c:	e0850000 	add	r0, r5, r0
[31m     c30:	ebfffe91 	bl	67c <printf@plt>[0m
     c34:	e5d4300b 	ldrb	r3, [r4, #11]
     c38:	e59f0150 	ldr	r0, [pc, #336]	; d90 <free@plt+0x678>
--
     c5c:	e1d410b4 	ldrh	r1, [r4, #4]
     c60:	e1d420b6 	ldrh	r2, [r4, #6]
     c64:	e2033002 	and	r3, r3, #2
     c68:	e0850000 	add	r0, r5, r0
     c6c:	e58d6000 	str	r6, [sp]
     c70:	ebffffaa 	bl	b20 <free@plt+0x408>
     c74:	e5d4100b 	ldrb	r1, [r4, #11]
     c78:	e5d42008 	ldrb	r2, [r4, #8]
     c7c:	e7e031d1 	ubfx	r3, r1, #3, #1
     c80:	e3520000 	cmp	r2, #0
     c84:	01a00003 	moveq	r0, r3
     c88:	13830001 	orrne	r0, r3, #1
     c8c:	e3500000 	cmp	r0, #0
     c90:	0a000007 	beq	cb4 <free@plt+0x59c>
     c94:	e3530000 	cmp	r3, #0
     c98:	0a000037 	beq	d7c <free@plt+0x664>
     c9c:	e59f10f4 	ldr	r1, [pc, #244]	; d98 <free@plt+0x680>
     ca0:	e0851001 	add	r1, r5, r1
     ca4:	e59f00f0 	ldr	r0, [pc, #240]	; d9c <free@plt+0x684>
     ca8:	e0850000 	add	r0, r5, r0
[31m     cac:	ebfffe72 	bl	67c <printf@plt>[0m
     cb0:	e5d4100b 	ldrb	r1, [r4, #11]
     cb4:	e5d47009 	ldrb	r7, [r4, #9]
     cb8:	e7e03151 	ubfx	r3, r1, #2, #1
     cbc:	e5d4800a 	ldrb	r8, [r4, #10]
     cc0:	e3570000 	cmp	r7, #0
     cc4:	01a02003 	moveq	r2, r3
     cc8:	13832001 	orrne	r2, r3, #1
     ccc:	e3520000 	cmp	r2, #0
     cd0:	0a00000e 	beq	d10 <free@plt+0x5f8>
     cd4:	e3530000 	cmp	r3, #0
     cd8:	1a000010 	bne	d20 <free@plt+0x608>
     cdc:	e59f10bc 	ldr	r1, [pc, #188]	; da0 <free@plt+0x688>
     ce0:	e59f00bc 	ldr	r0, [pc, #188]	; da4 <free@plt+0x68c>
     ce4:	e0851001 	add	r1, r5, r1
     ce8:	e0850000 	add	r0, r5, r0
[31m     cec:	ebfffe62 	bl	67c <printf@plt>[0m
     cf0:	e3560000 	cmp	r6, #0
     cf4:	0a000010 	beq	d3c <free@plt+0x624>
     cf8:	e59f00a8 	ldr	r0, [pc, #168]	; da8 <free@plt+0x690>
     cfc:	e1a01007 	mov	r1, r7
     d00:	e1a02008 	mov	r2, r8
     d04:	e0850000 	add	r0, r5, r0
[31m     d08:	ebfffe5b 	bl	67c <printf@plt>[0m
     d0c:	e5d4100b 	ldrb	r1, [r4, #11]
     d10:	e3d1100f 	bics	r1, r1, #15
     d14:	1a000013 	bne	d68 <free@plt+0x650>
     d18:	e28dd008 	add	sp, sp, #8
     d1c:	e8bd81f0 	pop	{r4, r5, r6, r7, r8, pc}
     d20:	e59f1070 	ldr	r1, [pc, #112]	; d98 <free@plt+0x680>
     d24:	e59f0078 	ldr	r0, [pc, #120]	; da4 <free@plt+0x68c>
     d28:	e0851001 	add	r1, r5, r1
     d2c:	e0850000 	add	r0, r5, r0
[31m     d30:	ebfffe51 	bl	67c <printf@plt>[0m
     d34:	e3560000 	cmp	r6, #0
     d38:	1affffee 	bne	cf8 <free@plt+0x5e0>

[0m
[[0;33m*[0m] Function [0;33mprintf[0m used [0;33m21[0m times [0;33mlibxt_tcp.so[0m

