[[0;33m*[0m] Binary protection state of [0;33migmp.svn-base[0m
[REF] s12

  	RELRO          CANARY            NX           PIE       RPATH        RUNPATH      SYMBOLS      
  	[31mNo RELRO[0m       [31mNo Canary found[0m   [32mNX enabled[0m   [31mNo PIE[0m       [32mNo RPATH[0m     [32mNo RUNPATH[0m   [32mNo Symbols[0m

[0m
[[0;33m*[0m] Function [0;33mprintf[0m tear down of [0;33migmp.svn-base[0m

    9174:	e583201c 	str	r2, [r3, #28]
    9178:	e8bd4070 	pop	{r4, r5, r6, lr}
    917c:	eafffec7 	b	8ca0 <free@plt>
    9180:	0000b9c8 	andeq	fp, r0, r8, asr #19
    9184:	0000b9da 	ldrdeq	fp, [r0], -sl
    9188:	0000ba2d 	andeq	fp, r0, sp, lsr #20
    918c:	0000b948 	andeq	fp, r0, r8, asr #18
    9190:	0001420c 	andeq	r4, r1, ip, lsl #4
    9194:	e92d4038 	push	{r3, r4, r5, lr}
    9198:	e1a04000 	mov	r4, r0
    919c:	e5900000 	ldr	r0, [r0]
    91a0:	ebfffe94 	bl	8bf8 <inet_ntoa@plt>
    91a4:	e594c008 	ldr	ip, [r4, #8]
    91a8:	e1a01000 	mov	r1, r0
    91ac:	e59f3070 	ldr	r3, [pc, #112]	; 9224 <_start+0x578>
    91b0:	e59f2070 	ldr	r2, [pc, #112]	; 9228 <_start+0x57c>
    91b4:	e35c0000 	cmp	ip, #0
    91b8:	e59f006c 	ldr	r0, [pc, #108]	; 922c <_start+0x580>
    91bc:	01a02003 	moveq	r2, r3
    91c0:	e5943004 	ldr	r3, [r4, #4]
[31m    91c4:	ebfffe28 	bl	8a6c <printf@plt>[0m
    91c8:	e5945018 	ldr	r5, [r4, #24]
    91cc:	e3550000 	cmp	r5, #0
    91d0:	0a000007 	beq	91f4 <_start+0x548>
    91d4:	e5950000 	ldr	r0, [r5]
    91d8:	ebfffe86 	bl	8bf8 <inet_ntoa@plt>
    91dc:	e5952004 	ldr	r2, [r5, #4]
    91e0:	e1a01000 	mov	r1, r0
    91e4:	e59f0044 	ldr	r0, [pc, #68]	; 9230 <_start+0x584>
[31m    91e8:	ebfffe1f 	bl	8a6c <printf@plt>[0m
    91ec:	e595500c 	ldr	r5, [r5, #12]
    91f0:	eafffff5 	b	91cc <_start+0x520>
    91f4:	e5944014 	ldr	r4, [r4, #20]
    91f8:	e3540000 	cmp	r4, #0
    91fc:	08bd8038 	popeq	{r3, r4, r5, pc}
    9200:	e5940000 	ldr	r0, [r4]
    9204:	ebfffe7b 	bl	8bf8 <inet_ntoa@plt>
    9208:	e1a01000 	mov	r1, r0
    920c:	e59f0020 	ldr	r0, [pc, #32]	; 9234 <_start+0x588>
[31m    9210:	ebfffe15 	bl	8a6c <printf@plt>[0m
    9214:	e5944004 	ldr	r4, [r4, #4]
    9218:	e3540000 	cmp	r4, #0
--
    9d38:	e3a00000 	mov	r0, #0
    9d3c:	e8bd8008 	pop	{r3, pc}
    9d40:	000f4240 	andeq	r4, pc, r0, asr #4
    9d44:	e59f3008 	ldr	r3, [pc, #8]	; 9d54 <_start+0x10a8>
    9d48:	e3a02000 	mov	r2, #0
    9d4c:	e5832000 	str	r2, [r3]
    9d50:	e12fff1e 	bx	lr
    9d54:	0001425c 	andeq	r4, r1, ip, asr r2
    9d58:	e59f3048 	ldr	r3, [pc, #72]	; 9da8 <_start+0x10fc>
    9d5c:	e92d4013 	push	{r0, r1, r4, lr}
    9d60:	e5934000 	ldr	r4, [r3]
    9d64:	ea000009 	b	9d90 <_start+0x10e4>
    9d68:	e2843048 	add	r3, r4, #72	; 0x48
    9d6c:	e1a01004 	mov	r1, r4
    9d70:	e58d3000 	str	r3, [sp]
    9d74:	e2842008 	add	r2, r4, #8
    9d78:	e5943068 	ldr	r3, [r4, #104]	; 0x68
    9d7c:	e59f0028 	ldr	r0, [pc, #40]	; 9dac <_start+0x1100>
    9d80:	e58d3004 	str	r3, [sp, #4]
    9d84:	e2843028 	add	r3, r4, #40	; 0x28
[31m    9d88:	ebfffb37 	bl	8a6c <printf@plt>[0m
    9d8c:	e594406c 	ldr	r4, [r4, #108]	; 0x6c
    9d90:	e3540000 	cmp	r4, #0
--
    9ff8:	e58d4118 	str	r4, [sp, #280]	; 0x118
    9ffc:	e58d313c 	str	r3, [sp, #316]	; 0x13c
    a000:	e5953054 	ldr	r3, [r5, #84]	; 0x54
    a004:	e58d3140 	str	r3, [sp, #320]	; 0x140
    a008:	e28d3f4f 	add	r3, sp, #316	; 0x13c
    a00c:	e58d3110 	str	r3, [sp, #272]	; 0x110
    a010:	e3a03001 	mov	r3, #1
    a014:	e58d3114 	str	r3, [sp, #276]	; 0x114
    a018:	e283304b 	add	r3, r3, #75	; 0x4b
    a01c:	e58d311c 	str	r3, [sp, #284]	; 0x11c
    a020:	e28d3f49 	add	r3, sp, #292	; 0x124
    a024:	e58d3108 	str	r3, [sp, #264]	; 0x108
    a028:	e3a03010 	mov	r3, #16
    a02c:	e58d310c 	str	r3, [sp, #268]	; 0x10c
    a030:	ebfffb11 	bl	8c7c <recvmsg@plt>
    a034:	e3500014 	cmp	r0, #20
    a038:	e1a0a000 	mov	sl, r0
    a03c:	8a000005 	bhi	a058 <_start+0x13ac>
    a040:	e1a0100a 	mov	r1, sl
    a044:	e59f0378 	ldr	r0, [pc, #888]	; a3c4 <_start+0x1718>
[31m    a048:	ebfffa87 	bl	8a6c <printf@plt>[0m
    a04c:	e1a00004 	mov	r0, r4
    a050:	ebfffb12 	bl	8ca0 <free@plt>
--
    b440:	b3a00000 	movlt	r0, #0
    b444:	ba000003 	blt	b458 <_start+0x27ac>
    b448:	e1a00005 	mov	r0, r5
    b44c:	e1a0100d 	mov	r1, sp
    b450:	e3a02010 	mov	r2, #16
    b454:	ebfff5c6 	bl	8b74 <strncpy@plt>
    b458:	e28dd024 	add	sp, sp, #36	; 0x24
    b45c:	e8bd80f0 	pop	{r4, r5, r6, r7, pc}
    b460:	e92d401f 	push	{r0, r1, r2, r3, r4, lr}
    b464:	e3a02001 	mov	r2, #1
    b468:	e28d3010 	add	r3, sp, #16
    b46c:	e5631001 	strb	r1, [r3, #-1]!
    b470:	e3a01000 	mov	r1, #0
    b474:	e58d2000 	str	r2, [sp]
    b478:	e2822021 	add	r2, r2, #33	; 0x21
    b47c:	ebfff5ad 	bl	8b38 <setsockopt@plt>
    b480:	e3500000 	cmp	r0, #0
    b484:	aa000002 	bge	b494 <_start+0x27e8>
    b488:	e59f000c 	ldr	r0, [pc, #12]	; b49c <_start+0x27f0>
    b48c:	e5dd100f 	ldrb	r1, [sp, #15]
[31m    b490:	ebfff575 	bl	8a6c <printf@plt>[0m
    b494:	e28dd014 	add	sp, sp, #20
    b498:	e8bd8000 	ldmfd	sp!, {pc}

[0m
[[0;33m*[0m] Function [0;33mprintf[0m used [0;33m6[0m times [0;33migmp.svn-base[0m

