[[0;33m*[0m] Binary protection state of [0;33mbusybox[0m
[REF] s12

  	RELRO          CANARY            NX           PIE       RPATH        RUNPATH      SYMBOLS      
  	[31mNo RELRO[0m       [31mNo Canary found[0m   [32mNX enabled[0m   [31mNo PIE[0m       [32mNo RPATH[0m     [32mNo RUNPATH[0m   [32mNo Symbols[0m

[0m
[[0;33m*[0m] Function [0;33msprintf[0m tear down of [0;33mbusybox[0m

   10f44:	0005afa4 	andeq	sl, r5, r4, lsr #31
   10f48:	0004bad9 	ldrdeq	fp, [r4], -r9
   10f4c:	0004bb04 	andeq	fp, r4, r4, lsl #22
   10f50:	00052707 	andeq	r2, r5, r7, lsl #14
   10f54:	0004baec 	andeq	fp, r4, ip, ror #21
   10f58:	0004baf1 	strdeq	fp, [r4], -r1
   10f5c:	e92d40f0 	push	{r4, r5, r6, r7, lr}
   10f60:	e1a04000 	mov	r4, r0
   10f64:	e5d03000 	ldrb	r3, [r0]
   10f68:	e24dd014 	sub	sp, sp, #20
   10f6c:	e1a07001 	mov	r7, r1
   10f70:	e1a06002 	mov	r6, r2
   10f74:	e3530022 	cmp	r3, #34	; 0x22
   10f78:	13530027 	cmpne	r3, #39	; 0x27
   10f7c:	1a000005 	bne	10f98 <_start@@Base+0x4e10>
   10f80:	e5d42001 	ldrb	r2, [r4, #1]
   10f84:	e1a0500d 	mov	r5, sp
   10f88:	e1a0400d 	mov	r4, sp
   10f8c:	e1a0000d 	mov	r0, sp
   10f90:	e59f1038 	ldr	r1, [pc, #56]	; 10fd0 <_start@@Base+0x4e48>
[31m   10f94:	ebffeb88 	bl	bdbc <sprintf@plt>[0m
   10f98:	e1a00004 	mov	r0, r4
   10f9c:	e1a01007 	mov	r1, r7
--
   138b4:	e1a01004 	mov	r1, r4
   138b8:	e59f3020 	ldr	r3, [pc, #32]	; 138e0 <_start@@Base+0x7758>
   138bc:	e5933000 	ldr	r3, [r3]
   138c0:	e5130044 	ldr	r0, [r3, #-68]	; 0xffffffbc
   138c4:	ebfffe61 	bl	13250 <_start@@Base+0x70c8>
   138c8:	e1a01005 	mov	r1, r5
   138cc:	ebffffca 	bl	137fc <_start@@Base+0x7674>
   138d0:	e1a00004 	mov	r0, r4
   138d4:	ebffe1a4 	bl	bf6c <free@plt>
   138d8:	e3a00001 	mov	r0, #1
   138dc:	e8bd80fe 	pop	{r1, r2, r3, r4, r5, r6, r7, pc}
   138e0:	0005afd0 	ldrdeq	sl, [r5], -r0
   138e4:	e92d407f 	push	{r0, r1, r2, r3, r4, r5, r6, lr}
   138e8:	e1a03001 	mov	r3, r1
   138ec:	e1a06000 	mov	r6, r0
   138f0:	e1a05002 	mov	r5, r2
   138f4:	e1a0000d 	mov	r0, sp
   138f8:	e1a02003 	mov	r2, r3
   138fc:	e59f1020 	ldr	r1, [pc, #32]	; 13924 <_start@@Base+0x779c>
   13900:	e1a0400d 	mov	r4, sp
[31m   13904:	ebffe12c 	bl	bdbc <sprintf@plt>[0m
   13908:	e1a00006 	mov	r0, r6
   1390c:	ebfffce6 	bl	12cac <_start@@Base+0x6b24>
--
   16bbc:	ea000002 	b	16bcc <_start@@Base+0xaa44>
   16bc0:	e1a00002 	mov	r0, r2
   16bc4:	ebfff267 	bl	13568 <_start@@Base+0x73e0>
   16bc8:	e5d02000 	ldrb	r2, [r0]
   16bcc:	e1a00008 	mov	r0, r8
   16bd0:	e1a01006 	mov	r1, r6
   16bd4:	ea00000c 	b	16c0c <_start@@Base+0xaa84>
   16bd8:	e35b0073 	cmp	fp, #115	; 0x73
   16bdc:	1a00000c 	bne	16c14 <_start@@Base+0xaa8c>
   16be0:	ebfff260 	bl	13568 <_start@@Base+0x73e0>
   16be4:	e1a0a000 	mov	sl, r0
   16be8:	ebffd2ea 	bl	b798 <strlen@plt>
   16bec:	e28d2020 	add	r2, sp, #32
   16bf0:	e0801008 	add	r1, r0, r8
   16bf4:	e1a00009 	mov	r0, r9
   16bf8:	ebfff083 	bl	12e0c <_start@@Base+0x6c84>
   16bfc:	e59d0024 	ldr	r0, [sp, #36]	; 0x24
   16c00:	e1a01006 	mov	r1, r6
   16c04:	e1a0200a 	mov	r2, sl
   16c08:	e0800004 	add	r0, r0, r4
[31m   16c0c:	ebffd46a 	bl	bdbc <sprintf@plt>[0m
   16c10:	ea00000a 	b	16c40 <_start@@Base+0xaab8>
   16c14:	e59d8024 	ldr	r8, [sp, #36]	; 0x24
--
   1974c:	e1a04001 	mov	r4, r1
   19750:	e1a0000d 	mov	r0, sp
   19754:	e3a01000 	mov	r1, #0
   19758:	e3a02b02 	mov	r2, #2048	; 0x800
   1975c:	ebffc948 	bl	bc84 <memset@plt>
   19760:	e59f304c 	ldr	r3, [pc, #76]	; 197b4 <_start@@Base+0xd62c>
   19764:	e1c52fc5 	bic	r2, r5, r5, asr #31
   19768:	e59f1048 	ldr	r1, [pc, #72]	; 197b8 <_start@@Base+0xd630>
   1976c:	e1a0000d 	mov	r0, sp
   19770:	e5933000 	ldr	r3, [r3]
   19774:	e5911000 	ldr	r1, [r1]
   19778:	e1520003 	cmp	r2, r3
   1977c:	a2432001 	subge	r2, r3, #1
   19780:	e1c43fc4 	bic	r3, r4, r4, asr #31
   19784:	e1530001 	cmp	r3, r1
   19788:	e2822001 	add	r2, r2, #1
   1978c:	a2413001 	subge	r3, r1, #1
   19790:	e59f1024 	ldr	r1, [pc, #36]	; 197bc <_start@@Base+0xd634>
   19794:	e2833001 	add	r3, r3, #1
   19798:	e1a0400d 	mov	r4, sp
[31m   1979c:	ebffc986 	bl	bdbc <sprintf@plt>[0m
   197a0:	e1a0000d 	mov	r0, sp
   197a4:	ebfffe9a 	bl	19214 <_start@@Base+0xd08c>
--
   1fb04:	e2860013 	add	r0, r6, #19
   1fb08:	e3a01000 	mov	r1, #0
   1fb0c:	e3a0200a 	mov	r2, #10
   1fb10:	ebfff7be 	bl	1da10 <_start@@Base+0x11888>
   1fb14:	e5973000 	ldr	r3, [r7]
   1fb18:	e1a06000 	mov	r6, r0
   1fb1c:	e5931000 	ldr	r1, [r3]
   1fb20:	e3510000 	cmp	r1, #0
   1fb24:	1affffee 	bne	1fae4 <_start@@Base+0x1395c>
   1fb28:	e2840008 	add	r0, r4, #8
   1fb2c:	e3a02044 	mov	r2, #68	; 0x44
   1fb30:	ebffb053 	bl	bc84 <memset@plt>
   1fb34:	e3d53001 	bics	r3, r5, #1
   1fb38:	e5846018 	str	r6, [r4, #24]
   1fb3c:	0a000089 	beq	1fd68 <_start@@Base+0x13be0>
   1fb40:	e28d7e46 	add	r7, sp, #1120	; 0x460
   1fb44:	e1a02006 	mov	r2, r6
   1fb48:	e2877008 	add	r7, r7, #8
   1fb4c:	e59f1228 	ldr	r1, [pc, #552]	; 1fd7c <_start@@Base+0x13bf4>
   1fb50:	e1a00007 	mov	r0, r7
[31m   1fb54:	ebffb098 	bl	bdbc <sprintf@plt>[0m
   1fb58:	e3150010 	tst	r5, #16
   1fb5c:	e1a06000 	mov	r6, r0
--
   1fd5c:	e1a0000d 	mov	r0, sp
   1fd60:	eb00035a 	bl	20ad0 <_start@@Base+0x14948>
   1fd64:	e5840004 	str	r0, [r4, #4]
   1fd68:	e1a00004 	mov	r0, r4
   1fd6c:	e28dd088 	add	sp, sp, #136	; 0x88
   1fd70:	e28ddb01 	add	sp, sp, #1024	; 0x400
   1fd74:	e8bd81f0 	pop	{r4, r5, r6, r7, r8, pc}
   1fd78:	0005afa4 	andeq	sl, r5, r4, lsr #31
   1fd7c:	0004cda1 	andeq	ip, r4, r1, lsr #27
   1fd80:	00050cc1 	andeq	r0, r5, r1, asr #25
   1fd84:	000fff00 	andeq	pc, pc, r0, lsl #30
   1fd88:	0004cdb2 			; <UNDEFINED> instruction: 0x0004cdb2
   1fd8c:	e92d40f0 	push	{r4, r5, r6, r7, lr}
   1fd90:	e24dd024 	sub	sp, sp, #36	; 0x24
   1fd94:	e28d6004 	add	r6, sp, #4
   1fd98:	e1a04000 	mov	r4, r0
   1fd9c:	e1a05001 	mov	r5, r1
   1fda0:	e1a00006 	mov	r0, r6
   1fda4:	e59f1064 	ldr	r1, [pc, #100]	; 1fe10 <_start@@Base+0x13c88>
   1fda8:	e1a07003 	mov	r7, r3
[31m   1fdac:	ebffb002 	bl	bdbc <sprintf@plt>[0m
   1fdb0:	e1a00006 	mov	r0, r6
   1fdb4:	e1a01004 	mov	r1, r4
--
   24330:	e59f0074 	ldr	r0, [pc, #116]	; 243ac <_start@@Base+0x18224>
   24334:	e59f1074 	ldr	r1, [pc, #116]	; 243b0 <_start@@Base+0x18228>
   24338:	ebff9f35 	bl	c014 <printf@plt>
   2433c:	e3a03001 	mov	r3, #1
   24340:	e5863000 	str	r3, [r6]
   24344:	e3540000 	cmp	r4, #0
   24348:	ba000013 	blt	2439c <_start@@Base+0x18214>
   2434c:	e1a0100d 	mov	r1, sp
   24350:	e3a0204f 	mov	r2, #79	; 0x4f
   24354:	e1a00004 	mov	r0, r4
   24358:	e1a0600d 	mov	r6, sp
   2435c:	ebff9d3d 	bl	b858 <read@plt>
   24360:	e3a01000 	mov	r1, #0
   24364:	e3a0200a 	mov	r2, #10
   24368:	e1a0000d 	mov	r0, sp
   2436c:	e5cd104f 	strb	r1, [sp, #79]	; 0x4f
   24370:	ebff9cd8 	bl	b6d8 <strtoul@plt>
   24374:	e59f1038 	ldr	r1, [pc, #56]	; 243b4 <_start@@Base+0x1822c>
   24378:	e1802005 	orr	r2, r0, r5
   2437c:	e1a0000d 	mov	r0, sp
[31m   24380:	ebff9e8d 	bl	bdbc <sprintf@plt>[0m
   24384:	e1a0000d 	mov	r0, sp
   24388:	ebff9d02 	bl	b798 <strlen@plt>
--
   248b0:	e1a05000 	mov	r5, r0
   248b4:	e59fa0e8 	ldr	sl, [pc, #232]	; 249a4 <_start@@Base+0x1881c>
   248b8:	e59f80e8 	ldr	r8, [pc, #232]	; 249a8 <_start@@Base+0x18820>
   248bc:	ea000011 	b	24908 <_start@@Base+0x18780>
   248c0:	ebff9bb4 	bl	b798 <strlen@plt>
   248c4:	e2861004 	add	r1, r6, #4
   248c8:	e0811000 	add	r1, r1, r0
   248cc:	e1a00005 	mov	r0, r5
   248d0:	ebfff069 	bl	20a7c <_start@@Base+0x148f4>
   248d4:	e5179004 	ldr	r9, [r7, #-4]
   248d8:	e3a01020 	mov	r1, #32
   248dc:	e080b006 	add	fp, r0, r6
   248e0:	e1a05000 	mov	r5, r0
   248e4:	e1a00009 	mov	r0, r9
   248e8:	ebff9dae 	bl	bfa8 <strchr@plt>
   248ec:	e3500000 	cmp	r0, #0
   248f0:	e1a02009 	mov	r2, r9
   248f4:	01a0100a 	moveq	r1, sl
   248f8:	11a01008 	movne	r1, r8
   248fc:	e1a0000b 	mov	r0, fp
[31m   24900:	ebff9d2d 	bl	bdbc <sprintf@plt>[0m
   24904:	e0866000 	add	r6, r6, r0
   24908:	e4970004 	ldr	r0, [r7], #4
--
   27988:	e59f0010 	ldr	r0, [pc, #16]	; 279a0 <_start@@Base+0x1b818>
   2798c:	e98d4022 	stmib	sp, {r1, r5, lr}
   27990:	ebff919f 	bl	c014 <printf@plt>
   27994:	e28dd01c 	add	sp, sp, #28
   27998:	e8bd80f0 	pop	{r4, r5, r6, r7, pc}
   2799c:	0004e6d4 	ldrdeq	lr, [r4], -r4
   279a0:	0004e302 	andeq	lr, r4, r2, lsl #6
   279a4:	e92d40f8 	push	{r3, r4, r5, r6, r7, lr}
   279a8:	e1a06000 	mov	r6, r0
   279ac:	e3a00031 	mov	r0, #49	; 0x31
   279b0:	ebffe425 	bl	20a4c <_start@@Base+0x148c4>
   279b4:	e59f3040 	ldr	r3, [pc, #64]	; 279fc <_start@@Base+0x1b874>
   279b8:	e1a04000 	mov	r4, r0
   279bc:	e2807030 	add	r7, r0, #48	; 0x30
   279c0:	e1a05000 	mov	r5, r0
   279c4:	e5830000 	str	r0, [r3]
   279c8:	e1a00005 	mov	r0, r5
   279cc:	e59f102c 	ldr	r1, [pc, #44]	; 27a00 <_start@@Base+0x1b878>
   279d0:	e4d62001 	ldrb	r2, [r6], #1
   279d4:	e2855003 	add	r5, r5, #3
[31m   279d8:	ebff90f7 	bl	bdbc <sprintf@plt>[0m
   279dc:	e1550007 	cmp	r5, r7
   279e0:	1afffff8 	bne	279c8 <_start@@Base+0x1b840>
--
   27d74:	e58d0034 	str	r0, [sp, #52]	; 0x34
   27d78:	1a000037 	bne	27e5c <_start@@Base+0x1bcd4>
   27d7c:	ea00005c 	b	27ef4 <_start@@Base+0x1bd6c>
   27d80:	e28d00b4 	add	r0, sp, #180	; 0xb4
   27d84:	e59d1030 	ldr	r1, [sp, #48]	; 0x30
   27d88:	ebff9056 	bl	bee8 <strcmp@plt>
   27d8c:	e3500000 	cmp	r0, #0
   27d90:	1a000037 	bne	27e74 <_start@@Base+0x1bcec>
   27d94:	e59d3038 	ldr	r3, [sp, #56]	; 0x38
   27d98:	e28d7070 	add	r7, sp, #112	; 0x70
   27d9c:	e59d203c 	ldr	r2, [sp, #60]	; 0x3c
   27da0:	e1a00007 	mov	r0, r7
   27da4:	e59f1390 	ldr	r1, [pc, #912]	; 2813c <_start@@Base+0x1bfb4>
   27da8:	e58d3010 	str	r3, [sp, #16]
   27dac:	e58d2014 	str	r2, [sp, #20]
   27db0:	e1a02005 	mov	r2, r5
   27db4:	e59d3040 	ldr	r3, [sp, #64]	; 0x40
   27db8:	e88d0500 	stm	sp, {r8, sl}
   27dbc:	e58d9008 	str	r9, [sp, #8]
   27dc0:	e58db00c 	str	fp, [sp, #12]
[31m   27dc4:	ebff8ffc 	bl	bdbc <sprintf@plt>[0m
   27dc8:	e59d2044 	ldr	r2, [sp, #68]	; 0x44
   27dcc:	e1a01007 	mov	r1, r7
--
   284bc:	e283300c 	add	r3, r3, #12
   284c0:	e2822008 	add	r2, r2, #8
   284c4:	e58d3010 	str	r3, [sp, #16]
   284c8:	e28d3d41 	add	r3, sp, #4160	; 0x1040
   284cc:	e2833004 	add	r3, r3, #4
   284d0:	e58d4014 	str	r4, [sp, #20]
   284d4:	ebff8dae 	bl	bb94 <sscanf@plt>
   284d8:	e3500005 	cmp	r0, #5
   284dc:	ca000002 	bgt	284ec <_start@@Base+0x1c364>
   284e0:	e59f01e8 	ldr	r0, [pc, #488]	; 286d0 <_start@@Base+0x1c548>
   284e4:	ebffd7e5 	bl	1e480 <_start@@Base+0x122f8>
   284e8:	ea000071 	b	286b4 <_start@@Base+0x1c52c>
   284ec:	e59f31d0 	ldr	r3, [pc, #464]	; 286c4 <_start@@Base+0x1c53c>
   284f0:	e5933000 	ldr	r3, [r3]
   284f4:	e3530000 	cmp	r3, #0
   284f8:	1a000004 	bne	28510 <_start@@Base+0x1c388>
   284fc:	e28d3a01 	add	r3, sp, #4096	; 0x1000
   28500:	e1a00004 	mov	r0, r4
   28504:	e59f11c8 	ldr	r1, [pc, #456]	; 286d4 <_start@@Base+0x1c54c>
   28508:	e593204c 	ldr	r2, [r3, #76]	; 0x4c
[31m   2850c:	ebff8e2a 	bl	bdbc <sprintf@plt>[0m
   28510:	e59f31c0 	ldr	r3, [pc, #448]	; 286d8 <_start@@Base+0x1c550>
   28514:	e5933000 	ldr	r3, [r3]
--
   2c4b4:	e59db254 	ldr	fp, [sp, #596]	; 0x254
   2c4b8:	e1a05000 	mov	r5, r0
   2c4bc:	e35b0000 	cmp	fp, #0
   2c4c0:	0a000017 	beq	2c524 <_start@@Base+0x2039c>
   2c4c4:	e3a06001 	mov	r6, #1
   2c4c8:	e59b0000 	ldr	r0, [fp]
   2c4cc:	ebff7cb1 	bl	b798 <strlen@plt>
   2c4d0:	e59bb004 	ldr	fp, [fp, #4]
   2c4d4:	e2800002 	add	r0, r0, #2
   2c4d8:	e0806006 	add	r6, r0, r6
   2c4dc:	e35b0000 	cmp	fp, #0
   2c4e0:	1afffff8 	bne	2c4c8 <_start@@Base+0x20340>
   2c4e4:	e1a00006 	mov	r0, r6
   2c4e8:	ebffd157 	bl	20a4c <_start@@Base+0x148c4>
   2c4ec:	e1a0b000 	mov	fp, r0
   2c4f0:	e1a06000 	mov	r6, r0
   2c4f4:	ea000007 	b	2c518 <_start@@Base+0x20390>
   2c4f8:	e1a00006 	mov	r0, r6
   2c4fc:	e5932000 	ldr	r2, [r3]
   2c500:	e59f1a24 	ldr	r1, [pc, #2596]	; 2cf2c <_start@@Base+0x20da4>
[31m   2c504:	ebff7e2c 	bl	bdbc <sprintf@plt>[0m
   2c508:	e59d3254 	ldr	r3, [sp, #596]	; 0x254
   2c50c:	e0866000 	add	r6, r6, r0
--
   2cbd4:	e3a020ff 	mov	r2, #255	; 0xff
   2cbd8:	e1a0100a 	mov	r1, sl
   2cbdc:	e2800001 	add	r0, r0, #1
   2cbe0:	e59f835c 	ldr	r8, [pc, #860]	; 2cf44 <_start@@Base+0x20dbc>
   2cbe4:	ebffcf6e 	bl	209a4 <_start@@Base+0x1481c>
   2cbe8:	e08b0400 	add	r0, fp, r0, lsl #8
   2cbec:	e7e71450 	ubfx	r1, r0, #8, #8
   2cbf0:	e1811400 	orr	r1, r1, r0, lsl #8
   2cbf4:	e1a00006 	mov	r0, r6
   2cbf8:	e6ff1071 	uxth	r1, r1
   2cbfc:	eb006a39 	bl	474e8 <_start@@Base+0x3b360>
   2cc00:	e1a00006 	mov	r0, r6
   2cc04:	ebfffc5d 	bl	2bd80 <_start@@Base+0x1fbf8>
   2cc08:	e5982000 	ldr	r2, [r8]
   2cc0c:	e1a06000 	mov	r6, r0
   2cc10:	e5983004 	ldr	r3, [r8, #4]
   2cc14:	e1921003 	orrs	r1, r2, r3
   2cc18:	0a000010 	beq	2cc60 <_start@@Base+0x20ad8>
   2cc1c:	e59f13a0 	ldr	r1, [pc, #928]	; 2cfc4 <_start@@Base+0x20e3c>
   2cc20:	e1a00007 	mov	r0, r7
[31m   2cc24:	ebff7c64 	bl	bdbc <sprintf@plt>[0m
   2cc28:	e1a03007 	mov	r3, r7
   2cc2c:	e1a00007 	mov	r0, r7
--
   2dbbc:	e1a01004 	mov	r1, r4
   2dbc0:	ebff780b 	bl	bbf4 <fputs@plt>
   2dbc4:	e59d51e0 	ldr	r5, [sp, #480]	; 0x1e0
   2dbc8:	e3550000 	cmp	r5, #0
   2dbcc:	0a000023 	beq	2dc60 <_start@@Base+0x21ad8>
   2dbd0:	e59f30f8 	ldr	r3, [pc, #248]	; 2dcd0 <_start@@Base+0x21b48>
   2dbd4:	e2856004 	add	r6, r5, #4
   2dbd8:	e1a01004 	mov	r1, r4
   2dbdc:	e5d30000 	ldrb	r0, [r3]
   2dbe0:	ebff77c4 	bl	baf8 <fputc@plt>
   2dbe4:	e5962004 	ldr	r2, [r6, #4]
   2dbe8:	e28d6f42 	add	r6, sp, #264	; 0x108
   2dbec:	e3720001 	cmn	r2, #1
   2dbf0:	1a000003 	bne	2dc04 <_start@@Base+0x21a7c>
   2dbf4:	e1a00006 	mov	r0, r6
   2dbf8:	e59f10d4 	ldr	r1, [pc, #212]	; 2dcd4 <_start@@Base+0x21b4c>
   2dbfc:	ebff794f 	bl	c140 <strcpy@plt>
   2dc00:	ea000002 	b	2dc10 <_start@@Base+0x21a88>
   2dc04:	e1a00006 	mov	r0, r6
   2dc08:	e59f10c8 	ldr	r1, [pc, #200]	; 2dcd8 <_start@@Base+0x21b50>
[31m   2dc0c:	ebff786a 	bl	bdbc <sprintf@plt>[0m
   2dc10:	e5955004 	ldr	r5, [r5, #4]
   2dc14:	e28d6f42 	add	r6, sp, #264	; 0x108
   2dc18:	e3750001 	cmn	r5, #1
   2dc1c:	1a000005 	bne	2dc38 <_start@@Base+0x21ab0>
   2dc20:	e1a00006 	mov	r0, r6
   2dc24:	ebff76db 	bl	b798 <strlen@plt>
   2dc28:	e59f10ac 	ldr	r1, [pc, #172]	; 2dcdc <_start@@Base+0x21b54>
   2dc2c:	e0860000 	add	r0, r6, r0
   2dc30:	ebff7942 	bl	c140 <strcpy@plt>
   2dc34:	ea000005 	b	2dc50 <_start@@Base+0x21ac8>
   2dc38:	e1a00006 	mov	r0, r6
   2dc3c:	ebff76d5 	bl	b798 <strlen@plt>
   2dc40:	e59f1098 	ldr	r1, [pc, #152]	; 2dce0 <_start@@Base+0x21b58>
   2dc44:	e0860000 	add	r0, r6, r0
   2dc48:	e1a02005 	mov	r2, r5
[31m   2dc4c:	ebff785a 	bl	bdbc <sprintf@plt>[0m
   2dc50:	e1a00004 	mov	r0, r4
   2dc54:	e59f1088 	ldr	r1, [pc, #136]	; 2dce4 <_start@@Base+0x21b5c>
--
   342b4:	e3500000 	cmp	r0, #0
   342b8:	0a000002 	beq	342c8 <_start@@Base+0x28140>
   342bc:	e5d03000 	ldrb	r3, [r0]
   342c0:	e3530000 	cmp	r3, #0
   342c4:	1a000004 	bne	342dc <_start@@Base+0x28154>
   342c8:	e59f0080 	ldr	r0, [pc, #128]	; 34350 <_start@@Base+0x281c8>
   342cc:	e1a01006 	mov	r1, r6
   342d0:	e1a02004 	mov	r2, r4
   342d4:	ebffa869 	bl	1e480 <_start@@Base+0x122f8>
   342d8:	ea00000d 	b	34314 <_start@@Base+0x2818c>
   342dc:	e1a03000 	mov	r3, r0
   342e0:	e4d02001 	ldrb	r2, [r0], #1
   342e4:	e3520020 	cmp	r2, #32
   342e8:	13520009 	cmpne	r2, #9
   342ec:	1a000001 	bne	342f8 <_start@@Base+0x28170>
   342f0:	e3520000 	cmp	r2, #0
   342f4:	1afffff8 	bne	342dc <_start@@Base+0x28154>
   342f8:	e59f1054 	ldr	r1, [pc, #84]	; 34354 <_start@@Base+0x281cc>
   342fc:	e1a0000d 	mov	r0, sp
   34300:	e1a02009 	mov	r2, r9
[31m   34304:	ebff5eac 	bl	bdbc <sprintf@plt>[0m
   34308:	e1a0000d 	mov	r0, sp
   3430c:	e1a0100a 	mov	r1, sl
--
   34ea8:	e50b2124 	str	r2, [fp, #-292]	; 0xfffffedc
   34eac:	e3a0200a 	mov	r2, #10
   34eb0:	e50b3128 	str	r3, [fp, #-296]	; 0xfffffed8
   34eb4:	e5951008 	ldr	r1, [r5, #8]
   34eb8:	e0210791 	mla	r1, r1, r7, r0
   34ebc:	e24b004c 	sub	r0, fp, #76	; 0x4c
   34ec0:	e1a01631 	lsr	r1, r1, r6
   34ec4:	ebff599d 	bl	b540 <div@plt>
   34ec8:	e59f0168 	ldr	r0, [pc, #360]	; 35038 <_start@@Base+0x28eb0>
   34ecc:	e51b204c 	ldr	r2, [fp, #-76]	; 0xffffffb4
   34ed0:	e51b3048 	ldr	r3, [fp, #-72]	; 0xffffffb8
   34ed4:	e1540000 	cmp	r4, r0
   34ed8:	e50b2138 	str	r2, [fp, #-312]	; 0xfffffec8
   34edc:	824b0044 	subhi	r0, fp, #68	; 0x44
   34ee0:	81a02524 	lsrhi	r2, r4, #10
   34ee4:	91a02004 	movls	r2, r4
   34ee8:	859f114c 	ldrhi	r1, [pc, #332]	; 3503c <_start@@Base+0x28eb4>
   34eec:	924b0044 	subls	r0, fp, #68	; 0x44
   34ef0:	959f1148 	ldrls	r1, [pc, #328]	; 35040 <_start@@Base+0x28eb8>
   34ef4:	e50b3130 	str	r3, [fp, #-304]	; 0xfffffed0
[31m   34ef8:	ebff5baf 	bl	bdbc <sprintf@plt>[0m
   34efc:	e595100c 	ldr	r1, [r5, #12]
   34f00:	e5950014 	ldr	r0, [r5, #20]
--
   36fe8:	0005aff8 	strdeq	sl, [r5], -r8
   36fec:	0005afa4 	andeq	sl, r5, r4, lsr #31
   36ff0:	0005b838 	andeq	fp, r5, r8, lsr r8
   36ff4:	0005ba3c 	andeq	fp, r5, ip, lsr sl
   36ff8:	0005b958 	andeq	fp, r5, r8, asr r9
   36ffc:	00050fec 	andeq	r0, r5, ip, ror #31
   37000:	eaffff4e 	b	36d40 <_start@@Base+0x2abb8>
   37004:	e92d4008 	push	{r3, lr}
   37008:	e3500003 	cmp	r0, #3
   3700c:	e1a03000 	mov	r3, r0
   37010:	e59f002c 	ldr	r0, [pc, #44]	; 37044 <_start@@Base+0x2aebc>
   37014:	c3a02022 	movgt	r2, #34	; 0x22
   37018:	e59f1028 	ldr	r1, [pc, #40]	; 37048 <_start@@Base+0x2aec0>
   3701c:	c4c02001 	strbgt	r2, [r0], #1
   37020:	e3530003 	cmp	r3, #3
   37024:	e59f2020 	ldr	r2, [pc, #32]	; 3704c <_start@@Base+0x2aec4>
   37028:	e7922103 	ldr	r2, [r2, r3, lsl #2]
   3702c:	c3a03022 	movgt	r3, #34	; 0x22
   37030:	d3a03000 	movle	r3, #0
   37034:	e2822001 	add	r2, r2, #1
[31m   37038:	ebff535f 	bl	bdbc <sprintf@plt>[0m
   3703c:	e59f0000 	ldr	r0, [pc]	; 37044 <_start@@Base+0x2aebc>
   37040:	e8bd8008 	pop	{r3, pc}
--
   39aa8:	03e03000 	mvneq	r3, #0
   39aac:	0584300c 	streq	r3, [r4, #12]
   39ab0:	08bd8010 	popeq	{r4, pc}
   39ab4:	e3520000 	cmp	r2, #0
   39ab8:	0a000001 	beq	39ac4 <_start@@Base+0x2d93c>
   39abc:	e59f000c 	ldr	r0, [pc, #12]	; 39ad0 <_start@@Base+0x2d948>
   39ac0:	ebffffe3 	bl	39a54 <_start@@Base+0x2d8cc>
   39ac4:	ebfffbcd 	bl	38a00 <_start@@Base+0x2c878>
   39ac8:	e5840010 	str	r0, [r4, #16]
   39acc:	e8bd8010 	pop	{r4, pc}
   39ad0:	00051246 	andeq	r1, r5, r6, asr #4
   39ad4:	e59f304c 	ldr	r3, [pc, #76]	; 39b28 <_start@@Base+0x2d9a0>
   39ad8:	e1a05000 	mov	r5, r0
   39adc:	e52de004 	push	{lr}		; (str lr, [sp, #-4]!)
   39ae0:	e24dd044 	sub	sp, sp, #68	; 0x44
   39ae4:	e5930000 	ldr	r0, [r3]
   39ae8:	ebfff545 	bl	37004 <_start@@Base+0x2ae7c>
   39aec:	e59f1038 	ldr	r1, [pc, #56]	; 39b2c <_start@@Base+0x2d9a4>
   39af0:	e1a02000 	mov	r2, r0
   39af4:	e1a0000d 	mov	r0, sp
[31m   39af8:	ebff48af 	bl	bdbc <sprintf@plt>[0m
   39afc:	e3550000 	cmp	r5, #0
   39b00:	e1a06000 	mov	r6, r0
   39b04:	ba000005 	blt	39b20 <_start@@Base+0x2d998>
   39b08:	e1a00005 	mov	r0, r5
   39b0c:	ebfff53c 	bl	37004 <_start@@Base+0x2ae7c>
   39b10:	e59f1018 	ldr	r1, [pc, #24]	; 39b30 <_start@@Base+0x2d9a8>
   39b14:	e1a02000 	mov	r2, r0
   39b18:	e08d0006 	add	r0, sp, r6
[31m   39b1c:	ebff48a6 	bl	bdbc <sprintf@plt>[0m
   39b20:	e1a0000d 	mov	r0, sp
   39b24:	ebffffca 	bl	39a54 <_start@@Base+0x2d8cc>
--
   3a3b8:	e1a05001 	mov	r5, r1
   3a3bc:	e3500000 	cmp	r0, #0
   3a3c0:	0a000014 	beq	3a418 <_start@@Base+0x2e290>
   3a3c4:	e59f1060 	ldr	r1, [pc, #96]	; 3a42c <_start@@Base+0x2e2a4>
   3a3c8:	ebff46c6 	bl	bee8 <strcmp@plt>
   3a3cc:	e3500000 	cmp	r0, #0
   3a3d0:	0a000010 	beq	3a418 <_start@@Base+0x2e290>
   3a3d4:	e1a04005 	mov	r4, r5
   3a3d8:	e5b40004 	ldr	r0, [r4, #4]!
   3a3dc:	e5d03000 	ldrb	r3, [r0]
   3a3e0:	e3530025 	cmp	r3, #37	; 0x25
   3a3e4:	1a000008 	bne	3a40c <_start@@Base+0x2e284>
   3a3e8:	e3a01000 	mov	r1, #0
   3a3ec:	ebfffebf 	bl	39ef0 <_start@@Base+0x2dd68>
   3a3f0:	e590300c 	ldr	r3, [r0, #12]
   3a3f4:	e24dd018 	sub	sp, sp, #24
   3a3f8:	e1a0000d 	mov	r0, sp
   3a3fc:	e59f102c 	ldr	r1, [pc, #44]	; 3a430 <_start@@Base+0x2e2a8>
   3a400:	e5932000 	ldr	r2, [r3]
   3a404:	e584d000 	str	sp, [r4]
[31m   3a408:	ebff466b 	bl	bdbc <sprintf@plt>[0m
   3a40c:	e5943004 	ldr	r3, [r4, #4]
   3a410:	e3530000 	cmp	r3, #0
--
   411f8:	9a000030 	bls	412c0 <_start@@Base+0x35138>
   411fc:	e5943010 	ldr	r3, [r4, #16]
   41200:	e3530000 	cmp	r3, #0
   41204:	0a000029 	beq	412b0 <_start@@Base+0x35128>
   41208:	e5940000 	ldr	r0, [r4]
   4120c:	e1a0900d 	mov	r9, sp
   41210:	e50b30b8 	str	r3, [fp, #-184]	; 0xffffff48
   41214:	ebff295f 	bl	b798 <strlen@plt>
   41218:	e2800012 	add	r0, r0, #18
   4121c:	e51b30b8 	ldr	r3, [fp, #-184]	; 0xffffff48
   41220:	e3c00007 	bic	r0, r0, #7
   41224:	e04dd000 	sub	sp, sp, r0
   41228:	e1a0a00d 	mov	sl, sp
   4122c:	e04dd000 	sub	sp, sp, r0
   41230:	e1a0700d 	mov	r7, sp
   41234:	e2436001 	sub	r6, r3, #1
   41238:	e1a00007 	mov	r0, r7
   4123c:	e59f10cc 	ldr	r1, [pc, #204]	; 41310 <_start@@Base+0x35188>
   41240:	e5942000 	ldr	r2, [r4]
   41244:	e1a03006 	mov	r3, r6
[31m   41248:	ebff2adb 	bl	bdbc <sprintf@plt>[0m
   4124c:	e3560000 	cmp	r6, #0
   41250:	0a000009 	beq	4127c <_start@@Base+0x350f4>
   41254:	e2466001 	sub	r6, r6, #1
   41258:	e1a0000a 	mov	r0, sl
   4125c:	e59f10ac 	ldr	r1, [pc, #172]	; 41310 <_start@@Base+0x35188>
   41260:	e1a03006 	mov	r3, r6
   41264:	e5942000 	ldr	r2, [r4]
[31m   41268:	ebff2ad3 	bl	bdbc <sprintf@plt>[0m
   4126c:	e1a0000a 	mov	r0, sl
   41270:	e1a01007 	mov	r1, r7
--
   41380:	ebff290a 	bl	b7b0 <ctime@plt>
   41384:	e2806004 	add	r6, r0, #4
   41388:	e3a03000 	mov	r3, #0
   4138c:	e5c6300f 	strb	r3, [r6, #15]
   41390:	e59f3104 	ldr	r3, [pc, #260]	; 4149c <_start@@Base+0x35314>
   41394:	e5933000 	ldr	r3, [r3]
   41398:	e3130c01 	tst	r3, #256	; 0x100
   4139c:	0a00003c 	beq	41494 <_start@@Base+0x3530c>
   413a0:	e59f10f8 	ldr	r1, [pc, #248]	; 414a0 <_start@@Base+0x35318>
   413a4:	e2072007 	and	r2, r7, #7
   413a8:	e5915000 	ldr	r5, [r1]
   413ac:	e5951008 	ldr	r1, [r5, #8]
   413b0:	e1520001 	cmp	r2, r1
   413b4:	aa000036 	bge	41494 <_start@@Base+0x3530c>
   413b8:	e3130010 	tst	r3, #16
   413bc:	0a000005 	beq	413d8 <_start@@Base+0x35250>
   413c0:	e2850e39 	add	r0, r5, #912	; 0x390
   413c4:	e59f10d8 	ldr	r1, [pc, #216]	; 414a4 <_start@@Base+0x3531c>
   413c8:	e1a02006 	mov	r2, r6
   413cc:	e1a03004 	mov	r3, r4
[31m   413d0:	ebff2a79 	bl	bdbc <sprintf@plt>[0m
   413d4:	ea00002a 	b	41484 <_start@@Base+0x352fc>
   413d8:	e3570000 	cmp	r7, #0
--
   41430:	1afffff1 	bne	413fc <_start@@Base+0x35274>
   41434:	ea000005 	b	41450 <_start@@Base+0x352c8>
   41438:	e59f1070 	ldr	r1, [pc, #112]	; 414b0 <_start@@Base+0x35328>
   4143c:	e2070ffe 	and	r0, r7, #1016	; 0x3f8
   41440:	e5113008 	ldr	r3, [r1, #-8]
   41444:	e1a0c001 	mov	ip, r1
   41448:	e3530000 	cmp	r3, #0
   4144c:	1affffe4 	bne	413e4 <_start@@Base+0x3525c>
   41450:	e28d0008 	add	r0, sp, #8
   41454:	e3a01014 	mov	r1, #20
   41458:	e59f2054 	ldr	r2, [pc, #84]	; 414b4 <_start@@Base+0x3532c>
   4145c:	e1a03007 	mov	r3, r7
   41460:	ebff28f0 	bl	b828 <snprintf@plt>
   41464:	e28d3008 	add	r3, sp, #8
   41468:	e2850e39 	add	r0, r5, #912	; 0x390
   4146c:	e58d3000 	str	r3, [sp]
   41470:	e1a02006 	mov	r2, r6
   41474:	e59f103c 	ldr	r1, [pc, #60]	; 414b8 <_start@@Base+0x35330>
   41478:	e2853050 	add	r3, r5, #80	; 0x50
   4147c:	e58d4004 	str	r4, [sp, #4]
[31m   41480:	ebff2a4d 	bl	bdbc <sprintf@plt>[0m
   41484:	e59f3014 	ldr	r3, [pc, #20]	; 414a0 <_start@@Base+0x35318>
   41488:	e5930000 	ldr	r0, [r3]
--
   422f4:	0004cc1c 	andeq	ip, r4, ip, lsl ip
   422f8:	e92d4010 	push	{r4, lr}
   422fc:	e1a02000 	mov	r2, r0
   42300:	e3a03000 	mov	r3, #0
   42304:	e59fc044 	ldr	ip, [pc, #68]	; 42350 <_start@@Base+0x361c8>
   42308:	ea000007 	b	4232c <_start@@Base+0x361a4>
   4230c:	e1510002 	cmp	r1, r2
   42310:	1a000004 	bne	42328 <_start@@Base+0x361a0>
   42314:	e59f3034 	ldr	r3, [pc, #52]	; 42350 <_start@@Base+0x361c8>
   42318:	e0833000 	add	r3, r3, r0
   4231c:	e5930004 	ldr	r0, [r3, #4]
   42320:	e8bd4010 	pop	{r4, lr}
   42324:	eaff272e 	b	bfe4 <strerror@plt>
   42328:	e2833001 	add	r3, r3, #1
   4232c:	e79c1183 	ldr	r1, [ip, r3, lsl #3]
   42330:	e1a00183 	lsl	r0, r3, #3
   42334:	e3710001 	cmn	r1, #1
   42338:	1afffff3 	bne	4230c <_start@@Base+0x36184>
   4233c:	e59f1010 	ldr	r1, [pc, #16]	; 42354 <_start@@Base+0x361cc>
   42340:	e59f0010 	ldr	r0, [pc, #16]	; 42358 <_start@@Base+0x361d0>
[31m   42344:	ebff269c 	bl	bdbc <sprintf@plt>[0m
   42348:	e59f0008 	ldr	r0, [pc, #8]	; 42358 <_start@@Base+0x361d0>
   4234c:	e8bd8010 	pop	{r4, pc}
--
   466b0:	aa000006 	bge	466d0 <_start@@Base+0x3a548>
   466b4:	e59f31fc 	ldr	r3, [pc, #508]	; 468b8 <_start@@Base+0x3a730>
   466b8:	e5933000 	ldr	r3, [r3]
   466bc:	e5935000 	ldr	r5, [r3]
   466c0:	e2655000 	rsb	r5, r5, #0
   466c4:	ea000078 	b	468ac <_start@@Base+0x3a724>
   466c8:	e3a07002 	mov	r7, #2
   466cc:	ea000000 	b	466d4 <_start@@Base+0x3a54c>
   466d0:	e3a07000 	mov	r7, #0
   466d4:	e5948000 	ldr	r8, [r4]
   466d8:	e3e05000 	mvn	r5, #0
   466dc:	e59fa1d4 	ldr	sl, [pc, #468]	; 468b8 <_start@@Base+0x3a730>
   466e0:	e1a06004 	mov	r6, r4
   466e4:	e3a02000 	mov	r2, #0
   466e8:	e3580000 	cmp	r8, #0
   466ec:	e58d2004 	str	r2, [sp, #4]
   466f0:	028d8e16 	addeq	r8, sp, #352	; 0x160
   466f4:	e59f11c0 	ldr	r1, [pc, #448]	; 468bc <_start@@Base+0x3a734>
   466f8:	e28d0e16 	add	r0, sp, #352	; 0x160
   466fc:	e59d2004 	ldr	r2, [sp, #4]
[31m   46700:	ebff15ad 	bl	bdbc <sprintf@plt>[0m
   46704:	e1a00008 	mov	r0, r8
   46708:	e28d10f8 	add	r1, sp, #248	; 0xf8

[0m
[[0;33m*[0m] Function [0;33msprintf[0m used [0;33m27[0m times [0;33mbusybox[0m

