[[0;33m*[0m] Binary protection state of [0;33mlibxt_TEE.so[0m
[REF] s12

  	RELRO          CANARY            NX           PIE       RPATH        RUNPATH      SYMBOLS      
  	[31mNo RELRO[0m       [31mNo Canary found[0m   [32mNX enabled[0m   [33mDSO[0m          [32mNo RPATH[0m     [32mNo RUNPATH[0m   [31mSymbols
	[31mNo RELRO[0m       [31mNo Canary found[0m   [32mNX enabled[0m   [33mDSO[0m          [32mNo RPATH[0m     [32mNo RUNPATH[0m   [32mNo Symbols[0m

[0m
[[0;33m*[0m] Function [0;33mprintf[0m tear down of [0;33mlibxt_TEE.so[0m

 6b8:	e3530000 	cmp	r3, #0
 6bc:	08bd8010 	popeq	{r4, pc}
 6c0:	e12fff33 	blx	r3
 6c4:	e8bd8010 	pop	{r4, pc}
 6c8:	00008498 	muleq	r0, r8, r4
 6cc:	00000040 	andeq	r0, r0, r0, asr #32
 6d0:	ffff7eac 			; <UNDEFINED> instruction: 0xffff7eac
 6d4:	00000104 	andeq	r0, r0, r4, lsl #2
 6d8:	fffffebc 			; <UNDEFINED> instruction: 0xfffffebc
 6dc:	0000003c 	andeq	r0, r0, ip, lsr r0
 6e0:	e92d4070 	push	{r4, r5, r6, lr}
 6e4:	e2815020 	add	r5, r1, #32
 6e8:	e59f403c 	ldr	r4, [pc, #60]	; 72c <__register_frame_info@plt+0x148>
 6ec:	e1a00005 	mov	r0, r5
 6f0:	e1a06001 	mov	r6, r1
 6f4:	ebffffa8 	bl	59c <xtables_ip6addr_to_numeric@plt>
 6f8:	e1a01000 	mov	r1, r0
 6fc:	e59f002c 	ldr	r0, [pc, #44]	; 730 <__register_frame_info@plt+0x14c>
 700:	e08f4004 	add	r4, pc, r4
 704:	e0840000 	add	r0, r4, r0
[31m 708:	ebffff9a 	bl	578 <printf@plt>[0m
 70c:	e5d53010 	ldrb	r3, [r5, #16]
 710:	e3530000 	cmp	r3, #0
 714:	08bd8070 	popeq	{r4, r5, r6, pc}
 718:	e59f0014 	ldr	r0, [pc, #20]	; 734 <__register_frame_info@plt+0x150>
 71c:	e2861030 	add	r1, r6, #48	; 0x30
 720:	e0840000 	add	r0, r4, r0
 724:	e8bd4070 	pop	{r4, r5, r6, lr}
[31m 728:	eaffff92 	b	578 <printf@plt>[0m
 72c:	00008410 	andeq	r8, r0, r0, lsl r4
 730:	ffff7dcc 			; <UNDEFINED> instruction: 0xffff7dcc
 734:	ffff7ddc 			; <UNDEFINED> instruction: 0xffff7ddc
 738:	e92d4070 	push	{r4, r5, r6, lr}
 73c:	e3520000 	cmp	r2, #0
 740:	e59f4068 	ldr	r4, [pc, #104]	; 7b0 <__register_frame_info@plt+0x1cc>
 744:	e2815020 	add	r5, r1, #32
 748:	e08f4004 	add	r4, pc, r4
 74c:	0a00000d 	beq	788 <__register_frame_info@plt+0x1a4>
 750:	e1a00005 	mov	r0, r5
 754:	ebffff90 	bl	59c <xtables_ip6addr_to_numeric@plt>
 758:	e1a01000 	mov	r1, r0
 75c:	e59f0050 	ldr	r0, [pc, #80]	; 7b4 <__register_frame_info@plt+0x1d0>
 760:	e0840000 	add	r0, r4, r0
[31m 764:	ebffff83 	bl	578 <printf@plt>[0m
 768:	e5d53010 	ldrb	r3, [r5, #16]
 76c:	e3530000 	cmp	r3, #0
 770:	08bd8070 	popeq	{r4, r5, r6, pc}
 774:	e59f003c 	ldr	r0, [pc, #60]	; 7b8 <__register_frame_info@plt+0x1d4>
 778:	e2851010 	add	r1, r5, #16
 77c:	e0840000 	add	r0, r4, r0
 780:	e8bd4070 	pop	{r4, r5, r6, lr}
[31m 784:	eaffff7b 	b	578 <printf@plt>[0m
 788:	e1a00005 	mov	r0, r5
 78c:	ebffff8b 	bl	5c0 <xtables_ip6addr_to_anyname@plt>
 790:	e1a01000 	mov	r1, r0
 794:	e59f0018 	ldr	r0, [pc, #24]	; 7b4 <__register_frame_info@plt+0x1d0>
 798:	e0840000 	add	r0, r4, r0
[31m 79c:	ebffff75 	bl	578 <printf@plt>[0m
 7a0:	e5d53010 	ldrb	r3, [r5, #16]
 7a4:	e3530000 	cmp	r3, #0
 7a8:	08bd8070 	popeq	{r4, r5, r6, pc}
 7ac:	eafffff0 	b	774 <__register_frame_info@plt+0x190>
 7b0:	000083c8 	andeq	r8, r0, r8, asr #7
 7b4:	ffff7de8 			; <UNDEFINED> instruction: 0xffff7de8
 7b8:	ffff7df4 			; <UNDEFINED> instruction: 0xffff7df4
 7bc:	e92d4070 	push	{r4, r5, r6, lr}
 7c0:	e2815020 	add	r5, r1, #32
 7c4:	e59f403c 	ldr	r4, [pc, #60]	; 808 <__register_frame_info@plt+0x224>
 7c8:	e1a00005 	mov	r0, r5
 7cc:	e1a06001 	mov	r6, r1
 7d0:	ebffff74 	bl	5a8 <xtables_ipaddr_to_numeric@plt>
 7d4:	e1a01000 	mov	r1, r0
 7d8:	e59f002c 	ldr	r0, [pc, #44]	; 80c <__register_frame_info@plt+0x228>
 7dc:	e08f4004 	add	r4, pc, r4
 7e0:	e0840000 	add	r0, r4, r0
[31m 7e4:	ebffff63 	bl	578 <printf@plt>[0m
 7e8:	e5d53010 	ldrb	r3, [r5, #16]
 7ec:	e3530000 	cmp	r3, #0
 7f0:	08bd8070 	popeq	{r4, r5, r6, pc}
 7f4:	e59f0014 	ldr	r0, [pc, #20]	; 810 <__register_frame_info@plt+0x22c>
 7f8:	e2861030 	add	r1, r6, #48	; 0x30
 7fc:	e0840000 	add	r0, r4, r0
 800:	e8bd4070 	pop	{r4, r5, r6, lr}
[31m 804:	eaffff5b 	b	578 <printf@plt>[0m
 808:	00008334 	andeq	r8, r0, r4, lsr r3
 80c:	ffff7dcc 			; <UNDEFINED> instruction: 0xffff7dcc
 810:	ffff7ddc 			; <UNDEFINED> instruction: 0xffff7ddc
 814:	e92d4070 	push	{r4, r5, r6, lr}
 818:	e3520000 	cmp	r2, #0
 81c:	e59f4068 	ldr	r4, [pc, #104]	; 88c <__register_frame_info@plt+0x2a8>
 820:	e2815020 	add	r5, r1, #32
 824:	e08f4004 	add	r4, pc, r4
 828:	0a00000d 	beq	864 <__register_frame_info@plt+0x280>
 82c:	e1a00005 	mov	r0, r5
 830:	ebffff5c 	bl	5a8 <xtables_ipaddr_to_numeric@plt>
 834:	e1a01000 	mov	r1, r0
 838:	e59f0050 	ldr	r0, [pc, #80]	; 890 <__register_frame_info@plt+0x2ac>
 83c:	e0840000 	add	r0, r4, r0
[31m 840:	ebffff4c 	bl	578 <printf@plt>[0m
 844:	e5d53010 	ldrb	r3, [r5, #16]
 848:	e3530000 	cmp	r3, #0
 84c:	08bd8070 	popeq	{r4, r5, r6, pc}
 850:	e59f003c 	ldr	r0, [pc, #60]	; 894 <__register_frame_info@plt+0x2b0>
 854:	e2851010 	add	r1, r5, #16
 858:	e0840000 	add	r0, r4, r0
 85c:	e8bd4070 	pop	{r4, r5, r6, lr}
[31m 860:	eaffff44 	b	578 <printf@plt>[0m
 864:	e1a00005 	mov	r0, r5
 868:	ebffff57 	bl	5cc <xtables_ipaddr_to_anyname@plt>
 86c:	e1a01000 	mov	r1, r0
 870:	e59f0018 	ldr	r0, [pc, #24]	; 890 <__register_frame_info@plt+0x2ac>
 874:	e0840000 	add	r0, r4, r0
[31m 878:	ebffff3e 	bl	578 <printf@plt>[0m
 87c:	e5d53010 	ldrb	r3, [r5, #16]
 880:	e3530000 	cmp	r3, #0

[0m
[[0;33m*[0m] Function [0;33mprintf[0m used [0;33m6[0m times [0;33mlibxt_TEE.so[0m

