[[0;33m*[0m] Binary protection state of [0;33mlibshared.so[0m
[REF] s12

  	RELRO          CANARY            NX           PIE       RPATH        RUNPATH      SYMBOLS      
  	[31mNo RELRO[0m       [31mNo Canary found[0m   [32mNX enabled[0m   [33mDSO[0m          [32mNo RPATH[0m     [32mNo RUNPATH[0m   [32mNo Symbols[0m

[0m
[[0;33m*[0m] Function [0;33mstrcpy[0m tear down of [0;33mlibshared.so[0m

    8174:	e3a01015 	mov	r1, #21
    8178:	ebffed5e 	bl	36f8 <snprintf@plt>
    817c:	e1a00005 	mov	r0, r5
    8180:	ebffee0a 	bl	39b0 <nvram_get@plt>
    8184:	e2501000 	subs	r1, r0, #0
    8188:	0a00004a 	beq	82b8 <get_wds_wsec+0x1a0>
    818c:	e28d5010 	add	r5, sp, #16
    8190:	e3a02ffa 	mov	r2, #1000	; 0x3e8
    8194:	e2455008 	sub	r5, r5, #8
    8198:	e28d6e41 	add	r6, sp, #1040	; 0x410
    819c:	e1a00005 	mov	r0, r5
    81a0:	ebffeddb 	bl	3914 <strncpy@plt>
    81a4:	e5265004 	str	r5, [r6, #-4]!
    81a8:	e1a00006 	mov	r0, r6
    81ac:	e59f511c 	ldr	r5, [pc, #284]	; 82d0 <get_wds_wsec+0x1b8>
    81b0:	e0845005 	add	r5, r4, r5
    81b4:	e1a01005 	mov	r1, r5
    81b8:	ebffee29 	bl	3a64 <strsep@plt>
    81bc:	e1a01000 	mov	r1, r0
    81c0:	e1a00008 	mov	r0, r8
[31m    81c4:	ebffed21 	bl	3650 <strcpy@plt>[0m
    81c8:	e59d040c 	ldr	r0, [sp, #1036]	; 0x40c
    81cc:	e3500000 	cmp	r0, #0
    81d0:	0a000021 	beq	825c <get_wds_wsec+0x144>
    81d4:	e1a01005 	mov	r1, r5
    81d8:	e1a00006 	mov	r0, r6
    81dc:	ebffee20 	bl	3a64 <strsep@plt>
    81e0:	e1a01000 	mov	r1, r0
    81e4:	e1a0000a 	mov	r0, sl
[31m    81e8:	ebffed18 	bl	3650 <strcpy@plt>[0m
    81ec:	e59d040c 	ldr	r0, [sp, #1036]	; 0x40c
    81f0:	e3500000 	cmp	r0, #0
    81f4:	0a000018 	beq	825c <get_wds_wsec+0x144>
    81f8:	e1a01005 	mov	r1, r5
    81fc:	e1a00006 	mov	r0, r6
    8200:	ebffee17 	bl	3a64 <strsep@plt>
    8204:	e1a01000 	mov	r1, r0
    8208:	e59d0430 	ldr	r0, [sp, #1072]	; 0x430
[31m    820c:	ebffed0f 	bl	3650 <strcpy@plt>[0m
    8210:	e59d040c 	ldr	r0, [sp, #1036]	; 0x40c
    8214:	e3500000 	cmp	r0, #0
    8218:	0a00000f 	beq	825c <get_wds_wsec+0x144>
    821c:	e1a01005 	mov	r1, r5
    8220:	e1a00006 	mov	r0, r6
    8224:	ebffee0e 	bl	3a64 <strsep@plt>
    8228:	e1a01000 	mov	r1, r0
    822c:	e1a00009 	mov	r0, r9
[31m    8230:	ebffed06 	bl	3650 <strcpy@plt>[0m
    8234:	e59d040c 	ldr	r0, [sp, #1036]	; 0x40c
    8238:	e3500000 	cmp	r0, #0
    823c:	0a000006 	beq	825c <get_wds_wsec+0x144>
    8240:	e59f108c 	ldr	r1, [pc, #140]	; 82d4 <get_wds_wsec+0x1bc>
    8244:	e1a00009 	mov	r0, r9
    8248:	e0841001 	add	r1, r4, r1
    824c:	ebffedf2 	bl	3a1c <strcmp@plt>
    8250:	e3500000 	cmp	r0, #0
    8254:	13a00000 	movne	r0, #0
    8258:	0a000001 	beq	8264 <get_wds_wsec+0x14c>
    825c:	e28dde41 	add	sp, sp, #1040	; 0x410
    8260:	e8bd87f0 	pop	{r4, r5, r6, r7, r8, r9, sl, pc}
    8264:	e59d4438 	ldr	r4, [sp, #1080]	; 0x438
    8268:	e28d3e43 	add	r3, sp, #1072	; 0x430
    826c:	e283300c 	add	r3, r3, #12
    8270:	e1a01005 	mov	r1, r5
    8274:	e1a00006 	mov	r0, r6
    8278:	e58d3408 	str	r3, [sp, #1032]	; 0x408
    827c:	ebffedf8 	bl	3a64 <strsep@plt>
    8280:	e1a01000 	mov	r1, r0
    8284:	e1a00004 	mov	r0, r4
[31m    8288:	ebffecf0 	bl	3650 <strcpy@plt>[0m
    828c:	e59d140c 	ldr	r1, [sp, #1036]	; 0x40c
    8290:	e3510000 	cmp	r1, #0
    8294:	01a00001 	moveq	r0, r1
    8298:	0affffef 	beq	825c <get_wds_wsec+0x144>
    829c:	e59d3408 	ldr	r3, [sp, #1032]	; 0x408
    82a0:	e2832004 	add	r2, r3, #4
    82a4:	e58d2408 	str	r2, [sp, #1032]	; 0x408
    82a8:	e5930000 	ldr	r0, [r3]
[31m    82ac:	ebffece7 	bl	3650 <strcpy@plt>[0m
    82b0:	e3a00001 	mov	r0, #1
    82b4:	eaffffe8 	b	825c <get_wds_wsec+0x144>
--
    8680:	e59f1510 	ldr	r1, [pc, #1296]	; 8b98 <convert_deprecated+0x704>
    8684:	e1a00009 	mov	r0, r9
    8688:	e0851001 	add	r1, r5, r1
    868c:	ebffece2 	bl	3a1c <strcmp@plt>
    8690:	e3500000 	cmp	r0, #0
    8694:	0a0000e7 	beq	8a38 <convert_deprecated+0x5a4>
    8698:	e59f14fc 	ldr	r1, [pc, #1276]	; 8b9c <convert_deprecated+0x708>
    869c:	e1a00009 	mov	r0, r9
    86a0:	e0851001 	add	r1, r5, r1
    86a4:	ebffecdc 	bl	3a1c <strcmp@plt>
    86a8:	e3500000 	cmp	r0, #0
    86ac:	0a0000e1 	beq	8a38 <convert_deprecated+0x5a4>
    86b0:	e59f14e8 	ldr	r1, [pc, #1256]	; 8ba0 <convert_deprecated+0x70c>
    86b4:	e1a00009 	mov	r0, r9
    86b8:	e0851001 	add	r1, r5, r1
    86bc:	ebffecd6 	bl	3a1c <strcmp@plt>
    86c0:	e3500000 	cmp	r0, #0
    86c4:	1a000106 	bne	8ae4 <convert_deprecated+0x650>
    86c8:	e1a01006 	mov	r1, r6
    86cc:	e1a00004 	mov	r0, r4
[31m    86d0:	ebffebde 	bl	3650 <strcpy@plt>[0m
    86d4:	e1a00004 	mov	r0, r4
    86d8:	ebffed08 	bl	3b00 <strlen@plt>
    86dc:	e1a01007 	mov	r1, r7
    86e0:	e3a0200a 	mov	r2, #10
    86e4:	e0840000 	add	r0, r4, r0
    86e8:	ebffec20 	bl	3770 <memcpy@plt>
    86ec:	e1a00004 	mov	r0, r4
    86f0:	ebffecae 	bl	39b0 <nvram_get@plt>
    86f4:	e3500000 	cmp	r0, #0
    86f8:	0a000004 	beq	8710 <convert_deprecated+0x27c>
    86fc:	e59f14a0 	ldr	r1, [pc, #1184]	; 8ba4 <convert_deprecated+0x710>
    8700:	e0851001 	add	r1, r5, r1
    8704:	ebffecc4 	bl	3a1c <strcmp@plt>
    8708:	e3500000 	cmp	r0, #0
    870c:	0a00009b 	beq	8980 <convert_deprecated+0x4ec>
    8710:	e1a01006 	mov	r1, r6
    8714:	e1a00004 	mov	r0, r4
[31m    8718:	ebffebcc 	bl	3650 <strcpy@plt>[0m
    871c:	e1a00004 	mov	r0, r4
    8720:	ebffecf6 	bl	3b00 <strlen@plt>
    8724:	e1a01007 	mov	r1, r7
    8728:	e3a0200a 	mov	r2, #10
    872c:	e0840000 	add	r0, r4, r0
    8730:	ebffec0e 	bl	3770 <memcpy@plt>
    8734:	e1a00004 	mov	r0, r4
    8738:	ebffec9c 	bl	39b0 <nvram_get@plt>
    873c:	e3500000 	cmp	r0, #0
    8740:	0a000012 	beq	8790 <convert_deprecated+0x2fc>
    8744:	e59f145c 	ldr	r1, [pc, #1116]	; 8ba8 <convert_deprecated+0x714>
    8748:	e0851001 	add	r1, r5, r1
    874c:	ebffecb2 	bl	3a1c <strcmp@plt>
    8750:	e3500000 	cmp	r0, #0
    8754:	1a00000d 	bne	8790 <convert_deprecated+0x2fc>
    8758:	e1a01006 	mov	r1, r6
    875c:	e1a00004 	mov	r0, r4
[31m    8760:	ebffebba 	bl	3650 <strcpy@plt>[0m
    8764:	e1a00004 	mov	r0, r4
    8768:	ebffece4 	bl	3b00 <strlen@plt>
    876c:	e59f1438 	ldr	r1, [pc, #1080]	; 8bac <convert_deprecated+0x718>
    8770:	e0840000 	add	r0, r4, r0
    8774:	e3a02005 	mov	r2, #5
    8778:	e0851001 	add	r1, r5, r1
    877c:	ebffebfb 	bl	3770 <memcpy@plt>
    8780:	e59f1428 	ldr	r1, [pc, #1064]	; 8bb0 <convert_deprecated+0x71c>
    8784:	e1a00004 	mov	r0, r4
    8788:	e0851001 	add	r1, r5, r1
    878c:	ebffec45 	bl	38a8 <nvram_set@plt>
    8790:	e1a01006 	mov	r1, r6
    8794:	e1a00004 	mov	r0, r4
[31m    8798:	ebffebac 	bl	3650 <strcpy@plt>[0m
    879c:	e1a00004 	mov	r0, r4
    87a0:	ebffecd6 	bl	3b00 <strlen@plt>
    87a4:	e1a01007 	mov	r1, r7
    87a8:	e3a0200a 	mov	r2, #10
    87ac:	e0840000 	add	r0, r4, r0
    87b0:	ebffebee 	bl	3770 <memcpy@plt>
    87b4:	e1a00004 	mov	r0, r4
    87b8:	ebffec7c 	bl	39b0 <nvram_get@plt>
    87bc:	e3500000 	cmp	r0, #0
    87c0:	0a000005 	beq	87dc <convert_deprecated+0x348>
    87c4:	e59fa3e8 	ldr	sl, [pc, #1000]	; 8bb4 <convert_deprecated+0x720>
    87c8:	e085a00a 	add	sl, r5, sl
    87cc:	e1a0100a 	mov	r1, sl
    87d0:	ebffec91 	bl	3a1c <strcmp@plt>
    87d4:	e3500000 	cmp	r0, #0
    87d8:	0a000089 	beq	8a04 <convert_deprecated+0x570>
    87dc:	e1a01006 	mov	r1, r6
    87e0:	e1a00004 	mov	r0, r4
[31m    87e4:	ebffeb99 	bl	3650 <strcpy@plt>[0m
    87e8:	e1a00004 	mov	r0, r4
    87ec:	ebffecc3 	bl	3b00 <strlen@plt>
    87f0:	e1a01007 	mov	r1, r7
    87f4:	e3a0200a 	mov	r2, #10
    87f8:	e0840000 	add	r0, r4, r0
    87fc:	ebffebdb 	bl	3770 <memcpy@plt>
    8800:	e1a00004 	mov	r0, r4
    8804:	ebffec69 	bl	39b0 <nvram_get@plt>
    8808:	e3500000 	cmp	r0, #0
    880c:	0a00000f 	beq	8850 <convert_deprecated+0x3bc>
    8810:	e59d100c 	ldr	r1, [sp, #12]
    8814:	ebffec80 	bl	3a1c <strcmp@plt>
    8818:	e3500000 	cmp	r0, #0
    881c:	1a00000b 	bne	8850 <convert_deprecated+0x3bc>
    8820:	e1a01006 	mov	r1, r6
    8824:	e1a00004 	mov	r0, r4
[31m    8828:	ebffeb88 	bl	3650 <strcpy@plt>[0m
    882c:	e1a00004 	mov	r0, r4
    8830:	ebffecb2 	bl	3b00 <strlen@plt>
    8834:	e59d1010 	ldr	r1, [sp, #16]
    8838:	e0840000 	add	r0, r4, r0
    883c:	e3a02004 	mov	r2, #4
    8840:	ebffebca 	bl	3770 <memcpy@plt>
    8844:	e1a00004 	mov	r0, r4
    8848:	e59d100c 	ldr	r1, [sp, #12]
    884c:	ebffec15 	bl	38a8 <nvram_set@plt>
    8850:	e1a01006 	mov	r1, r6
    8854:	e1a00004 	mov	r0, r4
[31m    8858:	ebffeb7c 	bl	3650 <strcpy@plt>[0m
    885c:	e1a00004 	mov	r0, r4
    8860:	ebffeca6 	bl	3b00 <strlen@plt>
    8864:	e1a01007 	mov	r1, r7
    8868:	e3a0200a 	mov	r2, #10
    886c:	e0840000 	add	r0, r4, r0
    8870:	ebffebbe 	bl	3770 <memcpy@plt>
    8874:	e1a00004 	mov	r0, r4
    8878:	ebffec4c 	bl	39b0 <nvram_get@plt>
    887c:	e3500000 	cmp	r0, #0
    8880:	0a000010 	beq	88c8 <convert_deprecated+0x434>
    8884:	e59d1008 	ldr	r1, [sp, #8]
    8888:	ebffec63 	bl	3a1c <strcmp@plt>
    888c:	e3500000 	cmp	r0, #0
    8890:	0a00000c 	beq	88c8 <convert_deprecated+0x434>
    8894:	e1a01006 	mov	r1, r6
    8898:	e1a00004 	mov	r0, r4
[31m    889c:	ebffeb6b 	bl	3650 <strcpy@plt>[0m
    88a0:	e1a00004 	mov	r0, r4
    88a4:	ebffec95 	bl	3b00 <strlen@plt>
    88a8:	e1a01007 	mov	r1, r7
    88ac:	e0840000 	add	r0, r4, r0
    88b0:	e3a0200a 	mov	r2, #10
    88b4:	ebffebad 	bl	3770 <memcpy@plt>
    88b8:	e59dc014 	ldr	ip, [sp, #20]
    88bc:	e1a00004 	mov	r0, r4
    88c0:	e085100c 	add	r1, r5, ip
    88c4:	ebffebf7 	bl	38a8 <nvram_set@plt>
    88c8:	e2888001 	add	r8, r8, #1
    88cc:	e3580c01 	cmp	r8, #256	; 0x100
    88d0:	0a000081 	beq	8adc <convert_deprecated+0x648>
    88d4:	e59d3004 	ldr	r3, [sp, #4]
    88d8:	e1a02008 	mov	r2, r8
    88dc:	e1a00006 	mov	r0, r6
    88e0:	e085a00b 	add	sl, r5, fp
    88e4:	e0851003 	add	r1, r5, r3
    88e8:	ebffec54 	bl	3a40 <sprintf@plt>
    88ec:	e1a01006 	mov	r1, r6
    88f0:	e1a00004 	mov	r0, r4
[31m    88f4:	ebffeb55 	bl	3650 <strcpy@plt>[0m
    88f8:	e1a00004 	mov	r0, r4
    88fc:	ebffec7f 	bl	3b00 <strlen@plt>
    8900:	e1a0100a 	mov	r1, sl
    8904:	e3a02004 	mov	r2, #4
    8908:	e0840000 	add	r0, r4, r0
    890c:	ebffeb97 	bl	3770 <memcpy@plt>
    8910:	e1a00004 	mov	r0, r4
    8914:	ebffec25 	bl	39b0 <nvram_get@plt>
    8918:	e2509000 	subs	r9, r0, #0
    891c:	0affffe9 	beq	88c8 <convert_deprecated+0x434>
    8920:	e1a0100a 	mov	r1, sl
    8924:	ebffec3c 	bl	3a1c <strcmp@plt>
    8928:	e3500000 	cmp	r0, #0
    892c:	0a000005 	beq	8948 <convert_deprecated+0x4b4>
    8930:	e59f1280 	ldr	r1, [pc, #640]	; 8bb8 <convert_deprecated+0x724>
    8934:	e1a00009 	mov	r0, r9
    8938:	e0851001 	add	r1, r5, r1
    893c:	ebffec36 	bl	3a1c <strcmp@plt>
    8940:	e3500000 	cmp	r0, #0
    8944:	1affff41 	bne	8650 <convert_deprecated+0x1bc>
    8948:	e1a01006 	mov	r1, r6
    894c:	e1a00004 	mov	r0, r4
[31m    8950:	ebffeb3e 	bl	3650 <strcpy@plt>[0m
    8954:	e1a00004 	mov	r0, r4
    8958:	ebffec68 	bl	3b00 <strlen@plt>
    895c:	e085100b 	add	r1, r5, fp
    8960:	e0840000 	add	r0, r4, r0
    8964:	e3a02004 	mov	r2, #4
    8968:	ebffeb80 	bl	3770 <memcpy@plt>
    896c:	e59f122c 	ldr	r1, [pc, #556]	; 8ba0 <convert_deprecated+0x70c>
    8970:	e1a00004 	mov	r0, r4
    8974:	e0851001 	add	r1, r5, r1
    8978:	ebffebca 	bl	38a8 <nvram_set@plt>
    897c:	eaffff51 	b	86c8 <convert_deprecated+0x234>
    8980:	e1a01006 	mov	r1, r6
    8984:	e1a00004 	mov	r0, r4
[31m    8988:	ebffeb30 	bl	3650 <strcpy@plt>[0m
    898c:	e1a00004 	mov	r0, r4
    8990:	ebffec5a 	bl	3b00 <strlen@plt>
    8994:	e59f1210 	ldr	r1, [pc, #528]	; 8bac <convert_deprecated+0x718>
    8998:	e3a02005 	mov	r2, #5
    899c:	e0840000 	add	r0, r4, r0
    89a0:	e0851001 	add	r1, r5, r1
    89a4:	ebffeb71 	bl	3770 <memcpy@plt>
    89a8:	e1a00004 	mov	r0, r4
    89ac:	ebffebff 	bl	39b0 <nvram_get@plt>
    89b0:	e3500000 	cmp	r0, #0
    89b4:	0a000004 	beq	89cc <convert_deprecated+0x538>
    89b8:	e59f11f0 	ldr	r1, [pc, #496]	; 8bb0 <convert_deprecated+0x71c>
    89bc:	e0851001 	add	r1, r5, r1
    89c0:	ebffec15 	bl	3a1c <strcmp@plt>
    89c4:	e3500000 	cmp	r0, #0
    89c8:	0a000035 	beq	8aa4 <convert_deprecated+0x610>
    89cc:	e1a01006 	mov	r1, r6
    89d0:	e1a00004 	mov	r0, r4
[31m    89d4:	ebffeb1d 	bl	3650 <strcpy@plt>[0m
    89d8:	e1a00004 	mov	r0, r4
    89dc:	ebffec47 	bl	3b00 <strlen@plt>
    89e0:	e1a01007 	mov	r1, r7
    89e4:	e0840000 	add	r0, r4, r0
    89e8:	e3a0200a 	mov	r2, #10
    89ec:	ebffeb5f 	bl	3770 <memcpy@plt>
    89f0:	e59f11c4 	ldr	r1, [pc, #452]	; 8bbc <convert_deprecated+0x728>
    89f4:	e1a00004 	mov	r0, r4
    89f8:	e0851001 	add	r1, r5, r1
    89fc:	ebffeba9 	bl	38a8 <nvram_set@plt>
    8a00:	eaffff42 	b	8710 <convert_deprecated+0x27c>
    8a04:	e1a01006 	mov	r1, r6
    8a08:	e1a00004 	mov	r0, r4
[31m    8a0c:	ebffeb0f 	bl	3650 <strcpy@plt>[0m
    8a10:	e1a00004 	mov	r0, r4
    8a14:	ebffec39 	bl	3b00 <strlen@plt>
    8a18:	e59d1010 	ldr	r1, [sp, #16]
    8a1c:	e0840000 	add	r0, r4, r0
    8a20:	e3a02004 	mov	r2, #4
    8a24:	ebffeb51 	bl	3770 <memcpy@plt>
    8a28:	e1a00004 	mov	r0, r4
    8a2c:	e1a0100a 	mov	r1, sl
    8a30:	ebffeb9c 	bl	38a8 <nvram_set@plt>
    8a34:	eaffff85 	b	8850 <convert_deprecated+0x3bc>
    8a38:	e1a01006 	mov	r1, r6
    8a3c:	e1a00004 	mov	r0, r4
[31m    8a40:	ebffeb02 	bl	3650 <strcpy@plt>[0m
    8a44:	e1a00004 	mov	r0, r4
    8a48:	ebffec2c 	bl	3b00 <strlen@plt>
    8a4c:	e59f116c 	ldr	r1, [pc, #364]	; 8bc0 <convert_deprecated+0x72c>
    8a50:	e3a02007 	mov	r2, #7
    8a54:	e0840000 	add	r0, r4, r0
    8a58:	e0851001 	add	r1, r5, r1
    8a5c:	ebffeb43 	bl	3770 <memcpy@plt>
    8a60:	e1a01009 	mov	r1, r9
    8a64:	e1a00004 	mov	r0, r4
    8a68:	ebffeb8e 	bl	38a8 <nvram_set@plt>
    8a6c:	e1a01006 	mov	r1, r6
    8a70:	e1a00004 	mov	r0, r4
[31m    8a74:	ebffeaf5 	bl	3650 <strcpy@plt>[0m
    8a78:	e1a00004 	mov	r0, r4
    8a7c:	ebffec1f 	bl	3b00 <strlen@plt>
    8a80:	e085100b 	add	r1, r5, fp
    8a84:	e0840000 	add	r0, r4, r0
    8a88:	e3a02004 	mov	r2, #4
    8a8c:	ebffeb37 	bl	3770 <memcpy@plt>
    8a90:	e59f110c 	ldr	r1, [pc, #268]	; 8ba4 <convert_deprecated+0x710>
    8a94:	e1a00004 	mov	r0, r4
    8a98:	e0851001 	add	r1, r5, r1
    8a9c:	ebffeb81 	bl	38a8 <nvram_set@plt>
    8aa0:	eaffff08 	b	86c8 <convert_deprecated+0x234>
    8aa4:	e1a01006 	mov	r1, r6
    8aa8:	e1a00004 	mov	r0, r4
[31m    8aac:	ebffeae7 	bl	3650 <strcpy@plt>[0m
    8ab0:	e1a00004 	mov	r0, r4
    8ab4:	ebffec11 	bl	3b00 <strlen@plt>
    8ab8:	e1a01007 	mov	r1, r7
    8abc:	e0840000 	add	r0, r4, r0
    8ac0:	e3a0200a 	mov	r2, #10
    8ac4:	ebffeb29 	bl	3770 <memcpy@plt>
    8ac8:	e59f10d8 	ldr	r1, [pc, #216]	; 8ba8 <convert_deprecated+0x714>
    8acc:	e1a00004 	mov	r0, r4
    8ad0:	e0851001 	add	r1, r5, r1
    8ad4:	ebffeb73 	bl	38a8 <nvram_set@plt>
    8ad8:	eaffff0c 	b	8710 <convert_deprecated+0x27c>
    8adc:	e28dd07c 	add	sp, sp, #124	; 0x7c
    8ae0:	e8bd8ff0 	pop	{r4, r5, r6, r7, r8, r9, sl, fp, pc}
    8ae4:	e1a01006 	mov	r1, r6
    8ae8:	e1a00004 	mov	r0, r4
[31m    8aec:	ebffead7 	bl	3650 <strcpy@plt>[0m
    8af0:	e1a00004 	mov	r0, r4
    8af4:	ebffec01 	bl	3b00 <strlen@plt>
--
    94a0:	e0852002 	add	r2, r5, r2
    94a4:	ebffe893 	bl	36f8 <snprintf@plt>
    94a8:	eaffffef 	b	946c <get_dhcp_staticlease+0x80>
    94ac:	e1a00004 	mov	r0, r4
    94b0:	e28d4010 	add	r4, sp, #16
    94b4:	e2444008 	sub	r4, r4, #8
    94b8:	e28d7e41 	add	r7, sp, #1040	; 0x410
    94bc:	ebffe93b 	bl	39b0 <nvram_get@plt>
    94c0:	e3a02ffa 	mov	r2, #1000	; 0x3e8
    94c4:	e1a01000 	mov	r1, r0
    94c8:	e1a00004 	mov	r0, r4
    94cc:	ebffe910 	bl	3914 <strncpy@plt>
    94d0:	e59f3094 	ldr	r3, [pc, #148]	; 956c <get_dhcp_staticlease+0x180>
    94d4:	e5274004 	str	r4, [r7, #-4]!
    94d8:	e1a00007 	mov	r0, r7
    94dc:	e0855003 	add	r5, r5, r3
    94e0:	e1a01005 	mov	r1, r5
    94e4:	ebffe95e 	bl	3a64 <strsep@plt>
    94e8:	e1a01000 	mov	r1, r0
    94ec:	e1a00006 	mov	r0, r6
[31m    94f0:	ebffe856 	bl	3650 <strcpy@plt>[0m
    94f4:	e59d040c 	ldr	r0, [sp, #1036]	; 0x40c
    94f8:	e3500000 	cmp	r0, #0
    94fc:	0affffe1 	beq	9488 <get_dhcp_staticlease+0x9c>
    9500:	e1a01005 	mov	r1, r5
    9504:	e1a00007 	mov	r0, r7
    9508:	ebffe955 	bl	3a64 <strsep@plt>
    950c:	e1a01000 	mov	r1, r0
    9510:	e2860040 	add	r0, r6, #64	; 0x40
[31m    9514:	ebffe84d 	bl	3650 <strcpy@plt>[0m
    9518:	e59d040c 	ldr	r0, [sp, #1036]	; 0x40c
    951c:	e3500000 	cmp	r0, #0
    9520:	0affffd8 	beq	9488 <get_dhcp_staticlease+0x9c>
    9524:	e1a01005 	mov	r1, r5
    9528:	e1a00007 	mov	r0, r7
    952c:	ebffe94c 	bl	3a64 <strsep@plt>
    9530:	e1a01000 	mov	r1, r0
    9534:	e2860054 	add	r0, r6, #84	; 0x54
[31m    9538:	ebffe844 	bl	3650 <strcpy@plt>[0m
    953c:	e59d040c 	ldr	r0, [sp, #1036]	; 0x40c
    9540:	e3500000 	cmp	r0, #0
--
    9f14:	e1a00007 	mov	r0, r7
    9f18:	e1c120b0 	strh	r2, [r1]
    9f1c:	e5c4300a 	strb	r3, [r4, #10]
    9f20:	ebffe6f6 	bl	3b00 <strlen@plt>
    9f24:	e3550000 	cmp	r5, #0
    9f28:	e1a0a000 	mov	sl, r0
    9f2c:	13e03000 	mvnne	r3, #0
    9f30:	15853000 	strne	r3, [r5]
    9f34:	e3560000 	cmp	r6, #0
    9f38:	13e03000 	mvnne	r3, #0
    9f3c:	15863000 	strne	r3, [r6]
    9f40:	e2803001 	add	r3, r0, #1
    9f44:	e3530040 	cmp	r3, #64	; 0x40
    9f48:	9a000002 	bls	9f58 <get_ifname_unit+0x80>
    9f4c:	e3e00000 	mvn	r0, #0
    9f50:	e28dd054 	add	sp, sp, #84	; 0x54
    9f54:	e8bd85f0 	pop	{r4, r5, r6, r7, r8, sl, pc}
    9f58:	e28d8004 	add	r8, sp, #4
    9f5c:	e1a01007 	mov	r1, r7
    9f60:	e1a00008 	mov	r0, r8
[31m    9f64:	ebffe5b9 	bl	3650 <strcpy@plt>[0m
    9f68:	e1a00008 	mov	r0, r8
    9f6c:	e1a01004 	mov	r1, r4
--
    bfd4:	e0846006 	add	r6, r4, r6
    bfd8:	e1a07000 	mov	r7, r0
    bfdc:	e3a02002 	mov	r2, #2
    bfe0:	e1a00005 	mov	r0, r5
    bfe4:	e1a01006 	mov	r1, r6
    bfe8:	ebffde43 	bl	38fc <strncmp@plt>
    bfec:	e3500000 	cmp	r0, #0
    bff0:	1a000008 	bne	c018 <nvram_default_get+0x64>
    bff4:	ebffde9d 	bl	3a70 <__ctype_b_loc@plt>
    bff8:	e5d52002 	ldrb	r2, [r5, #2]
    bffc:	e2573000 	subs	r3, r7, #0
    c000:	13a03001 	movne	r3, #1
    c004:	e5901000 	ldr	r1, [r0]
    c008:	e1a02082 	lsl	r2, r2, #1
    c00c:	e19120b2 	ldrh	r2, [r1, r2]
    c010:	e01331a2 	ands	r3, r3, r2, lsr #3
    c014:	1a000027 	bne	c0b8 <nvram_default_get+0x104>
    c018:	e1a01005 	mov	r1, r5
    c01c:	e1a0000d 	mov	r0, sp
    c020:	e1a0600d 	mov	r6, sp
[31m    c024:	ebffdd89 	bl	3650 <strcpy@plt>[0m
    c028:	e59f10b4 	ldr	r1, [pc, #180]	; c0e4 <nvram_default_get+0x130>
    c02c:	e1a0000d 	mov	r0, sp
--
    c084:	e5b7000c 	ldr	r0, [r7, #12]!
    c088:	e2855001 	add	r5, r5, #1
    c08c:	e3500000 	cmp	r0, #0
    c090:	0afffff2 	beq	c060 <nvram_default_get+0xac>
    c094:	e1a0100d 	mov	r1, sp
    c098:	ebffde5f 	bl	3a1c <strcmp@plt>
    c09c:	e3500000 	cmp	r0, #0
    c0a0:	1afffff7 	bne	c084 <nvram_default_get+0xd0>
    c0a4:	e7943008 	ldr	r3, [r4, r8]
    c0a8:	e0855085 	add	r5, r5, r5, lsl #1
    c0ac:	e0835105 	add	r5, r3, r5, lsl #2
    c0b0:	e5950004 	ldr	r0, [r5, #4]
    c0b4:	eaffffe9 	b	c060 <nvram_default_get+0xac>
    c0b8:	e5963000 	ldr	r3, [r6]
    c0bc:	e1a0000d 	mov	r0, sp
    c0c0:	e1a01007 	mov	r1, r7
    c0c4:	e1a0600d 	mov	r6, sp
    c0c8:	e0c030b2 	strh	r3, [r0], #2
    c0cc:	e1a03823 	lsr	r3, r3, #16
    c0d0:	e5cd3002 	strb	r3, [sp, #2]
[31m    c0d4:	ebffdd5d 	bl	3650 <strcpy@plt>[0m
    c0d8:	eaffffd2 	b	c028 <nvram_default_get+0x74>
    c0dc:	0000b604 	andeq	fp, r0, r4, lsl #12
--
    c5e4:	e59d318c 	ldr	r3, [sp, #396]	; 0x18c
    c5e8:	e0842002 	add	r2, r4, r2
    c5ec:	e58dc024 	str	ip, [sp, #36]	; 0x24
    c5f0:	ebffdc40 	bl	36f8 <snprintf@plt>
    c5f4:	e28dc0ec 	add	ip, sp, #236	; 0xec
    c5f8:	e59d0028 	ldr	r0, [sp, #40]	; 0x28
    c5fc:	e58dc01c 	str	ip, [sp, #28]
    c600:	ebffdd3e 	bl	3b00 <strlen@plt>
    c604:	e59d3028 	ldr	r3, [sp, #40]	; 0x28
    c608:	e3a02002 	mov	r2, #2
    c60c:	e59f1d7c 	ldr	r1, [pc, #3452]	; d390 <get_wsec+0xeb0>
    c610:	e0830000 	add	r0, r3, r0
    c614:	e0841001 	add	r1, r4, r1
    c618:	ebffdc54 	bl	3770 <memcpy@plt>
    c61c:	e3a020d0 	mov	r2, #208	; 0xd0
    c620:	e3a01000 	mov	r1, #0
    c624:	e1a00006 	mov	r0, r6
    c628:	ebffdce3 	bl	39bc <memset@plt>
    c62c:	e59d1028 	ldr	r1, [sp, #40]	; 0x28
    c630:	e59d001c 	ldr	r0, [sp, #28]
[31m    c634:	ebffdc05 	bl	3650 <strcpy@plt>[0m
    c638:	e59d001c 	ldr	r0, [sp, #28]
    c63c:	ebffdd2f 	bl	3b00 <strlen@plt>
--
    c774:	0a000006 	beq	c794 <get_wsec+0x2b4>
    c778:	e59dc020 	ldr	ip, [sp, #32]
    c77c:	e5dc3000 	ldrb	r3, [ip]
    c780:	e353002a 	cmp	r3, #42	; 0x2a
    c784:	1affffe3 	bne	c718 <get_wsec+0x238>
    c788:	e5dc3001 	ldrb	r3, [ip, #1]
    c78c:	e3530000 	cmp	r3, #0
    c790:	1affffe0 	bne	c718 <get_wsec+0x238>
    c794:	e59d6034 	ldr	r6, [sp, #52]	; 0x34
    c798:	e3a03001 	mov	r3, #1
    c79c:	e59da02c 	ldr	sl, [sp, #44]	; 0x2c
    c7a0:	e58d3044 	str	r3, [sp, #68]	; 0x44
    c7a4:	e58d302c 	str	r3, [sp, #44]	; 0x2c
    c7a8:	e1a00006 	mov	r0, r6
    c7ac:	e58d3024 	str	r3, [sp, #36]	; 0x24
    c7b0:	e1a0100a 	mov	r1, sl
    c7b4:	e59d318c 	ldr	r3, [sp, #396]	; 0x18c
    c7b8:	e59d7020 	ldr	r7, [sp, #32]
    c7bc:	e59d4038 	ldr	r4, [sp, #56]	; 0x38
    c7c0:	e4803030 	str	r3, [r0], #48	; 0x30
[31m    c7c4:	ebffdba1 	bl	3650 <strcpy@plt>[0m
    c7c8:	e1a01007 	mov	r1, r7
    c7cc:	e3a02006 	mov	r2, #6
    c7d0:	e2860040 	add	r0, r6, #64	; 0x40
    c7d4:	ebffdbe5 	bl	3770 <memcpy@plt>
    c7d8:	e286004e 	add	r0, r6, #78	; 0x4e
    c7dc:	e1a01009 	mov	r1, r9
    c7e0:	e3a02020 	mov	r2, #32
    c7e4:	ebffdc4a 	bl	3914 <strncpy@plt>
    c7e8:	e59f2ba8 	ldr	r2, [pc, #2984]	; d398 <get_wsec+0xeb8>
    c7ec:	e59d1028 	ldr	r1, [sp, #40]	; 0x28
    c7f0:	e59d001c 	ldr	r0, [sp, #28]
    c7f4:	e58d2034 	str	r2, [sp, #52]	; 0x34
[31m    c7f8:	ebffdb94 	bl	3650 <strcpy@plt>[0m
    c7fc:	e59d001c 	ldr	r0, [sp, #28]
    c800:	ebffdcbe 	bl	3b00 <strlen@plt>
    c804:	e59d3034 	ldr	r3, [sp, #52]	; 0x34
    c808:	e3a02005 	mov	r2, #5
    c80c:	e59dc01c 	ldr	ip, [sp, #28]
    c810:	e0841003 	add	r1, r4, r3
    c814:	e08c0000 	add	r0, ip, r0
    c818:	ebffdbd4 	bl	3770 <memcpy@plt>
    c81c:	e59d001c 	ldr	r0, [sp, #28]
    c820:	ebffdc62 	bl	39b0 <nvram_get@plt>
    c824:	e3500000 	cmp	r0, #0
    c828:	0a000005 	beq	c844 <get_wsec+0x364>
    c82c:	e59f1b68 	ldr	r1, [pc, #2920]	; d39c <get_wsec+0xebc>
    c830:	e0841001 	add	r1, r4, r1
    c834:	ebffdc78 	bl	3a1c <strcmp@plt>
    c838:	e3500000 	cmp	r0, #0
    c83c:	03a03001 	moveq	r3, #1
    c840:	05863020 	streq	r3, [r6, #32]
    c844:	e59d1028 	ldr	r1, [sp, #40]	; 0x28
    c848:	e59d001c 	ldr	r0, [sp, #28]
[31m    c84c:	ebffdb7f 	bl	3650 <strcpy@plt>[0m
    c850:	e59d001c 	ldr	r0, [sp, #28]
    c854:	ebffdca9 	bl	3b00 <strlen@plt>
--
    c9e8:	e1a00005 	mov	r0, r5
    c9ec:	ebffdbc8 	bl	3914 <strncpy@plt>
    c9f0:	e1a01009 	mov	r1, r9
    c9f4:	e1a00005 	mov	r0, r5
    c9f8:	ebffdc16 	bl	3a58 <strcspn@plt>
    c9fc:	e28d2e19 	add	r2, sp, #400	; 0x190
    ca00:	e3a01020 	mov	r1, #32
    ca04:	e0823000 	add	r3, r2, r0
    ca08:	e1a00004 	mov	r0, r4
    ca0c:	e5438084 	strb	r8, [r3, #-132]	; 0xffffff7c
    ca10:	e5cd811b 	strb	r8, [sp, #283]	; 0x11b
    ca14:	ebffdc48 	bl	3b3c <strchr@plt>
    ca18:	e5dd310c 	ldrb	r3, [sp, #268]	; 0x10c
    ca1c:	e1a04000 	mov	r4, r0
    ca20:	e3530000 	cmp	r3, #0
    ca24:	1affffca 	bne	c954 <get_wsec+0x474>
    ca28:	e59d4038 	ldr	r4, [sp, #56]	; 0x38
    ca2c:	e59da040 	ldr	sl, [sp, #64]	; 0x40
    ca30:	e59d1028 	ldr	r1, [sp, #40]	; 0x28
    ca34:	e59d001c 	ldr	r0, [sp, #28]
[31m    ca38:	ebffdb04 	bl	3650 <strcpy@plt>[0m
    ca3c:	e59d001c 	ldr	r0, [sp, #28]
    ca40:	ebffdc2e 	bl	3b00 <strlen@plt>
--
    ca7c:	33a03000 	movcc	r3, #0
    ca80:	e59dc02c 	ldr	ip, [sp, #44]	; 0x2c
    ca84:	e5863028 	str	r3, [r6, #40]	; 0x28
    ca88:	e35c0000 	cmp	ip, #0
    ca8c:	128d5f47 	addne	r5, sp, #284	; 0x11c
    ca90:	0a000138 	beq	cf78 <get_wsec+0xa98>
    ca94:	e5963024 	ldr	r3, [r6, #36]	; 0x24
    ca98:	e31300c6 	tst	r3, #198	; 0xc6
    ca9c:	0a000008 	beq	cac4 <get_wsec+0x5e4>
    caa0:	e59f1920 	ldr	r1, [pc, #2336]	; d3c8 <get_wsec+0xee8>
    caa4:	e1a00005 	mov	r0, r5
    caa8:	e0841001 	add	r1, r4, r1
    caac:	ebffdbda 	bl	3a1c <strcmp@plt>
    cab0:	e3500000 	cmp	r0, #0
    cab4:	1a000151 	bne	d000 <get_wsec+0xb20>
    cab8:	e5963028 	ldr	r3, [r6, #40]	; 0x28
    cabc:	e3833002 	orr	r3, r3, #2
    cac0:	e5863028 	str	r3, [r6, #40]	; 0x28
    cac4:	e59d1028 	ldr	r1, [sp, #40]	; 0x28
    cac8:	e59d001c 	ldr	r0, [sp, #28]
[31m    cacc:	ebffdadf 	bl	3650 <strcpy@plt>[0m
    cad0:	e59d001c 	ldr	r0, [sp, #28]
    cad4:	ebffdc09 	bl	3b00 <strlen@plt>
    cad8:	e59f88ec 	ldr	r8, [pc, #2284]	; d3cc <get_wsec+0xeec>
    cadc:	e3a02005 	mov	r2, #5
    cae0:	e59dc01c 	ldr	ip, [sp, #28]
    cae4:	e0841008 	add	r1, r4, r8
    cae8:	e08c0000 	add	r0, ip, r0
    caec:	ebffdb1f 	bl	3770 <memcpy@plt>
    caf0:	e59d001c 	ldr	r0, [sp, #28]
    caf4:	ebffdbad 	bl	39b0 <nvram_get@plt>
    caf8:	e2505000 	subs	r5, r0, #0
    cafc:	0a000179 	beq	d0e8 <get_wsec+0xc08>
    cb00:	e59d1028 	ldr	r1, [sp, #40]	; 0x28
    cb04:	e59d001c 	ldr	r0, [sp, #28]
[31m    cb08:	ebffdad0 	bl	3650 <strcpy@plt>[0m
    cb0c:	e59d001c 	ldr	r0, [sp, #28]
    cb10:	ebffdbfa 	bl	3b00 <strlen@plt>
--
    cc38:	e3a02004 	mov	r2, #4
    cc3c:	e586202c 	str	r2, [r6, #44]	; 0x2c
    cc40:	e3530001 	cmp	r3, #1
    cc44:	00833002 	addeq	r3, r3, r2
    cc48:	0586302c 	streq	r3, [r6, #44]	; 0x2c
    cc4c:	0a000003 	beq	cc60 <get_wsec+0x780>
    cc50:	e3530000 	cmp	r3, #0
    cc54:	1affffed 	bne	cc10 <get_wsec+0x730>
    cc58:	e3a03006 	mov	r3, #6
    cc5c:	e586302c 	str	r3, [r6, #44]	; 0x2c
    cc60:	e5963024 	ldr	r3, [r6, #36]	; 0x24
    cc64:	e3130084 	tst	r3, #132	; 0x84
    cc68:	0a000019 	beq	ccd4 <get_wsec+0x7f4>
    cc6c:	e59d202c 	ldr	r2, [sp, #44]	; 0x2c
    cc70:	e3520000 	cmp	r2, #0
    cc74:	1286006f 	addne	r0, r6, #111	; 0x6f
    cc78:	128d104c 	addne	r1, sp, #76	; 0x4c
    cc7c:	1a00000f 	bne	ccc0 <get_wsec+0x7e0>
    cc80:	e59d1028 	ldr	r1, [sp, #40]	; 0x28
    cc84:	e59d001c 	ldr	r0, [sp, #28]
[31m    cc88:	ebffda70 	bl	3650 <strcpy@plt>[0m
    cc8c:	e59d001c 	ldr	r0, [sp, #28]
    cc90:	ebffdb9a 	bl	3b00 <strlen@plt>
    cc94:	e59d301c 	ldr	r3, [sp, #28]
    cc98:	e3a02008 	mov	r2, #8
    cc9c:	e59f173c 	ldr	r1, [pc, #1852]	; d3e0 <get_wsec+0xf00>
    cca0:	e0830000 	add	r0, r3, r0
    cca4:	e0841001 	add	r1, r4, r1
    cca8:	ebffdab0 	bl	3770 <memcpy@plt>
    ccac:	e59d001c 	ldr	r0, [sp, #28]
    ccb0:	ebffdb3e 	bl	39b0 <nvram_get@plt>
    ccb4:	e2501000 	subs	r1, r0, #0
    ccb8:	0a000058 	beq	ce20 <get_wsec+0x940>
    ccbc:	e286006f 	add	r0, r6, #111	; 0x6f
    ccc0:	e3a02050 	mov	r2, #80	; 0x50
    ccc4:	ebffdb12 	bl	3914 <strncpy@plt>
    ccc8:	e5963024 	ldr	r3, [r6, #36]	; 0x24
    cccc:	e3a02000 	mov	r2, #0
    ccd0:	e5c620bf 	strb	r2, [r6, #191]	; 0xbf
    ccd4:	e3130062 	tst	r3, #98	; 0x62
    ccd8:	1a0000db 	bne	d04c <get_wsec+0xb6c>
    ccdc:	e59d1028 	ldr	r1, [sp, #40]	; 0x28
    cce0:	e59d001c 	ldr	r0, [sp, #28]
[31m    cce4:	ebffda59 	bl	3650 <strcpy@plt>[0m
    cce8:	e59d001c 	ldr	r0, [sp, #28]
    ccec:	ebffdb83 	bl	3b00 <strlen@plt>
--
    cd00:	ebffda9a 	bl	3770 <memcpy@plt>
    cd04:	e59d001c 	ldr	r0, [sp, #28]
    cd08:	ebffdb28 	bl	39b0 <nvram_get@plt>
    cd0c:	e3500000 	cmp	r0, #0
    cd10:	0a00000c 	beq	cd48 <get_wsec+0x868>
    cd14:	e0841009 	add	r1, r4, r9
    cd18:	ebffdb3f 	bl	3a1c <strcmp@plt>
    cd1c:	e3500000 	cmp	r0, #0
    cd20:	1a000008 	bne	cd48 <get_wsec+0x868>
    cd24:	e5963024 	ldr	r3, [r6, #36]	; 0x24
    cd28:	e31300c6 	tst	r3, #198	; 0xc6
    cd2c:	1a000162 	bne	d2bc <get_wsec+0xddc>
    cd30:	e5963028 	ldr	r3, [r6, #40]	; 0x28
    cd34:	e3130001 	tst	r3, #1
    cd38:	1a00012a 	bne	d1e8 <get_wsec+0xd08>
    cd3c:	e5963024 	ldr	r3, [r6, #36]	; 0x24
    cd40:	e3130062 	tst	r3, #98	; 0x62
    cd44:	1a0000ed 	bne	d100 <get_wsec+0xc20>
    cd48:	e59d1028 	ldr	r1, [sp, #40]	; 0x28
    cd4c:	e59d001c 	ldr	r0, [sp, #28]
[31m    cd50:	ebffda3e 	bl	3650 <strcpy@plt>[0m
    cd54:	e59d001c 	ldr	r0, [sp, #28]
    cd58:	ebffdb68 	bl	3b00 <strlen@plt>
    cd5c:	e59dc01c 	ldr	ip, [sp, #28]
    cd60:	e3a02008 	mov	r2, #8
    cd64:	e59f1678 	ldr	r1, [pc, #1656]	; d3e4 <get_wsec+0xf04>
    cd68:	e08c0000 	add	r0, ip, r0
    cd6c:	e0841001 	add	r1, r4, r1
    cd70:	ebffda7e 	bl	3770 <memcpy@plt>
    cd74:	e59d001c 	ldr	r0, [sp, #28]
    cd78:	ebffdb0c 	bl	39b0 <nvram_get@plt>
    cd7c:	e3500000 	cmp	r0, #0
    cd80:	0a000167 	beq	d324 <get_wsec+0xe44>
    cd84:	e3a01000 	mov	r1, #0
    cd88:	e1a02001 	mov	r2, r1
    cd8c:	ebffda95 	bl	37e8 <strtoul@plt>
    cd90:	e59d1028 	ldr	r1, [sp, #40]	; 0x28
    cd94:	e5860018 	str	r0, [r6, #24]
    cd98:	e59d001c 	ldr	r0, [sp, #28]
[31m    cd9c:	ebffda2b 	bl	3650 <strcpy@plt>[0m
    cda0:	e59d001c 	ldr	r0, [sp, #28]
    cda4:	ebffdb55 	bl	3b00 <strlen@plt>
--
    ce04:	e1a00002 	mov	r0, r2
    ce08:	e59f257c 	ldr	r2, [pc, #1404]	; d38c <get_wsec+0xeac>
    ce0c:	e59d318c 	ldr	r3, [sp, #396]	; 0x18c
    ce10:	e58d5024 	str	r5, [sp, #36]	; 0x24
    ce14:	e0842002 	add	r2, r4, r2
    ce18:	ebffda36 	bl	36f8 <snprintf@plt>
    ce1c:	eafffdf4 	b	c5f4 <get_wsec+0x114>
    ce20:	e59f1594 	ldr	r1, [pc, #1428]	; d3bc <get_wsec+0xedc>
    ce24:	e0841001 	add	r1, r4, r1
    ce28:	eaffffa3 	b	ccbc <get_wsec+0x7dc>
    ce2c:	e59d6034 	ldr	r6, [sp, #52]	; 0x34
    ce30:	e3a02001 	mov	r2, #1
    ce34:	e59d7020 	ldr	r7, [sp, #32]
    ce38:	e59d4038 	ldr	r4, [sp, #56]	; 0x38
    ce3c:	e59da02c 	ldr	sl, [sp, #44]	; 0x2c
    ce40:	e58d2024 	str	r2, [sp, #36]	; 0x24
    ce44:	e59d318c 	ldr	r3, [sp, #396]	; 0x18c
    ce48:	e1a00006 	mov	r0, r6
    ce4c:	e1a0100a 	mov	r1, sl
    ce50:	e4803030 	str	r3, [r0], #48	; 0x30
[31m    ce54:	ebffd9fd 	bl	3650 <strcpy@plt>[0m
    ce58:	e3a02006 	mov	r2, #6
    ce5c:	e1a01007 	mov	r1, r7
    ce60:	e2860040 	add	r0, r6, #64	; 0x40
    ce64:	ebffda41 	bl	3770 <memcpy@plt>
    ce68:	e59d1028 	ldr	r1, [sp, #40]	; 0x28
    ce6c:	e59d001c 	ldr	r0, [sp, #28]
[31m    ce70:	ebffd9f6 	bl	3650 <strcpy@plt>[0m
    ce74:	e59d001c 	ldr	r0, [sp, #28]
    ce78:	ebffdb20 	bl	3b00 <strlen@plt>
--
    cf30:	e3500000 	cmp	r0, #0
    cf34:	13a03004 	movne	r3, #4
    cf38:	0affff08 	beq	cb60 <get_wsec+0x680>
    cf3c:	eafffd71 	b	c508 <get_wsec+0x28>
    cf40:	e59f14b8 	ldr	r1, [pc, #1208]	; d400 <get_wsec+0xf20>
    cf44:	e1a00007 	mov	r0, r7
    cf48:	e0841001 	add	r1, r4, r1
    cf4c:	ebffdab2 	bl	3a1c <strcmp@plt>
    cf50:	e3500000 	cmp	r0, #0
    cf54:	0596302c 	ldreq	r3, [r6, #44]	; 0x2c
    cf58:	03a02001 	moveq	r2, #1
    cf5c:	1596302c 	ldrne	r3, [r6, #44]	; 0x2c
    cf60:	05862004 	streq	r2, [r6, #4]
    cf64:	03833003 	orreq	r3, r3, #3
    cf68:	13833001 	orrne	r3, r3, #1
    cf6c:	0586302c 	streq	r3, [r6, #44]	; 0x2c
    cf70:	1586302c 	strne	r3, [r6, #44]	; 0x2c
    cf74:	eafffef9 	b	cb60 <get_wsec+0x680>
    cf78:	e59d1028 	ldr	r1, [sp, #40]	; 0x28
    cf7c:	e59d001c 	ldr	r0, [sp, #28]
[31m    cf80:	ebffd9b2 	bl	3650 <strcpy@plt>[0m
    cf84:	e59d001c 	ldr	r0, [sp, #28]
    cf88:	ebffdadc 	bl	3b00 <strlen@plt>
    cf8c:	e59d301c 	ldr	r3, [sp, #28]
    cf90:	e3a02007 	mov	r2, #7
    cf94:	e59f1468 	ldr	r1, [pc, #1128]	; d404 <get_wsec+0xf24>
    cf98:	e0830000 	add	r0, r3, r0
    cf9c:	e0841001 	add	r1, r4, r1
    cfa0:	ebffd9f2 	bl	3770 <memcpy@plt>
    cfa4:	e59d001c 	ldr	r0, [sp, #28]
    cfa8:	ebffda80 	bl	39b0 <nvram_get@plt>
    cfac:	e2505000 	subs	r5, r0, #0
    cfb0:	059f5404 	ldreq	r5, [pc, #1028]	; d3bc <get_wsec+0xedc>
    cfb4:	00845005 	addeq	r5, r4, r5
    cfb8:	eafffeb5 	b	ca94 <get_wsec+0x5b4>
    cfbc:	e59d1028 	ldr	r1, [sp, #40]	; 0x28
    cfc0:	e59d001c 	ldr	r0, [sp, #28]
[31m    cfc4:	ebffd9a1 	bl	3650 <strcpy@plt>[0m
    cfc8:	e59d001c 	ldr	r0, [sp, #28]
    cfcc:	ebffdacb 	bl	3b00 <strlen@plt>
--
    d004:	e1a00005 	mov	r0, r5
    d008:	e0841001 	add	r1, r4, r1
    d00c:	ebffda82 	bl	3a1c <strcmp@plt>
    d010:	e3500000 	cmp	r0, #0
    d014:	1a000020 	bne	d09c <get_wsec+0xbbc>
    d018:	e5963028 	ldr	r3, [r6, #40]	; 0x28
    d01c:	e3833004 	orr	r3, r3, #4
    d020:	e5863028 	str	r3, [r6, #40]	; 0x28
    d024:	eafffea6 	b	cac4 <get_wsec+0x5e4>
    d028:	e59f33e0 	ldr	r3, [pc, #992]	; d410 <get_wsec+0xf30>
    d02c:	e0843003 	add	r3, r4, r3
    d030:	e8930003 	ldm	r3, {r0, r1}
    d034:	e58d016c 	str	r0, [sp, #364]	; 0x16c
    d038:	e5cd1170 	strb	r1, [sp, #368]	; 0x170
    d03c:	eafffecd 	b	cb78 <get_wsec+0x698>
    d040:	e59f0374 	ldr	r0, [pc, #884]	; d3bc <get_wsec+0xedc>
    d044:	e0840000 	add	r0, r4, r0
    d048:	eafffd86 	b	c668 <get_wsec+0x188>
    d04c:	e59d1028 	ldr	r1, [sp, #40]	; 0x28
    d050:	e59d001c 	ldr	r0, [sp, #28]
[31m    d054:	ebffd97d 	bl	3650 <strcpy@plt>[0m
    d058:	e59d001c 	ldr	r0, [sp, #28]
    d05c:	ebffdaa7 	bl	3b00 <strlen@plt>
--
    d0b8:	05863028 	streq	r3, [r6, #40]	; 0x28
    d0bc:	eafffe80 	b	cac4 <get_wsec+0x5e4>
    d0c0:	e28d3f4f 	add	r3, sp, #316	; 0x13c
    d0c4:	e1a0000a 	mov	r0, sl
    d0c8:	e1a01003 	mov	r1, r3
    d0cc:	e3a02010 	mov	r2, #16
    d0d0:	e58d3028 	str	r3, [sp, #40]	; 0x28
    d0d4:	ebffda92 	bl	3b24 <osifname_to_nvifname@plt>
    d0d8:	e3500000 	cmp	r0, #0
    d0dc:	1afffd08 	bne	c504 <get_wsec+0x24>
    d0e0:	e58d0024 	str	r0, [sp, #36]	; 0x24
    d0e4:	eafffd42 	b	c5f4 <get_wsec+0x114>
    d0e8:	e59f52cc 	ldr	r5, [pc, #716]	; d3bc <get_wsec+0xedc>
    d0ec:	e0845005 	add	r5, r4, r5
    d0f0:	eafffe82 	b	cb00 <get_wsec+0x620>
    d0f4:	e59f72c0 	ldr	r7, [pc, #704]	; d3bc <get_wsec+0xedc>
    d0f8:	e0847007 	add	r7, r4, r7
    d0fc:	eafffe8e 	b	cb3c <get_wsec+0x65c>
    d100:	e59d1028 	ldr	r1, [sp, #40]	; 0x28
    d104:	e59d001c 	ldr	r0, [sp, #28]
[31m    d108:	ebffd950 	bl	3650 <strcpy@plt>[0m
    d10c:	e59d001c 	ldr	r0, [sp, #28]
    d110:	ebffda7a 	bl	3b00 <strlen@plt>
    d114:	e59d301c 	ldr	r3, [sp, #28]
    d118:	e3a0200e 	mov	r2, #14
    d11c:	e59f12f8 	ldr	r1, [pc, #760]	; d41c <get_wsec+0xf3c>
    d120:	e0830000 	add	r0, r3, r0
    d124:	e0841001 	add	r1, r4, r1
    d128:	ebffd990 	bl	3770 <memcpy@plt>
    d12c:	e59d001c 	ldr	r0, [sp, #28]
    d130:	ebffda1e 	bl	39b0 <nvram_get@plt>
    d134:	e3500000 	cmp	r0, #0
    d138:	0a000088 	beq	d360 <get_wsec+0xe80>
    d13c:	e59d1028 	ldr	r1, [sp, #40]	; 0x28
    d140:	e58600c8 	str	r0, [r6, #200]	; 0xc8
    d144:	e59d001c 	ldr	r0, [sp, #28]
[31m    d148:	ebffd940 	bl	3650 <strcpy@plt>[0m
    d14c:	e59d001c 	ldr	r0, [sp, #28]
    d150:	ebffda6a 	bl	3b00 <strlen@plt>
    d154:	e59dc01c 	ldr	ip, [sp, #28]
    d158:	e3a0200c 	mov	r2, #12
    d15c:	e59f12bc 	ldr	r1, [pc, #700]	; d420 <get_wsec+0xf40>
    d160:	e08c0000 	add	r0, ip, r0
    d164:	e0841001 	add	r1, r4, r1
    d168:	ebffd980 	bl	3770 <memcpy@plt>
    d16c:	e59d001c 	ldr	r0, [sp, #28]
    d170:	ebffda0e 	bl	39b0 <nvram_get@plt>
    d174:	e2501000 	subs	r1, r0, #0
    d178:	0a000072 	beq	d348 <get_wsec+0xe68>
    d17c:	e3a01000 	mov	r1, #0
    d180:	e1a02001 	mov	r2, r1
    d184:	ebffd997 	bl	37e8 <strtoul@plt>
    d188:	e6ff3070 	uxth	r3, r0
    d18c:	e1a02403 	lsl	r2, r3, #8
    d190:	e59d1028 	ldr	r1, [sp, #40]	; 0x28
    d194:	e59d001c 	ldr	r0, [sp, #28]
    d198:	e1823423 	orr	r3, r2, r3, lsr #8
    d19c:	e1c634bc 	strh	r3, [r6, #76]	; 0x4c
[31m    d1a0:	ebffd92a 	bl	3650 <strcpy@plt>[0m
    d1a4:	e59d001c 	ldr	r0, [sp, #28]
    d1a8:	ebffda54 	bl	3b00 <strlen@plt>
    d1ac:	e59d301c 	ldr	r3, [sp, #28]
    d1b0:	e3a0200b 	mov	r2, #11
    d1b4:	e59f1268 	ldr	r1, [pc, #616]	; d424 <get_wsec+0xf44>
    d1b8:	e0830000 	add	r0, r3, r0
    d1bc:	e0841001 	add	r1, r4, r1
    d1c0:	ebffd96a 	bl	3770 <memcpy@plt>
    d1c4:	e59d001c 	ldr	r0, [sp, #28]
    d1c8:	ebffd9f8 	bl	39b0 <nvram_get@plt>
    d1cc:	e3500000 	cmp	r0, #0
    d1d0:	0a000068 	beq	d378 <get_wsec+0xe98>
    d1d4:	e3a01000 	mov	r1, #0
    d1d8:	e1a02001 	mov	r2, r1
    d1dc:	ebffd981 	bl	37e8 <strtoul@plt>
    d1e0:	e5860010 	str	r0, [r6, #16]
    d1e4:	eafffed7 	b	cd48 <get_wsec+0x868>
    d1e8:	e59d1028 	ldr	r1, [sp, #40]	; 0x28
    d1ec:	e59d001c 	ldr	r0, [sp, #28]
[31m    d1f0:	ebffd916 	bl	3650 <strcpy@plt>[0m
    d1f4:	e59d001c 	ldr	r0, [sp, #28]
    d1f8:	ebffda40 	bl	3b00 <strlen@plt>
    d1fc:	e59f5224 	ldr	r5, [pc, #548]	; d428 <get_wsec+0xf48>
    d200:	e3a02004 	mov	r2, #4
    d204:	e59d301c 	ldr	r3, [sp, #28]
    d208:	e0841005 	add	r1, r4, r5
    d20c:	e0830000 	add	r0, r3, r0
    d210:	ebffd956 	bl	3770 <memcpy@plt>
    d214:	e59d001c 	ldr	r0, [sp, #28]
    d218:	ebffd9e4 	bl	39b0 <nvram_get@plt>
    d21c:	e3500000 	cmp	r0, #0
    d220:	0a000045 	beq	d33c <get_wsec+0xe5c>
    d224:	e3a01000 	mov	r1, #0
    d228:	e1a02001 	mov	r2, r1
    d22c:	ebffd96d 	bl	37e8 <strtoul@plt>
    d230:	e59d1028 	ldr	r1, [sp, #40]	; 0x28
    d234:	e586000c 	str	r0, [r6, #12]
    d238:	e59d001c 	ldr	r0, [sp, #28]
[31m    d23c:	ebffd903 	bl	3650 <strcpy@plt>[0m
    d240:	e59d001c 	ldr	r0, [sp, #28]
    d244:	ebffda2d 	bl	3b00 <strlen@plt>
    d248:	e59dc01c 	ldr	ip, [sp, #28]
    d24c:	e3a02004 	mov	r2, #4
    d250:	e0841005 	add	r1, r4, r5
    d254:	e08c0000 	add	r0, ip, r0
    d258:	ebffd944 	bl	3770 <memcpy@plt>
    d25c:	e59d001c 	ldr	r0, [sp, #28]
    d260:	ebffd9d2 	bl	39b0 <nvram_get@plt>
    d264:	e2502000 	subs	r2, r0, #0
    d268:	0a000030 	beq	d330 <get_wsec+0xe50>
    d26c:	e59f11b8 	ldr	r1, [pc, #440]	; d42c <get_wsec+0xf4c>
    d270:	e28d5f5d 	add	r5, sp, #372	; 0x174
    d274:	e1a00005 	mov	r0, r5
    d278:	e0841001 	add	r1, r4, r1
    d27c:	ebffd9ef 	bl	3a40 <sprintf@plt>
    d280:	e59d1028 	ldr	r1, [sp, #40]	; 0x28
    d284:	e59d001c 	ldr	r0, [sp, #28]
[31m    d288:	ebffd8f0 	bl	3650 <strcpy@plt>[0m
    d28c:	e1a01005 	mov	r1, r5
    d290:	e59d001c 	ldr	r0, [sp, #28]
    d294:	ebffd977 	bl	3878 <strcat@plt>
    d298:	e59d001c 	ldr	r0, [sp, #28]
    d29c:	ebffd9c3 	bl	39b0 <nvram_get@plt>
    d2a0:	e3500000 	cmp	r0, #0
    d2a4:	158600c4 	strne	r0, [r6, #196]	; 0xc4
    d2a8:	1afffea3 	bne	cd3c <get_wsec+0x85c>
    d2ac:	e59f0108 	ldr	r0, [pc, #264]	; d3bc <get_wsec+0xedc>
    d2b0:	e0840000 	add	r0, r4, r0
    d2b4:	e58600c4 	str	r0, [r6, #196]	; 0xc4
    d2b8:	eafffe9f 	b	cd3c <get_wsec+0x85c>
    d2bc:	e59d1028 	ldr	r1, [sp, #40]	; 0x28
    d2c0:	e59d001c 	ldr	r0, [sp, #28]
[31m    d2c4:	ebffd8e1 	bl	3650 <strcpy@plt>[0m
    d2c8:	e59d001c 	ldr	r0, [sp, #28]
    d2cc:	ebffda0b 	bl	3b00 <strlen@plt>

[0m
[[0;33m*[0m] Function [0;33mstrcpy[0m used [0;33m52[0m times [0;33mlibshared.so[0m

