[[0;33m*[0m] Binary protection state of [0;33migd[0m
[REF] s12

  	RELRO          CANARY            NX           PIE       RPATH        RUNPATH      SYMBOLS      
  	[31mNo RELRO[0m       [31mNo Canary found[0m   [32mNX enabled[0m   [31mNo PIE[0m       [32mNo RPATH[0m     [32mNo RUNPATH[0m   [32mNo Symbols[0m

[0m
[[0;33m*[0m] Function [0;33mstrcpy[0m tear down of [0;33migd[0m

    9220:	ebffff26 	bl	8ec0 <sprintf@plt>
    9224:	e1a00005 	mov	r0, r5
    9228:	ebfffee5 	bl	8dc4 <nvram_get@plt>
    922c:	e3500000 	cmp	r0, #0
    9230:	0a000003 	beq	9244 <_start+0x2b8>
    9234:	e59f140c 	ldr	r1, [pc, #1036]	; 9648 <_start+0x6bc>
    9238:	ebffff2c 	bl	8ef0 <strcmp@plt>
    923c:	e3500000 	cmp	r0, #0
    9240:	0a000003 	beq	9254 <_start+0x2c8>
    9244:	e2844001 	add	r4, r4, #1
    9248:	e354000a 	cmp	r4, #10
    924c:	1afffff0 	bne	9214 <_start+0x288>
    9250:	e3a04000 	mov	r4, #0
    9254:	e28d6070 	add	r6, sp, #112	; 0x70
    9258:	e1a02004 	mov	r2, r4
    925c:	e59f13e8 	ldr	r1, [pc, #1000]	; 964c <_start+0x6c0>
    9260:	e1a00006 	mov	r0, r6
    9264:	ebffff15 	bl	8ec0 <sprintf@plt>
    9268:	e1a01006 	mov	r1, r6
    926c:	e1a00005 	mov	r0, r5
[31m    9270:	ebffff3c 	bl	8f68 <strcpy@plt>[0m
    9274:	e1a00005 	mov	r0, r5
    9278:	e59f43d0 	ldr	r4, [pc, #976]	; 9650 <_start+0x6c4>
    927c:	ebfffec1 	bl	8d88 <strlen@plt>
    9280:	e3a02007 	mov	r2, #7
    9284:	e59f13c8 	ldr	r1, [pc, #968]	; 9654 <_start+0x6c8>
    9288:	e0850000 	add	r0, r5, r0
    928c:	ebfffea5 	bl	8d28 <memcpy@plt>
    9290:	e1a00005 	mov	r0, r5
    9294:	ebfffeca 	bl	8dc4 <nvram_get@plt>
    9298:	e3500000 	cmp	r0, #0
    929c:	e1a01006 	mov	r1, r6
    92a0:	11a08000 	movne	r8, r0
    92a4:	e1a00005 	mov	r0, r5
    92a8:	01a08004 	moveq	r8, r4
[31m    92ac:	ebffff2d 	bl	8f68 <strcpy@plt>[0m
    92b0:	e1a00005 	mov	r0, r5
    92b4:	ebfffeb3 	bl	8d88 <strlen@plt>
--
    92e0:	e3500000 	cmp	r0, #0
    92e4:	0a000047 	beq	9408 <_start+0x47c>
    92e8:	e1a00007 	mov	r0, r7
    92ec:	e59f136c 	ldr	r1, [pc, #876]	; 9660 <_start+0x6d4>
    92f0:	ebfffefe 	bl	8ef0 <strcmp@plt>
    92f4:	e3500000 	cmp	r0, #0
    92f8:	0a00007d 	beq	94f4 <_start+0x568>
    92fc:	e1a00007 	mov	r0, r7
    9300:	e59f135c 	ldr	r1, [pc, #860]	; 9664 <_start+0x6d8>
    9304:	ebfffef9 	bl	8ef0 <strcmp@plt>
    9308:	e3500000 	cmp	r0, #0
    930c:	0a000080 	beq	9514 <_start+0x588>
    9310:	e59f1350 	ldr	r1, [pc, #848]	; 9668 <_start+0x6dc>
    9314:	e1a00007 	mov	r0, r7
    9318:	ebfffef4 	bl	8ef0 <strcmp@plt>
    931c:	e3500000 	cmp	r0, #0
    9320:	01a01004 	moveq	r1, r4
    9324:	1a000062 	bne	94b4 <_start+0x528>
    9328:	e59f033c 	ldr	r0, [pc, #828]	; 966c <_start+0x6e0>
    932c:	e3a06000 	mov	r6, #0
[31m    9330:	ebffff0c 	bl	8f68 <strcpy@plt>[0m
    9334:	e1a01008 	mov	r1, r8
    9338:	e59f0330 	ldr	r0, [pc, #816]	; 9670 <_start+0x6e4>
    933c:	e59f7330 	ldr	r7, [pc, #816]	; 9674 <_start+0x6e8>
    9340:	e1a05006 	mov	r5, r6
    9344:	e28d4090 	add	r4, sp, #144	; 0x90
[31m    9348:	ebffff06 	bl	8f68 <strcpy@plt>[0m
    934c:	ea00000d 	b	9388 <_start+0x3fc>
    9350:	e8970007 	ldm	r7, {r0, r1, r2}
--
    93c0:	1a00005b 	bne	9534 <_start+0x5a8>
    93c4:	e59f32b0 	ldr	r3, [pc, #688]	; 967c <_start+0x6f0>
    93c8:	e3a01001 	mov	r1, #1
    93cc:	e59f02ac 	ldr	r0, [pc, #684]	; 9680 <_start+0x6f4>
    93d0:	e3a02018 	mov	r2, #24
    93d4:	e5933000 	ldr	r3, [r3]
    93d8:	ebfffe49 	bl	8d04 <fwrite@plt>
    93dc:	e59f0230 	ldr	r0, [pc, #560]	; 9614 <_start+0x688>
    93e0:	ebfffe98 	bl	8e48 <unlink@plt>
    93e4:	e3a00000 	mov	r0, #0
    93e8:	e28dd0b4 	add	sp, sp, #180	; 0xb4
    93ec:	e8bd8ff0 	pop	{r4, r5, r6, r7, r8, r9, sl, fp, pc}
    93f0:	e59f3284 	ldr	r3, [pc, #644]	; 967c <_start+0x6f0>
    93f4:	e59f1288 	ldr	r1, [pc, #648]	; 9684 <_start+0x6f8>
    93f8:	e5962000 	ldr	r2, [r6]
    93fc:	e5930000 	ldr	r0, [r3]
    9400:	ebfffea2 	bl	8e90 <fprintf@plt>
    9404:	eaffff47 	b	9128 <_start+0x19c>
    9408:	e1a01006 	mov	r1, r6
    940c:	e1a00005 	mov	r0, r5
[31m    9410:	ebfffed4 	bl	8f68 <strcpy@plt>[0m
    9414:	e1a00005 	mov	r0, r5
    9418:	ebfffe5a 	bl	8d88 <strlen@plt>
--
    946c:	e3a00011 	mov	r0, #17
    9470:	ebfffeb9 	bl	8f5c <signal@plt>
    9474:	e59f11ac 	ldr	r1, [pc, #428]	; 9628 <_start+0x69c>
    9478:	e3a0000d 	mov	r0, #13
    947c:	ebfffeb6 	bl	8f5c <signal@plt>
    9480:	e3a01001 	mov	r1, #1
    9484:	e3a0000a 	mov	r0, #10
    9488:	ebfffeb3 	bl	8f5c <signal@plt>
    948c:	e59f1198 	ldr	r1, [pc, #408]	; 962c <_start+0x6a0>
    9490:	e3a00002 	mov	r0, #2
    9494:	ebfffeb0 	bl	8f5c <signal@plt>
    9498:	e59f118c 	ldr	r1, [pc, #396]	; 962c <_start+0x6a0>
    949c:	e3a0000f 	mov	r0, #15
    94a0:	ebfffead 	bl	8f5c <signal@plt>
    94a4:	e59f3184 	ldr	r3, [pc, #388]	; 9630 <_start+0x6a4>
    94a8:	e5930000 	ldr	r0, [r3]
    94ac:	ebfffe6b 	bl	8e60 <fflush@plt>
    94b0:	eaffff35 	b	918c <_start+0x200>
    94b4:	e1a01006 	mov	r1, r6
    94b8:	e1a00005 	mov	r0, r5
[31m    94bc:	ebfffea9 	bl	8f68 <strcpy@plt>[0m
    94c0:	e1a00005 	mov	r0, r5
    94c4:	ebfffe2f 	bl	8d88 <strlen@plt>
    94c8:	e59f1184 	ldr	r1, [pc, #388]	; 9654 <_start+0x6c8>
    94cc:	e3a02007 	mov	r2, #7
    94d0:	e0850000 	add	r0, r5, r0
    94d4:	ebfffe13 	bl	8d28 <memcpy@plt>
    94d8:	e1a00005 	mov	r0, r5
    94dc:	ebfffe38 	bl	8dc4 <nvram_get@plt>
    94e0:	e59f3168 	ldr	r3, [pc, #360]	; 9650 <_start+0x6c4>
    94e4:	e3500000 	cmp	r0, #0
    94e8:	11a01000 	movne	r1, r0
    94ec:	01a01003 	moveq	r1, r3
    94f0:	eaffff8c 	b	9328 <_start+0x39c>
    94f4:	e1a01006 	mov	r1, r6
    94f8:	e1a00005 	mov	r0, r5
[31m    94fc:	ebfffe99 	bl	8f68 <strcpy@plt>[0m
    9500:	e1a00005 	mov	r0, r5
    9504:	ebfffe1f 	bl	8d88 <strlen@plt>
    9508:	e59f1184 	ldr	r1, [pc, #388]	; 9694 <_start+0x708>
    950c:	e3a0200c 	mov	r2, #12
    9510:	eaffffc3 	b	9424 <_start+0x498>
    9514:	e1a01006 	mov	r1, r6
    9518:	e1a00005 	mov	r0, r5
[31m    951c:	ebfffe91 	bl	8f68 <strcpy@plt>[0m
    9520:	e1a00005 	mov	r0, r5
    9524:	ebfffe17 	bl	8d88 <strlen@plt>
--
    9bec:	00019d20 	andeq	r9, r1, r0, lsr #26
    9bf0:	0000b54c 	andeq	fp, r0, ip, asr #10
    9bf4:	e92d40f0 	push	{r4, r5, r6, r7, lr}
    9bf8:	e24dd054 	sub	sp, sp, #84	; 0x54
    9bfc:	e28d5030 	add	r5, sp, #48	; 0x30
    9c00:	e3a04000 	mov	r4, #0
    9c04:	e2853008 	add	r3, r5, #8
    9c08:	e1a0c000 	mov	ip, r0
    9c0c:	e4834004 	str	r4, [r3], #4
    9c10:	e1a06001 	mov	r6, r1
    9c14:	e4834004 	str	r4, [r3], #4
    9c18:	e1a0100c 	mov	r1, ip
    9c1c:	e4834004 	str	r4, [r3], #4
    9c20:	e1a00005 	mov	r0, r5
    9c24:	e4834004 	str	r4, [r3], #4
    9c28:	e1a07002 	mov	r7, r2
    9c2c:	e4834004 	str	r4, [r3], #4
    9c30:	e5834000 	str	r4, [r3]
    9c34:	e58d4030 	str	r4, [sp, #48]	; 0x30
    9c38:	e58d4034 	str	r4, [sp, #52]	; 0x34
[31m    9c3c:	ebfffcc9 	bl	8f68 <strcpy@plt>[0m
    9c40:	e3a00002 	mov	r0, #2
    9c44:	e1a02004 	mov	r2, r4
--
    a308:	e3500000 	cmp	r0, #0
    a30c:	130002ce 	movwne	r0, #718	; 0x2ce
    a310:	1a00001d 	bne	a38c <_start+0x1400>
    a314:	e59b302c 	ldr	r3, [fp, #44]	; 0x2c
    a318:	e59d2038 	ldr	r2, [sp, #56]	; 0x38
    a31c:	e1530002 	cmp	r3, r2
    a320:	0a000020 	beq	a3a8 <_start+0x141c>
    a324:	e3530000 	cmp	r3, #0
    a328:	1a000023 	bne	a3bc <_start+0x1430>
    a32c:	e59d3040 	ldr	r3, [sp, #64]	; 0x40
    a330:	e3a00000 	mov	r0, #0
    a334:	e59d1038 	ldr	r1, [sp, #56]	; 0x38
    a338:	e1cb71b0 	strh	r7, [fp, #16]
    a33c:	e58b3130 	str	r3, [fp, #304]	; 0x130
    a340:	e58b102c 	str	r1, [fp, #44]	; 0x2c
    a344:	e1cb61ba 	strh	r6, [fp, #26]
    a348:	ebfffaa6 	bl	8de8 <time@plt>
    a34c:	e1a01008 	mov	r1, r8
    a350:	e58b0134 	str	r0, [fp, #308]	; 0x134
    a354:	e1a0000b 	mov	r0, fp
[31m    a358:	ebfffb02 	bl	8f68 <strcpy@plt>[0m
    a35c:	e1a01004 	mov	r1, r4
    a360:	e28b0012 	add	r0, fp, #18
[31m    a364:	ebfffaff 	bl	8f68 <strcpy@plt>[0m
    a368:	e59d1034 	ldr	r1, [sp, #52]	; 0x34
    a36c:	e1a00005 	mov	r0, r5
[31m    a370:	ebfffafc 	bl	8f68 <strcpy@plt>[0m
    a374:	e28b0030 	add	r0, fp, #48	; 0x30
    a378:	e59d103c 	ldr	r1, [sp, #60]	; 0x3c
[31m    a37c:	ebfffaf9 	bl	8f68 <strcpy@plt>[0m
    a380:	e59b002c 	ldr	r0, [fp, #44]	; 0x2c
    a384:	e3500000 	cmp	r0, #0
--
    a4a8:	ebfffa6f 	bl	8e6c <memset@plt>
    a4ac:	e3a03020 	mov	r3, #32
    a4b0:	e5843034 	str	r3, [r4, #52]	; 0x34
    a4b4:	e595302c 	ldr	r3, [r5, #44]	; 0x2c
    a4b8:	e5854034 	str	r4, [r5, #52]	; 0x34
    a4bc:	e5936028 	ldr	r6, [r3, #40]	; 0x28
    a4c0:	e5961000 	ldr	r1, [r6]
    a4c4:	e3510000 	cmp	r1, #0
    a4c8:	0a000012 	beq	a518 <_start+0x158c>
    a4cc:	e2855004 	add	r5, r5, #4
    a4d0:	ea000002 	b	a4e0 <_start+0x1554>
    a4d4:	e5b6100c 	ldr	r1, [r6, #12]!
    a4d8:	e3510000 	cmp	r1, #0
    a4dc:	0a00000b 	beq	a510 <_start+0x1584>
    a4e0:	e1a00005 	mov	r0, r5
    a4e4:	ebfffa81 	bl	8ef0 <strcmp@plt>
    a4e8:	e2507000 	subs	r7, r0, #0
    a4ec:	1afffff8 	bne	a4d4 <_start+0x1548>
    a4f0:	e5961004 	ldr	r1, [r6, #4]
    a4f4:	e2840004 	add	r0, r4, #4
[31m    a4f8:	ebfffa9a 	bl	8f68 <strcpy@plt>[0m
    a4fc:	e2840014 	add	r0, r4, #20
    a500:	e5961008 	ldr	r1, [r6, #8]
[31m    a504:	ebfffa97 	bl	8f68 <strcpy@plt>[0m
    a508:	e1a00007 	mov	r0, r7
    a50c:	e8bd80f8 	pop	{r3, r4, r5, r6, r7, pc}

[0m
[[0;33m*[0m] Function [0;33mstrcpy[0m used [0;33m15[0m times [0;33migd[0m

