[[0;33m*[0m] Binary protection state of [0;33mred[0m
[REF] s12

  	RELRO          CANARY            NX           PIE       RPATH        RUNPATH      SYMBOLS      
  	[31mNo RELRO[0m       [31mNo Canary found[0m   [32mNX enabled[0m   [31mNo PIE[0m       [32mNo RPATH[0m     [32mNo RUNPATH[0m   [32mNo Symbols[0m

[0m
[[0;33m*[0m] Function [0;33mstrcpy[0m tear down of [0;33mred[0m

    9408:	e48c3004 	str	r3, [ip], #4
    940c:	e4823004 	str	r3, [r2], #4
    9410:	e48e3004 	str	r3, [lr], #4
    9414:	e48c3004 	str	r3, [ip], #4
    9418:	e4823004 	str	r3, [r2], #4
    941c:	e48e3004 	str	r3, [lr], #4
    9420:	e48c3004 	str	r3, [ip], #4
    9424:	e4823004 	str	r3, [r2], #4
    9428:	e48e3004 	str	r3, [lr], #4
    942c:	e48c3004 	str	r3, [ip], #4
    9430:	e4823004 	str	r3, [r2], #4
    9434:	e48e3004 	str	r3, [lr], #4
    9438:	e48c3004 	str	r3, [ip], #4
    943c:	e4823004 	str	r3, [r2], #4
    9440:	e58e3000 	str	r3, [lr]
    9444:	e58c3000 	str	r3, [ip]
    9448:	e5823000 	str	r3, [r2]
    944c:	e58d3098 	str	r3, [sp, #152]	; 0x98
    9450:	e58d3078 	str	r3, [sp, #120]	; 0x78
    9454:	e58d3058 	str	r3, [sp, #88]	; 0x58
[31m    9458:	ebfffcbd 	bl	8754 <strcpy@plt>[0m
    945c:	e59f01a4 	ldr	r0, [pc, #420]	; 9608 <_start+0xd58>
    9460:	e59f11a4 	ldr	r1, [pc, #420]	; 960c <_start+0xd5c>
--
    9bf8:	ebfffaed 	bl	87b4 <system@plt>
    9bfc:	e5953000 	ldr	r3, [r5]
    9c00:	e3530000 	cmp	r3, #0
    9c04:	0affffe9 	beq	9bb0 <_start+0x1300>
    9c08:	e59f01b0 	ldr	r0, [pc, #432]	; 9dc0 <_start+0x1510>
    9c0c:	ebfffae5 	bl	87a8 <puts@plt>
    9c10:	e3a00001 	mov	r0, #1
    9c14:	eaffffd6 	b	9b74 <_start+0x12c4>
    9c18:	e59f01a4 	ldr	r0, [pc, #420]	; 9dc4 <_start+0x1514>
    9c1c:	ebfffae1 	bl	87a8 <puts@plt>
    9c20:	e3a00001 	mov	r0, #1
    9c24:	eaffffd2 	b	9b74 <_start+0x12c4>
    9c28:	e59f0198 	ldr	r0, [pc, #408]	; 9dc8 <_start+0x1518>
    9c2c:	ebfffadd 	bl	87a8 <puts@plt>
    9c30:	eaffffd5 	b	9b8c <_start+0x12dc>
    9c34:	e59f515c 	ldr	r5, [pc, #348]	; 9d98 <_start+0x14e8>
    9c38:	e59f018c 	ldr	r0, [pc, #396]	; 9dcc <_start+0x151c>
    9c3c:	ebfffb00 	bl	8844 <nvram_get@plt>
    9c40:	e1a01000 	mov	r1, r0
    9c44:	e2850004 	add	r0, r5, #4
[31m    9c48:	ebfffac1 	bl	8754 <strcpy@plt>[0m
    9c4c:	e59f017c 	ldr	r0, [pc, #380]	; 9dd0 <_start+0x1520>
    9c50:	ebfffafb 	bl	8844 <nvram_get@plt>
    9c54:	e1a01000 	mov	r1, r0
    9c58:	e2850024 	add	r0, r5, #36	; 0x24
[31m    9c5c:	ebfffabc 	bl	8754 <strcpy@plt>[0m
    9c60:	ebfffdd3 	bl	93b4 <_start+0xb04>
    9c64:	e5953000 	ldr	r3, [r5]
--
    a474:	e1a00004 	mov	r0, r4
    a478:	e59f126c 	ldr	r1, [pc, #620]	; a6ec <_start+0x1e3c>
    a47c:	ebfff8f9 	bl	8868 <strcmp@plt>
    a480:	e3500000 	cmp	r0, #0
    a484:	159f4264 	ldrne	r4, [pc, #612]	; a6f0 <_start+0x1e40>
    a488:	03a03001 	moveq	r3, #1
    a48c:	059f425c 	ldreq	r4, [pc, #604]	; a6f0 <_start+0x1e40>
    a490:	05843000 	streq	r3, [r4]
    a494:	e5950008 	ldr	r0, [r5, #8]
    a498:	e3a0a001 	mov	sl, #1
    a49c:	ebfff8fa 	bl	888c <atoi@plt>
    a4a0:	e1a0b000 	mov	fp, r0
    a4a4:	e5950010 	ldr	r0, [r5, #16]
    a4a8:	ebfff8f7 	bl	888c <atoi@plt>
    a4ac:	e58d000c 	str	r0, [sp, #12]
    a4b0:	e08b908b 	add	r9, fp, fp, lsl #1
    a4b4:	e59f0238 	ldr	r0, [pc, #568]	; a6f4 <_start+0x1e44>
    a4b8:	ebfff8e1 	bl	8844 <nvram_get@plt>
    a4bc:	e1a01000 	mov	r1, r0
    a4c0:	e59f0230 	ldr	r0, [pc, #560]	; a6f8 <_start+0x1e48>
[31m    a4c4:	ebfff8a2 	bl	8754 <strcpy@plt>[0m
    a4c8:	e59f022c 	ldr	r0, [pc, #556]	; a6fc <_start+0x1e4c>
    a4cc:	ebfff8dc 	bl	8844 <nvram_get@plt>
    a4d0:	e1a01000 	mov	r1, r0
    a4d4:	e59f0224 	ldr	r0, [pc, #548]	; a700 <_start+0x1e50>
    a4d8:	e59f5224 	ldr	r5, [pc, #548]	; a704 <_start+0x1e54>
    a4dc:	e59f7224 	ldr	r7, [pc, #548]	; a708 <_start+0x1e58>
    a4e0:	e59f6224 	ldr	r6, [pc, #548]	; a70c <_start+0x1e5c>
    a4e4:	e59f8204 	ldr	r8, [pc, #516]	; a6f0 <_start+0x1e40>
[31m    a4e8:	ebfff899 	bl	8754 <strcpy@plt>[0m
    a4ec:	ebfffbb0 	bl	93b4 <_start+0xb04>
    a4f0:	e1a0000b 	mov	r0, fp
--
    a55c:	e5953000 	ldr	r3, [r5]
    a560:	e3530000 	cmp	r3, #0
    a564:	0a000033 	beq	a638 <_start+0x1d88>
    a568:	ebfffd11 	bl	99b4 <_start+0x1104>
    a56c:	e2503000 	subs	r3, r0, #0
    a570:	0a00003c 	beq	a668 <_start+0x1db8>
    a574:	e5943000 	ldr	r3, [r4]
    a578:	e3530000 	cmp	r3, #0
    a57c:	1a000047 	bne	a6a0 <_start+0x1df0>
    a580:	e1a00009 	mov	r0, r9
    a584:	ebfff88d 	bl	87c0 <sleep@plt>
    a588:	eaffffda 	b	a4f8 <_start+0x1c48>
    a58c:	ebfff9f7 	bl	8d70 <_start+0x4c0>
    a590:	e3e00000 	mvn	r0, #0
    a594:	e28dd014 	add	sp, sp, #20
    a598:	e8bd8ff0 	pop	{r4, r5, r6, r7, r8, r9, sl, fp, pc}
    a59c:	e59f0150 	ldr	r0, [pc, #336]	; a6f4 <_start+0x1e44>
    a5a0:	ebfff8a7 	bl	8844 <nvram_get@plt>
    a5a4:	e1a01000 	mov	r1, r0
    a5a8:	e59f0148 	ldr	r0, [pc, #328]	; a6f8 <_start+0x1e48>
[31m    a5ac:	ebfff868 	bl	8754 <strcpy@plt>[0m
    a5b0:	e59f0144 	ldr	r0, [pc, #324]	; a6fc <_start+0x1e4c>
    a5b4:	ebfff8a2 	bl	8844 <nvram_get@plt>
    a5b8:	e1a01000 	mov	r1, r0
    a5bc:	e59f013c 	ldr	r0, [pc, #316]	; a700 <_start+0x1e50>
[31m    a5c0:	ebfff863 	bl	8754 <strcpy@plt>[0m
    a5c4:	e59f0150 	ldr	r0, [pc, #336]	; a71c <_start+0x1e6c>
    a5c8:	ebfffc74 	bl	97a0 <_start+0xef0>

[0m
[[0;33m*[0m] Function [0;33mstrcpy[0m used [0;33m7[0m times [0;33mred[0m

