[[0;33m*[0m] Binary protection state of [0;33mudhcpd[0m
[REF] s12

  	RELRO          CANARY            NX           PIE       RPATH        RUNPATH      SYMBOLS      
  	[31mNo RELRO[0m       [31mNo Canary found[0m   [32mNX enabled[0m   [31mNo PIE[0m       [32mNo RPATH[0m     [32mNo RUNPATH[0m   [32mNo Symbols[0m

[0m
[[0;33m*[0m] Function [0;33msprintf[0m tear down of [0;33mudhcpd[0m

    a51c:	e3500000 	cmp	r0, #0
    a520:	e3a0c000 	mov	ip, #0
    a524:	05990000 	ldreq	r0, [r9]
    a528:	15990000 	ldrne	r0, [r9]
    a52c:	00800004 	addeq	r0, r0, r4
    a530:	0590c014 	ldreq	ip, [r0, #20]
    a534:	10800004 	addne	r0, r0, r4
    a538:	006bc00c 	rsbeq	ip, fp, ip
    a53c:	06bfcf3c 	reveq	ip, ip
    a540:	eaffffcf 	b	a484 <_start+0x1224>
    a544:	e1a00008 	mov	r0, r8
    a548:	ebfffafc 	bl	9140 <fclose@plt>
    a54c:	e5972048 	ldr	r2, [r7, #72]	; 0x48
    a550:	e3520000 	cmp	r2, #0
    a554:	0a000007 	beq	a578 <_start+0x1318>
    a558:	e59f3044 	ldr	r3, [pc, #68]	; a5a4 <_start+0x1344>
    a55c:	e28d4004 	add	r4, sp, #4
    a560:	e59f1048 	ldr	r1, [pc, #72]	; a5b0 <_start+0x1350>
    a564:	e1a00004 	mov	r0, r4
    a568:	e5933040 	ldr	r3, [r3, #64]	; 0x40
[31m    a56c:	ebfffb05 	bl	9188 <sprintf@plt>[0m
    a570:	e1a00004 	mov	r0, r4
    a574:	ebfffa7c 	bl	8f6c <system@plt>
--
    c6a0:	e1a01007 	mov	r1, r7
    c6a4:	eb0003f7 	bl	d688 <_start+0x4428>
    c6a8:	e150000a 	cmp	r0, sl
    c6ac:	1affff9a 	bne	c51c <_start+0x32bc>
    c6b0:	eaffffe4 	b	c648 <_start+0x33e8>
    c6b4:	0000dc64 	andeq	sp, r0, r4, ror #24
    c6b8:	0000dc5c 	andeq	sp, r0, ip, asr ip
    c6bc:	0000e5f4 	strdeq	lr, [r0], -r4
    c6c0:	e92d4010 	push	{r4, lr}
    c6c4:	e1a0c001 	mov	ip, r1
    c6c8:	e5d23000 	ldrb	r3, [r2]
    c6cc:	e24dd010 	sub	sp, sp, #16
    c6d0:	e30e164c 	movw	r1, #58956	; 0xe64c
    c6d4:	e5d24001 	ldrb	r4, [r2, #1]
    c6d8:	e3401000 	movt	r1, #0
    c6dc:	e5d2e002 	ldrb	lr, [r2, #2]
    c6e0:	e5d22003 	ldrb	r2, [r2, #3]
    c6e4:	e88d4010 	stm	sp, {r4, lr}
    c6e8:	e58d2008 	str	r2, [sp, #8]
    c6ec:	e1a0200c 	mov	r2, ip
[31m    c6f0:	ebfff2a4 	bl	9188 <sprintf@plt>[0m
    c6f4:	e28dd010 	add	sp, sp, #16
    c6f8:	e8bd8010 	pop	{r4, pc}
--
    c804:	e3520000 	cmp	r2, #0
    c808:	12877001 	addne	r7, r7, #1
    c80c:	e3130002 	tst	r3, #2
    c810:	1a000002 	bne	c820 <_start+0x35c0>
    c814:	e5d6302c 	ldrb	r3, [r6, #44]	; 0x2c
    c818:	e3530000 	cmp	r3, #0
    c81c:	12877001 	addne	r7, r7, #1
    c820:	e2870005 	add	r0, r7, #5
    c824:	e1a00100 	lsl	r0, r0, #2
    c828:	ebfff1d2 	bl	8f78 <malloc@plt>
    c82c:	e5947004 	ldr	r7, [r4, #4]
    c830:	e58d0010 	str	r0, [sp, #16]
    c834:	e1a00007 	mov	r0, r7
    c838:	ebfff270 	bl	9200 <strlen@plt>
    c83c:	e280000b 	add	r0, r0, #11
    c840:	ebfff1cc 	bl	8f78 <malloc@plt>
    c844:	e59d3010 	ldr	r3, [sp, #16]
    c848:	e1a02007 	mov	r2, r7
    c84c:	e59f149c 	ldr	r1, [pc, #1180]	; ccf0 <_start+0x3a90>
    c850:	e5830000 	str	r0, [r3]
[31m    c854:	ebfff24b 	bl	9188 <sprintf@plt>[0m
    c858:	e59f1494 	ldr	r1, [pc, #1172]	; ccf4 <_start+0x3a94>
    c85c:	e59f0494 	ldr	r0, [pc, #1172]	; ccf8 <_start+0x3a98>
--
    c914:	ebfff239 	bl	9200 <strlen@plt>
    c918:	e30738e4 	movw	r3, #30948	; 0x78e4
    c91c:	e1a08000 	mov	r8, r0
    c920:	e3403001 	movt	r3, #1
    c924:	e5550001 	ldrb	r0, [r5, #-1]
    c928:	e7931106 	ldr	r1, [r3, r6, lsl #2]
    c92c:	eb000483 	bl	db40 <_start+0x48e0>
    c930:	e59f33d0 	ldr	r3, [pc, #976]	; cd08 <_start+0x3aa8>
    c934:	e7933106 	ldr	r3, [r3, r6, lsl #2]
    c938:	e0000093 	mul	r0, r3, r0
    c93c:	e2800002 	add	r0, r0, #2
    c940:	e0800008 	add	r0, r0, r8
    c944:	ebfff18b 	bl	8f78 <malloc@plt>
    c948:	e59dc00c 	ldr	ip, [sp, #12]
    c94c:	e1a02007 	mov	r2, r7
    c950:	e59d3010 	ldr	r3, [sp, #16]
    c954:	e1a06000 	mov	r6, r0
    c958:	e59f13ac 	ldr	r1, [pc, #940]	; cd0c <_start+0x3aac>
    c95c:	e783010c 	str	r0, [r3, ip, lsl #2]
    c960:	e5557001 	ldrb	r7, [r5, #-1]
[31m    c964:	ebfff207 	bl	9188 <sprintf@plt>[0m
    c968:	e59dc018 	ldr	ip, [sp, #24]
    c96c:	e30718e4 	movw	r1, #30948	; 0x78e4
--
    c9a8:	0000ca7c 	andeq	ip, r0, ip, ror sl
    c9ac:	0000ca44 	andeq	ip, r0, r4, asr #20
    c9b0:	0000ca14 	andeq	ip, r0, r4, lsl sl
    c9b4:	0000c9d4 	ldrdeq	ip, [r0], -r4
    c9b8:	e28dd03c 	add	sp, sp, #60	; 0x3c
    c9bc:	e8bd8ff0 	pop	{r4, r5, r6, r7, r8, r9, sl, fp, pc}
    c9c0:	e3a01000 	mov	r1, #0
    c9c4:	e1a02001 	mov	r2, r1
    c9c8:	e28dd03c 	add	sp, sp, #60	; 0x3c
    c9cc:	e8bd4ff0 	pop	{r4, r5, r6, r7, r8, r9, sl, fp, lr}
    c9d0:	eafff13b 	b	8ec4 <waitpid@plt>
    c9d4:	e1a01005 	mov	r1, r5
    c9d8:	e3a02004 	mov	r2, #4
    c9dc:	e28d002c 	add	r0, sp, #44	; 0x2c
    c9e0:	e1a0a008 	mov	sl, r8
    c9e4:	ebfff154 	bl	8f3c <memcpy@plt>
    c9e8:	e59d202c 	ldr	r2, [sp, #44]	; 0x2c
    c9ec:	e1a00006 	mov	r0, r6
    c9f0:	e59f1318 	ldr	r1, [pc, #792]	; cd10 <_start+0x3ab0>
    c9f4:	e6bf2f32 	rev	r2, r2
[31m    c9f8:	ebfff1e2 	bl	9188 <sprintf@plt>[0m
    c9fc:	e0866000 	add	r6, r6, r0
    ca00:	e0687007 	rsb	r7, r8, r7
    ca04:	e3570000 	cmp	r7, #0
    ca08:	da00003e 	ble	cb08 <_start+0x38a8>
    ca0c:	e085500a 	add	r5, r5, sl
    ca10:	eaffffdc 	b	c988 <_start+0x3728>
    ca14:	e1a01005 	mov	r1, r5
    ca18:	e3a02004 	mov	r2, #4
    ca1c:	e28d0030 	add	r0, sp, #48	; 0x30
    ca20:	e1a0a008 	mov	sl, r8
    ca24:	ebfff144 	bl	8f3c <memcpy@plt>
    ca28:	e59d2030 	ldr	r2, [sp, #48]	; 0x30
    ca2c:	e1a00006 	mov	r0, r6
    ca30:	e59f12dc 	ldr	r1, [pc, #732]	; cd14 <_start+0x3ab4>
    ca34:	e6bf2f32 	rev	r2, r2
[31m    ca38:	ebfff1d2 	bl	9188 <sprintf@plt>[0m
    ca3c:	e0866000 	add	r6, r6, r0
    ca40:	eaffffee 	b	ca00 <_start+0x37a0>
    ca44:	e1a01005 	mov	r1, r5
    ca48:	e3a02002 	mov	r2, #2
    ca4c:	e28d0034 	add	r0, sp, #52	; 0x34
    ca50:	e1a0a008 	mov	sl, r8
    ca54:	ebfff138 	bl	8f3c <memcpy@plt>
    ca58:	e1dd33b4 	ldrh	r3, [sp, #52]	; 0x34
    ca5c:	e1a00006 	mov	r0, r6
    ca60:	e59f12b0 	ldr	r1, [pc, #688]	; cd18 <_start+0x3ab8>
    ca64:	e1a02403 	lsl	r2, r3, #8
    ca68:	e1822423 	orr	r2, r2, r3, lsr #8
    ca6c:	e6ff2072 	uxth	r2, r2
[31m    ca70:	ebfff1c4 	bl	9188 <sprintf@plt>[0m
    ca74:	e0866000 	add	r6, r6, r0
    ca78:	eaffffe0 	b	ca00 <_start+0x37a0>
    ca7c:	e1a01005 	mov	r1, r5
    ca80:	e3a02002 	mov	r2, #2
    ca84:	e28d0036 	add	r0, sp, #54	; 0x36
    ca88:	e1a0a008 	mov	sl, r8
    ca8c:	ebfff12a 	bl	8f3c <memcpy@plt>
    ca90:	e1dd33b6 	ldrh	r3, [sp, #54]	; 0x36
    ca94:	e1a00006 	mov	r0, r6
    ca98:	e59f127c 	ldr	r1, [pc, #636]	; cd1c <_start+0x3abc>
    ca9c:	eafffff0 	b	ca64 <_start+0x3804>
    caa0:	e1a00006 	mov	r0, r6
    caa4:	e59f1270 	ldr	r1, [pc, #624]	; cd1c <_start+0x3abc>
    caa8:	e5d52000 	ldrb	r2, [r5]
    caac:	e1a0a008 	mov	sl, r8
[31m    cab0:	ebfff1b4 	bl	9188 <sprintf@plt>[0m
    cab4:	e0866000 	add	r6, r6, r0
    cab8:	eaffffd0 	b	ca00 <_start+0x37a0>
    cabc:	e5d51000 	ldrb	r1, [r5]
    cac0:	e30ec6b0 	movw	ip, #59056	; 0xe6b0
    cac4:	e340c000 	movt	ip, #0
    cac8:	e30e36b8 	movw	r3, #59064	; 0xe6b8
    cacc:	e3403000 	movt	r3, #0
    cad0:	e1a00006 	mov	r0, r6
    cad4:	e3510000 	cmp	r1, #0
    cad8:	e1a0a008 	mov	sl, r8
    cadc:	11a0300c 	movne	r3, ip
    cae0:	e1a01003 	mov	r1, r3
[31m    cae4:	ebfff1a7 	bl	9188 <sprintf@plt>[0m
    cae8:	e0866000 	add	r6, r6, r0
    caec:	eaffffc3 	b	ca00 <_start+0x37a0>
--
    cc44:	ebfffe9d 	bl	c6c0 <_start+0x3460>
    cc48:	e0866000 	add	r6, r6, r0
    cc4c:	eaffff6b 	b	ca00 <_start+0x37a0>
    cc50:	e1a0a008 	mov	sl, r8
    cc54:	eaffff69 	b	ca00 <_start+0x37a0>
    cc58:	e1a0a008 	mov	sl, r8
    cc5c:	eafffff5 	b	cc38 <_start+0x39d8>
    cc60:	e286702c 	add	r7, r6, #44	; 0x2c
    cc64:	e5c6306b 	strb	r3, [r6, #107]	; 0x6b
    cc68:	e1a00007 	mov	r0, r7
    cc6c:	ebfff163 	bl	9200 <strlen@plt>
    cc70:	e2800007 	add	r0, r0, #7
    cc74:	ebfff0bf 	bl	8f78 <malloc@plt>
    cc78:	e59d300c 	ldr	r3, [sp, #12]
    cc7c:	e1a02007 	mov	r2, r7
    cc80:	e59dc010 	ldr	ip, [sp, #16]
    cc84:	e59f10a8 	ldr	r1, [pc, #168]	; cd34 <_start+0x3ad4>
    cc88:	e78c0103 	str	r0, [ip, r3, lsl #2]
    cc8c:	e2833001 	add	r3, r3, #1
    cc90:	e58d300c 	str	r3, [sp, #12]
[31m    cc94:	ebfff13b 	bl	9188 <sprintf@plt>[0m
    cc98:	eaffffc1 	b	cba4 <_start+0x3944>
    cc9c:	e286706c 	add	r7, r6, #108	; 0x6c
    cca0:	e5c630eb 	strb	r3, [r6, #235]	; 0xeb
    cca4:	e1a00007 	mov	r0, r7
    cca8:	ebfff154 	bl	9200 <strlen@plt>
    ccac:	e280000b 	add	r0, r0, #11
    ccb0:	ebfff0b0 	bl	8f78 <malloc@plt>
    ccb4:	e59d300c 	ldr	r3, [sp, #12]
    ccb8:	e1a02007 	mov	r2, r7
    ccbc:	e59dc010 	ldr	ip, [sp, #16]
    ccc0:	e59f1070 	ldr	r1, [pc, #112]	; cd38 <_start+0x3ad8>
    ccc4:	e78c0103 	str	r0, [ip, r3, lsl #2]
    ccc8:	e2833001 	add	r3, r3, #1
    cccc:	e58d300c 	str	r3, [sp, #12]
[31m    ccd0:	ebfff12c 	bl	9188 <sprintf@plt>[0m
    ccd4:	eaffffac 	b	cb8c <_start+0x392c>
    ccd8:	e58d3014 	str	r3, [sp, #20]

[0m
[[0;33m*[0m] Function [0;33msprintf[0m used [0;33m11[0m times [0;33mudhcpd[0m

