[[0;33m*[0m] Binary protection state of [0;33mum_check_default[0m
[REF] s12

  	RELRO          CANARY            NX           PIE       RPATH        RUNPATH      SYMBOLS      
  	[31mNo RELRO[0m       [31mNo Canary found[0m   [32mNX enabled[0m   [31mNo PIE[0m       [32mNo RPATH[0m     [32mNo RUNPATH[0m   [31mSymbols[0m

[0m
[[0;33m*[0m] Function [0;33msystem[0m tear down of [0;33mum_check_default[0m

    92e4:	e1a01000 	mov	r1, r0
    92e8:	e59f01a4 	ldr	r0, [pc, #420]	; 9494 <check_mdnspr_nmbd+0x2fc>
    92ec:	ebfffd7b 	bl	88e0 <printf@plt>
    92f0:	e5953030 	ldr	r3, [r5, #48]	; 0x30
    92f4:	e3530000 	cmp	r3, #0
    92f8:	1a000053 	bne	944c <check_mdnspr_nmbd+0x2b4>
    92fc:	e59a0004 	ldr	r0, [sl, #4]
    9300:	ebfffdc4 	bl	8a18 <inet_ntoa@plt>
    9304:	e59fc18c 	ldr	ip, [pc, #396]	; 9498 <check_mdnspr_nmbd+0x300>
    9308:	e1a02000 	mov	r2, r0
    930c:	e1a03008 	mov	r3, r8
    9310:	e59f1184 	ldr	r1, [pc, #388]	; 949c <check_mdnspr_nmbd+0x304>
    9314:	e1a00006 	mov	r0, r6
    9318:	e88d1080 	stm	sp, {r7, ip}
    931c:	e3a0c050 	mov	ip, #80	; 0x50
    9320:	e58dc008 	str	ip, [sp, #8]
    9324:	ebfffdc7 	bl	8a48 <sprintf@plt>
    9328:	e1a00006 	mov	r0, r6
    932c:	ebfffd80 	bl	8934 <puts@plt>
    9330:	e1a00006 	mov	r0, r6
[31m    9334:	ebfffd81 	bl	8940 <system@plt>[0m
    9338:	e59f0160 	ldr	r0, [pc, #352]	; 94a0 <check_mdnspr_nmbd+0x308>
    933c:	e1a01004 	mov	r1, r4
    9340:	e5859030 	str	r9, [r5, #48]	; 0x30
    9344:	ebfffd5c 	bl	88bc <strcpy@plt>
    9348:	e3a03000 	mov	r3, #0
    934c:	e59f0150 	ldr	r0, [pc, #336]	; 94a4 <check_mdnspr_nmbd+0x30c>
    9350:	e585300c 	str	r3, [r5, #12]
[31m    9354:	ebfffd79 	bl	8940 <system@plt>[0m
    9358:	e3580000 	cmp	r8, #0
    935c:	0a000001 	beq	9368 <check_mdnspr_nmbd+0x1d0>
--
    93e0:	e1a00005 	mov	r0, r5
    93e4:	ebfffd40 	bl	88ec <pclose@plt>
    93e8:	e1a0000a 	mov	r0, sl
    93ec:	ebffff4f 	bl	9130 <isNumOnly>
    93f0:	e3500000 	cmp	r0, #0
    93f4:	0a000017 	beq	9458 <check_mdnspr_nmbd+0x2c0>
    93f8:	e59f5080 	ldr	r5, [pc, #128]	; 9480 <check_mdnspr_nmbd+0x2e8>
    93fc:	e5d53004 	ldrb	r3, [r5, #4]
    9400:	e3530000 	cmp	r3, #0
    9404:	0a000017 	beq	9468 <check_mdnspr_nmbd+0x2d0>
    9408:	e1a0000a 	mov	r0, sl
    940c:	e285a004 	add	sl, r5, #4
    9410:	ebfffd8f 	bl	8a54 <atoi@plt>
    9414:	e1a09000 	mov	r9, r0
    9418:	e1a0000a 	mov	r0, sl
    941c:	ebfffd8c 	bl	8a54 <atoi@plt>
    9420:	e0600009 	rsb	r0, r0, r9
    9424:	e3500031 	cmp	r0, #49	; 0x31
    9428:	daffff77 	ble	920c <check_mdnspr_nmbd+0x74>
    942c:	e59f007c 	ldr	r0, [pc, #124]	; 94b0 <check_mdnspr_nmbd+0x318>
[31m    9430:	ebfffd42 	bl	8940 <system@plt>[0m
    9434:	e3a03000 	mov	r3, #0
    9438:	e5853004 	str	r3, [r5, #4]
    943c:	e5ca3004 	strb	r3, [sl, #4]
    9440:	e3a03001 	mov	r3, #1
    9444:	e585300c 	str	r3, [r5, #12]
    9448:	eaffff6f 	b	920c <check_mdnspr_nmbd+0x74>
    944c:	e59f005c 	ldr	r0, [pc, #92]	; 94b0 <check_mdnspr_nmbd+0x318>
[31m    9450:	ebfffd3a 	bl	8940 <system@plt>[0m
    9454:	eaffffa8 	b	92fc <check_mdnspr_nmbd+0x164>
    9458:	e59f5020 	ldr	r5, [pc, #32]	; 9480 <check_mdnspr_nmbd+0x2e8>
--
    9508:	ebfffda1 	bl	8b94 <check_wan_linkstatus>
    950c:	e1a00006 	mov	r0, r6
    9510:	ebfffd10 	bl	8958 <sleep@plt>
    9514:	e5953000 	ldr	r3, [r5]
    9518:	e59f1070 	ldr	r1, [pc, #112]	; 9590 <main+0xdc>
    951c:	e59f0070 	ldr	r0, [pc, #112]	; 9594 <main+0xe0>
    9520:	e3530001 	cmp	r3, #1
    9524:	0588a000 	streq	sl, [r8]
    9528:	ebfffd2e 	bl	89e8 <fopen@plt>
    952c:	e2504000 	subs	r4, r0, #0
    9530:	e1a02007 	mov	r2, r7
    9534:	e59f105c 	ldr	r1, [pc, #92]	; 9598 <main+0xe4>
    9538:	0afffff1 	beq	9504 <main+0x50>
    953c:	ebfffcf0 	bl	8904 <fscanf@plt>
    9540:	e59d3004 	ldr	r3, [sp, #4]
    9544:	e3530001 	cmp	r3, #1
    9548:	1affffeb 	bne	94fc <main+0x48>
    954c:	e59f0048 	ldr	r0, [pc, #72]	; 959c <main+0xe8>
    9550:	ebfffcf7 	bl	8934 <puts@plt>
    9554:	e59f0044 	ldr	r0, [pc, #68]	; 95a0 <main+0xec>
[31m    9558:	ebfffcf8 	bl	8940 <system@plt>[0m
    955c:	e1a00004 	mov	r0, r4
    9560:	ebfffd29 	bl	8a0c <fclose@plt>
    9564:	e59f1038 	ldr	r1, [pc, #56]	; 95a4 <main+0xf0>
    9568:	e59f0038 	ldr	r0, [pc, #56]	; 95a8 <main+0xf4>
    956c:	ebfffd08 	bl	8994 <nvram_set@plt>
    9570:	ebfffd2e 	bl	8a30 <nvram_commit@plt>
    9574:	e3a00002 	mov	r0, #2
    9578:	ebfffcf6 	bl	8958 <sleep@plt>
    957c:	e59f0028 	ldr	r0, [pc, #40]	; 95ac <main+0xf8>
[31m    9580:	ebfffcee 	bl	8940 <system@plt>[0m
    9584:	eaffffdc 	b	94fc <main+0x48>
    9588:	000119c8 	.word	0x000119c8

[0m
[[0;33m*[0m] Function [0;33msystem[0m used [0;33m6[0m times [0;33mum_check_default[0m

