[[0;33m*[0m] Binary protection state of [0;33mlibxt_hashlimit.so[0m
[REF] s12

  	RELRO          CANARY            NX           PIE       RPATH        RUNPATH      SYMBOLS      
  	[31mNo RELRO[0m       [31mNo Canary found[0m   [32mNX enabled[0m   [33mDSO[0m          [32mNo RPATH[0m     [32mNo RUNPATH[0m   [31mSymbols
	[31mNo RELRO[0m       [31mNo Canary found[0m   [32mNX enabled[0m   [33mDSO[0m          [32mNo RPATH[0m     [32mNo RUNPATH[0m   [32mNo Symbols[0m

[0m
[[0;33m*[0m] Function [0;33mprintf[0m tear down of [0;33mlibxt_hashlimit.so[0m

     b24:	eb000317 	bl	1788 <libxt_hashlimit_init+0x20>
     b28:	e1a01004 	mov	r1, r4
     b2c:	e1a07000 	mov	r7, r0
     b30:	e1a00006 	mov	r0, r6
     b34:	eb00033d 	bl	1830 <libxt_hashlimit_init+0xc8>
     b38:	e1570001 	cmp	r7, r1
     b3c:	23a06003 	movcs	r6, #3
     b40:	33a06002 	movcc	r6, #2
     b44:	e59f705c 	ldr	r7, [pc, #92]	; ba8 <free@plt+0x340>
     b48:	e1a01004 	mov	r1, r4
     b4c:	e59f2058 	ldr	r2, [pc, #88]	; bac <free@plt+0x344>
     b50:	e0857007 	add	r7, r5, r7
     b54:	e0873186 	add	r3, r7, r6, lsl #3
     b58:	e0855002 	add	r5, r5, r2
     b5c:	e5934004 	ldr	r4, [r3, #4]
     b60:	e1a00004 	mov	r0, r4
     b64:	eb000307 	bl	1788 <libxt_hashlimit_init+0x20>
     b68:	e7972186 	ldr	r2, [r7, r6, lsl #3]
     b6c:	e1a01000 	mov	r1, r0
     b70:	e1a00005 	mov	r0, r5
[31m     b74:	ebffff08 	bl	79c <printf@plt>[0m
     b78:	e3013759 	movw	r3, #5977	; 0x1759
     b7c:	e3a00ffa 	mov	r0, #1000	; 0x3e8
--
     d2c:	e5903010 	ldr	r3, [r0, #16]
     d30:	e1a06001 	mov	r6, r1
     d34:	e59f516c 	ldr	r5, [pc, #364]	; ea8 <free@plt+0x640>
     d38:	e3130010 	tst	r3, #16
     d3c:	e08f5005 	add	r5, pc, r5
     d40:	0a000034 	beq	e18 <free@plt+0x5b0>
     d44:	e59f7160 	ldr	r7, [pc, #352]	; eac <free@plt+0x644>
     d48:	e3a01001 	mov	r1, #1
     d4c:	e59f015c 	ldr	r0, [pc, #348]	; eb0 <free@plt+0x648>
     d50:	e3a02012 	mov	r2, #18
     d54:	e7953007 	ldr	r3, [r5, r7]
     d58:	e0850000 	add	r0, r5, r0
     d5c:	e5933000 	ldr	r3, [r3]
     d60:	ebfffeae 	bl	820 <fwrite@plt>
     d64:	e5940014 	ldr	r0, [r4, #20]
     d68:	ebffff49 	bl	a94 <free@plt+0x22c>
     d6c:	e1a08000 	mov	r8, r0
     d70:	e59f013c 	ldr	r0, [pc, #316]	; eb4 <free@plt+0x64c>
     d74:	e5941018 	ldr	r1, [r4, #24]
     d78:	e0850000 	add	r0, r5, r0
[31m     d7c:	ebfffe86 	bl	79c <printf@plt>[0m
     d80:	e5943010 	ldr	r3, [r4, #16]
     d84:	e313000f 	tst	r3, #15
     d88:	1a00002b 	bne	e3c <free@plt+0x5d4>
     d8c:	e59f0124 	ldr	r0, [pc, #292]	; eb8 <free@plt+0x650>
     d90:	e1a01004 	mov	r1, r4
     d94:	e0850000 	add	r0, r5, r0
[31m     d98:	ebfffe7f 	bl	79c <printf@plt>[0m
     d9c:	e594101c 	ldr	r1, [r4, #28]
     da0:	e3510000 	cmp	r1, #0
     da4:	1a000035 	bne	e80 <free@plt+0x618>
     da8:	e5941020 	ldr	r1, [r4, #32]
     dac:	e3510000 	cmp	r1, #0
     db0:	1a000038 	bne	e98 <free@plt+0x630>
     db4:	e5941024 	ldr	r1, [r4, #36]	; 0x24
     db8:	e3510ffa 	cmp	r1, #1000	; 0x3e8
     dbc:	0a000002 	beq	dcc <free@plt+0x564>
     dc0:	e59f00f4 	ldr	r0, [pc, #244]	; ebc <free@plt+0x654>
     dc4:	e0850000 	add	r0, r5, r0
[31m     dc8:	ebfffe73 	bl	79c <printf@plt>[0m
     dcc:	e5941028 	ldr	r1, [r4, #40]	; 0x28
     dd0:	e1510008 	cmp	r1, r8
     dd4:	0a000002 	beq	de4 <free@plt+0x57c>
     dd8:	e59f00e0 	ldr	r0, [pc, #224]	; ec0 <free@plt+0x658>
     ddc:	e0850000 	add	r0, r5, r0
[31m     de0:	ebfffe6d 	bl	79c <printf@plt>[0m
     de4:	e5d4102c 	ldrb	r1, [r4, #44]	; 0x2c
     de8:	e1510006 	cmp	r1, r6
     dec:	0a000002 	beq	dfc <free@plt+0x594>
     df0:	e59f00cc 	ldr	r0, [pc, #204]	; ec4 <free@plt+0x65c>
     df4:	e0850000 	add	r0, r5, r0
[31m     df8:	ebfffe67 	bl	79c <printf@plt>[0m
     dfc:	e5d4102d 	ldrb	r1, [r4, #45]	; 0x2d
     e00:	e1510006 	cmp	r1, r6
--
     e20:	e59f00a4 	ldr	r0, [pc, #164]	; ecc <free@plt+0x664>
     e24:	e3a02011 	mov	r2, #17
     e28:	e7953007 	ldr	r3, [r5, r7]
     e2c:	e0850000 	add	r0, r5, r0
     e30:	e5933000 	ldr	r3, [r3]
     e34:	ebfffe79 	bl	820 <fwrite@plt>
     e38:	eaffffc9 	b	d64 <free@plt+0x4fc>
     e3c:	e7953007 	ldr	r3, [r5, r7]
     e40:	e3a02011 	mov	r2, #17
     e44:	e59f0084 	ldr	r0, [pc, #132]	; ed0 <free@plt+0x668>
     e48:	e3a01001 	mov	r1, #1
     e4c:	e5933000 	ldr	r3, [r3]
     e50:	e0850000 	add	r0, r5, r0
     e54:	ebfffe71 	bl	820 <fwrite@plt>
     e58:	e5940010 	ldr	r0, [r4, #16]
     e5c:	e3a0102c 	mov	r1, #44	; 0x2c
     e60:	ebffff62 	bl	bf0 <free@plt+0x388>
     e64:	e59f004c 	ldr	r0, [pc, #76]	; eb8 <free@plt+0x650>
     e68:	e1a01004 	mov	r1, r4
     e6c:	e0850000 	add	r0, r5, r0
[31m     e70:	ebfffe49 	bl	79c <printf@plt>[0m
     e74:	e594101c 	ldr	r1, [r4, #28]
     e78:	e3510000 	cmp	r1, #0
     e7c:	0affffc9 	beq	da8 <free@plt+0x540>
     e80:	e59f004c 	ldr	r0, [pc, #76]	; ed4 <free@plt+0x66c>
     e84:	e0850000 	add	r0, r5, r0
[31m     e88:	ebfffe43 	bl	79c <printf@plt>[0m
     e8c:	e5941020 	ldr	r1, [r4, #32]
     e90:	e3510000 	cmp	r1, #0
     e94:	0affffc6 	beq	db4 <free@plt+0x54c>
     e98:	e59f0038 	ldr	r0, [pc, #56]	; ed8 <free@plt+0x670>
     e9c:	e0850000 	add	r0, r5, r0
[31m     ea0:	ebfffe3d 	bl	79c <printf@plt>[0m
     ea4:	eaffffc2 	b	db4 <free@plt+0x54c>
     ea8:	000099b4 			; <UNDEFINED> instruction: 0x000099b4
--
     efc:	e5903010 	ldr	r3, [r0, #16]
     f00:	e1a06001 	mov	r6, r1
     f04:	e59f514c 	ldr	r5, [pc, #332]	; 1058 <free@plt+0x7f0>
     f08:	e3130010 	tst	r3, #16
     f0c:	e08f5005 	add	r5, pc, r5
     f10:	0a000030 	beq	fd8 <free@plt+0x770>
     f14:	e59f7140 	ldr	r7, [pc, #320]	; 105c <free@plt+0x7f4>
     f18:	e3a01001 	mov	r1, #1
     f1c:	e59f013c 	ldr	r0, [pc, #316]	; 1060 <free@plt+0x7f8>
     f20:	e3a0200d 	mov	r2, #13
     f24:	e7953007 	ldr	r3, [r5, r7]
     f28:	e0850000 	add	r0, r5, r0
     f2c:	e5933000 	ldr	r3, [r3]
     f30:	ebfffe3a 	bl	820 <fwrite@plt>
     f34:	e5940014 	ldr	r0, [r4, #20]
     f38:	ebfffed5 	bl	a94 <free@plt+0x22c>
     f3c:	e1a08000 	mov	r8, r0
     f40:	e59f011c 	ldr	r0, [pc, #284]	; 1064 <free@plt+0x7fc>
     f44:	e5941018 	ldr	r1, [r4, #24]
     f48:	e0850000 	add	r0, r5, r0
[31m     f4c:	ebfffe12 	bl	79c <printf@plt>[0m
     f50:	e5943010 	ldr	r3, [r4, #16]
     f54:	e313000f 	tst	r3, #15
     f58:	1a000027 	bne	ffc <free@plt+0x794>
     f5c:	e594101c 	ldr	r1, [r4, #28]
     f60:	e3510000 	cmp	r1, #0
     f64:	1a000031 	bne	1030 <free@plt+0x7c8>
     f68:	e5941020 	ldr	r1, [r4, #32]
     f6c:	e3510000 	cmp	r1, #0
     f70:	1a000034 	bne	1048 <free@plt+0x7e0>
     f74:	e5941024 	ldr	r1, [r4, #36]	; 0x24
     f78:	e3510ffa 	cmp	r1, #1000	; 0x3e8
     f7c:	0a000002 	beq	f8c <free@plt+0x724>
     f80:	e59f00e0 	ldr	r0, [pc, #224]	; 1068 <free@plt+0x800>
     f84:	e0850000 	add	r0, r5, r0
[31m     f88:	ebfffe03 	bl	79c <printf@plt>[0m
     f8c:	e5941028 	ldr	r1, [r4, #40]	; 0x28
     f90:	e1510008 	cmp	r1, r8
     f94:	0a000002 	beq	fa4 <free@plt+0x73c>
     f98:	e59f00cc 	ldr	r0, [pc, #204]	; 106c <free@plt+0x804>
     f9c:	e0850000 	add	r0, r5, r0
[31m     fa0:	ebfffdfd 	bl	79c <printf@plt>[0m
     fa4:	e5d4102c 	ldrb	r1, [r4, #44]	; 0x2c
     fa8:	e1510006 	cmp	r1, r6
     fac:	0a000002 	beq	fbc <free@plt+0x754>
     fb0:	e59f00b8 	ldr	r0, [pc, #184]	; 1070 <free@plt+0x808>
     fb4:	e0850000 	add	r0, r5, r0
[31m     fb8:	ebfffdf7 	bl	79c <printf@plt>[0m
     fbc:	e5d4102d 	ldrb	r1, [r4, #45]	; 0x2d
     fc0:	e1510006 	cmp	r1, r6
--
     fe8:	e7953007 	ldr	r3, [r5, r7]
     fec:	e0850000 	add	r0, r5, r0
     ff0:	e5933000 	ldr	r3, [r3]
     ff4:	ebfffe09 	bl	820 <fwrite@plt>
     ff8:	eaffffcd 	b	f34 <free@plt+0x6cc>
     ffc:	e7953007 	ldr	r3, [r5, r7]
    1000:	e3a01001 	mov	r1, #1
    1004:	e59f0070 	ldr	r0, [pc, #112]	; 107c <free@plt+0x814>
    1008:	e3a02005 	mov	r2, #5
    100c:	e5933000 	ldr	r3, [r3]
    1010:	e0850000 	add	r0, r5, r0
    1014:	ebfffe01 	bl	820 <fwrite@plt>
    1018:	e3a0102d 	mov	r1, #45	; 0x2d
    101c:	e5940010 	ldr	r0, [r4, #16]
    1020:	ebfffef2 	bl	bf0 <free@plt+0x388>
    1024:	e594101c 	ldr	r1, [r4, #28]
    1028:	e3510000 	cmp	r1, #0
    102c:	0affffcd 	beq	f68 <free@plt+0x700>
    1030:	e59f0048 	ldr	r0, [pc, #72]	; 1080 <free@plt+0x818>
    1034:	e0850000 	add	r0, r5, r0
[31m    1038:	ebfffdd7 	bl	79c <printf@plt>[0m
    103c:	e5941020 	ldr	r1, [r4, #32]
    1040:	e3510000 	cmp	r1, #0
    1044:	0affffca 	beq	f74 <free@plt+0x70c>
    1048:	e59f0034 	ldr	r0, [pc, #52]	; 1084 <free@plt+0x81c>
    104c:	e0850000 	add	r0, r5, r0
[31m    1050:	ebfffdd1 	bl	79c <printf@plt>[0m
    1054:	eaffffc6 	b	f74 <free@plt+0x70c>
    1058:	000097e4 	andeq	r9, r0, r4, ror #15
--
    1098:	e3a01020 	mov	r1, #32
    109c:	eaffff94 	b	ef4 <free@plt+0x68c>
    10a0:	e92d41f0 	push	{r4, r5, r6, r7, r8, lr}
    10a4:	e3a0200c 	mov	r2, #12
    10a8:	e59f40e4 	ldr	r4, [pc, #228]	; 1194 <free@plt+0x92c>
    10ac:	e2815020 	add	r5, r1, #32
    10b0:	e3a01001 	mov	r1, #1
    10b4:	e59f30dc 	ldr	r3, [pc, #220]	; 1198 <free@plt+0x930>
    10b8:	e08f4004 	add	r4, pc, r4
    10bc:	e59f00d8 	ldr	r0, [pc, #216]	; 119c <free@plt+0x934>
    10c0:	e7946003 	ldr	r6, [r4, r3]
    10c4:	e0840000 	add	r0, r4, r0
    10c8:	e5963000 	ldr	r3, [r6]
    10cc:	ebfffdd3 	bl	820 <fwrite@plt>
    10d0:	e5950014 	ldr	r0, [r5, #20]
    10d4:	ebfffe6e 	bl	a94 <free@plt+0x22c>
    10d8:	e1a07000 	mov	r7, r0
    10dc:	e59f00bc 	ldr	r0, [pc, #188]	; 11a0 <free@plt+0x938>
    10e0:	e5951018 	ldr	r1, [r5, #24]
    10e4:	e0840000 	add	r0, r4, r0
[31m    10e8:	ebfffdab 	bl	79c <printf@plt>[0m
    10ec:	e59f00b0 	ldr	r0, [pc, #176]	; 11a4 <free@plt+0x93c>
    10f0:	e3a02011 	mov	r2, #17
    10f4:	e5963000 	ldr	r3, [r6]
    10f8:	e3a01001 	mov	r1, #1
    10fc:	e0840000 	add	r0, r4, r0
    1100:	ebfffdc6 	bl	820 <fwrite@plt>
    1104:	e5950010 	ldr	r0, [r5, #16]
    1108:	e3a0102c 	mov	r1, #44	; 0x2c
    110c:	ebfffeb7 	bl	bf0 <free@plt+0x388>
    1110:	e59f0090 	ldr	r0, [pc, #144]	; 11a8 <free@plt+0x940>
    1114:	e1a01005 	mov	r1, r5
    1118:	e0840000 	add	r0, r4, r0
[31m    111c:	ebfffd9e 	bl	79c <printf@plt>[0m
    1120:	e595101c 	ldr	r1, [r5, #28]
    1124:	e3510000 	cmp	r1, #0
    1128:	1a00000f 	bne	116c <free@plt+0x904>
    112c:	e5951020 	ldr	r1, [r5, #32]
    1130:	e3510000 	cmp	r1, #0
    1134:	1a000012 	bne	1184 <free@plt+0x91c>
    1138:	e5951024 	ldr	r1, [r5, #36]	; 0x24
    113c:	e3510ffa 	cmp	r1, #1000	; 0x3e8
    1140:	0a000002 	beq	1150 <free@plt+0x8e8>
    1144:	e59f0060 	ldr	r0, [pc, #96]	; 11ac <free@plt+0x944>
    1148:	e0840000 	add	r0, r4, r0
[31m    114c:	ebfffd92 	bl	79c <printf@plt>[0m
    1150:	e5951028 	ldr	r1, [r5, #40]	; 0x28
    1154:	e1510007 	cmp	r1, r7
    1158:	08bd81f0 	popeq	{r4, r5, r6, r7, r8, pc}
    115c:	e59f004c 	ldr	r0, [pc, #76]	; 11b0 <free@plt+0x948>
    1160:	e0840000 	add	r0, r4, r0
    1164:	e8bd41f0 	pop	{r4, r5, r6, r7, r8, lr}
[31m    1168:	eafffd8b 	b	79c <printf@plt>[0m
    116c:	e59f0040 	ldr	r0, [pc, #64]	; 11b4 <free@plt+0x94c>
    1170:	e0840000 	add	r0, r4, r0
[31m    1174:	ebfffd88 	bl	79c <printf@plt>[0m
    1178:	e5951020 	ldr	r1, [r5, #32]
    117c:	e3510000 	cmp	r1, #0
    1180:	0affffec 	beq	1138 <free@plt+0x8d0>
    1184:	e59f002c 	ldr	r0, [pc, #44]	; 11b8 <free@plt+0x950>
    1188:	e0840000 	add	r0, r4, r0
[31m    118c:	ebfffd82 	bl	79c <printf@plt>[0m
    1190:	eaffffe8 	b	1138 <free@plt+0x8d0>
    1194:	00009638 	andeq	r9, r0, r8, lsr r6
--
    11b4:	ffff78c4 			; <UNDEFINED> instruction: 0xffff78c4
    11b8:	ffff78e0 			; <UNDEFINED> instruction: 0xffff78e0
    11bc:	e92d41f0 	push	{r4, r5, r6, r7, r8, lr}
    11c0:	e3a0200b 	mov	r2, #11
    11c4:	e59f40d4 	ldr	r4, [pc, #212]	; 12a0 <free@plt+0xa38>
    11c8:	e2815020 	add	r5, r1, #32
    11cc:	e3a01001 	mov	r1, #1
    11d0:	e59f30cc 	ldr	r3, [pc, #204]	; 12a4 <free@plt+0xa3c>
    11d4:	e08f4004 	add	r4, pc, r4
    11d8:	e59f00c8 	ldr	r0, [pc, #200]	; 12a8 <free@plt+0xa40>
    11dc:	e7946003 	ldr	r6, [r4, r3]
    11e0:	e0840000 	add	r0, r4, r0
    11e4:	e5963000 	ldr	r3, [r6]
    11e8:	ebfffd8c 	bl	820 <fwrite@plt>
    11ec:	e5950014 	ldr	r0, [r5, #20]
    11f0:	ebfffe27 	bl	a94 <free@plt+0x22c>
    11f4:	e1a07000 	mov	r7, r0
    11f8:	e59f00ac 	ldr	r0, [pc, #172]	; 12ac <free@plt+0xa44>
    11fc:	e5951018 	ldr	r1, [r5, #24]
    1200:	e0840000 	add	r0, r4, r0
[31m    1204:	ebfffd64 	bl	79c <printf@plt>[0m
    1208:	e59f00a0 	ldr	r0, [pc, #160]	; 12b0 <free@plt+0xa48>
    120c:	e3a01001 	mov	r1, #1
    1210:	e3a02005 	mov	r2, #5
    1214:	e5963000 	ldr	r3, [r6]
    1218:	e0840000 	add	r0, r4, r0
    121c:	ebfffd7f 	bl	820 <fwrite@plt>
    1220:	e3a0102d 	mov	r1, #45	; 0x2d
    1224:	e5950010 	ldr	r0, [r5, #16]
    1228:	ebfffe70 	bl	bf0 <free@plt+0x388>
    122c:	e595101c 	ldr	r1, [r5, #28]
    1230:	e3510000 	cmp	r1, #0
    1234:	1a00000f 	bne	1278 <free@plt+0xa10>
    1238:	e5951020 	ldr	r1, [r5, #32]
    123c:	e3510000 	cmp	r1, #0
    1240:	1a000012 	bne	1290 <free@plt+0xa28>
    1244:	e5951024 	ldr	r1, [r5, #36]	; 0x24
    1248:	e3510ffa 	cmp	r1, #1000	; 0x3e8
    124c:	0a000002 	beq	125c <free@plt+0x9f4>
    1250:	e59f005c 	ldr	r0, [pc, #92]	; 12b4 <free@plt+0xa4c>
    1254:	e0840000 	add	r0, r4, r0
[31m    1258:	ebfffd4f 	bl	79c <printf@plt>[0m
    125c:	e5951028 	ldr	r1, [r5, #40]	; 0x28
    1260:	e1510007 	cmp	r1, r7
    1264:	08bd81f0 	popeq	{r4, r5, r6, r7, r8, pc}
    1268:	e59f0048 	ldr	r0, [pc, #72]	; 12b8 <free@plt+0xa50>
    126c:	e0840000 	add	r0, r4, r0
    1270:	e8bd41f0 	pop	{r4, r5, r6, r7, r8, lr}
[31m    1274:	eafffd48 	b	79c <printf@plt>[0m
    1278:	e59f003c 	ldr	r0, [pc, #60]	; 12bc <free@plt+0xa54>
    127c:	e0840000 	add	r0, r4, r0
[31m    1280:	ebfffd45 	bl	79c <printf@plt>[0m
    1284:	e5951020 	ldr	r1, [r5, #32]
    1288:	e3510000 	cmp	r1, #0
    128c:	0affffec 	beq	1244 <free@plt+0x9dc>
    1290:	e59f0028 	ldr	r0, [pc, #40]	; 12c0 <free@plt+0xa58>
    1294:	e0840000 	add	r0, r4, r0
[31m    1298:	ebfffd3f 	bl	79c <printf@plt>[0m
    129c:	eaffffe8 	b	1244 <free@plt+0x9dc>
    12a0:	0000951c 	andeq	r9, r0, ip, lsl r5

[0m
[[0;33m*[0m] Function [0;33mprintf[0m used [0;33m24[0m times [0;33mlibxt_hashlimit.so[0m

