[[0;33m*[0m] Binary protection state of [0;33mlibnetconf.so.svn-base[0m
[REF] s12

  	RELRO          CANARY            NX           PIE       RPATH        RUNPATH      SYMBOLS      
  	[31mNo RELRO[0m       [31mNo Canary found[0m   [32mNX enabled[0m   [33mDSO[0m          [32mNo RPATH[0m     [32mNo RUNPATH[0m   [32mNo Symbols[0m

[0m
[[0;33m*[0m] Function [0;33mstrcpy[0m tear down of [0;33mlibnetconf.so.svn-base[0m

    6024:	e3500000 	cmp	r0, #0
    6028:	e58b0058 	str	r0, [fp, #88]	; 0x58
    602c:	0a0000ed 	beq	63e8 <iptc_commit+0x4b4>
    6030:	e59dc010 	ldr	ip, [sp, #16]
    6034:	e1a0320c 	lsl	r3, ip, #4
    6038:	e2833028 	add	r3, r3, #40	; 0x28
    603c:	e1a00003 	mov	r0, r3
    6040:	e58d3018 	str	r3, [sp, #24]
    6044:	ebffebf3 	bl	1018 <malloc@plt>
    6048:	e250e000 	subs	lr, r0, #0
    604c:	e58de014 	str	lr, [sp, #20]
    6050:	0a0000bb 	beq	6344 <iptc_commit+0x410>
    6054:	e59d300c 	ldr	r3, [sp, #12]
    6058:	e3a01000 	mov	r1, #0
    605c:	e59d2018 	ldr	r2, [sp, #24]
    6060:	e2833028 	add	r3, r3, #40	; 0x28
    6064:	e58d3024 	str	r3, [sp, #36]	; 0x24
    6068:	ebffec1a 	bl	10d8 <memset@plt>
    606c:	e1a0000b 	mov	r0, fp
    6070:	e59d1024 	ldr	r1, [sp, #36]	; 0x24
[31m    6074:	ebffebcc 	bl	fac <strcpy@plt>[0m
    6078:	e59de00c 	ldr	lr, [sp, #12]
    607c:	e59dc010 	ldr	ip, [sp, #16]
--
    6208:	e1c4c5ba 	strh	ip, [r4, #90]	; 0x5a
    620c:	e2840072 	add	r0, r4, #114	; 0x72
    6210:	e1c4e7b0 	strh	lr, [r4, #112]	; 0x70
    6214:	ebffeb73 	bl	fe8 <memcpy@plt>
    6218:	e8950003 	ldm	r5, {r0, r1}
    621c:	e3a02040 	mov	r2, #64	; 0x40
    6220:	e59de00c 	ldr	lr, [sp, #12]
    6224:	e1a0300b 	mov	r3, fp
    6228:	e1c419b4 	strh	r1, [r4, #148]	; 0x94
    622c:	e3a01000 	mov	r1, #0
    6230:	e5840090 	str	r0, [r4, #144]	; 0x90
    6234:	e59bc028 	ldr	ip, [fp, #40]	; 0x28
    6238:	e59e0000 	ldr	r0, [lr]
    623c:	e28cc060 	add	ip, ip, #96	; 0x60
    6240:	e58dc000 	str	ip, [sp]
    6244:	ebffeb88 	bl	106c <setsockopt@plt>
    6248:	e3500000 	cmp	r0, #0
    624c:	ba000052 	blt	639c <iptc_commit+0x468>
    6250:	e59d1024 	ldr	r1, [sp, #36]	; 0x24
    6254:	e59d0014 	ldr	r0, [sp, #20]
[31m    6258:	ebffeb53 	bl	fac <strcpy@plt>[0m
    625c:	e59d0010 	ldr	r0, [sp, #16]
    6260:	e59d1014 	ldr	r1, [sp, #20]
--
    6390:	e28330b0 	add	r3, r3, #176	; 0xb0
    6394:	e5873020 	str	r3, [r7, #32]
    6398:	eaffff58 	b	6100 <iptc_commit+0x1cc>
    639c:	e59d0014 	ldr	r0, [sp, #20]
    63a0:	ebffeb7c 	bl	1198 <free@plt>
    63a4:	eaffffe9 	b	6350 <iptc_commit+0x41c>
    63a8:	e5956060 	ldr	r6, [r5, #96]	; 0x60
    63ac:	e3a03070 	mov	r3, #112	; 0x70
    63b0:	e3a0c0b0 	mov	ip, #176	; 0xb0
    63b4:	e59d101c 	ldr	r1, [sp, #28]
    63b8:	e3a02006 	mov	r2, #6
    63bc:	e0846006 	add	r6, r4, r6
    63c0:	e1c635b8 	strh	r3, [r6, #88]	; 0x58
    63c4:	e2860072 	add	r0, r6, #114	; 0x72
    63c8:	e1c6c5ba 	strh	ip, [r6, #90]	; 0x5a
    63cc:	ebffeb05 	bl	fe8 <memcpy@plt>
    63d0:	e3a0e040 	mov	lr, #64	; 0x40
    63d4:	e2860090 	add	r0, r6, #144	; 0x90
    63d8:	e1c6e7b0 	strh	lr, [r6, #112]	; 0x70
    63dc:	e2851008 	add	r1, r5, #8
[31m    63e0:	ebffeaf1 	bl	fac <strcpy@plt>[0m
    63e4:	eaffff3f 	b	60e8 <iptc_commit+0x1b4>
    63e8:	ebffeb58 	bl	1150 <__errno_location@plt>
--
    6684:	b3a02000 	movlt	r2, #0
    6688:	e58d0020 	str	r0, [sp, #32]
    668c:	b58d2018 	strlt	r2, [sp, #24]
    6690:	bafffff3 	blt	6664 <iptc_init+0x44>
    6694:	e28d3088 	add	r3, sp, #136	; 0x88
    6698:	e28d2030 	add	r2, sp, #48	; 0x30
    669c:	e58d3028 	str	r3, [sp, #40]	; 0x28
    66a0:	e28dc084 	add	ip, sp, #132	; 0x84
    66a4:	e59f363c 	ldr	r3, [pc, #1596]	; 6ce8 <iptc_init+0x6c8>
    66a8:	e58d2014 	str	r2, [sp, #20]
    66ac:	e58dc02c 	str	ip, [sp, #44]	; 0x2c
    66b0:	e0843003 	add	r3, r4, r3
    66b4:	e58d300c 	str	r3, [sp, #12]
    66b8:	e59f362c 	ldr	r3, [pc, #1580]	; 6cec <iptc_init+0x6cc>
    66bc:	e0843003 	add	r3, r4, r3
    66c0:	e58d301c 	str	r3, [sp, #28]
    66c4:	e59d1024 	ldr	r1, [sp, #36]	; 0x24
    66c8:	e3a04054 	mov	r4, #84	; 0x54
    66cc:	e59d0014 	ldr	r0, [sp, #20]
    66d0:	e58d4088 	str	r4, [sp, #136]	; 0x88
[31m    66d4:	ebffea34 	bl	fac <strcpy@plt>[0m
    66d8:	e59dc028 	ldr	ip, [sp, #40]	; 0x28
    66dc:	e3a01000 	mov	r1, #0
--
    66f4:	e3500000 	cmp	r0, #0
    66f8:	ba000172 	blt	6cc8 <iptc_init+0x6a8>
    66fc:	e3a00080 	mov	r0, #128	; 0x80
    6700:	e59d7080 	ldr	r7, [sp, #128]	; 0x80
    6704:	ebffea43 	bl	1018 <malloc@plt>
    6708:	e3500000 	cmp	r0, #0
    670c:	e1a06000 	mov	r6, r0
    6710:	e58d0018 	str	r0, [sp, #24]
    6714:	0a000158 	beq	6c7c <iptc_init+0x65c>
    6718:	e2803008 	add	r3, r0, #8
    671c:	e3a02080 	mov	r2, #128	; 0x80
    6720:	e3a01000 	mov	r1, #0
    6724:	e58d3010 	str	r3, [sp, #16]
    6728:	e2808028 	add	r8, r0, #40	; 0x28
    672c:	ebffea69 	bl	10d8 <memset@plt>
    6730:	e59dc010 	ldr	ip, [sp, #16]
    6734:	e1a00008 	mov	r0, r8
    6738:	e59d1014 	ldr	r1, [sp, #20]
    673c:	e586c008 	str	ip, [r6, #8]
    6740:	e586c00c 	str	ip, [r6, #12]
[31m    6744:	ebffea18 	bl	fac <strcpy@plt>[0m
    6748:	e2870028 	add	r0, r7, #40	; 0x28
    674c:	ebffea31 	bl	1018 <malloc@plt>
    6750:	e3500000 	cmp	r0, #0
    6754:	e1a05000 	mov	r5, r0
    6758:	e586007c 	str	r0, [r6, #124]	; 0x7c
    675c:	0a000156 	beq	6cbc <iptc_init+0x69c>
    6760:	e59d1014 	ldr	r1, [sp, #20]
[31m    6764:	ebffea10 	bl	fac <strcpy@plt>[0m
    6768:	e59d3020 	ldr	r3, [sp, #32]
    676c:	e1a02004 	mov	r2, r4

[0m
[[0;33m*[0m] Function [0;33mstrcpy[0m used [0;33m6[0m times [0;33mlibnetconf.so.svn-base[0m

