[[0;33m*[0m] Binary protection state of [0;33mwps_monitor[0m
[REF] s12

  	RELRO          CANARY            NX           PIE       RPATH        RUNPATH      SYMBOLS      
  	[31mNo RELRO[0m       [31mNo Canary found[0m   [32mNX enabled[0m   [31mNo PIE[0m       [32mNo RPATH[0m     [32mNo RUNPATH[0m   [32mNo Symbols[0m

[0m
[[0;33m*[0m] Function [0;33msprintf[0m tear down of [0;33mwps_monitor[0m

    bb30:	e59f2094 	ldr	r2, [pc, #148]	; bbcc <_start+0x1e48>
    bb34:	e1a0300e 	mov	r3, lr
    bb38:	ebfff7ad 	bl	99f4 <snprintf@plt>
    bb3c:	e3570000 	cmp	r7, #0
    bb40:	05cd7070 	strbeq	r7, [sp, #112]	; 0x70
    bb44:	0a000004 	beq	bb5c <_start+0x1dd8>
    bb48:	e1a00005 	mov	r0, r5
    bb4c:	e3a0100e 	mov	r1, #14
    bb50:	e59f2074 	ldr	r2, [pc, #116]	; bbcc <_start+0x1e48>
    bb54:	e1a03007 	mov	r3, r7
    bb58:	ebfff7a5 	bl	99f4 <snprintf@plt>
    bb5c:	e3560000 	cmp	r6, #0
    bb60:	0a00000c 	beq	bb98 <_start+0x1e14>
    bb64:	e59f5064 	ldr	r5, [pc, #100]	; bbd0 <_start+0x1e4c>
    bb68:	e1a02004 	mov	r2, r4
    bb6c:	e58d6000 	str	r6, [sp]
    bb70:	e1a03008 	mov	r3, r8
    bb74:	e59f1058 	ldr	r1, [pc, #88]	; bbd4 <_start+0x1e50>
    bb78:	e5954000 	ldr	r4, [r5]
    bb7c:	e1a00004 	mov	r0, r4
[31m    bb80:	ebfff83d 	bl	9c7c <sprintf@plt>[0m
    bb84:	e0840000 	add	r0, r4, r0
    bb88:	e5850000 	str	r0, [r5]
--
    bbe4:	e3060538 	movw	r0, #25912	; 0x6538
    bbe8:	e3400002 	movt	r0, #2
    bbec:	e8bd4010 	pop	{r4, lr}
    bbf0:	eafff713 	b	9844 <system@plt>
    bbf4:	e92d4010 	push	{r4, lr}
    bbf8:	e59f0018 	ldr	r0, [pc, #24]	; bc18 <_start+0x1e94>
    bbfc:	ebfff797 	bl	9a60 <nvram_get@plt>
    bc00:	e3063524 	movw	r3, #25892	; 0x6524
    bc04:	e3500000 	cmp	r0, #0
    bc08:	e3403002 	movt	r3, #2
    bc0c:	01a00003 	moveq	r0, r3
    bc10:	e8bd4010 	pop	{r4, lr}
    bc14:	eafff833 	b	9ce8 <atoi@plt>
    bc18:	0002626c 	andeq	r6, r2, ip, ror #4
    bc1c:	e92d4010 	push	{r4, lr}
    bc20:	e3061544 	movw	r1, #25924	; 0x6544
    bc24:	e24dd020 	sub	sp, sp, #32
    bc28:	e1a02000 	mov	r2, r0
    bc2c:	e3401002 	movt	r1, #2
    bc30:	e1a0000d 	mov	r0, sp
[31m    bc34:	ebfff810 	bl	9c7c <sprintf@plt>[0m
    bc38:	e306026c 	movw	r0, #25196	; 0x626c
    bc3c:	e1a0100d 	mov	r1, sp
--
    bd24:	ebfff80d 	bl	9d60 <nvram_set@plt>
    bd28:	eafffff6 	b	bd08 <_start+0x1f84>
    bd2c:	e59f1024 	ldr	r1, [pc, #36]	; bd58 <_start+0x1fd4>
    bd30:	e59f0018 	ldr	r0, [pc, #24]	; bd50 <_start+0x1fcc>
    bd34:	ebfff809 	bl	9d60 <nvram_set@plt>
    bd38:	eaffffea 	b	bce8 <_start+0x1f64>
    bd3c:	e59f1014 	ldr	r1, [pc, #20]	; bd58 <_start+0x1fd4>
    bd40:	e59f0004 	ldr	r0, [pc, #4]	; bd4c <_start+0x1fc8>
    bd44:	ebfff805 	bl	9d60 <nvram_set@plt>
    bd48:	eaffffe1 	b	bcd4 <_start+0x1f50>
    bd4c:	00026558 	andeq	r6, r2, r8, asr r5
    bd50:	00026568 	andeq	r6, r2, r8, ror #10
    bd54:	0002657c 	andeq	r6, r2, ip, ror r5
    bd58:	00026524 	andeq	r6, r2, r4, lsr #10
    bd5c:	e92d4010 	push	{r4, lr}
    bd60:	e3061544 	movw	r1, #25924	; 0x6544
    bd64:	e24dd020 	sub	sp, sp, #32
    bd68:	e1a02000 	mov	r2, r0
    bd6c:	e3401002 	movt	r1, #2
    bd70:	e1a0000d 	mov	r0, sp
[31m    bd74:	ebfff7c0 	bl	9c7c <sprintf@plt>[0m
    bd78:	e3060590 	movw	r0, #26000	; 0x6590
    bd7c:	e1a0100d 	mov	r1, sp
--
    c3c4:	e0850000 	add	r0, r5, r0
    c3c8:	e3a02007 	mov	r2, #7
    c3cc:	ebfff525 	bl	9868 <memcpy@plt>
    c3d0:	e1a00005 	mov	r0, r5
    c3d4:	e59f13b4 	ldr	r1, [pc, #948]	; c790 <_start+0x2a0c>
    c3d8:	ebfffe6d 	bl	bd94 <_start+0x2010>
    c3dc:	eaffff4f 	b	c120 <_start+0x239c>
    c3e0:	e59d301c 	ldr	r3, [sp, #28]
    c3e4:	e287c03d 	add	ip, r7, #61	; 0x3d
    c3e8:	e58dc004 	str	ip, [sp, #4]
    c3ec:	e3a0a000 	mov	sl, #0
    c3f0:	e59dc01c 	ldr	ip, [sp, #28]
    c3f4:	e28d0e15 	add	r0, sp, #336	; 0x150
    c3f8:	e483a004 	str	sl, [r3], #4
    c3fc:	e2833004 	add	r3, r3, #4
    c400:	e583a000 	str	sl, [r3]
    c404:	e58ca004 	str	sl, [ip, #4]
    c408:	e1d728b8 	ldrh	r2, [r7, #136]	; 0x88
    c40c:	e59f1380 	ldr	r1, [pc, #896]	; c794 <_start+0x2a10>
    c410:	e58da150 	str	sl, [sp, #336]	; 0x150
[31m    c414:	ebfff618 	bl	9c7c <sprintf@plt>[0m
    c418:	e1a01004 	mov	r1, r4
    c41c:	e1a00005 	mov	r0, r5
    c420:	ebfff651 	bl	9d6c <strcpy@plt>
    c424:	e1a00005 	mov	r0, r5
    c428:	ebfff568 	bl	99d0 <strlen@plt>
    c42c:	e3a02004 	mov	r2, #4
    c430:	e59f1360 	ldr	r1, [pc, #864]	; c798 <_start+0x2a14>
    c434:	e0850000 	add	r0, r5, r0
    c438:	ebfff50a 	bl	9868 <memcpy@plt>
    c43c:	e28d1e15 	add	r1, sp, #336	; 0x150
    c440:	e1a00005 	mov	r0, r5
    c444:	ebfffe52 	bl	bd94 <_start+0x2010>
    c448:	e1d728b8 	ldrh	r2, [r7, #136]	; 0x88
    c44c:	e28d0e15 	add	r0, sp, #336	; 0x150
    c450:	e59f1344 	ldr	r1, [pc, #836]	; c79c <_start+0x2a18>
[31m    c454:	ebfff608 	bl	9c7c <sprintf@plt>[0m
    c458:	e1a01004 	mov	r1, r4
    c45c:	e1a00005 	mov	r0, r5
--
    c5d4:	e58d7004 	str	r7, [sp, #4]
    c5d8:	e1a07005 	mov	r7, r5
    c5dc:	e1a0500c 	mov	r5, ip
    c5e0:	e1a0000b 	mov	r0, fp
    c5e4:	e7d6300a 	ldrb	r3, [r6, sl]
    c5e8:	e3a01003 	mov	r1, #3
    c5ec:	e59f21b0 	ldr	r2, [pc, #432]	; c7a4 <_start+0x2a20>
    c5f0:	e28aa001 	add	sl, sl, #1
    c5f4:	ebfff4fe 	bl	99f4 <snprintf@plt>
    c5f8:	e155000a 	cmp	r5, sl
    c5fc:	e08bb000 	add	fp, fp, r0
    c600:	cafffff6 	bgt	c5e0 <_start+0x285c>
    c604:	e1a05007 	mov	r5, r7
    c608:	e59d6024 	ldr	r6, [sp, #36]	; 0x24
    c60c:	e59d7004 	ldr	r7, [sp, #4]
    c610:	eaffff07 	b	c234 <_start+0x24b0>
    c614:	e28da0a8 	add	sl, sp, #168	; 0xa8
    c618:	e59f1188 	ldr	r1, [pc, #392]	; c7a8 <_start+0x2a24>
    c61c:	e1a02008 	mov	r2, r8
    c620:	e1a0000a 	mov	r0, sl
[31m    c624:	ebfff594 	bl	9c7c <sprintf@plt>[0m
    c628:	e1a0000a 	mov	r0, sl
    c62c:	eb0009d6 	bl	ed8c <_start+0x5008>
--
    c67c:	ebfff4f7 	bl	9a60 <nvram_get@plt>
    c680:	e3500000 	cmp	r0, #0
    c684:	0a000012 	beq	c6d4 <_start+0x2950>
    c688:	e59f10ac 	ldr	r1, [pc, #172]	; c73c <_start+0x29b8>
    c68c:	ebfff58c 	bl	9cc4 <strcmp@plt>
    c690:	e3500000 	cmp	r0, #0
    c694:	0a00000e 	beq	c6d4 <_start+0x2950>
    c698:	e3560004 	cmp	r6, #4
    c69c:	0a000014 	beq	c6f4 <_start+0x2970>
    c6a0:	e3560003 	cmp	r6, #3
    c6a4:	1afffddd 	bne	be20 <_start+0x209c>
    c6a8:	e1a00004 	mov	r0, r4
    c6ac:	e59f10d8 	ldr	r1, [pc, #216]	; c78c <_start+0x2a08>
    c6b0:	e1a0200a 	mov	r2, sl
    c6b4:	ebfffcdd 	bl	ba30 <_start+0x1cac>
    c6b8:	e59f10bc 	ldr	r1, [pc, #188]	; c77c <_start+0x29f8>
    c6bc:	ebfffdb4 	bl	bd94 <_start+0x2010>
    c6c0:	eafffdd6 	b	be20 <_start+0x209c>
    c6c4:	e1a00004 	mov	r0, r4
    c6c8:	e59f10e0 	ldr	r1, [pc, #224]	; c7b0 <_start+0x2a2c>
[31m    c6cc:	ebfff56a 	bl	9c7c <sprintf@plt>[0m
    c6d0:	eaffffdf 	b	c654 <_start+0x28d0>
    c6d4:	e59f10d8 	ldr	r1, [pc, #216]	; c7b4 <_start+0x2a30>
    c6d8:	e1a02008 	mov	r2, r8
    c6dc:	e1a0000a 	mov	r0, sl
[31m    c6e0:	ebfff565 	bl	9c7c <sprintf@plt>[0m
    c6e4:	e1a0000a 	mov	r0, sl
    c6e8:	eb0009c8 	bl	ee10 <_start+0x508c>
--
    cb60:	e5dd1382 	ldrb	r1, [sp, #898]	; 0x382
    cb64:	e58dc01c 	str	ip, [sp, #28]
    cb68:	e5ddc383 	ldrb	ip, [sp, #899]	; 0x383
    cb6c:	e58d1020 	str	r1, [sp, #32]
    cb70:	e5dd1384 	ldrb	r1, [sp, #900]	; 0x384
    cb74:	e58dc024 	str	ip, [sp, #36]	; 0x24
    cb78:	e5ddc385 	ldrb	ip, [sp, #901]	; 0x385
    cb7c:	e58d1028 	str	r1, [sp, #40]	; 0x28
    cb80:	e5dd1386 	ldrb	r1, [sp, #902]	; 0x386
    cb84:	e5dd737b 	ldrb	r7, [sp, #891]	; 0x37b
    cb88:	e5dd837c 	ldrb	r8, [sp, #892]	; 0x37c
    cb8c:	e58dc02c 	str	ip, [sp, #44]	; 0x2c
    cb90:	e5ddc387 	ldrb	ip, [sp, #903]	; 0x387
    cb94:	e5dd2378 	ldrb	r2, [sp, #888]	; 0x378
    cb98:	e5dd3379 	ldrb	r3, [sp, #889]	; 0x379
    cb9c:	e58d1030 	str	r1, [sp, #48]	; 0x30
    cba0:	e59f1c80 	ldr	r1, [pc, #3200]	; d828 <_start+0x3aa4>
    cba4:	e58de000 	str	lr, [sp]
    cba8:	e98d0180 	stmib	sp, {r7, r8}
    cbac:	e58dc034 	str	ip, [sp, #52]	; 0x34
[31m    cbb0:	ebfff431 	bl	9c7c <sprintf@plt>[0m
    cbb4:	e1a0000a 	mov	r0, sl
    cbb8:	e59f2c6c 	ldr	r2, [pc, #3180]	; d82c <_start+0x3aa8>
--
    cbfc:	e3590000 	cmp	r9, #0
    cc00:	1a0002d1 	bne	d74c <_start+0x39c8>
    cc04:	e59f3c24 	ldr	r3, [pc, #3108]	; d830 <_start+0x3aac>
    cc08:	e28d6e41 	add	r6, sp, #1040	; 0x410
    cc0c:	e2866008 	add	r6, r6, #8
    cc10:	e1a07006 	mov	r7, r6
    cc14:	e8930007 	ldm	r3, {r0, r1, r2}
    cc18:	e8a70003 	stmia	r7!, {r0, r1}
    cc1c:	e1a03822 	lsr	r3, r2, #16
    cc20:	e1c720b0 	strh	r2, [r7]
    cc24:	e5cd3422 	strb	r3, [sp, #1058]	; 0x422
    cc28:	e1a00006 	mov	r0, r6
    cc2c:	ebfff38b 	bl	9a60 <nvram_get@plt>
    cc30:	e3500000 	cmp	r0, #0
    cc34:	e58d0048 	str	r0, [sp, #72]	; 0x48
    cc38:	0a0000ed 	beq	cff4 <_start+0x3270>
    cc3c:	e28d7ff6 	add	r7, sp, #984	; 0x3d8
    cc40:	e59f1bec 	ldr	r1, [pc, #3052]	; d834 <_start+0x3ab0>
    cc44:	e1a0200a 	mov	r2, sl
    cc48:	e1a00007 	mov	r0, r7
[31m    cc4c:	ebfff40a 	bl	9c7c <sprintf@plt>[0m
    cc50:	e3a01000 	mov	r1, #0
    cc54:	e3a02c01 	mov	r2, #256	; 0x100
--
    cf40:	e28d1ffa 	add	r1, sp, #1000	; 0x3e8
    cf44:	e59f2924 	ldr	r2, [pc, #2340]	; d870 <_start+0x3aec>
    cf48:	e3a03000 	mov	r3, #0
    cf4c:	e1a00008 	mov	r0, r8
    cf50:	ebfffae0 	bl	bad8 <_start+0x1d54>
    cf54:	e28d1ffa 	add	r1, sp, #1000	; 0x3e8
    cf58:	e59f2914 	ldr	r2, [pc, #2324]	; d874 <_start+0x3af0>
    cf5c:	e3a03000 	mov	r3, #0
    cf60:	e1a00008 	mov	r0, r8
    cf64:	ebfffadb 	bl	bad8 <_start+0x1d54>
    cf68:	e59f2908 	ldr	r2, [pc, #2312]	; d878 <_start+0x3af4>
    cf6c:	e1a00008 	mov	r0, r8
    cf70:	e28d1ffa 	add	r1, sp, #1000	; 0x3e8
    cf74:	e3a03000 	mov	r3, #0
    cf78:	ebfffad6 	bl	bad8 <_start+0x1d54>
    cf7c:	e2502000 	subs	r2, r0, #0
    cf80:	0a000009 	beq	cfac <_start+0x3228>
    cf84:	e28d0d11 	add	r0, sp, #1088	; 0x440
    cf88:	e59f18ec 	ldr	r1, [pc, #2284]	; d87c <_start+0x3af8>
    cf8c:	e2800004 	add	r0, r0, #4
[31m    cf90:	ebfff339 	bl	9c7c <sprintf@plt>[0m
    cf94:	e28d2d11 	add	r2, sp, #1088	; 0x440
    cf98:	e1a00008 	mov	r0, r8
--
    d30c:	ebfff9f1 	bl	bad8 <_start+0x1d54>
    d310:	e28d1ffa 	add	r1, sp, #1000	; 0x3e8
    d314:	e59f2554 	ldr	r2, [pc, #1364]	; d870 <_start+0x3aec>
    d318:	e1a03006 	mov	r3, r6
    d31c:	e1a00005 	mov	r0, r5
    d320:	ebfff9ec 	bl	bad8 <_start+0x1d54>
    d324:	e28d1ffa 	add	r1, sp, #1000	; 0x3e8
    d328:	e59f2544 	ldr	r2, [pc, #1348]	; d874 <_start+0x3af0>
    d32c:	e1a03006 	mov	r3, r6
    d330:	e1a00005 	mov	r0, r5
    d334:	ebfff9e7 	bl	bad8 <_start+0x1d54>
    d338:	e59f2538 	ldr	r2, [pc, #1336]	; d878 <_start+0x3af4>
    d33c:	e1a00005 	mov	r0, r5
    d340:	e28d1ffa 	add	r1, sp, #1000	; 0x3e8
    d344:	e1a03006 	mov	r3, r6
    d348:	ebfff9e2 	bl	bad8 <_start+0x1d54>
    d34c:	e2502000 	subs	r2, r0, #0
    d350:	0a000007 	beq	d374 <_start+0x35f0>
    d354:	e59f1520 	ldr	r1, [pc, #1312]	; d87c <_start+0x3af8>
    d358:	e1a00009 	mov	r0, r9
[31m    d35c:	ebfff246 	bl	9c7c <sprintf@plt>[0m
    d360:	e1a00005 	mov	r0, r5
    d364:	e28d1ffa 	add	r1, sp, #1000	; 0x3e8
    d368:	e1a02009 	mov	r2, r9
    d36c:	e1a03006 	mov	r3, r6
    d370:	ebfff9d8 	bl	bad8 <_start+0x1d54>
    d374:	e5dd33a8 	ldrb	r3, [sp, #936]	; 0x3a8
    d378:	e3530000 	cmp	r3, #0
    d37c:	1a000198 	bne	d9e4 <_start+0x3c60>
    d380:	e28d0fea 	add	r0, sp, #936	; 0x3a8
    d384:	e1a01005 	mov	r1, r5
    d388:	ebfff277 	bl	9d6c <strcpy@plt>
    d38c:	e59d2048 	ldr	r2, [sp, #72]	; 0x48
    d390:	e1a00007 	mov	r0, r7
    d394:	e59f1498 	ldr	r1, [pc, #1176]	; d834 <_start+0x3ab0>
[31m    d398:	ebfff237 	bl	9c7c <sprintf@plt>[0m
    d39c:	e1a03005 	mov	r3, r5
    d3a0:	e1a00007 	mov	r0, r7
    d3a4:	e3a01000 	mov	r1, #0
    d3a8:	e59f24dc 	ldr	r2, [pc, #1244]	; d88c <_start+0x3b08>
    d3ac:	ebfff9c9 	bl	bad8 <_start+0x1d54>
    d3b0:	e59d2048 	ldr	r2, [sp, #72]	; 0x48
    d3b4:	e1a0000b 	mov	r0, fp
    d3b8:	e59f1510 	ldr	r1, [pc, #1296]	; d8d0 <_start+0x3b4c>
    d3bc:	e2823001 	add	r3, r2, #1
    d3c0:	e58d3048 	str	r3, [sp, #72]	; 0x48
[31m    d3c4:	ebfff22c 	bl	9c7c <sprintf@plt>[0m
    d3c8:	e1a0300b 	mov	r3, fp
    d3cc:	e1a00007 	mov	r0, r7
--
    d3f8:	e3530000 	cmp	r3, #0
    d3fc:	0a000043 	beq	d510 <_start+0x378c>
    d400:	e59f2484 	ldr	r2, [pc, #1156]	; d88c <_start+0x3b08>
    d404:	e28d3f56 	add	r3, sp, #344	; 0x158
    d408:	e1a01006 	mov	r1, r6
    d40c:	e1a00007 	mov	r0, r7
    d410:	ebfff9b0 	bl	bad8 <_start+0x1d54>
    d414:	e28d1ff2 	add	r1, sp, #968	; 0x3c8
    d418:	e59f2478 	ldr	r2, [pc, #1144]	; d898 <_start+0x3b14>
    d41c:	e1a03006 	mov	r3, r6
    d420:	e1a00007 	mov	r0, r7
    d424:	ebfff9ab 	bl	bad8 <_start+0x1d54>
    d428:	e1a03006 	mov	r3, r6
    d42c:	e28d1ff2 	add	r1, sp, #968	; 0x3c8
    d430:	e59f245c 	ldr	r2, [pc, #1116]	; d894 <_start+0x3b10>
    d434:	e1a00007 	mov	r0, r7
    d438:	ebfff9a6 	bl	bad8 <_start+0x1d54>
    d43c:	e1a0200a 	mov	r2, sl
    d440:	e59f1488 	ldr	r1, [pc, #1160]	; d8d0 <_start+0x3b4c>
    d444:	e1a0000b 	mov	r0, fp
[31m    d448:	ebfff20b 	bl	9c7c <sprintf@plt>[0m
    d44c:	e1a00007 	mov	r0, r7
    d450:	e1a01006 	mov	r1, r6
    d454:	e59f2434 	ldr	r2, [pc, #1076]	; d890 <_start+0x3b0c>
    d458:	e1a0300b 	mov	r3, fp
    d45c:	ebfff99d 	bl	bad8 <_start+0x1d54>
    d460:	e59de04c 	ldr	lr, [sp, #76]	; 0x4c
    d464:	e35e0000 	cmp	lr, #0
    d468:	0a000012 	beq	d4b8 <_start+0x3734>
    d46c:	e35e0001 	cmp	lr, #1
    d470:	03a02002 	moveq	r2, #2
    d474:	058d244c 	streq	r2, [sp, #1100]	; 0x44c
    d478:	0a000006 	beq	d498 <_start+0x3714>
    d47c:	e35e0003 	cmp	lr, #3
    d480:	01a0100e 	moveq	r1, lr
    d484:	13a03001 	movne	r3, #1
    d488:	01a02001 	moveq	r2, r1
    d48c:	11a02003 	movne	r2, r3
    d490:	058d144c 	streq	r1, [sp, #1100]	; 0x44c
    d494:	158d344c 	strne	r3, [sp, #1100]	; 0x44c
    d498:	e59f1430 	ldr	r1, [pc, #1072]	; d8d0 <_start+0x3b4c>
    d49c:	e1a0000b 	mov	r0, fp
[31m    d4a0:	ebfff1f5 	bl	9c7c <sprintf@plt>[0m
    d4a4:	e1a00007 	mov	r0, r7
    d4a8:	e3a01000 	mov	r1, #0
    d4ac:	e59f2420 	ldr	r2, [pc, #1056]	; d8d4 <_start+0x3b50>
    d4b0:	e1a0300b 	mov	r3, fp
    d4b4:	ebfff987 	bl	bad8 <_start+0x1d54>
    d4b8:	e59d2050 	ldr	r2, [sp, #80]	; 0x50
    d4bc:	e3720001 	cmn	r2, #1
    d4c0:	0a00000c 	beq	d4f8 <_start+0x3774>
    d4c4:	e59f1404 	ldr	r1, [pc, #1028]	; d8d0 <_start+0x3b4c>
    d4c8:	e1a0000b 	mov	r0, fp
[31m    d4cc:	ebfff1ea 	bl	9c7c <sprintf@plt>[0m
    d4d0:	e3a01000 	mov	r1, #0
    d4d4:	e59f23c0 	ldr	r2, [pc, #960]	; d89c <_start+0x3b18>
--
    d5bc:	e3a01020 	mov	r1, #32
    d5c0:	e28ee008 	add	lr, lr, #8
    d5c4:	e08e3000 	add	r3, lr, r0
    d5c8:	e1a00006 	mov	r0, r6
    d5cc:	e5435050 	strb	r5, [r3, #-80]	; 0xffffffb0
    d5d0:	e5cd5417 	strb	r5, [sp, #1047]	; 0x417
    d5d4:	ebfff1c6 	bl	9cf4 <strchr@plt>
    d5d8:	e5dd3408 	ldrb	r3, [sp, #1032]	; 0x408
    d5dc:	e58d0450 	str	r0, [sp, #1104]	; 0x450
    d5e0:	e3530000 	cmp	r3, #0
    d5e4:	0afffe82 	beq	cff4 <_start+0x3270>
    d5e8:	e1a01008 	mov	r1, r8
    d5ec:	e3a02010 	mov	r2, #16
    d5f0:	e1a00004 	mov	r0, r4
    d5f4:	ebfff16d 	bl	9bb0 <osifname_to_nvifname@plt>
    d5f8:	e2506000 	subs	r6, r0, #0
    d5fc:	1affffde 	bne	d57c <_start+0x37f8>
    d600:	e1a0200a 	mov	r2, sl
    d604:	e1a00007 	mov	r0, r7
    d608:	e59f1224 	ldr	r1, [pc, #548]	; d834 <_start+0x3ab0>
[31m    d60c:	ebfff19a 	bl	9c7c <sprintf@plt>[0m
    d610:	e1a01006 	mov	r1, r6
    d614:	e1a03004 	mov	r3, r4
    d618:	e1a00007 	mov	r0, r7
    d61c:	e59f2268 	ldr	r2, [pc, #616]	; d88c <_start+0x3b08>
    d620:	ebfff92c 	bl	bad8 <_start+0x1d54>
    d624:	e1a03006 	mov	r3, r6
    d628:	e1a01008 	mov	r1, r8
    d62c:	e1a00007 	mov	r0, r7
    d630:	e59f225c 	ldr	r2, [pc, #604]	; d894 <_start+0x3b10>
    d634:	ebfff927 	bl	bad8 <_start+0x1d54>
    d638:	e1a0200a 	mov	r2, sl
    d63c:	e1a0000b 	mov	r0, fp
    d640:	e59f1288 	ldr	r1, [pc, #648]	; d8d0 <_start+0x3b4c>
    d644:	e28aa001 	add	sl, sl, #1
[31m    d648:	ebfff18b 	bl	9c7c <sprintf@plt>[0m
    d64c:	e1a01006 	mov	r1, r6
    d650:	e1a0300b 	mov	r3, fp
    d654:	e1a00007 	mov	r0, r7
    d658:	e59f2230 	ldr	r2, [pc, #560]	; d890 <_start+0x3b0c>
    d65c:	ebfff91d 	bl	bad8 <_start+0x1d54>
    d660:	e1a00007 	mov	r0, r7
    d664:	e28d1ff2 	add	r1, sp, #968	; 0x3c8
    d668:	e1a03006 	mov	r3, r6
    d66c:	e59f2230 	ldr	r2, [pc, #560]	; d8a4 <_start+0x3b20>
    d670:	ebfff918 	bl	bad8 <_start+0x1d54>
    d674:	eaffffc0 	b	d57c <_start+0x37f8>
    d678:	e1a02009 	mov	r2, r9
    d67c:	e59f1224 	ldr	r1, [pc, #548]	; d8a8 <_start+0x3b24>
    d680:	e1a00004 	mov	r0, r4
[31m    d684:	ebfff17c 	bl	9c7c <sprintf@plt>[0m
    d688:	e28d0ff2 	add	r0, sp, #968	; 0x3c8
    d68c:	e59f1218 	ldr	r1, [pc, #536]	; d8ac <_start+0x3b28>
    d690:	e1a02009 	mov	r2, r9
[31m    d694:	ebfff178 	bl	9c7c <sprintf@plt>[0m
    d698:	eafffd53 	b	cbec <_start+0x2e68>
    d69c:	e1a0600a 	mov	r6, sl
    d6a0:	e2866001 	add	r6, r6, #1
    d6a4:	e3560c01 	cmp	r6, #256	; 0x100
    d6a8:	1afffe60 	bne	d030 <_start+0x32ac>
    d6ac:	e59da048 	ldr	sl, [sp, #72]	; 0x48
    d6b0:	e59f1218 	ldr	r1, [pc, #536]	; d8d0 <_start+0x3b4c>
    d6b4:	e1a0200a 	mov	r2, sl
    d6b8:	e1a0000b 	mov	r0, fp
    d6bc:	e59f41ec 	ldr	r4, [pc, #492]	; d8b0 <_start+0x3b2c>
[31m    d6c0:	ebfff16d 	bl	9c7c <sprintf@plt>[0m
    d6c4:	e3a00000 	mov	r0, #0
    d6c8:	e59f21e4 	ldr	r2, [pc, #484]	; d8b4 <_start+0x3b30>
--
    d710:	e1a02006 	mov	r2, r6
    d714:	e59f11a0 	ldr	r1, [pc, #416]	; d8bc <_start+0x3b38>
    d718:	ebfff037 	bl	97fc <strtok_r@plt>
    d71c:	e5943000 	ldr	r3, [r4]
    d720:	e3a00000 	mov	r0, #0
    d724:	e2832001 	add	r2, r3, #1
    d728:	e0843103 	add	r3, r4, r3, lsl #2
    d72c:	e5842000 	str	r2, [r4]
    d730:	e5835004 	str	r5, [r3, #4]
    d734:	e59d5450 	ldr	r5, [sp, #1104]	; 0x450
    d738:	e1550000 	cmp	r5, r0
    d73c:	1afffff0 	bne	d704 <_start+0x3980>
    d740:	e28dd05c 	add	sp, sp, #92	; 0x5c
    d744:	e28ddb01 	add	sp, sp, #1024	; 0x400
    d748:	e8bd8ff0 	pop	{r4, r5, r6, r7, r8, r9, sl, fp, pc}
    d74c:	e28d6e41 	add	r6, sp, #1040	; 0x410
    d750:	e59f1168 	ldr	r1, [pc, #360]	; d8c0 <_start+0x3b3c>
    d754:	e2866008 	add	r6, r6, #8
    d758:	e1a02009 	mov	r2, r9
    d75c:	e1a00006 	mov	r0, r6
[31m    d760:	ebfff145 	bl	9c7c <sprintf@plt>[0m
    d764:	eafffd2f 	b	cc28 <_start+0x2ea4>
    d768:	e1a00004 	mov	r0, r4
    d76c:	e59f1150 	ldr	r1, [pc, #336]	; d8c4 <_start+0x3b40>
    d770:	e1a02006 	mov	r2, r6
[31m    d774:	ebfff140 	bl	9c7c <sprintf@plt>[0m
    d778:	eafffe31 	b	d044 <_start+0x32c0>
    d77c:	e3a01064 	mov	r1, #100	; 0x64
--
    d8cc:	000268f4 	strdeq	r6, [r2], -r4
    d8d0:	00026544 	andeq	r6, r2, r4, asr #10
    d8d4:	0002691c 	andeq	r6, r2, ip, lsl r9
    d8d8:	00026924 	andeq	r6, r2, r4, lsr #18
    d8dc:	00026930 	andeq	r6, r2, r0, lsr r9
    d8e0:	00026820 	andeq	r6, r2, r0, lsr #16
    d8e4:	0002680c 	andeq	r6, r2, ip, lsl #16
    d8e8:	00026d24 	andeq	r6, r2, r4, lsr #26
    d8ec:	e28d2d11 	add	r2, sp, #1088	; 0x440
    d8f0:	e3a03004 	mov	r3, #4
    d8f4:	e1a00008 	mov	r0, r8
    d8f8:	e3a0108d 	mov	r1, #141	; 0x8d
    d8fc:	e282200c 	add	r2, r2, #12
    d900:	ebfff017 	bl	9964 <wl_ioctl@plt>
    d904:	e59d344c 	ldr	r3, [sp, #1100]	; 0x44c
    d908:	e3530000 	cmp	r3, #0
    d90c:	0a000048 	beq	da34 <_start+0x3cb0>
    d910:	e59d244c 	ldr	r2, [sp, #1100]	; 0x44c
    d914:	e1a0000b 	mov	r0, fp
    d918:	e51f1050 	ldr	r1, [pc, #-80]	; d8d0 <_start+0x3b4c>
[31m    d91c:	ebfff0d6 	bl	9c7c <sprintf@plt>[0m
    d920:	e1a0300b 	mov	r3, fp
    d924:	e1a00008 	mov	r0, r8
--
    db5c:	e3a01000 	mov	r1, #0
    db60:	ebffef6a 	bl	9910 <strtoul@plt>
    db64:	e3540000 	cmp	r4, #0
    db68:	e6ff0070 	uxth	r0, r0
    db6c:	030929ff 	movweq	r2, #39423	; 0x99ff
    db70:	00002002 	andeq	r2, r0, r2
    db74:	0a000007 	beq	db98 <_start+0x3e14>
    db78:	e3100080 	tst	r0, #128	; 0x80
    db7c:	e1a03000 	mov	r3, r0
    db80:	13802d0a 	orrne	r2, r0, #640	; 0x280
    db84:	01a02000 	moveq	r2, r0
    db88:	11a03002 	movne	r3, r2
    db8c:	e3130008 	tst	r3, #8
    db90:	13822a02 	orrne	r2, r2, #8192	; 0x2000
    db94:	13822008 	orrne	r2, r2, #8
    db98:	e1500002 	cmp	r0, r2
    db9c:	0a000021 	beq	dc28 <_start+0x3ea4>
    dba0:	e28d4004 	add	r4, sp, #4
    dba4:	e59f1180 	ldr	r1, [pc, #384]	; dd2c <_start+0x3fa8>
    dba8:	e1a00004 	mov	r0, r4
[31m    dbac:	ebfff032 	bl	9c7c <sprintf@plt>[0m
    dbb0:	e1a01004 	mov	r1, r4
    dbb4:	e59f016c 	ldr	r0, [pc, #364]	; dd28 <_start+0x3fa4>
--
    dc30:	ebfffaf5 	bl	c80c <_start+0x2a88>
    dc34:	e59f10f4 	ldr	r1, [pc, #244]	; dd30 <_start+0x3fac>
    dc38:	e4910004 	ldr	r0, [r1], #4
    dc3c:	eb000503 	bl	f050 <_start+0x52cc>
    dc40:	e3100002 	tst	r0, #2
    dc44:	e1a04000 	mov	r4, r0
    dc48:	0affffe3 	beq	dbdc <_start+0x3e58>
    dc4c:	e59f00e0 	ldr	r0, [pc, #224]	; dd34 <_start+0x3fb0>
    dc50:	e59f10e0 	ldr	r1, [pc, #224]	; dd38 <_start+0x3fb4>
    dc54:	ebfff041 	bl	9d60 <nvram_set@plt>
    dc58:	e3140004 	tst	r4, #4
    dc5c:	0affffe0 	beq	dbe4 <_start+0x3e60>
    dc60:	ebfff7dc 	bl	bbd8 <_start+0x1e54>
    dc64:	eaffffde 	b	dbe4 <_start+0x3e60>
    dc68:	e28d5004 	add	r5, sp, #4
    dc6c:	e3540000 	cmp	r4, #0
    dc70:	e3022688 	movw	r2, #9864	; 0x2688
    dc74:	e1a00005 	mov	r0, r5
    dc78:	e59f10ac 	ldr	r1, [pc, #172]	; dd2c <_start+0x3fa8>
    dc7c:	03a02084 	moveq	r2, #132	; 0x84
[31m    dc80:	ebffeffd 	bl	9c7c <sprintf@plt>[0m
    dc84:	e1a01005 	mov	r1, r5
    dc88:	e59f0098 	ldr	r0, [pc, #152]	; dd28 <_start+0x3fa4>
--
    e43c:	e0865005 	add	r5, r6, r5
    e440:	ebffedce 	bl	9b80 <strncpy@plt>
    e444:	e5454001 	strb	r4, [r5, #-1]
    e448:	e8bd8070 	pop	{r4, r5, r6, pc}
    e44c:	e3510008 	cmp	r1, #8
    e450:	e92d4ff0 	push	{r4, r5, r6, r7, r8, r9, sl, fp, lr}
    e454:	e24dd04c 	sub	sp, sp, #76	; 0x4c
    e458:	e1a04001 	mov	r4, r1
    e45c:	e58d0010 	str	r0, [sp, #16]
    e460:	d3010006 	movwle	r0, #4102	; 0x1006
    e464:	da000078 	ble	e64c <_start+0x48c8>
    e468:	e28d5020 	add	r5, sp, #32
    e46c:	e28d0040 	add	r0, sp, #64	; 0x40
    e470:	e3a01008 	mov	r1, #8
    e474:	e3a06000 	mov	r6, #0
    e478:	ebffed8a 	bl	9aa8 <RAND_bytes@plt>
    e47c:	e59f11d0 	ldr	r1, [pc, #464]	; e654 <_start+0x48d0>
    e480:	e1a00005 	mov	r0, r5
    e484:	e59d2040 	ldr	r2, [sp, #64]	; 0x40
    e488:	e30c9a6b 	movw	r9, #51819	; 0xca6b
[31m    e48c:	ebffedfa 	bl	9c7c <sprintf@plt>[0m
    e490:	e1a01006 	mov	r1, r6
    e494:	e3a0200a 	mov	r2, #10
--
    e5e0:	e080000b 	add	r0, r0, fp
    e5e4:	e0809008 	add	r9, r0, r8
    e5e8:	e08c700e 	add	r7, ip, lr
    e5ec:	e306e667 	movw	lr, #26215	; 0x6667
    e5f0:	e087a00a 	add	sl, r7, sl
    e5f4:	e346e666 	movt	lr, #26214	; 0x6666
    e5f8:	e08aa08a 	add	sl, sl, sl, lsl #1
    e5fc:	e089900a 	add	r9, r9, sl
    e600:	e0820992 	umull	r0, r2, r2, r9
    e604:	e1a021a2 	lsr	r2, r2, #3
    e608:	e1a00005 	mov	r0, r5
    e60c:	e0822102 	add	r2, r2, r2, lsl #2
    e610:	e049c082 	sub	ip, r9, r2, lsl #1
    e614:	e26cc00a 	rsb	ip, ip, #10
    e618:	e0c27c9e 	smull	r7, r2, lr, ip
    e61c:	e1a07fcc 	asr	r7, ip, #31
    e620:	e0672142 	rsb	r2, r7, r2, asr #2
    e624:	e0822102 	add	r2, r2, r2, lsl #2
    e628:	e04c2082 	sub	r2, ip, r2, lsl #1
    e62c:	e0822003 	add	r2, r2, r3
[31m    e630:	ebffed91 	bl	9c7c <sprintf@plt>[0m
    e634:	e59d0010 	ldr	r0, [sp, #16]
    e638:	e1a01005 	mov	r1, r5
--
    edfc:	e3a00000 	mov	r0, #0
    ee00:	e8bd85f8 	pop	{r3, r4, r5, r6, r7, r8, sl, pc}
    ee04:	e3a00000 	mov	r0, #0
    ee08:	e8bd85f8 	pop	{r3, r4, r5, r6, r7, r8, sl, pc}
    ee0c:	0002a958 	andeq	sl, r2, r8, asr r9
    ee10:	e92d4008 	push	{r3, lr}
    ee14:	ebffffdc 	bl	ed8c <_start+0x5008>
    ee18:	e3063524 	movw	r3, #25892	; 0x6524
    ee1c:	e3500000 	cmp	r0, #0
    ee20:	e3403002 	movt	r3, #2
    ee24:	01a00003 	moveq	r0, r3
    ee28:	e8bd8008 	pop	{r3, pc}
    ee2c:	e2502000 	subs	r2, r0, #0
    ee30:	e92d4010 	push	{r4, lr}
    ee34:	01a00002 	moveq	r0, r2
    ee38:	e24dd068 	sub	sp, sp, #104	; 0x68
    ee3c:	0a000009 	beq	ee68 <_start+0x50e4>
    ee40:	e28d4004 	add	r4, sp, #4
    ee44:	e59f1024 	ldr	r1, [pc, #36]	; ee70 <_start+0x50ec>
    ee48:	e1a00004 	mov	r0, r4
[31m    ee4c:	ebffeb8a 	bl	9c7c <sprintf@plt>[0m
    ee50:	e1a00004 	mov	r0, r4
    ee54:	ebffffed 	bl	ee10 <_start+0x508c>
--
    eea0:	e59dc004 	ldr	ip, [sp, #4]
    eea4:	e893000f 	ldm	r3, {r0, r1, r2, r3}
    eea8:	e35c0000 	cmp	ip, #0
    eeac:	e1a0c008 	mov	ip, r8
    eeb0:	e8ac0007 	stmia	ip!, {r0, r1, r2}
    eeb4:	e1cc30b0 	strh	r3, [ip]
    eeb8:	da00005a 	ble	f028 <_start+0x52a4>
    eebc:	e3a09000 	mov	r9, #0
    eec0:	e28d4010 	add	r4, sp, #16
    eec4:	e28d6e11 	add	r6, sp, #272	; 0x110
    eec8:	e1a07009 	mov	r7, r9
    eecc:	e28dae13 	add	sl, sp, #304	; 0x130
    eed0:	ea000003 	b	eee4 <_start+0x5160>
    eed4:	e59d2004 	ldr	r2, [sp, #4]
    eed8:	e2899001 	add	r9, r9, #1
    eedc:	e1590002 	cmp	r9, r2
    eee0:	aa000050 	bge	f028 <_start+0x52a4>
    eee4:	e59f114c 	ldr	r1, [pc, #332]	; f038 <_start+0x52b4>
    eee8:	e1a02009 	mov	r2, r9
    eeec:	e1a00004 	mov	r0, r4
[31m    eef0:	ebffeb61 	bl	9c7c <sprintf@plt>[0m
    eef4:	e1a00004 	mov	r0, r4
    eef8:	ebffffc4 	bl	ee10 <_start+0x508c>
--
    f708:	e59f712c 	ldr	r7, [pc, #300]	; f83c <_start+0x5ab8>
    f70c:	e24dd078 	sub	sp, sp, #120	; 0x78
    f710:	e1a0a004 	mov	sl, r4
    f714:	e3e05000 	mvn	r5, #0
    f718:	ebffef3e 	bl	b418 <_start+0x1694>
    f71c:	e28d8004 	add	r8, sp, #4
    f720:	e1a09000 	mov	r9, r0
    f724:	ebfffd45 	bl	ec40 <_start+0x4ebc>
    f728:	e1a06000 	mov	r6, r0
    f72c:	e1540006 	cmp	r4, r6
    f730:	ba000005 	blt	f74c <_start+0x59c8>
    f734:	e3750001 	cmn	r5, #1
    f738:	e3a04000 	mov	r4, #0
    f73c:	1a00001d 	bne	f7b8 <_start+0x5a34>
    f740:	e1540006 	cmp	r4, r6
    f744:	e5875000 	str	r5, [r7]
    f748:	aafffff9 	bge	f734 <_start+0x59b0>
    f74c:	e1a02004 	mov	r2, r4
    f750:	e59f10e8 	ldr	r1, [pc, #232]	; f840 <_start+0x5abc>
    f754:	e1a00008 	mov	r0, r8
[31m    f758:	ebffe947 	bl	9c7c <sprintf@plt>[0m
    f75c:	e1a00008 	mov	r0, r8
    f760:	ebfffd89 	bl	ed8c <_start+0x5008>
--
    f778:	c3a03000 	movgt	r3, #0
    f77c:	d3a03001 	movle	r3, #1
    f780:	e1500002 	cmp	r0, r2
    f784:	d3a03000 	movle	r3, #0
    f788:	e3530000 	cmp	r3, #0
    f78c:	0a000007 	beq	f7b0 <_start+0x5a2c>
    f790:	e3750001 	cmn	r5, #1
    f794:	13a03000 	movne	r3, #0
    f798:	03a03001 	moveq	r3, #1
    f79c:	e1500005 	cmp	r0, r5
    f7a0:	b3833001 	orrlt	r3, r3, #1
    f7a4:	e3530000 	cmp	r3, #0
    f7a8:	11a0a004 	movne	sl, r4
    f7ac:	11a05000 	movne	r5, r0
    f7b0:	e2844001 	add	r4, r4, #1
    f7b4:	eaffffdc 	b	f72c <_start+0x59a8>
    f7b8:	e1a0200a 	mov	r2, sl
    f7bc:	e59f1080 	ldr	r1, [pc, #128]	; f844 <_start+0x5ac0>
    f7c0:	e1a00008 	mov	r0, r8
    f7c4:	e5875000 	str	r5, [r7]
[31m    f7c8:	ebffe92b 	bl	9c7c <sprintf@plt>[0m
    f7cc:	e1a00008 	mov	r0, r8
    f7d0:	e28d4068 	add	r4, sp, #104	; 0x68
--
    fb84:	0a00004f 	beq	fcc8 <_start+0x5f44>
    fb88:	e59f7144 	ldr	r7, [pc, #324]	; fcd4 <_start+0x5f50>
    fb8c:	e5973048 	ldr	r3, [r7, #72]	; 0x48
    fb90:	e3530000 	cmp	r3, #0
    fb94:	0a000049 	beq	fcc0 <_start+0x5f3c>
    fb98:	e5980000 	ldr	r0, [r8]
    fb9c:	eb000d14 	bl	12ff4 <_start+0x9270>
    fba0:	e3a03001 	mov	r3, #1
    fba4:	e1a0000d 	mov	r0, sp
    fba8:	e59f1124 	ldr	r1, [pc, #292]	; fcd4 <_start+0x5f50>
    fbac:	e5873048 	str	r3, [r7, #72]	; 0x48
    fbb0:	ebffe86d 	bl	9d6c <strcpy@plt>
    fbb4:	e59f111c 	ldr	r1, [pc, #284]	; fcd8 <_start+0x5f54>
    fbb8:	e3a02005 	mov	r2, #5
    fbbc:	e1a00005 	mov	r0, r5
    fbc0:	ebffe728 	bl	9868 <memcpy@plt>
    fbc4:	ebfffc5a 	bl	ed34 <_start+0x4fb0>
    fbc8:	e59f110c 	ldr	r1, [pc, #268]	; fcdc <_start+0x5f58>
    fbcc:	e3a02001 	mov	r2, #1
    fbd0:	e2850004 	add	r0, r5, #4
[31m    fbd4:	ebffe828 	bl	9c7c <sprintf@plt>[0m
    fbd8:	e2807004 	add	r7, r0, #4
    fbdc:	e59f10fc 	ldr	r1, [pc, #252]	; fce0 <_start+0x5f5c>
    fbe0:	e1a0200d 	mov	r2, sp
    fbe4:	e0850007 	add	r0, r5, r7
[31m    fbe8:	ebffe823 	bl	9c7c <sprintf@plt>[0m
    fbec:	e0877000 	add	r7, r7, r0
    fbf0:	e59f10ec 	ldr	r1, [pc, #236]	; fce4 <_start+0x5f60>
    fbf4:	e3a02002 	mov	r2, #2
    fbf8:	e0850007 	add	r0, r5, r7
[31m    fbfc:	ebffe81e 	bl	9c7c <sprintf@plt>[0m
    fc00:	e0877000 	add	r7, r7, r0
    fc04:	e59f10dc 	ldr	r1, [pc, #220]	; fce8 <_start+0x5f64>
    fc08:	e3a02001 	mov	r2, #1
    fc0c:	e0850007 	add	r0, r5, r7
[31m    fc10:	ebffe819 	bl	9c7c <sprintf@plt>[0m
    fc14:	e0877000 	add	r7, r7, r0
    fc18:	e3a00001 	mov	r0, #1
    fc1c:	ebffeffe 	bl	bc1c <_start+0x1e98>
    fc20:	e1a0000d 	mov	r0, sp
    fc24:	ebfffc80 	bl	ee2c <_start+0x50a8>
    fc28:	e3500000 	cmp	r0, #0
    fc2c:	1a00001d 	bne	fca8 <_start+0x5f24>
    fc30:	e0850007 	add	r0, r5, r7
    fc34:	e59f10b0 	ldr	r1, [pc, #176]	; fcec <_start+0x5f68>
    fc38:	e3a02003 	mov	r2, #3
[31m    fc3c:	ebffe80e 	bl	9c7c <sprintf@plt>[0m
    fc40:	e0804007 	add	r4, r0, r7
    fc44:	e0850004 	add	r0, r5, r4
--
    fc64:	e8bd81f0 	pop	{r4, r5, r6, r7, r8, pc}
    fc68:	ebffedec 	bl	b420 <_start+0x169c>
    fc6c:	e2500000 	subs	r0, r0, #0
    fc70:	13a00001 	movne	r0, #1
    fc74:	e3570001 	cmp	r7, #1
    fc78:	12400001 	subne	r0, r0, #1
    fc7c:	1affffba 	bne	fb6c <_start+0x5de8>
    fc80:	e2400001 	sub	r0, r0, #1
    fc84:	e3500001 	cmp	r0, #1
    fc88:	8affffb7 	bhi	fb6c <_start+0x5de8>
    fc8c:	ebfffe9b 	bl	f700 <_start+0x597c>
    fc90:	e59f303c 	ldr	r3, [pc, #60]	; fcd4 <_start+0x5f50>
    fc94:	e1a0000d 	mov	r0, sp
    fc98:	e1a01003 	mov	r1, r3
    fc9c:	e5837048 	str	r7, [r3, #72]	; 0x48
    fca0:	ebffe831 	bl	9d6c <strcpy@plt>
    fca4:	eaffffc2 	b	fbb4 <_start+0x5e30>
    fca8:	e0850007 	add	r0, r5, r7
    fcac:	e59f1038 	ldr	r1, [pc, #56]	; fcec <_start+0x5f68>
    fcb0:	e3a02001 	mov	r2, #1
[31m    fcb4:	ebffe7f0 	bl	9c7c <sprintf@plt>[0m
    fcb8:	e0804007 	add	r4, r0, r7
    fcbc:	eaffffe0 	b	fc44 <_start+0x5ec0>
--
   10408:	e59d3aa8 	ldr	r3, [sp, #2728]	; 0xaa8
   1040c:	e5972008 	ldr	r2, [r7, #8]
   10410:	e1520003 	cmp	r2, r3
   10414:	35873008 	strcc	r3, [r7, #8]
   10418:	2affff5d 	bcs	10194 <_start+0x6410>
   1041c:	ebfffa07 	bl	ec40 <_start+0x4ebc>
   10420:	e28d7d2a 	add	r7, sp, #2688	; 0xa80
   10424:	e3a03000 	mov	r3, #0
   10428:	e2877008 	add	r7, r7, #8
   1042c:	e1a0a003 	mov	sl, r3
   10430:	e58d0024 	str	r0, [sp, #36]	; 0x24
   10434:	e58d3020 	str	r3, [sp, #32]
   10438:	e59d2024 	ldr	r2, [sp, #36]	; 0x24
   1043c:	e59d3020 	ldr	r3, [sp, #32]
   10440:	e1520003 	cmp	r2, r3
   10444:	da000031 	ble	10510 <_start+0x678c>
   10448:	e28d0c0a 	add	r0, sp, #2560	; 0xa00
   1044c:	e59d2020 	ldr	r2, [sp, #32]
   10450:	e59f11a4 	ldr	r1, [pc, #420]	; 105fc <_start+0x6878>
   10454:	e2800004 	add	r0, r0, #4
[31m   10458:	ebffe607 	bl	9c7c <sprintf@plt>[0m
   1045c:	e28d0c0a 	add	r0, sp, #2560	; 0xa00
   10460:	e2800004 	add	r0, r0, #4
--
   109c0:	ebfff8f1 	bl	ed8c <_start+0x5008>
   109c4:	e3500000 	cmp	r0, #0
   109c8:	0a000003 	beq	109dc <_start+0x6c58>
   109cc:	e3a01000 	mov	r1, #0
   109d0:	e3a02010 	mov	r2, #16
   109d4:	ebffe3cd 	bl	9910 <strtoul@plt>
   109d8:	e1cd0bb8 	strh	r0, [sp, #184]	; 0xb8
   109dc:	e3590000 	cmp	r9, #0
   109e0:	1a00003a 	bne	10ad0 <_start+0x6d4c>
   109e4:	e5dd30bb 	ldrb	r3, [sp, #187]	; 0xbb
   109e8:	e3530001 	cmp	r3, #1
   109ec:	0a00008f 	beq	10c30 <_start+0x6eac>
   109f0:	e3a03002 	mov	r3, #2
   109f4:	e1a01004 	mov	r1, r4
   109f8:	e28d20b8 	add	r2, sp, #184	; 0xb8
   109fc:	e3010008 	movw	r0, #4104	; 0x1008
   10a00:	eb0041cc 	bl	21138 <_start+0x173b4>
   10a04:	e59d200c 	ldr	r2, [sp, #12]
   10a08:	e1a00006 	mov	r0, r6
   10a0c:	e59f12a0 	ldr	r1, [pc, #672]	; 10cb4 <_start+0x6f30>
[31m   10a10:	ebffe499 	bl	9c7c <sprintf@plt>[0m
   10a14:	e1a00006 	mov	r0, r6
   10a18:	ebfff8fc 	bl	ee10 <_start+0x508c>
--
   10aac:	e1a00007 	mov	r0, r7
   10ab0:	e3a0c005 	mov	ip, #5
   10ab4:	e1a0100a 	mov	r1, sl
   10ab8:	e3a02001 	mov	r2, #1
   10abc:	e3a03003 	mov	r3, #3
   10ac0:	e58dc000 	str	ip, [sp]
   10ac4:	ebffeb15 	bl	b720 <_start+0x199c>
   10ac8:	e28dd0c4 	add	sp, sp, #196	; 0xc4
   10acc:	e8bd8ff0 	pop	{r4, r5, r6, r7, r8, r9, sl, fp, pc}
   10ad0:	e1ddcbb8 	ldrh	ip, [sp, #184]	; 0xb8
   10ad4:	e28d20c0 	add	r2, sp, #192	; 0xc0
   10ad8:	e3a03002 	mov	r3, #2
   10adc:	e1a01004 	mov	r1, r4
   10ae0:	e3010008 	movw	r0, #4104	; 0x1008
   10ae4:	e3cccd1a 	bic	ip, ip, #1664	; 0x680
   10ae8:	e162c0b8 	strh	ip, [r2, #-8]!
   10aec:	eb004191 	bl	21138 <_start+0x173b4>
   10af0:	e59f11bc 	ldr	r1, [pc, #444]	; 10cb4 <_start+0x6f30>
   10af4:	e1a00006 	mov	r0, r6
   10af8:	e59d200c 	ldr	r2, [sp, #12]
[31m   10afc:	ebffe45e 	bl	9c7c <sprintf@plt>[0m
   10b00:	e1a00006 	mov	r0, r6
   10b04:	ebfff8c1 	bl	ee10 <_start+0x508c>
--
   10c10:	e3a02005 	mov	r2, #5
   10c14:	ebffea36 	bl	b4f4 <_start+0x1770>
   10c18:	eaffffaa 	b	10ac8 <_start+0x6d44>
   10c1c:	e3a00001 	mov	r0, #1
   10c20:	e1a0100b 	mov	r1, fp
   10c24:	e5952090 	ldr	r2, [r5, #144]	; 0x90
   10c28:	eb0046e2 	bl	227b8 <_start+0x18a34>
   10c2c:	eaffffcc 	b	10b64 <_start+0x6de0>
   10c30:	e1dd3bb8 	ldrh	r3, [sp, #184]	; 0xb8
   10c34:	e3c33080 	bic	r3, r3, #128	; 0x80
   10c38:	e1cd3bb8 	strh	r3, [sp, #184]	; 0xb8
   10c3c:	eaffff6b 	b	109f0 <_start+0x6c6c>
   10c40:	e1a00004 	mov	r0, r4
   10c44:	eb004889 	bl	22e70 <_start+0x190ec>
   10c48:	e1a0000b 	mov	r0, fp
   10c4c:	eaffff9d 	b	10ac8 <_start+0x6d44>
   10c50:	e28d6014 	add	r6, sp, #20
   10c54:	e59f1068 	ldr	r1, [pc, #104]	; 10cc4 <_start+0x6f40>
   10c58:	e59d200c 	ldr	r2, [sp, #12]
   10c5c:	e1a00006 	mov	r0, r6
[31m   10c60:	ebffe405 	bl	9c7c <sprintf@plt>[0m
   10c64:	e1a00006 	mov	r0, r6
   10c68:	ebfff868 	bl	ee10 <_start+0x508c>
--
   10d5c:	e3550000 	cmp	r5, #0
   10d60:	0a000099 	beq	10fcc <_start+0x7248>
   10d64:	e5d5301c 	ldrb	r3, [r5, #28]
   10d68:	e28d6010 	add	r6, sp, #16
   10d6c:	e5cd309f 	strb	r3, [sp, #159]	; 0x9f
   10d70:	e28da09f 	add	sl, sp, #159	; 0x9f
   10d74:	e3010044 	movw	r0, #4164	; 0x1044
   10d78:	e1a01004 	mov	r1, r4
   10d7c:	e1a0200a 	mov	r2, sl
   10d80:	e3a03001 	mov	r3, #1
   10d84:	eb0040eb 	bl	21138 <_start+0x173b4>
   10d88:	ebfffa4f 	bl	f6cc <_start+0x5948>
   10d8c:	e3500000 	cmp	r0, #0
   10d90:	1a00006d 	bne	10f4c <_start+0x71c8>
   10d94:	e59dc00c 	ldr	ip, [sp, #12]
   10d98:	e35c0000 	cmp	ip, #0
   10d9c:	1a00005a 	bne	10f0c <_start+0x7188>
   10da0:	e59f1268 	ldr	r1, [pc, #616]	; 11010 <_start+0x728c>
   10da4:	e1a0200b 	mov	r2, fp
   10da8:	e1a00006 	mov	r0, r6
[31m   10dac:	ebffe3b2 	bl	9c7c <sprintf@plt>[0m
   10db0:	e1a00006 	mov	r0, r6
   10db4:	ebfff815 	bl	ee10 <_start+0x508c>
--
   10f8c:	ebfff728 	bl	ec34 <_start+0x4eb0>
   10f90:	e1a01004 	mov	r1, r4
   10f94:	e1a02000 	mov	r2, r0
   10f98:	e3a03010 	mov	r3, #16
   10f9c:	e3010047 	movw	r0, #4167	; 0x1047
   10fa0:	eb004064 	bl	21138 <_start+0x173b4>
   10fa4:	e301003c 	movw	r0, #4156	; 0x103c
   10fa8:	e1a01004 	mov	r1, r4
   10fac:	e1a0200a 	mov	r2, sl
   10fb0:	e3a03001 	mov	r3, #1
   10fb4:	eb00405f 	bl	21138 <_start+0x173b4>
   10fb8:	eaffff83 	b	10dcc <_start+0x7048>
   10fbc:	e1a00004 	mov	r0, r4
   10fc0:	eb0047aa 	bl	22e70 <_start+0x190ec>
   10fc4:	e1a00009 	mov	r0, r9
   10fc8:	eaffffc8 	b	10ef0 <_start+0x716c>
   10fcc:	e28d6010 	add	r6, sp, #16
   10fd0:	e59f1050 	ldr	r1, [pc, #80]	; 11028 <_start+0x72a4>
   10fd4:	e1a0200b 	mov	r2, fp
   10fd8:	e1a00006 	mov	r0, r6
[31m   10fdc:	ebffe326 	bl	9c7c <sprintf@plt>[0m
   10fe0:	e1a00006 	mov	r0, r6
   10fe4:	ebfff789 	bl	ee10 <_start+0x508c>
--
   111f8:	e24dd0cc 	sub	sp, sp, #204	; 0xcc
   111fc:	e58d1010 	str	r1, [sp, #16]
   11200:	ebfff68e 	bl	ec40 <_start+0x4ebc>
   11204:	e35a0000 	cmp	sl, #0
   11208:	e58d0014 	str	r0, [sp, #20]
   1120c:	0a00013c 	beq	11704 <_start+0x7980>
   11210:	e3500000 	cmp	r0, #0
   11214:	da000134 	ble	116ec <_start+0x7968>
   11218:	e3a08000 	mov	r8, #0
   1121c:	e28d6028 	add	r6, sp, #40	; 0x28
   11220:	e28d40a4 	add	r4, sp, #164	; 0xa4
   11224:	e1a07008 	mov	r7, r8
   11228:	e1a09000 	mov	r9, r0
   1122c:	ea000002 	b	1123c <_start+0x74b8>
   11230:	e2888001 	add	r8, r8, #1
   11234:	e1590008 	cmp	r9, r8
   11238:	da00012d 	ble	116f4 <_start+0x7970>
   1123c:	e59f14e0 	ldr	r1, [pc, #1248]	; 11724 <_start+0x79a0>
   11240:	e1a02008 	mov	r2, r8
   11244:	e1a00006 	mov	r0, r6
[31m   11248:	ebffe28b 	bl	9c7c <sprintf@plt>[0m
   1124c:	e1a00006 	mov	r0, r6
   11250:	ebfff6ee 	bl	ee10 <_start+0x508c>
--
   112d4:	e08c3000 	add	r3, ip, r0
   112d8:	e5437024 	strb	r7, [r3, #-36]	; 0xffffffdc
   112dc:	e1a00005 	mov	r0, r5
   112e0:	e5cd70b3 	strb	r7, [sp, #179]	; 0xb3
   112e4:	ebffe282 	bl	9cf4 <strchr@plt>
   112e8:	e5dd30a4 	ldrb	r3, [sp, #164]	; 0xa4
   112ec:	e1a05000 	mov	r5, r0
   112f0:	e3530000 	cmp	r3, #0
   112f4:	0affffcd 	beq	11230 <_start+0x74ac>
   112f8:	e1a0100a 	mov	r1, sl
   112fc:	e1a00004 	mov	r0, r4
   11300:	ebffe26f 	bl	9cc4 <strcmp@plt>
   11304:	e3500000 	cmp	r0, #0
   11308:	e59f1418 	ldr	r1, [pc, #1048]	; 11728 <_start+0x79a4>
   1130c:	e1a00005 	mov	r0, r5
   11310:	1affffe1 	bne	1129c <_start+0x7518>
   11314:	e59f1414 	ldr	r1, [pc, #1044]	; 11730 <_start+0x79ac>
   11318:	e1a02004 	mov	r2, r4
   1131c:	e1a00006 	mov	r0, r6
   11320:	e58d8024 	str	r8, [sp, #36]	; 0x24
[31m   11324:	ebffe254 	bl	9c7c <sprintf@plt>[0m
   11328:	e1a00006 	mov	r0, r6
   1132c:	ebfff6b7 	bl	ee10 <_start+0x508c>
   11330:	ebffe26c 	bl	9ce8 <atoi@plt>
   11334:	e58d0020 	str	r0, [sp, #32]
   11338:	e28d20b4 	add	r2, sp, #180	; 0xb4
   1133c:	e3a08000 	mov	r8, #0
   11340:	e28d40a4 	add	r4, sp, #164	; 0xa4
   11344:	e58d200c 	str	r2, [sp, #12]
   11348:	e1a0900a 	mov	r9, sl
   1134c:	ea000003 	b	11360 <_start+0x75dc>
   11350:	e59d1014 	ldr	r1, [sp, #20]
   11354:	e2888001 	add	r8, r8, #1
   11358:	e1510008 	cmp	r1, r8
   1135c:	da0000e2 	ble	116ec <_start+0x7968>
   11360:	e59f13bc 	ldr	r1, [pc, #956]	; 11724 <_start+0x79a0>
   11364:	e1a02008 	mov	r2, r8
   11368:	e1a00006 	mov	r0, r6
[31m   1136c:	ebffe242 	bl	9c7c <sprintf@plt>[0m
   11370:	e1a00006 	mov	r0, r6
   11374:	ebfff6a5 	bl	ee10 <_start+0x508c>
--
   11408:	e1a00004 	mov	r0, r4
   1140c:	ebffe1db 	bl	9b80 <strncpy@plt>
   11410:	e59f1310 	ldr	r1, [pc, #784]	; 11728 <_start+0x79a4>
   11414:	e1a00004 	mov	r0, r4
   11418:	ebffe20b 	bl	9c4c <strcspn@plt>
   1141c:	e28dc0c8 	add	ip, sp, #200	; 0xc8
   11420:	e3a03000 	mov	r3, #0
   11424:	e08c2000 	add	r2, ip, r0
   11428:	e3a01020 	mov	r1, #32
   1142c:	e5423024 	strb	r3, [r2, #-36]	; 0xffffffdc
   11430:	e1a00005 	mov	r0, r5
   11434:	e5cd30b3 	strb	r3, [sp, #179]	; 0xb3
   11438:	ebffe22d 	bl	9cf4 <strchr@plt>
   1143c:	e5dd30a4 	ldrb	r3, [sp, #164]	; 0xa4
   11440:	e1a05000 	mov	r5, r0
   11444:	e3530000 	cmp	r3, #0
   11448:	0affffc0 	beq	11350 <_start+0x75cc>
   1144c:	e59f12e0 	ldr	r1, [pc, #736]	; 11734 <_start+0x79b0>
   11450:	e1a02004 	mov	r2, r4
   11454:	e1a00006 	mov	r0, r6
[31m   11458:	ebffe207 	bl	9c7c <sprintf@plt>[0m
   1145c:	e1a00006 	mov	r0, r6
   11460:	ebfff66a 	bl	ee10 <_start+0x508c>
   11464:	e59f12cc 	ldr	r1, [pc, #716]	; 11738 <_start+0x79b4>
   11468:	ebffe215 	bl	9cc4 <strcmp@plt>
   1146c:	e3500000 	cmp	r0, #0
   11470:	1affffdb 	bne	113e4 <_start+0x7660>
   11474:	e59f12b4 	ldr	r1, [pc, #692]	; 11730 <_start+0x79ac>
   11478:	e1a02004 	mov	r2, r4
   1147c:	e1a00006 	mov	r0, r6
[31m   11480:	ebffe1fd 	bl	9c7c <sprintf@plt>[0m
   11484:	e1a00006 	mov	r0, r6
   11488:	ebfff660 	bl	ee10 <_start+0x508c>
--
   11750:	e24dd078 	sub	sp, sp, #120	; 0x78
   11754:	e59f0178 	ldr	r0, [pc, #376]	; 118d4 <_start+0x7b50>
   11758:	ebfff5ac 	bl	ee10 <_start+0x508c>
   1175c:	e59f1174 	ldr	r1, [pc, #372]	; 118d8 <_start+0x7b54>
   11760:	ebffe157 	bl	9cc4 <strcmp@plt>
   11764:	e1a09000 	mov	r9, r0
   11768:	ebfff534 	bl	ec40 <_start+0x4ebc>
   1176c:	e250a000 	subs	sl, r0, #0
   11770:	da000055 	ble	118cc <_start+0x7b48>
   11774:	e3a08000 	mov	r8, #0
   11778:	e28d6004 	add	r6, sp, #4
   1177c:	e28d4068 	add	r4, sp, #104	; 0x68
   11780:	e1a07008 	mov	r7, r8
   11784:	ea000002 	b	11794 <_start+0x7a10>
   11788:	e2888001 	add	r8, r8, #1
   1178c:	e15a0008 	cmp	sl, r8
   11790:	da00004d 	ble	118cc <_start+0x7b48>
   11794:	e59f1140 	ldr	r1, [pc, #320]	; 118dc <_start+0x7b58>
   11798:	e1a02008 	mov	r2, r8
   1179c:	e1a00006 	mov	r0, r6
[31m   117a0:	ebffe135 	bl	9c7c <sprintf@plt>[0m
   117a4:	e1a00006 	mov	r0, r6
   117a8:	ebfff598 	bl	ee10 <_start+0x508c>
--
   117f8:	e1a00004 	mov	r0, r4
   117fc:	e1a01005 	mov	r1, r5
   11800:	ebffe0de 	bl	9b80 <strncpy@plt>
   11804:	e59f10d4 	ldr	r1, [pc, #212]	; 118e0 <_start+0x7b5c>
   11808:	e1a00004 	mov	r0, r4
   1180c:	ebffe10e 	bl	9c4c <strcspn@plt>
   11810:	e28d2078 	add	r2, sp, #120	; 0x78
   11814:	e3a01020 	mov	r1, #32
   11818:	e0823000 	add	r3, r2, r0
   1181c:	e1a00005 	mov	r0, r5
   11820:	e5437010 	strb	r7, [r3, #-16]
   11824:	e5cd7077 	strb	r7, [sp, #119]	; 0x77
   11828:	ebffe131 	bl	9cf4 <strchr@plt>
   1182c:	e5dd3068 	ldrb	r3, [sp, #104]	; 0x68
   11830:	e1a05000 	mov	r5, r0
   11834:	e3530000 	cmp	r3, #0
   11838:	0affffd2 	beq	11788 <_start+0x7a04>
   1183c:	e1a02004 	mov	r2, r4
   11840:	e59f10a0 	ldr	r1, [pc, #160]	; 118e8 <_start+0x7b64>
   11844:	e1a00006 	mov	r0, r6
[31m   11848:	ebffe10b 	bl	9c7c <sprintf@plt>[0m
   1184c:	e1a00006 	mov	r0, r6
   11850:	ebfff56e 	bl	ee10 <_start+0x508c>
--
   11b48:	e3a02000 	mov	r2, #0
   11b4c:	ebfffc5e 	bl	10ccc <_start+0x6f48>
   11b50:	e1a00004 	mov	r0, r4
   11b54:	eaffffd2 	b	11aa4 <_start+0x7d20>
   11b58:	e1a00006 	mov	r0, r6
   11b5c:	e1a0100a 	mov	r1, sl
   11b60:	e3a02000 	mov	r2, #0
   11b64:	ebfffaff 	bl	10768 <_start+0x69e4>
   11b68:	e3a00001 	mov	r0, #1
   11b6c:	eaffffcc 	b	11aa4 <_start+0x7d20>
   11b70:	000265d4 	ldrdeq	r6, [r2], -r4
   11b74:	e92d4ff0 	push	{r4, r5, r6, r7, r8, r9, sl, fp, lr}
   11b78:	e30b4a54 	movw	r4, #47700	; 0xba54
   11b7c:	e24ddf53 	sub	sp, sp, #332	; 0x14c
   11b80:	e3404002 	movt	r4, #2
   11b84:	e28d5038 	add	r5, sp, #56	; 0x38
   11b88:	e3061b30 	movw	r1, #27440	; 0x6b30
   11b8c:	e5942000 	ldr	r2, [r4]
   11b90:	e1a00005 	mov	r0, r5
   11b94:	e3401002 	movt	r1, #2
[31m   11b98:	ebffe037 	bl	9c7c <sprintf@plt>[0m
   11b9c:	e3061b7c 	movw	r1, #27516	; 0x6b7c
   11ba0:	e5942008 	ldr	r2, [r4, #8]
   11ba4:	e1a06000 	mov	r6, r0
   11ba8:	e3401002 	movt	r1, #2
   11bac:	e0850000 	add	r0, r5, r0
[31m   11bb0:	ebffe031 	bl	9c7c <sprintf@plt>[0m
   11bb4:	e3061b58 	movw	r1, #27480	; 0x6b58
   11bb8:	e0806006 	add	r6, r0, r6
   11bbc:	e0850006 	add	r0, r5, r6
   11bc0:	e5942004 	ldr	r2, [r4, #4]
   11bc4:	e3401002 	movt	r1, #2
[31m   11bc8:	ebffe02b 	bl	9c7c <sprintf@plt>[0m
   11bcc:	e2842e1a 	add	r2, r4, #416	; 0x1a0
   11bd0:	e0866000 	add	r6, r6, r0
   11bd4:	e3061c64 	movw	r1, #27748	; 0x6c64
   11bd8:	e0850006 	add	r0, r5, r6
   11bdc:	e3401002 	movt	r1, #2
   11be0:	e2822002 	add	r2, r2, #2
[31m   11be4:	ebffe024 	bl	9c7c <sprintf@plt>[0m
   11be8:	e3061b48 	movw	r1, #27464	; 0x6b48
   11bec:	e0866000 	add	r6, r6, r0
   11bf0:	e2842010 	add	r2, r4, #16
   11bf4:	e0850006 	add	r0, r5, r6
   11bf8:	e3401002 	movt	r1, #2
[31m   11bfc:	ebffe01e 	bl	9c7c <sprintf@plt>[0m
   11c00:	e0866000 	add	r6, r6, r0
   11c04:	e28d0f4e 	add	r0, sp, #312	; 0x138
--
   11c40:	e58d0024 	str	r0, [sp, #36]	; 0x24
   11c44:	e5dd0144 	ldrb	r0, [sp, #324]	; 0x144
   11c48:	e5ddb140 	ldrb	fp, [sp, #320]	; 0x140
   11c4c:	e5dd3139 	ldrb	r3, [sp, #313]	; 0x139
   11c50:	e58d0028 	str	r0, [sp, #40]	; 0x28
   11c54:	e5dd0145 	ldrb	r0, [sp, #325]	; 0x145
   11c58:	e5dd2138 	ldrb	r2, [sp, #312]	; 0x138
   11c5c:	e58de010 	str	lr, [sp, #16]
   11c60:	e58d002c 	str	r0, [sp, #44]	; 0x2c
   11c64:	e5dd0146 	ldrb	r0, [sp, #326]	; 0x146
   11c68:	e58dc014 	str	ip, [sp, #20]
   11c6c:	e58d9000 	str	r9, [sp]
   11c70:	e58d0030 	str	r0, [sp, #48]	; 0x30
   11c74:	e5dd0147 	ldrb	r0, [sp, #327]	; 0x147
   11c78:	e58da004 	str	sl, [sp, #4]
   11c7c:	e58d8008 	str	r8, [sp, #8]
   11c80:	e58d0034 	str	r0, [sp, #52]	; 0x34
   11c84:	e0850006 	add	r0, r5, r6
   11c88:	e58d700c 	str	r7, [sp, #12]
   11c8c:	e58db018 	str	fp, [sp, #24]
[31m   11c90:	ebffdff9 	bl	9c7c <sprintf@plt>[0m
   11c94:	e3061cc8 	movw	r1, #27848	; 0x6cc8
   11c98:	e0866000 	add	r6, r6, r0
   11c9c:	e0850006 	add	r0, r5, r6
   11ca0:	e5942104 	ldr	r2, [r4, #260]	; 0x104
   11ca4:	e3401002 	movt	r1, #2
[31m   11ca8:	ebffdff3 	bl	9c7c <sprintf@plt>[0m
   11cac:	e3061cdc 	movw	r1, #27868	; 0x6cdc
   11cb0:	e0866000 	add	r6, r6, r0
   11cb4:	e0850006 	add	r0, r5, r6
   11cb8:	e5942108 	ldr	r2, [r4, #264]	; 0x108
   11cbc:	e3401002 	movt	r1, #2
[31m   11cc0:	ebffdfed 	bl	9c7c <sprintf@plt>[0m
   11cc4:	e3061cf0 	movw	r1, #27888	; 0x6cf0
   11cc8:	e0866000 	add	r6, r6, r0
   11ccc:	e0850006 	add	r0, r5, r6
   11cd0:	e594210c 	ldr	r2, [r4, #268]	; 0x10c
   11cd4:	e3401002 	movt	r1, #2
[31m   11cd8:	ebffdfe7 	bl	9c7c <sprintf@plt>[0m
   11cdc:	e3061d00 	movw	r1, #27904	; 0x6d00
   11ce0:	e0866000 	add	r6, r6, r0
   11ce4:	e2842e19 	add	r2, r4, #400	; 0x190
   11ce8:	e0850006 	add	r0, r5, r6
   11cec:	e3401002 	movt	r1, #2
[31m   11cf0:	ebffdfe1 	bl	9c7c <sprintf@plt>[0m
   11cf4:	e3061d10 	movw	r1, #27920	; 0x6d10
   11cf8:	e0866000 	add	r6, r6, r0
   11cfc:	e2842f6d 	add	r2, r4, #436	; 0x1b4
   11d00:	e3401002 	movt	r1, #2
   11d04:	e0850006 	add	r0, r5, r6
[31m   11d08:	ebffdfdb 	bl	9c7c <sprintf@plt>[0m
   11d0c:	e2802001 	add	r2, r0, #1
   11d10:	e1a01005 	mov	r1, r5
--
   11ebc:	059f015c 	ldreq	r0, [pc, #348]	; 12020 <_start+0x829c>
   11ec0:	08bd8010 	popeq	{r4, pc}
   11ec4:	e1a00004 	mov	r0, r4
   11ec8:	e59f1154 	ldr	r1, [pc, #340]	; 12024 <_start+0x82a0>
   11ecc:	ebffdf7c 	bl	9cc4 <strcmp@plt>
   11ed0:	e3500000 	cmp	r0, #0
   11ed4:	0a000032 	beq	11fa4 <_start+0x8220>
   11ed8:	e1a00004 	mov	r0, r4
   11edc:	e59f1144 	ldr	r1, [pc, #324]	; 12028 <_start+0x82a4>
   11ee0:	ebffdf77 	bl	9cc4 <strcmp@plt>
   11ee4:	e59f3140 	ldr	r3, [pc, #320]	; 1202c <_start+0x82a8>
   11ee8:	e3500000 	cmp	r0, #0
   11eec:	e59f213c 	ldr	r2, [pc, #316]	; 12030 <_start+0x82ac>
   11ef0:	01a00003 	moveq	r0, r3
   11ef4:	11a00002 	movne	r0, r2
   11ef8:	e8bd8010 	pop	{r4, pc}
   11efc:	e59f4130 	ldr	r4, [pc, #304]	; 12034 <_start+0x82b0>
   11f00:	e59f1130 	ldr	r1, [pc, #304]	; 12038 <_start+0x82b4>
   11f04:	e1a00004 	mov	r0, r4
   11f08:	e49022c8 	ldr	r2, [r0], #712	; 0x2c8
[31m   11f0c:	ebffdf5a 	bl	9c7c <sprintf@plt>[0m
   11f10:	e2840fb2 	add	r0, r4, #712	; 0x2c8
   11f14:	e8bd8010 	pop	{r4, pc}
   11f18:	e59f4114 	ldr	r4, [pc, #276]	; 12034 <_start+0x82b0>
   11f1c:	e59f1114 	ldr	r1, [pc, #276]	; 12038 <_start+0x82b4>
   11f20:	e2840fb2 	add	r0, r4, #712	; 0x2c8
   11f24:	e5942004 	ldr	r2, [r4, #4]
[31m   11f28:	ebffdf53 	bl	9c7c <sprintf@plt>[0m
   11f2c:	e2840fb2 	add	r0, r4, #712	; 0x2c8
   11f30:	e8bd8010 	pop	{r4, pc}
   11f34:	e59f40f8 	ldr	r4, [pc, #248]	; 12034 <_start+0x82b0>
   11f38:	e59f10f8 	ldr	r1, [pc, #248]	; 12038 <_start+0x82b4>
   11f3c:	e2840fb2 	add	r0, r4, #712	; 0x2c8
   11f40:	e5942008 	ldr	r2, [r4, #8]
[31m   11f44:	ebffdf4c 	bl	9c7c <sprintf@plt>[0m
   11f48:	e2840fb2 	add	r0, r4, #712	; 0x2c8
   11f4c:	e8bd8010 	pop	{r4, pc}
   11f50:	e59f40dc 	ldr	r4, [pc, #220]	; 12034 <_start+0x82b0>
   11f54:	e59f10dc 	ldr	r1, [pc, #220]	; 12038 <_start+0x82b4>
   11f58:	e2840fb2 	add	r0, r4, #712	; 0x2c8
   11f5c:	e594200c 	ldr	r2, [r4, #12]
[31m   11f60:	ebffdf45 	bl	9c7c <sprintf@plt>[0m
   11f64:	e2840fb2 	add	r0, r4, #712	; 0x2c8
   11f68:	e8bd8010 	pop	{r4, pc}
   11f6c:	e59f40c0 	ldr	r4, [pc, #192]	; 12034 <_start+0x82b0>
   11f70:	e59f10c0 	ldr	r1, [pc, #192]	; 12038 <_start+0x82b4>
   11f74:	e2840fb2 	add	r0, r4, #712	; 0x2c8
   11f78:	e5942108 	ldr	r2, [r4, #264]	; 0x108
[31m   11f7c:	ebffdf3e 	bl	9c7c <sprintf@plt>[0m
   11f80:	e2840fb2 	add	r0, r4, #712	; 0x2c8
   11f84:	e8bd8010 	pop	{r4, pc}
   11f88:	e59f40a4 	ldr	r4, [pc, #164]	; 12034 <_start+0x82b0>
   11f8c:	e59f10a4 	ldr	r1, [pc, #164]	; 12038 <_start+0x82b4>
   11f90:	e2840fb2 	add	r0, r4, #712	; 0x2c8
   11f94:	e5942238 	ldr	r2, [r4, #568]	; 0x238
[31m   11f98:	ebffdf37 	bl	9c7c <sprintf@plt>[0m
   11f9c:	e2840fb2 	add	r0, r4, #712	; 0x2c8
   11fa0:	e8bd8010 	pop	{r4, pc}
--
   12634:	1a000003 	bne	12648 <_start+0x88c4>
   12638:	e59d0484 	ldr	r0, [sp, #1156]	; 0x484
   1263c:	ebfff483 	bl	f850 <_start+0x5acc>
   12640:	e3500002 	cmp	r0, #2
   12644:	0a0000b6 	beq	12924 <_start+0x8ba0>
   12648:	e3a05000 	mov	r5, #0
   1264c:	e28d6e41 	add	r6, sp, #1040	; 0x410
   12650:	e28d7e46 	add	r7, sp, #1120	; 0x460
   12654:	e2866004 	add	r6, r6, #4
   12658:	e2877008 	add	r7, r7, #8
   1265c:	e1a08005 	mov	r8, r5
   12660:	e1a0a004 	mov	sl, r4
   12664:	ebfff175 	bl	ec40 <_start+0x4ebc>
   12668:	e58d003c 	str	r0, [sp, #60]	; 0x3c
   1266c:	e59dc03c 	ldr	ip, [sp, #60]	; 0x3c
   12670:	e15c0005 	cmp	ip, r5
   12674:	dafffede 	ble	121f4 <_start+0x8470>
   12678:	e1a02005 	mov	r2, r5
   1267c:	e59f14d4 	ldr	r1, [pc, #1236]	; 12b58 <_start+0x8dd4>
   12680:	e1a00006 	mov	r0, r6
[31m   12684:	ebffdd7c 	bl	9c7c <sprintf@plt>[0m
   12688:	e1a00006 	mov	r0, r6
   1268c:	ebfff1df 	bl	ee10 <_start+0x508c>
--
   12714:	e28d2d12 	add	r2, sp, #1152	; 0x480
   12718:	e3a01020 	mov	r1, #32
   1271c:	e2822008 	add	r2, r2, #8
   12720:	e0823000 	add	r3, r2, r0
   12724:	e5438020 	strb	r8, [r3, #-32]	; 0xffffffe0
   12728:	e1a00004 	mov	r0, r4
   1272c:	e5cd8477 	strb	r8, [sp, #1143]	; 0x477
   12730:	ebffdd6f 	bl	9cf4 <strchr@plt>
   12734:	e5dd3468 	ldrb	r3, [sp, #1128]	; 0x468
   12738:	e1a04000 	mov	r4, r0
   1273c:	e59f1420 	ldr	r1, [pc, #1056]	; 12b64 <_start+0x8de0>
   12740:	e1a00007 	mov	r0, r7
   12744:	e3530000 	cmp	r3, #0
   12748:	1affffe0 	bne	126d0 <_start+0x894c>
   1274c:	e2855001 	add	r5, r5, #1
   12750:	eaffffc5 	b	1266c <_start+0x88e8>
   12754:	e1a02005 	mov	r2, r5
   12758:	e59f1408 	ldr	r1, [pc, #1032]	; 12b68 <_start+0x8de4>
   1275c:	e1a00006 	mov	r0, r6
   12760:	e1a0400a 	mov	r4, sl
[31m   12764:	ebffdd44 	bl	9c7c <sprintf@plt>[0m
   12768:	e1a00006 	mov	r0, r6
   1276c:	e289703c 	add	r7, r9, #60	; 0x3c
   12770:	ebfff1a6 	bl	ee10 <_start+0x508c>
   12774:	e1a02005 	mov	r2, r5
   12778:	e59f13ec 	ldr	r1, [pc, #1004]	; 12b6c <_start+0x8de8>
   1277c:	e1a0a000 	mov	sl, r0
   12780:	e1a00006 	mov	r0, r6
[31m   12784:	ebffdd3c 	bl	9c7c <sprintf@plt>[0m
   12788:	e1a00006 	mov	r0, r6
   1278c:	e2895010 	add	r5, r9, #16
--
   12914:	e3a02040 	mov	r2, #64	; 0x40
   12918:	e59d1484 	ldr	r1, [sp, #1156]	; 0x484
   1291c:	ebffeebc 	bl	e414 <_start+0x4690>
   12920:	eafffe0f 	b	12164 <_start+0x83e0>
   12924:	e3a00008 	mov	r0, #8
   12928:	e5875000 	str	r5, [r7]
   1292c:	ebffe4ba 	bl	bc1c <_start+0x1e98>
   12930:	e3010012 	movw	r0, #4114	; 0x1012
   12934:	eafffe2f 	b	121f8 <_start+0x8474>
   12938:	e59fe248 	ldr	lr, [pc, #584]	; 12b88 <_start+0x8e04>
   1293c:	e28d4e45 	add	r4, sp, #1104	; 0x450
   12940:	e2844004 	add	r4, r4, #4
   12944:	e1a0c004 	mov	ip, r4
   12948:	e8be000f 	ldm	lr!, {r0, r1, r2, r3}
   1294c:	e59ee000 	ldr	lr, [lr]
   12950:	e8ac000f 	stmia	ip!, {r0, r1, r2, r3}
   12954:	e1a02006 	mov	r2, r6
   12958:	e59f122c 	ldr	r1, [pc, #556]	; 12b8c <_start+0x8e08>
   1295c:	e1a00004 	mov	r0, r4
   12960:	e58ce000 	str	lr, [ip]
[31m   12964:	ebffdcc4 	bl	9c7c <sprintf@plt>[0m
   12968:	e1a00004 	mov	r0, r4
   1296c:	ebfff106 	bl	ed8c <_start+0x5008>
--
   13098:	eaffe073 	b	b26c <_start+0x14e8>
   1309c:	e59f3084 	ldr	r3, [pc, #132]	; 13128 <_start+0x93a4>
   130a0:	e3a020fb 	mov	r2, #251	; 0xfb
   130a4:	e92d4070 	push	{r4, r5, r6, lr}
   130a8:	e24ddc01 	sub	sp, sp, #256	; 0x100
   130ac:	e59f6078 	ldr	r6, [pc, #120]	; 1312c <_start+0x93a8>
   130b0:	e1a0400d 	mov	r4, sp
   130b4:	e1a0500d 	mov	r5, sp
   130b8:	e8930003 	ldm	r3, {r0, r1}
   130bc:	e58d0000 	str	r0, [sp]
   130c0:	e28d0005 	add	r0, sp, #5
   130c4:	e5e41004 	strb	r1, [r4, #4]!
   130c8:	e3a01000 	mov	r1, #0
   130cc:	ebffdac3 	bl	9be0 <memset@plt>
   130d0:	e5960008 	ldr	r0, [r6, #8]
   130d4:	e3500000 	cmp	r0, #0
   130d8:	0a000010 	beq	13120 <_start+0x939c>
   130dc:	e1a00004 	mov	r0, r4
   130e0:	e59f1048 	ldr	r1, [pc, #72]	; 13130 <_start+0x93ac>
   130e4:	e3a02002 	mov	r2, #2
[31m   130e8:	ebffdae3 	bl	9c7c <sprintf@plt>[0m
   130ec:	e2804004 	add	r4, r0, #4
   130f0:	e3a02000 	mov	r2, #0
   130f4:	e59f1038 	ldr	r1, [pc, #56]	; 13134 <_start+0x93b0>
   130f8:	e08d0004 	add	r0, sp, r4
[31m   130fc:	ebffdade 	bl	9c7c <sprintf@plt>[0m
   13100:	e0841000 	add	r1, r4, r0
   13104:	e1a0000d 	mov	r0, sp
--
   135bc:	e0812000 	add	r2, r1, r0
   135c0:	e3a01020 	mov	r1, #32
   135c4:	e5423020 	strb	r3, [r2, #-32]	; 0xffffffe0
   135c8:	e1a00004 	mov	r0, r4
   135cc:	e5cd355f 	strb	r3, [sp, #1375]	; 0x55f
   135d0:	ebffd9c7 	bl	9cf4 <strchr@plt>
   135d4:	e5dd3540 	ldrb	r3, [sp, #1344]	; 0x540
   135d8:	e58d0018 	str	r0, [sp, #24]
   135dc:	e3530000 	cmp	r3, #0
   135e0:	0a000071 	beq	137ac <_start+0x9a28>
   135e4:	e59f8250 	ldr	r8, [pc, #592]	; 1383c <_start+0x9ab8>
   135e8:	e28d3030 	add	r3, sp, #48	; 0x30
   135ec:	e28d7e52 	add	r7, sp, #1312	; 0x520
   135f0:	e2433004 	sub	r3, r3, #4
   135f4:	e58d3024 	str	r3, [sp, #36]	; 0x24
   135f8:	e1a00007 	mov	r0, r7
   135fc:	e59f123c 	ldr	r1, [pc, #572]	; 13840 <_start+0x9abc>
   13600:	e28d2d15 	add	r2, sp, #1344	; 0x540
   13604:	e59f5230 	ldr	r5, [pc, #560]	; 1383c <_start+0x9ab8>
   13608:	e3a04000 	mov	r4, #0
[31m   1360c:	ebffd99a 	bl	9c7c <sprintf@plt>[0m
   13610:	ea000003 	b	13624 <_start+0x98a0>
   13614:	e2844001 	add	r4, r4, #1
--
   137a4:	e3530000 	cmp	r3, #0
   137a8:	1affff92 	bne	135f8 <_start+0x9874>
   137ac:	e28ddf59 	add	sp, sp, #356	; 0x164
   137b0:	e28ddb01 	add	sp, sp, #1024	; 0x400
   137b4:	e8bd8ff0 	pop	{r4, r5, r6, r7, r8, r9, sl, fp, pc}
   137b8:	e5da1011 	ldrb	r1, [sl, #17]
   137bc:	e28d0e4e 	add	r0, sp, #1248	; 0x4e0
   137c0:	e5da200f 	ldrb	r2, [sl, #15]
   137c4:	e280000c 	add	r0, r0, #12
   137c8:	e5da3010 	ldrb	r3, [sl, #16]
   137cc:	e58d1000 	str	r1, [sp]
   137d0:	e5dac012 	ldrb	ip, [sl, #18]
   137d4:	e59de020 	ldr	lr, [sp, #32]
   137d8:	e59f106c 	ldr	r1, [pc, #108]	; 1384c <_start+0x9ac8>
   137dc:	e58dc004 	str	ip, [sp, #4]
   137e0:	e5dac013 	ldrb	ip, [sl, #19]
   137e4:	e58dc008 	str	ip, [sp, #8]
   137e8:	e5dac014 	ldrb	ip, [sl, #20]
   137ec:	e58de010 	str	lr, [sp, #16]
   137f0:	e58dc00c 	str	ip, [sp, #12]
[31m   137f4:	ebffd920 	bl	9c7c <sprintf@plt>[0m
   137f8:	e28d1e4e 	add	r1, sp, #1248	; 0x4e0
   137fc:	e1a03000 	mov	r3, r0
--
   138bc:	e59f113c 	ldr	r1, [pc, #316]	; 13a00 <_start+0x9c7c>
   138c0:	e3a02011 	mov	r2, #17
   138c4:	e0860000 	add	r0, r6, r0
   138c8:	ebffd7e6 	bl	9868 <memcpy@plt>
   138cc:	e1a00006 	mov	r0, r6
   138d0:	ebffed2d 	bl	ed8c <_start+0x5008>
   138d4:	e3500000 	cmp	r0, #0
   138d8:	0a000003 	beq	138ec <_start+0x9b68>
   138dc:	e59f1120 	ldr	r1, [pc, #288]	; 13a04 <_start+0x9c80>
   138e0:	ebffd8f7 	bl	9cc4 <strcmp@plt>
   138e4:	e3500000 	cmp	r0, #0
   138e8:	0a000034 	beq	139c0 <_start+0x9c3c>
   138ec:	e59f0114 	ldr	r0, [pc, #276]	; 13a08 <_start+0x9c84>
   138f0:	e59f110c 	ldr	r1, [pc, #268]	; 13a04 <_start+0x9c80>
   138f4:	ebfffe0f 	bl	13138 <_start+0x93b4>
   138f8:	e3500000 	cmp	r0, #0
   138fc:	0a000037 	beq	139e0 <_start+0x9c5c>
   13900:	e59f1104 	ldr	r1, [pc, #260]	; 13a0c <_start+0x9c88>
   13904:	e3a02001 	mov	r2, #1
   13908:	e2840004 	add	r0, r4, #4
[31m   1390c:	ebffd8da 	bl	9c7c <sprintf@plt>[0m
   13910:	e2806004 	add	r6, r0, #4
   13914:	e59f10f4 	ldr	r1, [pc, #244]	; 13a10 <_start+0x9c8c>
   13918:	e3a02003 	mov	r2, #3
   1391c:	e0840006 	add	r0, r4, r6
[31m   13920:	ebffd8d5 	bl	9c7c <sprintf@plt>[0m
   13924:	e0866000 	add	r6, r6, r0
   13928:	e59f10e4 	ldr	r1, [pc, #228]	; 13a14 <_start+0x9c90>
   1392c:	e0840006 	add	r0, r4, r6
   13930:	e3a02001 	mov	r2, #1
[31m   13934:	ebffd8d0 	bl	9c7c <sprintf@plt>[0m
   13938:	e5953008 	ldr	r3, [r5, #8]
   1393c:	e0866000 	add	r6, r6, r0
   13940:	e3130004 	tst	r3, #4
   13944:	1a00000a 	bne	13974 <_start+0x9bf0>
   13948:	e5982000 	ldr	r2, [r8]
   1394c:	e28d8d05 	add	r8, sp, #320	; 0x140
   13950:	e59f10c0 	ldr	r1, [pc, #192]	; 13a18 <_start+0x9c94>
   13954:	e1a00008 	mov	r0, r8
   13958:	e6bf2f32 	rev	r2, r2
[31m   1395c:	ebffd8c6 	bl	9c7c <sprintf@plt>[0m
   13960:	e0840006 	add	r0, r4, r6
   13964:	e59f10b0 	ldr	r1, [pc, #176]	; 13a1c <_start+0x9c98>
   13968:	e1a02008 	mov	r2, r8
[31m   1396c:	ebffd8c2 	bl	9c7c <sprintf@plt>[0m
   13970:	e0866000 	add	r6, r6, r0
   13974:	e285200c 	add	r2, r5, #12
   13978:	e59f10a0 	ldr	r1, [pc, #160]	; 13a20 <_start+0x9c9c>
   1397c:	e0840006 	add	r0, r4, r6
[31m   13980:	ebffd8bd 	bl	9c7c <sprintf@plt>[0m
   13984:	e59f1078 	ldr	r1, [pc, #120]	; 13a04 <_start+0x9c80>
   13988:	e1a05000 	mov	r5, r0
--
   13a5c:	e2477008 	sub	r7, r7, #8
   13a60:	e28d6e41 	add	r6, sp, #1040	; 0x410
   13a64:	e28d4e51 	add	r4, sp, #1296	; 0x510
   13a68:	e58dc654 	str	ip, [sp, #1620]	; 0x654
   13a6c:	e58dc650 	str	ip, [sp, #1616]	; 0x650
   13a70:	e1a0c00b 	mov	ip, fp
   13a74:	e8ac0007 	stmia	ip!, {r0, r1, r2}
   13a78:	e3a01000 	mov	r1, #0
   13a7c:	e3a02b01 	mov	r2, #1024	; 0x400
   13a80:	e1a00007 	mov	r0, r7
   13a84:	e1cc30b0 	strh	r3, [ip]
   13a88:	ebffd854 	bl	9be0 <memset@plt>
   13a8c:	e1a00007 	mov	r0, r7
   13a90:	e3a01b01 	mov	r1, #1024	; 0x400
   13a94:	e59f23d8 	ldr	r2, [pc, #984]	; 13e74 <_start+0xa0f0>
   13a98:	ebfffe95 	bl	134f4 <_start+0x9770>
   13a9c:	e1a02005 	mov	r2, r5
   13aa0:	e59f13d0 	ldr	r1, [pc, #976]	; 13e78 <_start+0xa0f4>
   13aa4:	e1a00006 	mov	r0, r6
   13aa8:	e2855001 	add	r5, r5, #1
[31m   13aac:	ebffd872 	bl	9c7c <sprintf@plt>[0m
   13ab0:	e1a02006 	mov	r2, r6
   13ab4:	e3a01c01 	mov	r1, #256	; 0x100
--
   14624:	e2506000 	subs	r6, r0, #0
   14628:	0a0000a6 	beq	148c8 <_start+0xab44>
   1462c:	e1a01007 	mov	r1, r7
   14630:	e2888011 	add	r8, r8, #17
   14634:	e1a00009 	mov	r0, r9
   14638:	ebffd59e 	bl	9cb8 <strstr@plt>
   1463c:	e3a02021 	mov	r2, #33	; 0x21
   14640:	e2801011 	add	r1, r0, #17
   14644:	e1a00008 	mov	r0, r8
   14648:	ebffe771 	bl	e414 <_start+0x4690>
   1464c:	e1a00008 	mov	r0, r8
   14650:	e2861016 	add	r1, r6, #22
   14654:	e5d62015 	ldrb	r2, [r6, #21]
   14658:	ebffd58d 	bl	9c94 <bcmp@plt>
   1465c:	e3500000 	cmp	r0, #0
   14660:	1a000092 	bne	148b0 <_start+0xab2c>
   14664:	e28d80c0 	add	r8, sp, #192	; 0xc0
   14668:	e1a0200b 	mov	r2, fp
   1466c:	e59f12a8 	ldr	r1, [pc, #680]	; 1491c <_start+0xab98>
   14670:	e1a00008 	mov	r0, r8
[31m   14674:	ebffd580 	bl	9c7c <sprintf@plt>[0m
   14678:	e1a00006 	mov	r0, r6
   1467c:	e1a01008 	mov	r1, r8
--
   14800:	e59f1108 	ldr	r1, [pc, #264]	; 14910 <_start+0xab8c>
   14804:	ebfffa69 	bl	131b0 <_start+0x942c>
   14808:	eaffff56 	b	14568 <_start+0xa7e4>
   1480c:	e59f0128 	ldr	r0, [pc, #296]	; 1493c <_start+0xabb8>
   14810:	ebffd53d 	bl	9d0c <printf@plt>
   14814:	eaffff53 	b	14568 <_start+0xa7e4>
   14818:	e28d700c 	add	r7, sp, #12
   1481c:	e3a02010 	mov	r2, #16
   14820:	e1a01008 	mov	r1, r8
   14824:	e1a00007 	mov	r0, r7
   14828:	ebffe6f9 	bl	e414 <_start+0x4690>
   1482c:	e28d20e8 	add	r2, sp, #232	; 0xe8
   14830:	e1a00007 	mov	r0, r7
   14834:	e1a01005 	mov	r1, r5
   14838:	ebffd440 	bl	9940 <get_ifname_unit@plt>
   1483c:	e59d20ec 	ldr	r2, [sp, #236]	; 0xec
   14840:	e3520000 	cmp	r2, #0
   14844:	ba000015 	blt	148a0 <_start+0xab1c>
   14848:	e59f10f0 	ldr	r1, [pc, #240]	; 14940 <_start+0xabbc>
   1484c:	e1a00007 	mov	r0, r7
[31m   14850:	ebffd509 	bl	9c7c <sprintf@plt>[0m
   14854:	e1a00006 	mov	r0, r6
   14858:	e1a01007 	mov	r1, r7
--
   152d0:	ebffd242 	bl	9be0 <memset@plt>
   152d4:	e28d0e45 	add	r0, sp, #1104	; 0x450
   152d8:	e1a01007 	mov	r1, r7
   152dc:	e3a02040 	mov	r2, #64	; 0x40
   152e0:	e2800004 	add	r0, r0, #4
   152e4:	ebffd23d 	bl	9be0 <memset@plt>
   152e8:	e28d0e41 	add	r0, sp, #1040	; 0x410
   152ec:	e1a01007 	mov	r1, r7
   152f0:	e3a02040 	mov	r2, #64	; 0x40
   152f4:	e2800004 	add	r0, r0, #4
   152f8:	ebffd238 	bl	9be0 <memset@plt>
   152fc:	e59f3fbc 	ldr	r3, [pc, #4028]	; 162c0 <_start+0xc53c>
   15300:	e28dce4d 	add	ip, sp, #1232	; 0x4d0
   15304:	e28cc008 	add	ip, ip, #8
   15308:	e893000f 	ldm	r3, {r0, r1, r2, r3}
   1530c:	e8ac0007 	stmia	ip!, {r0, r1, r2}
   15310:	e1a0000b 	mov	r0, fp
   15314:	e1cc30b0 	strh	r3, [ip]
   15318:	e1a02006 	mov	r2, r6
   1531c:	e59f1fa0 	ldr	r1, [pc, #4000]	; 162c4 <_start+0xc540>
[31m   15320:	ebffd255 	bl	9c7c <sprintf@plt>[0m
   15324:	e5943000 	ldr	r3, [r4]
   15328:	e1530007 	cmp	r3, r7
   1532c:	1a000004 	bne	15344 <_start+0xb5c0>
   15330:	e3015003 	movw	r5, #4099	; 0x1003
   15334:	e1a00005 	mov	r0, r5
   15338:	e28ddf41 	add	sp, sp, #260	; 0x104
   1533c:	e28ddb01 	add	sp, sp, #1024	; 0x400
   15340:	e8bd8ff0 	pop	{r4, r5, r6, r7, r8, r9, sl, fp, pc}
   15344:	e59f0f7c 	ldr	r0, [pc, #3964]	; 162c8 <_start+0xc544>
   15348:	e28d8fc2 	add	r8, sp, #776	; 0x308
   1534c:	ebffe6af 	bl	ee10 <_start+0x508c>
   15350:	e59f1f74 	ldr	r1, [pc, #3956]	; 162cc <_start+0xc548>
   15354:	e3a0a001 	mov	sl, #1
   15358:	ebffd259 	bl	9cc4 <strcmp@plt>
   1535c:	e1500007 	cmp	r0, r7
   15360:	e5942004 	ldr	r2, [r4, #4]
   15364:	03a03001 	moveq	r3, #1
   15368:	15c4704c 	strbne	r7, [r4, #76]	; 0x4c
   1536c:	05c4304c 	strbeq	r3, [r4, #76]	; 0x4c
   15370:	e1a00008 	mov	r0, r8
   15374:	e59f1f54 	ldr	r1, [pc, #3924]	; 162d0 <_start+0xc54c>
   15378:	e3a07010 	mov	r7, #16
[31m   1537c:	ebffd23e 	bl	9c7c <sprintf@plt>[0m
   15380:	e1a00008 	mov	r0, r8
   15384:	ebffe6a1 	bl	ee10 <_start+0x508c>
--
   154fc:	e5d4304c 	ldrb	r3, [r4, #76]	; 0x4c
   15500:	e3530000 	cmp	r3, #0
   15504:	0a0001c7 	beq	15c28 <_start+0xbea4>
   15508:	e30f2b6a 	movw	r2, #64362	; 0xfb6a
   1550c:	e30f3b6c 	movw	r3, #64364	; 0xfb6c
   15510:	e28d9c05 	add	r9, sp, #1280	; 0x500
   15514:	e34f2fff 	movt	r2, #65535	; 0xffff
   15518:	e34f3fff 	movt	r3, #65535	; 0xffff
   1551c:	e3a07023 	mov	r7, #35	; 0x23
   15520:	e3a0c00d 	mov	ip, #13
   15524:	e18970b2 	strh	r7, [r9, r2]
   15528:	e189c0b3 	strh	ip, [r9, r3]
   1552c:	e5943024 	ldr	r3, [r4, #36]	; 0x24
   15530:	e3a07001 	mov	r7, #1
   15534:	e5cd706e 	strb	r7, [sp, #110]	; 0x6e
   15538:	e3530000 	cmp	r3, #0
   1553c:	0a0002f0 	beq	16104 <_start+0xc380>
   15540:	e59f1da8 	ldr	r1, [pc, #3496]	; 162f0 <_start+0xc56c>
   15544:	e1a00008 	mov	r0, r8
   15548:	e5942004 	ldr	r2, [r4, #4]
[31m   1554c:	ebffd1ca 	bl	9c7c <sprintf@plt>[0m
   15550:	e1a00008 	mov	r0, r8
   15554:	ebffe62d 	bl	ee10 <_start+0x508c>
--
   15f2c:	ebffcf8e 	bl	9d6c <strcpy@plt>
   15f30:	e1a00008 	mov	r0, r8
   15f34:	e28d9e4e 	add	r9, sp, #1248	; 0x4e0
   15f38:	ebffcea4 	bl	99d0 <strlen@plt>
   15f3c:	e59f1430 	ldr	r1, [pc, #1072]	; 16374 <_start+0xc5f0>
   15f40:	e3a02004 	mov	r2, #4
   15f44:	e0880000 	add	r0, r8, r0
   15f48:	e2899008 	add	r9, r9, #8
   15f4c:	ebffce45 	bl	9868 <memcpy@plt>
   15f50:	e1a00008 	mov	r0, r8
   15f54:	ebffe3ad 	bl	ee10 <_start+0x508c>
   15f58:	e3a01000 	mov	r1, #0
   15f5c:	e58d0018 	str	r0, [sp, #24]
   15f60:	e1a02001 	mov	r2, r1
   15f64:	ebffce69 	bl	9910 <strtoul@plt>
   15f68:	e59d3018 	ldr	r3, [sp, #24]
   15f6c:	e58d0024 	str	r0, [sp, #36]	; 0x24
   15f70:	e1a00009 	mov	r0, r9
   15f74:	e59f13fc 	ldr	r1, [pc, #1020]	; 16378 <_start+0xc5f4>
   15f78:	e1a02003 	mov	r2, r3
[31m   15f7c:	ebffcf3e 	bl	9c7c <sprintf@plt>[0m
   15f80:	e1a0100b 	mov	r1, fp
   15f84:	e1a00008 	mov	r0, r8
--
   160c0:	0afffc9a 	beq	15330 <_start+0xb5ac>
   160c4:	e2068084 	and	r8, r6, #132	; 0x84
   160c8:	e2069004 	and	r9, r6, #4
   160cc:	e2066080 	and	r6, r6, #128	; 0x80
   160d0:	eafffe4e 	b	15a10 <_start+0xbc8c>
   160d4:	e59f3258 	ldr	r3, [pc, #600]	; 16334 <_start+0xc5b0>
   160d8:	e207e006 	and	lr, r7, #6
   160dc:	e59dc014 	ldr	ip, [sp, #20]
   160e0:	e3a09000 	mov	r9, #0
   160e4:	e8930003 	ldm	r3, {r0, r1}
   160e8:	e88c0003 	stm	ip, {r0, r1}
   160ec:	eafffdd4 	b	15844 <_start+0xbac0>
   160f0:	e59f3244 	ldr	r3, [pc, #580]	; 1633c <_start+0xc5b8>
   160f4:	e8930003 	ldm	r3, {r0, r1}
   160f8:	e58d0414 	str	r0, [sp, #1044]	; 0x414
   160fc:	e5cd1418 	strb	r1, [sp, #1048]	; 0x418
   16100:	eafffdd8 	b	15868 <_start+0xbae4>
   16104:	e59f1280 	ldr	r1, [pc, #640]	; 1638c <_start+0xc608>
   16108:	e1a02006 	mov	r2, r6
   1610c:	e1a00008 	mov	r0, r8
[31m   16110:	ebffced9 	bl	9c7c <sprintf@plt>[0m
   16114:	e1a00008 	mov	r0, r8
   16118:	ebffe33c 	bl	ee10 <_start+0x508c>
--
   16228:	e59f310c 	ldr	r3, [pc, #268]	; 1633c <_start+0xc5b8>
   1622c:	e8930003 	ldm	r3, {r0, r1}
   16230:	e58d0414 	str	r0, [sp, #1044]	; 0x414
   16234:	e5cd1418 	strb	r1, [sp, #1048]	; 0x418
   16238:	eafffdae 	b	158f8 <_start+0xbb74>
   1623c:	e3015002 	movw	r5, #4098	; 0x1002
   16240:	eafffc3b 	b	15334 <_start+0xb5b0>
   16244:	e3a03002 	mov	r3, #2
   16248:	e59f1148 	ldr	r1, [pc, #328]	; 16398 <_start+0xc614>
   1624c:	e59f013c 	ldr	r0, [pc, #316]	; 16390 <_start+0xc60c>
   16250:	e5cd3118 	strb	r3, [sp, #280]	; 0x118
   16254:	ebffe37c 	bl	f04c <_start+0x52c8>
   16258:	eafffcc0 	b	15560 <_start+0xb7dc>
   1625c:	e3580004 	cmp	r8, #4
   16260:	1afffdfc 	bne	15a58 <_start+0xbcd4>
   16264:	eafffc31 	b	15330 <_start+0xb5ac>
   16268:	e28d7fdb 	add	r7, sp, #876	; 0x36c
   1626c:	e59f1128 	ldr	r1, [pc, #296]	; 1639c <_start+0xc618>
   16270:	e5942004 	ldr	r2, [r4, #4]
   16274:	e1a00007 	mov	r0, r7
[31m   16278:	ebffce7f 	bl	9c7c <sprintf@plt>[0m
   1627c:	e1a00007 	mov	r0, r7
   16280:	ebffe2e2 	bl	ee10 <_start+0x508c>
--
   164e4:	e1a0b003 	mov	fp, r3
   164e8:	e1a09001 	mov	r9, r1
   164ec:	e5dd30c8 	ldrb	r3, [sp, #200]	; 0xc8
   164f0:	e3520000 	cmp	r2, #0
   164f4:	13540000 	cmpne	r4, #0
   164f8:	e5dd20c4 	ldrb	r2, [sp, #196]	; 0xc4
   164fc:	e58d0000 	str	r0, [sp]
   16500:	e5cd300b 	strb	r3, [sp, #11]
   16504:	e5cd200a 	strb	r2, [sp, #10]
   16508:	1a000002 	bne	16518 <_start+0xc794>
   1650c:	e3010016 	movw	r0, #4118	; 0x1016
   16510:	e28dd08c 	add	sp, sp, #140	; 0x8c
   16514:	e8bd8ff0 	pop	{r4, r5, r6, r7, r8, r9, sl, fp, pc}
   16518:	e59f0274 	ldr	r0, [pc, #628]	; 16794 <_start+0xca10>
   1651c:	e1a01004 	mov	r1, r4
   16520:	e28da014 	add	sl, sp, #20
   16524:	ebfff19b 	bl	12b98 <_start+0x8e14>
   16528:	e59f1268 	ldr	r1, [pc, #616]	; 16798 <_start+0xca14>
   1652c:	e1a02004 	mov	r2, r4
   16530:	e1a0000a 	mov	r0, sl
[31m   16534:	ebffcdd0 	bl	9c7c <sprintf@plt>[0m
   16538:	e1a0000a 	mov	r0, sl
   1653c:	ebffe233 	bl	ee10 <_start+0x508c>
   16540:	e59f1254 	ldr	r1, [pc, #596]	; 1679c <_start+0xca18>
   16544:	ebffcdde 	bl	9cc4 <strcmp@plt>
   16548:	e2506000 	subs	r6, r0, #0
   1654c:	1affffee 	bne	1650c <_start+0xc788>
   16550:	ebffe1ba 	bl	ec40 <_start+0x4ebc>
   16554:	e3500000 	cmp	r0, #0
   16558:	e58d000c 	str	r0, [sp, #12]
   1655c:	da00008a 	ble	1678c <_start+0xca08>
   16560:	e58d6004 	str	r6, [sp, #4]
   16564:	e1a07005 	mov	r7, r5
   16568:	e59d8004 	ldr	r8, [sp, #4]
   1656c:	e28d6078 	add	r6, sp, #120	; 0x78
   16570:	e59d2004 	ldr	r2, [sp, #4]
   16574:	e1a0000a 	mov	r0, sl
   16578:	e59f1220 	ldr	r1, [pc, #544]	; 167a0 <_start+0xca1c>
[31m   1657c:	ebffcdbe 	bl	9c7c <sprintf@plt>[0m
   16580:	e1a0000a 	mov	r0, sl
   16584:	ebffe221 	bl	ee10 <_start+0x508c>
--
   16f64:	ebffcb56 	bl	9cc4 <strcmp@plt>
   16f68:	e2507000 	subs	r7, r0, #0
   16f6c:	158d8014 	strne	r8, [sp, #20]
   16f70:	11a0b008 	movne	fp, r8
   16f74:	0a000069 	beq	17120 <_start+0xd39c>
   16f78:	e28dae46 	add	sl, sp, #1120	; 0x460
   16f7c:	e3a06000 	mov	r6, #0
   16f80:	e28d3b01 	add	r3, sp, #1024	; 0x400
   16f84:	e28aa004 	add	sl, sl, #4
   16f88:	e59d0018 	ldr	r0, [sp, #24]
   16f8c:	e1a0100a 	mov	r1, sl
   16f90:	e1c366b8 	strh	r6, [r3, #104]	; 0x68
   16f94:	e1a08006 	mov	r8, r6
   16f98:	e58d6464 	str	r6, [sp, #1124]	; 0x464
   16f9c:	ebffdbf5 	bl	df78 <_start+0x41f4>
   16fa0:	e3700001 	cmn	r0, #1
   16fa4:	0a00005a 	beq	17114 <_start+0xd390>
   16fa8:	e59d2024 	ldr	r2, [sp, #36]	; 0x24
   16fac:	e28d0d0f 	add	r0, sp, #960	; 0x3c0
   16fb0:	e59f14d4 	ldr	r1, [pc, #1236]	; 1748c <_start+0xd708>
[31m   16fb4:	ebffcb30 	bl	9c7c <sprintf@plt>[0m
   16fb8:	e28d0d0f 	add	r0, sp, #960	; 0x3c0
   16fbc:	ebffdf93 	bl	ee10 <_start+0x508c>
--
   17248:	e28d0d11 	add	r0, sp, #1088	; 0x440
   1724c:	e59f123c 	ldr	r1, [pc, #572]	; 17490 <_start+0xd70c>
   17250:	e2800004 	add	r0, r0, #4
   17254:	ebffca7c 	bl	9c4c <strcspn@plt>
   17258:	e28dce47 	add	ip, sp, #1136	; 0x470
   1725c:	e3a02000 	mov	r2, #0
   17260:	e08c3000 	add	r3, ip, r0
   17264:	e3a01020 	mov	r1, #32
   17268:	e543202c 	strb	r2, [r3, #-44]	; 0xffffffd4
   1726c:	e1a00006 	mov	r0, r6
   17270:	e5cd2453 	strb	r2, [sp, #1107]	; 0x453
   17274:	ebffca9e 	bl	9cf4 <strchr@plt>
   17278:	e5dd3444 	ldrb	r3, [sp, #1092]	; 0x444
   1727c:	e58d001c 	str	r0, [sp, #28]
   17280:	e3530000 	cmp	r3, #0
   17284:	1affff65 	bne	17020 <_start+0xd29c>
   17288:	e59d2024 	ldr	r2, [sp, #36]	; 0x24
   1728c:	e28d0d0f 	add	r0, sp, #960	; 0x3c0
   17290:	e59f11f4 	ldr	r1, [pc, #500]	; 1748c <_start+0xd708>
   17294:	e3a07000 	mov	r7, #0
[31m   17298:	ebffca77 	bl	9c7c <sprintf@plt>[0m
   1729c:	e28d0d0f 	add	r0, sp, #960	; 0x3c0
   172a0:	ebffdeda 	bl	ee10 <_start+0x508c>
--
   172c4:	ebffca2d 	bl	9b80 <strncpy@plt>
   172c8:	e28d0d11 	add	r0, sp, #1088	; 0x440
   172cc:	e59f11bc 	ldr	r1, [pc, #444]	; 17490 <_start+0xd70c>
   172d0:	e2800004 	add	r0, r0, #4
   172d4:	ebffca5c 	bl	9c4c <strcspn@plt>
   172d8:	e28dce47 	add	ip, sp, #1136	; 0x470
   172dc:	e3a01020 	mov	r1, #32
   172e0:	e08c3000 	add	r3, ip, r0
   172e4:	e1a00006 	mov	r0, r6
   172e8:	e543702c 	strb	r7, [r3, #-44]	; 0xffffffd4
   172ec:	e5cd7453 	strb	r7, [sp, #1107]	; 0x453
   172f0:	ebffca7f 	bl	9cf4 <strchr@plt>
   172f4:	e5dd3444 	ldrb	r3, [sp, #1092]	; 0x444
   172f8:	e1a06000 	mov	r6, r0
   172fc:	e1530007 	cmp	r3, r7
   17300:	0a000025 	beq	1739c <_start+0xd618>
   17304:	e28d2d11 	add	r2, sp, #1088	; 0x440
   17308:	e59f1190 	ldr	r1, [pc, #400]	; 174a0 <_start+0xd71c>
   1730c:	e2822004 	add	r2, r2, #4
   17310:	e28d0d0f 	add	r0, sp, #960	; 0x3c0
[31m   17314:	ebffca58 	bl	9c7c <sprintf@plt>[0m
   17318:	e28d0d0f 	add	r0, sp, #960	; 0x3c0
   1731c:	ebffdebb 	bl	ee10 <_start+0x508c>
--
   1751c:	e3a01005 	mov	r1, #5
   17520:	e1a0200b 	mov	r2, fp
   17524:	e1a03005 	mov	r3, r5
   17528:	e1a09004 	mov	r9, r4
   1752c:	e285a012 	add	sl, r5, #18
   17530:	ebffdbb6 	bl	e410 <_start+0x468c>
   17534:	e4c98001 	strb	r8, [r9], #1
   17538:	e1a00009 	mov	r0, r9
   1753c:	e5d61004 	ldrb	r1, [r6, #4]
   17540:	e5d6e002 	ldrb	lr, [r6, #2]
   17544:	e5d63001 	ldrb	r3, [r6, #1]
   17548:	e5d62000 	ldrb	r2, [r6]
   1754c:	e5d68003 	ldrb	r8, [r6, #3]
   17550:	e58d1014 	str	r1, [sp, #20]
   17554:	e5d6c005 	ldrb	ip, [r6, #5]
   17558:	e58de000 	str	lr, [sp]
   1755c:	e59de014 	ldr	lr, [sp, #20]
   17560:	e59f1204 	ldr	r1, [pc, #516]	; 1776c <_start+0xd9e8>
   17564:	e58dc00c 	str	ip, [sp, #12]
   17568:	e98d4100 	stmib	sp, {r8, lr}
[31m   1756c:	ebffc9c2 	bl	9c7c <sprintf@plt>[0m
   17570:	e1a0100b 	mov	r1, fp
   17574:	e1a02005 	mov	r2, r5
--
   175e0:	e068200a 	rsb	r2, r8, sl
   175e4:	e3520001 	cmp	r2, #1
   175e8:	0a000050 	beq	17730 <_start+0xd9ac>
   175ec:	e3520002 	cmp	r2, #2
   175f0:	0a000053 	beq	17744 <_start+0xd9c0>
   175f4:	e35b0000 	cmp	fp, #0
   175f8:	13550009 	cmpne	r5, #9
   175fc:	e3a03000 	mov	r3, #0
   17600:	e5c63000 	strb	r3, [r6]
   17604:	ca000027 	bgt	176a8 <_start+0xd924>
   17608:	e28d5028 	add	r5, sp, #40	; 0x28
   1760c:	e3a03000 	mov	r3, #0
   17610:	e2899001 	add	r9, r9, #1
   17614:	e5c43000 	strb	r3, [r4]
   17618:	e1a00004 	mov	r0, r4
   1761c:	e5c43001 	strb	r3, [r4, #1]
   17620:	e59d2014 	ldr	r2, [sp, #20]
   17624:	e59f1144 	ldr	r1, [pc, #324]	; 17770 <_start+0xd9ec>
   17628:	e4c93001 	strb	r3, [r9], #1
   1762c:	e5c93000 	strb	r3, [r9]
[31m   17630:	ebffc991 	bl	9c7c <sprintf@plt>[0m
   17634:	e59d2060 	ldr	r2, [sp, #96]	; 0x60
   17638:	e58d4018 	str	r4, [sp, #24]
--
   17a7c:	e28dee5e 	add	lr, sp, #1504	; 0x5e0
   17a80:	e34f3fff 	movt	r3, #65535	; 0xffff
   17a84:	e18e00b3 	strh	r0, [lr, r3]
   17a88:	e3590000 	cmp	r9, #0
   17a8c:	0a000083 	beq	17ca0 <_start+0xdf1c>
   17a90:	e30f2a62 	movw	r2, #64098	; 0xfa62
   17a94:	e28d1e5e 	add	r1, sp, #1504	; 0x5e0
   17a98:	e34f2fff 	movt	r2, #65535	; 0xffff
   17a9c:	e30f3a64 	movw	r3, #64100	; 0xfa64
   17aa0:	e3a00023 	mov	r0, #35	; 0x23
   17aa4:	e34f3fff 	movt	r3, #65535	; 0xffff
   17aa8:	e18100b2 	strh	r0, [r1, r2]
   17aac:	e3a0200d 	mov	r2, #13
   17ab0:	e18120b3 	strh	r2, [r1, r3]
   17ab4:	e28d4e5a 	add	r4, sp, #1440	; 0x5a0
   17ab8:	e5952004 	ldr	r2, [r5, #4]
   17abc:	e59f1280 	ldr	r1, [pc, #640]	; 17d44 <_start+0xdfc0>
   17ac0:	e3a06001 	mov	r6, #1
   17ac4:	e1a00004 	mov	r0, r4
   17ac8:	e5cd6046 	strb	r6, [sp, #70]	; 0x46
[31m   17acc:	ebffc86a 	bl	9c7c <sprintf@plt>[0m
   17ad0:	e1a00004 	mov	r0, r4
   17ad4:	e28dbe5e 	add	fp, sp, #1504	; 0x5e0
--
   17b5c:	ebffdcab 	bl	ee10 <_start+0x508c>
   17b60:	e3a02021 	mov	r2, #33	; 0x21
   17b64:	e1a01000 	mov	r1, r0
   17b68:	e2870017 	add	r0, r7, #23
   17b6c:	e30f7a58 	movw	r7, #64088	; 0xfa58
   17b70:	ebffda27 	bl	e414 <_start+0x4690>
   17b74:	e30fe204 	movw	lr, #61956	; 0xf204
   17b78:	e30fca60 	movw	ip, #64096	; 0xfa60
   17b7c:	e340e050 	movt	lr, #80	; 0x50
   17b80:	e3a03006 	mov	r3, #6
   17b84:	e34fcfff 	movt	ip, #65535	; 0xffff
   17b88:	e58de03c 	str	lr, [sp, #60]	; 0x3c
   17b8c:	e34f7fff 	movt	r7, #65535	; 0xffff
   17b90:	e3a0e001 	mov	lr, #1
   17b94:	e59f11c4 	ldr	r1, [pc, #452]	; 17d60 <_start+0xdfdc>
   17b98:	e1a00004 	mov	r0, r4
   17b9c:	e5952004 	ldr	r2, [r5, #4]
   17ba0:	e18b30b7 	strh	r3, [fp, r7]
   17ba4:	e18be0bc 	strh	lr, [fp, ip]
   17ba8:	e5cde102 	strb	lr, [sp, #258]	; 0x102
[31m   17bac:	ebffc832 	bl	9c7c <sprintf@plt>[0m
   17bb0:	e1a00004 	mov	r0, r4
   17bb4:	ebffdc95 	bl	ee10 <_start+0x508c>
--
   17f3c:	1a000001 	bne	17f48 <_start+0xe1c4>
   17f40:	e28dd0ec 	add	sp, sp, #236	; 0xec
   17f44:	e8bd8ff0 	pop	{r4, r5, r6, r7, r8, r9, sl, fp, pc}
   17f48:	e2870001 	add	r0, r7, #1
   17f4c:	e3a01004 	mov	r1, #4
   17f50:	ebffc626 	bl	97f0 <calloc@plt>
   17f54:	e3500000 	cmp	r0, #0
   17f58:	e58d000c 	str	r0, [sp, #12]
   17f5c:	0afffff7 	beq	17f40 <_start+0xe1bc>
   17f60:	e3570000 	cmp	r7, #0
   17f64:	dafffff5 	ble	17f40 <_start+0xe1bc>
   17f68:	e3a06000 	mov	r6, #0
   17f6c:	e28d401c 	add	r4, sp, #28
   17f70:	e1a05006 	mov	r5, r6
   17f74:	e28d8080 	add	r8, sp, #128	; 0x80
   17f78:	e1a0b006 	mov	fp, r6
   17f7c:	e1a0a006 	mov	sl, r6
   17f80:	e59f140c 	ldr	r1, [pc, #1036]	; 18394 <_start+0xe610>
   17f84:	e1a02005 	mov	r2, r5
   17f88:	e1a00004 	mov	r0, r4
[31m   17f8c:	ebffc73a 	bl	9c7c <sprintf@plt>[0m
   17f90:	e1a00004 	mov	r0, r4
   17f94:	ebffdb7c 	bl	ed8c <_start+0x5008>
   17f98:	e2506000 	subs	r6, r0, #0
   17f9c:	0a00003c 	beq	18094 <_start+0xe310>
   17fa0:	e59f13f0 	ldr	r1, [pc, #1008]	; 18398 <_start+0xe614>
   17fa4:	e1a02005 	mov	r2, r5
   17fa8:	e1a00004 	mov	r0, r4
[31m   17fac:	ebffc732 	bl	9c7c <sprintf@plt>[0m
   17fb0:	e1a00004 	mov	r0, r4
   17fb4:	ebffdb74 	bl	ed8c <_start+0x5008>
   17fb8:	e3500000 	cmp	r0, #0
   17fbc:	0a000034 	beq	18094 <_start+0xe310>
   17fc0:	e59f13d4 	ldr	r1, [pc, #980]	; 1839c <_start+0xe618>
   17fc4:	e1a02005 	mov	r2, r5
   17fc8:	e1a00004 	mov	r0, r4
[31m   17fcc:	ebffc72a 	bl	9c7c <sprintf@plt>[0m
   17fd0:	e1a00004 	mov	r0, r4
   17fd4:	ebffdb6c 	bl	ed8c <_start+0x5008>
--
   181d4:	e5878018 	str	r8, [r7, #24]
   181d8:	e8930003 	ldm	r3, {r0, r1}
   181dc:	e587003c 	str	r0, [r7, #60]	; 0x3c
   181e0:	e2870042 	add	r0, r7, #66	; 0x42
   181e4:	e1c714b0 	strh	r1, [r7, #64]	; 0x40
   181e8:	e1a01006 	mov	r1, r6
   181ec:	ebffd888 	bl	e414 <_start+0x4690>
   181f0:	e2870008 	add	r0, r7, #8
   181f4:	e59d100c 	ldr	r1, [sp, #12]
   181f8:	e3a02010 	mov	r2, #16
   181fc:	ebffd884 	bl	e414 <_start+0x4690>
   18200:	e59a3024 	ldr	r3, [sl, #36]	; 0x24
   18204:	e58a7024 	str	r7, [sl, #36]	; 0x24
   18208:	e5873000 	str	r3, [r7]
   1820c:	e2855001 	add	r5, r5, #1
   18210:	e15b0005 	cmp	fp, r5
   18214:	da000051 	ble	18360 <_start+0xe5dc>
   18218:	e59f1178 	ldr	r1, [pc, #376]	; 18398 <_start+0xe614>
   1821c:	e1a02005 	mov	r2, r5
   18220:	e1a00004 	mov	r0, r4
[31m   18224:	ebffc694 	bl	9c7c <sprintf@plt>[0m
   18228:	e1a00004 	mov	r0, r4
   1822c:	ebffdad6 	bl	ed8c <_start+0x5008>
   18230:	e2508000 	subs	r8, r0, #0
   18234:	0afffff4 	beq	1820c <_start+0xe488>
   18238:	e59f1154 	ldr	r1, [pc, #340]	; 18394 <_start+0xe610>
   1823c:	e1a02005 	mov	r2, r5
   18240:	e1a00004 	mov	r0, r4
[31m   18244:	ebffc68c 	bl	9c7c <sprintf@plt>[0m
   18248:	e1a00004 	mov	r0, r4
   1824c:	ebffdace 	bl	ed8c <_start+0x5008>

[0m
[[0;33m*[0m] Function [0;33msprintf[0m used [0;33m106[0m times [0;33mwps_monitor[0m

