[[0;33m*[0m] Binary protection state of [0;33macs_cli[0m
[REF] s12

  	RELRO          CANARY            NX           PIE       RPATH        RUNPATH      SYMBOLS      
  	[31mNo RELRO[0m       [31mNo Canary found[0m   [32mNX enabled[0m   [31mNo PIE[0m       [32mNo RPATH[0m     [32mNo RUNPATH[0m   [32mNo Symbols[0m

[0m
[[0;33m*[0m] Function [0;33msprintf[0m tear down of [0;33macs_cli[0m

    8ab8:	0000a4f0 	strdeq	sl, [r0], -r0
    8abc:	00013210 	andeq	r3, r1, r0, lsl r2
    8ac0:	e92d4070 	push	{r4, r5, r6, lr}
    8ac4:	e1a05001 	mov	r5, r1
    8ac8:	e5900004 	ldr	r0, [r0, #4]
    8acc:	e24dd010 	sub	sp, sp, #16
    8ad0:	e3500000 	cmp	r0, #0
    8ad4:	0a00001b 	beq	8b48 <_start+0x1a0>
    8ad8:	e59f409c 	ldr	r4, [pc, #156]	; 8b7c <_start+0x1d4>
    8adc:	e3a03000 	mov	r3, #0
    8ae0:	e28d1010 	add	r1, sp, #16
    8ae4:	e1a02003 	mov	r2, r3
    8ae8:	e5213004 	str	r3, [r1, #-4]!
    8aec:	ebffff68 	bl	8894 <strtoul@plt>
    8af0:	e3063573 	movw	r3, #25971	; 0x6573
    8af4:	e1a06000 	mov	r6, r0
    8af8:	e3403074 	movt	r3, #116	; 0x74
    8afc:	e1a00004 	mov	r0, r4
    8b00:	e1a01005 	mov	r1, r5
    8b04:	e4803080 	str	r3, [r0], #128	; 0x80
[31m    8b08:	ebffff91 	bl	8954 <sprintf@plt>[0m
    8b0c:	e6bfcf36 	rev	ip, r6
    8b10:	e59f1068 	ldr	r1, [pc, #104]	; 8b80 <_start+0x1d8>
    8b14:	e58dc000 	str	ip, [sp]
    8b18:	e1a02004 	mov	r2, r4
    8b1c:	e59fc060 	ldr	ip, [pc, #96]	; 8b84 <_start+0x1dc>
    8b20:	e2440a01 	sub	r0, r4, #4096	; 0x1000
    8b24:	e2843080 	add	r3, r4, #128	; 0x80
    8b28:	e58dc004 	str	ip, [sp, #4]
[31m    8b2c:	ebffff88 	bl	8954 <sprintf@plt>[0m
    8b30:	e59f2050 	ldr	r2, [pc, #80]	; 8b88 <_start+0x1e0>
    8b34:	e2800001 	add	r0, r0, #1
    8b38:	e3013118 	movw	r3, #4376	; 0x1118
    8b3c:	e7820003 	str	r0, [r2, r3]
    8b40:	e28dd010 	add	sp, sp, #16
    8b44:	e8bd8070 	pop	{r4, r5, r6, pc}
    8b48:	e59f402c 	ldr	r4, [pc, #44]	; 8b7c <_start+0x1d4>
    8b4c:	e3063567 	movw	r3, #25959	; 0x6567
    8b50:	e3403074 	movt	r3, #116	; 0x74
    8b54:	e1a00004 	mov	r0, r4
    8b58:	e4803080 	str	r3, [r0], #128	; 0x80
[31m    8b5c:	ebffff7c 	bl	8954 <sprintf@plt>[0m
    8b60:	e59fc01c 	ldr	ip, [pc, #28]	; 8b84 <_start+0x1dc>
    8b64:	e1a02004 	mov	r2, r4
--
    8c24:	e1a00007 	mov	r0, r7
    8c28:	e1a01008 	mov	r1, r8
    8c2c:	ebffff42 	bl	893c <strcmp@plt>
    8c30:	e3500000 	cmp	r0, #0
    8c34:	1a00003c 	bne	8d2c <_start+0x384>
    8c38:	e5b43004 	ldr	r3, [r4, #4]!
    8c3c:	e3530000 	cmp	r3, #0
    8c40:	0a000172 	beq	9210 <_start+0x868>
    8c44:	e59f7c30 	ldr	r7, [pc, #3120]	; 987c <_start+0xed4>
    8c48:	e8980003 	ldm	r8, {r0, r1}
    8c4c:	e5870000 	str	r0, [r7]
    8c50:	e2870080 	add	r0, r7, #128	; 0x80
    8c54:	e5c71004 	strb	r1, [r7, #4]
    8c58:	e5941000 	ldr	r1, [r4]
    8c5c:	ebfffeee 	bl	881c <strcpy@plt>
    8c60:	e2873080 	add	r3, r7, #128	; 0x80
    8c64:	e1a02007 	mov	r2, r7
    8c68:	e2470a01 	sub	r0, r7, #4096	; 0x1000
    8c6c:	e59f1c0c 	ldr	r1, [pc, #3084]	; 9880 <_start+0xed8>
    8c70:	e58d5000 	str	r5, [sp]
[31m    8c74:	ebffff36 	bl	8954 <sprintf@plt>[0m
    8c78:	e3013118 	movw	r3, #4376	; 0x1118
    8c7c:	e2800001 	add	r0, r0, #1
--
    917c:	ebfffdee 	bl	893c <strcmp@plt>
    9180:	e2507000 	subs	r7, r0, #0
    9184:	0a00010c 	beq	95bc <_start+0xc14>
    9188:	e5d40018 	ldrb	r0, [r4, #24]
    918c:	e3500000 	cmp	r0, #0
    9190:	0affffbb 	beq	9084 <_start+0x6dc>
    9194:	e1a00006 	mov	r0, r6
    9198:	ebfffdb7 	bl	887c <puts@plt>
    919c:	e1a0000b 	mov	r0, fp
    91a0:	eaffffb7 	b	9084 <_start+0x6dc>
    91a4:	e8950003 	ldm	r5, {r0, r1}
    91a8:	e59fc6cc 	ldr	ip, [pc, #1740]	; 987c <_start+0xed4>
    91ac:	e59f36e8 	ldr	r3, [pc, #1768]	; 989c <_start+0xef4>
    91b0:	e1a0e821 	lsr	lr, r1, #16
    91b4:	e58c0000 	str	r0, [ip]
    91b8:	e1cc10b4 	strh	r1, [ip, #4]
    91bc:	e24c0a01 	sub	r0, ip, #4096	; 0x1000
    91c0:	e59f1770 	ldr	r1, [pc, #1904]	; 9938 <_start+0xf90>
    91c4:	e1a0200c 	mov	r2, ip
    91c8:	e5cce006 	strb	lr, [ip, #6]
[31m    91cc:	ebfffde0 	bl	8954 <sprintf@plt>[0m
    91d0:	e3013118 	movw	r3, #4376	; 0x1118
    91d4:	e2800001 	add	r0, r0, #1
    91d8:	e7860003 	str	r0, [r6, r3]
    91dc:	eafffea8 	b	8c84 <_start+0x2dc>
    91e0:	e8950007 	ldm	r5, {r0, r1, r2}
    91e4:	e59fc690 	ldr	ip, [pc, #1680]	; 987c <_start+0xed4>
    91e8:	e59f36ac 	ldr	r3, [pc, #1708]	; 989c <_start+0xef4>
    91ec:	e88c0007 	stm	ip, {r0, r1, r2}
    91f0:	e24c0a01 	sub	r0, ip, #4096	; 0x1000
    91f4:	e59f173c 	ldr	r1, [pc, #1852]	; 9938 <_start+0xf90>
    91f8:	e1a0200c 	mov	r2, ip
[31m    91fc:	ebfffdd4 	bl	8954 <sprintf@plt>[0m
    9200:	e3013118 	movw	r3, #4376	; 0x1118
    9204:	e2800001 	add	r0, r0, #1
--
    9558:	e3100c01 	tst	r0, #256	; 0x100
    955c:	01a0c005 	moveq	ip, r5
    9560:	e59f0414 	ldr	r0, [pc, #1044]	; 997c <_start+0xfd4>
    9564:	e98d1a00 	stmib	sp, {r9, fp, ip}
    9568:	ebfffcae 	bl	8828 <printf@plt>
    956c:	e5d4301a 	ldrb	r3, [r4, #26]
    9570:	e3530000 	cmp	r3, #0
    9574:	0affffda 	beq	94e4 <_start+0xb3c>
    9578:	eaffffd7 	b	94dc <_start+0xb34>
    957c:	e1a00004 	mov	r0, r4
    9580:	e59f1348 	ldr	r1, [pc, #840]	; 98d0 <_start+0xf28>
    9584:	ebfffd4d 	bl	8ac0 <_start+0x118>
    9588:	eafffdbd 	b	8c84 <_start+0x2dc>
    958c:	e59f32e8 	ldr	r3, [pc, #744]	; 987c <_start+0xed4>
    9590:	e8950003 	ldm	r5, {r0, r1}
    9594:	e1a02003 	mov	r2, r3
    9598:	e5830000 	str	r0, [r3]
    959c:	e2430a01 	sub	r0, r3, #4096	; 0x1000
    95a0:	e5c31004 	strb	r1, [r3, #4]
    95a4:	e59f13d4 	ldr	r1, [pc, #980]	; 9980 <_start+0xfd8>
[31m    95a8:	ebfffce9 	bl	8954 <sprintf@plt>[0m
    95ac:	e3013118 	movw	r3, #4376	; 0x1118
    95b0:	e2800001 	add	r0, r0, #1
--
    9614:	ebfffc83 	bl	8828 <printf@plt>
    9618:	e3a00002 	mov	r0, #2
    961c:	eafffe98 	b	9084 <_start+0x6dc>
    9620:	ebfffcd7 	bl	8984 <__errno_location@plt>
    9624:	e5900000 	ldr	r0, [r0]
    9628:	ebfffc84 	bl	8840 <strerror@plt>
    962c:	e1a01000 	mov	r1, r0
    9630:	e59f0358 	ldr	r0, [pc, #856]	; 9990 <_start+0xfe8>
    9634:	ebfffc7b 	bl	8828 <printf@plt>
    9638:	e3a00002 	mov	r0, #2
    963c:	eafffe90 	b	9084 <_start+0x6dc>
    9640:	e8950003 	ldm	r5, {r0, r1}
    9644:	e59f3230 	ldr	r3, [pc, #560]	; 987c <_start+0xed4>
    9648:	e1a0c821 	lsr	ip, r1, #16
    964c:	e5830000 	str	r0, [r3]
    9650:	e1c310b4 	strh	r1, [r3, #4]
    9654:	e2430a01 	sub	r0, r3, #4096	; 0x1000
    9658:	e1a02003 	mov	r2, r3
    965c:	e5c3c006 	strb	ip, [r3, #6]
    9660:	e59f1318 	ldr	r1, [pc, #792]	; 9980 <_start+0xfd8>
[31m    9664:	ebfffcba 	bl	8954 <sprintf@plt>[0m
    9668:	e3013118 	movw	r3, #4376	; 0x1118
    966c:	e2800001 	add	r0, r0, #1
--
    99f8:	e1540006 	cmp	r4, r6
    99fc:	aa00000a 	bge	9a2c <_start+0x1084>
    9a00:	e7d7a004 	ldrb	sl, [r7, r4]
    9a04:	e35a005c 	cmp	sl, #92	; 0x5c
    9a08:	e1a0000a 	mov	r0, sl
    9a0c:	1afffff4 	bne	99e4 <_start+0x103c>
    9a10:	e2844001 	add	r4, r4, #1
    9a14:	e1a03005 	mov	r3, r5
    9a18:	e1540006 	cmp	r4, r6
    9a1c:	e4c3a001 	strb	sl, [r3], #1
    9a20:	e5c5a001 	strb	sl, [r5, #1]
    9a24:	e2835001 	add	r5, r3, #1
    9a28:	bafffff4 	blt	9a00 <_start+0x1058>
    9a2c:	e0680005 	rsb	r0, r8, r5
    9a30:	e3a03000 	mov	r3, #0
    9a34:	e5c53000 	strb	r3, [r5]
    9a38:	e8bd85f8 	pop	{r3, r4, r5, r6, r7, r8, sl, pc}
    9a3c:	e1a00005 	mov	r0, r5
    9a40:	e59f100c 	ldr	r1, [pc, #12]	; 9a54 <_start+0x10ac>
    9a44:	e1a0200a 	mov	r2, sl
[31m    9a48:	ebfffbc1 	bl	8954 <sprintf@plt>[0m
    9a4c:	e0855000 	add	r5, r5, r0
    9a50:	eaffffe7 	b	99f4 <_start+0x104c>
    9a54:	0000ad08 	andeq	sl, r0, r8, lsl #26
    9a58:	e92d45f8 	push	{r3, r4, r5, r6, r7, r8, sl, lr}
    9a5c:	e1a08000 	mov	r8, r0
    9a60:	e3a07001 	mov	r7, #1
    9a64:	e3a04000 	mov	r4, #0
    9a68:	e3a0a03a 	mov	sl, #58	; 0x3a
    9a6c:	e59f5054 	ldr	r5, [pc, #84]	; 9ac8 <_start+0x1120>
    9a70:	ea000008 	b	9a98 <_start+0x10f0>
    9a74:	e4c6a001 	strb	sl, [r6], #1
    9a78:	e1a00006 	mov	r0, r6
    9a7c:	e7d82004 	ldrb	r2, [r8, r4]
[31m    9a80:	ebfffbb3 	bl	8954 <sprintf@plt>[0m
    9a84:	e3570005 	cmp	r7, #5
    9a88:	e0865000 	add	r5, r6, r0
    9a8c:	ca00000b 	bgt	9ac0 <_start+0x1118>
    9a90:	e2844001 	add	r4, r4, #1
    9a94:	e2877001 	add	r7, r7, #1
    9a98:	e3540000 	cmp	r4, #0
    9a9c:	e1a06005 	mov	r6, r5
    9aa0:	e59f1024 	ldr	r1, [pc, #36]	; 9acc <_start+0x1124>
    9aa4:	e1a00005 	mov	r0, r5
    9aa8:	1afffff1 	bne	9a74 <_start+0x10cc>
    9aac:	e59f1018 	ldr	r1, [pc, #24]	; 9acc <_start+0x1124>
    9ab0:	e7d82004 	ldrb	r2, [r8, r4]
[31m    9ab4:	ebfffba6 	bl	8954 <sprintf@plt>[0m
    9ab8:	e0855000 	add	r5, r5, r0
    9abc:	eafffff3 	b	9a90 <_start+0x10e8>

[0m
[[0;33m*[0m] Function [0;33msprintf[0m used [0;33m11[0m times [0;33macs_cli[0m

