[[0;33m*[0m] Binary protection state of [0;33mdnsmasq[0m
[REF] s12

  	RELRO          CANARY            NX           PIE       RPATH        RUNPATH      SYMBOLS      
  	[31mNo RELRO[0m       [31mNo Canary found[0m   [32mNX enabled[0m   [31mNo PIE[0m       [32mNo RPATH[0m     [32mNo RUNPATH[0m   [32mNo Symbols[0m

[0m
[[0;33m*[0m] Function [0;33msprintf[0m tear down of [0;33mdnsmasq[0m

    aeac:	e59f5268 	ldr	r5, [pc, #616]	; b11c <_start+0x1724>
    aeb0:	e3a00000 	mov	r0, #0
    aeb4:	e58d002c 	str	r0, [sp, #44]	; 0x2c
    aeb8:	e30c1438 	movw	r1, #50232	; 0xc438
    aebc:	e59d202c 	ldr	r2, [sp, #44]	; 0x2c
    aec0:	e3401002 	movt	r1, #2
    aec4:	e5913000 	ldr	r3, [r1]
    aec8:	e7934102 	ldr	r4, [r3, r2, lsl #2]
    aecc:	e3540000 	cmp	r4, #0
    aed0:	0a000062 	beq	b060 <_start+0x1668>
    aed4:	e1d432b4 	ldrh	r3, [r4, #36]	; 0x24
    aed8:	e5972000 	ldr	r2, [r7]
    aedc:	e3130c02 	tst	r3, #512	; 0x200
    aee0:	e59260c4 	ldr	r6, [r2, #196]	; 0xc4
    aee4:	1a000067 	bne	b088 <_start+0x1690>
    aee8:	e3130010 	tst	r3, #16
    aeec:	02842028 	addeq	r2, r4, #40	; 0x28
    aef0:	1a000064 	bne	b088 <_start+0x1690>
    aef4:	e1a00006 	mov	r0, r6
    aef8:	e59f1220 	ldr	r1, [pc, #544]	; b120 <_start+0x1728>
[31m    aefc:	ebfffa5d 	bl	9878 <sprintf@plt>[0m
    af00:	e1d422b4 	ldrh	r2, [r4, #36]	; 0x24
    af04:	e0866000 	add	r6, r6, r0
--
    afcc:	e58dc014 	str	ip, [sp, #20]
    afd0:	e3401001 	movt	r1, #1
    afd4:	e30fc818 	movw	ip, #63512	; 0xf818
    afd8:	01a01005 	moveq	r1, r5
    afdc:	e340c001 	movt	ip, #1
    afe0:	e3120a01 	tst	r2, #4096	; 0x1000
    afe4:	01a0c005 	moveq	ip, r5
    afe8:	e3120040 	tst	r2, #64	; 0x40
    afec:	e58dc01c 	str	ip, [sp, #28]
    aff0:	e1a02008 	mov	r2, r8
    aff4:	e59fc134 	ldr	ip, [pc, #308]	; b130 <_start+0x1738>
    aff8:	e1a00006 	mov	r0, r6
    affc:	e58d1018 	str	r1, [sp, #24]
    b000:	e59f112c 	ldr	r1, [pc, #300]	; b134 <_start+0x173c>
    b004:	01a0c005 	moveq	ip, r5
    b008:	e58de000 	str	lr, [sp]
    b00c:	e58dc020 	str	ip, [sp, #32]
    b010:	e58da004 	str	sl, [sp, #4]
    b014:	e58d9008 	str	r9, [sp, #8]
    b018:	e58db00c 	str	fp, [sp, #12]
[31m    b01c:	ebfffa15 	bl	9878 <sprintf@plt>[0m
    b020:	e1d432b4 	ldrh	r3, [r4, #36]	; 0x24
    b024:	e0860000 	add	r0, r6, r0
    b028:	e59f1108 	ldr	r1, [pc, #264]	; b138 <_start+0x1740>
    b02c:	e3130001 	tst	r3, #1
    b030:	0594200c 	ldreq	r2, [r4, #12]
    b034:	13a02000 	movne	r2, #0
    b038:	059de028 	ldreq	lr, [sp, #40]	; 0x28
    b03c:	006e2002 	rsbeq	r2, lr, r2
[31m    b040:	ebfffa0c 	bl	9878 <sprintf@plt>[0m
    b044:	e5973000 	ldr	r3, [r7]
    b048:	e3a00007 	mov	r0, #7
--
    b2c4:	e59f20cc 	ldr	r2, [pc, #204]	; b398 <_start+0x19a0>
    b2c8:	eaffffcf 	b	b20c <_start+0x1814>
    b2cc:	e59f3094 	ldr	r3, [pc, #148]	; b368 <_start+0x1970>
    b2d0:	e59f20c4 	ldr	r2, [pc, #196]	; b39c <_start+0x19a4>
    b2d4:	eaffffcc 	b	b20c <_start+0x1814>
    b2d8:	e59f3088 	ldr	r3, [pc, #136]	; b368 <_start+0x1970>
    b2dc:	e59f20bc 	ldr	r2, [pc, #188]	; b3a0 <_start+0x19a8>
    b2e0:	eaffffc9 	b	b20c <_start+0x1814>
    b2e4:	e59f30b8 	ldr	r3, [pc, #184]	; b3a4 <_start+0x19ac>
    b2e8:	e59f20b8 	ldr	r2, [pc, #184]	; b3a8 <_start+0x19b0>
    b2ec:	eaffffc6 	b	b20c <_start+0x1814>
    b2f0:	e59f3070 	ldr	r3, [pc, #112]	; b368 <_start+0x1970>
    b2f4:	e59f20b0 	ldr	r2, [pc, #176]	; b3ac <_start+0x19b4>
    b2f8:	eaffffc3 	b	b20c <_start+0x1814>
    b2fc:	e59f50ac 	ldr	r5, [pc, #172]	; b3b0 <_start+0x19b8>
    b300:	e28d800c 	add	r8, sp, #12
    b304:	e1a00008 	mov	r0, r8
    b308:	e59f10a4 	ldr	r1, [pc, #164]	; b3b4 <_start+0x19bc>
    b30c:	e1a02009 	mov	r2, r9
    b310:	e1a0a005 	mov	sl, r5
[31m    b314:	ebfff957 	bl	9878 <sprintf@plt>[0m
    b318:	ea000002 	b	b328 <_start+0x1930>
    b31c:	e2844008 	add	r4, r4, #8
    b320:	e35400e8 	cmp	r4, #232	; 0xe8
    b324:	0a000008 	beq	b34c <_start+0x1954>
    b328:	e7953004 	ldr	r3, [r5, r4]
    b32c:	e1590003 	cmp	r9, r3
    b330:	1afffff9 	bne	b31c <_start+0x1924>
    b334:	e08a3004 	add	r3, sl, r4
    b338:	e1a00008 	mov	r0, r8
    b33c:	e59f1074 	ldr	r1, [pc, #116]	; b3b8 <_start+0x19c0>
    b340:	e5932004 	ldr	r2, [r3, #4]
[31m    b344:	ebfff94b 	bl	9878 <sprintf@plt>[0m
    b348:	eafffff3 	b	b31c <_start+0x1924>
    b34c:	e59f3038 	ldr	r3, [pc, #56]	; b38c <_start+0x1994>
--
    b9b8:	e28ba003 	add	sl, fp, #3
    b9bc:	e3a0c05b 	mov	ip, #91	; 0x5b
    b9c0:	e3a03000 	mov	r3, #0
    b9c4:	e5cbc001 	strb	ip, [fp, #1]
    b9c8:	e3a0c078 	mov	ip, #120	; 0x78
    b9cc:	e5c0c001 	strb	ip, [r0, #1]
    b9d0:	e3130001 	tst	r3, #1
    b9d4:	e2833001 	add	r3, r3, #1
    b9d8:	05d70000 	ldrbeq	r0, [r7]
    b9dc:	14d70001 	ldrbne	r0, [r7], #1
    b9e0:	01a00220 	lsreq	r0, r0, #4
    b9e4:	1200000f 	andne	r0, r0, #15
    b9e8:	e3500009 	cmp	r0, #9
    b9ec:	e280c030 	add	ip, r0, #48	; 0x30
    b9f0:	8280c037 	addhi	ip, r0, #55	; 0x37
    b9f4:	e1530001 	cmp	r3, r1
    b9f8:	e4cac001 	strb	ip, [sl], #1
    b9fc:	3afffff3 	bcc	b9d0 <_start+0x1fd8>
    ba00:	e59f1074 	ldr	r1, [pc, #116]	; ba7c <_start+0x2084>
    ba04:	e1a0000a 	mov	r0, sl
[31m    ba08:	ebfff79a 	bl	9878 <sprintf@plt>[0m
    ba0c:	e0663007 	rsb	r3, r6, r7
    ba10:	e08ab000 	add	fp, sl, r0
--
    ec30:	e0831492 	umull	r1, r3, r2, r4
    ec34:	e1a032a3 	lsr	r3, r3, #5
    ec38:	e0821392 	umull	r1, r2, r2, r3
    ec3c:	e1a022a2 	lsr	r2, r2, #5
    ec40:	e0622202 	rsb	r2, r2, r2, lsl #4
    ec44:	e0532102 	subs	r2, r3, r2, lsl #2
    ec48:	1a00000a 	bne	ec78 <_start+0x5280>
    ec4c:	e3082889 	movw	r2, #34953	; 0x8889
    ec50:	e3482888 	movt	r2, #34952	; 0x8888
    ec54:	e0823492 	umull	r3, r2, r2, r4
    ec58:	e1a022a2 	lsr	r2, r2, #5
    ec5c:	e0622202 	rsb	r2, r2, r2, lsl #4
    ec60:	e0542102 	subs	r2, r4, r2, lsl #2
    ec64:	08bd8070 	popeq	{r4, r5, r6, pc}
    ec68:	e0860005 	add	r0, r6, r5
    ec6c:	e59f1050 	ldr	r1, [pc, #80]	; ecc4 <_start+0x52cc>
    ec70:	e8bd4070 	pop	{r4, r5, r6, lr}
[31m    ec74:	eaffeaff 	b	9878 <sprintf@plt>[0m
    ec78:	e0860005 	add	r0, r6, r5
    ec7c:	e59f1044 	ldr	r1, [pc, #68]	; ecc8 <_start+0x52d0>
[31m    ec80:	ebffeafc 	bl	9878 <sprintf@plt>[0m
    ec84:	e0855000 	add	r5, r5, r0
    ec88:	eaffffef 	b	ec4c <_start+0x5254>
    ec8c:	e0860005 	add	r0, r6, r5
    ec90:	e59f1034 	ldr	r1, [pc, #52]	; eccc <_start+0x52d4>
[31m    ec94:	ebffeaf7 	bl	9878 <sprintf@plt>[0m
    ec98:	e0855000 	add	r5, r5, r0
    ec9c:	eaffffe1 	b	ec28 <_start+0x5230>
    eca0:	e1a02005 	mov	r2, r5
    eca4:	e59f1024 	ldr	r1, [pc, #36]	; ecd0 <_start+0x52d8>
[31m    eca8:	ebffeaf2 	bl	9878 <sprintf@plt>[0m
    ecac:	e1a05000 	mov	r5, r0
    ecb0:	eaffffd1 	b	ebfc <_start+0x5204>
--
    ef10:	e5803000 	str	r3, [r0]
    ef14:	eaffffe9 	b	eec0 <_start+0x54c8>
    ef18:	e92d4ff8 	push	{r3, r4, r5, r6, r7, r8, r9, sl, fp, lr}
    ef1c:	e2526000 	subs	r6, r2, #0
    ef20:	e1a0b000 	mov	fp, r0
    ef24:	e1a07001 	mov	r7, r1
    ef28:	0a000012 	beq	ef78 <_start+0x5580>
    ef2c:	da00000f 	ble	ef70 <_start+0x5578>
    ef30:	e59f8054 	ldr	r8, [pc, #84]	; ef8c <_start+0x5594>
    ef34:	e246a001 	sub	sl, r6, #1
    ef38:	e59f9050 	ldr	r9, [pc, #80]	; ef90 <_start+0x5598>
    ef3c:	e1a05000 	mov	r5, r0
    ef40:	e3a04000 	mov	r4, #0
    ef44:	e15a0004 	cmp	sl, r4
    ef48:	e7d72004 	ldrb	r2, [r7, r4]
    ef4c:	11a03008 	movne	r3, r8
    ef50:	01a03009 	moveq	r3, r9
    ef54:	e1a00005 	mov	r0, r5
    ef58:	e59f1034 	ldr	r1, [pc, #52]	; ef94 <_start+0x559c>
    ef5c:	e2844001 	add	r4, r4, #1
[31m    ef60:	ebffea44 	bl	9878 <sprintf@plt>[0m
    ef64:	e1560004 	cmp	r6, r4
    ef68:	e0855000 	add	r5, r5, r0
--
    f6bc:	ebffe87f 	bl	98c0 <__ctype_b_loc@plt>
    f6c0:	e5902000 	ldr	r2, [r0]
    f6c4:	e1a0300a 	mov	r3, sl
    f6c8:	e1a0a003 	mov	sl, r3
    f6cc:	e4d31001 	ldrb	r1, [r3], #1
    f6d0:	e1a01081 	lsl	r1, r1, #1
    f6d4:	e19210b1 	ldrh	r1, [r2, r1]
    f6d8:	e3110020 	tst	r1, #32
    f6dc:	1afffff9 	bne	f6c8 <_start+0x5cd0>
    f6e0:	e59dc014 	ldr	ip, [sp, #20]
    f6e4:	e1a00006 	mov	r0, r6
    f6e8:	e59f2118 	ldr	r2, [pc, #280]	; f808 <_start+0x5e10>
    f6ec:	e1a0100a 	mov	r1, sl
    f6f0:	e28c3001 	add	r3, ip, #1
    f6f4:	eb000048 	bl	f81c <_start+0x5e24>
    f6f8:	e2502000 	subs	r2, r0, #0
    f6fc:	0affff1e 	beq	f37c <_start+0x5984>
    f700:	e59d3004 	ldr	r3, [sp, #4]
    f704:	e1a00004 	mov	r0, r4
    f708:	e59f10fc 	ldr	r1, [pc, #252]	; f80c <_start+0x5e14>
[31m    f70c:	ebffe859 	bl	9878 <sprintf@plt>[0m
    f710:	e59d300c 	ldr	r3, [sp, #12]
    f714:	e3530000 	cmp	r3, #0
    f718:	0a000009 	beq	f744 <_start+0x5d4c>
    f71c:	e3a00003 	mov	r0, #3
    f720:	e1a01004 	mov	r1, r4
    f724:	e59d2008 	ldr	r2, [sp, #8]
    f728:	eb003cf5 	bl	1eb04 <_start+0x1510c>
    f72c:	eaffff12 	b	f37c <_start+0x5984>
    f730:	e59f20d8 	ldr	r2, [pc, #216]	; f810 <_start+0x5e18>
    f734:	e1a00004 	mov	r0, r4
    f738:	e59f10cc 	ldr	r1, [pc, #204]	; f80c <_start+0x5e14>
    f73c:	e59d3004 	ldr	r3, [sp, #4]
[31m    f740:	ebffe84c 	bl	9878 <sprintf@plt>[0m
    f744:	e1a00004 	mov	r0, r4
    f748:	e59d1008 	ldr	r1, [sp, #8]
--
   1271c:	e4d83008 	ldrb	r3, [r8], #8
   12720:	e3530000 	cmp	r3, #0
   12724:	1afffff9 	bne	12710 <_start+0x8d18>
   12728:	e1a01005 	mov	r1, r5
   1272c:	e59f0130 	ldr	r0, [pc, #304]	; 12864 <_start+0x8e6c>
   12730:	ebffdb60 	bl	94b8 <printf@plt>
   12734:	e5140004 	ldr	r0, [r4, #-4]
   12738:	e1a01006 	mov	r1, r6
   1273c:	ebffdb5d 	bl	94b8 <printf@plt>
   12740:	e3a0000a 	mov	r0, #10
   12744:	ebffdb4c 	bl	947c <putchar@plt>
   12748:	e5945004 	ldr	r5, [r4, #4]
   1274c:	e284400c 	add	r4, r4, #12
   12750:	e3550000 	cmp	r5, #0
   12754:	1affffe3 	bne	126e8 <_start+0x8cf0>
   12758:	e3a00000 	mov	r0, #0
   1275c:	ebffdc66 	bl	98fc <exit@plt>
   12760:	e1a00006 	mov	r0, r6
   12764:	e59f10fc 	ldr	r1, [pc, #252]	; 12868 <_start+0x8e70>
   12768:	e5182004 	ldr	r2, [r8, #-4]
[31m   1276c:	ebffdc41 	bl	9878 <sprintf@plt>[0m
   12770:	eaffffe9 	b	1271c <_start+0x8d24>
   12774:	e59f209c 	ldr	r2, [pc, #156]	; 12818 <_start+0x8e20>
--
   1989c:	e5821008 	str	r1, [r2, #8]
   198a0:	e5821000 	str	r1, [r2]
   198a4:	eaffffee 	b	19864 <_start+0xfe6c>
   198a8:	e3590000 	cmp	r9, #0
   198ac:	0a000015 	beq	19908 <_start+0xff10>
   198b0:	e1a00009 	mov	r0, r9
   198b4:	ebffbf1d 	bl	9530 <pclose@plt>
   198b8:	e3700001 	cmn	r0, #1
   198bc:	0a000012 	beq	1990c <_start+0xff14>
   198c0:	e7e79450 	ubfx	r9, r0, #8, #8
   198c4:	e359007f 	cmp	r9, #127	; 0x7f
   198c8:	0a000022 	beq	19958 <_start+0xff60>
   198cc:	e359007e 	cmp	r9, #126	; 0x7e
   198d0:	0a000016 	beq	19930 <_start+0xff38>
   198d4:	e3590000 	cmp	r9, #0
   198d8:	0affffd6 	beq	19838 <_start+0xfe40>
   198dc:	e5953000 	ldr	r3, [r5]
   198e0:	e1a02009 	mov	r2, r9
   198e4:	e59f1098 	ldr	r1, [pc, #152]	; 19984 <_start+0xff8c>
   198e8:	e5930148 	ldr	r0, [r3, #328]	; 0x148
[31m   198ec:	ebffbfe1 	bl	9878 <sprintf@plt>[0m
   198f0:	e5953000 	ldr	r3, [r5]
   198f4:	e289200a 	add	r2, r9, #10
--
   1dd04:	e1a02005 	mov	r2, r5
   1dd08:	e7e7c450 	ubfx	ip, r0, #8, #8
   1dd0c:	e3a03001 	mov	r3, #1
   1dd10:	e18cc400 	orr	ip, ip, r0, lsl #8
   1dd14:	e59e0004 	ldr	r0, [lr, #4]
   1dd18:	e1c4c0b2 	strh	ip, [r4, #2]
   1dd1c:	ebffc4b6 	bl	effc <_start+0x5604>
   1dd20:	e3500000 	cmp	r0, #0
   1dd24:	12850004 	addne	r0, r5, #4
   1dd28:	03e00000 	mvneq	r0, #0
   1dd2c:	e8bd8070 	pop	{r4, r5, r6, pc}
   1dd30:	e3a02006 	mov	r2, #6
   1dd34:	e1a00005 	mov	r0, r5
   1dd38:	e59f1064 	ldr	r1, [pc, #100]	; 1dda4 <_start+0x143ac>
   1dd3c:	e0855002 	add	r5, r5, r2
   1dd40:	ebffae18 	bl	95a8 <memcpy@plt>
   1dd44:	e5963028 	ldr	r3, [r6, #40]	; 0x28
   1dd48:	e1a00005 	mov	r0, r5
   1dd4c:	e59f1054 	ldr	r1, [pc, #84]	; 1dda8 <_start+0x143b0>
   1dd50:	e5932008 	ldr	r2, [r3, #8]
[31m   1dd54:	ebffaec7 	bl	9878 <sprintf@plt>[0m
   1dd58:	e2800001 	add	r0, r0, #1
   1dd5c:	e0855000 	add	r5, r5, r0
   1dd60:	e0640005 	rsb	r0, r4, r5
   1dd64:	e8bd8070 	pop	{r4, r5, r6, pc}
   1dd68:	e1a00005 	mov	r0, r5
   1dd6c:	e59f1038 	ldr	r1, [pc, #56]	; 1ddac <_start+0x143b4>
   1dd70:	e3a02008 	mov	r2, #8
   1dd74:	e284500a 	add	r5, r4, #10
   1dd78:	ebffae0a 	bl	95a8 <memcpy@plt>
   1dd7c:	e1a00005 	mov	r0, r5
   1dd80:	e59f1028 	ldr	r1, [pc, #40]	; 1ddb0 <_start+0x143b8>
   1dd84:	e5962010 	ldr	r2, [r6, #16]
[31m   1dd88:	ebffaeba 	bl	9878 <sprintf@plt>[0m
   1dd8c:	e5d63025 	ldrb	r3, [r6, #37]	; 0x25
   1dd90:	e2800001 	add	r0, r0, #1
--
   1eb70:	ea000080 	b	1ed78 <_start+0x15380>
   1eb74:	e1a02003 	mov	r2, r3
   1eb78:	e592300c 	ldr	r3, [r2, #12]
   1eb7c:	e3530000 	cmp	r3, #0
   1eb80:	1afffffb 	bne	1eb74 <_start+0x1517c>
   1eb84:	e582400c 	str	r4, [r2, #12]
   1eb88:	e28da008 	add	sl, sp, #8
   1eb8c:	e2848010 	add	r8, r4, #16
   1eb90:	e1a0000a 	mov	r0, sl
   1eb94:	e1a07008 	mov	r7, r8
   1eb98:	ebffab24 	bl	9830 <time@plt>
   1eb9c:	e5953018 	ldr	r3, [r5, #24]
   1eba0:	e3530000 	cmp	r3, #0
   1eba4:	0a00004b 	beq	1ecd8 <_start+0x152e0>
   1eba8:	e1a0000a 	mov	r0, sl
   1ebac:	ebffaac8 	bl	96d4 <ctime@plt>
   1ebb0:	e59f11f0 	ldr	r1, [pc, #496]	; 1eda8 <_start+0x153b0>
   1ebb4:	e2802004 	add	r2, r0, #4
   1ebb8:	e1a03006 	mov	r3, r6
   1ebbc:	e1a00007 	mov	r0, r7
[31m   1ebc0:	ebffab2c 	bl	9878 <sprintf@plt>[0m
   1ebc4:	e0870000 	add	r0, r7, r0
   1ebc8:	e59d2034 	ldr	r2, [sp, #52]	; 0x34
--
   1ec98:	e5940000 	ldr	r0, [r4]
   1ec9c:	ebffab49 	bl	99c8 <vfprintf@plt>
   1eca0:	e3a0000a 	mov	r0, #10
   1eca4:	e5941000 	ldr	r1, [r4]
   1eca8:	ebffab01 	bl	98b4 <fputc@plt>
   1ecac:	e59b3000 	ldr	r3, [fp]
   1ecb0:	e3730001 	cmn	r3, #1
   1ecb4:	1affffa2 	bne	1eb44 <_start+0x1514c>
   1ecb8:	e5953008 	ldr	r3, [r5, #8]
   1ecbc:	e3530000 	cmp	r3, #0
   1ecc0:	0a000018 	beq	1ed28 <_start+0x15330>
   1ecc4:	e1a00009 	mov	r0, r9
   1ecc8:	e59d1034 	ldr	r1, [sp, #52]	; 0x34
   1eccc:	e59d200c 	ldr	r2, [sp, #12]
   1ecd0:	ebffab18 	bl	9938 <vsyslog@plt>
   1ecd4:	eaffffe2 	b	1ec64 <_start+0x1526c>
   1ecd8:	e59b2008 	ldr	r2, [fp, #8]
   1ecdc:	e1a00008 	mov	r0, r8
   1ece0:	e59f10cc 	ldr	r1, [pc, #204]	; 1edb4 <_start+0x153bc>
   1ece4:	e1892002 	orr	r2, r9, r2
[31m   1ece8:	ebffaae2 	bl	9878 <sprintf@plt>[0m
   1ecec:	e2800010 	add	r0, r0, #16
   1ecf0:	e0847000 	add	r7, r4, r0

[0m
[[0;33m*[0m] Function [0;33msprintf[0m used [0;33m18[0m times [0;33mdnsmasq[0m

