[[0;33m*[0m] Binary protection state of [0;33mdnsmasq[0m
[REF] s12

  	RELRO          CANARY            NX           PIE       RPATH        RUNPATH      SYMBOLS      
  	[31mNo RELRO[0m       [31mNo Canary found[0m   [32mNX enabled[0m   [31mNo PIE[0m       [32mNo RPATH[0m     [32mNo RUNPATH[0m   [32mNo Symbols[0m

[0m
[[0;33m*[0m] Function [0;33mstrcat[0m tear down of [0;33mdnsmasq[0m

    a7b8:	e1a01004 	mov	r1, r4
    a7bc:	e28c3028 	add	r3, ip, #40	; 0x28
    a7c0:	e1a00003 	mov	r0, r3
    a7c4:	0affffb2 	beq	a694 <_start+0xc9c>
    a7c8:	e58dc018 	str	ip, [sp, #24]
    a7cc:	e2855001 	add	r5, r5, #1
    a7d0:	e58d3014 	str	r3, [sp, #20]
    a7d4:	ebfffb2b 	bl	9488 <strcpy@plt>
    a7d8:	e59d3014 	ldr	r3, [sp, #20]
    a7dc:	e1a00003 	mov	r0, r3
    a7e0:	ebfffc5a 	bl	9950 <strlen@plt>
    a7e4:	e59dc018 	ldr	ip, [sp, #24]
    a7e8:	e2800028 	add	r0, r0, #40	; 0x28
    a7ec:	e3a02002 	mov	r2, #2
    a7f0:	e59f10b8 	ldr	r1, [pc, #184]	; a8b0 <_start+0xeb8>
    a7f4:	e08c0000 	add	r0, ip, r0
    a7f8:	ebfffb6a 	bl	95a8 <memcpy@plt>
    a7fc:	e59d3014 	ldr	r3, [sp, #20]
    a800:	e1a01007 	mov	r1, r7
    a804:	e1a00003 	mov	r0, r3
[31m    a808:	ebfffbb4 	bl	96e0 <strcat@plt>[0m
    a80c:	e59dc018 	ldr	ip, [sp, #24]
    a810:	e3a03001 	mov	r3, #1
--
    ff18:	e3520023 	cmp	r2, #35	; 0x23
    ff1c:	0a000514 	beq	11374 <_start+0x797c>
    ff20:	e352002e 	cmp	r2, #46	; 0x2e
    ff24:	0affffed 	beq	fee0 <_start+0x64e8>
    ff28:	e1a00006 	mov	r0, r6
    ff2c:	e2899002 	add	r9, r9, #2
    ff30:	ebffe686 	bl	9950 <strlen@plt>
    ff34:	e0890000 	add	r0, r9, r0
    ff38:	ebfffa9c 	bl	e9b0 <_start+0x4fb8>
    ff3c:	e1a01006 	mov	r1, r6
    ff40:	e1a07000 	mov	r7, r0
    ff44:	ebffe54f 	bl	9488 <strcpy@plt>
    ff48:	e1a00007 	mov	r0, r7
    ff4c:	ebffe67f 	bl	9950 <strlen@plt>
    ff50:	e3a02002 	mov	r2, #2
    ff54:	e59f18c8 	ldr	r1, [pc, #2248]	; 10824 <_start+0x6e2c>
    ff58:	e0870000 	add	r0, r7, r0
    ff5c:	ebffe591 	bl	95a8 <memcpy@plt>
    ff60:	e1a01004 	mov	r1, r4
    ff64:	e1a00007 	mov	r0, r7
[31m    ff68:	ebffe5dc 	bl	96e0 <strcat@plt>[0m
    ff6c:	e1a00007 	mov	r0, r7
    ff70:	e1a01008 	mov	r1, r8
--
   12564:	e5931010 	ldr	r1, [r3, #16]
   12568:	eb0032d8 	bl	1f0d0 <_start+0x156d8>
   1256c:	e59f3278 	ldr	r3, [pc, #632]	; 127ec <_start+0x8df4>
   12570:	e5936000 	ldr	r6, [r3]
   12574:	e596303c 	ldr	r3, [r6, #60]	; 0x3c
   12578:	e3530000 	cmp	r3, #0
   1257c:	1affffdf 	bne	12500 <_start+0x8b08>
   12580:	eafffff2 	b	12550 <_start+0x8b58>
   12584:	e1a01006 	mov	r1, r6
   12588:	e1a00004 	mov	r0, r4
   1258c:	ebffdbbd 	bl	9488 <strcpy@plt>
   12590:	e1a00004 	mov	r0, r4
   12594:	ebffdced 	bl	9950 <strlen@plt>
   12598:	e3a02002 	mov	r2, #2
   1259c:	e59f129c 	ldr	r1, [pc, #668]	; 12840 <_start+0x8e48>
   125a0:	e0840000 	add	r0, r4, r0
   125a4:	ebffdbff 	bl	95a8 <memcpy@plt>
   125a8:	e59b3000 	ldr	r3, [fp]
   125ac:	e1a00004 	mov	r0, r4
   125b0:	e593103c 	ldr	r1, [r3, #60]	; 0x3c
[31m   125b4:	ebffdc49 	bl	96e0 <strcat@plt>[0m
   125b8:	e5950000 	ldr	r0, [r5]
   125bc:	ebffdd07 	bl	99e0 <free@plt>
--
   19474:	e1a00009 	mov	r0, r9
   19478:	ebffc134 	bl	9950 <strlen@plt>
   1947c:	e1a08000 	mov	r8, r0
   19480:	e1a00005 	mov	r0, r5
   19484:	ebffc131 	bl	9950 <strlen@plt>
   19488:	e0880000 	add	r0, r8, r0
   1948c:	e2800002 	add	r0, r0, #2
   19490:	ebffd553 	bl	e9e4 <_start+0x4fec>
   19494:	e2508000 	subs	r8, r0, #0
   19498:	0affffc6 	beq	193b8 <_start+0xf9c0>
   1949c:	e1a01009 	mov	r1, r9
   194a0:	ebffbff8 	bl	9488 <strcpy@plt>
   194a4:	e1a00008 	mov	r0, r8
   194a8:	ebffc128 	bl	9950 <strlen@plt>
   194ac:	e3a02002 	mov	r2, #2
   194b0:	e0880000 	add	r0, r8, r0
   194b4:	e59f1028 	ldr	r1, [pc, #40]	; 194e4 <_start+0xfaec>
   194b8:	ebffc03a 	bl	95a8 <memcpy@plt>
   194bc:	e1a00008 	mov	r0, r8
   194c0:	e1a01005 	mov	r1, r5
[31m   194c4:	ebffc085 	bl	96e0 <strcat@plt>[0m
   194c8:	eaffffba 	b	193b8 <_start+0xf9c0>
   194cc:	e1a08006 	mov	r8, r6

[0m
[[0;33m*[0m] Function [0;33mstrcat[0m used [0;33m4[0m times [0;33mdnsmasq[0m

