[[0;33m*[0m] Binary protection state of [0;33mlibxt_udp.so.svn-base[0m
[REF] s12

  	RELRO          CANARY            NX           PIE       RPATH        RUNPATH      SYMBOLS      
  	[31mNo RELRO[0m       [31mNo Canary found[0m   [32mNX enabled[0m   [33mDSO[0m          [32mNo RPATH[0m     [32mNo RUNPATH[0m   [31mSymbols
	[31mNo RELRO[0m       [31mNo Canary found[0m   [32mNX enabled[0m   [33mDSO[0m          [32mNo RPATH[0m     [32mNo RUNPATH[0m   [32mNo Symbols[0m

[0m
[[0;33m*[0m] Function [0;33mprintf[0m tear down of [0;33mlibxt_udp.so.svn-base[0m

 69c:	e92d4070 	push	{r4, r5, r6, lr}
 6a0:	e1a06001 	mov	r6, r1
 6a4:	e1d112b0 	ldrh	r1, [r1, #32]
 6a8:	e2864020 	add	r4, r6, #32
 6ac:	e59f50d0 	ldr	r5, [pc, #208]	; 784 <__register_frame_info@plt+0x250>
 6b0:	e3510000 	cmp	r1, #0
 6b4:	e08f5005 	add	r5, pc, r5
 6b8:	1a000003 	bne	6cc <__register_frame_info@plt+0x198>
 6bc:	e1d420b2 	ldrh	r2, [r4, #2]
 6c0:	e30f3fff 	movw	r3, #65535	; 0xffff
 6c4:	e1520003 	cmp	r2, r3
 6c8:	0a000008 	beq	6f0 <__register_frame_info@plt+0x1bc>
 6cc:	e5d43008 	ldrb	r3, [r4, #8]
 6d0:	e3130001 	tst	r3, #1
 6d4:	1a00001f 	bne	758 <__register_frame_info@plt+0x224>
 6d8:	e1d420b2 	ldrh	r2, [r4, #2]
 6dc:	e1520001 	cmp	r2, r1
 6e0:	0a000023 	beq	774 <__register_frame_info@plt+0x240>
 6e4:	e59f009c 	ldr	r0, [pc, #156]	; 788 <__register_frame_info@plt+0x254>
 6e8:	e0850000 	add	r0, r5, r0
[31m 6ec:	ebffff7b 	bl	4e0 <printf@plt>[0m
 6f0:	e1d410b4 	ldrh	r1, [r4, #4]
 6f4:	e3510000 	cmp	r1, #0
--
 6fc:	e1d420b6 	ldrh	r2, [r4, #6]
 700:	e30f3fff 	movw	r3, #65535	; 0xffff
 704:	e1520003 	cmp	r2, r3
 708:	08bd8070 	popeq	{r4, r5, r6, pc}
 70c:	e5d43008 	ldrb	r3, [r4, #8]
 710:	e3130002 	tst	r3, #2
 714:	1a00000a 	bne	744 <__register_frame_info@plt+0x210>
 718:	e1d420b6 	ldrh	r2, [r4, #6]
 71c:	e1520001 	cmp	r2, r1
 720:	0a000003 	beq	734 <__register_frame_info@plt+0x200>
 724:	e59f0060 	ldr	r0, [pc, #96]	; 78c <__register_frame_info@plt+0x258>
 728:	e0850000 	add	r0, r5, r0
 72c:	e8bd4070 	pop	{r4, r5, r6, lr}
[31m 730:	eaffff6a 	b	4e0 <printf@plt>[0m
 734:	e59f0054 	ldr	r0, [pc, #84]	; 790 <__register_frame_info@plt+0x25c>
 738:	e0850000 	add	r0, r5, r0
 73c:	e8bd4070 	pop	{r4, r5, r6, lr}
[31m 740:	eaffff66 	b	4e0 <printf@plt>[0m
 744:	e59f0048 	ldr	r0, [pc, #72]	; 794 <__register_frame_info@plt+0x260>
 748:	e0850000 	add	r0, r5, r0
[31m 74c:	ebffff63 	bl	4e0 <printf@plt>[0m
 750:	e1d410b4 	ldrh	r1, [r4, #4]
 754:	eaffffef 	b	718 <__register_frame_info@plt+0x1e4>
 758:	e59f0034 	ldr	r0, [pc, #52]	; 794 <__register_frame_info@plt+0x260>
 75c:	e0850000 	add	r0, r5, r0
[31m 760:	ebffff5e 	bl	4e0 <printf@plt>[0m
 764:	e1d612b0 	ldrh	r1, [r6, #32]
 768:	e1d420b2 	ldrh	r2, [r4, #2]
 76c:	e1520001 	cmp	r2, r1
 770:	1affffdb 	bne	6e4 <__register_frame_info@plt+0x1b0>
 774:	e59f001c 	ldr	r0, [pc, #28]	; 798 <__register_frame_info@plt+0x264>
 778:	e0850000 	add	r0, r5, r0
[31m 77c:	ebffff57 	bl	4e0 <printf@plt>[0m
 780:	eaffffda 	b	6f0 <__register_frame_info@plt+0x1bc>
 784:	0000863c 	andeq	r8, r0, ip, lsr r6
--
 810:	ffff7d20 			; <UNDEFINED> instruction: 0xffff7d20
 814:	e92d41f0 	push	{r4, r5, r6, r7, r8, lr}
 818:	e3530000 	cmp	r3, #0
 81c:	e59f40c4 	ldr	r4, [pc, #196]	; 8e8 <__register_frame_info@plt+0x3b4>
 820:	e1a05001 	mov	r5, r1
 824:	e1a06002 	mov	r6, r2
 828:	e59d7018 	ldr	r7, [sp, #24]
 82c:	e08f4004 	add	r4, pc, r4
 830:	0a000018 	beq	898 <__register_frame_info@plt+0x364>
 834:	e59f80b0 	ldr	r8, [pc, #176]	; 8ec <__register_frame_info@plt+0x3b8>
 838:	e30f2fff 	movw	r2, #65535	; 0xffff
 83c:	e3550000 	cmp	r5, #0
 840:	01560002 	cmpeq	r6, r2
 844:	e0848008 	add	r8, r4, r8
 848:	1a000018 	bne	8b0 <__register_frame_info@plt+0x37c>
 84c:	e3530000 	cmp	r3, #0
 850:	08bd81f0 	popeq	{r4, r5, r6, r7, r8, pc}
 854:	e1a01000 	mov	r1, r0
 858:	e59f0090 	ldr	r0, [pc, #144]	; 8f0 <__register_frame_info@plt+0x3bc>
 85c:	e0840000 	add	r0, r4, r0
[31m 860:	ebffff1e 	bl	4e0 <printf@plt>[0m
 864:	e59f0088 	ldr	r0, [pc, #136]	; 8f4 <__register_frame_info@plt+0x3c0>
 868:	e1a01008 	mov	r1, r8
 86c:	e0840000 	add	r0, r4, r0
[31m 870:	ebffff1a 	bl	4e0 <printf@plt>[0m
 874:	e1a01007 	mov	r1, r7
 878:	e1a00005 	mov	r0, r5
 87c:	ebffffc6 	bl	79c <__register_frame_info@plt+0x268>
 880:	e3a0003a 	mov	r0, #58	; 0x3a
 884:	ebffff12 	bl	4d4 <putchar@plt>
 888:	e1a00006 	mov	r0, r6
 88c:	e1a01007 	mov	r1, r7
 890:	e8bd41f0 	pop	{r4, r5, r6, r7, r8, lr}
 894:	eaffffc0 	b	79c <__register_frame_info@plt+0x268>
 898:	e59f8058 	ldr	r8, [pc, #88]	; 8f8 <__register_frame_info@plt+0x3c4>
 89c:	e30f2fff 	movw	r2, #65535	; 0xffff
 8a0:	e3550000 	cmp	r5, #0
 8a4:	01560002 	cmpeq	r6, r2
 8a8:	e0848008 	add	r8, r4, r8
 8ac:	0affffe6 	beq	84c <__register_frame_info@plt+0x318>
 8b0:	e1a01000 	mov	r1, r0
 8b4:	e59f0034 	ldr	r0, [pc, #52]	; 8f0 <__register_frame_info@plt+0x3bc>
 8b8:	e0840000 	add	r0, r4, r0
[31m 8bc:	ebffff07 	bl	4e0 <printf@plt>[0m
 8c0:	e1550006 	cmp	r5, r6
 8c4:	1affffe6 	bne	864 <__register_frame_info@plt+0x330>
 8c8:	e59f002c 	ldr	r0, [pc, #44]	; 8fc <__register_frame_info@plt+0x3c8>
 8cc:	e1a01008 	mov	r1, r8
 8d0:	e0840000 	add	r0, r4, r0
[31m 8d4:	ebffff01 	bl	4e0 <printf@plt>[0m
 8d8:	e1a00005 	mov	r0, r5
 8dc:	e1a01007 	mov	r1, r7
 8e0:	e8bd41f0 	pop	{r4, r5, r6, r7, r8, lr}
 8e4:	eaffffac 	b	79c <__register_frame_info@plt+0x268>
 8e8:	000084c4 	andeq	r8, r0, r4, asr #9
 8ec:	ffff7d38 			; <UNDEFINED> instruction: 0xffff7d38
 8f0:	ffff7d3c 			; <UNDEFINED> instruction: 0xffff7d3c
 8f4:	ffff7d44 			; <UNDEFINED> instruction: 0xffff7d44
 8f8:	ffff7e18 			; <UNDEFINED> instruction: 0xffff7e18
 8fc:	ffff7d40 			; <UNDEFINED> instruction: 0xffff7d40
 900:	e92d40f0 	push	{r4, r5, r6, r7, lr}
 904:	e2815020 	add	r5, r1, #32
 908:	e59f4080 	ldr	r4, [pc, #128]	; 990 <__register_frame_info@plt+0x45c>
 90c:	e24dd00c 	sub	sp, sp, #12
 910:	e1a06002 	mov	r6, r2
 914:	e1a07001 	mov	r7, r1
 918:	e59f0074 	ldr	r0, [pc, #116]	; 994 <__register_frame_info@plt+0x460>
 91c:	e08f4004 	add	r4, pc, r4
 920:	e0840000 	add	r0, r4, r0
[31m 924:	ebfffeed 	bl	4e0 <printf@plt>[0m
 928:	e5d53008 	ldrb	r3, [r5, #8]
 92c:	e59f0064 	ldr	r0, [pc, #100]	; 998 <__register_frame_info@plt+0x464>

[0m
[[0;33m*[0m] Function [0;33mprintf[0m used [0;33m9[0m times [0;33mlibxt_udp.so.svn-base[0m

