[[0;33m*[0m] Binary protection state of [0;33mKC_SMB[0m
[REF] s12

  	RELRO          CANARY            NX           PIE       RPATH        RUNPATH      SYMBOLS      
  	[31mNo RELRO[0m       [31mNo Canary found[0m   [32mNX enabled[0m   [31mNo PIE[0m       [32mNo RPATH[0m     [32mNo RUNPATH[0m   [31mSymbols[0m

[0m
[[0;33m*[0m] Function [0;33mstrcat[0m tear down of [0;33mKC_SMB[0m

   199c0:	e3a02000 	mov	r2, #0
   199c4:	e5c32000 	strb	r2, [r3]
   199c8:	e51b3024 	ldr	r3, [fp, #-36]	; 0xffffffdc
   199cc:	e5d33000 	ldrb	r3, [r3]
   199d0:	e353005c 	cmp	r3, #92	; 0x5c
   199d4:	0a00000a 	beq	19a04 <combinFullPath+0x17c>
   199d8:	e51b0020 	ldr	r0, [fp, #-32]	; 0xffffffe0
   199dc:	ebffbd8a 	bl	900c <strlen@plt>
   199e0:	e1a03000 	mov	r3, r0
   199e4:	e51b2020 	ldr	r2, [fp, #-32]	; 0xffffffe0
   199e8:	e0822003 	add	r2, r2, r3
   199ec:	e30a3ab0 	movw	r3, #43696	; 0xaab0
   199f0:	e3403003 	movt	r3, #3
   199f4:	e1a00002 	mov	r0, r2
   199f8:	e1a01003 	mov	r1, r3
   199fc:	e3a02002 	mov	r2, #2
   19a00:	ebffbd5a 	bl	8f70 <memcpy@plt>
   19a04:	e51b3024 	ldr	r3, [fp, #-36]	; 0xffffffdc
   19a08:	e51b0020 	ldr	r0, [fp, #-32]	; 0xffffffe0
   19a0c:	e1a01003 	mov	r1, r3
[31m   19a10:	ebffbd65 	bl	8fac <strcat@plt>[0m
   19a14:	e51b3020 	ldr	r3, [fp, #-32]	; 0xffffffe0
   19a18:	e50b3010 	str	r3, [fp, #-16]
--
   19a90:	e3a03001 	mov	r3, #1
   19a94:	ea000032 	b	19b64 <combinFullPath+0x2dc>
   19a98:	e51b3024 	ldr	r3, [fp, #-36]	; 0xffffffdc
   19a9c:	e5d33000 	ldrb	r3, [r3]
   19aa0:	e353005c 	cmp	r3, #92	; 0x5c
   19aa4:	0a00000a 	beq	19ad4 <combinFullPath+0x24c>
   19aa8:	e51b0020 	ldr	r0, [fp, #-32]	; 0xffffffe0
   19aac:	ebffbd56 	bl	900c <strlen@plt>
   19ab0:	e1a03000 	mov	r3, r0
   19ab4:	e51b2020 	ldr	r2, [fp, #-32]	; 0xffffffe0
   19ab8:	e0822003 	add	r2, r2, r3
   19abc:	e30a3ab0 	movw	r3, #43696	; 0xaab0
   19ac0:	e3403003 	movt	r3, #3
   19ac4:	e1a00002 	mov	r0, r2
   19ac8:	e1a01003 	mov	r1, r3
   19acc:	e3a02002 	mov	r2, #2
   19ad0:	ebffbd26 	bl	8f70 <memcpy@plt>
   19ad4:	e51b3024 	ldr	r3, [fp, #-36]	; 0xffffffdc
   19ad8:	e51b0020 	ldr	r0, [fp, #-32]	; 0xffffffe0
   19adc:	e1a01003 	mov	r1, r3
[31m   19ae0:	ebffbd31 	bl	8fac <strcat@plt>[0m
   19ae4:	e51b3020 	ldr	r3, [fp, #-32]	; 0xffffffe0
   19ae8:	e50b3010 	str	r3, [fp, #-16]
--
   1f9b4:	e50b2888 	str	r2, [fp, #-2184]	; 0xfffff778
   1f9b8:	e50b388c 	str	r3, [fp, #-2188]	; 0xfffff774
   1f9bc:	e3a03000 	mov	r3, #0
   1f9c0:	e50b3010 	str	r3, [fp, #-16]
   1f9c4:	e24b3b02 	sub	r3, fp, #2048	; 0x800
   1f9c8:	e243300c 	sub	r3, r3, #12
   1f9cc:	e2433008 	sub	r3, r3, #8
   1f9d0:	e3a02b02 	mov	r2, #2048	; 0x800
   1f9d4:	e1a00003 	mov	r0, r3
   1f9d8:	e3a01000 	mov	r1, #0
   1f9dc:	ebffa5d2 	bl	912c <memset@plt>
   1f9e0:	e51b0884 	ldr	r0, [fp, #-2180]	; 0xfffff77c
   1f9e4:	e51b188c 	ldr	r1, [fp, #-2188]	; 0xfffff774
   1f9e8:	ebfff2b5 	bl	1c4c4 <putlongint>
   1f9ec:	e51b2880 	ldr	r2, [fp, #-2176]	; 0xfffff780
   1f9f0:	e24b3b02 	sub	r3, fp, #2048	; 0x800
   1f9f4:	e243300c 	sub	r3, r3, #12
   1f9f8:	e2433008 	sub	r3, r3, #8
   1f9fc:	e1a00003 	mov	r0, r3
   1fa00:	e1a01002 	mov	r1, r2
[31m   1fa04:	ebffa568 	bl	8fac <strcat@plt>[0m
   1fa08:	e24b3b02 	sub	r3, fp, #2048	; 0x800
   1fa0c:	e243300c 	sub	r3, r3, #12
--
   1fa1c:	e1a03000 	mov	r3, r0
   1fa20:	e1a02003 	mov	r2, r3
   1fa24:	e24b3b02 	sub	r3, fp, #2048	; 0x800
   1fa28:	e243300c 	sub	r3, r3, #12
   1fa2c:	e2433008 	sub	r3, r3, #8
   1fa30:	e0832002 	add	r2, r3, r2
   1fa34:	e30a3bd8 	movw	r3, #43992	; 0xabd8
   1fa38:	e3403003 	movt	r3, #3
   1fa3c:	e1a00002 	mov	r0, r2
   1fa40:	e1a01003 	mov	r1, r3
   1fa44:	e3a02002 	mov	r2, #2
   1fa48:	ebffa548 	bl	8f70 <memcpy@plt>
   1fa4c:	e51b3888 	ldr	r3, [fp, #-2184]	; 0xfffff778
   1fa50:	e2833013 	add	r3, r3, #19
   1fa54:	e1a02003 	mov	r2, r3
   1fa58:	e24b3b02 	sub	r3, fp, #2048	; 0x800
   1fa5c:	e243300c 	sub	r3, r3, #12
   1fa60:	e2433008 	sub	r3, r3, #8
   1fa64:	e1a00003 	mov	r0, r3
   1fa68:	e1a01002 	mov	r1, r2
[31m   1fa6c:	ebffa54e 	bl	8fac <strcat@plt>[0m
   1fa70:	e24b3b02 	sub	r3, fp, #2048	; 0x800
   1fa74:	e243300c 	sub	r3, r3, #12
--
   1fcb4:	e3a02b02 	mov	r2, #2048	; 0x800
   1fcb8:	e1a00003 	mov	r0, r3
   1fcbc:	e3a01000 	mov	r1, #0
   1fcc0:	ebffa519 	bl	912c <memset@plt>
   1fcc4:	e3a03000 	mov	r3, #0
   1fcc8:	e50b3020 	str	r3, [fp, #-32]	; 0xffffffe0
   1fccc:	e3a02000 	mov	r2, #0
   1fcd0:	e3a03000 	mov	r3, #0
   1fcd4:	e14b22fc 	strd	r2, [fp, #-44]	; 0xffffffd4
   1fcd8:	e51b38c4 	ldr	r3, [fp, #-2244]	; 0xfffff73c
   1fcdc:	e2833004 	add	r3, r3, #4
   1fce0:	e1a00003 	mov	r0, r3
   1fce4:	e51b18cc 	ldr	r1, [fp, #-2252]	; 0xfffff734
   1fce8:	ebfff1f5 	bl	1c4c4 <putlongint>
   1fcec:	e51b28c0 	ldr	r2, [fp, #-2240]	; 0xfffff740
   1fcf0:	e24b3d21 	sub	r3, fp, #2112	; 0x840
   1fcf4:	e2433004 	sub	r3, r3, #4
   1fcf8:	e243300c 	sub	r3, r3, #12
   1fcfc:	e1a00003 	mov	r0, r3
   1fd00:	e1a01002 	mov	r1, r2
[31m   1fd04:	ebffa4a8 	bl	8fac <strcat@plt>[0m
   1fd08:	e24b3d21 	sub	r3, fp, #2112	; 0x840
   1fd0c:	e2433004 	sub	r3, r3, #4
--
   1fd1c:	e1a03000 	mov	r3, r0
   1fd20:	e1a02003 	mov	r2, r3
   1fd24:	e24b3d21 	sub	r3, fp, #2112	; 0x840
   1fd28:	e2433004 	sub	r3, r3, #4
   1fd2c:	e243300c 	sub	r3, r3, #12
   1fd30:	e0832002 	add	r2, r3, r2
   1fd34:	e30a3bd8 	movw	r3, #43992	; 0xabd8
   1fd38:	e3403003 	movt	r3, #3
   1fd3c:	e1a00002 	mov	r0, r2
   1fd40:	e1a01003 	mov	r1, r3
   1fd44:	e3a02002 	mov	r2, #2
   1fd48:	ebffa488 	bl	8f70 <memcpy@plt>
   1fd4c:	e51b38c8 	ldr	r3, [fp, #-2248]	; 0xfffff738
   1fd50:	e2833013 	add	r3, r3, #19
   1fd54:	e1a02003 	mov	r2, r3
   1fd58:	e24b3d21 	sub	r3, fp, #2112	; 0x840
   1fd5c:	e2433004 	sub	r3, r3, #4
   1fd60:	e243300c 	sub	r3, r3, #12
   1fd64:	e1a00003 	mov	r0, r3
   1fd68:	e1a01002 	mov	r1, r2
[31m   1fd6c:	ebffa48e 	bl	8fac <strcat@plt>[0m
   1fd70:	e24b2d21 	sub	r2, fp, #2112	; 0x840
   1fd74:	e2422004 	sub	r2, r2, #4
--
   20334:	e3a02b02 	mov	r2, #2048	; 0x800
   20338:	e1a00003 	mov	r0, r3
   2033c:	e3a01000 	mov	r1, #0
   20340:	ebffa379 	bl	912c <memset@plt>
   20344:	e3a03000 	mov	r3, #0
   20348:	e50b3020 	str	r3, [fp, #-32]	; 0xffffffe0
   2034c:	e3a02000 	mov	r2, #0
   20350:	e3a03000 	mov	r3, #0
   20354:	e14b22fc 	strd	r2, [fp, #-44]	; 0xffffffd4
   20358:	e51b38c4 	ldr	r3, [fp, #-2244]	; 0xfffff73c
   2035c:	e2833004 	add	r3, r3, #4
   20360:	e1a00003 	mov	r0, r3
   20364:	e51b18cc 	ldr	r1, [fp, #-2252]	; 0xfffff734
   20368:	ebfff055 	bl	1c4c4 <putlongint>
   2036c:	e51b28c0 	ldr	r2, [fp, #-2240]	; 0xfffff740
   20370:	e24b3d21 	sub	r3, fp, #2112	; 0x840
   20374:	e2433004 	sub	r3, r3, #4
   20378:	e243300c 	sub	r3, r3, #12
   2037c:	e1a00003 	mov	r0, r3
   20380:	e1a01002 	mov	r1, r2
[31m   20384:	ebffa308 	bl	8fac <strcat@plt>[0m
   20388:	e24b3d21 	sub	r3, fp, #2112	; 0x840
   2038c:	e2433004 	sub	r3, r3, #4
--
   2039c:	e1a03000 	mov	r3, r0
   203a0:	e1a02003 	mov	r2, r3
   203a4:	e24b3d21 	sub	r3, fp, #2112	; 0x840
   203a8:	e2433004 	sub	r3, r3, #4
   203ac:	e243300c 	sub	r3, r3, #12
   203b0:	e0832002 	add	r2, r3, r2
   203b4:	e30a3bd8 	movw	r3, #43992	; 0xabd8
   203b8:	e3403003 	movt	r3, #3
   203bc:	e1a00002 	mov	r0, r2
   203c0:	e1a01003 	mov	r1, r3
   203c4:	e3a02002 	mov	r2, #2
   203c8:	ebffa2e8 	bl	8f70 <memcpy@plt>
   203cc:	e51b38c8 	ldr	r3, [fp, #-2248]	; 0xfffff738
   203d0:	e2833013 	add	r3, r3, #19
   203d4:	e1a02003 	mov	r2, r3
   203d8:	e24b3d21 	sub	r3, fp, #2112	; 0x840
   203dc:	e2433004 	sub	r3, r3, #4
   203e0:	e243300c 	sub	r3, r3, #12
   203e4:	e1a00003 	mov	r0, r3
   203e8:	e1a01002 	mov	r1, r2
[31m   203ec:	ebffa2ee 	bl	8fac <strcat@plt>[0m
   203f0:	e24b2d21 	sub	r2, fp, #2112	; 0x840
   203f4:	e2422004 	sub	r2, r2, #4
--
   208d4:	e3a02b02 	mov	r2, #2048	; 0x800
   208d8:	e1a00003 	mov	r0, r3
   208dc:	e3a01000 	mov	r1, #0
   208e0:	ebffa211 	bl	912c <memset@plt>
   208e4:	e3a03000 	mov	r3, #0
   208e8:	e50b3020 	str	r3, [fp, #-32]	; 0xffffffe0
   208ec:	e3a02000 	mov	r2, #0
   208f0:	e3a03000 	mov	r3, #0
   208f4:	e14b22fc 	strd	r2, [fp, #-44]	; 0xffffffd4
   208f8:	e51b38c4 	ldr	r3, [fp, #-2244]	; 0xfffff73c
   208fc:	e2833004 	add	r3, r3, #4
   20900:	e1a00003 	mov	r0, r3
   20904:	e51b18cc 	ldr	r1, [fp, #-2252]	; 0xfffff734
   20908:	ebffeeed 	bl	1c4c4 <putlongint>
   2090c:	e51b28c0 	ldr	r2, [fp, #-2240]	; 0xfffff740
   20910:	e24b3d21 	sub	r3, fp, #2112	; 0x840
   20914:	e2433004 	sub	r3, r3, #4
   20918:	e243300c 	sub	r3, r3, #12
   2091c:	e1a00003 	mov	r0, r3
   20920:	e1a01002 	mov	r1, r2
[31m   20924:	ebffa1a0 	bl	8fac <strcat@plt>[0m
   20928:	e24b3d21 	sub	r3, fp, #2112	; 0x840
   2092c:	e2433004 	sub	r3, r3, #4
--
   2093c:	e1a03000 	mov	r3, r0
   20940:	e1a02003 	mov	r2, r3
   20944:	e24b3d21 	sub	r3, fp, #2112	; 0x840
   20948:	e2433004 	sub	r3, r3, #4
   2094c:	e243300c 	sub	r3, r3, #12
   20950:	e0832002 	add	r2, r3, r2
   20954:	e30a3bd8 	movw	r3, #43992	; 0xabd8
   20958:	e3403003 	movt	r3, #3
   2095c:	e1a00002 	mov	r0, r2
   20960:	e1a01003 	mov	r1, r3
   20964:	e3a02002 	mov	r2, #2
   20968:	ebffa180 	bl	8f70 <memcpy@plt>
   2096c:	e51b38c8 	ldr	r3, [fp, #-2248]	; 0xfffff738
   20970:	e2833013 	add	r3, r3, #19
   20974:	e1a02003 	mov	r2, r3
   20978:	e24b3d21 	sub	r3, fp, #2112	; 0x840
   2097c:	e2433004 	sub	r3, r3, #4
   20980:	e243300c 	sub	r3, r3, #12
   20984:	e1a00003 	mov	r0, r3
   20988:	e1a01002 	mov	r1, r2
[31m   2098c:	ebffa186 	bl	8fac <strcat@plt>[0m
   20990:	e24b2d21 	sub	r2, fp, #2112	; 0x840
   20994:	e2422004 	sub	r2, r2, #4
--
   35fa0:	e0853003 	add	r3, r5, r3
   35fa4:	e0843003 	add	r3, r4, r3
   35fa8:	e51b0018 	ldr	r0, [fp, #-24]	; 0xffffffe8
   35fac:	e1a01003 	mov	r1, r3
   35fb0:	ebff4c03 	bl	8fc4 <strcasecmp@plt>
   35fb4:	e1a03000 	mov	r3, r0
   35fb8:	e3530000 	cmp	r3, #0
   35fbc:	1a000019 	bne	36028 <setupCurrentPath+0x1ec>
   35fc0:	e51b3020 	ldr	r3, [fp, #-32]	; 0xffffffe0
   35fc4:	e2833004 	add	r3, r3, #4
   35fc8:	e1a04003 	mov	r4, r3
   35fcc:	e51b3014 	ldr	r3, [fp, #-20]	; 0xffffffec
   35fd0:	e1a05583 	lsl	r5, r3, #11
   35fd4:	e51b0034 	ldr	r0, [fp, #-52]	; 0xffffffcc
   35fd8:	ebff4c0b 	bl	900c <strlen@plt>
   35fdc:	e1a03000 	mov	r3, r0
   35fe0:	e0853003 	add	r3, r5, r3
   35fe4:	e0843003 	add	r3, r4, r3
   35fe8:	e51b002c 	ldr	r0, [fp, #-44]	; 0xffffffd4
   35fec:	e1a01003 	mov	r1, r3
[31m   35ff0:	ebff4bed 	bl	8fac <strcat@plt>[0m
   35ff4:	e51b002c 	ldr	r0, [fp, #-44]	; 0xffffffd4
   35ff8:	ebff4c03 	bl	900c <strlen@plt>
--
   38700:	e24b3d12 	sub	r3, fp, #1152	; 0x480
   38704:	e2433004 	sub	r3, r3, #4
   38708:	e50b3008 	str	r3, [fp, #-8]
   3870c:	e3a03000 	mov	r3, #0
   38710:	e50b300c 	str	r3, [fp, #-12]
   38714:	ea000030 	b	387dc <getDevPath+0x1d8>
   38718:	e51b3010 	ldr	r3, [fp, #-16]
   3871c:	e3a02000 	mov	r2, #0
   38720:	e5c32000 	strb	r2, [r3]
   38724:	e51b3c90 	ldr	r3, [fp, #-3216]	; 0xfffff370
   38728:	e24b2d32 	sub	r2, fp, #3200	; 0xc80
   3872c:	e2422004 	sub	r2, r2, #4
   38730:	e1a00002 	mov	r0, r2
   38734:	e1a01003 	mov	r1, r3
   38738:	ebff42c9 	bl	9264 <strcpy@plt>
   3873c:	e51b3008 	ldr	r3, [fp, #-8]
   38740:	e24b2d32 	sub	r2, fp, #3200	; 0xc80
   38744:	e2422004 	sub	r2, r2, #4
   38748:	e1a00002 	mov	r0, r2
   3874c:	e1a01003 	mov	r1, r3
[31m   38750:	ebff4215 	bl	8fac <strcat@plt>[0m
   38754:	e24b2d32 	sub	r2, fp, #3200	; 0xc80
   38758:	e2422004 	sub	r2, r2, #4

[0m
[[0;33m*[0m] Function [0;33mstrcat[0m used [0;33m12[0m times [0;33mKC_SMB[0m

