[[0;33m*[0m] Binary protection state of [0;33mwl.ko[0m
[REF] s12

  	RELRO          CANARY            NX           PIE       RPATH        RUNPATH      SYMBOLS      
  	[31mNo RELRO[0m       [31mNo Canary found[0m   [31mNX disabled[0m  [33mREL[0m          [32mNo RPATH[0m     [32mNo RUNPATH[0m   [31mSymbols[0m

[0m
[[0;33m*[0m] Function [0;33msprintf[0m tear down of [0;33mwl.ko[0m

   66c68:	e59f1b68 	ldr	r1, [pc, #2920]	; 677d8 <wlc_phy_txpwr_srom_read_lcnphy+0xf48>
   66c6c:	e5c5001f 	strb	r0, [r5, #31]
   66c70:	e1a00004 	mov	r0, r4
   66c74:	ebfffffe 	bl	2d784 <phy_getintvar>
   66c78:	e59f1b5c 	ldr	r1, [pc, #2908]	; 677dc <wlc_phy_txpwr_srom_read_lcnphy+0xf4c>
   66c7c:	e5c50022 	strb	r0, [r5, #34]	; 0x22
   66c80:	e1a00004 	mov	r0, r4
   66c84:	ebfffffe 	bl	2d784 <phy_getintvar>
   66c88:	e59f1b50 	ldr	r1, [pc, #2896]	; 677e0 <wlc_phy_txpwr_srom_read_lcnphy+0xf50>
   66c8c:	e5c50021 	strb	r0, [r5, #33]	; 0x21
   66c90:	e1a00004 	mov	r0, r4
   66c94:	ebfffffe 	bl	2d784 <phy_getintvar>
   66c98:	e59f1b44 	ldr	r1, [pc, #2884]	; 677e4 <wlc_phy_txpwr_srom_read_lcnphy+0xf54>
   66c9c:	e5c504b0 	strb	r0, [r5, #1200]	; 0x4b0
   66ca0:	e1a00004 	mov	r0, r4
   66ca4:	ebfffffe 	bl	2d784 <phy_getintvar>
   66ca8:	e58504b4 	str	r0, [r5, #1204]	; 0x4b4
   66cac:	e59f1b34 	ldr	r1, [pc, #2868]	; 677e8 <wlc_phy_txpwr_srom_read_lcnphy+0xf58>
   66cb0:	e1a02006 	mov	r2, r6
   66cb4:	e1a0000a 	mov	r0, sl
[31m   66cb8:	ebfffffe 	bl	0 <sprintf>[0m
   66cbc:	e59400b8 	ldr	r0, [r4, #184]	; 0xb8
   66cc0:	e1a0100a 	mov	r1, sl
--
   e0158:	e584307c 	str	r3, [r4, #124]	; 0x7c
   e015c:	e2840054 	add	r0, r4, #84	; 0x54
   e0160:	ebfffffe 	bl	0 <tasklet_kill>
   e0164:	e2840068 	add	r0, r4, #104	; 0x68
   e0168:	ebfffffe 	bl	0 <tasklet_kill>
   e016c:	e5940004 	ldr	r0, [r4, #4]
   e0170:	e3500000 	cmp	r0, #0
   e0174:	0a000002 	beq	e0184 <wl_free+0x94>
   e0178:	e59f11a4 	ldr	r1, [pc, #420]	; e0324 <wl_free+0x234>
   e017c:	e1a02004 	mov	r2, r4
   e0180:	ebfffffe 	bl	e3c5c <wlc_module_unregister>
   e0184:	e5943008 	ldr	r3, [r4, #8]
   e0188:	e3530000 	cmp	r3, #0
   e018c:	0a000010 	beq	e01d4 <wl_free+0xe4>
   e0190:	e5943004 	ldr	r3, [r4, #4]
   e0194:	e3530000 	cmp	r3, #0
   e0198:	0a000003 	beq	e01ac <wl_free+0xbc>
   e019c:	e1a0000d 	mov	r0, sp
   e01a0:	e59f1180 	ldr	r1, [pc, #384]	; e0328 <wl_free+0x238>
   e01a4:	e593200c 	ldr	r2, [r3, #12]
[31m   e01a8:	ebfffffe 	bl	0 <sprintf>[0m
   e01ac:	e1a0000d 	mov	r0, sp
   e01b0:	e3a01000 	mov	r1, #0
--
   e05a8:	ea000098 	b	e0810 <wl_attach.clone.7.clone.8+0x4e0>
   e05ac:	ebfffffe 	bl	e398c <wlc_pub>
   e05b0:	e1a01006 	mov	r1, r6
   e05b4:	e5840004 	str	r0, [r4, #4]
   e05b8:	e5940008 	ldr	r0, [r4, #8]
   e05bc:	ebfffffe 	bl	f71ec <wlc_wlcif_get_by_index>
   e05c0:	e59f3260 	ldr	r3, [pc, #608]	; e0828 <wl_attach.clone.7.clone.8+0x4f8>
   e05c4:	e589000c 	str	r0, [r9, #12]
   e05c8:	e5933018 	ldr	r3, [r3, #24]
   e05cc:	e3530000 	cmp	r3, #0
   e05d0:	0a000003 	beq	e05e4 <wl_attach.clone.7.clone.8+0x2b4>
   e05d4:	e5940008 	ldr	r0, [r4, #8]
   e05d8:	e1a02006 	mov	r2, r6
   e05dc:	e59f1268 	ldr	r1, [pc, #616]	; e084c <wl_attach.clone.7.clone.8+0x51c>
   e05e0:	ebfffffe 	bl	e43f0 <wlc_iovar_setint>
   e05e4:	e5943004 	ldr	r3, [r4, #4]
   e05e8:	e28d6024 	add	r6, sp, #36	; 0x24
   e05ec:	e1a00006 	mov	r0, r6
   e05f0:	e59f1258 	ldr	r1, [pc, #600]	; e0850 <wl_attach.clone.7.clone.8+0x520>
   e05f4:	e593200c 	ldr	r2, [r3, #12]
[31m   e05f8:	ebfffffe 	bl	0 <sprintf>[0m
   e05fc:	e3a01000 	mov	r1, #0
   e0600:	e1a00006 	mov	r0, r6
--
   e0610:	e3500000 	cmp	r0, #0
   e0614:	e3a02006 	mov	r2, #6
   e0618:	159f3234 	ldrne	r3, [pc, #564]	; e0854 <wl_attach.clone.7.clone.8+0x524>
   e061c:	15804034 	strne	r4, [r0, #52]	; 0x34
   e0620:	15803038 	strne	r3, [r0, #56]	; 0x38
   e0624:	e5941004 	ldr	r1, [r4, #4]
   e0628:	e5950164 	ldr	r0, [r5, #356]	; 0x164
   e062c:	e2811004 	add	r1, r1, #4
   e0630:	ebfffffe 	bl	0 <memcpy>
   e0634:	e2840054 	add	r0, r4, #84	; 0x54
   e0638:	e59f1218 	ldr	r1, [pc, #536]	; e0858 <wl_attach.clone.7.clone.8+0x528>
   e063c:	e1a02004 	mov	r2, r4
   e0640:	ebfffffe 	bl	0 <tasklet_init>
   e0644:	e2840068 	add	r0, r4, #104	; 0x68
   e0648:	e59f120c 	ldr	r1, [pc, #524]	; e085c <wl_attach.clone.7.clone.8+0x52c>
   e064c:	e1a02004 	mov	r2, r4
   e0650:	ebfffffe 	bl	0 <tasklet_init>
   e0654:	e1a00006 	mov	r0, r6
   e0658:	e59f1200 	ldr	r1, [pc, #512]	; e0860 <wl_attach.clone.7.clone.8+0x530>
   e065c:	e1a02008 	mov	r2, r8
[31m   e0660:	ebfffffe 	bl	0 <sprintf>[0m
   e0664:	e59f31f8 	ldr	r3, [pc, #504]	; e0864 <wl_attach.clone.7.clone.8+0x534>
   e0668:	e593c000 	ldr	ip, [r3]
--
   e08e8:	e92d4073 	push	{r0, r1, r4, r5, r6, lr}
   e08ec:	e3530000 	cmp	r3, #0
   e08f0:	e59f6078 	ldr	r6, [pc, #120]	; e0970 <wl_add_if+0x88>
   e08f4:	e1a0c001 	mov	ip, r1
   e08f8:	03a01001 	moveq	r1, #1
   e08fc:	13a01002 	movne	r1, #2
   e0900:	e1a05000 	mov	r5, r0
   e0904:	e59f3068 	ldr	r3, [pc, #104]	; e0974 <wl_add_if+0x8c>
   e0908:	11a06003 	movne	r6, r3
   e090c:	e1a0300c 	mov	r3, ip
   e0910:	ebfffaa8 	bl	df3b8 <wl_alloc_if>
   e0914:	e2504000 	subs	r4, r0, #0
   e0918:	0a000012 	beq	e0968 <wl_add_if+0x80>
   e091c:	e5942010 	ldr	r2, [r4, #16]
   e0920:	e284001c 	add	r0, r4, #28
   e0924:	e5953004 	ldr	r3, [r5, #4]
   e0928:	e59f1048 	ldr	r1, [pc, #72]	; e0978 <wl_add_if+0x90>
   e092c:	e58d2000 	str	r2, [sp]
   e0930:	e1a02006 	mov	r2, r6
   e0934:	e593300c 	ldr	r3, [r3, #12]
[31m   e0938:	ebfffffe 	bl	0 <sprintf>[0m
   e093c:	e1a00005 	mov	r0, r5
   e0940:	e59f1034 	ldr	r1, [pc, #52]	; e097c <wl_add_if+0x94>
--
  13f5c4:	e1a05000 	mov	r5, r0
  13f5c8:	e24dd024 	sub	sp, sp, #36	; 0x24
  13f5cc:	e1a06001 	mov	r6, r1
  13f5d0:	e3a0100c 	mov	r1, #12
  13f5d4:	e5900004 	ldr	r0, [r0, #4]
  13f5d8:	ebfffffe 	bl	0 <osl_malloc>
  13f5dc:	e2504000 	subs	r4, r0, #0
  13f5e0:	0a000027 	beq	13f684 <wlc_wmf_instance_add+0xc4>
  13f5e4:	e59f30a4 	ldr	r3, [pc, #164]	; 13f690 <wlc_wmf_instance_add+0xd0>
  13f5e8:	e28d7010 	add	r7, sp, #16
  13f5ec:	e59f10a0 	ldr	r1, [pc, #160]	; 13f694 <wlc_wmf_instance_add+0xd4>
  13f5f0:	e1a00007 	mov	r0, r7
  13f5f4:	e1d624dc 	ldrsb	r2, [r6, #76]	; 0x4c
  13f5f8:	e58d3000 	str	r3, [sp]
  13f5fc:	e59f3094 	ldr	r3, [pc, #148]	; 13f698 <wlc_wmf_instance_add+0xd8>
  13f600:	e58d3004 	str	r3, [sp, #4]
  13f604:	e59f3090 	ldr	r3, [pc, #144]	; 13f69c <wlc_wmf_instance_add+0xdc>
  13f608:	e58d3008 	str	r3, [sp, #8]
  13f60c:	e59f308c 	ldr	r3, [pc, #140]	; 13f6a0 <wlc_wmf_instance_add+0xe0>
  13f610:	e58d300c 	str	r3, [sp, #12]
[31m  13f614:	ebfffffe 	bl	0 <sprintf>[0m
  13f618:	e1a00007 	mov	r0, r7
  13f61c:	e1a01006 	mov	r1, r6
--
  13f6d8:	e59410dc 	ldr	r1, [r4, #220]	; 0xdc
  13f6dc:	e5930004 	ldr	r0, [r3, #4]
  13f6e0:	ebfffffe 	bl	0 <osl_mfree>
  13f6e4:	e3a03000 	mov	r3, #0
  13f6e8:	e58430dc 	str	r3, [r4, #220]	; 0xdc
  13f6ec:	e8bd8010 	pop	{r4, pc}

0013f6f0 <wlc_wmf_start>:
  13f6f0:	e92d4070 	push	{r4, r5, r6, lr}
  13f6f4:	e24dde43 	sub	sp, sp, #1072	; 0x430
  13f6f8:	e28d4004 	add	r4, sp, #4
  13f6fc:	e28d6e42 	add	r6, sp, #1056	; 0x420
  13f700:	e1a05000 	mov	r5, r0
  13f704:	e2866004 	add	r6, r6, #4
  13f708:	e1a00004 	mov	r0, r4
  13f70c:	e3a01e42 	mov	r1, #1056	; 0x420
  13f710:	ebfffffe 	bl	0 <__memzero>
  13f714:	e1d524dc 	ldrsb	r2, [r5, #76]	; 0x4c
  13f718:	e1a00006 	mov	r0, r6
  13f71c:	e59f104c 	ldr	r1, [pc, #76]	; 13f770 <wlc_wmf_start+0x80>
[31m  13f720:	ebfffffe 	bl	0 <sprintf>[0m
  13f724:	e1a01006 	mov	r1, r6
  13f728:	e1a00004 	mov	r0, r4
--
  13f768:	e28dde43 	add	sp, sp, #1072	; 0x430
  13f76c:	e8bd8070 	pop	{r4, r5, r6, pc}
  13f770:	00003289 	.word	0x00003289

0013f774 <wlc_wmf_stop>:
  13f774:	e92d4070 	push	{r4, r5, r6, lr}
  13f778:	e1a05000 	mov	r5, r0
  13f77c:	e59030dc 	ldr	r3, [r0, #220]	; 0xdc
  13f780:	e24dde43 	sub	sp, sp, #1072	; 0x430
  13f784:	e3530000 	cmp	r3, #0
  13f788:	0a000017 	beq	13f7ec <wlc_wmf_stop+0x78>
  13f78c:	e28d4004 	add	r4, sp, #4
  13f790:	e28d6e42 	add	r6, sp, #1056	; 0x420
  13f794:	e1a00004 	mov	r0, r4
  13f798:	e3a01e42 	mov	r1, #1056	; 0x420
  13f79c:	e2866004 	add	r6, r6, #4
  13f7a0:	ebfffffe 	bl	0 <__memzero>
  13f7a4:	e59f1048 	ldr	r1, [pc, #72]	; 13f7f4 <wlc_wmf_stop+0x80>
  13f7a8:	e1a00006 	mov	r0, r6
  13f7ac:	e1d524dc 	ldrsb	r2, [r5, #76]	; 0x4c
[31m  13f7b0:	ebfffffe 	bl	0 <sprintf>[0m
  13f7b4:	e1a01006 	mov	r1, r6
  13f7b8:	e1a00004 	mov	r0, r4

[0m
[[0;33m*[0m] Function [0;33msprintf[0m used [0;33m8[0m times [0;33mwl.ko[0m

