[[0;33m*[0m] Binary protection state of [0;33mipsec.so[0m
[REF] s12

  	RELRO          CANARY            NX           PIE       RPATH        RUNPATH      SYMBOLS      
  	[31mNo RELRO[0m       [31mNo Canary found[0m   [32mNX enabled[0m   [33mDSO[0m          [32mNo RPATH[0m     [32mNo RUNPATH[0m   [31mSymbols[0m

[0m
[[0;33m*[0m] Function [0;33mstrcpy[0m tear down of [0;33mipsec.so[0m

     c8c:	e1a01003 	mov	r1, r3
     c90:	ebffff10 	bl	8d8 <fopen@plt>
     c94:	e50b001c 	str	r0, [fp, #-28]	; 0xffffffe4
     c98:	e51b301c 	ldr	r3, [fp, #-28]	; 0xffffffe4
     c9c:	e3530000 	cmp	r3, #0
     ca0:	1a000005 	bne	cbc <ipsec_spd_delete+0x68>
     ca4:	ebffff1a 	bl	914 <__errno_location@plt>
     ca8:	e1a03000 	mov	r3, r0
     cac:	e5933000 	ldr	r3, [r3]
     cb0:	e2633000 	rsb	r3, r3, #0
     cb4:	e50b3018 	str	r3, [fp, #-24]	; 0xffffffe8
     cb8:	ea00012a 	b	1168 <ipsec_spd_delete+0x514>
     cbc:	e51b304c 	ldr	r3, [fp, #-76]	; 0xffffffb4
     cc0:	e5930004 	ldr	r0, [r3, #4]
     cc4:	ebffff0c 	bl	8fc <inet_ntoa@plt>
     cc8:	e50b0020 	str	r0, [fp, #-32]	; 0xffffffe0
     ccc:	e51b3020 	ldr	r3, [fp, #-32]	; 0xffffffe0
     cd0:	e24b2034 	sub	r2, fp, #52	; 0x34
     cd4:	e1a00002 	mov	r0, r2
     cd8:	e1a01003 	mov	r1, r3
[31m     cdc:	ebfffed3 	bl	830 <strcpy@plt>[0m
     ce0:	e51b3050 	ldr	r3, [fp, #-80]	; 0xffffffb0
     ce4:	e5930004 	ldr	r0, [r3, #4]
     ce8:	ebffff03 	bl	8fc <inet_ntoa@plt>
     cec:	e50b0020 	str	r0, [fp, #-32]	; 0xffffffe0
     cf0:	e51b3020 	ldr	r3, [fp, #-32]	; 0xffffffe0
     cf4:	e24b2044 	sub	r2, fp, #68	; 0x44
     cf8:	e1a00002 	mov	r0, r2
     cfc:	e1a01003 	mov	r1, r3
[31m     d00:	ebfffeca 	bl	830 <strcpy@plt>[0m
     d04:	e59f3478 	ldr	r3, [pc, #1144]	; 1184 <ipsec_spd_delete+0x530>
     d08:	e0843003 	add	r3, r4, r3
--
    11f8:	e1a01003 	mov	r1, r3
    11fc:	ebfffdb5 	bl	8d8 <fopen@plt>
    1200:	e50b001c 	str	r0, [fp, #-28]	; 0xffffffe4
    1204:	e51b301c 	ldr	r3, [fp, #-28]	; 0xffffffe4
    1208:	e3530000 	cmp	r3, #0
    120c:	1a000005 	bne	1228 <ipsec_spd_add+0x70>
    1210:	ebfffdbf 	bl	914 <__errno_location@plt>
    1214:	e1a03000 	mov	r3, r0
    1218:	e5933000 	ldr	r3, [r3]
    121c:	e2633000 	rsb	r3, r3, #0
    1220:	e50b3018 	str	r3, [fp, #-24]	; 0xffffffe8
    1224:	ea00014e 	b	1764 <ipsec_spd_add+0x5ac>
    1228:	e51b304c 	ldr	r3, [fp, #-76]	; 0xffffffb4
    122c:	e5930004 	ldr	r0, [r3, #4]
    1230:	ebfffdb1 	bl	8fc <inet_ntoa@plt>
    1234:	e50b0020 	str	r0, [fp, #-32]	; 0xffffffe0
    1238:	e51b3020 	ldr	r3, [fp, #-32]	; 0xffffffe0
    123c:	e24b2034 	sub	r2, fp, #52	; 0x34
    1240:	e1a00002 	mov	r0, r2
    1244:	e1a01003 	mov	r1, r3
[31m    1248:	ebfffd78 	bl	830 <strcpy@plt>[0m
    124c:	e51b3050 	ldr	r3, [fp, #-80]	; 0xffffffb0
    1250:	e5930004 	ldr	r0, [r3, #4]
    1254:	ebfffda8 	bl	8fc <inet_ntoa@plt>
    1258:	e50b0020 	str	r0, [fp, #-32]	; 0xffffffe0
    125c:	e51b3020 	ldr	r3, [fp, #-32]	; 0xffffffe0
    1260:	e24b2044 	sub	r2, fp, #68	; 0x44
    1264:	e1a00002 	mov	r0, r2
    1268:	e1a01003 	mov	r1, r3
[31m    126c:	ebfffd6f 	bl	830 <strcpy@plt>[0m
    1270:	e3a00001 	mov	r0, #1
    1274:	e3a0102c 	mov	r1, #44	; 0x2c
--
    1808:	e1a01003 	mov	r1, r3
    180c:	ebfffc31 	bl	8d8 <fopen@plt>
    1810:	e50b001c 	str	r0, [fp, #-28]	; 0xffffffe4
    1814:	e51b301c 	ldr	r3, [fp, #-28]	; 0xffffffe4
    1818:	e3530000 	cmp	r3, #0
    181c:	1a000005 	bne	1838 <ipsec_spd_add_outbound+0x80>
    1820:	ebfffc3b 	bl	914 <__errno_location@plt>
    1824:	e1a03000 	mov	r3, r0
    1828:	e5933000 	ldr	r3, [r3]
    182c:	e2633000 	rsb	r3, r3, #0
    1830:	e50b3018 	str	r3, [fp, #-24]	; 0xffffffe8
    1834:	ea000091 	b	1a80 <ipsec_spd_add_outbound+0x2c8>
    1838:	e51b303c 	ldr	r3, [fp, #-60]	; 0xffffffc4
    183c:	e5930004 	ldr	r0, [r3, #4]
    1840:	ebfffc2d 	bl	8fc <inet_ntoa@plt>
    1844:	e50b0020 	str	r0, [fp, #-32]	; 0xffffffe0
    1848:	e51b3020 	ldr	r3, [fp, #-32]	; 0xffffffe0
    184c:	e24b2030 	sub	r2, fp, #48	; 0x30
    1850:	e1a00002 	mov	r0, r2
    1854:	e1a01003 	mov	r1, r3
[31m    1858:	ebfffbf4 	bl	830 <strcpy@plt>[0m
    185c:	e59f3238 	ldr	r3, [pc, #568]	; 1a9c <ipsec_spd_add_outbound+0x2e4>
    1860:	e0843003 	add	r3, r4, r3

[0m
[[0;33m*[0m] Function [0;33mstrcpy[0m used [0;33m5[0m times [0;33mipsec.so[0m

