[[0;33m*[0m] Binary protection state of [0;33mlibxt_recent.so.svn-base[0m
[REF] s12

  	RELRO          CANARY            NX           PIE       RPATH        RUNPATH      SYMBOLS      
  	[31mNo RELRO[0m       [31mNo Canary found[0m   [32mNX enabled[0m   [33mDSO[0m          [32mNo RPATH[0m     [32mNo RUNPATH[0m   [31mSymbols
	[31mNo RELRO[0m       [31mNo Canary found[0m   [32mNX enabled[0m   [33mDSO[0m          [32mNo RPATH[0m     [32mNo RUNPATH[0m   [32mNo Symbols[0m

[0m
[[0;33m*[0m] Function [0;33mprintf[0m tear down of [0;33mlibxt_recent.so.svn-base[0m

 7ac:	e3130002 	tst	r3, #2
 7b0:	1a00003c 	bne	8a8 <__register_frame_info@plt+0x34c>
 7b4:	e3130001 	tst	r3, #1
 7b8:	1a000035 	bne	894 <__register_frame_info@plt+0x338>
 7bc:	e3130004 	tst	r3, #4
 7c0:	1a00002e 	bne	880 <__register_frame_info@plt+0x324>
 7c4:	e3130008 	tst	r3, #8
 7c8:	1a000028 	bne	870 <__register_frame_info@plt+0x314>
 7cc:	e5961020 	ldr	r1, [r6, #32]
 7d0:	e3510000 	cmp	r1, #0
 7d4:	1a000021 	bne	860 <__register_frame_info@plt+0x304>
 7d8:	e5941004 	ldr	r1, [r4, #4]
 7dc:	e3510000 	cmp	r1, #0
 7e0:	1a00001a 	bne	850 <__register_frame_info@plt+0x2f4>
 7e4:	e5d43008 	ldrb	r3, [r4, #8]
 7e8:	e3130010 	tst	r3, #16
 7ec:	1a000013 	bne	840 <__register_frame_info@plt+0x2e4>
 7f0:	e59f00d8 	ldr	r0, [pc, #216]	; 8d0 <__register_frame_info@plt+0x374>
 7f4:	e284100a 	add	r1, r4, #10
 7f8:	e0850000 	add	r0, r5, r0
[31m 7fc:	ebffff41 	bl	508 <printf@plt>[0m
 800:	e5d430d2 	ldrb	r3, [r4, #210]	; 0xd2
 804:	e3530000 	cmp	r3, #0
 808:	0a000005 	beq	824 <__register_frame_info@plt+0x2c8>
 80c:	e3530001 	cmp	r3, #1
 810:	18bd8070 	popne	{r4, r5, r6, pc}
 814:	e59f00b8 	ldr	r0, [pc, #184]	; 8d4 <__register_frame_info@plt+0x378>
 818:	e0850000 	add	r0, r5, r0
 81c:	e8bd4070 	pop	{r4, r5, r6, lr}
[31m 820:	eaffff38 	b	508 <printf@plt>[0m
 824:	e59f00ac 	ldr	r0, [pc, #172]	; 8d8 <__register_frame_info@plt+0x37c>
 828:	e0850000 	add	r0, r5, r0
[31m 82c:	ebffff35 	bl	508 <printf@plt>[0m
 830:	e5d430d2 	ldrb	r3, [r4, #210]	; 0xd2
 834:	e3530001 	cmp	r3, #1
 838:	18bd8070 	popne	{r4, r5, r6, pc}
 83c:	eafffff4 	b	814 <__register_frame_info@plt+0x2b8>
 840:	e59f0094 	ldr	r0, [pc, #148]	; 8dc <__register_frame_info@plt+0x380>
 844:	e0850000 	add	r0, r5, r0
[31m 848:	ebffff2e 	bl	508 <printf@plt>[0m
 84c:	eaffffe7 	b	7f0 <__register_frame_info@plt+0x294>
 850:	e59f0088 	ldr	r0, [pc, #136]	; 8e0 <__register_frame_info@plt+0x384>
 854:	e0850000 	add	r0, r5, r0
[31m 858:	ebffff2a 	bl	508 <printf@plt>[0m
 85c:	eaffffe0 	b	7e4 <__register_frame_info@plt+0x288>
 860:	e59f007c 	ldr	r0, [pc, #124]	; 8e4 <__register_frame_info@plt+0x388>
 864:	e0850000 	add	r0, r5, r0
[31m 868:	ebffff26 	bl	508 <printf@plt>[0m
 86c:	eaffffd9 	b	7d8 <__register_frame_info@plt+0x27c>
 870:	e59f0070 	ldr	r0, [pc, #112]	; 8e8 <__register_frame_info@plt+0x38c>
 874:	e0850000 	add	r0, r5, r0
[31m 878:	ebffff22 	bl	508 <printf@plt>[0m
 87c:	eaffffd2 	b	7cc <__register_frame_info@plt+0x270>
 880:	e59f0064 	ldr	r0, [pc, #100]	; 8ec <__register_frame_info@plt+0x390>
 884:	e0850000 	add	r0, r5, r0
[31m 888:	ebffff1e 	bl	508 <printf@plt>[0m
 88c:	e5d43008 	ldrb	r3, [r4, #8]
 890:	eaffffcb 	b	7c4 <__register_frame_info@plt+0x268>
 894:	e59f0054 	ldr	r0, [pc, #84]	; 8f0 <__register_frame_info@plt+0x394>
 898:	e0850000 	add	r0, r5, r0
[31m 89c:	ebffff19 	bl	508 <printf@plt>[0m
 8a0:	e5d43008 	ldrb	r3, [r4, #8]
 8a4:	eaffffc4 	b	7bc <__register_frame_info@plt+0x260>
 8a8:	e59f0044 	ldr	r0, [pc, #68]	; 8f4 <__register_frame_info@plt+0x398>
 8ac:	e0850000 	add	r0, r5, r0
[31m 8b0:	ebffff14 	bl	508 <printf@plt>[0m
 8b4:	e5d43008 	ldrb	r3, [r4, #8]
 8b8:	eaffffbd 	b	7b4 <__register_frame_info@plt+0x258>
 8bc:	e59f0034 	ldr	r0, [pc, #52]	; 8f8 <__register_frame_info@plt+0x39c>
 8c0:	e0850000 	add	r0, r5, r0
[31m 8c4:	ebffff0f 	bl	508 <printf@plt>[0m
 8c8:	eaffffb6 	b	7a8 <__register_frame_info@plt+0x24c>
 8cc:	00008e54 	andeq	r8, r0, r4, asr lr
--
 8d4:	ffff75cc 			; <UNDEFINED> instruction: 0xffff75cc
 8d8:	ffff75c0 			; <UNDEFINED> instruction: 0xffff75c0
 8dc:	ffff75ac 			; <UNDEFINED> instruction: 0xffff75ac
 8e0:	ffff759c 			; <UNDEFINED> instruction: 0xffff759c
 8e4:	ffff758c 			; <UNDEFINED> instruction: 0xffff758c
 8e8:	ffff7580 			; <UNDEFINED> instruction: 0xffff7580
 8ec:	ffff7574 			; <UNDEFINED> instruction: 0xffff7574
 8f0:	ffff7568 			; <UNDEFINED> instruction: 0xffff7568
 8f4:	ffff7560 			; <UNDEFINED> instruction: 0xffff7560
 8f8:	ffff755c 			; <UNDEFINED> instruction: 0xffff755c
 8fc:	e92d4070 	push	{r4, r5, r6, lr}
 900:	e2815020 	add	r5, r1, #32
 904:	e5d53009 	ldrb	r3, [r5, #9]
 908:	e1a06001 	mov	r6, r1
 90c:	e59f4138 	ldr	r4, [pc, #312]	; a4c <__register_frame_info@plt+0x4f0>
 910:	e3530000 	cmp	r3, #0
 914:	e08f4004 	add	r4, pc, r4
 918:	1a000047 	bne	a3c <__register_frame_info@plt+0x4e0>
 91c:	e59f012c 	ldr	r0, [pc, #300]	; a50 <__register_frame_info@plt+0x4f4>
 920:	e0840000 	add	r0, r4, r0
[31m 924:	ebfffef7 	bl	508 <printf@plt>[0m
 928:	e5d53008 	ldrb	r3, [r5, #8]
 92c:	e3130002 	tst	r3, #2
 930:	1a00003c 	bne	a28 <__register_frame_info@plt+0x4cc>
 934:	e3130001 	tst	r3, #1
 938:	1a000035 	bne	a14 <__register_frame_info@plt+0x4b8>
 93c:	e3130004 	tst	r3, #4
 940:	1a00002e 	bne	a00 <__register_frame_info@plt+0x4a4>
 944:	e3130008 	tst	r3, #8
 948:	1a000028 	bne	9f0 <__register_frame_info@plt+0x494>
 94c:	e5961020 	ldr	r1, [r6, #32]
 950:	e3510000 	cmp	r1, #0
 954:	1a000021 	bne	9e0 <__register_frame_info@plt+0x484>
 958:	e5951004 	ldr	r1, [r5, #4]
 95c:	e3510000 	cmp	r1, #0
 960:	1a00001a 	bne	9d0 <__register_frame_info@plt+0x474>
 964:	e5d53008 	ldrb	r3, [r5, #8]
 968:	e3130010 	tst	r3, #16
 96c:	1a000013 	bne	9c0 <__register_frame_info@plt+0x464>
 970:	e59f00dc 	ldr	r0, [pc, #220]	; a54 <__register_frame_info@plt+0x4f8>
 974:	e285100a 	add	r1, r5, #10
 978:	e0840000 	add	r0, r4, r0
[31m 97c:	ebfffee1 	bl	508 <printf@plt>[0m
 980:	e5d530d2 	ldrb	r3, [r5, #210]	; 0xd2
 984:	e3530000 	cmp	r3, #0
 988:	0a000005 	beq	9a4 <__register_frame_info@plt+0x448>
 98c:	e3530001 	cmp	r3, #1
 990:	18bd8070 	popne	{r4, r5, r6, pc}
 994:	e59f00bc 	ldr	r0, [pc, #188]	; a58 <__register_frame_info@plt+0x4fc>
 998:	e0840000 	add	r0, r4, r0
 99c:	e8bd4070 	pop	{r4, r5, r6, lr}
[31m 9a0:	eafffed8 	b	508 <printf@plt>[0m
 9a4:	e59f00b0 	ldr	r0, [pc, #176]	; a5c <__register_frame_info@plt+0x500>
 9a8:	e0840000 	add	r0, r4, r0
[31m 9ac:	ebfffed5 	bl	508 <printf@plt>[0m
 9b0:	e5d530d2 	ldrb	r3, [r5, #210]	; 0xd2
 9b4:	e3530001 	cmp	r3, #1
 9b8:	18bd8070 	popne	{r4, r5, r6, pc}
 9bc:	eafffff4 	b	994 <__register_frame_info@plt+0x438>
 9c0:	e59f0098 	ldr	r0, [pc, #152]	; a60 <__register_frame_info@plt+0x504>
 9c4:	e0840000 	add	r0, r4, r0
[31m 9c8:	ebfffece 	bl	508 <printf@plt>[0m
 9cc:	eaffffe7 	b	970 <__register_frame_info@plt+0x414>
 9d0:	e59f008c 	ldr	r0, [pc, #140]	; a64 <__register_frame_info@plt+0x508>
 9d4:	e0840000 	add	r0, r4, r0
[31m 9d8:	ebfffeca 	bl	508 <printf@plt>[0m
 9dc:	eaffffe0 	b	964 <__register_frame_info@plt+0x408>
 9e0:	e59f0080 	ldr	r0, [pc, #128]	; a68 <__register_frame_info@plt+0x50c>
 9e4:	e0840000 	add	r0, r4, r0
[31m 9e8:	ebfffec6 	bl	508 <printf@plt>[0m
 9ec:	eaffffd9 	b	958 <__register_frame_info@plt+0x3fc>
 9f0:	e59f0074 	ldr	r0, [pc, #116]	; a6c <__register_frame_info@plt+0x510>
 9f4:	e0840000 	add	r0, r4, r0
[31m 9f8:	ebfffec2 	bl	508 <printf@plt>[0m
 9fc:	eaffffd2 	b	94c <__register_frame_info@plt+0x3f0>
 a00:	e59f0068 	ldr	r0, [pc, #104]	; a70 <__register_frame_info@plt+0x514>
 a04:	e0840000 	add	r0, r4, r0
[31m a08:	ebfffebe 	bl	508 <printf@plt>[0m
 a0c:	e5d53008 	ldrb	r3, [r5, #8]
 a10:	eaffffcb 	b	944 <__register_frame_info@plt+0x3e8>
 a14:	e59f0058 	ldr	r0, [pc, #88]	; a74 <__register_frame_info@plt+0x518>
 a18:	e0840000 	add	r0, r4, r0
[31m a1c:	ebfffeb9 	bl	508 <printf@plt>[0m
 a20:	e5d53008 	ldrb	r3, [r5, #8]
 a24:	eaffffc4 	b	93c <__register_frame_info@plt+0x3e0>
 a28:	e59f0048 	ldr	r0, [pc, #72]	; a78 <__register_frame_info@plt+0x51c>
 a2c:	e0840000 	add	r0, r4, r0
[31m a30:	ebfffeb4 	bl	508 <printf@plt>[0m
 a34:	e5d53008 	ldrb	r3, [r5, #8]
 a38:	eaffffbd 	b	934 <__register_frame_info@plt+0x3d8>
 a3c:	e59f0038 	ldr	r0, [pc, #56]	; a7c <__register_frame_info@plt+0x520>
 a40:	e0840000 	add	r0, r4, r0
[31m a44:	ebfffeaf 	bl	508 <printf@plt>[0m
 a48:	eaffffb3 	b	91c <__register_frame_info@plt+0x3c0>
 a4c:	00008ce0 	andeq	r8, r0, r0, ror #25

[0m
[[0;33m*[0m] Function [0;33mprintf[0m used [0;33m21[0m times [0;33mlibxt_recent.so.svn-base[0m

