[[0;33m*[0m] Binary protection state of [0;33mlibxt_esp.so[0m
[REF] s12

  	RELRO          CANARY            NX           PIE       RPATH        RUNPATH      SYMBOLS      
  	[31mNo RELRO[0m       [31mNo Canary found[0m   [32mNX enabled[0m   [33mDSO[0m          [32mNo RPATH[0m     [32mNo RUNPATH[0m   [31mSymbols
	[31mNo RELRO[0m       [31mNo Canary found[0m   [32mNX enabled[0m   [33mDSO[0m          [32mNo RPATH[0m     [32mNo RUNPATH[0m   [32mNo Symbols[0m

[0m
[[0;33m*[0m] Function [0;33mprintf[0m tear down of [0;33mlibxt_esp.so[0m

 5d8:	15c53008 	strbne	r3, [r5, #8]
 5dc:	e8bd8038 	pop	{r3, r4, r5, pc}
 5e0:	e92d4070 	push	{r4, r5, r6, lr}
 5e4:	e1a05001 	mov	r5, r1
 5e8:	e5913020 	ldr	r3, [r1, #32]
 5ec:	e2816020 	add	r6, r1, #32
 5f0:	e59f4088 	ldr	r4, [pc, #136]	; 680 <__register_frame_info@plt+0x1d4>
 5f4:	e3530000 	cmp	r3, #0
 5f8:	e08f4004 	add	r4, pc, r4
 5fc:	1a000002 	bne	60c <__register_frame_info@plt+0x160>
 600:	e5963004 	ldr	r3, [r6, #4]
 604:	e3730001 	cmn	r3, #1
 608:	08bd8070 	popeq	{r4, r5, r6, pc}
 60c:	e5d63008 	ldrb	r3, [r6, #8]
 610:	e3130001 	tst	r3, #1
 614:	1a00000c 	bne	64c <__register_frame_info@plt+0x1a0>
 618:	e59f1064 	ldr	r1, [pc, #100]	; 684 <__register_frame_info@plt+0x1d8>
 61c:	e59f0064 	ldr	r0, [pc, #100]	; 688 <__register_frame_info@plt+0x1dc>
 620:	e0841001 	add	r1, r4, r1
 624:	e0840000 	add	r0, r4, r0
[31m 628:	ebffff8d 	bl	464 <printf@plt>[0m
 62c:	e5951020 	ldr	r1, [r5, #32]
 630:	e5962004 	ldr	r2, [r6, #4]
 634:	e1510002 	cmp	r1, r2
 638:	0a00000c 	beq	670 <__register_frame_info@plt+0x1c4>
 63c:	e59f0048 	ldr	r0, [pc, #72]	; 68c <__register_frame_info@plt+0x1e0>
 640:	e0840000 	add	r0, r4, r0
 644:	e8bd4070 	pop	{r4, r5, r6, lr}
[31m 648:	eaffff85 	b	464 <printf@plt>[0m
 64c:	e59f103c 	ldr	r1, [pc, #60]	; 690 <__register_frame_info@plt+0x1e4>
 650:	e59f0030 	ldr	r0, [pc, #48]	; 688 <__register_frame_info@plt+0x1dc>
 654:	e0841001 	add	r1, r4, r1
 658:	e0840000 	add	r0, r4, r0
[31m 65c:	ebffff80 	bl	464 <printf@plt>[0m
 660:	e5951020 	ldr	r1, [r5, #32]
 664:	e5962004 	ldr	r2, [r6, #4]
 668:	e1510002 	cmp	r1, r2
 66c:	1afffff2 	bne	63c <__register_frame_info@plt+0x190>
 670:	e59f001c 	ldr	r0, [pc, #28]	; 694 <__register_frame_info@plt+0x1e8>
 674:	e0840000 	add	r0, r4, r0
 678:	e8bd4070 	pop	{r4, r5, r6, lr}
[31m 67c:	eaffff78 	b	464 <printf@plt>[0m
 680:	000083b8 			; <UNDEFINED> instruction: 0x000083b8
 684:	ffff7e24 			; <UNDEFINED> instruction: 0xffff7e24
 688:	ffff7e18 			; <UNDEFINED> instruction: 0xffff7e18
 68c:	ffff7e28 			; <UNDEFINED> instruction: 0xffff7e28
 690:	ffff7e14 			; <UNDEFINED> instruction: 0xffff7e14
 694:	ffff7e30 			; <UNDEFINED> instruction: 0xffff7e30
 698:	e92d4070 	push	{r4, r5, r6, lr}
 69c:	e2815020 	add	r5, r1, #32
 6a0:	e59f40bc 	ldr	r4, [pc, #188]	; 764 <__register_frame_info@plt+0x2b8>
 6a4:	e24dd008 	sub	sp, sp, #8
 6a8:	e1a06001 	mov	r6, r1
 6ac:	e59f00b4 	ldr	r0, [pc, #180]	; 768 <__register_frame_info@plt+0x2bc>
 6b0:	e08f4004 	add	r4, pc, r4
 6b4:	e0840000 	add	r0, r4, r0
[31m 6b8:	ebffff69 	bl	464 <printf@plt>[0m
 6bc:	e5d51008 	ldrb	r1, [r5, #8]
 6c0:	e5963020 	ldr	r3, [r6, #32]
--
 6c8:	e211c001 	ands	ip, r1, #1
 6cc:	0a00001a 	beq	73c <__register_frame_info@plt+0x290>
 6d0:	e59f2094 	ldr	r2, [pc, #148]	; 76c <__register_frame_info@plt+0x2c0>
 6d4:	e0842002 	add	r2, r4, r2
 6d8:	e3700001 	cmn	r0, #1
 6dc:	03530000 	cmpeq	r3, #0
 6e0:	1a000005 	bne	6fc <__register_frame_info@plt+0x250>
 6e4:	e35c0000 	cmp	ip, #0
 6e8:	1a000005 	bne	704 <__register_frame_info@plt+0x258>
 6ec:	e3d11001 	bics	r1, r1, #1
 6f0:	1a00000c 	bne	728 <__register_frame_info@plt+0x27c>
 6f4:	e28dd008 	add	sp, sp, #8
 6f8:	e8bd8070 	pop	{r4, r5, r6, pc}
 6fc:	e1530000 	cmp	r3, r0
 700:	0a000010 	beq	748 <__register_frame_info@plt+0x29c>
 704:	e58d0000 	str	r0, [sp]
 708:	e59f1060 	ldr	r1, [pc, #96]	; 770 <__register_frame_info@plt+0x2c4>
 70c:	e59f0060 	ldr	r0, [pc, #96]	; 774 <__register_frame_info@plt+0x2c8>
 710:	e0841001 	add	r1, r4, r1
 714:	e0840000 	add	r0, r4, r0
[31m 718:	ebffff51 	bl	464 <printf@plt>[0m
 71c:	e5d51008 	ldrb	r1, [r5, #8]
 720:	e3d11001 	bics	r1, r1, #1
 724:	0afffff2 	beq	6f4 <__register_frame_info@plt+0x248>
 728:	e59f0048 	ldr	r0, [pc, #72]	; 778 <__register_frame_info@plt+0x2cc>
 72c:	e0840000 	add	r0, r4, r0
 730:	e28dd008 	add	sp, sp, #8
 734:	e8bd4070 	pop	{r4, r5, r6, lr}
[31m 738:	eaffff49 	b	464 <printf@plt>[0m
 73c:	e59f2038 	ldr	r2, [pc, #56]	; 77c <__register_frame_info@plt+0x2d0>
 740:	e0842002 	add	r2, r4, r2
 744:	eaffffe3 	b	6d8 <__register_frame_info@plt+0x22c>
 748:	e59f0030 	ldr	r0, [pc, #48]	; 780 <__register_frame_info@plt+0x2d4>
 74c:	e59f101c 	ldr	r1, [pc, #28]	; 770 <__register_frame_info@plt+0x2c4>
 750:	e0840000 	add	r0, r4, r0
 754:	e0841001 	add	r1, r4, r1
[31m 758:	ebffff41 	bl	464 <printf@plt>[0m
 75c:	e5d51008 	ldrb	r1, [r5, #8]
 760:	eaffffe1 	b	6ec <__register_frame_info@plt+0x240>

[0m
[[0;33m*[0m] Function [0;33mprintf[0m used [0;33m5[0m times [0;33mlibxt_esp.so[0m

