[[0;33m*[0m] Binary protection state of [0;33mwps_monitor[0m
[REF] s12

  	RELRO          CANARY            NX           PIE       RPATH        RUNPATH      SYMBOLS      
  	[31mNo RELRO[0m       [31mNo Canary found[0m   [32mNX enabled[0m   [31mNo PIE[0m       [32mNo RPATH[0m     [32mNo RUNPATH[0m   [32mNo Symbols[0m

[0m
[[0;33m*[0m] Function [0;33mstrcat[0m tear down of [0;33mwps_monitor[0m

    ba04:	e1a02082 	lsl	r2, r2, #1
    ba08:	ebfff796 	bl	9868 <memcpy@plt>
    ba0c:	e1a00004 	mov	r0, r4
    ba10:	ebfff8b1 	bl	9cdc <free@plt>
    ba14:	e1a00005 	mov	r0, r5
    ba18:	e8bd80f8 	pop	{r3, r4, r5, r6, r7, pc}
    ba1c:	e1a00004 	mov	r0, r4
    ba20:	e3e05000 	mvn	r5, #0
    ba24:	ebfff8ac 	bl	9cdc <free@plt>
    ba28:	eafffff9 	b	ba14 <_start+0x1c90>
    ba2c:	00026508 	andeq	r6, r2, r8, lsl #10
    ba30:	e92d4038 	push	{r3, r4, r5, lr}
    ba34:	e1a03000 	mov	r3, r0
    ba38:	e1a04002 	mov	r4, r2
    ba3c:	e1a05001 	mov	r5, r1
    ba40:	e1a00002 	mov	r0, r2
    ba44:	e1a01003 	mov	r1, r3
    ba48:	ebfff8c7 	bl	9d6c <strcpy@plt>
    ba4c:	e1a00004 	mov	r0, r4
    ba50:	e1a01005 	mov	r1, r5
[31m    ba54:	ebfff79e 	bl	98d4 <strcat@plt>[0m
    ba58:	e1a00004 	mov	r0, r4
    ba5c:	e8bd8038 	pop	{r3, r4, r5, pc}
--
    bb60:	0a00000c 	beq	bb98 <_start+0x1e14>
    bb64:	e59f5064 	ldr	r5, [pc, #100]	; bbd0 <_start+0x1e4c>
    bb68:	e1a02004 	mov	r2, r4
    bb6c:	e58d6000 	str	r6, [sp]
    bb70:	e1a03008 	mov	r3, r8
    bb74:	e59f1058 	ldr	r1, [pc, #88]	; bbd4 <_start+0x1e50>
    bb78:	e5954000 	ldr	r4, [r5]
    bb7c:	e1a00004 	mov	r0, r4
    bb80:	ebfff83d 	bl	9c7c <sprintf@plt>
    bb84:	e0840000 	add	r0, r4, r0
    bb88:	e5850000 	str	r0, [r5]
    bb8c:	e1a00006 	mov	r0, r6
    bb90:	e28dd094 	add	sp, sp, #148	; 0x94
    bb94:	e8bd85f0 	pop	{r4, r5, r6, r7, r8, sl, pc}
    bb98:	e28d600c 	add	r6, sp, #12
    bb9c:	e1a01005 	mov	r1, r5
    bba0:	e1a00006 	mov	r0, r6
    bba4:	ebfff870 	bl	9d6c <strcpy@plt>
    bba8:	e1a00006 	mov	r0, r6
    bbac:	e1a01008 	mov	r1, r8
[31m    bbb0:	ebfff747 	bl	98d4 <strcat@plt>[0m
    bbb4:	e1a00006 	mov	r0, r6
    bbb8:	ebfff7a8 	bl	9a60 <nvram_get@plt>
--
    c41c:	e1a00005 	mov	r0, r5
    c420:	ebfff651 	bl	9d6c <strcpy@plt>
    c424:	e1a00005 	mov	r0, r5
    c428:	ebfff568 	bl	99d0 <strlen@plt>
    c42c:	e3a02004 	mov	r2, #4
    c430:	e59f1360 	ldr	r1, [pc, #864]	; c798 <_start+0x2a14>
    c434:	e0850000 	add	r0, r5, r0
    c438:	ebfff50a 	bl	9868 <memcpy@plt>
    c43c:	e28d1e15 	add	r1, sp, #336	; 0x150
    c440:	e1a00005 	mov	r0, r5
    c444:	ebfffe52 	bl	bd94 <_start+0x2010>
    c448:	e1d728b8 	ldrh	r2, [r7, #136]	; 0x88
    c44c:	e28d0e15 	add	r0, sp, #336	; 0x150
    c450:	e59f1344 	ldr	r1, [pc, #836]	; c79c <_start+0x2a18>
    c454:	ebfff608 	bl	9c7c <sprintf@plt>
    c458:	e1a01004 	mov	r1, r4
    c45c:	e1a00005 	mov	r0, r5
    c460:	ebfff641 	bl	9d6c <strcpy@plt>
    c464:	e28d1e15 	add	r1, sp, #336	; 0x150
    c468:	e1a00005 	mov	r0, r5
[31m    c46c:	ebfff518 	bl	98d4 <strcat@plt>[0m
    c470:	e59d1008 	ldr	r1, [sp, #8]
    c474:	e597c080 	ldr	ip, [r7, #128]	; 0x80
--
    cf9c:	e28d1ffa 	add	r1, sp, #1000	; 0x3e8
    cfa0:	e2822004 	add	r2, r2, #4
    cfa4:	e3a03000 	mov	r3, #0
    cfa8:	ebfffaca 	bl	bad8 <_start+0x1d54>
    cfac:	e1a00006 	mov	r0, r6
    cfb0:	e59f18c8 	ldr	r1, [pc, #2248]	; d880 <_start+0x3afc>
    cfb4:	ebfff342 	bl	9cc4 <strcmp@plt>
    cfb8:	e3500000 	cmp	r0, #0
    cfbc:	0a00024a 	beq	d8ec <_start+0x3b68>
    cfc0:	e5dd33a8 	ldrb	r3, [sp, #936]	; 0x3a8
    cfc4:	e3530000 	cmp	r3, #0
    cfc8:	0a0001f9 	beq	d7b4 <_start+0x3a30>
    cfcc:	e28d0fe2 	add	r0, sp, #904	; 0x388
    cfd0:	e1a01008 	mov	r1, r8
    cfd4:	ebfff364 	bl	9d6c <strcpy@plt>
    cfd8:	e5dd3058 	ldrb	r3, [sp, #88]	; 0x58
    cfdc:	e3530000 	cmp	r3, #0
    cfe0:	1a000283 	bne	d9f4 <_start+0x3c70>
    cfe4:	e28d0058 	add	r0, sp, #88	; 0x58
    cfe8:	e1a01008 	mov	r1, r8
[31m    cfec:	ebfff238 	bl	98d4 <strcat@plt>[0m
    cff0:	eaffff3c 	b	cce8 <_start+0x2f64>
    cff4:	e2899001 	add	r9, r9, #1
--
    d948:	e58dc04c 	str	ip, [sp, #76]	; 0x4c
    d94c:	1a000020 	bne	d9d4 <_start+0x3c50>
    d950:	e28d0fee 	add	r0, sp, #952	; 0x3b8
    d954:	e1a01008 	mov	r1, r8
    d958:	ebfff103 	bl	9d6c <strcpy@plt>
    d95c:	e51f208c 	ldr	r2, [pc, #-140]	; d8d8 <_start+0x3b54>
    d960:	e3a03000 	mov	r3, #0
    d964:	e28d1ffa 	add	r1, sp, #1000	; 0x3e8
    d968:	e1a00008 	mov	r0, r8
    d96c:	ebfff859 	bl	bad8 <_start+0x1d54>
    d970:	e3a03000 	mov	r3, #0
    d974:	e1a00008 	mov	r0, r8
    d978:	e28d1ffa 	add	r1, sp, #1000	; 0x3e8
    d97c:	e51f20a8 	ldr	r2, [pc, #-168]	; d8dc <_start+0x3b58>
    d980:	ebfff854 	bl	bad8 <_start+0x1d54>
    d984:	e5dd3158 	ldrb	r3, [sp, #344]	; 0x158
    d988:	e3530000 	cmp	r3, #0
    d98c:	1a000020 	bne	da14 <_start+0x3c90>
    d990:	e28d0f56 	add	r0, sp, #344	; 0x158
    d994:	e1a01008 	mov	r1, r8
[31m    d998:	ebffefcd 	bl	98d4 <strcat@plt>[0m
    d99c:	e58d9050 	str	r9, [sp, #80]	; 0x50
    d9a0:	eafffcd0 	b	cce8 <_start+0x2f64>
--
   15f44:	e0880000 	add	r0, r8, r0
   15f48:	e2899008 	add	r9, r9, #8
   15f4c:	ebffce45 	bl	9868 <memcpy@plt>
   15f50:	e1a00008 	mov	r0, r8
   15f54:	ebffe3ad 	bl	ee10 <_start+0x508c>
   15f58:	e3a01000 	mov	r1, #0
   15f5c:	e58d0018 	str	r0, [sp, #24]
   15f60:	e1a02001 	mov	r2, r1
   15f64:	ebffce69 	bl	9910 <strtoul@plt>
   15f68:	e59d3018 	ldr	r3, [sp, #24]
   15f6c:	e58d0024 	str	r0, [sp, #36]	; 0x24
   15f70:	e1a00009 	mov	r0, r9
   15f74:	e59f13fc 	ldr	r1, [pc, #1020]	; 16378 <_start+0xc5f4>
   15f78:	e1a02003 	mov	r2, r3
   15f7c:	ebffcf3e 	bl	9c7c <sprintf@plt>
   15f80:	e1a0100b 	mov	r1, fp
   15f84:	e1a00008 	mov	r0, r8
   15f88:	ebffcf77 	bl	9d6c <strcpy@plt>
   15f8c:	e1a01009 	mov	r1, r9
   15f90:	e1a00008 	mov	r0, r8
[31m   15f94:	ebffce4e 	bl	98d4 <strcat@plt>[0m
   15f98:	e1a00008 	mov	r0, r8
   15f9c:	ebffe39b 	bl	ee10 <_start+0x508c>

[0m
[[0;33m*[0m] Function [0;33mstrcat[0m used [0;33m6[0m times [0;33mwps_monitor[0m

