[[0;33m*[0m] Binary protection state of [0;33macsd.svn-base[0m
[REF] s12

  	RELRO          CANARY            NX           PIE       RPATH        RUNPATH      SYMBOLS      
  	[31mNo RELRO[0m       [31mNo Canary found[0m   [32mNX enabled[0m   [31mNo PIE[0m       [32mNo RPATH[0m     [32mNo RUNPATH[0m   [32mNo Symbols[0m

[0m
[[0;33m*[0m] Function [0;33mstrcpy[0m tear down of [0;33macsd.svn-base[0m

    c0e4:	e5939000 	ldr	r9, [r3]
    c0e8:	eb000ef9 	bl	fcd4 <_start@@Base+0x6d70>
    c0ec:	e1a01007 	mov	r1, r7
    c0f0:	e3a02004 	mov	r2, #4
    c0f4:	e789010a 	str	r0, [r9, sl, lsl #2]
    c0f8:	e1a04000 	mov	r4, r0
    c0fc:	ebfff347 	bl	8e20 <strncpy@plt>
    c100:	e3a0100e 	mov	r1, #14
    c104:	e28d2f83 	add	r2, sp, #524	; 0x20c
    c108:	e3a03004 	mov	r3, #4
    c10c:	e1a00007 	mov	r0, r7
    c110:	ebfff372 	bl	8ee0 <wl_ioctl@plt>
    c114:	e59d320c 	ldr	r3, [sp, #524]	; 0x20c
    c118:	e3a01020 	mov	r1, #32
    c11c:	e59f2ed8 	ldr	r2, [pc, #3800]	; cffc <_start@@Base+0x4098>
    c120:	e1a0a000 	mov	sl, r0
    c124:	e1a00005 	mov	r0, r5
    c128:	ebfff2f4 	bl	8d00 <snprintf@plt>
    c12c:	e1a01005 	mov	r1, r5
    c130:	e1a00008 	mov	r0, r8
[31m    c134:	ebfff2df 	bl	8cb8 <strcpy@plt>[0m
    c138:	e1a00008 	mov	r0, r8
    c13c:	ebfff379 	bl	8f28 <strlen@plt>
    c140:	e59f1eb8 	ldr	r1, [pc, #3768]	; d000 <_start@@Base+0x409c>
    c144:	e3a02006 	mov	r2, #6
    c148:	e0880000 	add	r0, r8, r0
    c14c:	ebfff2f1 	bl	8d18 <memcpy@plt>
    c150:	e1a00008 	mov	r0, r8
    c154:	ebfff349 	bl	8e80 <nvram_get@plt>
    c158:	e3500000 	cmp	r0, #0
    c15c:	0a000003 	beq	c170 <_start@@Base+0x320c>
    c160:	e59f1e9c 	ldr	r1, [pc, #3740]	; d004 <_start@@Base+0x40a0>
    c164:	ebfff351 	bl	8eb0 <strcmp@plt>
    c168:	e3500000 	cmp	r0, #0
    c16c:	0a00020d 	beq	c9a8 <_start@@Base+0x3a44>
    c170:	e5963000 	ldr	r3, [r6]
    c174:	e3130004 	tst	r3, #4
    c178:	1a00021f 	bne	c9fc <_start@@Base+0x3a98>
    c17c:	e28d70a4 	add	r7, sp, #164	; 0xa4
    c180:	e1a01005 	mov	r1, r5
    c184:	e1a00007 	mov	r0, r7
    c188:	e28da024 	add	sl, sp, #36	; 0x24
[31m    c18c:	ebfff2c9 	bl	8cb8 <strcpy@plt>[0m
    c190:	e1a00007 	mov	r0, r7
    c194:	ebfff363 	bl	8f28 <strlen@plt>
    c198:	e59f1e68 	ldr	r1, [pc, #3688]	; d008 <_start@@Base+0x40a4>
    c19c:	e3a02016 	mov	r2, #22
    c1a0:	e0870000 	add	r0, r7, r0
    c1a4:	ebfff2db 	bl	8d18 <memcpy@plt>
    c1a8:	e1a0000a 	mov	r0, sl
    c1ac:	e3a01080 	mov	r1, #128	; 0x80
    c1b0:	e1a02007 	mov	r2, r7
    c1b4:	eb000eef 	bl	fd78 <_start@@Base+0x6e14>
    c1b8:	e5dd3024 	ldrb	r3, [sp, #36]	; 0x24
    c1bc:	e3530000 	cmp	r3, #0
    c1c0:	1a000257 	bne	cb24 <_start@@Base+0x3bc0>
    c1c4:	e5963000 	ldr	r3, [r6]
    c1c8:	e3130004 	tst	r3, #4
    c1cc:	1a000215 	bne	ca28 <_start@@Base+0x3ac4>
    c1d0:	e3a03f4b 	mov	r3, #300	; 0x12c
    c1d4:	e5843068 	str	r3, [r4, #104]	; 0x68
    c1d8:	e1a01005 	mov	r1, r5
    c1dc:	e1a00007 	mov	r0, r7
[31m    c1e0:	ebfff2b4 	bl	8cb8 <strcpy@plt>[0m
    c1e4:	e1a00007 	mov	r0, r7
    c1e8:	ebfff34e 	bl	8f28 <strlen@plt>
    c1ec:	e59f1e18 	ldr	r1, [pc, #3608]	; d00c <_start@@Base+0x40a8>
    c1f0:	e3a0200d 	mov	r2, #13
    c1f4:	e0870000 	add	r0, r7, r0
    c1f8:	ebfff2c6 	bl	8d18 <memcpy@plt>
    c1fc:	e1a0000a 	mov	r0, sl
    c200:	e3a01080 	mov	r1, #128	; 0x80
    c204:	e1a02007 	mov	r2, r7
    c208:	eb000eda 	bl	fd78 <_start@@Base+0x6e14>
    c20c:	e5dd3024 	ldrb	r3, [sp, #36]	; 0x24
    c210:	e3530000 	cmp	r3, #0
    c214:	1a000233 	bne	cae8 <_start@@Base+0x3b84>
    c218:	e5963000 	ldr	r3, [r6]
    c21c:	e3130004 	tst	r3, #4
    c220:	1a000211 	bne	ca6c <_start@@Base+0x3b08>
    c224:	e3a03000 	mov	r3, #0
    c228:	e5c430a0 	strb	r3, [r4, #160]	; 0xa0
    c22c:	e1a01005 	mov	r1, r5
    c230:	e1a00007 	mov	r0, r7
[31m    c234:	ebfff29f 	bl	8cb8 <strcpy@plt>[0m
    c238:	e1a00007 	mov	r0, r7
    c23c:	ebfff339 	bl	8f28 <strlen@plt>
    c240:	e59f1dc8 	ldr	r1, [pc, #3528]	; d010 <_start@@Base+0x40ac>
    c244:	e3a0200a 	mov	r2, #10
    c248:	e0870000 	add	r0, r7, r0
    c24c:	ebfff2b1 	bl	8d18 <memcpy@plt>
    c250:	e1a0000a 	mov	r0, sl
    c254:	e3a01080 	mov	r1, #128	; 0x80
    c258:	e1a02007 	mov	r2, r7
    c25c:	eb000ec5 	bl	fd78 <_start@@Base+0x6e14>
    c260:	e5dd3024 	ldrb	r3, [sp, #36]	; 0x24
    c264:	e3530000 	cmp	r3, #0
    c268:	1a00020f 	bne	caac <_start@@Base+0x3b48>
    c26c:	e5963000 	ldr	r3, [r6]
    c270:	e3130004 	tst	r3, #4
    c274:	03a02008 	moveq	r2, #8
    c278:	058d201c 	streq	r2, [sp, #28]
    c27c:	1a0001f3 	bne	ca50 <_start@@Base+0x3aec>
    c280:	e1a01005 	mov	r1, r5
    c284:	e1a00007 	mov	r0, r7
[31m    c288:	ebfff28a 	bl	8cb8 <strcpy@plt>[0m
    c28c:	e1a00007 	mov	r0, r7
    c290:	ebfff324 	bl	8f28 <strlen@plt>
    c294:	e59f1d78 	ldr	r1, [pc, #3448]	; d014 <_start@@Base+0x40b0>
    c298:	e3a02008 	mov	r2, #8
    c29c:	e0870000 	add	r0, r7, r0
    c2a0:	ebfff29c 	bl	8d18 <memcpy@plt>
    c2a4:	e1a0000a 	mov	r0, sl
    c2a8:	e3a01080 	mov	r1, #128	; 0x80
    c2ac:	e1a02007 	mov	r2, r7
    c2b0:	eb000eb0 	bl	fd78 <_start@@Base+0x6e14>
    c2b4:	e5dd3024 	ldrb	r3, [sp, #36]	; 0x24
    c2b8:	e3530000 	cmp	r3, #0
    c2bc:	1a000227 	bne	cb60 <_start@@Base+0x3bfc>
    c2c0:	e5963000 	ldr	r3, [r6]
    c2c4:	e3130004 	tst	r3, #4
    c2c8:	1a0001db 	bne	ca3c <_start@@Base+0x3ad8>
    c2cc:	e1a01005 	mov	r1, r5
    c2d0:	e1a00007 	mov	r0, r7
[31m    c2d4:	ebfff277 	bl	8cb8 <strcpy@plt>[0m
    c2d8:	e1a00007 	mov	r0, r7
    c2dc:	ebfff311 	bl	8f28 <strlen@plt>
--
    c2f4:	e3a01080 	mov	r1, #128	; 0x80
    c2f8:	e1a02007 	mov	r2, r7
    c2fc:	eb000e9d 	bl	fd78 <_start@@Base+0x6e14>
    c300:	e5dd3024 	ldrb	r3, [sp, #36]	; 0x24
    c304:	e3530000 	cmp	r3, #0
    c308:	0a0001c0 	beq	ca10 <_start@@Base+0x3aac>
    c30c:	e1a0000a 	mov	r0, sl
    c310:	ebfff2fb 	bl	8f04 <atoi@plt>
    c314:	e6ef9070 	uxtb	r9, r0
    c318:	e1a01009 	mov	r1, r9
    c31c:	e2840070 	add	r0, r4, #112	; 0x70
    c320:	ebffff33 	bl	bff4 <_start@@Base+0x3090>
    c324:	e5963000 	ldr	r3, [r6]
    c328:	e58d300c 	str	r3, [sp, #12]
    c32c:	e59d300c 	ldr	r3, [sp, #12]
    c330:	e3130004 	tst	r3, #4
    c334:	1a0001d7 	bne	ca98 <_start@@Base+0x3b34>
    c338:	e28daf42 	add	sl, sp, #264	; 0x108
    c33c:	e1a01005 	mov	r1, r5
    c340:	e1a0000a 	mov	r0, sl
[31m    c344:	ebfff25b 	bl	8cb8 <strcpy@plt>[0m
    c348:	e1a0000a 	mov	r0, sl
    c34c:	ebfff2f5 	bl	8f28 <strlen@plt>
    c350:	e59f1cc4 	ldr	r1, [pc, #3268]	; d01c <_start@@Base+0x40b8>
    c354:	e3a02013 	mov	r2, #19
    c358:	e08a0000 	add	r0, sl, r0
    c35c:	ebfff26d 	bl	8d18 <memcpy@plt>
    c360:	e1a0000a 	mov	r0, sl
    c364:	ebfff2c5 	bl	8e80 <nvram_get@plt>
    c368:	e3500000 	cmp	r0, #0
    c36c:	03a03001 	moveq	r3, #1
    c370:	05c431d5 	strbeq	r3, [r4, #469]	; 0x1d5
    c374:	0a000001 	beq	c380 <_start@@Base+0x341c>
    c378:	ebfff2e1 	bl	8f04 <atoi@plt>
    c37c:	e5c401d5 	strb	r0, [r4, #469]	; 0x1d5
    c380:	e1a01005 	mov	r1, r5
    c384:	e1a0000a 	mov	r0, sl
[31m    c388:	ebfff24a 	bl	8cb8 <strcpy@plt>[0m
    c38c:	e1a0000a 	mov	r0, sl
    c390:	ebfff2e4 	bl	8f28 <strlen@plt>
    c394:	e59f1c84 	ldr	r1, [pc, #3204]	; d020 <_start@@Base+0x40bc>
    c398:	e3a02010 	mov	r2, #16
    c39c:	e08a0000 	add	r0, sl, r0
    c3a0:	ebfff25c 	bl	8d18 <memcpy@plt>
    c3a4:	e1a0000a 	mov	r0, sl
    c3a8:	ebfff2b4 	bl	8e80 <nvram_get@plt>
    c3ac:	e3500000 	cmp	r0, #0
    c3b0:	03a03001 	moveq	r3, #1
    c3b4:	05c431d6 	strbeq	r3, [r4, #470]	; 0x1d6
    c3b8:	0a000001 	beq	c3c4 <_start@@Base+0x3460>
    c3bc:	ebfff2d0 	bl	8f04 <atoi@plt>
    c3c0:	e5c401d6 	strb	r0, [r4, #470]	; 0x1d6
    c3c4:	e1a01005 	mov	r1, r5
    c3c8:	e1a0000a 	mov	r0, sl
[31m    c3cc:	ebfff239 	bl	8cb8 <strcpy@plt>[0m
    c3d0:	e1a0000a 	mov	r0, sl
    c3d4:	ebfff2d3 	bl	8f28 <strlen@plt>
    c3d8:	e3a02012 	mov	r2, #18
    c3dc:	e59f1c40 	ldr	r1, [pc, #3136]	; d024 <_start@@Base+0x40c0>
    c3e0:	e08a0000 	add	r0, sl, r0
    c3e4:	ebfff24b 	bl	8d18 <memcpy@plt>
    c3e8:	e1a0000a 	mov	r0, sl
    c3ec:	ebfff2a3 	bl	8e80 <nvram_get@plt>
    c3f0:	e3500000 	cmp	r0, #0
    c3f4:	03a03f76 	moveq	r3, #472	; 0x1d8
    c3f8:	03a0201e 	moveq	r2, #30
    c3fc:	018420b3 	strheq	r2, [r4, r3]
    c400:	0a000002 	beq	c410 <_start@@Base+0x34ac>
    c404:	ebfff2be 	bl	8f04 <atoi@plt>
    c408:	e3a03f76 	mov	r3, #472	; 0x1d8
    c40c:	e18400b3 	strh	r0, [r4, r3]
    c410:	e1a01005 	mov	r1, r5
    c414:	e1a0000a 	mov	r0, sl
[31m    c418:	ebfff226 	bl	8cb8 <strcpy@plt>[0m
    c41c:	e1a0000a 	mov	r0, sl
    c420:	ebfff2c0 	bl	8f28 <strlen@plt>
    c424:	e59f1bfc 	ldr	r1, [pc, #3068]	; d028 <_start@@Base+0x40c4>
    c428:	e3a02017 	mov	r2, #23
    c42c:	e08a0000 	add	r0, sl, r0
    c430:	ebfff238 	bl	8d18 <memcpy@plt>
    c434:	e1a0000a 	mov	r0, sl
    c438:	ebfff290 	bl	8e80 <nvram_get@plt>
    c43c:	e3500000 	cmp	r0, #0
    c440:	03e03045 	mvneq	r3, #69	; 0x45
    c444:	058431c0 	streq	r3, [r4, #448]	; 0x1c0
    c448:	0a000001 	beq	c454 <_start@@Base+0x34f0>
    c44c:	ebfff2ac 	bl	8f04 <atoi@plt>
    c450:	e58401c0 	str	r0, [r4, #448]	; 0x1c0
    c454:	e1a01005 	mov	r1, r5
    c458:	e1a0000a 	mov	r0, sl
[31m    c45c:	ebfff215 	bl	8cb8 <strcpy@plt>[0m
    c460:	e1a0000a 	mov	r0, sl
    c464:	ebfff2af 	bl	8f28 <strlen@plt>
    c468:	e59f1bbc 	ldr	r1, [pc, #3004]	; d02c <_start@@Base+0x40c8>
    c46c:	e3a02015 	mov	r2, #21
    c470:	e08a0000 	add	r0, sl, r0
    c474:	ebfff227 	bl	8d18 <memcpy@plt>
    c478:	e1a0000a 	mov	r0, sl
    c47c:	ebfff27f 	bl	8e80 <nvram_get@plt>
    c480:	e3500000 	cmp	r0, #0
    c484:	03e0303b 	mvneq	r3, #59	; 0x3b
    c488:	058431c4 	streq	r3, [r4, #452]	; 0x1c4
    c48c:	0a000001 	beq	c498 <_start@@Base+0x3534>
    c490:	ebfff29b 	bl	8f04 <atoi@plt>
    c494:	e58401c4 	str	r0, [r4, #452]	; 0x1c4
    c498:	e1a01005 	mov	r1, r5
    c49c:	e1a0000a 	mov	r0, sl
[31m    c4a0:	ebfff204 	bl	8cb8 <strcpy@plt>[0m
    c4a4:	e1a0000a 	mov	r0, sl
    c4a8:	ebfff29e 	bl	8f28 <strlen@plt>
    c4ac:	e59f1b7c 	ldr	r1, [pc, #2940]	; d030 <_start@@Base+0x40cc>
    c4b0:	e3a02016 	mov	r2, #22
    c4b4:	e08a0000 	add	r0, sl, r0
    c4b8:	ebfff216 	bl	8d18 <memcpy@plt>
    c4bc:	e1a0000a 	mov	r0, sl
    c4c0:	ebfff26e 	bl	8e80 <nvram_get@plt>
    c4c4:	e3500000 	cmp	r0, #0
    c4c8:	03a03046 	moveq	r3, #70	; 0x46
    c4cc:	058431c8 	streq	r3, [r4, #456]	; 0x1c8
    c4d0:	0a000001 	beq	c4dc <_start@@Base+0x3578>
    c4d4:	ebfff28a 	bl	8f04 <atoi@plt>
    c4d8:	e58401c8 	str	r0, [r4, #456]	; 0x1c8
    c4dc:	e1a01005 	mov	r1, r5
    c4e0:	e1a0000a 	mov	r0, sl
[31m    c4e4:	ebfff1f3 	bl	8cb8 <strcpy@plt>[0m
    c4e8:	e1a0000a 	mov	r0, sl
    c4ec:	ebfff28d 	bl	8f28 <strlen@plt>
    c4f0:	e59f1b3c 	ldr	r1, [pc, #2876]	; d034 <_start@@Base+0x40d0>
    c4f4:	e3a02015 	mov	r2, #21
    c4f8:	e08a0000 	add	r0, sl, r0
    c4fc:	ebfff205 	bl	8d18 <memcpy@plt>
    c500:	e1a0000a 	mov	r0, sl
    c504:	ebfff25d 	bl	8e80 <nvram_get@plt>
    c508:	e3500000 	cmp	r0, #0
    c50c:	03a03032 	moveq	r3, #50	; 0x32
    c510:	058431cc 	streq	r3, [r4, #460]	; 0x1cc
    c514:	0a000001 	beq	c520 <_start@@Base+0x35bc>
    c518:	ebfff279 	bl	8f04 <atoi@plt>
    c51c:	e58401cc 	str	r0, [r4, #460]	; 0x1cc
    c520:	e3a02082 	mov	r2, #130	; 0x82
    c524:	e3a01000 	mov	r1, #0
    c528:	e28400a4 	add	r0, r4, #164	; 0xa4
    c52c:	ebfff256 	bl	8e8c <memset@plt>
    c530:	e1a01005 	mov	r1, r5
    c534:	e1a0000a 	mov	r0, sl
[31m    c538:	ebfff1de 	bl	8cb8 <strcpy@plt>[0m
    c53c:	e1a0000a 	mov	r0, sl
    c540:	ebfff278 	bl	8f28 <strlen@plt>
    c544:	e59f1aec 	ldr	r1, [pc, #2796]	; d038 <_start@@Base+0x40d4>
    c548:	e3a0200f 	mov	r2, #15
    c54c:	e08a0000 	add	r0, sl, r0
    c550:	ebfff1f0 	bl	8d18 <memcpy@plt>
    c554:	e1a0000a 	mov	r0, sl
    c558:	ebfff248 	bl	8e80 <nvram_get@plt>
    c55c:	e2503000 	subs	r3, r0, #0
    c560:	01c43ab4 	strheq	r3, [r4, #164]	; 0xa4
    c564:	0a000003 	beq	c578 <_start@@Base+0x3614>
    c568:	e28410a6 	add	r1, r4, #166	; 0xa6
    c56c:	ebfff9cb 	bl	aca0 <_start@@Base+0x1d3c>
    c570:	e6ef0070 	uxtb	r0, r0
    c574:	e1c40ab4 	strh	r0, [r4, #164]	; 0xa4
    c578:	e2840f49 	add	r0, r4, #292	; 0x124
    c57c:	e3a02082 	mov	r2, #130	; 0x82
    c580:	e3a01000 	mov	r1, #0
    c584:	e2800002 	add	r0, r0, #2
    c588:	ebfff23f 	bl	8e8c <memset@plt>
    c58c:	e1a01005 	mov	r1, r5
    c590:	e1a0000a 	mov	r0, sl
[31m    c594:	ebfff1c7 	bl	8cb8 <strcpy@plt>[0m
    c598:	e1a0000a 	mov	r0, sl
    c59c:	ebfff261 	bl	8f28 <strlen@plt>
    c5a0:	e3a0200f 	mov	r2, #15
    c5a4:	e59f1a90 	ldr	r1, [pc, #2704]	; d03c <_start@@Base+0x40d8>
    c5a8:	e08a0000 	add	r0, sl, r0
    c5ac:	ebfff1d9 	bl	8d18 <memcpy@plt>
    c5b0:	e1a0000a 	mov	r0, sl
    c5b4:	ebfff231 	bl	8e80 <nvram_get@plt>
    c5b8:	e2503000 	subs	r3, r0, #0
    c5bc:	03002126 	movweq	r2, #294	; 0x126
    c5c0:	018430b2 	strheq	r3, [r4, r2]
    c5c4:	0a000004 	beq	c5dc <_start@@Base+0x3678>
    c5c8:	e2841f4a 	add	r1, r4, #296	; 0x128
    c5cc:	ebfff9b3 	bl	aca0 <_start@@Base+0x1d3c>
    c5d0:	e6ef0070 	uxtb	r0, r0
    c5d4:	e3003126 	movw	r3, #294	; 0x126
    c5d8:	e18400b3 	strh	r0, [r4, r3]
    c5dc:	e1a01005 	mov	r1, r5
    c5e0:	e1a0000a 	mov	r0, sl
[31m    c5e4:	ebfff1b3 	bl	8cb8 <strcpy@plt>[0m
    c5e8:	e1a0000a 	mov	r0, sl
    c5ec:	ebfff24d 	bl	8f28 <strlen@plt>
    c5f0:	e59f1a48 	ldr	r1, [pc, #2632]	; d040 <_start@@Base+0x40dc>
    c5f4:	e3a0200c 	mov	r2, #12
    c5f8:	e08a0000 	add	r0, sl, r0
    c5fc:	ebfff1c5 	bl	8d18 <memcpy@plt>
    c600:	e1a0000a 	mov	r0, sl
    c604:	ebfff21d 	bl	8e80 <nvram_get@plt>
    c608:	e3500000 	cmp	r0, #0
    c60c:	03a03001 	moveq	r3, #1
    c610:	05c431d4 	strbeq	r3, [r4, #468]	; 0x1d4
    c614:	0a000001 	beq	c620 <_start@@Base+0x36bc>
    c618:	ebfff239 	bl	8f04 <atoi@plt>
    c61c:	e5c401d4 	strb	r0, [r4, #468]	; 0x1d4
    c620:	e1a01005 	mov	r1, r5
    c624:	e1a0000a 	mov	r0, sl
[31m    c628:	ebfff1a2 	bl	8cb8 <strcpy@plt>[0m
    c62c:	e1a0000a 	mov	r0, sl
    c630:	ebfff23c 	bl	8f28 <strlen@plt>
    c634:	e59f1a08 	ldr	r1, [pc, #2568]	; d044 <_start@@Base+0x40e0>
    c638:	e3a02014 	mov	r2, #20
    c63c:	e08a0000 	add	r0, sl, r0
    c640:	ebfff1b4 	bl	8d18 <memcpy@plt>
    c644:	e1a0000a 	mov	r0, sl
    c648:	ebfff20c 	bl	8e80 <nvram_get@plt>
    c64c:	e3500000 	cmp	r0, #0
    c650:	03a0301e 	moveq	r3, #30
    c654:	05c431d0 	strbeq	r3, [r4, #464]	; 0x1d0
    c658:	0a000001 	beq	c664 <_start@@Base+0x3700>
    c65c:	ebfff228 	bl	8f04 <atoi@plt>
    c660:	e5c401d0 	strb	r0, [r4, #464]	; 0x1d0
    c664:	e1a01005 	mov	r1, r5
    c668:	e1a0000a 	mov	r0, sl
[31m    c66c:	ebfff191 	bl	8cb8 <strcpy@plt>[0m
    c670:	e1a0000a 	mov	r0, sl
    c674:	ebfff22b 	bl	8f28 <strlen@plt>
    c678:	e3a02015 	mov	r2, #21
    c67c:	e59f19c4 	ldr	r1, [pc, #2500]	; d048 <_start@@Base+0x40e4>
    c680:	e08a0000 	add	r0, sl, r0
    c684:	ebfff1a3 	bl	8d18 <memcpy@plt>
    c688:	e1a0000a 	mov	r0, sl
    c68c:	ebfff1fb 	bl	8e80 <nvram_get@plt>
    c690:	e3500000 	cmp	r0, #0
    c694:	030031d2 	movweq	r3, #466	; 0x1d2
    c698:	03a02f4b 	moveq	r2, #300	; 0x12c
    c69c:	018420b3 	strheq	r2, [r4, r3]
    c6a0:	0a000002 	beq	c6b0 <_start@@Base+0x374c>
    c6a4:	ebfff216 	bl	8f04 <atoi@plt>
    c6a8:	e30031d2 	movw	r3, #466	; 0x1d2
    c6ac:	e18400b3 	strh	r0, [r4, r3]
    c6b0:	e1a01005 	mov	r1, r5
    c6b4:	e1a0000a 	mov	r0, sl
[31m    c6b8:	ebfff17e 	bl	8cb8 <strcpy@plt>[0m
    c6bc:	e1a0000a 	mov	r0, sl
    c6c0:	ebfff218 	bl	8f28 <strlen@plt>
    c6c4:	e59f1980 	ldr	r1, [pc, #2432]	; d04c <_start@@Base+0x40e8>
    c6c8:	e3a02010 	mov	r2, #16
    c6cc:	e08a0000 	add	r0, sl, r0
    c6d0:	ebfff190 	bl	8d18 <memcpy@plt>
    c6d4:	e1a0000a 	mov	r0, sl
    c6d8:	ebfff1e8 	bl	8e80 <nvram_get@plt>
    c6dc:	e3500000 	cmp	r0, #0
    c6e0:	03a03f4b 	moveq	r3, #300	; 0x12c
    c6e4:	058431b8 	streq	r3, [r4, #440]	; 0x1b8
    c6e8:	0a000001 	beq	c6f4 <_start@@Base+0x3790>
    c6ec:	ebfff204 	bl	8f04 <atoi@plt>
    c6f0:	e58401b8 	str	r0, [r4, #440]	; 0x1b8
    c6f4:	e1a01005 	mov	r1, r5
    c6f8:	e1a0000a 	mov	r0, sl
[31m    c6fc:	ebfff16d 	bl	8cb8 <strcpy@plt>[0m
    c700:	e1a0000a 	mov	r0, sl
    c704:	ebfff207 	bl	8f28 <strlen@plt>
    c708:	e59f1940 	ldr	r1, [pc, #2368]	; d050 <_start@@Base+0x40ec>
    c70c:	e3a02014 	mov	r2, #20
    c710:	e08a0000 	add	r0, sl, r0
    c714:	ebfff17f 	bl	8d18 <memcpy@plt>
    c718:	e1a0000a 	mov	r0, sl
    c71c:	ebfff1d7 	bl	8e80 <nvram_get@plt>
    c720:	e3500000 	cmp	r0, #0
    c724:	03a03f4b 	moveq	r3, #300	; 0x12c
    c728:	058431b4 	streq	r3, [r4, #436]	; 0x1b4
    c72c:	0a000001 	beq	c738 <_start@@Base+0x37d4>
    c730:	ebfff1f3 	bl	8f04 <atoi@plt>
    c734:	e58401b4 	str	r0, [r4, #436]	; 0x1b4
    c738:	e1a01005 	mov	r1, r5
    c73c:	e1a0000a 	mov	r0, sl
[31m    c740:	ebfff15c 	bl	8cb8 <strcpy@plt>[0m
    c744:	e1a0000a 	mov	r0, sl
    c748:	ebfff1f6 	bl	8f28 <strlen@plt>
    c74c:	e59f1900 	ldr	r1, [pc, #2304]	; d054 <_start@@Base+0x40f0>
    c750:	e3a02012 	mov	r2, #18
    c754:	e08a0000 	add	r0, sl, r0
    c758:	ebfff16e 	bl	8d18 <memcpy@plt>
    c75c:	e1a0000a 	mov	r0, sl
    c760:	ebfff1c6 	bl	8e80 <nvram_get@plt>
    c764:	e3500000 	cmp	r0, #0
    c768:	03a03fe1 	moveq	r3, #900	; 0x384
    c76c:	05843050 	streq	r3, [r4, #80]	; 0x50
    c770:	0a000001 	beq	c77c <_start@@Base+0x3818>
    c774:	ebfff1e2 	bl	8f04 <atoi@plt>
    c778:	e5840050 	str	r0, [r4, #80]	; 0x50
    c77c:	e1a01005 	mov	r1, r5
    c780:	e1a0000a 	mov	r0, sl
[31m    c784:	ebfff14b 	bl	8cb8 <strcpy@plt>[0m
    c788:	e1a0000a 	mov	r0, sl
    c78c:	ebfff1e5 	bl	8f28 <strlen@plt>
    c790:	e59f18c0 	ldr	r1, [pc, #2240]	; d058 <_start@@Base+0x40f4>
    c794:	e3a02012 	mov	r2, #18
    c798:	e08a0000 	add	r0, sl, r0
    c79c:	ebfff15d 	bl	8d18 <memcpy@plt>
    c7a0:	e1a0000a 	mov	r0, sl
    c7a4:	ebfff1b5 	bl	8e80 <nvram_get@plt>
    c7a8:	e3500000 	cmp	r0, #0
    c7ac:	03a03005 	moveq	r3, #5
    c7b0:	05843054 	streq	r3, [r4, #84]	; 0x54
    c7b4:	0a000001 	beq	c7c0 <_start@@Base+0x385c>
    c7b8:	ebfff1d1 	bl	8f04 <atoi@plt>
    c7bc:	e5840054 	str	r0, [r4, #84]	; 0x54
    c7c0:	e59d301c 	ldr	r3, [sp, #28]
    c7c4:	e1a01005 	mov	r1, r5
    c7c8:	e5c4906c 	strb	r9, [r4, #108]	; 0x6c
    c7cc:	e1a0000a 	mov	r0, sl
    c7d0:	e5843064 	str	r3, [r4, #100]	; 0x64
    c7d4:	e3a03000 	mov	r3, #0
    c7d8:	e58d31f0 	str	r3, [sp, #496]	; 0x1f0
    c7dc:	e58d31f4 	str	r3, [sp, #500]	; 0x1f4
[31m    c7e0:	ebfff134 	bl	8cb8 <strcpy@plt>[0m
    c7e4:	e1a0000a 	mov	r0, sl
    c7e8:	ebfff1ce 	bl	8f28 <strlen@plt>
--
    ce40:	e59f0298 	ldr	r0, [pc, #664]	; d0e0 <_start@@Base+0x417c>
    ce44:	ebffefa1 	bl	8cd0 <printf@plt>
    ce48:	eafffeac 	b	c900 <_start@@Base+0x399c>
    ce4c:	e5962000 	ldr	r2, [r6]
    ce50:	e3120001 	tst	r2, #1
    ce54:	0affffe2 	beq	cde4 <_start@@Base+0x3e80>
    ce58:	e300258b 	movw	r2, #1419	; 0x58b
    ce5c:	e59f0280 	ldr	r0, [pc, #640]	; d0e4 <_start@@Base+0x4180>
    ce60:	e59f126c 	ldr	r1, [pc, #620]	; d0d4 <_start@@Base+0x4170>
    ce64:	ebffef99 	bl	8cd0 <printf@plt>
    ce68:	e59f3184 	ldr	r3, [pc, #388]	; cff4 <_start@@Base+0x4090>
    ce6c:	e5932000 	ldr	r2, [r3]
    ce70:	eaffffdb 	b	cde4 <_start@@Base+0x3e80>
    ce74:	e3002451 	movw	r2, #1105	; 0x451
    ce78:	e59f11f4 	ldr	r1, [pc, #500]	; d074 <_start@@Base+0x4110>
    ce7c:	e59f0264 	ldr	r0, [pc, #612]	; d0e8 <_start@@Base+0x4184>
    ce80:	ebffef92 	bl	8cd0 <printf@plt>
    ce84:	eafffe89 	b	c8b0 <_start@@Base+0x394c>
    ce88:	e1a01005 	mov	r1, r5
    ce8c:	e1a00008 	mov	r0, r8
[31m    ce90:	ebffef88 	bl	8cb8 <strcpy@plt>[0m
    ce94:	e1a00008 	mov	r0, r8
    ce98:	ebfff022 	bl	8f28 <strlen@plt>
--
    ceb0:	ebffeff2 	bl	8e80 <nvram_get@plt>
    ceb4:	e3500000 	cmp	r0, #0
    ceb8:	0afffef3 	beq	ca8c <_start@@Base+0x3b28>
    cebc:	e59f122c 	ldr	r1, [pc, #556]	; d0f0 <_start@@Base+0x418c>
    cec0:	ebffeffa 	bl	8eb0 <strcmp@plt>
    cec4:	e3500000 	cmp	r0, #0
    cec8:	03a03003 	moveq	r3, #3
    cecc:	05843010 	streq	r3, [r4, #16]
    ced0:	1afffeed 	bne	ca8c <_start@@Base+0x3b28>
    ced4:	eafffe91 	b	c920 <_start@@Base+0x39bc>
    ced8:	e5962000 	ldr	r2, [r6]
    cedc:	e3120001 	tst	r2, #1
    cee0:	0afffe86 	beq	c900 <_start@@Base+0x399c>
    cee4:	e59f1188 	ldr	r1, [pc, #392]	; d074 <_start@@Base+0x4110>
    cee8:	e3002457 	movw	r2, #1111	; 0x457
    ceec:	e59f0200 	ldr	r0, [pc, #512]	; d0f4 <_start@@Base+0x4190>
    cef0:	ebffef76 	bl	8cd0 <printf@plt>
    cef4:	eafffe81 	b	c900 <_start@@Base+0x399c>
    cef8:	e1a01005 	mov	r1, r5
    cefc:	e1a0000a 	mov	r0, sl
[31m    cf00:	ebffef6c 	bl	8cb8 <strcpy@plt>[0m
    cf04:	e1a0000a 	mov	r0, sl
    cf08:	ebfff006 	bl	8f28 <strlen@plt>
    cf0c:	e59f11e4 	ldr	r1, [pc, #484]	; d0f8 <_start@@Base+0x4194>
    cf10:	e3a02008 	mov	r2, #8
    cf14:	e08a0000 	add	r0, sl, r0
    cf18:	ebffef7e 	bl	8d18 <memcpy@plt>
    cf1c:	e1a0000a 	mov	r0, sl
    cf20:	ebffefd6 	bl	8e80 <nvram_get@plt>
    cf24:	e3500000 	cmp	r0, #0
    cf28:	0afffe3b 	beq	c81c <_start@@Base+0x38b8>
    cf2c:	eafffe36 	b	c80c <_start@@Base+0x38a8>
    cf30:	e1a01005 	mov	r1, r5
    cf34:	e1a00008 	mov	r0, r8
[31m    cf38:	ebffef5e 	bl	8cb8 <strcpy@plt>[0m
    cf3c:	e1a00008 	mov	r0, r8
    cf40:	ebffeff8 	bl	8f28 <strlen@plt>
    cf44:	e59f11b0 	ldr	r1, [pc, #432]	; d0fc <_start@@Base+0x4198>
    cf48:	e3a02009 	mov	r2, #9
    cf4c:	e0880000 	add	r0, r8, r0
    cf50:	ebffef70 	bl	8d18 <memcpy@plt>
    cf54:	e1a00008 	mov	r0, r8
    cf58:	ebffefc8 	bl	8e80 <nvram_get@plt>
    cf5c:	e3500000 	cmp	r0, #0
    cf60:	0a000003 	beq	cf74 <_start@@Base+0x4010>
    cf64:	e59f1194 	ldr	r1, [pc, #404]	; d100 <_start@@Base+0x419c>
    cf68:	ebffefd0 	bl	8eb0 <strcmp@plt>
    cf6c:	e3500000 	cmp	r0, #0
    cf70:	0a000010 	beq	cfb8 <_start@@Base+0x4054>
    cf74:	e1a01005 	mov	r1, r5
    cf78:	e1a00008 	mov	r0, r8
[31m    cf7c:	ebffef4d 	bl	8cb8 <strcpy@plt>[0m
    cf80:	e1a00008 	mov	r0, r8
    cf84:	ebffefe7 	bl	8f28 <strlen@plt>
--
   10f30:	e000029a 	mul	r0, sl, r2
   10f34:	e28dd06c 	add	sp, sp, #108	; 0x6c
   10f38:	e8bd8ff0 	pop	{r4, r5, r6, r7, r8, r9, sl, fp, pc}
   10f3c:	e3a02059 	mov	r2, #89	; 0x59
   10f40:	e59f1010 	ldr	r1, [pc, #16]	; 10f58 <_start@@Base+0x7ff4>
   10f44:	e19930b4 	ldrh	r3, [r9, r4]
   10f48:	e59f000c 	ldr	r0, [pc, #12]	; 10f5c <_start@@Base+0x7ff8>
   10f4c:	ebffdf5f 	bl	8cd0 <printf@plt>
   10f50:	eaffffd7 	b	10eb4 <_start@@Base+0x7f50>
   10f54:	0001fbac 	andeq	pc, r1, ip, lsr #23
   10f58:	00016bb0 			; <UNDEFINED> instruction: 0x00016bb0
   10f5c:	00016c5c 	andeq	r6, r1, ip, asr ip
   10f60:	e3500000 	cmp	r0, #0
   10f64:	e92d40f0 	push	{r4, r5, r6, r7, lr}
   10f68:	e1a07001 	mov	r7, r1
   10f6c:	e24ddf81 	sub	sp, sp, #516	; 0x204
   10f70:	e1a06002 	mov	r6, r2
   10f74:	0a000002 	beq	10f84 <_start@@Base+0x8020>
   10f78:	e1a01000 	mov	r1, r0
   10f7c:	e1a0000d 	mov	r0, sp
[31m   10f80:	ebffdf4c 	bl	8cb8 <strcpy@plt>[0m
   10f84:	e59f5098 	ldr	r5, [pc, #152]	; 11024 <_start@@Base+0x80c0>
   10f88:	e5953000 	ldr	r3, [r5]
--
   10f94:	e1a0000d 	mov	r0, sp
   10f98:	e1a01007 	mov	r1, r7
   10f9c:	ebffdf99 	bl	8e08 <strstr@plt>
   10fa0:	e2504000 	subs	r4, r0, #0
   10fa4:	03e00000 	mvneq	r0, #0
   10fa8:	0a00000f 	beq	10fec <_start@@Base+0x8088>
   10fac:	e3a01026 	mov	r1, #38	; 0x26
   10fb0:	ebffdfdf 	bl	8f34 <strchr@plt>
   10fb4:	e3500000 	cmp	r0, #0
   10fb8:	e3a0103d 	mov	r1, #61	; 0x3d
   10fbc:	13a03000 	movne	r3, #0
   10fc0:	15c03000 	strbne	r3, [r0]
   10fc4:	e1a00004 	mov	r0, r4
   10fc8:	ebffdfd9 	bl	8f34 <strchr@plt>
   10fcc:	e5953000 	ldr	r3, [r5]
   10fd0:	e2804001 	add	r4, r0, #1
   10fd4:	e3130008 	tst	r3, #8
   10fd8:	1a00000b 	bne	1100c <_start@@Base+0x80a8>
   10fdc:	e1a00006 	mov	r0, r6
   10fe0:	e1a01004 	mov	r1, r4
[31m   10fe4:	ebffdf33 	bl	8cb8 <strcpy@plt>[0m
   10fe8:	e3a00004 	mov	r0, #4
   10fec:	e28ddf81 	add	sp, sp, #516	; 0x204

[0m
[[0;33m*[0m] Function [0;33mstrcpy[0m used [0;33m29[0m times [0;33macsd.svn-base[0m

