[[0;33m*[0m] Binary protection state of [0;33mhttpd.svn-base[0m
[REF] s12

  	RELRO          CANARY            NX           PIE       RPATH        RUNPATH      SYMBOLS      
  	[31mNo RELRO[0m       [31mNo Canary found[0m   [32mNX enabled[0m   [31mNo PIE[0m       [32mNo RPATH[0m     [32mNo RUNPATH[0m   [32mNo Symbols[0m

[0m
[[0;33m*[0m] Function [0;33msprintf[0m tear down of [0;33mhttpd.svn-base[0m

    bb08:	e92d40f8 	push	{r3, r4, r5, r6, r7, lr}
    bb0c:	e3056180 	movw	r6, #20864	; 0x5180
    bb10:	e3406001 	movt	r6, #1
    bb14:	e1a04000 	mov	r4, r0
    bb18:	e1500006 	cmp	r0, r6
    bb1c:	959f50b4 	ldrls	r5, [pc, #180]	; bbd8 <_start@@Base+0x1b5c>
    bb20:	8a000020 	bhi	bba8 <_start@@Base+0x1b2c>
    bb24:	e3540ee1 	cmp	r4, #3600	; 0xe10
    bb28:	8a000012 	bhi	bb78 <_start@@Base+0x1afc>
    bb2c:	e354003c 	cmp	r4, #60	; 0x3c
    bb30:	9a00000a 	bls	bb60 <_start@@Base+0x1ae4>
    bb34:	e3086889 	movw	r6, #34953	; 0x8889
    bb38:	e1a00005 	mov	r0, r5
    bb3c:	e3486888 	movt	r6, #34952	; 0x8888
    bb40:	e0863496 	umull	r3, r6, r6, r4
    bb44:	e1a062a6 	lsr	r6, r6, #5
    bb48:	e59f108c 	ldr	r1, [pc, #140]	; bbdc <_start@@Base+0x1b60>
    bb4c:	e1a02006 	mov	r2, r6
    bb50:	e0666206 	rsb	r6, r6, r6, lsl #4
    bb54:	e0444106 	sub	r4, r4, r6, lsl #2
[31m    bb58:	ebfff8de 	bl	9ed8 <sprintf@plt>[0m
    bb5c:	e0855000 	add	r5, r5, r0
    bb60:	e1a00005 	mov	r0, r5
    bb64:	e59f1074 	ldr	r1, [pc, #116]	; bbe0 <_start@@Base+0x1b64>
    bb68:	e1a02004 	mov	r2, r4
[31m    bb6c:	ebfff8d9 	bl	9ed8 <sprintf@plt>[0m
    bb70:	e59f0060 	ldr	r0, [pc, #96]	; bbd8 <_start@@Base+0x1b5c>
    bb74:	e8bd80f8 	pop	{r3, r4, r5, r6, r7, pc}
    bb78:	e30b63c5 	movw	r6, #46021	; 0xb3c5
    bb7c:	e1a00005 	mov	r0, r5
    bb80:	e34961a2 	movt	r6, #37282	; 0x91a2
    bb84:	e0863496 	umull	r3, r6, r6, r4
    bb88:	e1a065a6 	lsr	r6, r6, #11
    bb8c:	e59f1050 	ldr	r1, [pc, #80]	; bbe4 <_start@@Base+0x1b68>
    bb90:	e1a02006 	mov	r2, r6
[31m    bb94:	ebfff8cf 	bl	9ed8 <sprintf@plt>[0m
    bb98:	e3a03ee1 	mov	r3, #3600	; 0xe10
    bb9c:	e0855000 	add	r5, r5, r0
    bba0:	e0644693 	mls	r4, r3, r6, r4
    bba4:	eaffffe0 	b	bb2c <_start@@Base+0x1ab0>
    bba8:	e59f5028 	ldr	r5, [pc, #40]	; bbd8 <_start@@Base+0x1b5c>
    bbac:	e3047507 	movw	r7, #17671	; 0x4507
    bbb0:	e34c722e 	movt	r7, #49710	; 0xc22e
    bbb4:	e0873097 	umull	r3, r7, r7, r0
    bbb8:	e1a07827 	lsr	r7, r7, #16
    bbbc:	e59f1024 	ldr	r1, [pc, #36]	; bbe8 <_start@@Base+0x1b6c>
    bbc0:	e1a00005 	mov	r0, r5
    bbc4:	e1a02007 	mov	r2, r7
[31m    bbc8:	ebfff8c2 	bl	9ed8 <sprintf@plt>[0m
    bbcc:	e0644796 	mls	r4, r6, r7, r4
    bbd0:	e0855000 	add	r5, r5, r0
--
    be50:	e3500000 	cmp	r0, #0
    be54:	0affffe7 	beq	bdf8 <_start@@Base+0x1d7c>
    be58:	e1a01005 	mov	r1, r5
    be5c:	e1a00006 	mov	r0, r6
    be60:	ebfff86a 	bl	a010 <fputs@plt>
    be64:	e1a00005 	mov	r0, r5
    be68:	ebfff75a 	bl	9bd8 <fflush@plt>
    be6c:	e3a00000 	mov	r0, #0
    be70:	eaffffe0 	b	bdf8 <_start@@Base+0x1d7c>
    be74:	00030020 	andeq	r0, r3, r0, lsr #32
    be78:	e92d4ff0 	push	{r4, r5, r6, r7, r8, r9, sl, fp, lr}
    be7c:	e305382d 	movw	r3, #22573	; 0x582d
    be80:	e24ddf41 	sub	sp, sp, #260	; 0x104
    be84:	e3403058 	movt	r3, #88	; 0x58
    be88:	e28d5c01 	add	r5, sp, #256	; 0x100
    be8c:	e3a0200a 	mov	r2, #10
    be90:	e5253004 	str	r3, [r5, #-4]!
    be94:	e1a04001 	mov	r4, r1
    be98:	e1a00005 	mov	r0, r5
    be9c:	e59f12d4 	ldr	r1, [pc, #724]	; c178 <_start@@Base+0x20fc>
[31m    bea0:	ebfff80c 	bl	9ed8 <sprintf@plt>[0m
    bea4:	e59fe2d0 	ldr	lr, [pc, #720]	; c17c <_start@@Base+0x2100>
    bea8:	e3a0c000 	mov	ip, #0
--
    c28c:	e5dd2005 	ldrb	r2, [sp, #5]
    c290:	e00c7007 	and	r7, ip, r7
    c294:	e0007007 	and	r7, r0, r7
    c298:	e0017007 	and	r7, r1, r7
    c29c:	e0027007 	and	r7, r2, r7
    c2a0:	e35700ff 	cmp	r7, #255	; 0xff
    c2a4:	0a000005 	beq	c2c0 <_start@@Base+0x2244>
    c2a8:	e1843003 	orr	r3, r4, r3
    c2ac:	e18cc003 	orr	ip, ip, r3
    c2b0:	e180000c 	orr	r0, r0, ip
    c2b4:	e1811000 	orr	r1, r1, r0
    c2b8:	e1921001 	orrs	r1, r2, r1
    c2bc:	1affffe1 	bne	c248 <_start@@Base+0x21cc>
    c2c0:	e59f4044 	ldr	r4, [pc, #68]	; c30c <_start@@Base+0x2290>
    c2c4:	e1a03006 	mov	r3, r6
    c2c8:	e5952004 	ldr	r2, [r5, #4]
    c2cc:	e59f103c 	ldr	r1, [pc, #60]	; c310 <_start@@Base+0x2294>
    c2d0:	e594c024 	ldr	ip, [r4, #36]	; 0x24
    c2d4:	e5940028 	ldr	r0, [r4, #40]	; 0x28
    c2d8:	e08c0000 	add	r0, ip, r0
[31m    c2dc:	ebfff6fd 	bl	9ed8 <sprintf@plt>[0m
    c2e0:	e5942028 	ldr	r2, [r4, #40]	; 0x28
    c2e4:	e3a03000 	mov	r3, #0
--
    c354:	e1a01005 	mov	r1, r5
    c358:	ebfff666 	bl	9cf8 <nvram_set@plt>
    c35c:	e3a03000 	mov	r3, #0
    c360:	e5843020 	str	r3, [r4, #32]
    c364:	e8bd80f8 	pop	{r3, r4, r5, r6, r7, pc}
    c368:	e5960000 	ldr	r0, [r6]
    c36c:	e1a01005 	mov	r1, r5
    c370:	ebfff660 	bl	9cf8 <nvram_set@plt>
    c374:	eafffff8 	b	c35c <_start@@Base+0x22e0>
    c378:	00047da4 	andeq	r7, r4, r4, lsr #27
    c37c:	e92d41f0 	push	{r4, r5, r6, r7, r8, lr}
    c380:	e1a05000 	mov	r5, r0
    c384:	e59f0160 	ldr	r0, [pc, #352]	; c4ec <_start@@Base+0x2470>
    c388:	e1a04002 	mov	r4, r2
    c38c:	e1a06001 	mov	r6, r1
    c390:	ebfff76e 	bl	a150 <_start@@Base+0xd4>
    c394:	e2502000 	subs	r2, r0, #0
    c398:	0a000041 	beq	c4a4 <_start@@Base+0x2428>
    c39c:	e59f114c 	ldr	r1, [pc, #332]	; c4f0 <_start@@Base+0x2474>
    c3a0:	e0860004 	add	r0, r6, r4
[31m    c3a4:	ebfff6cb 	bl	9ed8 <sprintf@plt>[0m
    c3a8:	e1a08000 	mov	r8, r0
    c3ac:	e59f0140 	ldr	r0, [pc, #320]	; c4f4 <_start@@Base+0x2478>
    c3b0:	ebfff766 	bl	a150 <_start@@Base+0xd4>
    c3b4:	e2502000 	subs	r2, r0, #0
    c3b8:	0a000042 	beq	c4c8 <_start@@Base+0x244c>
    c3bc:	e5d27000 	ldrb	r7, [r2]
    c3c0:	e0884004 	add	r4, r8, r4
    c3c4:	e3570000 	cmp	r7, #0
    c3c8:	0a000016 	beq	c428 <_start@@Base+0x23ac>
    c3cc:	e0860004 	add	r0, r6, r4
    c3d0:	e59f1120 	ldr	r1, [pc, #288]	; c4f8 <_start@@Base+0x247c>
[31m    c3d4:	ebfff6bf 	bl	9ed8 <sprintf@plt>[0m
    c3d8:	e0804004 	add	r4, r0, r4
    c3dc:	e59f0118 	ldr	r0, [pc, #280]	; c4fc <_start@@Base+0x2480>
    c3e0:	ebfff75a 	bl	a150 <_start@@Base+0xd4>
    c3e4:	e2502000 	subs	r2, r0, #0
    c3e8:	e3a07001 	mov	r7, #1
    c3ec:	0a000016 	beq	c44c <_start@@Base+0x23d0>
    c3f0:	e0860004 	add	r0, r6, r4
    c3f4:	e59f1104 	ldr	r1, [pc, #260]	; c500 <_start@@Base+0x2484>
[31m    c3f8:	ebfff6b6 	bl	9ed8 <sprintf@plt>[0m
    c3fc:	e0844000 	add	r4, r4, r0
    c400:	e59f00fc 	ldr	r0, [pc, #252]	; c504 <_start@@Base+0x2488>
    c404:	ebfff751 	bl	a150 <_start@@Base+0xd4>
    c408:	e2502000 	subs	r2, r0, #0
    c40c:	0a000019 	beq	c478 <_start@@Base+0x23fc>
    c410:	e0860004 	add	r0, r6, r4
    c414:	e59f10ec 	ldr	r1, [pc, #236]	; c508 <_start@@Base+0x248c>
[31m    c418:	ebfff6ae 	bl	9ed8 <sprintf@plt>[0m
    c41c:	e0844000 	add	r4, r4, r0
    c420:	e1a00004 	mov	r0, r4
--
    caec:	e5d67000 	ldrb	r7, [r6]
    caf0:	e3570000 	cmp	r7, #0
    caf4:	0afffff4 	beq	cacc <_start@@Base+0x2a50>
    caf8:	ebfff50b 	bl	9f2c <__ctype_b_loc@plt>
    cafc:	e1a02006 	mov	r2, r6
    cb00:	e5901000 	ldr	r1, [r0]
    cb04:	ea000002 	b	cb14 <_start@@Base+0x2a98>
    cb08:	e5f27001 	ldrb	r7, [r2, #1]!
    cb0c:	e3570000 	cmp	r7, #0
    cb10:	0affffed 	beq	cacc <_start@@Base+0x2a50>
    cb14:	e1a03087 	lsl	r3, r7, #1
    cb18:	e19130b3 	ldrh	r3, [r1, r3]
    cb1c:	e3130010 	tst	r3, #16
    cb20:	1afffff8 	bne	cb08 <_start@@Base+0x2a8c>
    cb24:	e594c024 	ldr	ip, [r4, #36]	; 0x24
    cb28:	e1a03007 	mov	r3, r7
    cb2c:	e5940028 	ldr	r0, [r4, #40]	; 0x28
    cb30:	e59f1068 	ldr	r1, [pc, #104]	; cba0 <_start@@Base+0x2b24>
    cb34:	e5952004 	ldr	r2, [r5, #4]
    cb38:	e08c0000 	add	r0, ip, r0
[31m    cb3c:	ebfff4e5 	bl	9ed8 <sprintf@plt>[0m
    cb40:	e5943028 	ldr	r3, [r4, #40]	; 0x28
    cb44:	e0803003 	add	r3, r0, r3
    cb48:	e5843028 	str	r3, [r4, #40]	; 0x28
    cb4c:	e8bd81f0 	pop	{r4, r5, r6, r7, r8, pc}
    cb50:	e5943028 	ldr	r3, [r4, #40]	; 0x28
    cb54:	e5940024 	ldr	r0, [r4, #36]	; 0x24
    cb58:	e59f1044 	ldr	r1, [pc, #68]	; cba4 <_start@@Base+0x2b28>
    cb5c:	e5952004 	ldr	r2, [r5, #4]
    cb60:	e0800003 	add	r0, r0, r3
[31m    cb64:	ebfff4db 	bl	9ed8 <sprintf@plt>[0m
    cb68:	e5943028 	ldr	r3, [r4, #40]	; 0x28
    cb6c:	e0803003 	add	r3, r0, r3
--
    cb98:	ebfff516 	bl	9ff8 <__assert@plt>
    cb9c:	00047da4 	andeq	r7, r4, r4, lsr #27
    cba0:	00030268 	andeq	r0, r3, r8, ror #4
    cba4:	000302a8 	andeq	r0, r3, r8, lsr #5
    cba8:	0003a928 	andeq	sl, r3, r8, lsr #18
    cbac:	0002ff40 	andeq	pc, r2, r0, asr #30
    cbb0:	0002e9a8 	andeq	lr, r2, r8, lsr #19
    cbb4:	e92d4ff0 	push	{r4, r5, r6, r7, r8, r9, sl, fp, lr}
    cbb8:	e1a04000 	mov	r4, r0
    cbbc:	e24dd014 	sub	sp, sp, #20
    cbc0:	e3a00000 	mov	r0, #0
    cbc4:	e3a05000 	mov	r5, #0
    cbc8:	e304add3 	movw	sl, #19923	; 0x4dd3
    cbcc:	ebfff4b2 	bl	9e9c <time@plt>
    cbd0:	ebfff4a8 	bl	9e78 <srand@plt>
    cbd4:	ebfff459 	bl	9d40 <rand@plt>
    cbd8:	e3001300 	movw	r1, #768	; 0x300
    cbdc:	e1a02000 	mov	r2, r0
    cbe0:	e3401003 	movt	r1, #3
    cbe4:	e1a00004 	mov	r0, r4
[31m    cbe8:	ebfff4ba 	bl	9ed8 <sprintf@plt>[0m
    cbec:	e1a01005 	mov	r1, r5
    cbf0:	e3a0200a 	mov	r2, #10
--
    cd08:	e088e007 	add	lr, r8, r7
    cd0c:	e08aa08a 	add	sl, sl, sl, lsl #1
    cd10:	e08ee001 	add	lr, lr, r1
    cd14:	e08ee00a 	add	lr, lr, sl
    cd18:	e08c1e92 	umull	r1, ip, r2, lr
    cd1c:	e1a0c1ac 	lsr	ip, ip, #3
    cd20:	e3069667 	movw	r9, #26215	; 0x6667
    cd24:	e3469666 	movt	r9, #26214	; 0x6666
    cd28:	e08cc10c 	add	ip, ip, ip, lsl #2
    cd2c:	e3001308 	movw	r1, #776	; 0x308
    cd30:	e3401003 	movt	r1, #3
    cd34:	e04ec08c 	sub	ip, lr, ip, lsl #1
    cd38:	e1a00004 	mov	r0, r4
    cd3c:	e26cc00a 	rsb	ip, ip, #10
    cd40:	e0c2ec99 	smull	lr, r2, r9, ip
    cd44:	e1a0efcc 	asr	lr, ip, #31
    cd48:	e06e2142 	rsb	r2, lr, r2, asr #2
    cd4c:	e0822102 	add	r2, r2, r2, lsl #2
    cd50:	e04c2082 	sub	r2, ip, r2, lsl #1
    cd54:	e0822003 	add	r2, r2, r3
[31m    cd58:	ebfff45e 	bl	9ed8 <sprintf@plt>[0m
    cd5c:	e300030c 	movw	r0, #780	; 0x30c
    cd60:	e5c45008 	strb	r5, [r4, #8]
--
    f1e8:	9a000010 	bls	f230 <_start@@Base+0x51b4>
    f1ec:	e1a00006 	mov	r0, r6
    f1f0:	ebffeb9e 	bl	a070 <free@plt>
    f1f4:	eaffff6e 	b	efb4 <_start@@Base+0x4f38>
    f1f8:	ebffeb5a 	bl	9f68 <__errno_location@plt>
    f1fc:	e5903000 	ldr	r3, [r0]
    f200:	e58d3048 	str	r3, [sp, #72]	; 0x48
    f204:	eafffff8 	b	f1ec <_start@@Base+0x5170>
    f208:	e59f008c 	ldr	r0, [pc, #140]	; f29c <_start@@Base+0x5220>
    f20c:	e3002157 	movw	r2, #343	; 0x157
    f210:	e59f1088 	ldr	r1, [pc, #136]	; f2a0 <_start@@Base+0x5224>
    f214:	e59f3088 	ldr	r3, [pc, #136]	; f2a4 <_start@@Base+0x5228>
    f218:	ebffeb76 	bl	9ff8 <__assert@plt>
    f21c:	e59f0084 	ldr	r0, [pc, #132]	; f2a8 <_start@@Base+0x522c>
    f220:	e3002156 	movw	r2, #342	; 0x156
    f224:	e59f1074 	ldr	r1, [pc, #116]	; f2a0 <_start@@Base+0x5224>
    f228:	e59f3074 	ldr	r3, [pc, #116]	; f2a4 <_start@@Base+0x5228>
    f22c:	ebffeb71 	bl	9ff8 <__assert@plt>
    f230:	e59f1074 	ldr	r1, [pc, #116]	; f2ac <_start@@Base+0x5230>
    f234:	e1a0000d 	mov	r0, sp
[31m    f238:	ebffeb26 	bl	9ed8 <sprintf@plt>[0m
    f23c:	e1a0100d 	mov	r1, sp
    f240:	e59f0068 	ldr	r0, [pc, #104]	; f2b0 <_start@@Base+0x5234>
--
    f55c:	e1a00005 	mov	r0, r5
    f560:	ebffea29 	bl	9e0c <nvifname_to_osifname@plt>
    f564:	e3500000 	cmp	r0, #0
    f568:	ba000031 	blt	f634 <_start@@Base+0x55b8>
    f56c:	e1a00007 	mov	r0, r7
    f570:	ebffe94d 	bl	9aac <wl_probe@plt>
    f574:	e3500000 	cmp	r0, #0
    f578:	1a000006 	bne	f598 <_start@@Base+0x551c>
    f57c:	e1a00007 	mov	r0, r7
    f580:	e3a0100e 	mov	r1, #14
    f584:	e28d2024 	add	r2, sp, #36	; 0x24
    f588:	e3a03004 	mov	r3, #4
    f58c:	ebffea6f 	bl	9f50 <wl_ioctl@plt>
    f590:	e2508000 	subs	r8, r0, #0
    f594:	0a000014 	beq	f5ec <_start@@Base+0x5570>
    f598:	e5940024 	ldr	r0, [r4, #36]	; 0x24
    f59c:	e1a02005 	mov	r2, r5
    f5a0:	e5943028 	ldr	r3, [r4, #40]	; 0x28
    f5a4:	e59f10f0 	ldr	r1, [pc, #240]	; f69c <_start@@Base+0x5620>
    f5a8:	e0800003 	add	r0, r0, r3
[31m    f5ac:	ebffea49 	bl	9ed8 <sprintf@plt>[0m
    f5b0:	e5943028 	ldr	r3, [r4, #40]	; 0x28
    f5b4:	e0803003 	add	r3, r0, r3
--
    f6f4:	0a000007 	beq	f718 <_start@@Base+0x569c>
    f6f8:	e1a00006 	mov	r0, r6
    f6fc:	e1a01004 	mov	r1, r4
    f700:	ebffe97c 	bl	9cf8 <nvram_set@plt>
    f704:	e59f3068 	ldr	r3, [pc, #104]	; f774 <_start@@Base+0x56f8>
    f708:	e3a02000 	mov	r2, #0
    f70c:	e5832020 	str	r2, [r3, #32]
    f710:	e28dd010 	add	sp, sp, #16
    f714:	e8bd8070 	pop	{r4, r5, r6, pc}
    f718:	e5950000 	ldr	r0, [r5]
    f71c:	e1a01004 	mov	r1, r4
    f720:	ebffe974 	bl	9cf8 <nvram_set@plt>
    f724:	eafffff6 	b	f704 <_start@@Base+0x5688>
    f728:	e59f6044 	ldr	r6, [pc, #68]	; f774 <_start@@Base+0x56f8>
    f72c:	e1a03004 	mov	r3, r4
    f730:	e5952004 	ldr	r2, [r5, #4]
    f734:	e59f103c 	ldr	r1, [pc, #60]	; f778 <_start@@Base+0x56fc>
    f738:	e596c024 	ldr	ip, [r6, #36]	; 0x24
    f73c:	e5960028 	ldr	r0, [r6, #40]	; 0x28
    f740:	e08c0000 	add	r0, ip, r0
[31m    f744:	ebffe9e3 	bl	9ed8 <sprintf@plt>[0m
    f748:	e5963028 	ldr	r3, [r6, #40]	; 0x28
    f74c:	e3a02016 	mov	r2, #22
--
    f7e4:	ebffe8a4 	bl	9a7c <inet_pton@plt>
    f7e8:	e3500000 	cmp	r0, #0
    f7ec:	da00001f 	ble	f870 <_start@@Base+0x57f4>
    f7f0:	e3570000 	cmp	r7, #0
    f7f4:	0a000019 	beq	f860 <_start@@Base+0x57e4>
    f7f8:	e1a00007 	mov	r0, r7
    f7fc:	e1a01004 	mov	r1, r4
    f800:	ebffe93c 	bl	9cf8 <nvram_set@plt>
    f804:	e59f308c 	ldr	r3, [pc, #140]	; f898 <_start@@Base+0x581c>
    f808:	e3a02000 	mov	r2, #0
    f80c:	e5832020 	str	r2, [r3, #32]
    f810:	e28dd04c 	add	sp, sp, #76	; 0x4c
    f814:	e8bd80f0 	pop	{r4, r5, r6, r7, pc}
    f818:	e59f5078 	ldr	r5, [pc, #120]	; f898 <_start@@Base+0x581c>
    f81c:	e1a03004 	mov	r3, r4
    f820:	e59f1074 	ldr	r1, [pc, #116]	; f89c <_start@@Base+0x5820>
    f824:	e595c024 	ldr	ip, [r5, #36]	; 0x24
    f828:	e5950028 	ldr	r0, [r5, #40]	; 0x28
    f82c:	e5962004 	ldr	r2, [r6, #4]
    f830:	e08c0000 	add	r0, ip, r0
[31m    f834:	ebffe9a7 	bl	9ed8 <sprintf@plt>[0m
    f838:	e5953028 	ldr	r3, [r5, #40]	; 0x28
    f83c:	e3a02016 	mov	r2, #22
--
    f8dc:	e1a04000 	mov	r4, r0
    f8e0:	e5950004 	ldr	r0, [r5, #4]
    f8e4:	ebffe9ae 	bl	9fa4 <atoi@plt>
    f8e8:	e1570000 	cmp	r7, r0
    f8ec:	e1a0c000 	mov	ip, r0
    f8f0:	ca000013 	bgt	f944 <_start@@Base+0x58c8>
    f8f4:	e1570004 	cmp	r7, r4
    f8f8:	a3a03001 	movge	r3, #1
    f8fc:	ba000002 	blt	f90c <_start@@Base+0x5890>
    f900:	e1a00003 	mov	r0, r3
    f904:	e28dd008 	add	sp, sp, #8
    f908:	e8bd81f0 	pop	{r4, r5, r6, r7, r8, pc}
    f90c:	e59f507c 	ldr	r5, [pc, #124]	; f990 <_start@@Base+0x5914>
    f910:	e1a03008 	mov	r3, r8
    f914:	e5962004 	ldr	r2, [r6, #4]
    f918:	e59f1074 	ldr	r1, [pc, #116]	; f994 <_start@@Base+0x5918>
    f91c:	e595c024 	ldr	ip, [r5, #36]	; 0x24
    f920:	e5950028 	ldr	r0, [r5, #40]	; 0x28
    f924:	e58d4000 	str	r4, [sp]
    f928:	e08c0000 	add	r0, ip, r0
[31m    f92c:	ebffe969 	bl	9ed8 <sprintf@plt>[0m
    f930:	e5952028 	ldr	r2, [r5, #40]	; 0x28
    f934:	e3a03000 	mov	r3, #0
    f938:	e0802002 	add	r2, r0, r2
    f93c:	e5852028 	str	r2, [r5, #40]	; 0x28
    f940:	eaffffee 	b	f900 <_start@@Base+0x5884>
    f944:	e59f4044 	ldr	r4, [pc, #68]	; f990 <_start@@Base+0x5914>
    f948:	e1a03008 	mov	r3, r8
    f94c:	e5962004 	ldr	r2, [r6, #4]
    f950:	e59f1040 	ldr	r1, [pc, #64]	; f998 <_start@@Base+0x591c>
    f954:	e594e024 	ldr	lr, [r4, #36]	; 0x24
    f958:	e5940028 	ldr	r0, [r4, #40]	; 0x28
    f95c:	e58dc000 	str	ip, [sp]
    f960:	e08e0000 	add	r0, lr, r0
[31m    f964:	ebffe95b 	bl	9ed8 <sprintf@plt>[0m
    f968:	e5942028 	ldr	r2, [r4, #40]	; 0x28
    f96c:	e3a03000 	mov	r3, #0
--
    fa5c:	e5970004 	ldr	r0, [r7, #4]
    fa60:	ebffe94f 	bl	9fa4 <atoi@plt>
    fa64:	e1550004 	cmp	r5, r4
    fa68:	a3a03000 	movge	r3, #0
    fa6c:	b3a03001 	movlt	r3, #1
    fa70:	e1a0c000 	mov	ip, r0
    fa74:	e1550000 	cmp	r5, r0
    fa78:	d1a05003 	movle	r5, r3
    fa7c:	c3835001 	orrgt	r5, r3, #1
    fa80:	e3550000 	cmp	r5, #0
    fa84:	03a03001 	moveq	r3, #1
    fa88:	0a00000c 	beq	fac0 <_start@@Base+0x5a44>
    fa8c:	e59f504c 	ldr	r5, [pc, #76]	; fae0 <_start@@Base+0x5a64>
    fa90:	e1a03008 	mov	r3, r8
    fa94:	e5962004 	ldr	r2, [r6, #4]
    fa98:	e59f1044 	ldr	r1, [pc, #68]	; fae4 <_start@@Base+0x5a68>
    fa9c:	e595e024 	ldr	lr, [r5, #36]	; 0x24
    faa0:	e5950028 	ldr	r0, [r5, #40]	; 0x28
    faa4:	e88d1010 	stm	sp, {r4, ip}
    faa8:	e08e0000 	add	r0, lr, r0
[31m    faac:	ebffe909 	bl	9ed8 <sprintf@plt>[0m
    fab0:	e5952028 	ldr	r2, [r5, #40]	; 0x28
    fab4:	e3a03000 	mov	r3, #0
--
    fb0c:	e1a01006 	mov	r1, r6
    fb10:	ebffffc6 	bl	fa30 <_start@@Base+0x59b4>
    fb14:	e3500000 	cmp	r0, #0
    fb18:	0a000008 	beq	fb40 <_start@@Base+0x5ac4>
    fb1c:	e3540000 	cmp	r4, #0
    fb20:	e1a01005 	mov	r1, r5
    fb24:	05960000 	ldreq	r0, [r6]
    fb28:	11a00004 	movne	r0, r4
    fb2c:	ebffe871 	bl	9cf8 <nvram_set@plt>
    fb30:	e59f3054 	ldr	r3, [pc, #84]	; fb8c <_start@@Base+0x5b10>
    fb34:	e3a02000 	mov	r2, #0
    fb38:	e5832020 	str	r2, [r3, #32]
    fb3c:	e8bd8070 	pop	{r4, r5, r6, pc}
    fb40:	e59f4044 	ldr	r4, [pc, #68]	; fb8c <_start@@Base+0x5b10>
    fb44:	e1a03005 	mov	r3, r5
    fb48:	e5962004 	ldr	r2, [r6, #4]
    fb4c:	e59f103c 	ldr	r1, [pc, #60]	; fb90 <_start@@Base+0x5b14>
    fb50:	e594c024 	ldr	ip, [r4, #36]	; 0x24
    fb54:	e5940028 	ldr	r0, [r4, #40]	; 0x28
    fb58:	e08c0000 	add	r0, ip, r0
[31m    fb5c:	ebffe8dd 	bl	9ed8 <sprintf@plt>[0m
    fb60:	e5943028 	ldr	r3, [r4, #40]	; 0x28
    fb64:	e3a02016 	mov	r2, #22
--
    fc3c:	e5941000 	ldr	r1, [r4]
    fc40:	e3510000 	cmp	r1, #0
    fc44:	1a000003 	bne	fc58 <_start@@Base+0x5bdc>
    fc48:	ea000008 	b	fc70 <_start@@Base+0x5bf4>
    fc4c:	e5b41004 	ldr	r1, [r4, #4]!
    fc50:	e3510000 	cmp	r1, #0
    fc54:	0a000005 	beq	fc70 <_start@@Base+0x5bf4>
    fc58:	e1a00005 	mov	r0, r5
    fc5c:	ebffe894 	bl	9eb4 <strcmp@plt>
    fc60:	e3500000 	cmp	r0, #0
    fc64:	1afffff8 	bne	fc4c <_start@@Base+0x5bd0>
    fc68:	e3a00001 	mov	r0, #1
    fc6c:	e8bd81f0 	pop	{r4, r5, r6, r7, r8, pc}
    fc70:	e59f40b8 	ldr	r4, [pc, #184]	; fd30 <_start@@Base+0x5cb4>
    fc74:	e1a03005 	mov	r3, r5
    fc78:	e5962004 	ldr	r2, [r6, #4]
    fc7c:	e59f10b0 	ldr	r1, [pc, #176]	; fd34 <_start@@Base+0x5cb8>
    fc80:	e594c024 	ldr	ip, [r4, #36]	; 0x24
    fc84:	e5940028 	ldr	r0, [r4, #40]	; 0x28
    fc88:	e08c0000 	add	r0, ip, r0
[31m    fc8c:	ebffe891 	bl	9ed8 <sprintf@plt>[0m
    fc90:	e5943028 	ldr	r3, [r4, #40]	; 0x28
    fc94:	e5962010 	ldr	r2, [r6, #16]
    fc98:	e0800003 	add	r0, r0, r3
    fc9c:	e5840028 	str	r0, [r4, #40]	; 0x28
    fca0:	e5923000 	ldr	r3, [r2]
    fca4:	e3530000 	cmp	r3, #0
    fca8:	0a000011 	beq	fcf4 <_start@@Base+0x5c78>
    fcac:	e59f7084 	ldr	r7, [pc, #132]	; fd38 <_start@@Base+0x5cbc>
    fcb0:	e1a05002 	mov	r5, r2
    fcb4:	e59f8080 	ldr	r8, [pc, #128]	; fd3c <_start@@Base+0x5cc0>
    fcb8:	ea000000 	b	fcc0 <_start@@Base+0x5c44>
    fcbc:	e5962010 	ldr	r2, [r6, #16]
    fcc0:	e594c024 	ldr	ip, [r4, #36]	; 0x24
    fcc4:	e1520005 	cmp	r2, r5
    fcc8:	01a02007 	moveq	r2, r7
    fccc:	11a02008 	movne	r2, r8
    fcd0:	e59f1068 	ldr	r1, [pc, #104]	; fd40 <_start@@Base+0x5cc4>
    fcd4:	e08c0000 	add	r0, ip, r0
[31m    fcd8:	ebffe87e 	bl	9ed8 <sprintf@plt>[0m
    fcdc:	e5943028 	ldr	r3, [r4, #40]	; 0x28
    fce0:	e0800003 	add	r0, r0, r3
--
    ff5c:	e1a0c00d 	mov	ip, sp
    ff60:	e1a0400d 	mov	r4, sp
    ff64:	e893000f 	ldm	r3, {r0, r1, r2, r3}
    ff68:	e8ac0007 	stmia	ip!, {r0, r1, r2}
    ff6c:	e59f0104 	ldr	r0, [pc, #260]	; 10078 <_start@@Base+0x5ffc>
    ff70:	e1cc30b0 	strh	r3, [ip]
    ff74:	ebffe7b0 	bl	9e3c <nvram_get@plt>
    ff78:	e59f10fc 	ldr	r1, [pc, #252]	; 1007c <_start@@Base+0x6000>
    ff7c:	ebffe7cc 	bl	9eb4 <strcmp@plt>
    ff80:	e2506000 	subs	r6, r0, #0
    ff84:	1afffff1 	bne	ff50 <_start@@Base+0x5ed4>
    ff88:	e59f70f0 	ldr	r7, [pc, #240]	; 10080 <_start@@Base+0x6004>
    ff8c:	e28d8010 	add	r8, sp, #16
    ff90:	ea000001 	b	ff9c <_start@@Base+0x5f20>
    ff94:	e3560010 	cmp	r6, #16
    ff98:	0a000026 	beq	10038 <_start@@Base+0x5fbc>
    ff9c:	e1a02006 	mov	r2, r6
    ffa0:	e59f10dc 	ldr	r1, [pc, #220]	; 10084 <_start@@Base+0x6008>
    ffa4:	e1a0000d 	mov	r0, sp
    ffa8:	e2866001 	add	r6, r6, #1
[31m    ffac:	ebffe7c9 	bl	9ed8 <sprintf@plt>[0m
    ffb0:	e1a0000d 	mov	r0, sp
    ffb4:	ebffe865 	bl	a150 <_start@@Base+0xd4>
--
   10118:	e3500000 	cmp	r0, #0
   1011c:	e59f10a4 	ldr	r1, [pc, #164]	; 101c8 <_start@@Base+0x614c>
   10120:	11a08000 	movne	r8, r0
   10124:	e1a0000a 	mov	r0, sl
   10128:	ebffe761 	bl	9eb4 <strcmp@plt>
   1012c:	e3500000 	cmp	r0, #0
   10130:	1a000011 	bne	1017c <_start@@Base+0x6100>
   10134:	e5d83000 	ldrb	r3, [r8]
   10138:	e3530000 	cmp	r3, #0
   1013c:	1affffe5 	bne	100d8 <_start@@Base+0x605c>
   10140:	e5940024 	ldr	r0, [r4, #36]	; 0x24
   10144:	e5943028 	ldr	r3, [r4, #40]	; 0x28
   10148:	e59f107c 	ldr	r1, [pc, #124]	; 101cc <_start@@Base+0x6150>
   1014c:	e5962004 	ldr	r2, [r6, #4]
   10150:	ea000003 	b	10164 <_start@@Base+0x60e8>
   10154:	e5940024 	ldr	r0, [r4, #36]	; 0x24
   10158:	e1a02005 	mov	r2, r5
   1015c:	e5943028 	ldr	r3, [r4, #40]	; 0x28
   10160:	e59f1068 	ldr	r1, [pc, #104]	; 101d0 <_start@@Base+0x6154>
   10164:	e0800003 	add	r0, r0, r3
[31m   10168:	ebffe75a 	bl	9ed8 <sprintf@plt>[0m
   1016c:	e5943028 	ldr	r3, [r4, #40]	; 0x28
   10170:	e0803003 	add	r3, r0, r3
--
   10230:	0a000021 	beq	102bc <_start@@Base+0x6240>
   10234:	e1a00007 	mov	r0, r7
   10238:	e1a01005 	mov	r1, r5
   1023c:	ebffe6ad 	bl	9cf8 <nvram_set@plt>
   10240:	e3a03000 	mov	r3, #0
   10244:	e5843020 	str	r3, [r4, #32]
   10248:	e8bd80f8 	pop	{r3, r4, r5, r6, r7, pc}
   1024c:	e59f00a4 	ldr	r0, [pc, #164]	; 102f8 <_start@@Base+0x627c>
   10250:	ebffe7be 	bl	a150 <_start@@Base+0xd4>
   10254:	e3500000 	cmp	r0, #0
   10258:	0a000003 	beq	1026c <_start@@Base+0x61f0>
   1025c:	e59f1098 	ldr	r1, [pc, #152]	; 102fc <_start@@Base+0x6280>
   10260:	ebffe713 	bl	9eb4 <strcmp@plt>
   10264:	e3500000 	cmp	r0, #0
   10268:	0a000017 	beq	102cc <_start@@Base+0x6250>
   1026c:	e5943028 	ldr	r3, [r4, #40]	; 0x28
   10270:	e1a02005 	mov	r2, r5
   10274:	e5940024 	ldr	r0, [r4, #36]	; 0x24
   10278:	e59f1080 	ldr	r1, [pc, #128]	; 10300 <_start@@Base+0x6284>
   1027c:	e0800003 	add	r0, r0, r3
[31m   10280:	ebffe714 	bl	9ed8 <sprintf@plt>[0m
   10284:	e5943028 	ldr	r3, [r4, #40]	; 0x28
   10288:	e0803003 	add	r3, r0, r3
   1028c:	e5843028 	str	r3, [r4, #40]	; 0x28
   10290:	e8bd80f8 	pop	{r3, r4, r5, r6, r7, pc}
   10294:	e5943028 	ldr	r3, [r4, #40]	; 0x28
   10298:	e1a02005 	mov	r2, r5
   1029c:	e5940024 	ldr	r0, [r4, #36]	; 0x24
   102a0:	e59f105c 	ldr	r1, [pc, #92]	; 10304 <_start@@Base+0x6288>
   102a4:	e0800003 	add	r0, r0, r3
[31m   102a8:	ebffe70a 	bl	9ed8 <sprintf@plt>[0m
   102ac:	e5943028 	ldr	r3, [r4, #40]	; 0x28
   102b0:	e0803003 	add	r3, r0, r3
--
   106c4:	e59d3414 	ldr	r3, [sp, #1044]	; 0x414
   106c8:	e3530000 	cmp	r3, #0
   106cc:	1affffd6 	bne	1062c <_start@@Base+0x65b0>
   106d0:	e59d85b0 	ldr	r8, [sp, #1456]	; 0x5b0
   106d4:	e5d83000 	ldrb	r3, [r8]
   106d8:	e3530000 	cmp	r3, #0
   106dc:	0a000003 	beq	106f0 <_start@@Base+0x6674>
   106e0:	e59da5c0 	ldr	sl, [sp, #1472]	; 0x5c0
   106e4:	e5da3000 	ldrb	r3, [sl]
   106e8:	e3530000 	cmp	r3, #0
   106ec:	1a000047 	bne	10810 <_start@@Base+0x6794>
   106f0:	e3540000 	cmp	r4, #0
   106f4:	0a00000c 	beq	1072c <_start@@Base+0x66b0>
   106f8:	e3073da4 	movw	r3, #32164	; 0x7da4
   106fc:	e59f1220 	ldr	r1, [pc, #544]	; 10924 <_start@@Base+0x68a8>
   10700:	e3403004 	movt	r3, #4
   10704:	e1a02006 	mov	r2, r6
   10708:	e5930024 	ldr	r0, [r3, #36]	; 0x24
   1070c:	e5933028 	ldr	r3, [r3, #40]	; 0x28
   10710:	e0800003 	add	r0, r0, r3
[31m   10714:	ebffe5ef 	bl	9ed8 <sprintf@plt>[0m
   10718:	e3072da4 	movw	r2, #32164	; 0x7da4
   1071c:	e3402004 	movt	r2, #4
--
   1076c:	e3073da4 	movw	r3, #32164	; 0x7da4
   10770:	e1a02006 	mov	r2, r6
   10774:	e3403004 	movt	r3, #4
   10778:	e5930024 	ldr	r0, [r3, #36]	; 0x24
   1077c:	e1a01003 	mov	r1, r3
   10780:	e5913028 	ldr	r3, [r1, #40]	; 0x28
   10784:	e59f119c 	ldr	r1, [pc, #412]	; 10928 <_start@@Base+0x68ac>
   10788:	eaffffe0 	b	10710 <_start@@Base+0x6694>
   1078c:	e59d100c 	ldr	r1, [sp, #12]
   10790:	e28d2d17 	add	r2, sp, #1472	; 0x5c0
   10794:	e2822008 	add	r2, r2, #8
   10798:	e18200b1 	strh	r0, [r2, r1]
   1079c:	eaffff8c 	b	105d4 <_start@@Base+0x6558>
   107a0:	e3073da4 	movw	r3, #32164	; 0x7da4
   107a4:	e59d2008 	ldr	r2, [sp, #8]
   107a8:	e3403004 	movt	r3, #4
   107ac:	e59f1178 	ldr	r1, [pc, #376]	; 1092c <_start@@Base+0x68b0>
   107b0:	e5930024 	ldr	r0, [r3, #36]	; 0x24
   107b4:	e5933028 	ldr	r3, [r3, #40]	; 0x28
   107b8:	e0800003 	add	r0, r0, r3
[31m   107bc:	ebffe5c5 	bl	9ed8 <sprintf@plt>[0m
   107c0:	e3072da4 	movw	r2, #32164	; 0x7da4
   107c4:	e3402004 	movt	r2, #4
--
   11a24:	1affffee 	bne	119e4 <_start@@Base+0x7968>
   11a28:	e3540000 	cmp	r4, #0
   11a2c:	0affffe3 	beq	119c0 <_start@@Base+0x7944>
   11a30:	e2841001 	add	r1, r4, #1
   11a34:	e1a00005 	mov	r0, r5
   11a38:	e3510b01 	cmp	r1, #1024	; 0x400
   11a3c:	23a01b01 	movcs	r1, #1024	; 0x400
   11a40:	e1a02006 	mov	r2, r6
   11a44:	ebffe02a 	bl	9af4 <fgets@plt>
   11a48:	e3500000 	cmp	r0, #0
   11a4c:	0affffdb 	beq	119c0 <_start@@Base+0x7944>
   11a50:	e28d2e96 	add	r2, sp, #2400	; 0x960
   11a54:	e1a00005 	mov	r0, r5
   11a58:	e58d2014 	str	r2, [sp, #20]
   11a5c:	ebffe15f 	bl	9fe0 <strlen@plt>
   11a60:	e1a0200a 	mov	r2, sl
   11a64:	e59f3764 	ldr	r3, [pc, #1892]	; 121d0 <_start@@Base+0x8154>
   11a68:	e59f1764 	ldr	r1, [pc, #1892]	; 121d4 <_start@@Base+0x8158>
   11a6c:	e1a07000 	mov	r7, r0
   11a70:	e28d0e96 	add	r0, sp, #2400	; 0x960
[31m   11a74:	ebffe117 	bl	9ed8 <sprintf@plt>[0m
   11a78:	e28d2eb6 	add	r2, sp, #2912	; 0xb60
   11a7c:	e1a00005 	mov	r0, r5
--
   11ba4:	1affffe5 	bne	11b40 <_start@@Base+0x7ac4>
   11ba8:	e59d601c 	ldr	r6, [sp, #28]
   11bac:	e2444001 	sub	r4, r4, #1
   11bb0:	e1a00006 	mov	r0, r6
   11bb4:	e2444001 	sub	r4, r4, #1
   11bb8:	ebffe0c3 	bl	9ecc <fgetc@plt>
   11bbc:	e3740001 	cmn	r4, #1
   11bc0:	1afffffa 	bne	11bb0 <_start@@Base+0x7b34>
   11bc4:	e59d0020 	ldr	r0, [sp, #32]
   11bc8:	ebffe128 	bl	a070 <free@plt>
   11bcc:	eaffff7b 	b	119c0 <_start@@Base+0x7944>
   11bd0:	e59f1600 	ldr	r1, [pc, #1536]	; 121d8 <_start@@Base+0x815c>
   11bd4:	e3a020ff 	mov	r2, #255	; 0xff
   11bd8:	e59f05fc 	ldr	r0, [pc, #1532]	; 121dc <_start@@Base+0x8160>
   11bdc:	ebffe063 	bl	9d70 <strncpy@plt>
   11be0:	eaffff76 	b	119c0 <_start@@Base+0x7944>
   11be4:	e59d601c 	ldr	r6, [sp, #28]
   11be8:	e28a2080 	add	r2, sl, #128	; 0x80
   11bec:	e59f15ec 	ldr	r1, [pc, #1516]	; 121e0 <_start@@Base+0x8164>
   11bf0:	e28d0e96 	add	r0, sp, #2400	; 0x960
[31m   11bf4:	ebffe0b7 	bl	9ed8 <sprintf@plt>[0m
   11bf8:	e59d0024 	ldr	r0, [sp, #36]	; 0x24
   11bfc:	e28d1e96 	add	r1, sp, #2400	; 0x960
--
   1435c:	e59f20dc 	ldr	r2, [pc, #220]	; 14440 <_start@@Base+0xa3c4>
   14360:	e0601003 	rsb	r1, r0, r3
   14364:	e3073b6c 	movw	r3, #31596	; 0x7b6c
   14368:	e150000e 	cmp	r0, lr
   1436c:	e3403003 	movt	r3, #3
   14370:	01a0300c 	moveq	r3, ip
   14374:	e58d6000 	str	r6, [sp]
   14378:	e58d5004 	str	r5, [sp, #4]
   1437c:	ebffd5c7 	bl	9aa0 <snprintf@plt>
   14380:	e59d2014 	ldr	r2, [sp, #20]
   14384:	e0822000 	add	r2, r2, r0
   14388:	e58d2014 	str	r2, [sp, #20]
   1438c:	eaffff88 	b	141b4 <_start@@Base+0xa138>
   14390:	e3072da4 	movw	r2, #32164	; 0x7da4
   14394:	e59f10a8 	ldr	r1, [pc, #168]	; 14444 <_start@@Base+0xa3c8>
   14398:	e3402004 	movt	r2, #4
   1439c:	e5923028 	ldr	r3, [r2, #40]	; 0x28
   143a0:	e5920024 	ldr	r0, [r2, #36]	; 0x24
   143a4:	e59a2004 	ldr	r2, [sl, #4]
   143a8:	e0800003 	add	r0, r0, r3
[31m   143ac:	ebffd6c9 	bl	9ed8 <sprintf@plt>[0m
   143b0:	e307cda4 	movw	ip, #32164	; 0x7da4
   143b4:	e340c004 	movt	ip, #4
   143b8:	e59c3028 	ldr	r3, [ip, #40]	; 0x28
   143bc:	e0803003 	add	r3, r0, r3
   143c0:	e58c3028 	str	r3, [ip, #40]	; 0x28
   143c4:	eaffffdc 	b	1433c <_start@@Base+0xa2c0>
   143c8:	e307eda4 	movw	lr, #32164	; 0x7da4
   143cc:	e59f1074 	ldr	r1, [pc, #116]	; 14448 <_start@@Base+0xa3cc>
   143d0:	e340e004 	movt	lr, #4
   143d4:	e59e0024 	ldr	r0, [lr, #36]	; 0x24
   143d8:	e59e3028 	ldr	r3, [lr, #40]	; 0x28
   143dc:	e59a2004 	ldr	r2, [sl, #4]
   143e0:	e0800003 	add	r0, r0, r3
[31m   143e4:	ebffd6bb 	bl	9ed8 <sprintf@plt>[0m
   143e8:	e3072da4 	movw	r2, #32164	; 0x7da4
   143ec:	e3402004 	movt	r2, #4
--
   147a8:	ebffd5c1 	bl	9eb4 <strcmp@plt>
   147ac:	e2509000 	subs	r9, r0, #0
   147b0:	1affffe1 	bne	1473c <_start@@Base+0xa6c0>
   147b4:	e59a0000 	ldr	r0, [sl]
   147b8:	e1a01008 	mov	r1, r8
   147bc:	ebffd54d 	bl	9cf8 <nvram_set@plt>
   147c0:	e5849020 	str	r9, [r4, #32]
   147c4:	ea00000f 	b	14808 <_start@@Base+0xa78c>
   147c8:	e5943028 	ldr	r3, [r4, #40]	; 0x28
   147cc:	e5945024 	ldr	r5, [r4, #36]	; 0x24
   147d0:	e59a6004 	ldr	r6, [sl, #4]
   147d4:	e59f004c 	ldr	r0, [pc, #76]	; 14828 <_start@@Base+0xa7ac>
   147d8:	e0855003 	add	r5, r5, r3
   147dc:	ebffd596 	bl	9e3c <nvram_get@plt>
   147e0:	e3500000 	cmp	r0, #0
   147e4:	e59f3040 	ldr	r3, [pc, #64]	; 1482c <_start@@Base+0xa7b0>
   147e8:	e1a02006 	mov	r2, r6
   147ec:	11a03000 	movne	r3, r0
   147f0:	e59f103c 	ldr	r1, [pc, #60]	; 14834 <_start@@Base+0xa7b8>
   147f4:	e1a00005 	mov	r0, r5
[31m   147f8:	ebffd5b6 	bl	9ed8 <sprintf@plt>[0m
   147fc:	e5943028 	ldr	r3, [r4, #40]	; 0x28
   14800:	e0803003 	add	r3, r0, r3
--
   14ae4:	e3500000 	cmp	r0, #0
   14ae8:	e3403003 	movt	r3, #3
   14aec:	e1a01007 	mov	r1, r7
   14af0:	01a00003 	moveq	r0, r3
   14af4:	ebffd48e 	bl	9d34 <strstr@plt>
   14af8:	e3500000 	cmp	r0, #0
   14afc:	1affffd1 	bne	14a48 <_start@@Base+0xa9cc>
   14b00:	e1a00007 	mov	r0, r7
   14b04:	e59f107c 	ldr	r1, [pc, #124]	; 14b88 <_start@@Base+0xab0c>
   14b08:	e3a02003 	mov	r2, #3
   14b0c:	ebffd494 	bl	9d64 <strncmp@plt>
   14b10:	e3500000 	cmp	r0, #0
   14b14:	0affffcb 	beq	14a48 <_start@@Base+0xa9cc>
   14b18:	e307cda4 	movw	ip, #32164	; 0x7da4
   14b1c:	e5982004 	ldr	r2, [r8, #4]
   14b20:	e340c004 	movt	ip, #4
   14b24:	e59f1060 	ldr	r1, [pc, #96]	; 14b8c <_start@@Base+0xab10>
   14b28:	e59c3028 	ldr	r3, [ip, #40]	; 0x28
   14b2c:	e59c0024 	ldr	r0, [ip, #36]	; 0x24
   14b30:	e0800003 	add	r0, r0, r3
[31m   14b34:	ebffd4e7 	bl	9ed8 <sprintf@plt>[0m
   14b38:	e3072da4 	movw	r2, #32164	; 0x7da4
   14b3c:	e3402004 	movt	r2, #4
--
   14d48:	e3500000 	cmp	r0, #0
   14d4c:	e3402003 	movt	r2, #3
   14d50:	e1a01007 	mov	r1, r7
   14d54:	01a00002 	moveq	r0, r2
   14d58:	ebffd3f5 	bl	9d34 <strstr@plt>
   14d5c:	e3500000 	cmp	r0, #0
   14d60:	1affffd1 	bne	14cac <_start@@Base+0xac30>
   14d64:	e1a00007 	mov	r0, r7
   14d68:	e59f107c 	ldr	r1, [pc, #124]	; 14dec <_start@@Base+0xad70>
   14d6c:	e3a02003 	mov	r2, #3
   14d70:	ebffd3fb 	bl	9d64 <strncmp@plt>
   14d74:	e3500000 	cmp	r0, #0
   14d78:	0affffcb 	beq	14cac <_start@@Base+0xac30>
   14d7c:	e3073da4 	movw	r3, #32164	; 0x7da4
   14d80:	e5982004 	ldr	r2, [r8, #4]
   14d84:	e3403004 	movt	r3, #4
   14d88:	e59f1060 	ldr	r1, [pc, #96]	; 14df0 <_start@@Base+0xad74>
   14d8c:	e5930024 	ldr	r0, [r3, #36]	; 0x24
   14d90:	e5933028 	ldr	r3, [r3, #40]	; 0x28
   14d94:	e0800003 	add	r0, r0, r3
[31m   14d98:	ebffd44e 	bl	9ed8 <sprintf@plt>[0m
   14d9c:	e3072da4 	movw	r2, #32164	; 0x7da4
   14da0:	e3402004 	movt	r2, #4
--
   14ebc:	e1500002 	cmp	r0, r2
   14ec0:	e58d001c 	str	r0, [sp, #28]
   14ec4:	1a00001a 	bne	14f34 <_start@@Base+0xaeb8>
   14ec8:	e1560000 	cmp	r6, r0
   14ecc:	0a000034 	beq	14fa4 <_start@@Base+0xaf28>
   14ed0:	e1e03003 	mvn	r3, r3
   14ed4:	e1830000 	orr	r0, r3, r0
   14ed8:	e1560000 	cmp	r6, r0
   14edc:	0a000010 	beq	14f24 <_start@@Base+0xaea8>
   14ee0:	e3a03001 	mov	r3, #1
   14ee4:	e1a00003 	mov	r0, r3
   14ee8:	e28dd024 	add	sp, sp, #36	; 0x24
   14eec:	e8bd80f0 	pop	{r4, r5, r6, r7, pc}
   14ef0:	e59f60d8 	ldr	r6, [pc, #216]	; 14fd0 <_start@@Base+0xaf54>
   14ef4:	e1a03005 	mov	r3, r5
   14ef8:	e59f10d4 	ldr	r1, [pc, #212]	; 14fd4 <_start@@Base+0xaf58>
   14efc:	e596c024 	ldr	ip, [r6, #36]	; 0x24
   14f00:	e5960028 	ldr	r0, [r6, #40]	; 0x28
   14f04:	e5942004 	ldr	r2, [r4, #4]
   14f08:	e08c0000 	add	r0, ip, r0
[31m   14f0c:	ebffd3f1 	bl	9ed8 <sprintf@plt>[0m
   14f10:	e5962028 	ldr	r2, [r6, #40]	; 0x28
   14f14:	e3a03000 	mov	r3, #0
   14f18:	e0802002 	add	r2, r0, r2
   14f1c:	e5862028 	str	r2, [r6, #40]	; 0x28
   14f20:	eaffffef 	b	14ee4 <_start@@Base+0xae68>
   14f24:	e59f60a4 	ldr	r6, [pc, #164]	; 14fd0 <_start@@Base+0xaf54>
   14f28:	e1a03005 	mov	r3, r5
   14f2c:	e59f10a4 	ldr	r1, [pc, #164]	; 14fd8 <_start@@Base+0xaf5c>
   14f30:	eafffff1 	b	14efc <_start@@Base+0xae80>
   14f34:	e59f6094 	ldr	r6, [pc, #148]	; 14fd0 <_start@@Base+0xaf54>
   14f38:	e5947004 	ldr	r7, [r4, #4]
   14f3c:	e5963028 	ldr	r3, [r6, #40]	; 0x28
   14f40:	e5964024 	ldr	r4, [r6, #36]	; 0x24
   14f44:	e0844003 	add	r4, r4, r3
   14f48:	ebffd3d0 	bl	9e90 <inet_ntoa@plt>
   14f4c:	e59f1088 	ldr	r1, [pc, #136]	; 14fdc <_start@@Base+0xaf60>
   14f50:	e1a02007 	mov	r2, r7
   14f54:	e1a03005 	mov	r3, r5
   14f58:	e58d0000 	str	r0, [sp]
   14f5c:	e1a00004 	mov	r0, r4
[31m   14f60:	ebffd3dc 	bl	9ed8 <sprintf@plt>[0m
   14f64:	e5963028 	ldr	r3, [r6, #40]	; 0x28
   14f68:	e5964024 	ldr	r4, [r6, #36]	; 0x24
   14f6c:	e0803003 	add	r3, r0, r3
   14f70:	e59d0018 	ldr	r0, [sp, #24]
   14f74:	e0844003 	add	r4, r4, r3
   14f78:	e5863028 	str	r3, [r6, #40]	; 0x28
   14f7c:	ebffd3c3 	bl	9e90 <inet_ntoa@plt>
   14f80:	e59f1058 	ldr	r1, [pc, #88]	; 14fe0 <_start@@Base+0xaf64>
   14f84:	e1a02000 	mov	r2, r0
   14f88:	e1a00004 	mov	r0, r4
[31m   14f8c:	ebffd3d1 	bl	9ed8 <sprintf@plt>[0m
   14f90:	e5962028 	ldr	r2, [r6, #40]	; 0x28
   14f94:	e3a03000 	mov	r3, #0
--
   152b4:	e30c110c 	movw	r1, #49420	; 0xc10c
   152b8:	e59d0014 	ldr	r0, [sp, #20]
   152bc:	e3520000 	cmp	r2, #0
   152c0:	e3401003 	movt	r1, #3
   152c4:	01a00001 	moveq	r0, r1
   152c8:	e3530000 	cmp	r3, #0
   152cc:	e58d0014 	str	r0, [sp, #20]
   152d0:	0a00001f 	beq	15354 <_start@@Base+0xb2d8>
   152d4:	e59de020 	ldr	lr, [sp, #32]
   152d8:	e5de3000 	ldrb	r3, [lr]
   152dc:	e3530000 	cmp	r3, #0
   152e0:	1a00002d 	bne	1539c <_start@@Base+0xb320>
   152e4:	e3071da4 	movw	r1, #32164	; 0x7da4
   152e8:	e5972004 	ldr	r2, [r7, #4]
   152ec:	e3401004 	movt	r1, #4
   152f0:	e2866001 	add	r6, r6, #1
   152f4:	e5913028 	ldr	r3, [r1, #40]	; 0x28
   152f8:	e5910024 	ldr	r0, [r1, #36]	; 0x24
   152fc:	e59f11c8 	ldr	r1, [pc, #456]	; 154cc <_start@@Base+0xb450>
   15300:	e0800003 	add	r0, r0, r3
[31m   15304:	ebffd2f3 	bl	9ed8 <sprintf@plt>[0m
   15308:	e3072da4 	movw	r2, #32164	; 0x7da4
   1530c:	e3402004 	movt	r2, #4
--
   15324:	caffff6c 	bgt	150dc <_start@@Base+0xb060>
   15328:	eaffffcf 	b	1526c <_start@@Base+0xb1f0>
   1532c:	e59dc014 	ldr	ip, [sp, #20]
   15330:	e30c110c 	movw	r1, #49420	; 0xc10c
   15334:	e59d0014 	ldr	r0, [sp, #20]
   15338:	e3401003 	movt	r1, #3
   1533c:	e5dc2000 	ldrb	r2, [ip]
   15340:	e3520000 	cmp	r2, #0
   15344:	01a00001 	moveq	r0, r1
   15348:	e3530000 	cmp	r3, #0
   1534c:	e58d0014 	str	r0, [sp, #20]
   15350:	1affffdf 	bne	152d4 <_start@@Base+0xb258>
   15354:	e3072da4 	movw	r2, #32164	; 0x7da4
   15358:	e59f1170 	ldr	r1, [pc, #368]	; 154d0 <_start@@Base+0xb454>
   1535c:	e3402004 	movt	r2, #4
   15360:	e2866001 	add	r6, r6, #1
   15364:	e5923028 	ldr	r3, [r2, #40]	; 0x28
   15368:	e5920024 	ldr	r0, [r2, #36]	; 0x24
   1536c:	e5972004 	ldr	r2, [r7, #4]
   15370:	e0800003 	add	r0, r0, r3
[31m   15374:	ebffd2d7 	bl	9ed8 <sprintf@plt>[0m
   15378:	e307cda4 	movw	ip, #32164	; 0x7da4
   1537c:	e59d2024 	ldr	r2, [sp, #36]	; 0x24
--
   1585c:	0a00001b 	beq	158d0 <_start@@Base+0xb854>
   15860:	e59d35d8 	ldr	r3, [sp, #1496]	; 0x5d8
   15864:	e5d32000 	ldrb	r2, [r3]
   15868:	e3520000 	cmp	r2, #0
   1586c:	0a00003b 	beq	15960 <_start@@Base+0xb8e4>
   15870:	e59dc5d4 	ldr	ip, [sp, #1492]	; 0x5d4
   15874:	e5dc2000 	ldrb	r2, [ip]
   15878:	e3520000 	cmp	r2, #0
   1587c:	0a000004 	beq	15894 <_start@@Base+0xb818>
   15880:	e59d15d0 	ldr	r1, [sp, #1488]	; 0x5d0
   15884:	e58d1028 	str	r1, [sp, #40]	; 0x28
   15888:	e5d12000 	ldrb	r2, [r1]
   1588c:	e3520000 	cmp	r2, #0
   15890:	1a000045 	bne	159ac <_start@@Base+0xb930>
   15894:	e5993028 	ldr	r3, [r9, #40]	; 0x28
   15898:	e5990024 	ldr	r0, [r9, #36]	; 0x24
   1589c:	e59dc01c 	ldr	ip, [sp, #28]
   158a0:	e59f1430 	ldr	r1, [pc, #1072]	; 15cd8 <_start@@Base+0xbc5c>
   158a4:	e0800003 	add	r0, r0, r3
   158a8:	e59c2004 	ldr	r2, [ip, #4]
[31m   158ac:	ebffd189 	bl	9ed8 <sprintf@plt>[0m
   158b0:	e5993028 	ldr	r3, [r9, #40]	; 0x28
   158b4:	e0803003 	add	r3, r0, r3
   158b8:	e5893028 	str	r3, [r9, #40]	; 0x28
   158bc:	e2888001 	add	r8, r8, #1
   158c0:	e15b0008 	cmp	fp, r8
   158c4:	ba00000e 	blt	15904 <_start@@Base+0xb888>
   158c8:	e59d6570 	ldr	r6, [sp, #1392]	; 0x570
   158cc:	eaffff9c 	b	15744 <_start@@Base+0xb6c8>
   158d0:	e59dc01c 	ldr	ip, [sp, #28]
   158d4:	e5990024 	ldr	r0, [r9, #36]	; 0x24
   158d8:	e5993028 	ldr	r3, [r9, #40]	; 0x28
   158dc:	e59f13f8 	ldr	r1, [pc, #1016]	; 15cdc <_start@@Base+0xbc60>
   158e0:	e59c2004 	ldr	r2, [ip, #4]
   158e4:	e0800003 	add	r0, r0, r3
   158e8:	e2888001 	add	r8, r8, #1
[31m   158ec:	ebffd179 	bl	9ed8 <sprintf@plt>[0m
   158f0:	e5993028 	ldr	r3, [r9, #40]	; 0x28
   158f4:	e15b0008 	cmp	fp, r8
--
   1593c:	e3500000 	cmp	r0, #0
   15940:	1a000016 	bne	159a0 <_start@@Base+0xb924>
   15944:	e59d15d0 	ldr	r1, [sp, #1488]	; 0x5d0
   15948:	e5d12000 	ldrb	r2, [r1]
   1594c:	e3520000 	cmp	r2, #0
   15950:	1affffa9 	bne	157fc <_start@@Base+0xb780>
   15954:	e1a00008 	mov	r0, r8
   15958:	ebffd0bf 	bl	9c5c <del_forward_port@plt>
   1595c:	eaffffd6 	b	158bc <_start@@Base+0xb840>
   15960:	e59de01c 	ldr	lr, [sp, #28]
   15964:	e5990024 	ldr	r0, [r9, #36]	; 0x24
   15968:	e5993028 	ldr	r3, [r9, #40]	; 0x28
   1596c:	e59f136c 	ldr	r1, [pc, #876]	; 15ce0 <_start@@Base+0xbc64>
   15970:	e59e2004 	ldr	r2, [lr, #4]
   15974:	eaffffda 	b	158e4 <_start@@Base+0xb868>
   15978:	e5993028 	ldr	r3, [r9, #40]	; 0x28
   1597c:	e5990024 	ldr	r0, [r9, #36]	; 0x24
   15980:	e59d2020 	ldr	r2, [sp, #32]
   15984:	e59f1358 	ldr	r1, [pc, #856]	; 15ce4 <_start@@Base+0xbc68>
   15988:	e0800003 	add	r0, r0, r3
[31m   1598c:	ebffd151 	bl	9ed8 <sprintf@plt>[0m
   15990:	e5993028 	ldr	r3, [r9, #40]	; 0x28
   15994:	e0803003 	add	r3, r0, r3
--
   15bf4:	ebffd0ae 	bl	9eb4 <strcmp@plt>
   15bf8:	e3500000 	cmp	r0, #0
   15bfc:	e28d1d13 	add	r1, sp, #1216	; 0x4c0
   15c00:	059d3514 	ldreq	r3, [sp, #1300]	; 0x514
   15c04:	e1a00008 	mov	r0, r8
   15c08:	e281100c 	add	r1, r1, #12
   15c0c:	03833102 	orreq	r3, r3, #-2147483648	; 0x80000000
   15c10:	058d3514 	streq	r3, [sp, #1300]	; 0x514
   15c14:	ebffd03d 	bl	9d10 <set_forward_port@plt>
   15c18:	eaffff27 	b	158bc <_start@@Base+0xb840>
   15c1c:	e1a0300c 	mov	r3, ip
   15c20:	e59dc4b4 	ldr	ip, [sp, #1204]	; 0x4b4
   15c24:	e5992024 	ldr	r2, [r9, #36]	; 0x24
   15c28:	e5990028 	ldr	r0, [r9, #40]	; 0x28
   15c2c:	e58dc000 	str	ip, [sp]
   15c30:	e59dc028 	ldr	ip, [sp, #40]	; 0x28
   15c34:	e0820000 	add	r0, r2, r0
   15c38:	e59f10c0 	ldr	r1, [pc, #192]	; 15d00 <_start@@Base+0xbc84>
   15c3c:	e59d2498 	ldr	r2, [sp, #1176]	; 0x498
   15c40:	e58dc004 	str	ip, [sp, #4]
[31m   15c44:	ebffd0a3 	bl	9ed8 <sprintf@plt>[0m
   15c48:	e5993028 	ldr	r3, [r9, #40]	; 0x28
   15c4c:	e0803003 	add	r3, r0, r3
   15c50:	e5893028 	str	r3, [r9, #40]	; 0x28
   15c54:	eaffff18 	b	158bc <_start@@Base+0xb840>
   15c58:	e5992024 	ldr	r2, [r9, #36]	; 0x24
   15c5c:	e1a03004 	mov	r3, r4
   15c60:	e5990028 	ldr	r0, [r9, #40]	; 0x28
   15c64:	e59dc460 	ldr	ip, [sp, #1120]	; 0x460
   15c68:	e59f1090 	ldr	r1, [pc, #144]	; 15d00 <_start@@Base+0xbc84>
   15c6c:	e0820000 	add	r0, r2, r0
   15c70:	e59d2444 	ldr	r2, [sp, #1092]	; 0x444
   15c74:	e58dc000 	str	ip, [sp]
   15c78:	e58d7004 	str	r7, [sp, #4]
[31m   15c7c:	ebffd095 	bl	9ed8 <sprintf@plt>[0m
   15c80:	e5993028 	ldr	r3, [r9, #40]	; 0x28
   15c84:	e0803003 	add	r3, r0, r3
--
   160b0:	e59d7708 	ldr	r7, [sp, #1800]	; 0x708
   160b4:	e5d73000 	ldrb	r3, [r7]
   160b8:	e3530000 	cmp	r3, #0
   160bc:	0a00001a 	beq	1612c <_start@@Base+0xc0b0>
   160c0:	e59d3700 	ldr	r3, [sp, #1792]	; 0x700
   160c4:	e5d32000 	ldrb	r2, [r3]
   160c8:	e3520000 	cmp	r2, #0
   160cc:	0a000004 	beq	160e4 <_start@@Base+0xc068>
   160d0:	e59de6fc 	ldr	lr, [sp, #1788]	; 0x6fc
   160d4:	e58de024 	str	lr, [sp, #36]	; 0x24
   160d8:	e5de2000 	ldrb	r2, [lr]
   160dc:	e3520000 	cmp	r2, #0
   160e0:	1a000029 	bne	1618c <_start@@Base+0xc110>
   160e4:	e5990024 	ldr	r0, [r9, #36]	; 0x24
   160e8:	e5993028 	ldr	r3, [r9, #40]	; 0x28
   160ec:	e59f1420 	ldr	r1, [pc, #1056]	; 16514 <_start@@Base+0xc498>
   160f0:	e59dc01c 	ldr	ip, [sp, #28]
   160f4:	e0800003 	add	r0, r0, r3
   160f8:	e2888001 	add	r8, r8, #1
   160fc:	e59c2004 	ldr	r2, [ip, #4]
[31m   16100:	ebffcf74 	bl	9ed8 <sprintf@plt>[0m
   16104:	e5993028 	ldr	r3, [r9, #40]	; 0x28
   16108:	e15b0008 	cmp	fp, r8
--
   16128:	e8bd8ff0 	pop	{r4, r5, r6, r7, r8, r9, sl, fp, pc}
   1612c:	e5990024 	ldr	r0, [r9, #36]	; 0x24
   16130:	e5993028 	ldr	r3, [r9, #40]	; 0x28
   16134:	e59f13dc 	ldr	r1, [pc, #988]	; 16518 <_start@@Base+0xc49c>
   16138:	eaffffec 	b	160f0 <_start@@Base+0xc074>
   1613c:	e59d16fc 	ldr	r1, [sp, #1788]	; 0x6fc
   16140:	e59d3700 	ldr	r3, [sp, #1792]	; 0x700
   16144:	e5d1c000 	ldrb	ip, [r1]
   16148:	e5d30000 	ldrb	r0, [r3]
   1614c:	e1a03002 	mov	r3, r2
   16150:	e58d470c 	str	r4, [sp, #1804]	; 0x70c
   16154:	eaffffcc 	b	1608c <_start@@Base+0xc010>
   16158:	e59d16fc 	ldr	r1, [sp, #1788]	; 0x6fc
   1615c:	e5d1c000 	ldrb	ip, [r1]
   16160:	eafffff9 	b	1614c <_start@@Base+0xc0d0>
   16164:	e5993028 	ldr	r3, [r9, #40]	; 0x28
   16168:	e5990024 	ldr	r0, [r9, #36]	; 0x24
   1616c:	e59d2020 	ldr	r2, [sp, #32]
   16170:	e59f13a4 	ldr	r1, [pc, #932]	; 1651c <_start@@Base+0xc4a0>
   16174:	e0800003 	add	r0, r0, r3
[31m   16178:	ebffcf56 	bl	9ed8 <sprintf@plt>[0m
   1617c:	e5993028 	ldr	r3, [r9, #40]	; 0x28
   16180:	e0803003 	add	r3, r0, r3
--
   162bc:	e1a00003 	mov	r0, r3
   162c0:	e58d3014 	str	r3, [sp, #20]
   162c4:	ebffcf36 	bl	9fa4 <atoi@plt>
   162c8:	e1a02000 	mov	r2, r0
   162cc:	e59d0024 	ldr	r0, [sp, #36]	; 0x24
   162d0:	e58d2018 	str	r2, [sp, #24]
   162d4:	ebffcf32 	bl	9fa4 <atoi@plt>
   162d8:	e59d2018 	ldr	r2, [sp, #24]
   162dc:	e59d3014 	ldr	r3, [sp, #20]
   162e0:	e1520000 	cmp	r2, r0
   162e4:	da000012 	ble	16334 <_start@@Base+0xc2b8>
   162e8:	e59dc49c 	ldr	ip, [sp, #1180]	; 0x49c
   162ec:	e5992024 	ldr	r2, [r9, #36]	; 0x24
   162f0:	e5990028 	ldr	r0, [r9, #40]	; 0x28
   162f4:	e58dc000 	str	ip, [sp]
   162f8:	e59dc024 	ldr	ip, [sp, #36]	; 0x24
   162fc:	e0820000 	add	r0, r2, r0
   16300:	e59f1218 	ldr	r1, [pc, #536]	; 16520 <_start@@Base+0xc4a4>
   16304:	e59d2480 	ldr	r2, [sp, #1152]	; 0x480
   16308:	e58dc004 	str	ip, [sp, #4]
[31m   1630c:	ebffcef1 	bl	9ed8 <sprintf@plt>[0m
   16310:	e5993028 	ldr	r3, [r9, #40]	; 0x28
   16314:	e0803003 	add	r3, r0, r3
--
   16440:	058d3608 	streq	r3, [sp, #1544]	; 0x608
   16444:	ebffcdb0 	bl	9b0c <memcpy@plt>
   16448:	e28d1e52 	add	r1, sp, #1312	; 0x520
   1644c:	e1a00007 	mov	r0, r7
   16450:	e2811008 	add	r1, r1, #8
   16454:	ebffce6f 	bl	9e18 <inet_aton@plt>
   16458:	e1a00008 	mov	r0, r8
   1645c:	e28d1d17 	add	r1, sp, #1472	; 0x5c0
   16460:	e1a02004 	mov	r2, r4
   16464:	ebffce9e 	bl	9ee4 <set_filter_client@plt>
   16468:	eafffefc 	b	16060 <_start@@Base+0xbfe4>
   1646c:	e5992024 	ldr	r2, [r9, #36]	; 0x24
   16470:	e1a03004 	mov	r3, r4
   16474:	e5990028 	ldr	r0, [r9, #40]	; 0x28
   16478:	e59dc448 	ldr	ip, [sp, #1096]	; 0x448
   1647c:	e59f109c 	ldr	r1, [pc, #156]	; 16520 <_start@@Base+0xc4a4>
   16480:	e0820000 	add	r0, r2, r0
   16484:	e59d242c 	ldr	r2, [sp, #1068]	; 0x42c
   16488:	e58dc000 	str	ip, [sp]
   1648c:	e58d7004 	str	r7, [sp, #4]
[31m   16490:	ebffce90 	bl	9ed8 <sprintf@plt>[0m
   16494:	e5993028 	ldr	r3, [r9, #40]	; 0x28
   16498:	e0803003 	add	r3, r0, r3
--
   16628:	ebffce45 	bl	9f44 <fwrite@plt>
   1662c:	e3a00016 	mov	r0, #22
   16630:	e28dd048 	add	sp, sp, #72	; 0x48
   16634:	e8bd8070 	pop	{r4, r5, r6, pc}
   16638:	e28d1044 	add	r1, sp, #68	; 0x44
   1663c:	e28d2040 	add	r2, sp, #64	; 0x40
   16640:	ebffce45 	bl	9f5c <get_ifname_unit@plt>
   16644:	e2505000 	subs	r5, r0, #0
   16648:	0a000006 	beq	16668 <_start@@Base+0xc5ec>
   1664c:	e59f005c 	ldr	r0, [pc, #92]	; 166b0 <_start@@Base+0xc634>
   16650:	e3a01001 	mov	r1, #1
   16654:	e3a0201b 	mov	r2, #27
   16658:	e1a03004 	mov	r3, r4
   1665c:	ebffce38 	bl	9f44 <fwrite@plt>
   16660:	e3a00016 	mov	r0, #22
   16664:	eafffff1 	b	16630 <_start@@Base+0xc5b4>
   16668:	e59d2044 	ldr	r2, [sp, #68]	; 0x44
   1666c:	e1a0000d 	mov	r0, sp
   16670:	e59f103c 	ldr	r1, [pc, #60]	; 166b4 <_start@@Base+0xc638>
   16674:	e1a0600d 	mov	r6, sp
[31m   16678:	ebffce16 	bl	9ed8 <sprintf@plt>[0m
   1667c:	e1a0000d 	mov	r0, sp
   16680:	ebffcded 	bl	9e3c <nvram_get@plt>
--
   166f8:	ebffce11 	bl	9f44 <fwrite@plt>
   166fc:	e3a00016 	mov	r0, #22
   16700:	e28dd048 	add	sp, sp, #72	; 0x48
   16704:	e8bd8070 	pop	{r4, r5, r6, pc}
   16708:	e28d1044 	add	r1, sp, #68	; 0x44
   1670c:	e28d2040 	add	r2, sp, #64	; 0x40
   16710:	ebffce11 	bl	9f5c <get_ifname_unit@plt>
   16714:	e2505000 	subs	r5, r0, #0
   16718:	0a000006 	beq	16738 <_start@@Base+0xc6bc>
   1671c:	e59f005c 	ldr	r0, [pc, #92]	; 16780 <_start@@Base+0xc704>
   16720:	e3a01001 	mov	r1, #1
   16724:	e3a0201b 	mov	r2, #27
   16728:	e1a03004 	mov	r3, r4
   1672c:	ebffce04 	bl	9f44 <fwrite@plt>
   16730:	e3a00016 	mov	r0, #22
   16734:	eafffff1 	b	16700 <_start@@Base+0xc684>
   16738:	e59d2044 	ldr	r2, [sp, #68]	; 0x44
   1673c:	e1a0000d 	mov	r0, sp
   16740:	e59f103c 	ldr	r1, [pc, #60]	; 16784 <_start@@Base+0xc708>
   16744:	e1a0600d 	mov	r6, sp
[31m   16748:	ebffcde2 	bl	9ed8 <sprintf@plt>[0m
   1674c:	e1a0000d 	mov	r0, sp
   16750:	ebffcdb9 	bl	9e3c <nvram_get@plt>
--
   167c8:	ebffcddd 	bl	9f44 <fwrite@plt>
   167cc:	e3a00016 	mov	r0, #22
   167d0:	e28dd048 	add	sp, sp, #72	; 0x48
   167d4:	e8bd8070 	pop	{r4, r5, r6, pc}
   167d8:	e28d1044 	add	r1, sp, #68	; 0x44
   167dc:	e28d2040 	add	r2, sp, #64	; 0x40
   167e0:	ebffcddd 	bl	9f5c <get_ifname_unit@plt>
   167e4:	e2505000 	subs	r5, r0, #0
   167e8:	0a000006 	beq	16808 <_start@@Base+0xc78c>
   167ec:	e59f0098 	ldr	r0, [pc, #152]	; 1688c <_start@@Base+0xc810>
   167f0:	e3a01001 	mov	r1, #1
   167f4:	e3a0201b 	mov	r2, #27
   167f8:	e1a03004 	mov	r3, r4
   167fc:	ebffcdd0 	bl	9f44 <fwrite@plt>
   16800:	e3a00016 	mov	r0, #22
   16804:	eafffff1 	b	167d0 <_start@@Base+0xc754>
   16808:	e59f1080 	ldr	r1, [pc, #128]	; 16890 <_start@@Base+0xc814>
   1680c:	e1a0000d 	mov	r0, sp
   16810:	e59d2044 	ldr	r2, [sp, #68]	; 0x44
   16814:	e1a0600d 	mov	r6, sp
[31m   16818:	ebffcdae 	bl	9ed8 <sprintf@plt>[0m
   1681c:	e1a0000d 	mov	r0, sp
   16820:	ebffcd85 	bl	9e3c <nvram_get@plt>
--
   168dc:	ebffcd98 	bl	9f44 <fwrite@plt>
   168e0:	e3a00016 	mov	r0, #22
   168e4:	e28dd048 	add	sp, sp, #72	; 0x48
   168e8:	e8bd8070 	pop	{r4, r5, r6, pc}
   168ec:	e28d1044 	add	r1, sp, #68	; 0x44
   168f0:	e28d2040 	add	r2, sp, #64	; 0x40
   168f4:	ebffcd98 	bl	9f5c <get_ifname_unit@plt>
   168f8:	e2505000 	subs	r5, r0, #0
   168fc:	0a000006 	beq	1691c <_start@@Base+0xc8a0>
   16900:	e59f0098 	ldr	r0, [pc, #152]	; 169a0 <_start@@Base+0xc924>
   16904:	e3a01001 	mov	r1, #1
   16908:	e3a0201b 	mov	r2, #27
   1690c:	e1a03004 	mov	r3, r4
   16910:	ebffcd8b 	bl	9f44 <fwrite@plt>
   16914:	e3a00016 	mov	r0, #22
   16918:	eafffff1 	b	168e4 <_start@@Base+0xc868>
   1691c:	e59f1080 	ldr	r1, [pc, #128]	; 169a4 <_start@@Base+0xc928>
   16920:	e1a0000d 	mov	r0, sp
   16924:	e59d2044 	ldr	r2, [sp, #68]	; 0x44
   16928:	e1a0600d 	mov	r6, sp
[31m   1692c:	ebffcd69 	bl	9ed8 <sprintf@plt>[0m
   16930:	e1a0000d 	mov	r0, sp
   16934:	ebffcd40 	bl	9e3c <nvram_get@plt>
--
   169f0:	ebffcd53 	bl	9f44 <fwrite@plt>
   169f4:	e3a00016 	mov	r0, #22
   169f8:	e28dd048 	add	sp, sp, #72	; 0x48
   169fc:	e8bd8070 	pop	{r4, r5, r6, pc}
   16a00:	e28d1044 	add	r1, sp, #68	; 0x44
   16a04:	e28d2040 	add	r2, sp, #64	; 0x40
   16a08:	ebffcd53 	bl	9f5c <get_ifname_unit@plt>
   16a0c:	e3500000 	cmp	r0, #0
   16a10:	0a000006 	beq	16a30 <_start@@Base+0xc9b4>
   16a14:	e59f0130 	ldr	r0, [pc, #304]	; 16b4c <_start@@Base+0xcad0>
   16a18:	e3a01001 	mov	r1, #1
   16a1c:	e3a0201b 	mov	r2, #27
   16a20:	e1a03004 	mov	r3, r4
   16a24:	ebffcd46 	bl	9f44 <fwrite@plt>
   16a28:	e3a00016 	mov	r0, #22
   16a2c:	eafffff1 	b	169f8 <_start@@Base+0xc97c>
   16a30:	e59f1118 	ldr	r1, [pc, #280]	; 16b50 <_start@@Base+0xcad4>
   16a34:	e1a0000d 	mov	r0, sp
   16a38:	e59d2044 	ldr	r2, [sp, #68]	; 0x44
   16a3c:	e1a0500d 	mov	r5, sp
[31m   16a40:	ebffcd24 	bl	9ed8 <sprintf@plt>[0m
   16a44:	e1a0000d 	mov	r0, sp
   16a48:	ebffccfb 	bl	9e3c <nvram_get@plt>
   16a4c:	e2506000 	subs	r6, r0, #0
   16a50:	0a000027 	beq	16af4 <_start@@Base+0xca78>
   16a54:	e59f10f8 	ldr	r1, [pc, #248]	; 16b54 <_start@@Base+0xcad8>
   16a58:	e3a02003 	mov	r2, #3
   16a5c:	ebffccc0 	bl	9d64 <strncmp@plt>
   16a60:	e3500000 	cmp	r0, #0
   16a64:	1a000016 	bne	16ac4 <_start@@Base+0xca48>
   16a68:	e3a06001 	mov	r6, #1
   16a6c:	e59f10e4 	ldr	r1, [pc, #228]	; 16b58 <_start@@Base+0xcadc>
   16a70:	e1a0000d 	mov	r0, sp
   16a74:	e59d2044 	ldr	r2, [sp, #68]	; 0x44
[31m   16a78:	ebffcd16 	bl	9ed8 <sprintf@plt>[0m
   16a7c:	e1a0000d 	mov	r0, sp
   16a80:	ebffcced 	bl	9e3c <nvram_get@plt>
--
   18f98:	e59de0ac 	ldr	lr, [sp, #172]	; 0xac
   18f9c:	e308c889 	movw	ip, #34953	; 0x8889
   18fa0:	e59d2010 	ldr	r2, [sp, #16]
   18fa4:	e0812e92 	umull	r2, r1, r2, lr
   18fa8:	e1a015a1 	lsr	r1, r1, #11
   18fac:	e348c888 	movt	ip, #34952	; 0x8888
   18fb0:	e0883e9c 	umull	r3, r8, ip, lr
   18fb4:	e3a03ee1 	mov	r3, #3600	; 0xe10
   18fb8:	e063e193 	mls	r3, r3, r1, lr
   18fbc:	e59f009c 	ldr	r0, [pc, #156]	; 19060 <_start@@Base+0xefe4>
   18fc0:	e1a082a8 	lsr	r8, r8, #5
   18fc4:	e1a02001 	mov	r2, r1
   18fc8:	e59f1094 	ldr	r1, [pc, #148]	; 19064 <_start@@Base+0xefe8>
   18fcc:	e58d3014 	str	r3, [sp, #20]
   18fd0:	e0683208 	rsb	r3, r8, r8, lsl #4
   18fd4:	e59d8014 	ldr	r8, [sp, #20]
   18fd8:	e04ee103 	sub	lr, lr, r3, lsl #2
   18fdc:	e083889c 	umull	r8, r3, ip, r8
   18fe0:	e1a032a3 	lsr	r3, r3, #5
   18fe4:	e58de000 	str	lr, [sp]
[31m   18fe8:	ebffc3ba 	bl	9ed8 <sprintf@plt>[0m
   18fec:	e59f206c 	ldr	r2, [pc, #108]	; 19060 <_start@@Base+0xefe4>
   18ff0:	eaffffb1 	b	18ebc <_start@@Base+0xee40>
--
   1a944:	e3a02009 	mov	r2, #9
   1a948:	e0890000 	add	r0, r9, r0
   1a94c:	ebffbc6e 	bl	9b0c <memcpy@plt>
   1a950:	e1a00009 	mov	r0, r9
   1a954:	ebffbd38 	bl	9e3c <nvram_get@plt>
   1a958:	e3500000 	cmp	r0, #0
   1a95c:	0affff8a 	beq	1a78c <_start@@Base+0x10710>
   1a960:	e59f1084 	ldr	r1, [pc, #132]	; 1a9ec <_start@@Base+0x10970>
   1a964:	ebffbd52 	bl	9eb4 <strcmp@plt>
   1a968:	e3500000 	cmp	r0, #0
   1a96c:	1affff86 	bne	1a78c <_start@@Base+0x10710>
   1a970:	eaffff5b 	b	1a6e4 <_start@@Base+0x10668>
   1a974:	e2888001 	add	r8, r8, #1
   1a978:	e3580c01 	cmp	r8, #256	; 0x100
   1a97c:	1affff60 	bne	1a704 <_start@@Base+0x10688>
   1a980:	e3a00000 	mov	r0, #0
   1a984:	eaffff57 	b	1a6e8 <_start@@Base+0x1066c>
   1a988:	e1a02008 	mov	r2, r8
   1a98c:	e59f1060 	ldr	r1, [pc, #96]	; 1a9f4 <_start@@Base+0x10978>
   1a990:	e1a00004 	mov	r0, r4
[31m   1a994:	ebffbd4f 	bl	9ed8 <sprintf@plt>[0m
   1a998:	e28d0074 	add	r0, sp, #116	; 0x74
   1a99c:	e59f1054 	ldr	r1, [pc, #84]	; 1a9f8 <_start@@Base+0x1097c>
   1a9a0:	e1a02008 	mov	r2, r8
[31m   1a9a4:	ebffbd4b 	bl	9ed8 <sprintf@plt>[0m
   1a9a8:	eafffeb2 	b	1a478 <_start@@Base+0x103fc>
   1a9ac:	e1a00004 	mov	r0, r4
   1a9b0:	e59f1044 	ldr	r1, [pc, #68]	; 1a9fc <_start@@Base+0x10980>
   1a9b4:	e1a02008 	mov	r2, r8
[31m   1a9b8:	ebffbd46 	bl	9ed8 <sprintf@plt>[0m
   1a9bc:	eaffff55 	b	1a718 <_start@@Base+0x1069c>
   1a9c0:	0003195c 	andeq	r1, r3, ip, asr r9
--
   1b8ec:	e3a02009 	mov	r2, #9
   1b8f0:	e0840000 	add	r0, r4, r0
   1b8f4:	ebffb884 	bl	9b0c <memcpy@plt>
   1b8f8:	e1a00004 	mov	r0, r4
   1b8fc:	ebffb94e 	bl	9e3c <nvram_get@plt>
   1b900:	e2507000 	subs	r7, r0, #0
   1b904:	01a03007 	moveq	r3, r7
   1b908:	01a07008 	moveq	r7, r8
   1b90c:	0a000001 	beq	1b918 <_start@@Base+0x1189c>
   1b910:	ebffb9b2 	bl	9fe0 <strlen@plt>
   1b914:	e1a03000 	mov	r3, r0
   1b918:	e3a06000 	mov	r6, #0
   1b91c:	e59f9334 	ldr	r9, [pc, #820]	; 1bc58 <_start@@Base+0x11bdc>
   1b920:	e1a08006 	mov	r8, r6
   1b924:	e59fb330 	ldr	fp, [pc, #816]	; 1bc5c <_start@@Base+0x11be0>
   1b928:	ea00001b 	b	1b99c <_start@@Base+0x11920>
   1b92c:	e7d72006 	ldrb	r2, [r7, r6]
   1b930:	e3520061 	cmp	r2, #97	; 0x61
   1b934:	11a03009 	movne	r3, r9
   1b938:	01a0300b 	moveq	r3, fp
[31m   1b93c:	ebffb965 	bl	9ed8 <sprintf@plt>[0m
   1b940:	e7d72006 	ldrb	r2, [r7, r6]
   1b944:	e300c62c 	movw	ip, #1580	; 0x62c
--
   1ba6c:	e3a08000 	mov	r8, #0
   1ba70:	e5da3000 	ldrb	r3, [sl]
   1ba74:	e1a00005 	mov	r0, r5
   1ba78:	e59f11f0 	ldr	r1, [pc, #496]	; 1bc70 <_start@@Base+0x11bf4>
   1ba7c:	e353006e 	cmp	r3, #110	; 0x6e
   1ba80:	13530073 	cmpne	r3, #115	; 0x73
   1ba84:	0a000023 	beq	1bb18 <_start@@Base+0x11a9c>
   1ba88:	e3530063 	cmp	r3, #99	; 0x63
   1ba8c:	0a000021 	beq	1bb18 <_start@@Base+0x11a9c>
   1ba90:	e3530068 	cmp	r3, #104	; 0x68
   1ba94:	0a00001f 	beq	1bb18 <_start@@Base+0x11a9c>
   1ba98:	e3530076 	cmp	r3, #118	; 0x76
   1ba9c:	e3a02067 	mov	r2, #103	; 0x67
   1baa0:	e59f31b0 	ldr	r3, [pc, #432]	; 1bc58 <_start@@Base+0x11bdc>
   1baa4:	0a00001b 	beq	1bb18 <_start@@Base+0x11a9c>
   1baa8:	e596c004 	ldr	ip, [r6, #4]
   1baac:	e1a00004 	mov	r0, r4
   1bab0:	e59f11ac 	ldr	r1, [pc, #428]	; 1bc64 <_start@@Base+0x11be8>
   1bab4:	e35c0001 	cmp	ip, #1
   1bab8:	0a00004c 	beq	1bbf0 <_start@@Base+0x11b74>
[31m   1babc:	ebffb905 	bl	9ed8 <sprintf@plt>[0m
   1bac0:	e5963004 	ldr	r3, [r6, #4]
   1bac4:	e300c62c 	movw	ip, #1580	; 0x62c
--
   1bba8:	e1a04000 	mov	r4, r0
   1bbac:	e1a00005 	mov	r0, r5
   1bbb0:	ebffb808 	bl	9bd8 <fflush@plt>
   1bbb4:	e3590002 	cmp	r9, #2
   1bbb8:	059f30b8 	ldreq	r3, [pc, #184]	; 1bc78 <_start@@Base+0x11bfc>
   1bbbc:	0a000000 	beq	1bbc4 <_start@@Base+0x11b48>
   1bbc0:	e59f3084 	ldr	r3, [pc, #132]	; 1bc4c <_start@@Base+0x11bd0>
   1bbc4:	e59fc08c 	ldr	ip, [pc, #140]	; 1bc58 <_start@@Base+0x11bdc>
   1bbc8:	e3a02002 	mov	r2, #2
   1bbcc:	e59f10a0 	ldr	r1, [pc, #160]	; 1bc74 <_start@@Base+0x11bf8>
   1bbd0:	e1a00005 	mov	r0, r5
   1bbd4:	e58dc000 	str	ip, [sp]
   1bbd8:	ebffb825 	bl	9c74 <fprintf@plt>
   1bbdc:	e1a08000 	mov	r8, r0
   1bbe0:	e1a00005 	mov	r0, r5
   1bbe4:	ebffb7fb 	bl	9bd8 <fflush@plt>
   1bbe8:	e0888004 	add	r8, r8, r4
   1bbec:	eaffff6e 	b	1b9ac <_start@@Base+0x11930>
   1bbf0:	e3a02061 	mov	r2, #97	; 0x61
   1bbf4:	e59f3060 	ldr	r3, [pc, #96]	; 1bc5c <_start@@Base+0x11be0>
[31m   1bbf8:	ebffb8b6 	bl	9ed8 <sprintf@plt>[0m
   1bbfc:	eaffffaf 	b	1bac0 <_start@@Base+0x11a44>
   1bc00:	e59fc054 	ldr	ip, [pc, #84]	; 1bc5c <_start@@Base+0x11be0>
--
   1bdcc:	e59f36b4 	ldr	r3, [pc, #1716]	; 1c488 <_start@@Base+0x1240c>
   1bdd0:	e3a02016 	mov	r2, #22
   1bdd4:	e3a00000 	mov	r0, #0
   1bdd8:	e5832020 	str	r2, [r3, #32]
   1bddc:	eafffff2 	b	1bdac <_start@@Base+0x11d30>
   1bde0:	e28d1ea2 	add	r1, sp, #2592	; 0xa20
   1bde4:	e28d2ea2 	add	r2, sp, #2592	; 0xa20
   1bde8:	e2811004 	add	r1, r1, #4
   1bdec:	ebffb85a 	bl	9f5c <get_ifname_unit@plt>
   1bdf0:	eaffffc5 	b	1bd0c <_start@@Base+0x11c90>
   1bdf4:	e59f368c 	ldr	r3, [pc, #1676]	; 1c488 <_start@@Base+0x1240c>
   1bdf8:	e3a02016 	mov	r2, #22
   1bdfc:	e1a00008 	mov	r0, r8
   1be00:	e5832020 	str	r2, [r3, #32]
   1be04:	eaffffe8 	b	1bdac <_start@@Base+0x11d30>
   1be08:	e28dbd26 	add	fp, sp, #2432	; 0x980
   1be0c:	e59f167c 	ldr	r1, [pc, #1660]	; 1c490 <_start@@Base+0x12414>
   1be10:	e28bb00c 	add	fp, fp, #12
   1be14:	e59d2a24 	ldr	r2, [sp, #2596]	; 0xa24
   1be18:	e1a0000b 	mov	r0, fp
[31m   1be1c:	ebffb82d 	bl	9ed8 <sprintf@plt>[0m
   1be20:	e1a0000b 	mov	r0, fp
   1be24:	ebffb804 	bl	9e3c <nvram_get@plt>
--
   1bf28:	e2822008 	add	r2, r2, #8
   1bf2c:	e0823000 	add	r3, r2, r0
   1bf30:	e1a0000a 	mov	r0, sl
   1bf34:	e543941c 	strb	r9, [r3, #-1052]	; 0xfffffbe4
   1bf38:	e5cd970b 	strb	r9, [sp, #1803]	; 0x70b
   1bf3c:	ebffb830 	bl	a004 <strchr@plt>
   1bf40:	e5dd360c 	ldrb	r3, [sp, #1548]	; 0x60c
   1bf44:	e1a0a000 	mov	sl, r0
   1bf48:	e3530000 	cmp	r3, #0
   1bf4c:	1affffda 	bne	1bebc <_start@@Base+0x11e40>
   1bf50:	e59d2004 	ldr	r2, [sp, #4]
   1bf54:	e1a00005 	mov	r0, r5
   1bf58:	e59d3000 	ldr	r3, [sp]
   1bf5c:	e59f1540 	ldr	r1, [pc, #1344]	; 1c4a4 <_start@@Base+0x12428>
   1bf60:	e2728001 	rsbs	r8, r2, #1
   1bf64:	33a08000 	movcc	r8, #0
   1bf68:	e59d2a24 	ldr	r2, [sp, #2596]	; 0xa24
   1bf6c:	e273a001 	rsbs	sl, r3, #1
   1bf70:	33a0a000 	movcc	sl, #0
   1bf74:	e2622001 	rsb	r2, r2, #1
[31m   1bf78:	ebffb7d6 	bl	9ed8 <sprintf@plt>[0m
   1bf7c:	e1a00005 	mov	r0, r5
   1bf80:	ebffb7ad 	bl	9e3c <nvram_get@plt>
--
   1c028:	e3a020ff 	mov	r2, #255	; 0xff
   1c02c:	e1a00008 	mov	r0, r8
   1c030:	ebffb72d 	bl	9cec <add_to_list@plt>
   1c034:	e3063c77 	movw	r3, #27767	; 0x6c77
   1c038:	e1a01008 	mov	r1, r8
   1c03c:	e3403031 	movt	r3, #49	; 0x31
   1c040:	e3a02040 	mov	r2, #64	; 0x40
   1c044:	e1a0000b 	mov	r0, fp
   1c048:	e58d398c 	str	r3, [sp, #2444]	; 0x98c
   1c04c:	ebffb76e 	bl	9e0c <nvifname_to_osifname@plt>
   1c050:	e1a01009 	mov	r1, r9
   1c054:	e1a00008 	mov	r0, r8
   1c058:	e3a020ff 	mov	r2, #255	; 0xff
   1c05c:	ebffb722 	bl	9cec <add_to_list@plt>
   1c060:	e1a00005 	mov	r0, r5
   1c064:	e1a01009 	mov	r1, r9
   1c068:	ebffb722 	bl	9cf8 <nvram_set@plt>
   1c06c:	e59f1438 	ldr	r1, [pc, #1080]	; 1c4ac <_start@@Base+0x12430>
   1c070:	e1a0000b 	mov	r0, fp
   1c074:	e59d2a24 	ldr	r2, [sp, #2596]	; 0xa24
[31m   1c078:	ebffb796 	bl	9ed8 <sprintf@plt>[0m
   1c07c:	e1a00005 	mov	r0, r5
   1c080:	e59f1428 	ldr	r1, [pc, #1064]	; 1c4b0 <_start@@Base+0x12434>
   1c084:	e59d2a24 	ldr	r2, [sp, #2596]	; 0xa24
[31m   1c088:	ebffb792 	bl	9ed8 <sprintf@plt>[0m
   1c08c:	e35a0000 	cmp	sl, #0
   1c090:	0a0000bf 	beq	1c394 <_start@@Base+0x12318>
   1c094:	e3a020ff 	mov	r2, #255	; 0xff
   1c098:	e1a01006 	mov	r1, r6
   1c09c:	e1a0000b 	mov	r0, fp
   1c0a0:	ebffb72c 	bl	9d58 <remove_from_list@plt>
   1c0a4:	e1a01006 	mov	r1, r6
   1c0a8:	e1a00004 	mov	r0, r4
   1c0ac:	ebffb711 	bl	9cf8 <nvram_set@plt>
   1c0b0:	e1a00005 	mov	r0, r5
   1c0b4:	e59f13c8 	ldr	r1, [pc, #968]	; 1c484 <_start@@Base+0x12408>
   1c0b8:	ebffb70e 	bl	9cf8 <nvram_set@plt>
   1c0bc:	e59f13f0 	ldr	r1, [pc, #1008]	; 1c4b4 <_start@@Base+0x12438>
   1c0c0:	e59f03f0 	ldr	r0, [pc, #1008]	; 1c4b8 <_start@@Base+0x1243c>
   1c0c4:	ebffb70b 	bl	9cf8 <nvram_set@plt>
   1c0c8:	e59d2a24 	ldr	r2, [sp, #2596]	; 0xa24
   1c0cc:	e1a00005 	mov	r0, r5
   1c0d0:	e59f13e4 	ldr	r1, [pc, #996]	; 1c4bc <_start@@Base+0x12440>
[31m   1c0d4:	ebffb77f 	bl	9ed8 <sprintf@plt>[0m
   1c0d8:	e59f13e0 	ldr	r1, [pc, #992]	; 1c4c0 <_start@@Base+0x12444>
   1c0dc:	e1a00005 	mov	r0, r5
   1c0e0:	ebffb704 	bl	9cf8 <nvram_set@plt>
   1c0e4:	e59d2a24 	ldr	r2, [sp, #2596]	; 0xa24
   1c0e8:	e1a00005 	mov	r0, r5
   1c0ec:	e59f13d0 	ldr	r1, [pc, #976]	; 1c4c4 <_start@@Base+0x12448>
[31m   1c0f0:	ebffb778 	bl	9ed8 <sprintf@plt>[0m
   1c0f4:	e59f13c4 	ldr	r1, [pc, #964]	; 1c4c0 <_start@@Base+0x12444>
   1c0f8:	e1a00005 	mov	r0, r5
   1c0fc:	ebffb6fd 	bl	9cf8 <nvram_set@plt>
   1c100:	e59f33c0 	ldr	r3, [pc, #960]	; 1c4c8 <_start@@Base+0x1244c>
   1c104:	e28d2c09 	add	r2, sp, #2304	; 0x900
   1c108:	e8930003 	ldm	r3, {r0, r1}
   1c10c:	e58d09cc 	str	r0, [sp, #2508]	; 0x9cc
   1c110:	e1a00005 	mov	r0, r5
   1c114:	e1a03821 	lsr	r3, r1, #16
   1c118:	e1c21db0 	strh	r1, [r2, #208]	; 0xd0
   1c11c:	e5cd39d2 	strb	r3, [sp, #2514]	; 0x9d2
   1c120:	ebffb745 	bl	9e3c <nvram_get@plt>
   1c124:	e2504000 	subs	r4, r0, #0
   1c128:	0a000002 	beq	1c138 <_start@@Base+0x120bc>
   1c12c:	e5d43000 	ldrb	r3, [r4]
   1c130:	e3530000 	cmp	r3, #0
   1c134:	1a0000b5 	bne	1c410 <_start@@Base+0x12394>
   1c138:	e59f138c 	ldr	r1, [pc, #908]	; 1c4cc <_start@@Base+0x12450>
   1c13c:	e1a00005 	mov	r0, r5
   1c140:	e59d2a24 	ldr	r2, [sp, #2596]	; 0xa24
[31m   1c144:	ebffb763 	bl	9ed8 <sprintf@plt>[0m
   1c148:	e1a00005 	mov	r0, r5
   1c14c:	ebffb73a 	bl	9e3c <nvram_get@plt>
   1c150:	e2504000 	subs	r4, r0, #0
   1c154:	0a000002 	beq	1c164 <_start@@Base+0x120e8>
   1c158:	e5d43000 	ldrb	r3, [r4]
   1c15c:	e3530000 	cmp	r3, #0
   1c160:	1a000096 	bne	1c3c0 <_start@@Base+0x12344>
   1c164:	e1a00005 	mov	r0, r5
   1c168:	e59f1360 	ldr	r1, [pc, #864]	; 1c4d0 <_start@@Base+0x12454>
   1c16c:	e59d2a24 	ldr	r2, [sp, #2596]	; 0xa24
[31m   1c170:	ebffb758 	bl	9ed8 <sprintf@plt>[0m
   1c174:	e35a0000 	cmp	sl, #0
   1c178:	0a00007d 	beq	1c374 <_start@@Base+0x122f8>
   1c17c:	e1a00005 	mov	r0, r5
   1c180:	e59f132c 	ldr	r1, [pc, #812]	; 1c4b4 <_start@@Base+0x12438>
   1c184:	ebffb6db 	bl	9cf8 <nvram_set@plt>
   1c188:	e59f12f4 	ldr	r1, [pc, #756]	; 1c484 <_start@@Base+0x12408>
   1c18c:	e59f0340 	ldr	r0, [pc, #832]	; 1c4d4 <_start@@Base+0x12458>
   1c190:	ebffb6d8 	bl	9cf8 <nvram_set@plt>
   1c194:	e59f033c 	ldr	r0, [pc, #828]	; 1c4d8 <_start@@Base+0x1245c>
   1c198:	e59f12e4 	ldr	r1, [pc, #740]	; 1c484 <_start@@Base+0x12408>
   1c19c:	ebffb6d5 	bl	9cf8 <nvram_set@plt>
   1c1a0:	e3570002 	cmp	r7, #2
   1c1a4:	da00000b 	ble	1c1d8 <_start@@Base+0x1215c>
   1c1a8:	e3a04002 	mov	r4, #2
   1c1ac:	e1a03004 	mov	r3, r4
   1c1b0:	e59f1324 	ldr	r1, [pc, #804]	; 1c4dc <_start@@Base+0x12460>
   1c1b4:	e59d2a24 	ldr	r2, [sp, #2596]	; 0xa24
   1c1b8:	e1a00005 	mov	r0, r5
[31m   1c1bc:	ebffb745 	bl	9ed8 <sprintf@plt>[0m
   1c1c0:	e2844001 	add	r4, r4, #1
   1c1c4:	e1a00005 	mov	r0, r5
--
   1c220:	e59f0280 	ldr	r0, [pc, #640]	; 1c4a8 <_start@@Base+0x1242c>
   1c224:	ebffb6b3 	bl	9cf8 <nvram_set@plt>
   1c228:	e1a00004 	mov	r0, r4
   1c22c:	ebffb702 	bl	9e3c <nvram_get@plt>
   1c230:	e2505000 	subs	r5, r0, #0
   1c234:	0a000089 	beq	1c460 <_start@@Base+0x123e4>
   1c238:	ebffb768 	bl	9fe0 <strlen@plt>
   1c23c:	e35000fe 	cmp	r0, #254	; 0xfe
   1c240:	8a000047 	bhi	1c364 <_start@@Base+0x122e8>
   1c244:	e28d6b02 	add	r6, sp, #2048	; 0x800
   1c248:	e1a01005 	mov	r1, r5
   1c24c:	e286600c 	add	r6, r6, #12
   1c250:	e3a020ff 	mov	r2, #255	; 0xff
   1c254:	e1a00006 	mov	r0, r6
   1c258:	e28d5d25 	add	r5, sp, #2368	; 0x940
   1c25c:	ebffb6c3 	bl	9d70 <strncpy@plt>
   1c260:	e59d2a24 	ldr	r2, [sp, #2596]	; 0xa24
   1c264:	e1a0000b 	mov	r0, fp
   1c268:	e59f123c 	ldr	r1, [pc, #572]	; 1c4ac <_start@@Base+0x12430>
   1c26c:	e285500c 	add	r5, r5, #12
[31m   1c270:	ebffb718 	bl	9ed8 <sprintf@plt>[0m
   1c274:	e1a01006 	mov	r1, r6
   1c278:	e3a020ff 	mov	r2, #255	; 0xff
   1c27c:	e1a0000b 	mov	r0, fp
   1c280:	ebffb6b4 	bl	9d58 <remove_from_list@plt>
   1c284:	e59f1258 	ldr	r1, [pc, #600]	; 1c4e4 <_start@@Base+0x12468>
   1c288:	e1a0000b 	mov	r0, fp
   1c28c:	e59d2a24 	ldr	r2, [sp, #2596]	; 0xa24
[31m   1c290:	ebffb710 	bl	9ed8 <sprintf@plt>[0m
   1c294:	e3a02040 	mov	r2, #64	; 0x40
   1c298:	e1a01005 	mov	r1, r5
--
   1c2b0:	ebffb68d 	bl	9cec <add_to_list@plt>
   1c2b4:	e1a01006 	mov	r1, r6
   1c2b8:	e1a00004 	mov	r0, r4
   1c2bc:	ebffb68d 	bl	9cf8 <nvram_set@plt>
   1c2c0:	e59f1220 	ldr	r1, [pc, #544]	; 1c4e8 <_start@@Base+0x1246c>
   1c2c4:	e59f0208 	ldr	r0, [pc, #520]	; 1c4d4 <_start@@Base+0x12458>
   1c2c8:	ebffb68a 	bl	9cf8 <nvram_set@plt>
   1c2cc:	e1a00006 	mov	r0, r6
   1c2d0:	e3a01000 	mov	r1, #0
   1c2d4:	e3a020ff 	mov	r2, #255	; 0xff
   1c2d8:	ebffb6dd 	bl	9e54 <memset@plt>
   1c2dc:	e3570001 	cmp	r7, #1
   1c2e0:	da00001a 	ble	1c350 <_start@@Base+0x122d4>
   1c2e4:	e28d4c0a 	add	r4, sp, #2560	; 0xa00
   1c2e8:	e3a05001 	mov	r5, #1
   1c2ec:	e284400c 	add	r4, r4, #12
   1c2f0:	e1a03005 	mov	r3, r5
   1c2f4:	e59d2a24 	ldr	r2, [sp, #2596]	; 0xa24
   1c2f8:	e59f11ec 	ldr	r1, [pc, #492]	; 1c4ec <_start@@Base+0x12470>
   1c2fc:	e1a0000b 	mov	r0, fp
[31m   1c300:	ebffb6f4 	bl	9ed8 <sprintf@plt>[0m
   1c304:	e3a020ff 	mov	r2, #255	; 0xff
   1c308:	e1a01006 	mov	r1, r6
--
   1cf6c:	e59f7084 	ldr	r7, [pc, #132]	; 1cff8 <_start@@Base+0x12f7c>
   1cf70:	e1a00004 	mov	r0, r4
   1cf74:	ebffb419 	bl	9fe0 <strlen@plt>
   1cf78:	e3a02008 	mov	r2, #8
   1cf7c:	e59f1078 	ldr	r1, [pc, #120]	; 1cffc <_start@@Base+0x12f80>
   1cf80:	e0840000 	add	r0, r4, r0
   1cf84:	ebffb2e0 	bl	9b0c <memcpy@plt>
   1cf88:	e1a00004 	mov	r0, r4
   1cf8c:	e59f106c 	ldr	r1, [pc, #108]	; 1d000 <_start@@Base+0x12f84>
   1cf90:	ebffb358 	bl	9cf8 <nvram_set@plt>
   1cf94:	e5973028 	ldr	r3, [r7, #40]	; 0x28
   1cf98:	e1a02004 	mov	r2, r4
   1cf9c:	e597c024 	ldr	ip, [r7, #36]	; 0x24
   1cfa0:	e1a01005 	mov	r1, r5
   1cfa4:	e1a00006 	mov	r0, r6
   1cfa8:	e08c4003 	add	r4, ip, r3
   1cfac:	ebffec67 	bl	18150 <_start@@Base+0xe0d4>
   1cfb0:	e59f104c 	ldr	r1, [pc, #76]	; 1d004 <_start@@Base+0x12f88>
   1cfb4:	e1a02000 	mov	r2, r0
   1cfb8:	e1a00004 	mov	r0, r4
[31m   1cfbc:	ebffb3c5 	bl	9ed8 <sprintf@plt>[0m
   1cfc0:	e5973028 	ldr	r3, [r7, #40]	; 0x28
   1cfc4:	e0803003 	add	r3, r0, r3
--
   1df54:	0003062c 	andeq	r0, r3, ip, lsr #12
   1df58:	000345fc 	strdeq	r4, [r3], -ip
   1df5c:	0003a268 	andeq	sl, r3, r8, ror #4
   1df60:	00034620 	andeq	r4, r3, r0, lsr #12
   1df64:	00038218 	andeq	r8, r3, r8, lsl r2
   1df68:	00038b88 	andeq	r8, r3, r8, lsl #23
   1df6c:	000378b0 			; <UNDEFINED> instruction: 0x000378b0
   1df70:	0003390c 	andeq	r3, r3, ip, lsl #18
   1df74:	e92d4070 	push	{r4, r5, r6, lr}
   1df78:	e24dd020 	sub	sp, sp, #32
   1df7c:	e59f40b4 	ldr	r4, [pc, #180]	; 1e038 <_start@@Base+0x13fbc>
   1df80:	e1a06001 	mov	r6, r1
   1df84:	e1a0500d 	mov	r5, sp
   1df88:	e59f00ac 	ldr	r0, [pc, #172]	; 1e03c <_start@@Base+0x13fc0>
   1df8c:	ebffafaa 	bl	9e3c <nvram_get@plt>
   1df90:	e3500000 	cmp	r0, #0
   1df94:	e59f10a4 	ldr	r1, [pc, #164]	; 1e040 <_start@@Base+0x13fc4>
   1df98:	01a02004 	moveq	r2, r4
   1df9c:	11a02000 	movne	r2, r0
   1dfa0:	e1a0000d 	mov	r0, sp
[31m   1dfa4:	ebffafcb 	bl	9ed8 <sprintf@plt>[0m
   1dfa8:	e1a0000d 	mov	r0, sp
   1dfac:	ebffafa2 	bl	9e3c <nvram_get@plt>
--
   1e118:	e1a0a000 	mov	sl, r0
   1e11c:	e1a00008 	mov	r0, r8
   1e120:	ebffafae 	bl	9fe0 <strlen@plt>
   1e124:	e1a01006 	mov	r1, r6
   1e128:	e060200a 	rsb	r2, r0, sl
   1e12c:	e1a00007 	mov	r0, r7
   1e130:	ebffaf0e 	bl	9d70 <strncpy@plt>
   1e134:	e1a00006 	mov	r0, r6
   1e138:	ebffafa8 	bl	9fe0 <strlen@plt>
   1e13c:	e1a06000 	mov	r6, r0
   1e140:	e1a00008 	mov	r0, r8
   1e144:	ebffafa5 	bl	9fe0 <strlen@plt>
   1e148:	e28d2078 	add	r2, sp, #120	; 0x78
   1e14c:	e0603006 	rsb	r3, r0, r6
   1e150:	e0823003 	add	r3, r2, r3
   1e154:	e3a0c000 	mov	ip, #0
   1e158:	e1a00004 	mov	r0, r4
   1e15c:	e59f1164 	ldr	r1, [pc, #356]	; 1e2c8 <_start@@Base+0x1424c>
   1e160:	e1a02007 	mov	r2, r7
   1e164:	e543c074 	strb	ip, [r3, #-116]	; 0xffffff8c
[31m   1e168:	ebffaf5a 	bl	9ed8 <sprintf@plt>[0m
   1e16c:	e1a01004 	mov	r1, r4
   1e170:	e1a00007 	mov	r0, r7
--
   1e258:	e1a01004 	mov	r1, r4
   1e25c:	e1a00006 	mov	r0, r6
   1e260:	ebffae89 	bl	9c8c <strcat@plt>
   1e264:	e2840001 	add	r0, r4, #1
   1e268:	e3a01022 	mov	r1, #34	; 0x22
   1e26c:	ebffaf64 	bl	a004 <strchr@plt>
   1e270:	e2504000 	subs	r4, r0, #0
   1e274:	1affffd0 	bne	1e1bc <_start@@Base+0x14140>
   1e278:	e1a00005 	mov	r0, r5
   1e27c:	e1a01006 	mov	r1, r6
   1e280:	ebffae7b 	bl	9c74 <fprintf@plt>
   1e284:	e1a04000 	mov	r4, r0
   1e288:	e1a00005 	mov	r0, r5
   1e28c:	ebffae51 	bl	9bd8 <fflush@plt>
   1e290:	eaffff83 	b	1e0a4 <_start@@Base+0x14028>
   1e294:	e59f6034 	ldr	r6, [pc, #52]	; 1e2d0 <_start@@Base+0x14254>
   1e298:	e1a00004 	mov	r0, r4
   1e29c:	e59f1024 	ldr	r1, [pc, #36]	; 1e2c8 <_start@@Base+0x1424c>
   1e2a0:	e1a02006 	mov	r2, r6
   1e2a4:	e28d7004 	add	r7, sp, #4
[31m   1e2a8:	ebffaf0a 	bl	9ed8 <sprintf@plt>[0m
   1e2ac:	eaffffae 	b	1e16c <_start@@Base+0x140f0>
   1e2b0:	0003195c 	andeq	r1, r3, ip, asr r9
--
   1e9f4:	e1a00007 	mov	r0, r7
   1e9f8:	ebffad0f 	bl	9e3c <nvram_get@plt>
   1e9fc:	e3500000 	cmp	r0, #0
   1ea00:	0a000003 	beq	1ea14 <_start@@Base+0x14998>
   1ea04:	e1a01005 	mov	r1, r5
   1ea08:	ebffad29 	bl	9eb4 <strcmp@plt>
   1ea0c:	e3500000 	cmp	r0, #0
   1ea10:	0a000003 	beq	1ea24 <_start@@Base+0x149a8>
   1ea14:	e1a01005 	mov	r1, r5
   1ea18:	e1a00007 	mov	r0, r7
   1ea1c:	ebffacb5 	bl	9cf8 <nvram_set@plt>
   1ea20:	ebfff912 	bl	1ce70 <_start@@Base+0x12df4>
   1ea24:	e3a03000 	mov	r3, #0
   1ea28:	e5843020 	str	r3, [r4, #32]
   1ea2c:	e8bd80f8 	pop	{r3, r4, r5, r6, r7, pc}
   1ea30:	e5943028 	ldr	r3, [r4, #40]	; 0x28
   1ea34:	e1a02005 	mov	r2, r5
   1ea38:	e5940024 	ldr	r0, [r4, #36]	; 0x24
   1ea3c:	e59f102c 	ldr	r1, [pc, #44]	; 1ea70 <_start@@Base+0x149f4>
   1ea40:	e0800003 	add	r0, r0, r3
[31m   1ea44:	ebffad23 	bl	9ed8 <sprintf@plt>[0m
   1ea48:	e5943028 	ldr	r3, [r4, #40]	; 0x28
   1ea4c:	e0803003 	add	r3, r0, r3
--
   1eb08:	e5d57000 	ldrb	r7, [r5]
   1eb0c:	e3570000 	cmp	r7, #0
   1eb10:	0affffea 	beq	1eac0 <_start@@Base+0x14a44>
   1eb14:	ebffad04 	bl	9f2c <__ctype_b_loc@plt>
   1eb18:	e1a02005 	mov	r2, r5
   1eb1c:	e5901000 	ldr	r1, [r0]
   1eb20:	ea000002 	b	1eb30 <_start@@Base+0x14ab4>
   1eb24:	e5f27001 	ldrb	r7, [r2, #1]!
   1eb28:	e3570000 	cmp	r7, #0
   1eb2c:	0affffe3 	beq	1eac0 <_start@@Base+0x14a44>
   1eb30:	e1a03087 	lsl	r3, r7, #1
   1eb34:	e19130b3 	ldrh	r3, [r1, r3]
   1eb38:	e3130010 	tst	r3, #16
   1eb3c:	1afffff8 	bne	1eb24 <_start@@Base+0x14aa8>
   1eb40:	e594c024 	ldr	ip, [r4, #36]	; 0x24
   1eb44:	e1a03007 	mov	r3, r7
   1eb48:	e5940028 	ldr	r0, [r4, #40]	; 0x28
   1eb4c:	e59f1058 	ldr	r1, [pc, #88]	; 1ebac <_start@@Base+0x14b30>
   1eb50:	e5962004 	ldr	r2, [r6, #4]
   1eb54:	e08c0000 	add	r0, ip, r0
[31m   1eb58:	ebffacde 	bl	9ed8 <sprintf@plt>[0m
   1eb5c:	e5943028 	ldr	r3, [r4, #40]	; 0x28
   1eb60:	e0803003 	add	r3, r0, r3
   1eb64:	e5843028 	str	r3, [r4, #40]	; 0x28
   1eb68:	e8bd81f0 	pop	{r4, r5, r6, r7, r8, pc}
   1eb6c:	e5943028 	ldr	r3, [r4, #40]	; 0x28
   1eb70:	e5940024 	ldr	r0, [r4, #36]	; 0x24
   1eb74:	e59f1034 	ldr	r1, [pc, #52]	; 1ebb0 <_start@@Base+0x14b34>
   1eb78:	e5962004 	ldr	r2, [r6, #4]
   1eb7c:	e0800003 	add	r0, r0, r3
[31m   1eb80:	ebffacd4 	bl	9ed8 <sprintf@plt>[0m
   1eb84:	e5943028 	ldr	r3, [r4, #40]	; 0x28
   1eb88:	e0803003 	add	r3, r0, r3
--
   1f224:	e1a01004 	mov	r1, r4
   1f228:	e1a0000a 	mov	r0, sl
   1f22c:	ebffaab1 	bl	9cf8 <nvram_set@plt>
   1f230:	ebfff70e 	bl	1ce70 <_start@@Base+0x12df4>
   1f234:	e3a03000 	mov	r3, #0
   1f238:	e5853020 	str	r3, [r5, #32]
   1f23c:	ea000010 	b	1f284 <_start@@Base+0x15208>
   1f240:	e59f01b8 	ldr	r0, [pc, #440]	; 1f400 <_start@@Base+0x15384>
   1f244:	ebffabc1 	bl	a150 <_start@@Base+0xd4>
   1f248:	e59f3198 	ldr	r3, [pc, #408]	; 1f3e8 <_start@@Base+0x1536c>
   1f24c:	e3500000 	cmp	r0, #0
   1f250:	01a00003 	moveq	r0, r3
   1f254:	e5d03000 	ldrb	r3, [r0]
   1f258:	e3530000 	cmp	r3, #0
   1f25c:	1affff8b 	bne	1f090 <_start@@Base+0x15014>
   1f260:	e5950024 	ldr	r0, [r5, #36]	; 0x24
   1f264:	e5953028 	ldr	r3, [r5, #40]	; 0x28
   1f268:	e59f1194 	ldr	r1, [pc, #404]	; 1f404 <_start@@Base+0x15388>
   1f26c:	e0800003 	add	r0, r0, r3
   1f270:	e5942004 	ldr	r2, [r4, #4]
[31m   1f274:	ebffab17 	bl	9ed8 <sprintf@plt>[0m
   1f278:	e5953028 	ldr	r3, [r5, #40]	; 0x28
   1f27c:	e0803003 	add	r3, r0, r3
--
   1f640:	e2509000 	subs	r9, r0, #0
   1f644:	ba000113 	blt	1fa98 <_start@@Base+0x15a1c>
   1f648:	e59d38e4 	ldr	r3, [sp, #2276]	; 0x8e4
   1f64c:	e3530000 	cmp	r3, #0
   1f650:	ba000110 	blt	1fa98 <_start@@Base+0x15a1c>
   1f654:	e59f0a84 	ldr	r0, [pc, #2692]	; 200e0 <_start@@Base+0x16064>
   1f658:	ebffa9f7 	bl	9e3c <nvram_get@plt>
   1f65c:	e3500000 	cmp	r0, #0
   1f660:	0a000003 	beq	1f674 <_start@@Base+0x155f8>
   1f664:	e59f1a78 	ldr	r1, [pc, #2680]	; 200e4 <_start@@Base+0x16068>
   1f668:	ebffaa11 	bl	9eb4 <strcmp@plt>
   1f66c:	e3500000 	cmp	r0, #0
   1f670:	0a00011c 	beq	1fae8 <_start@@Base+0x15a6c>
   1f674:	e3a0b001 	mov	fp, #1
   1f678:	e28d4d21 	add	r4, sp, #2112	; 0x840
   1f67c:	e59f1a64 	ldr	r1, [pc, #2660]	; 200e8 <_start@@Base+0x1606c>
   1f680:	e284400c 	add	r4, r4, #12
   1f684:	e59d28e4 	ldr	r2, [sp, #2276]	; 0x8e4
   1f688:	e1a00004 	mov	r0, r4
   1f68c:	e28d6018 	add	r6, sp, #24
[31m   1f690:	ebffaa10 	bl	9ed8 <sprintf@plt>[0m
   1f694:	e1a00004 	mov	r0, r4
   1f698:	e246600c 	sub	r6, r6, #12
--
   1f7c0:	e54382dc 	strb	r8, [r3, #-732]	; 0xfffffd24
   1f7c4:	e5cd870b 	strb	r8, [sp, #1803]	; 0x70b
   1f7c8:	ebffaa0d 	bl	a004 <strchr@plt>
   1f7cc:	e5dd360c 	ldrb	r3, [sp, #1548]	; 0x60c
   1f7d0:	e1a06000 	mov	r6, r0
   1f7d4:	e3530000 	cmp	r3, #0
   1f7d8:	1affffd4 	bne	1f730 <_start@@Base+0x156b4>
   1f7dc:	e3590001 	cmp	r9, #1
   1f7e0:	1a0000c3 	bne	1faf4 <_start@@Base+0x15a78>
   1f7e4:	e59f8900 	ldr	r8, [pc, #2304]	; 200ec <_start@@Base+0x16070>
   1f7e8:	e28d7d22 	add	r7, sp, #2176	; 0x880
   1f7ec:	e3a06000 	mov	r6, #0
   1f7f0:	e287700c 	add	r7, r7, #12
   1f7f4:	e59d38e4 	ldr	r3, [sp, #2276]	; 0x8e4
   1f7f8:	e1a02006 	mov	r2, r6
   1f7fc:	e59f1900 	ldr	r1, [pc, #2304]	; 20104 <_start@@Base+0x16088>
   1f800:	e1a00007 	mov	r0, r7
   1f804:	e1560003 	cmp	r6, r3
   1f808:	e2866001 	add	r6, r6, #1
   1f80c:	0a00000b 	beq	1f840 <_start@@Base+0x157c4>
[31m   1f810:	ebffa9b0 	bl	9ed8 <sprintf@plt>[0m
   1f814:	e1a00007 	mov	r0, r7
   1f818:	ebffa987 	bl	9e3c <nvram_get@plt>
--
   1f86c:	e59f3878 	ldr	r3, [pc, #2168]	; 200ec <_start@@Base+0x16070>
   1f870:	e3500000 	cmp	r0, #0
   1f874:	01a00003 	moveq	r0, r3
   1f878:	e5d03000 	ldrb	r3, [r0]
   1f87c:	e3530030 	cmp	r3, #48	; 0x30
   1f880:	0a000001 	beq	1f88c <_start@@Base+0x15810>
   1f884:	e3530000 	cmp	r3, #0
   1f888:	1a00008a 	bne	1fab8 <_start@@Base+0x15a3c>
   1f88c:	e59f6874 	ldr	r6, [pc, #2164]	; 20108 <_start@@Base+0x1608c>
   1f890:	e3a08001 	mov	r8, #1
   1f894:	e59f1848 	ldr	r1, [pc, #2120]	; 200e4 <_start@@Base+0x16068>
   1f898:	e1a00007 	mov	r0, r7
   1f89c:	e5868d38 	str	r8, [r6, #3384]	; 0xd38
   1f8a0:	ebffa914 	bl	9cf8 <nvram_set@plt>
   1f8a4:	e59f1860 	ldr	r1, [pc, #2144]	; 2010c <_start@@Base+0x16090>
   1f8a8:	e59f0860 	ldr	r0, [pc, #2144]	; 20110 <_start@@Base+0x16094>
   1f8ac:	ebffa911 	bl	9cf8 <nvram_set@plt>
   1f8b0:	e1a00007 	mov	r0, r7
   1f8b4:	e59f1858 	ldr	r1, [pc, #2136]	; 20114 <_start@@Base+0x16098>
   1f8b8:	e59d28e4 	ldr	r2, [sp, #2276]	; 0x8e4
[31m   1f8bc:	ebffa985 	bl	9ed8 <sprintf@plt>[0m
   1f8c0:	e15b0008 	cmp	fp, r8
   1f8c4:	0a000135 	beq	1fda0 <_start@@Base+0x15d24>
   1f8c8:	e59f1848 	ldr	r1, [pc, #2120]	; 20118 <_start@@Base+0x1609c>
   1f8cc:	e1a00007 	mov	r0, r7
   1f8d0:	ebffa908 	bl	9cf8 <nvram_set@plt>
   1f8d4:	e59f183c 	ldr	r1, [pc, #2108]	; 20118 <_start@@Base+0x1609c>
   1f8d8:	e59f083c 	ldr	r0, [pc, #2108]	; 2011c <_start@@Base+0x160a0>
   1f8dc:	ebffa905 	bl	9cf8 <nvram_set@plt>
   1f8e0:	e59d28e4 	ldr	r2, [sp, #2276]	; 0x8e4
   1f8e4:	e1a00007 	mov	r0, r7
   1f8e8:	e59f1830 	ldr	r1, [pc, #2096]	; 20120 <_start@@Base+0x160a4>
[31m   1f8ec:	ebffa979 	bl	9ed8 <sprintf@plt>[0m
   1f8f0:	e59f182c 	ldr	r1, [pc, #2092]	; 20124 <_start@@Base+0x160a8>
   1f8f4:	e1a00007 	mov	r0, r7
   1f8f8:	ebffa8fe 	bl	9cf8 <nvram_set@plt>
   1f8fc:	e59f0824 	ldr	r0, [pc, #2084]	; 20128 <_start@@Base+0x160ac>
   1f900:	ebffa94d 	bl	9e3c <nvram_get@plt>
   1f904:	e2509000 	subs	r9, r0, #0
   1f908:	059f97dc 	ldreq	r9, [pc, #2012]	; 200ec <_start@@Base+0x16070>
   1f90c:	0a000002 	beq	1f91c <_start@@Base+0x158a0>
   1f910:	ebffa9b2 	bl	9fe0 <strlen@plt>
   1f914:	e35000fe 	cmp	r0, #254	; 0xfe
   1f918:	8a000119 	bhi	1fd84 <_start@@Base+0x15d08>
   1f91c:	e28d8c07 	add	r8, sp, #1792	; 0x700
   1f920:	e1a01009 	mov	r1, r9
   1f924:	e288800c 	add	r8, r8, #12
   1f928:	e3a020ff 	mov	r2, #255	; 0xff
   1f92c:	e1a00008 	mov	r0, r8
   1f930:	ebffa90e 	bl	9d70 <strncpy@plt>
   1f934:	e59d28e4 	ldr	r2, [sp, #2276]	; 0x8e4
   1f938:	e1a00004 	mov	r0, r4
   1f93c:	e59f17e8 	ldr	r1, [pc, #2024]	; 2012c <_start@@Base+0x160b0>
[31m   1f940:	ebffa964 	bl	9ed8 <sprintf@plt>[0m
   1f944:	e1a01008 	mov	r1, r8
   1f948:	e1a00004 	mov	r0, r4
   1f94c:	e3a020ff 	mov	r2, #255	; 0xff
   1f950:	ebffa8e5 	bl	9cec <add_to_list@plt>
   1f954:	e59f07cc 	ldr	r0, [pc, #1996]	; 20128 <_start@@Base+0x160ac>
   1f958:	e1a01008 	mov	r1, r8
   1f95c:	ebffa8e5 	bl	9cf8 <nvram_set@plt>
   1f960:	e59d28e4 	ldr	r2, [sp, #2276]	; 0x8e4
   1f964:	e1a00007 	mov	r0, r7
   1f968:	e59f17c0 	ldr	r1, [pc, #1984]	; 20130 <_start@@Base+0x160b4>
[31m   1f96c:	ebffa959 	bl	9ed8 <sprintf@plt>[0m
   1f970:	e59f17bc 	ldr	r1, [pc, #1980]	; 20134 <_start@@Base+0x160b8>
   1f974:	e1a00007 	mov	r0, r7
   1f978:	ebffa8de 	bl	9cf8 <nvram_set@plt>
   1f97c:	e59d28e4 	ldr	r2, [sp, #2276]	; 0x8e4
   1f980:	e1a00007 	mov	r0, r7
   1f984:	e59f17ac 	ldr	r1, [pc, #1964]	; 20138 <_start@@Base+0x160bc>
[31m   1f988:	ebffa952 	bl	9ed8 <sprintf@plt>[0m
   1f98c:	e59f17a0 	ldr	r1, [pc, #1952]	; 20134 <_start@@Base+0x160b8>
   1f990:	e1a00007 	mov	r0, r7
   1f994:	ebffa8d7 	bl	9cf8 <nvram_set@plt>
   1f998:	e59f379c 	ldr	r3, [pc, #1948]	; 2013c <_start@@Base+0x160c0>
   1f99c:	e28d2b02 	add	r2, sp, #2048	; 0x800
   1f9a0:	e8930003 	ldm	r3, {r0, r1}
   1f9a4:	e58d088c 	str	r0, [sp, #2188]	; 0x88c
   1f9a8:	e1a00007 	mov	r0, r7
   1f9ac:	e1a03821 	lsr	r3, r1, #16
   1f9b0:	e1c219b0 	strh	r1, [r2, #144]	; 0x90
   1f9b4:	e5cd3892 	strb	r3, [sp, #2194]	; 0x892
   1f9b8:	ebffa91f 	bl	9e3c <nvram_get@plt>
   1f9bc:	e2505000 	subs	r5, r0, #0
   1f9c0:	0a000002 	beq	1f9d0 <_start@@Base+0x15954>
   1f9c4:	e5d53000 	ldrb	r3, [r5]
   1f9c8:	e3530000 	cmp	r3, #0
   1f9cc:	1a00016d 	bne	1ff88 <_start@@Base+0x15f0c>
   1f9d0:	e59f1768 	ldr	r1, [pc, #1896]	; 20140 <_start@@Base+0x160c4>
   1f9d4:	e1a00007 	mov	r0, r7
   1f9d8:	e59d28e4 	ldr	r2, [sp, #2276]	; 0x8e4
[31m   1f9dc:	ebffa93d 	bl	9ed8 <sprintf@plt>[0m
   1f9e0:	e1a00007 	mov	r0, r7
   1f9e4:	ebffa914 	bl	9e3c <nvram_get@plt>
--
   1f9f4:	e3530000 	cmp	r3, #0
   1f9f8:	1a000176 	bne	1ffd8 <_start@@Base+0x15f5c>
   1f9fc:	e59f16e8 	ldr	r1, [pc, #1768]	; 200ec <_start@@Base+0x16070>
   1fa00:	e59f073c 	ldr	r0, [pc, #1852]	; 20144 <_start@@Base+0x160c8>
   1fa04:	ebffa8bb 	bl	9cf8 <nvram_set@plt>
   1fa08:	e59f0738 	ldr	r0, [pc, #1848]	; 20148 <_start@@Base+0x160cc>
   1fa0c:	e59f16d8 	ldr	r1, [pc, #1752]	; 200ec <_start@@Base+0x16070>
   1fa10:	ebffa8b8 	bl	9cf8 <nvram_set@plt>
   1fa14:	e59d38e4 	ldr	r3, [sp, #2276]	; 0x8e4
   1fa18:	e3530000 	cmp	r3, #0
   1fa1c:	0a000149 	beq	1ff48 <_start@@Base+0x15ecc>
   1fa20:	e59f16e4 	ldr	r1, [pc, #1764]	; 2010c <_start@@Base+0x16090>
   1fa24:	e59f0720 	ldr	r0, [pc, #1824]	; 2014c <_start@@Base+0x160d0>
   1fa28:	ebffa8b2 	bl	9cf8 <nvram_set@plt>
   1fa2c:	e35a0002 	cmp	sl, #2
   1fa30:	da000011 	ble	1fa7c <_start@@Base+0x15a00>
   1fa34:	e3a05002 	mov	r5, #2
   1fa38:	e1a02005 	mov	r2, r5
   1fa3c:	e59f170c 	ldr	r1, [pc, #1804]	; 20150 <_start@@Base+0x160d4>
   1fa40:	e1a00004 	mov	r0, r4
[31m   1fa44:	ebffa923 	bl	9ed8 <sprintf@plt>[0m
   1fa48:	e59f16bc 	ldr	r1, [pc, #1724]	; 2010c <_start@@Base+0x16090>
   1fa4c:	e1a00004 	mov	r0, r4
   1fa50:	ebffa8a8 	bl	9cf8 <nvram_set@plt>
   1fa54:	e1a02005 	mov	r2, r5
   1fa58:	e59f16f4 	ldr	r1, [pc, #1780]	; 20154 <_start@@Base+0x160d8>
   1fa5c:	e1a00004 	mov	r0, r4
   1fa60:	e2855001 	add	r5, r5, #1
[31m   1fa64:	ebffa91b 	bl	9ed8 <sprintf@plt>[0m
   1fa68:	e1a00004 	mov	r0, r4
   1fa6c:	e59f1698 	ldr	r1, [pc, #1688]	; 2010c <_start@@Base+0x16090>
--
   1fbf4:	e1a01008 	mov	r1, r8
   1fbf8:	e1a00009 	mov	r0, r9
   1fbfc:	ebffa83a 	bl	9cec <add_to_list@plt>
   1fc00:	e1a01008 	mov	r1, r8
   1fc04:	e59f0558 	ldr	r0, [pc, #1368]	; 20164 <_start@@Base+0x160e8>
   1fc08:	ebffa83a 	bl	9cf8 <nvram_set@plt>
   1fc0c:	e59f0514 	ldr	r0, [pc, #1300]	; 20128 <_start@@Base+0x160ac>
   1fc10:	ebffa889 	bl	9e3c <nvram_get@plt>
   1fc14:	e2506000 	subs	r6, r0, #0
   1fc18:	0a000122 	beq	200a8 <_start@@Base+0x1602c>
   1fc1c:	ebffa8ef 	bl	9fe0 <strlen@plt>
   1fc20:	e35000fe 	cmp	r0, #254	; 0xfe
   1fc24:	8a0000ce 	bhi	1ff64 <_start@@Base+0x15ee8>
   1fc28:	e1a01006 	mov	r1, r6
   1fc2c:	e3a020ff 	mov	r2, #255	; 0xff
   1fc30:	e1a00008 	mov	r0, r8
   1fc34:	ebffa84d 	bl	9d70 <strncpy@plt>
   1fc38:	e59d28e4 	ldr	r2, [sp, #2276]	; 0x8e4
   1fc3c:	e1a00004 	mov	r0, r4
   1fc40:	e59f14e4 	ldr	r1, [pc, #1252]	; 2012c <_start@@Base+0x160b0>
[31m   1fc44:	ebffa8a3 	bl	9ed8 <sprintf@plt>[0m
   1fc48:	e1a01008 	mov	r1, r8
   1fc4c:	e3a020ff 	mov	r2, #255	; 0xff
   1fc50:	e1a00004 	mov	r0, r4
   1fc54:	ebffa83f 	bl	9d58 <remove_from_list@plt>
   1fc58:	e59d28e4 	ldr	r2, [sp, #2276]	; 0x8e4
   1fc5c:	e1a00004 	mov	r0, r4
   1fc60:	e59f150c 	ldr	r1, [pc, #1292]	; 20174 <_start@@Base+0x160f8>
[31m   1fc64:	ebffa89b 	bl	9ed8 <sprintf@plt>[0m
   1fc68:	e1a01009 	mov	r1, r9
   1fc6c:	e3a02040 	mov	r2, #64	; 0x40
--
   1fc80:	e1a00009 	mov	r0, r9
   1fc84:	ebffa818 	bl	9cec <add_to_list@plt>
   1fc88:	e1a01008 	mov	r1, r8
   1fc8c:	e59f0494 	ldr	r0, [pc, #1172]	; 20128 <_start@@Base+0x160ac>
   1fc90:	ebffa818 	bl	9cf8 <nvram_set@plt>
   1fc94:	e59f14dc 	ldr	r1, [pc, #1244]	; 20178 <_start@@Base+0x160fc>
   1fc98:	e59f04a4 	ldr	r0, [pc, #1188]	; 20144 <_start@@Base+0x160c8>
   1fc9c:	ebffa815 	bl	9cf8 <nvram_set@plt>
   1fca0:	e1a00008 	mov	r0, r8
   1fca4:	e3a01000 	mov	r1, #0
   1fca8:	e3a020ff 	mov	r2, #255	; 0xff
   1fcac:	ebffa868 	bl	9e54 <memset@plt>
   1fcb0:	e35a0001 	cmp	sl, #1
   1fcb4:	da00002d 	ble	1fd70 <_start@@Base+0x15cf4>
   1fcb8:	e28d5d23 	add	r5, sp, #2240	; 0x8c0
   1fcbc:	e3a06001 	mov	r6, #1
   1fcc0:	e285500c 	add	r5, r5, #12
   1fcc4:	e1a02006 	mov	r2, r6
   1fcc8:	e59f14ac 	ldr	r1, [pc, #1196]	; 2017c <_start@@Base+0x16100>
   1fccc:	e1a00004 	mov	r0, r4
[31m   1fcd0:	ebffa880 	bl	9ed8 <sprintf@plt>[0m
   1fcd4:	e3a020ff 	mov	r2, #255	; 0xff
   1fcd8:	e1a01008 	mov	r1, r8
   1fcdc:	e1a00004 	mov	r0, r4
   1fce0:	ebffa801 	bl	9cec <add_to_list@plt>
   1fce4:	e1a01004 	mov	r1, r4
   1fce8:	e1a00005 	mov	r0, r5
   1fcec:	ebffa750 	bl	9a34 <strcpy@plt>
   1fcf0:	e1a00005 	mov	r0, r5
   1fcf4:	ebffa8b9 	bl	9fe0 <strlen@plt>
   1fcf8:	e3a02008 	mov	r2, #8
   1fcfc:	e59f147c 	ldr	r1, [pc, #1148]	; 20180 <_start@@Base+0x16104>
   1fd00:	e0850000 	add	r0, r5, r0
   1fd04:	ebffa780 	bl	9b0c <memcpy@plt>
   1fd08:	e59f13dc 	ldr	r1, [pc, #988]	; 200ec <_start@@Base+0x16070>
   1fd0c:	e1a00005 	mov	r0, r5
   1fd10:	ebffa7f8 	bl	9cf8 <nvram_set@plt>
   1fd14:	e1a02006 	mov	r2, r6
   1fd18:	e59f1464 	ldr	r1, [pc, #1124]	; 20184 <_start@@Base+0x16108>
   1fd1c:	e1a00004 	mov	r0, r4
   1fd20:	e2866001 	add	r6, r6, #1
[31m   1fd24:	ebffa86b 	bl	9ed8 <sprintf@plt>[0m
   1fd28:	e3a020ff 	mov	r2, #255	; 0xff
   1fd2c:	e1a01008 	mov	r1, r8
--
   1fd74:	e59f03cc 	ldr	r0, [pc, #972]	; 20148 <_start@@Base+0x160cc>
   1fd78:	e59f6388 	ldr	r6, [pc, #904]	; 20108 <_start@@Base+0x1608c>
   1fd7c:	ebffa7dd 	bl	9cf8 <nvram_set@plt>
   1fd80:	eaffff3d 	b	1fa7c <_start@@Base+0x15a00>
   1fd84:	e59f03fc 	ldr	r0, [pc, #1020]	; 20188 <_start@@Base+0x1610c>
   1fd88:	e1a01008 	mov	r1, r8
   1fd8c:	e3a02010 	mov	r2, #16
   1fd90:	e1a03005 	mov	r3, r5
   1fd94:	ebffa86a 	bl	9f44 <fwrite@plt>
   1fd98:	e5868020 	str	r8, [r6, #32]
   1fd9c:	eaffff45 	b	1fab8 <_start@@Base+0x15a3c>
   1fda0:	e59f13e4 	ldr	r1, [pc, #996]	; 2018c <_start@@Base+0x16110>
   1fda4:	e1a00007 	mov	r0, r7
   1fda8:	ebffa7d2 	bl	9cf8 <nvram_set@plt>
   1fdac:	e59f13d8 	ldr	r1, [pc, #984]	; 2018c <_start@@Base+0x16110>
   1fdb0:	e59f0364 	ldr	r0, [pc, #868]	; 2011c <_start@@Base+0x160a0>
   1fdb4:	ebffa7cf 	bl	9cf8 <nvram_set@plt>
   1fdb8:	e59d28e4 	ldr	r2, [sp, #2276]	; 0x8e4
   1fdbc:	e1a00007 	mov	r0, r7
   1fdc0:	e59f1358 	ldr	r1, [pc, #856]	; 20120 <_start@@Base+0x160a4>
[31m   1fdc4:	ebffa843 	bl	9ed8 <sprintf@plt>[0m
   1fdc8:	e59f1354 	ldr	r1, [pc, #852]	; 20124 <_start@@Base+0x160a8>
   1fdcc:	e1a00007 	mov	r0, r7
   1fdd0:	ebffa7c8 	bl	9cf8 <nvram_set@plt>
   1fdd4:	e59f034c 	ldr	r0, [pc, #844]	; 20128 <_start@@Base+0x160ac>
   1fdd8:	ebffa817 	bl	9e3c <nvram_get@plt>
   1fddc:	e2509000 	subs	r9, r0, #0
   1fde0:	059f9304 	ldreq	r9, [pc, #772]	; 200ec <_start@@Base+0x16070>
   1fde4:	0a000002 	beq	1fdf4 <_start@@Base+0x15d78>
   1fde8:	ebffa87c 	bl	9fe0 <strlen@plt>
   1fdec:	e35000fe 	cmp	r0, #254	; 0xfe
   1fdf0:	8a00008c 	bhi	20028 <_start@@Base+0x15fac>
   1fdf4:	e28d8c07 	add	r8, sp, #1792	; 0x700
   1fdf8:	e1a01009 	mov	r1, r9
   1fdfc:	e288800c 	add	r8, r8, #12
   1fe00:	e3a020ff 	mov	r2, #255	; 0xff
   1fe04:	e1a00008 	mov	r0, r8
   1fe08:	e28d9b02 	add	r9, sp, #2048	; 0x800
   1fe0c:	ebffa7d7 	bl	9d70 <strncpy@plt>
   1fe10:	e289900c 	add	r9, r9, #12
   1fe14:	e59f1358 	ldr	r1, [pc, #856]	; 20174 <_start@@Base+0x160f8>
   1fe18:	e59d28e4 	ldr	r2, [sp, #2276]	; 0x8e4
   1fe1c:	e1a00004 	mov	r0, r4
[31m   1fe20:	ebffa82c 	bl	9ed8 <sprintf@plt>[0m
   1fe24:	e3a02040 	mov	r2, #64	; 0x40
   1fe28:	e1a01009 	mov	r1, r9
--
   1fecc:	e1a00009 	mov	r0, r9
   1fed0:	e1a01008 	mov	r1, r8
   1fed4:	ebffa784 	bl	9cec <add_to_list@plt>
   1fed8:	e1a01008 	mov	r1, r8
   1fedc:	e59f0280 	ldr	r0, [pc, #640]	; 20164 <_start@@Base+0x160e8>
   1fee0:	ebffa784 	bl	9cf8 <nvram_set@plt>
   1fee4:	e59f023c 	ldr	r0, [pc, #572]	; 20128 <_start@@Base+0x160ac>
   1fee8:	ebffa7d3 	bl	9e3c <nvram_get@plt>
   1feec:	e2509000 	subs	r9, r0, #0
   1fef0:	0a000076 	beq	200d0 <_start@@Base+0x16054>
   1fef4:	ebffa839 	bl	9fe0 <strlen@plt>
   1fef8:	e35000fe 	cmp	r0, #254	; 0xfe
   1fefc:	8a000050 	bhi	20044 <_start@@Base+0x15fc8>
   1ff00:	e1a01009 	mov	r1, r9
   1ff04:	e3a020ff 	mov	r2, #255	; 0xff
   1ff08:	e1a00008 	mov	r0, r8
   1ff0c:	ebffa797 	bl	9d70 <strncpy@plt>
   1ff10:	e59d28e4 	ldr	r2, [sp, #2276]	; 0x8e4
   1ff14:	e1a00004 	mov	r0, r4
   1ff18:	e59f120c 	ldr	r1, [pc, #524]	; 2012c <_start@@Base+0x160b0>
[31m   1ff1c:	ebffa7ed 	bl	9ed8 <sprintf@plt>[0m
   1ff20:	e1a00004 	mov	r0, r4
   1ff24:	e1a01008 	mov	r1, r8
--
   20388:	e59f129c 	ldr	r1, [pc, #668]	; 2062c <_start@@Base+0x165b0>
   2038c:	ebffa6c8 	bl	9eb4 <strcmp@plt>
   20390:	e3500000 	cmp	r0, #0
   20394:	1a000044 	bne	204ac <_start@@Base+0x16430>
   20398:	e59f0290 	ldr	r0, [pc, #656]	; 20630 <_start@@Base+0x165b4>
   2039c:	ebffa6a6 	bl	9e3c <nvram_get@plt>
   203a0:	e3500000 	cmp	r0, #0
   203a4:	0affffa6 	beq	20244 <_start@@Base+0x161c8>
   203a8:	e59f1284 	ldr	r1, [pc, #644]	; 20634 <_start@@Base+0x165b8>
   203ac:	ebffa6c0 	bl	9eb4 <strcmp@plt>
   203b0:	e2505000 	subs	r5, r0, #0
   203b4:	1affffa2 	bne	20244 <_start@@Base+0x161c8>
   203b8:	e28d7010 	add	r7, sp, #16
   203bc:	ea000002 	b	203cc <_start@@Base+0x16350>
   203c0:	e2855001 	add	r5, r5, #1
   203c4:	e3550010 	cmp	r5, #16
   203c8:	0a000026 	beq	20468 <_start@@Base+0x163ec>
   203cc:	e59f1264 	ldr	r1, [pc, #612]	; 20638 <_start@@Base+0x165bc>
   203d0:	e1a02005 	mov	r2, r5
   203d4:	e1a0000d 	mov	r0, sp
[31m   203d8:	ebffa6be 	bl	9ed8 <sprintf@plt>[0m
   203dc:	e1a0000d 	mov	r0, sp
   203e0:	ebffa695 	bl	9e3c <nvram_get@plt>
--
   207e4:	e1a03005 	mov	r3, r5
   207e8:	e59f019c 	ldr	r0, [pc, #412]	; 2098c <_start@@Base+0x16910>
   207ec:	ebffa5d4 	bl	9f44 <fwrite@plt>
   207f0:	e1a00005 	mov	r0, r5
   207f4:	ebffa4f7 	bl	9bd8 <fflush@plt>
   207f8:	e1a03005 	mov	r3, r5
   207fc:	e3a01001 	mov	r1, #1
   20800:	e3a02064 	mov	r2, #100	; 0x64
   20804:	e59f0184 	ldr	r0, [pc, #388]	; 20990 <_start@@Base+0x16914>
   20808:	ebffa5cd 	bl	9f44 <fwrite@plt>
   2080c:	e1a00005 	mov	r0, r5
   20810:	ebffa4f0 	bl	9bd8 <fflush@plt>
   20814:	ebffc078 	bl	109fc <_start@@Base+0x6980>
   20818:	e5d6307c 	ldrb	r3, [r6, #124]	; 0x7c
   2081c:	e3530001 	cmp	r3, #1
   20820:	1a00001c 	bne	20898 <_start@@Base+0x1681c>
   20824:	e286607c 	add	r6, r6, #124	; 0x7c
   20828:	e3a07000 	mov	r7, #0
   2082c:	ea000006 	b	2084c <_start@@Base+0x167d0>
   20830:	e0840003 	add	r0, r4, r3
[31m   20834:	ebffa5a7 	bl	9ed8 <sprintf@plt>[0m
   20838:	e5d83038 	ldrb	r3, [r8, #56]	; 0x38
   2083c:	e2877001 	add	r7, r7, #1
   20840:	e2866038 	add	r6, r6, #56	; 0x38
   20844:	e3530001 	cmp	r3, #1
   20848:	1a000012 	bne	20898 <_start@@Base+0x1681c>
   2084c:	e5d63036 	ldrb	r3, [r6, #54]	; 0x36
   20850:	e1a0000d 	mov	r0, sp
   20854:	e1a08006 	mov	r8, r6
   20858:	e3530000 	cmp	r3, #0
   2085c:	1afffff5 	bne	20838 <_start@@Base+0x167bc>
   20860:	ebffa5de 	bl	9fe0 <strlen@plt>
   20864:	e2503000 	subs	r3, r0, #0
   20868:	e59f1124 	ldr	r1, [pc, #292]	; 20994 <_start@@Base+0x16918>
   2086c:	e1a02007 	mov	r2, r7
   20870:	e1a0000d 	mov	r0, sp
   20874:	1affffed 	bne	20830 <_start@@Base+0x167b4>
   20878:	e1a02007 	mov	r2, r7
   2087c:	e59f1114 	ldr	r1, [pc, #276]	; 20998 <_start@@Base+0x1691c>
[31m   20880:	ebffa594 	bl	9ed8 <sprintf@plt>[0m
   20884:	e5d83038 	ldrb	r3, [r8, #56]	; 0x38
   20888:	e2877001 	add	r7, r7, #1
--
   21800:	e1a00004 	mov	r0, r4
   21804:	ebffa1f5 	bl	9fe0 <strlen@plt>
   21808:	e3a02008 	mov	r2, #8
   2180c:	e59f1b04 	ldr	r1, [pc, #2820]	; 22318 <_start@@Base+0x1829c>
   21810:	e0840000 	add	r0, r4, r0
   21814:	ebffa0bc 	bl	9b0c <memcpy@plt>
   21818:	e59f1afc 	ldr	r1, [pc, #2812]	; 2231c <_start@@Base+0x182a0>
   2181c:	e1a00004 	mov	r0, r4
   21820:	ebffa134 	bl	9cf8 <nvram_set@plt>
   21824:	e59a3028 	ldr	r3, [sl, #40]	; 0x28
   21828:	e1a01005 	mov	r1, r5
   2182c:	e59a8024 	ldr	r8, [sl, #36]	; 0x24
   21830:	e1a02004 	mov	r2, r4
   21834:	e1a00006 	mov	r0, r6
   21838:	e0888003 	add	r8, r8, r3
   2183c:	ebffda43 	bl	18150 <_start@@Base+0xe0d4>
   21840:	e59d3014 	ldr	r3, [sp, #20]
   21844:	e1a02000 	mov	r2, r0
   21848:	e59f1ad0 	ldr	r1, [pc, #2768]	; 22320 <_start@@Base+0x182a4>
   2184c:	e1a00008 	mov	r0, r8
[31m   21850:	ebffa1a0 	bl	9ed8 <sprintf@plt>[0m
   21854:	e59a3028 	ldr	r3, [sl, #40]	; 0x28
   21858:	e0803003 	add	r3, r0, r3
--
   21ba8:	ebff9fa1 	bl	9a34 <strcpy@plt>
   21bac:	e1a00004 	mov	r0, r4
   21bb0:	ebffa10a 	bl	9fe0 <strlen@plt>
   21bb4:	e3a02008 	mov	r2, #8
   21bb8:	e59f1758 	ldr	r1, [pc, #1880]	; 22318 <_start@@Base+0x1829c>
   21bbc:	e0840000 	add	r0, r4, r0
   21bc0:	ebff9fd1 	bl	9b0c <memcpy@plt>
   21bc4:	e59f1750 	ldr	r1, [pc, #1872]	; 2231c <_start@@Base+0x182a0>
   21bc8:	e1a00004 	mov	r0, r4
   21bcc:	ebffa049 	bl	9cf8 <nvram_set@plt>
   21bd0:	e59a3028 	ldr	r3, [sl, #40]	; 0x28
   21bd4:	e1a01005 	mov	r1, r5
   21bd8:	e59a8024 	ldr	r8, [sl, #36]	; 0x24
   21bdc:	e1a02004 	mov	r2, r4
   21be0:	e1a00006 	mov	r0, r6
   21be4:	e0888003 	add	r8, r8, r3
   21be8:	ebffd958 	bl	18150 <_start@@Base+0xe0d4>
   21bec:	e59f174c 	ldr	r1, [pc, #1868]	; 22340 <_start@@Base+0x182c4>
   21bf0:	e1a02000 	mov	r2, r0
   21bf4:	e1a00008 	mov	r0, r8
[31m   21bf8:	ebffa0b6 	bl	9ed8 <sprintf@plt>[0m
   21bfc:	e59a3028 	ldr	r3, [sl, #40]	; 0x28
   21c00:	e0803003 	add	r3, r0, r3
--
   21df4:	e1a00004 	mov	r0, r4
   21df8:	ebffa078 	bl	9fe0 <strlen@plt>
   21dfc:	e3a02008 	mov	r2, #8
   21e00:	e59f1510 	ldr	r1, [pc, #1296]	; 22318 <_start@@Base+0x1829c>
   21e04:	e0840000 	add	r0, r4, r0
   21e08:	ebff9f3f 	bl	9b0c <memcpy@plt>
   21e0c:	e59f1508 	ldr	r1, [pc, #1288]	; 2231c <_start@@Base+0x182a0>
   21e10:	e1a00004 	mov	r0, r4
   21e14:	ebff9fb7 	bl	9cf8 <nvram_set@plt>
   21e18:	e59a3024 	ldr	r3, [sl, #36]	; 0x24
   21e1c:	e1a01005 	mov	r1, r5
   21e20:	e59a8028 	ldr	r8, [sl, #40]	; 0x28
   21e24:	e1a02004 	mov	r2, r4
   21e28:	e1a00006 	mov	r0, r6
   21e2c:	e0838008 	add	r8, r3, r8
   21e30:	ebffd8c6 	bl	18150 <_start@@Base+0xe0d4>
   21e34:	e59f1510 	ldr	r1, [pc, #1296]	; 2234c <_start@@Base+0x182d0>
   21e38:	e1a02000 	mov	r2, r0
   21e3c:	e1a00008 	mov	r0, r8
   21e40:	e59d3014 	ldr	r3, [sp, #20]
[31m   21e44:	ebffa023 	bl	9ed8 <sprintf@plt>[0m
   21e48:	e59a3028 	ldr	r3, [sl, #40]	; 0x28
   21e4c:	e0803003 	add	r3, r0, r3
--
   21fec:	e1a01005 	mov	r1, r5
   21ff0:	e59ac024 	ldr	ip, [sl, #36]	; 0x24
   21ff4:	e1a02004 	mov	r2, r4
   21ff8:	e1a00006 	mov	r0, r6
   21ffc:	e08cc003 	add	ip, ip, r3
   22000:	e58dc00c 	str	ip, [sp, #12]
   22004:	ebffd851 	bl	18150 <_start@@Base+0xe0d4>
   22008:	e1a02000 	mov	r2, r0
   2200c:	e59f031c 	ldr	r0, [pc, #796]	; 22330 <_start@@Base+0x182b4>
   22010:	e58d2010 	str	r2, [sp, #16]
   22014:	ebff9f88 	bl	9e3c <nvram_get@plt>
   22018:	e59dc00c 	ldr	ip, [sp, #12]
   2201c:	e3500000 	cmp	r0, #0
   22020:	11a03000 	movne	r3, r0
   22024:	01a0300b 	moveq	r3, fp
   22028:	e59f1320 	ldr	r1, [pc, #800]	; 22350 <_start@@Base+0x182d4>
   2202c:	e1a0000c 	mov	r0, ip
   22030:	e59dc014 	ldr	ip, [sp, #20]
   22034:	e59d2010 	ldr	r2, [sp, #16]
   22038:	e58dc000 	str	ip, [sp]
[31m   2203c:	ebff9fa5 	bl	9ed8 <sprintf@plt>[0m
   22040:	e59a3028 	ldr	r3, [sl, #40]	; 0x28
   22044:	e0803003 	add	r3, r0, r3
--
   2226c:	ebff9df0 	bl	9a34 <strcpy@plt>
   22270:	e1a00004 	mov	r0, r4
   22274:	ebff9f59 	bl	9fe0 <strlen@plt>
   22278:	e3a02008 	mov	r2, #8
   2227c:	e59f1094 	ldr	r1, [pc, #148]	; 22318 <_start@@Base+0x1829c>
   22280:	e0840000 	add	r0, r4, r0
   22284:	ebff9e20 	bl	9b0c <memcpy@plt>
   22288:	e59f108c 	ldr	r1, [pc, #140]	; 2231c <_start@@Base+0x182a0>
   2228c:	e1a00004 	mov	r0, r4
   22290:	ebff9e98 	bl	9cf8 <nvram_set@plt>
   22294:	e59a3024 	ldr	r3, [sl, #36]	; 0x24
   22298:	e1a01005 	mov	r1, r5
   2229c:	e59a8028 	ldr	r8, [sl, #40]	; 0x28
   222a0:	e1a02004 	mov	r2, r4
   222a4:	e1a00006 	mov	r0, r6
   222a8:	e0838008 	add	r8, r3, r8
   222ac:	ebffd7a7 	bl	18150 <_start@@Base+0xe0d4>
   222b0:	e59f10a8 	ldr	r1, [pc, #168]	; 22360 <_start@@Base+0x182e4>
   222b4:	e1a02000 	mov	r2, r0
   222b8:	e1a00008 	mov	r0, r8
[31m   222bc:	ebff9f05 	bl	9ed8 <sprintf@plt>[0m
   222c0:	e59a3028 	ldr	r3, [sl, #40]	; 0x28
   222c4:	e0803003 	add	r3, r0, r3
--
   243e4:	e51f0bbc 	ldr	r0, [pc, #-3004]	; 23830 <_start@@Base+0x197b4>
   243e8:	ebff96d5 	bl	9f44 <fwrite@plt>
   243ec:	e1a00005 	mov	r0, r5
   243f0:	ebff95f8 	bl	9bd8 <fflush@plt>
   243f4:	e51f0bc4 	ldr	r0, [pc, #-3012]	; 23838 <_start@@Base+0x197bc>
   243f8:	ebff9754 	bl	a150 <_start@@Base+0xd4>
   243fc:	e2509000 	subs	r9, r0, #0
   24400:	0a00048b 	beq	25634 <_start@@Base+0x1b5b8>
   24404:	e51f1bd8 	ldr	r1, [pc, #-3032]	; 23834 <_start@@Base+0x197b8>
   24408:	ebff96a9 	bl	9eb4 <strcmp@plt>
   2440c:	e3500000 	cmp	r0, #0
   24410:	1a000184 	bne	24a28 <_start@@Base+0x1a9ac>
   24414:	e51f4b70 	ldr	r4, [pc, #-2928]	; 238ac <_start@@Base+0x19830>
   24418:	e3a03001 	mov	r3, #1
   2441c:	e5843e7c 	str	r3, [r4, #3708]	; 0xe7c
   24420:	e28d7a01 	add	r7, sp, #4096	; 0x1000
   24424:	e5942e7c 	ldr	r2, [r4, #3708]	; 0xe7c
   24428:	e2877030 	add	r7, r7, #48	; 0x30
   2442c:	e51f1bb8 	ldr	r1, [pc, #-3000]	; 2387c <_start@@Base+0x19800>
   24430:	e1a00007 	mov	r0, r7
[31m   24434:	ebff96a7 	bl	9ed8 <sprintf@plt>[0m
   24438:	e1a01007 	mov	r1, r7
   2443c:	e51f0c0c 	ldr	r0, [pc, #-3084]	; 23838 <_start@@Base+0x197bc>
   24440:	ebff962c 	bl	9cf8 <nvram_set@plt>
   24444:	e1a02009 	mov	r2, r9
   24448:	e51f1c14 	ldr	r1, [pc, #-3092]	; 2383c <_start@@Base+0x197c0>
   2444c:	e1a00005 	mov	r0, r5
   24450:	e51f9bac 	ldr	r9, [pc, #-2988]	; 238ac <_start@@Base+0x19830>
   24454:	ebff9606 	bl	9c74 <fprintf@plt>
   24458:	e1a00005 	mov	r0, r5
   2445c:	ebff95dd 	bl	9bd8 <fflush@plt>
   24460:	e2860004 	add	r0, r6, #4
   24464:	e51f1c2c 	ldr	r1, [pc, #-3116]	; 23840 <_start@@Base+0x197c4>
   24468:	e5942e7c 	ldr	r2, [r4, #3708]	; 0xe7c
[31m   2446c:	ebff9699 	bl	9ed8 <sprintf@plt>[0m
   24470:	e594be7c 	ldr	fp, [r4, #3708]	; 0xe7c
   24474:	e2807004 	add	r7, r0, #4
--
   244c8:	ebff969d 	bl	9f44 <fwrite@plt>
   244cc:	e1a00005 	mov	r0, r5
   244d0:	e28d4c13 	add	r4, sp, #4864	; 0x1300
   244d4:	ebff95bf 	bl	9bd8 <fflush@plt>
   244d8:	e51f1c48 	ldr	r1, [pc, #-3144]	; 23898 <_start@@Base+0x1981c>
   244dc:	e2844018 	add	r4, r4, #24
   244e0:	e51f0ca4 	ldr	r0, [pc, #-3236]	; 23844 <_start@@Base+0x197c8>
   244e4:	e28d9c13 	add	r9, sp, #4864	; 0x1300
   244e8:	ebff9602 	bl	9cf8 <nvram_set@plt>
   244ec:	e51f0cac 	ldr	r0, [pc, #-3244]	; 23848 <_start@@Base+0x197cc>
   244f0:	e2899008 	add	r9, r9, #8
   244f4:	ebff9650 	bl	9e3c <nvram_get@plt>
   244f8:	e3500000 	cmp	r0, #0
   244fc:	e51f1cb8 	ldr	r1, [pc, #-3256]	; 2384c <_start@@Base+0x197d0>
   24500:	11a01000 	movne	r1, r0
   24504:	e51f0cb4 	ldr	r0, [pc, #-3252]	; 23858 <_start@@Base+0x197dc>
   24508:	ebff9549 	bl	9a34 <strcpy@plt>
   2450c:	e0860007 	add	r0, r6, r7
   24510:	e51f1cc8 	ldr	r1, [pc, #-3272]	; 23850 <_start@@Base+0x197d4>
   24514:	e3a02001 	mov	r2, #1
[31m   24518:	ebff966e 	bl	9ed8 <sprintf@plt>[0m
   2451c:	e51f1cd0 	ldr	r1, [pc, #-3280]	; 23854 <_start@@Base+0x197d8>
   24520:	e1a0a000 	mov	sl, r0
   24524:	e51f2cd4 	ldr	r2, [pc, #-3284]	; 23858 <_start@@Base+0x197dc>
   24528:	e1a00004 	mov	r0, r4
[31m   2452c:	ebff9669 	bl	9ed8 <sprintf@plt>[0m
   24530:	e1a01009 	mov	r1, r9
   24534:	e1a00004 	mov	r0, r4
   24538:	e3a02010 	mov	r2, #16
   2453c:	ebff9632 	bl	9e0c <nvifname_to_osifname@plt>
   24540:	e08a0007 	add	r0, sl, r7
   24544:	e51f1cf0 	ldr	r1, [pc, #-3312]	; 2385c <_start@@Base+0x197e0>
   24548:	e1a02009 	mov	r2, r9
   2454c:	e0860000 	add	r0, r6, r0
[31m   24550:	ebff9660 	bl	9ed8 <sprintf@plt>[0m
   24554:	e1a00006 	mov	r0, r6
   24558:	ebffd928 	bl	1aa00 <_start@@Base+0x10984>
--
   24c08:	e3a01001 	mov	r1, #1
   24c0c:	e3a02015 	mov	r2, #21
   24c10:	e1a03005 	mov	r3, r5
   24c14:	e59f4af4 	ldr	r4, [pc, #2804]	; 25710 <_start@@Base+0x1b694>
   24c18:	e59f0ad8 	ldr	r0, [pc, #2776]	; 256f8 <_start@@Base+0x1b67c>
   24c1c:	ebff94c8 	bl	9f44 <fwrite@plt>
   24c20:	e1a00005 	mov	r0, r5
   24c24:	ebff93eb 	bl	9bd8 <fflush@plt>
   24c28:	e3a0c003 	mov	ip, #3
   24c2c:	e1a03005 	mov	r3, r5
   24c30:	e584ce7c 	str	ip, [r4, #3708]	; 0xe7c
   24c34:	e3a01001 	mov	r1, #1
   24c38:	e3a02024 	mov	r2, #36	; 0x24
   24c3c:	e59f0b30 	ldr	r0, [pc, #2864]	; 25774 <_start@@Base+0x1b6f8>
   24c40:	ebff94bf 	bl	9f44 <fwrite@plt>
   24c44:	e1a00005 	mov	r0, r5
   24c48:	ebff93e2 	bl	9bd8 <fflush@plt>
   24c4c:	e59f1b24 	ldr	r1, [pc, #2852]	; 25778 <_start@@Base+0x1b6fc>
   24c50:	e2860004 	add	r0, r6, #4
   24c54:	e5942e7c 	ldr	r2, [r4, #3708]	; 0xe7c
[31m   24c58:	ebff949e 	bl	9ed8 <sprintf@plt>[0m
   24c5c:	e1a01006 	mov	r1, r6
   24c60:	e2802004 	add	r2, r0, #4
   24c64:	e1a00005 	mov	r0, r5
   24c68:	ebff9dc3 	bl	c37c <_start@@Base+0x2300>
   24c6c:	e3700001 	cmn	r0, #1
   24c70:	e1a07000 	mov	r7, r0
   24c74:	0afff7ef 	beq	22c38 <_start@@Base+0x18bbc>
   24c78:	e59f0afc 	ldr	r0, [pc, #2812]	; 2577c <_start@@Base+0x1b700>
   24c7c:	ebff9533 	bl	a150 <_start@@Base+0xd4>
   24c80:	e2501000 	subs	r1, r0, #0
   24c84:	0a000016 	beq	24ce4 <_start@@Base+0x1ac68>
   24c88:	e5d13000 	ldrb	r3, [r1]
   24c8c:	e3530000 	cmp	r3, #0
   24c90:	1a00003d 	bne	24d8c <_start@@Base+0x1ad10>
   24c94:	e59f3ae4 	ldr	r3, [pc, #2788]	; 25780 <_start@@Base+0x1b704>
   24c98:	e3a01002 	mov	r1, #2
   24c9c:	e1a02001 	mov	r2, r1
   24ca0:	e5841e80 	str	r1, [r4, #3712]	; 0xe80
   24ca4:	e8930003 	ldm	r3, {r0, r1}
   24ca8:	e88a0003 	stm	sl, {r0, r1}
   24cac:	e0860007 	add	r0, r6, r7
   24cb0:	e59f1acc 	ldr	r1, [pc, #2764]	; 25784 <_start@@Base+0x1b708>
[31m   24cb4:	ebff9487 	bl	9ed8 <sprintf@plt>[0m
   24cb8:	e0877000 	add	r7, r7, r0
   24cbc:	e0860007 	add	r0, r6, r7
   24cc0:	e59f1ac0 	ldr	r1, [pc, #2752]	; 25788 <_start@@Base+0x1b70c>
   24cc4:	e1a0200a 	mov	r2, sl
[31m   24cc8:	ebff9482 	bl	9ed8 <sprintf@plt>[0m
   24ccc:	e0807007 	add	r7, r0, r7
   24cd0:	e59f1ab4 	ldr	r1, [pc, #2740]	; 2578c <_start@@Base+0x1b710>
   24cd4:	e0860007 	add	r0, r6, r7
   24cd8:	e5942e80 	ldr	r2, [r4, #3712]	; 0xe80
[31m   24cdc:	ebff947d 	bl	9ed8 <sprintf@plt>[0m
   24ce0:	e0877000 	add	r7, r7, r0
   24ce4:	e1a03005 	mov	r3, r5
--
   24cf4:	ebff9492 	bl	9f44 <fwrite@plt>
   24cf8:	e1a00005 	mov	r0, r5
   24cfc:	e28d4c13 	add	r4, sp, #4864	; 0x1300
   24d00:	ebff93b4 	bl	9bd8 <fflush@plt>
   24d04:	e59f1a24 	ldr	r1, [pc, #2596]	; 25730 <_start@@Base+0x1b6b4>
   24d08:	e2844018 	add	r4, r4, #24
   24d0c:	e59f0a80 	ldr	r0, [pc, #2688]	; 25794 <_start@@Base+0x1b718>
   24d10:	e28d9c13 	add	r9, sp, #4864	; 0x1300
   24d14:	ebff93f7 	bl	9cf8 <nvram_set@plt>
   24d18:	e59f0a78 	ldr	r0, [pc, #2680]	; 25798 <_start@@Base+0x1b71c>
   24d1c:	e2899008 	add	r9, r9, #8
   24d20:	ebff9445 	bl	9e3c <nvram_get@plt>
   24d24:	e3500000 	cmp	r0, #0
   24d28:	e59f19f4 	ldr	r1, [pc, #2548]	; 25724 <_start@@Base+0x1b6a8>
   24d2c:	11a01000 	movne	r1, r0
   24d30:	e59f0a64 	ldr	r0, [pc, #2660]	; 2579c <_start@@Base+0x1b720>
   24d34:	ebff933e 	bl	9a34 <strcpy@plt>
   24d38:	e0860007 	add	r0, r6, r7
   24d3c:	e59f1a5c 	ldr	r1, [pc, #2652]	; 257a0 <_start@@Base+0x1b724>
   24d40:	e3a02001 	mov	r2, #1
[31m   24d44:	ebff9463 	bl	9ed8 <sprintf@plt>[0m
   24d48:	e59f1a54 	ldr	r1, [pc, #2644]	; 257a4 <_start@@Base+0x1b728>
   24d4c:	e1a0a000 	mov	sl, r0
   24d50:	e59f2a44 	ldr	r2, [pc, #2628]	; 2579c <_start@@Base+0x1b720>
   24d54:	e1a00004 	mov	r0, r4
[31m   24d58:	ebff945e 	bl	9ed8 <sprintf@plt>[0m
   24d5c:	e1a01009 	mov	r1, r9
   24d60:	e1a00004 	mov	r0, r4
   24d64:	e3a02010 	mov	r2, #16
   24d68:	ebff9427 	bl	9e0c <nvifname_to_osifname@plt>
   24d6c:	e08a0007 	add	r0, sl, r7
   24d70:	e59f1a30 	ldr	r1, [pc, #2608]	; 257a8 <_start@@Base+0x1b72c>
   24d74:	e0860000 	add	r0, r6, r0
   24d78:	e1a02009 	mov	r2, r9
[31m   24d7c:	ebff9455 	bl	9ed8 <sprintf@plt>[0m
   24d80:	e1a00006 	mov	r0, r6
   24d84:	ebffd71d 	bl	1aa00 <_start@@Base+0x10984>
--
   24dfc:	e5d110f8 	ldrb	r1, [r1, #248]	; 0xf8
   24e00:	e58d2014 	str	r2, [sp, #20]
   24e04:	e5db20f9 	ldrb	r2, [fp, #249]	; 0xf9
   24e08:	e59db014 	ldr	fp, [sp, #20]
   24e0c:	e00cb00b 	and	fp, ip, fp
   24e10:	e000b00b 	and	fp, r0, fp
   24e14:	e001b00b 	and	fp, r1, fp
   24e18:	e002b00b 	and	fp, r2, fp
   24e1c:	e35b00ff 	cmp	fp, #255	; 0xff
   24e20:	e58db014 	str	fp, [sp, #20]
   24e24:	0a000030 	beq	24eec <_start@@Base+0x1ae70>
   24e28:	e18e3003 	orr	r3, lr, r3
   24e2c:	e18cc003 	orr	ip, ip, r3
   24e30:	e180000c 	orr	r0, r0, ip
   24e34:	e1811000 	orr	r1, r1, r0
   24e38:	e1921001 	orrs	r1, r2, r1
   24e3c:	0a00002a 	beq	24eec <_start@@Base+0x1ae70>
   24e40:	e0860007 	add	r0, r6, r7
   24e44:	e59f1964 	ldr	r1, [pc, #2404]	; 257b0 <_start@@Base+0x1b734>
   24e48:	e1a02009 	mov	r2, r9
[31m   24e4c:	ebff9421 	bl	9ed8 <sprintf@plt>[0m
   24e50:	e0877000 	add	r7, r7, r0
   24e54:	eaffff98 	b	24cbc <_start@@Base+0x1ac40>
--
   24e7c:	e59f1934 	ldr	r1, [pc, #2356]	; 257b8 <_start@@Base+0x1b73c>
   24e80:	e58d0010 	str	r0, [sp, #16]
   24e84:	ebff940a 	bl	9eb4 <strcmp@plt>
   24e88:	e3500000 	cmp	r0, #0
   24e8c:	e59d3010 	ldr	r3, [sp, #16]
   24e90:	0589be80 	streq	fp, [r9, #3712]	; 0xe80
   24e94:	0a00000e 	beq	24ed4 <_start@@Base+0x1ae58>
   24e98:	e1a00003 	mov	r0, r3
   24e9c:	e59f1918 	ldr	r1, [pc, #2328]	; 257bc <_start@@Base+0x1b740>
   24ea0:	ebff9403 	bl	9eb4 <strcmp@plt>
   24ea4:	e3500000 	cmp	r0, #0
   24ea8:	1a000009 	bne	24ed4 <_start@@Base+0x1ae58>
   24eac:	e59f38cc 	ldr	r3, [pc, #2252]	; 25780 <_start@@Base+0x1b704>
   24eb0:	e3a01002 	mov	r1, #2
   24eb4:	e1a02001 	mov	r2, r1
   24eb8:	e5891e80 	str	r1, [r9, #3712]	; 0xe80
   24ebc:	e8930003 	ldm	r3, {r0, r1}
   24ec0:	e88a0003 	stm	sl, {r0, r1}
   24ec4:	e0860007 	add	r0, r6, r7
   24ec8:	e59f18b4 	ldr	r1, [pc, #2228]	; 25784 <_start@@Base+0x1b708>
[31m   24ecc:	ebff9401 	bl	9ed8 <sprintf@plt>[0m
   24ed0:	e0877000 	add	r7, r7, r0
   24ed4:	e0860007 	add	r0, r6, r7
   24ed8:	e59f18ac 	ldr	r1, [pc, #2220]	; 2578c <_start@@Base+0x1b710>
   24edc:	e5942e80 	ldr	r2, [r4, #3712]	; 0xe80
[31m   24ee0:	ebff93fc 	bl	9ed8 <sprintf@plt>[0m
   24ee4:	e0877000 	add	r7, r7, r0
   24ee8:	eafffd64 	b	24480 <_start@@Base+0x1a404>
--
   25200:	ea000002 	b	25210 <_start@@Base+0x1b194>
   25204:	ebff9255 	bl	9b60 <sleep@plt>
   25208:	e3560003 	cmp	r6, #3
   2520c:	0a000008 	beq	25234 <_start@@Base+0x1b1b8>
   25210:	e59f05b8 	ldr	r0, [pc, #1464]	; 257d0 <_start@@Base+0x1b754>
   25214:	e2866001 	add	r6, r6, #1
   25218:	ebff9307 	bl	9e3c <nvram_get@plt>
   2521c:	e2503000 	subs	r3, r0, #0
   25220:	e3a00001 	mov	r0, #1
   25224:	0afffff6 	beq	25204 <_start@@Base+0x1b188>
   25228:	e5d33000 	ldrb	r3, [r3]
   2522c:	e3530000 	cmp	r3, #0
   25230:	1afffff3 	bne	25204 <_start@@Base+0x1b188>
   25234:	e28d6c11 	add	r6, sp, #4352	; 0x1100
   25238:	e1a02004 	mov	r2, r4
   2523c:	e2866030 	add	r6, r6, #48	; 0x30
   25240:	e1a03007 	mov	r3, r7
   25244:	e59f15cc 	ldr	r1, [pc, #1484]	; 25818 <_start@@Base+0x1b79c>
   25248:	e1a00006 	mov	r0, r6
   2524c:	e58da000 	str	sl, [sp]
[31m   25250:	ebff9320 	bl	9ed8 <sprintf@plt>[0m
   25254:	e1a01006 	mov	r1, r6
   25258:	e59f0570 	ldr	r0, [pc, #1392]	; 257d0 <_start@@Base+0x1b754>
--
   25260:	e59f15b4 	ldr	r1, [pc, #1460]	; 2581c <_start@@Base+0x1b7a0>
   25264:	e59f04c8 	ldr	r0, [pc, #1224]	; 25734 <_start@@Base+0x1b6b8>
   25268:	ebff92a2 	bl	9cf8 <nvram_set@plt>
   2526c:	e59f05ac 	ldr	r0, [pc, #1452]	; 25820 <_start@@Base+0x1b7a4>
   25270:	ebff92f1 	bl	9e3c <nvram_get@plt>
   25274:	e3500000 	cmp	r0, #0
   25278:	0afffe07 	beq	24a9c <_start@@Base+0x1aa20>
   2527c:	e59f15a0 	ldr	r1, [pc, #1440]	; 25824 <_start@@Base+0x1b7a8>
   25280:	ebff930b 	bl	9eb4 <strcmp@plt>
   25284:	e3500000 	cmp	r0, #0
   25288:	1afffe03 	bne	24a9c <_start@@Base+0x1aa20>
   2528c:	e59f04e8 	ldr	r0, [pc, #1256]	; 2577c <_start@@Base+0x1b700>
   25290:	ebff92f5 	bl	9e6c <nvram_unset@plt>
   25294:	e59f1494 	ldr	r1, [pc, #1172]	; 25730 <_start@@Base+0x1b6b4>
   25298:	e59f0588 	ldr	r0, [pc, #1416]	; 25828 <_start@@Base+0x1b7ac>
   2529c:	ebff9295 	bl	9cf8 <nvram_set@plt>
   252a0:	eafffdfd 	b	24a9c <_start@@Base+0x1aa20>
   252a4:	e2860004 	add	r0, r6, #4
   252a8:	e59f14f0 	ldr	r1, [pc, #1264]	; 257a0 <_start@@Base+0x1b724>
   252ac:	e3a02002 	mov	r2, #2
[31m   252b0:	ebff9308 	bl	9ed8 <sprintf@plt>[0m
   252b4:	e2800004 	add	r0, r0, #4
   252b8:	e1a02004 	mov	r2, r4
   252bc:	e59f14b4 	ldr	r1, [pc, #1204]	; 25778 <_start@@Base+0x1b6fc>
   252c0:	e0860000 	add	r0, r6, r0
[31m   252c4:	ebff9303 	bl	9ed8 <sprintf@plt>[0m
   252c8:	e1a00006 	mov	r0, r6
   252cc:	ebffd5cb 	bl	1aa00 <_start@@Base+0x10984>
--
   2532c:	eafff641 	b	22c38 <_start@@Base+0x18bbc>
   25330:	e3a01001 	mov	r1, #1
   25334:	e3a02018 	mov	r2, #24
   25338:	e1a03005 	mov	r3, r5
   2533c:	e59f04f4 	ldr	r0, [pc, #1268]	; 25838 <_start@@Base+0x1b7bc>
   25340:	ebff92ff 	bl	9f44 <fwrite@plt>
   25344:	e1a00005 	mov	r0, r5
   25348:	ebff9222 	bl	9bd8 <fflush@plt>
   2534c:	eafff639 	b	22c38 <_start@@Base+0x18bbc>
   25350:	e59f04e4 	ldr	r0, [pc, #1252]	; 2583c <_start@@Base+0x1b7c0>
   25354:	ebff937d 	bl	a150 <_start@@Base+0xd4>
   25358:	e2501000 	subs	r1, r0, #0
   2535c:	0a000003 	beq	25370 <_start@@Base+0x1b2f4>
   25360:	e1a0000a 	mov	r0, sl
   25364:	ebff9d0b 	bl	c798 <_start@@Base+0x271c>
   25368:	e3500000 	cmp	r0, #0
   2536c:	1a00000a 	bne	2539c <_start@@Base+0x1b320>
   25370:	e0860007 	add	r0, r6, r7
   25374:	e59f14c4 	ldr	r1, [pc, #1220]	; 25840 <_start@@Base+0x1b7c4>
   25378:	e1a0200a 	mov	r2, sl
[31m   2537c:	ebff92d5 	bl	9ed8 <sprintf@plt>[0m
   25380:	e0807007 	add	r7, r0, r7
   25384:	e59f1400 	ldr	r1, [pc, #1024]	; 2578c <_start@@Base+0x1b710>
   25388:	e0860007 	add	r0, r6, r7
   2538c:	e3a02001 	mov	r2, #1
[31m   25390:	ebff92d0 	bl	9ed8 <sprintf@plt>[0m
   25394:	e0877000 	add	r7, r7, r0
   25398:	eafffc3f 	b	2449c <_start@@Base+0x1a420>
   2539c:	e3a01001 	mov	r1, #1
   253a0:	e3a0201c 	mov	r2, #28
   253a4:	e1a03005 	mov	r3, r5
   253a8:	e59f0494 	ldr	r0, [pc, #1172]	; 25844 <_start@@Base+0x1b7c8>
   253ac:	ebff92e4 	bl	9f44 <fwrite@plt>
   253b0:	e1a00005 	mov	r0, r5
   253b4:	ebff9207 	bl	9bd8 <fflush@plt>
   253b8:	eafff61e 	b	22c38 <_start@@Base+0x18bbc>
   253bc:	e59f13c8 	ldr	r1, [pc, #968]	; 2578c <_start@@Base+0x1b710>
   253c0:	e3a02002 	mov	r2, #2
   253c4:	e2860004 	add	r0, r6, #4
   253c8:	e59f4354 	ldr	r4, [pc, #852]	; 25724 <_start@@Base+0x1b6a8>
[31m   253cc:	ebff92c1 	bl	9ed8 <sprintf@plt>[0m
   253d0:	e1a03005 	mov	r3, r5
   253d4:	e3a02002 	mov	r2, #2
--
   253e4:	e28dac13 	add	sl, sp, #4864	; 0x1300
   253e8:	ebff92d5 	bl	9f44 <fwrite@plt>
   253ec:	e1a00005 	mov	r0, r5
   253f0:	e28aa018 	add	sl, sl, #24
   253f4:	ebff91f7 	bl	9bd8 <fflush@plt>
   253f8:	e59f1330 	ldr	r1, [pc, #816]	; 25730 <_start@@Base+0x1b6b4>
   253fc:	e28d9c13 	add	r9, sp, #4864	; 0x1300
   25400:	e59f038c 	ldr	r0, [pc, #908]	; 25794 <_start@@Base+0x1b718>
   25404:	e2899008 	add	r9, r9, #8
   25408:	ebff923a 	bl	9cf8 <nvram_set@plt>
   2540c:	e59f0384 	ldr	r0, [pc, #900]	; 25798 <_start@@Base+0x1b71c>
   25410:	ebff9289 	bl	9e3c <nvram_get@plt>
   25414:	e3500000 	cmp	r0, #0
   25418:	11a01000 	movne	r1, r0
   2541c:	01a01004 	moveq	r1, r4
   25420:	e59f0374 	ldr	r0, [pc, #884]	; 2579c <_start@@Base+0x1b720>
   25424:	ebff9182 	bl	9a34 <strcpy@plt>
   25428:	e0860007 	add	r0, r6, r7
   2542c:	e59f1344 	ldr	r1, [pc, #836]	; 25778 <_start@@Base+0x1b6fc>
   25430:	e3a02001 	mov	r2, #1
[31m   25434:	ebff92a7 	bl	9ed8 <sprintf@plt>[0m
   25438:	e0807007 	add	r7, r0, r7
   2543c:	e59f135c 	ldr	r1, [pc, #860]	; 257a0 <_start@@Base+0x1b724>
   25440:	e0860007 	add	r0, r6, r7
   25444:	e3a02001 	mov	r2, #1
[31m   25448:	ebff92a2 	bl	9ed8 <sprintf@plt>[0m
   2544c:	e59f1350 	ldr	r1, [pc, #848]	; 257a4 <_start@@Base+0x1b728>
   25450:	e0877000 	add	r7, r7, r0
   25454:	e59f2340 	ldr	r2, [pc, #832]	; 2579c <_start@@Base+0x1b720>
   25458:	e1a0000a 	mov	r0, sl
[31m   2545c:	ebff929d 	bl	9ed8 <sprintf@plt>[0m
   25460:	e1a01009 	mov	r1, r9
   25464:	e3a02010 	mov	r2, #16
   25468:	e1a0000a 	mov	r0, sl
   2546c:	ebff9266 	bl	9e0c <nvifname_to_osifname@plt>
   25470:	e0860007 	add	r0, r6, r7
   25474:	e59f1308 	ldr	r1, [pc, #776]	; 25784 <_start@@Base+0x1b708>
   25478:	e3a02002 	mov	r2, #2
[31m   2547c:	ebff9295 	bl	9ed8 <sprintf@plt>[0m
   25480:	e0877000 	add	r7, r7, r0
   25484:	e1a02009 	mov	r2, r9
   25488:	e59f1318 	ldr	r1, [pc, #792]	; 257a8 <_start@@Base+0x1b72c>
   2548c:	e0860007 	add	r0, r6, r7
[31m   25490:	ebff9290 	bl	9ed8 <sprintf@plt>[0m
   25494:	e0877000 	add	r7, r7, r0
   25498:	e59f03a8 	ldr	r0, [pc, #936]	; 25848 <_start@@Base+0x1b7cc>
   2549c:	ebff9266 	bl	9e3c <nvram_get@plt>
   254a0:	e0863007 	add	r3, r6, r7
   254a4:	e3500000 	cmp	r0, #0
   254a8:	11a02000 	movne	r2, r0
   254ac:	01a02004 	moveq	r2, r4
   254b0:	e59f1394 	ldr	r1, [pc, #916]	; 2584c <_start@@Base+0x1b7d0>
   254b4:	e1a00003 	mov	r0, r3
[31m   254b8:	ebff9286 	bl	9ed8 <sprintf@plt>[0m
   254bc:	e0807007 	add	r7, r0, r7
   254c0:	e59f0388 	ldr	r0, [pc, #904]	; 25850 <_start@@Base+0x1b7d4>
   254c4:	ebff925c 	bl	9e3c <nvram_get@plt>
   254c8:	e0863007 	add	r3, r6, r7
   254cc:	e3500000 	cmp	r0, #0
   254d0:	11a02000 	movne	r2, r0
   254d4:	01a02004 	moveq	r2, r4
   254d8:	e1a00003 	mov	r0, r3
   254dc:	e59f1370 	ldr	r1, [pc, #880]	; 25854 <_start@@Base+0x1b7d8>
[31m   254e0:	ebff927c 	bl	9ed8 <sprintf@plt>[0m
   254e4:	e0807007 	add	r7, r0, r7
   254e8:	e59f0368 	ldr	r0, [pc, #872]	; 25858 <_start@@Base+0x1b7dc>
   254ec:	ebff9252 	bl	9e3c <nvram_get@plt>
   254f0:	e0867007 	add	r7, r6, r7
   254f4:	e3500000 	cmp	r0, #0
   254f8:	11a02000 	movne	r2, r0
   254fc:	01a02004 	moveq	r2, r4
   25500:	e59f1354 	ldr	r1, [pc, #852]	; 2585c <_start@@Base+0x1b7e0>
   25504:	e1a00007 	mov	r0, r7
[31m   25508:	ebff9272 	bl	9ed8 <sprintf@plt>[0m
   2550c:	e1a01006 	mov	r1, r6
   25510:	e59f0348 	ldr	r0, [pc, #840]	; 25860 <_start@@Base+0x1b7e4>
   25514:	ebff9152 	bl	9a64 <printf@plt>
   25518:	eafffd1e 	b	24998 <_start@@Base+0x1a91c>
   2551c:	e2860004 	add	r0, r6, #4
   25520:	e59f1264 	ldr	r1, [pc, #612]	; 2578c <_start@@Base+0x1b710>
   25524:	e3a02002 	mov	r2, #2
[31m   25528:	ebff926a 	bl	9ed8 <sprintf@plt>[0m
   2552c:	e3540000 	cmp	r4, #0
   25530:	e2807004 	add	r7, r0, #4
   25534:	0a000008 	beq	2555c <_start@@Base+0x1b4e0>
   25538:	e59f31d0 	ldr	r3, [pc, #464]	; 25710 <_start@@Base+0x1b694>
   2553c:	e5d33ea8 	ldrb	r3, [r3, #3752]	; 0xea8
   25540:	e3530000 	cmp	r3, #0
   25544:	0a000004 	beq	2555c <_start@@Base+0x1b4e0>
   25548:	e0860007 	add	r0, r6, r7
   2554c:	e59f125c 	ldr	r1, [pc, #604]	; 257b0 <_start@@Base+0x1b734>
   25550:	e59f230c 	ldr	r2, [pc, #780]	; 25864 <_start@@Base+0x1b7e8>
[31m   25554:	ebff925f 	bl	9ed8 <sprintf@plt>[0m
   25558:	e0877000 	add	r7, r7, r0
   2555c:	e2874017 	add	r4, r7, #23
   25560:	e0860007 	add	r0, r6, r7
   25564:	e59f12fc 	ldr	r1, [pc, #764]	; 25868 <_start@@Base+0x1b7ec>
   25568:	e3a02018 	mov	r2, #24
   2556c:	ebff9166 	bl	9b0c <memcpy@plt>
   25570:	e0860004 	add	r0, r6, r4
   25574:	e59f11fc 	ldr	r1, [pc, #508]	; 25778 <_start@@Base+0x1b6fc>
   25578:	e3a02003 	mov	r2, #3
   2557c:	e28d7c13 	add	r7, sp, #4864	; 0x1300
[31m   25580:	ebff9254 	bl	9ed8 <sprintf@plt>[0m
   25584:	e1a03005 	mov	r3, r5
   25588:	e3a02002 	mov	r2, #2
--
   25594:	e59f01f4 	ldr	r0, [pc, #500]	; 25790 <_start@@Base+0x1b714>
   25598:	e2877018 	add	r7, r7, #24
   2559c:	ebff9268 	bl	9f44 <fwrite@plt>
   255a0:	e1a00005 	mov	r0, r5
   255a4:	e28dac13 	add	sl, sp, #4864	; 0x1300
   255a8:	ebff918a 	bl	9bd8 <fflush@plt>
   255ac:	e59f117c 	ldr	r1, [pc, #380]	; 25730 <_start@@Base+0x1b6b4>
   255b0:	e28aa008 	add	sl, sl, #8
   255b4:	e59f01d8 	ldr	r0, [pc, #472]	; 25794 <_start@@Base+0x1b718>
   255b8:	ebff91ce 	bl	9cf8 <nvram_set@plt>
   255bc:	e59f01d4 	ldr	r0, [pc, #468]	; 25798 <_start@@Base+0x1b71c>
   255c0:	ebff921d 	bl	9e3c <nvram_get@plt>
   255c4:	e3500000 	cmp	r0, #0
   255c8:	e59f1154 	ldr	r1, [pc, #340]	; 25724 <_start@@Base+0x1b6a8>
   255cc:	11a01000 	movne	r1, r0
   255d0:	e59f01c4 	ldr	r0, [pc, #452]	; 2579c <_start@@Base+0x1b720>
   255d4:	ebff9116 	bl	9a34 <strcpy@plt>
   255d8:	e0860004 	add	r0, r6, r4
   255dc:	e59f11bc 	ldr	r1, [pc, #444]	; 257a0 <_start@@Base+0x1b724>
   255e0:	e3a02001 	mov	r2, #1
[31m   255e4:	ebff923b 	bl	9ed8 <sprintf@plt>[0m
   255e8:	e59f11b4 	ldr	r1, [pc, #436]	; 257a4 <_start@@Base+0x1b728>
   255ec:	e0804004 	add	r4, r0, r4
   255f0:	e59f21a4 	ldr	r2, [pc, #420]	; 2579c <_start@@Base+0x1b720>
   255f4:	e1a00007 	mov	r0, r7
[31m   255f8:	ebff9236 	bl	9ed8 <sprintf@plt>[0m
   255fc:	e1a0100a 	mov	r1, sl
   25600:	e1a00007 	mov	r0, r7
   25604:	e3a02010 	mov	r2, #16
   25608:	ebff91ff 	bl	9e0c <nvifname_to_osifname@plt>
   2560c:	e0860004 	add	r0, r6, r4
   25610:	e59f116c 	ldr	r1, [pc, #364]	; 25784 <_start@@Base+0x1b708>
   25614:	e3a02002 	mov	r2, #2
[31m   25618:	ebff922e 	bl	9ed8 <sprintf@plt>[0m
   2561c:	e0840000 	add	r0, r4, r0
   25620:	e59f1180 	ldr	r1, [pc, #384]	; 257a8 <_start@@Base+0x1b72c>
   25624:	e0860000 	add	r0, r6, r0
   25628:	e1a0200a 	mov	r2, sl
[31m   2562c:	ebff9229 	bl	9ed8 <sprintf@plt>[0m
   25630:	eafffcd8 	b	24998 <_start@@Base+0x1a91c>
   25634:	e3a01001 	mov	r1, #1
   25638:	e3a0201a 	mov	r2, #26
   2563c:	e1a03005 	mov	r3, r5
   25640:	e59f0224 	ldr	r0, [pc, #548]	; 2586c <_start@@Base+0x1b7f0>
   25644:	ebff923e 	bl	9f44 <fwrite@plt>
   25648:	e1a00005 	mov	r0, r5
   2564c:	ebff9161 	bl	9bd8 <fflush@plt>
   25650:	eafff578 	b	22c38 <_start@@Base+0x18bbc>
   25654:	e35a0000 	cmp	sl, #0
   25658:	0afffcea 	beq	24a08 <_start@@Base+0x1a98c>
   2565c:	e5943e7c 	ldr	r3, [r4, #3708]	; 0xe7c
   25660:	e584ae6c 	str	sl, [r4, #3692]	; 0xe6c
   25664:	e2433004 	sub	r3, r3, #4
   25668:	e3530001 	cmp	r3, #1
   2566c:	9a000015 	bls	256c8 <_start@@Base+0x1b64c>
   25670:	e28a2001 	add	r2, sl, #1
   25674:	e0860007 	add	r0, r6, r7
   25678:	e59f11cc 	ldr	r1, [pc, #460]	; 2584c <_start@@Base+0x1b7d0>
[31m   2567c:	ebff9215 	bl	9ed8 <sprintf@plt>[0m
   25680:	e28d1d4b 	add	r1, sp, #4800	; 0x12c0
   25684:	e0807007 	add	r7, r0, r7
   25688:	e2811034 	add	r1, r1, #52	; 0x34
   2568c:	e28a0023 	add	r0, sl, #35	; 0x23
   25690:	ebff920a 	bl	9ec0 <ether_etoa@plt>
   25694:	e59f11b8 	ldr	r1, [pc, #440]	; 25854 <_start@@Base+0x1b7d8>
   25698:	e1a02000 	mov	r2, r0
   2569c:	e0860007 	add	r0, r6, r7
[31m   256a0:	ebff920c 	bl	9ed8 <sprintf@plt>[0m
   256a4:	e0877000 	add	r7, r7, r0
   256a8:	e59f11c0 	ldr	r1, [pc, #448]	; 25870 <_start@@Base+0x1b7f4>
   256ac:	e0860007 	add	r0, r6, r7
   256b0:	e5da2035 	ldrb	r2, [sl, #53]	; 0x35
[31m   256b4:	ebff9207 	bl	9ed8 <sprintf@plt>[0m
   256b8:	e0877000 	add	r7, r7, r0
   256bc:	eafffb7d 	b	244b8 <_start@@Base+0x1a43c>
   256c0:	e59fa050 	ldr	sl, [pc, #80]	; 25718 <_start@@Base+0x1b69c>
   256c4:	eaffffe4 	b	2565c <_start@@Base+0x1b5e0>
   256c8:	e5dac036 	ldrb	ip, [sl, #54]	; 0x36
   256cc:	e0860007 	add	r0, r6, r7
   256d0:	e59f319c 	ldr	r3, [pc, #412]	; 25874 <_start@@Base+0x1b7f8>
   256d4:	e59f219c 	ldr	r2, [pc, #412]	; 25878 <_start@@Base+0x1b7fc>
   256d8:	e35c0000 	cmp	ip, #0
   256dc:	e59f1198 	ldr	r1, [pc, #408]	; 2587c <_start@@Base+0x1b800>
   256e0:	11a02003 	movne	r2, r3
[31m   256e4:	ebff91fb 	bl	9ed8 <sprintf@plt>[0m
   256e8:	e0877000 	add	r7, r7, r0
   256ec:	eaffffdf 	b	25670 <_start@@Base+0x1b5f4>
--
   26a98:	e59d31e4 	ldr	r3, [sp, #484]	; 0x1e4
   26a9c:	e1530002 	cmp	r3, r2
   26aa0:	8a000001 	bhi	26aac <_start@@Base+0x1ca30>
   26aa4:	e313001f 	tst	r3, #31
   26aa8:	0a000020 	beq	26b30 <_start@@Base+0x1cab4>
   26aac:	e59f51a0 	ldr	r5, [pc, #416]	; 26c54 <_start@@Base+0x1cbd8>
   26ab0:	ea000000 	b	26ab8 <_start@@Base+0x1ca3c>
   26ab4:	e59f519c 	ldr	r5, [pc, #412]	; 26c58 <_start@@Base+0x1cbdc>
   26ab8:	e5943028 	ldr	r3, [r4, #40]	; 0x28
   26abc:	e3a02020 	mov	r2, #32
   26ac0:	e5940024 	ldr	r0, [r4, #36]	; 0x24
   26ac4:	e59f1190 	ldr	r1, [pc, #400]	; 26c5c <_start@@Base+0x1cbe0>
   26ac8:	e0800003 	add	r0, r0, r3
   26acc:	ebff8c0e 	bl	9b0c <memcpy@plt>
   26ad0:	e5943028 	ldr	r3, [r4, #40]	; 0x28
   26ad4:	e1a01005 	mov	r1, r5
   26ad8:	e5940024 	ldr	r0, [r4, #36]	; 0x24
   26adc:	e283301f 	add	r3, r3, #31
   26ae0:	e0800003 	add	r0, r0, r3
   26ae4:	e5843028 	str	r3, [r4, #40]	; 0x28
[31m   26ae8:	ebff8cfa 	bl	9ed8 <sprintf@plt>[0m
   26aec:	e5943028 	ldr	r3, [r4, #40]	; 0x28
   26af0:	e3a02008 	mov	r2, #8
--
   26ba4:	e59f10c8 	ldr	r1, [pc, #200]	; 26c74 <_start@@Base+0x1cbf8>
   26ba8:	ebff8cc1 	bl	9eb4 <strcmp@plt>
   26bac:	e3500000 	cmp	r0, #0
   26bb0:	1a000015 	bne	26c0c <_start@@Base+0x1cb90>
   26bb4:	e28d8f47 	add	r8, sp, #284	; 0x11c
   26bb8:	e1a0100a 	mov	r1, sl
   26bbc:	e1a00008 	mov	r0, r8
   26bc0:	ebff8b9b 	bl	9a34 <strcpy@plt>
   26bc4:	e59dc1ec 	ldr	ip, [sp, #492]	; 0x1ec
   26bc8:	e1a00006 	mov	r0, r6
   26bcc:	e59d31f0 	ldr	r3, [sp, #496]	; 0x1f0
   26bd0:	e59f105c 	ldr	r1, [pc, #92]	; 26c34 <_start@@Base+0x1cbb8>
   26bd4:	e58dc000 	str	ip, [sp]
   26bd8:	e59dc1e8 	ldr	ip, [sp, #488]	; 0x1e8
   26bdc:	e59d21f4 	ldr	r2, [sp, #500]	; 0x1f4
   26be0:	e58d700c 	str	r7, [sp, #12]
   26be4:	e58dc004 	str	ip, [sp, #4]
   26be8:	e59dc1e4 	ldr	ip, [sp, #484]	; 0x1e4
   26bec:	e58d8010 	str	r8, [sp, #16]
   26bf0:	e58dc008 	str	ip, [sp, #8]
[31m   26bf4:	ebff8cb7 	bl	9ed8 <sprintf@plt>[0m
   26bf8:	e5950000 	ldr	r0, [r5]
   26bfc:	e1a01006 	mov	r1, r6
--
   26e84:	e5950000 	ldr	r0, [r5]
   26e88:	ebff9312 	bl	bad8 <_start@@Base+0x1a5c>
   26e8c:	ebff8caf 	bl	a150 <_start@@Base+0xd4>
   26e90:	e3500000 	cmp	r0, #0
   26e94:	0a000001 	beq	26ea0 <_start@@Base+0x1ce24>
   26e98:	ebff8c41 	bl	9fa4 <atoi@plt>
   26e9c:	e58d0374 	str	r0, [sp, #884]	; 0x374
   26ea0:	e59f042c 	ldr	r0, [pc, #1068]	; 272d4 <_start@@Base+0x1d258>
   26ea4:	e28d6fd9 	add	r6, sp, #868	; 0x364
   26ea8:	ebff8be3 	bl	9e3c <nvram_get@plt>
   26eac:	e59dc37c 	ldr	ip, [sp, #892]	; 0x37c
   26eb0:	e1a00007 	mov	r0, r7
   26eb4:	e59d2384 	ldr	r2, [sp, #900]	; 0x384
   26eb8:	e59d3380 	ldr	r3, [sp, #896]	; 0x380
   26ebc:	e58dc000 	str	ip, [sp]
   26ec0:	e59dc378 	ldr	ip, [sp, #888]	; 0x378
   26ec4:	e59f13e0 	ldr	r1, [pc, #992]	; 272ac <_start@@Base+0x1d230>
   26ec8:	e58dc004 	str	ip, [sp, #4]
   26ecc:	e59dc374 	ldr	ip, [sp, #884]	; 0x374
   26ed0:	e58dc008 	str	ip, [sp, #8]
[31m   26ed4:	ebff8bff 	bl	9ed8 <sprintf@plt>[0m
   26ed8:	e1a01007 	mov	r1, r7
   26edc:	e5950000 	ldr	r0, [r5]
--
   26f1c:	e3500001 	cmp	r0, #1
   26f20:	daffff72 	ble	26cf0 <_start@@Base+0x1cc74>
   26f24:	e0855000 	add	r5, r5, r0
   26f28:	e5553002 	ldrb	r3, [r5, #-2]
   26f2c:	e3530062 	cmp	r3, #98	; 0x62
   26f30:	0a0000b3 	beq	27204 <_start@@Base+0x1d188>
   26f34:	e3530076 	cmp	r3, #118	; 0x76
   26f38:	1affff6c 	bne	26cf0 <_start@@Base+0x1cc74>
   26f3c:	e5553001 	ldrb	r3, [r5, #-1]
   26f40:	e3530069 	cmp	r3, #105	; 0x69
   26f44:	0a0000b5 	beq	27220 <_start@@Base+0x1d1a4>
   26f48:	e353006f 	cmp	r3, #111	; 0x6f
   26f4c:	03a07003 	moveq	r7, #3
   26f50:	1affff66 	bne	26cf0 <_start@@Base+0x1cc74>
   26f54:	e59f0380 	ldr	r0, [pc, #896]	; 272dc <_start@@Base+0x1d260>
   26f58:	e28d5024 	add	r5, sp, #36	; 0x24
   26f5c:	ebff8bb6 	bl	9e3c <nvram_get@plt>
   26f60:	e59f1378 	ldr	r1, [pc, #888]	; 272e0 <_start@@Base+0x1d264>
   26f64:	e1a02000 	mov	r2, r0
   26f68:	e1a00006 	mov	r0, r6
[31m   26f6c:	ebff8bd9 	bl	9ed8 <sprintf@plt>[0m
   26f70:	e1a01006 	mov	r1, r6
   26f74:	e1a00005 	mov	r0, r5
--
   27078:	1afffff9 	bne	27064 <_start@@Base+0x1cfe8>
   2707c:	e59d0018 	ldr	r0, [sp, #24]
   27080:	e28d1fd1 	add	r1, sp, #836	; 0x344
   27084:	e59dc01c 	ldr	ip, [sp, #28]
   27088:	e7810003 	str	r0, [r1, r3]
   2708c:	e28d1fc9 	add	r1, sp, #804	; 0x324
   27090:	e781c003 	str	ip, [r1, r3]
   27094:	eafffff2 	b	27064 <_start@@Base+0x1cfe8>
   27098:	e5943028 	ldr	r3, [r4, #40]	; 0x28
   2709c:	e3a0202b 	mov	r2, #43	; 0x2b
   270a0:	e5940024 	ldr	r0, [r4, #36]	; 0x24
   270a4:	e59f1248 	ldr	r1, [pc, #584]	; 272f4 <_start@@Base+0x1d278>
   270a8:	e0800003 	add	r0, r0, r3
   270ac:	ebff8a96 	bl	9b0c <memcpy@plt>
   270b0:	e5943028 	ldr	r3, [r4, #40]	; 0x28
   270b4:	e1a01005 	mov	r1, r5
   270b8:	e5940024 	ldr	r0, [r4, #36]	; 0x24
   270bc:	e283302a 	add	r3, r3, #42	; 0x2a
   270c0:	e0800003 	add	r0, r0, r3
   270c4:	e5843028 	str	r3, [r4, #40]	; 0x28
[31m   270c8:	ebff8b82 	bl	9ed8 <sprintf@plt>[0m
   270cc:	e5943028 	ldr	r3, [r4, #40]	; 0x28
   270d0:	e3a02008 	mov	r2, #8
--
   270f0:	e2833007 	add	r3, r3, #7
   270f4:	e5843028 	str	r3, [r4, #40]	; 0x28
   270f8:	eafffefe 	b	26cf8 <_start@@Base+0x1cc7c>
   270fc:	e59dc34c 	ldr	ip, [sp, #844]	; 0x34c
   27100:	e28d7f49 	add	r7, sp, #292	; 0x124
   27104:	e59d3348 	ldr	r3, [sp, #840]	; 0x348
   27108:	e1a00007 	mov	r0, r7
   2710c:	e59d2344 	ldr	r2, [sp, #836]	; 0x344
   27110:	e58dc000 	str	ip, [sp]
   27114:	e59dc350 	ldr	ip, [sp, #848]	; 0x350
   27118:	e59f11c8 	ldr	r1, [pc, #456]	; 272e8 <_start@@Base+0x1d26c>
   2711c:	e58dc004 	str	ip, [sp, #4]
   27120:	e59dc354 	ldr	ip, [sp, #852]	; 0x354
   27124:	e58dc008 	str	ip, [sp, #8]
   27128:	e59dc358 	ldr	ip, [sp, #856]	; 0x358
   2712c:	e58dc00c 	str	ip, [sp, #12]
   27130:	e59dc35c 	ldr	ip, [sp, #860]	; 0x35c
   27134:	e58dc010 	str	ip, [sp, #16]
   27138:	e59dc360 	ldr	ip, [sp, #864]	; 0x360
   2713c:	e58dc014 	str	ip, [sp, #20]
[31m   27140:	ebff8b64 	bl	9ed8 <sprintf@plt>[0m
   27144:	e1a01006 	mov	r1, r6
   27148:	e1a00005 	mov	r0, r5
--
   27164:	ebff8a68 	bl	9b0c <memcpy@plt>
   27168:	e1a01007 	mov	r1, r7
   2716c:	e1a00005 	mov	r0, r5
   27170:	ebff8ae0 	bl	9cf8 <nvram_set@plt>
   27174:	e59dc32c 	ldr	ip, [sp, #812]	; 0x32c
   27178:	e1a00007 	mov	r0, r7
   2717c:	e59d3328 	ldr	r3, [sp, #808]	; 0x328
   27180:	e59d2324 	ldr	r2, [sp, #804]	; 0x324
   27184:	e58dc000 	str	ip, [sp]
   27188:	e59dc330 	ldr	ip, [sp, #816]	; 0x330
   2718c:	e59f1154 	ldr	r1, [pc, #340]	; 272e8 <_start@@Base+0x1d26c>
   27190:	e58dc004 	str	ip, [sp, #4]
   27194:	e59dc334 	ldr	ip, [sp, #820]	; 0x334
   27198:	e58dc008 	str	ip, [sp, #8]
   2719c:	e59dc338 	ldr	ip, [sp, #824]	; 0x338
   271a0:	e58dc00c 	str	ip, [sp, #12]
   271a4:	e59dc33c 	ldr	ip, [sp, #828]	; 0x33c
   271a8:	e58dc010 	str	ip, [sp, #16]
   271ac:	e59dc340 	ldr	ip, [sp, #832]	; 0x340
   271b0:	e58dc014 	str	ip, [sp, #20]
[31m   271b4:	ebff8b47 	bl	9ed8 <sprintf@plt>[0m
   271b8:	e1a01006 	mov	r1, r6
   271bc:	e1a00005 	mov	r0, r5
--
   289cc:	e5843020 	str	r3, [r4, #32]
   289d0:	e28dd06c 	add	sp, sp, #108	; 0x6c
   289d4:	e8bd8ff0 	pop	{r4, r5, r6, r7, r8, r9, sl, fp, pc}
   289d8:	e1a00009 	mov	r0, r9
   289dc:	e59f1260 	ldr	r1, [pc, #608]	; 28c44 <_start@@Base+0x1ebc8>
   289e0:	ebff8533 	bl	9eb4 <strcmp@plt>
   289e4:	e3500000 	cmp	r0, #0
   289e8:	0a000006 	beq	28a08 <_start@@Base+0x1e98c>
   289ec:	e3570000 	cmp	r7, #0
   289f0:	0afffff1 	beq	289bc <_start@@Base+0x1e940>
   289f4:	e1a00007 	mov	r0, r7
   289f8:	e59f123c 	ldr	r1, [pc, #572]	; 28c3c <_start@@Base+0x1ebc0>
   289fc:	ebff852c 	bl	9eb4 <strcmp@plt>
   28a00:	e3500000 	cmp	r0, #0
   28a04:	1affffec 	bne	289bc <_start@@Base+0x1e940>
   28a08:	e5940024 	ldr	r0, [r4, #36]	; 0x24
   28a0c:	e1a02007 	mov	r2, r7
   28a10:	e5943028 	ldr	r3, [r4, #40]	; 0x28
   28a14:	e59f122c 	ldr	r1, [pc, #556]	; 28c48 <_start@@Base+0x1ebcc>
   28a18:	e0800003 	add	r0, r0, r3
[31m   28a1c:	ebff852d 	bl	9ed8 <sprintf@plt>[0m
   28a20:	e5943028 	ldr	r3, [r4, #40]	; 0x28
   28a24:	e0803003 	add	r3, r0, r3
--
   28acc:	e28d0010 	add	r0, sp, #16
   28ad0:	ebff84d9 	bl	9e3c <nvram_get@plt>
   28ad4:	e3500000 	cmp	r0, #0
   28ad8:	01a00007 	moveq	r0, r7
   28adc:	e5d03000 	ldrb	r3, [r0]
   28ae0:	e3530000 	cmp	r3, #0
   28ae4:	1affffac 	bne	2899c <_start@@Base+0x1e920>
   28ae8:	e5943028 	ldr	r3, [r4, #40]	; 0x28
   28aec:	e1a00009 	mov	r0, r9
   28af0:	e594a024 	ldr	sl, [r4, #36]	; 0x24
   28af4:	e5969004 	ldr	r9, [r6, #4]
   28af8:	e59f5128 	ldr	r5, [pc, #296]	; 28c28 <_start@@Base+0x1ebac>
   28afc:	e08aa003 	add	sl, sl, r3
   28b00:	ebff84cd 	bl	9e3c <nvram_get@plt>
   28b04:	e3500000 	cmp	r0, #0
   28b08:	e59f1148 	ldr	r1, [pc, #328]	; 28c58 <_start@@Base+0x1ebdc>
   28b0c:	11a03000 	movne	r3, r0
   28b10:	01a03007 	moveq	r3, r7
   28b14:	e1a02009 	mov	r2, r9
   28b18:	e1a0000a 	mov	r0, sl
[31m   28b1c:	ebff84ed 	bl	9ed8 <sprintf@plt>[0m
   28b20:	e5943028 	ldr	r3, [r4, #40]	; 0x28
   28b24:	e0803003 	add	r3, r0, r3
   28b28:	e1a00008 	mov	r0, r8
   28b2c:	e5843028 	str	r3, [r4, #40]	; 0x28
   28b30:	ebff84c1 	bl	9e3c <nvram_get@plt>
   28b34:	e3500000 	cmp	r0, #0
   28b38:	0affffa4 	beq	289d0 <_start@@Base+0x1e954>
   28b3c:	e59f10f4 	ldr	r1, [pc, #244]	; 28c38 <_start@@Base+0x1ebbc>
   28b40:	ebff84db 	bl	9eb4 <strcmp@plt>
   28b44:	e3500000 	cmp	r0, #0
   28b48:	1affffa0 	bne	289d0 <_start@@Base+0x1e954>
   28b4c:	e5953028 	ldr	r3, [r5, #40]	; 0x28
   28b50:	e5950024 	ldr	r0, [r5, #36]	; 0x24
   28b54:	e59f1100 	ldr	r1, [pc, #256]	; 28c5c <_start@@Base+0x1ebe0>
   28b58:	e5962004 	ldr	r2, [r6, #4]
   28b5c:	e0800003 	add	r0, r0, r3
[31m   28b60:	ebff84dc 	bl	9ed8 <sprintf@plt>[0m
   28b64:	e5953028 	ldr	r3, [r5, #40]	; 0x28
   28b68:	e59f10f0 	ldr	r1, [pc, #240]	; 28c60 <_start@@Base+0x1ebe4>
--
   28e54:	e3520000 	cmp	r2, #0
   28e58:	0a0000c8 	beq	29180 <_start@@Base+0x1f104>
   28e5c:	e59fb374 	ldr	fp, [pc, #884]	; 291d8 <_start@@Base+0x1f15c>
   28e60:	e3a03030 	mov	r3, #48	; 0x30
   28e64:	e5d92000 	ldrb	r2, [r9]
   28e68:	e58db01c 	str	fp, [sp, #28]
   28e6c:	e30cc10c 	movw	ip, #49420	; 0xc10c
   28e70:	e3520000 	cmp	r2, #0
   28e74:	e340c003 	movt	ip, #3
   28e78:	01a0900c 	moveq	r9, ip
   28e7c:	e3530000 	cmp	r3, #0
   28e80:	0a000073 	beq	29054 <_start@@Base+0x1efd8>
   28e84:	e5db3000 	ldrb	r3, [fp]
   28e88:	e3530000 	cmp	r3, #0
   28e8c:	1a000074 	bne	29064 <_start@@Base+0x1efe8>
   28e90:	e5980024 	ldr	r0, [r8, #36]	; 0x24
   28e94:	e5983028 	ldr	r3, [r8, #40]	; 0x28
   28e98:	e59f133c 	ldr	r1, [pc, #828]	; 291dc <_start@@Base+0x1f160>
   28e9c:	e0800003 	add	r0, r0, r3
   28ea0:	e5972004 	ldr	r2, [r7, #4]
[31m   28ea4:	ebff840b 	bl	9ed8 <sprintf@plt>[0m
   28ea8:	e5983028 	ldr	r3, [r8, #40]	; 0x28
   28eac:	e0803003 	add	r3, r0, r3
--
   29574:	e28d00a8 	add	r0, sp, #168	; 0xa8
   29578:	e1a01004 	mov	r1, r4
   2957c:	ebff81dd 	bl	9cf8 <nvram_set@plt>
   29580:	e3a03000 	mov	r3, #0
   29584:	e5863020 	str	r3, [r6, #32]
   29588:	eaffffe5 	b	29524 <_start@@Base+0x1f4a8>
   2958c:	e28d0094 	add	r0, sp, #148	; 0x94
   29590:	ebff8229 	bl	9e3c <nvram_get@plt>
   29594:	e3500000 	cmp	r0, #0
   29598:	0affffdb 	beq	2950c <_start@@Base+0x1f490>
   2959c:	e59f10b8 	ldr	r1, [pc, #184]	; 2965c <_start@@Base+0x1f5e0>
   295a0:	ebff8243 	bl	9eb4 <strcmp@plt>
   295a4:	e3500000 	cmp	r0, #0
   295a8:	1affffd7 	bne	2950c <_start@@Base+0x1f490>
   295ac:	e5963028 	ldr	r3, [r6, #40]	; 0x28
   295b0:	e5960024 	ldr	r0, [r6, #36]	; 0x24
   295b4:	e59dc020 	ldr	ip, [sp, #32]
   295b8:	e59f10a0 	ldr	r1, [pc, #160]	; 29660 <_start@@Base+0x1f5e4>
   295bc:	e0800003 	add	r0, r0, r3
   295c0:	e59c2004 	ldr	r2, [ip, #4]
[31m   295c4:	ebff8243 	bl	9ed8 <sprintf@plt>[0m
   295c8:	e5963028 	ldr	r3, [r6, #40]	; 0x28
   295cc:	e0803003 	add	r3, r0, r3
   295d0:	e5863028 	str	r3, [r6, #40]	; 0x28
   295d4:	eaffffd2 	b	29524 <_start@@Base+0x1f4a8>
   295d8:	e5962028 	ldr	r2, [r6, #40]	; 0x28
   295dc:	e1a03005 	mov	r3, r5
   295e0:	e5960024 	ldr	r0, [r6, #36]	; 0x24
   295e4:	e59dc054 	ldr	ip, [sp, #84]	; 0x54
   295e8:	e59f1074 	ldr	r1, [pc, #116]	; 29664 <_start@@Base+0x1f5e8>
   295ec:	e0800002 	add	r0, r0, r2
   295f0:	e59d2038 	ldr	r2, [sp, #56]	; 0x38
   295f4:	e58d4004 	str	r4, [sp, #4]
   295f8:	e58dc000 	str	ip, [sp]
[31m   295fc:	ebff8235 	bl	9ed8 <sprintf@plt>[0m
   29600:	e5963028 	ldr	r3, [r6, #40]	; 0x28
   29604:	e0803003 	add	r3, r0, r3
--
   29a20:	eaffff9d 	b	2989c <_start@@Base+0x1f820>
   29a24:	e1a01007 	mov	r1, r7
   29a28:	ebff80fa 	bl	9e18 <inet_aton@plt>
   29a2c:	e59d328c 	ldr	r3, [sp, #652]	; 0x28c
   29a30:	e59d2288 	ldr	r2, [sp, #648]	; 0x288
   29a34:	e1c33002 	bic	r3, r3, r2
   29a38:	e1833008 	orr	r3, r3, r8
   29a3c:	e1a00003 	mov	r0, r3
   29a40:	e58d328c 	str	r3, [sp, #652]	; 0x28c
   29a44:	ebff8111 	bl	9e90 <inet_ntoa@plt>
   29a48:	e1a01000 	mov	r1, r0
   29a4c:	e1a00006 	mov	r0, r6
   29a50:	ebff80a8 	bl	9cf8 <nvram_set@plt>
   29a54:	eaffffba 	b	29944 <_start@@Base+0x1f8c8>
   29a58:	e59bc024 	ldr	ip, [fp, #36]	; 0x24
   29a5c:	e1a03004 	mov	r3, r4
   29a60:	e59b0028 	ldr	r0, [fp, #40]	; 0x28
   29a64:	e59f106c 	ldr	r1, [pc, #108]	; 29ad8 <_start@@Base+0x1fa5c>
   29a68:	e59d2224 	ldr	r2, [sp, #548]	; 0x224
   29a6c:	e08c0000 	add	r0, ip, r0
[31m   29a70:	ebff8118 	bl	9ed8 <sprintf@plt>[0m
   29a74:	e59b3028 	ldr	r3, [fp, #40]	; 0x28
   29a78:	e0803003 	add	r3, r0, r3
--
   29e04:	ebff8078 	bl	9fec <osifname_to_nvifname@plt>
   29e08:	e3500000 	cmp	r0, #0
   29e0c:	1affffb0 	bne	29cd4 <_start@@Base+0x1fc58>
   29e10:	e1a00007 	mov	r0, r7
   29e14:	e1a0100a 	mov	r1, sl
   29e18:	e1a02009 	mov	r2, r9
   29e1c:	ebff804e 	bl	9f5c <get_ifname_unit@plt>
   29e20:	e3700001 	cmn	r0, #1
   29e24:	0affffaa 	beq	29cd4 <_start@@Base+0x1fc58>
   29e28:	e59d3098 	ldr	r3, [sp, #152]	; 0x98
   29e2c:	e3530000 	cmp	r3, #0
   29e30:	e59d3094 	ldr	r3, [sp, #148]	; 0x94
   29e34:	b58d8098 	strlt	r8, [sp, #152]	; 0x98
   29e38:	e3530000 	cmp	r3, #0
   29e3c:	b58d8094 	strlt	r8, [sp, #148]	; 0x94
   29e40:	ba00000d 	blt	29e7c <_start@@Base+0x1fe00>
   29e44:	0a00000c 	beq	29e7c <_start@@Base+0x1fe00>
   29e48:	e59f1064 	ldr	r1, [pc, #100]	; 29eb4 <_start@@Base+0x1fe38>
   29e4c:	e59d2098 	ldr	r2, [sp, #152]	; 0x98
   29e50:	e59f0060 	ldr	r0, [pc, #96]	; 29eb8 <_start@@Base+0x1fe3c>
[31m   29e54:	ebff801f 	bl	9ed8 <sprintf@plt>[0m
   29e58:	eaffff9d 	b	29cd4 <_start@@Base+0x1fc58>
   29e5c:	e59f0058 	ldr	r0, [pc, #88]	; 29ebc <_start@@Base+0x1fe40>
   29e60:	e3022d41 	movw	r2, #11585	; 0x2d41
   29e64:	e59f1054 	ldr	r1, [pc, #84]	; 29ec0 <_start@@Base+0x1fe44>
   29e68:	ebff7efd 	bl	9a64 <printf@plt>
   29e6c:	e28d30a0 	add	r3, sp, #160	; 0xa0
   29e70:	e0835105 	add	r5, r3, r5, lsl #2
   29e74:	e505609c 	str	r6, [r5, #-156]	; 0xffffff64
   29e78:	eaffff80 	b	29c80 <_start@@Base+0x1fc04>
   29e7c:	e59f1040 	ldr	r1, [pc, #64]	; 29ec4 <_start@@Base+0x1fe48>
   29e80:	e59d2098 	ldr	r2, [sp, #152]	; 0x98
   29e84:	e59f002c 	ldr	r0, [pc, #44]	; 29eb8 <_start@@Base+0x1fe3c>
[31m   29e88:	ebff8012 	bl	9ed8 <sprintf@plt>[0m
   29e8c:	eaffff90 	b	29cd4 <_start@@Base+0x1fc58>
   29e90:	0004fd84 	andeq	pc, r4, r4, lsl #27
--
   2a090:	ebff7fab 	bl	9f44 <fwrite@plt>
   2a094:	e1a00004 	mov	r0, r4
   2a098:	ebff7ece 	bl	9bd8 <fflush@plt>
   2a09c:	e3a01001 	mov	r1, #1
   2a0a0:	e3a020b1 	mov	r2, #177	; 0xb1
   2a0a4:	e1a03004 	mov	r3, r4
   2a0a8:	e59f0c60 	ldr	r0, [pc, #3168]	; 2ad10 <_start@@Base+0x20c94>
   2a0ac:	ebff7fa4 	bl	9f44 <fwrite@plt>
   2a0b0:	e1a00004 	mov	r0, r4
   2a0b4:	ebff7ec7 	bl	9bd8 <fflush@plt>
   2a0b8:	e1a03004 	mov	r3, r4
   2a0bc:	e3a01001 	mov	r1, #1
   2a0c0:	e3a0203b 	mov	r2, #59	; 0x3b
   2a0c4:	e59f0c48 	ldr	r0, [pc, #3144]	; 2ad14 <_start@@Base+0x20c98>
   2a0c8:	ebff7f9d 	bl	9f44 <fwrite@plt>
   2a0cc:	e1a00004 	mov	r0, r4
   2a0d0:	ebff7ec0 	bl	9bd8 <fflush@plt>
   2a0d4:	e59f1c3c 	ldr	r1, [pc, #3132]	; 2ad18 <_start@@Base+0x20c9c>
   2a0d8:	e1a02006 	mov	r2, r6
   2a0dc:	e1a00007 	mov	r0, r7
[31m   2a0e0:	ebff7f7c 	bl	9ed8 <sprintf@plt>[0m
   2a0e4:	e1a00007 	mov	r0, r7
   2a0e8:	ebff7f53 	bl	9e3c <nvram_get@plt>
--
   2ac30:	e0899003 	add	r9, r9, r3
   2ac34:	ebff7be7 	bl	9bd8 <fflush@plt>
   2ac38:	e5da3038 	ldrb	r3, [sl, #56]	; 0x38
   2ac3c:	e2877001 	add	r7, r7, #1
   2ac40:	e2866038 	add	r6, r6, #56	; 0x38
   2ac44:	e3530001 	cmp	r3, #1
   2ac48:	1a0000d8 	bne	2afb0 <_start@@Base+0x20f34>
   2ac4c:	e5d68027 	ldrb	r8, [r6, #39]	; 0x27
   2ac50:	e1a0000b 	mov	r0, fp
   2ac54:	e5d6c028 	ldrb	ip, [r6, #40]	; 0x28
   2ac58:	e1a0a006 	mov	sl, r6
   2ac5c:	e5d6e025 	ldrb	lr, [r6, #37]	; 0x25
   2ac60:	e5d65026 	ldrb	r5, [r6, #38]	; 0x26
   2ac64:	e5d62023 	ldrb	r2, [r6, #35]	; 0x23
   2ac68:	e5d63024 	ldrb	r3, [r6, #36]	; 0x24
   2ac6c:	e59f11b4 	ldr	r1, [pc, #436]	; 2ae28 <_start@@Base+0x20dac>
   2ac70:	e58d8008 	str	r8, [sp, #8]
   2ac74:	e58dc00c 	str	ip, [sp, #12]
   2ac78:	e58de000 	str	lr, [sp]
   2ac7c:	e58d5004 	str	r5, [sp, #4]
[31m   2ac80:	ebff7c94 	bl	9ed8 <sprintf@plt>[0m
   2ac84:	e59d8020 	ldr	r8, [sp, #32]
   2ac88:	e1a02007 	mov	r2, r7
--
   2bfe8:	e59f0424 	ldr	r0, [pc, #1060]	; 2c414 <_start@@Base+0x22398>
   2bfec:	ebff77d4 	bl	9f44 <fwrite@plt>
   2bff0:	e1a00004 	mov	r0, r4
   2bff4:	ebff76f7 	bl	9bd8 <fflush@plt>
   2bff8:	e3a01001 	mov	r1, #1
   2bffc:	e3a0200c 	mov	r2, #12
   2c000:	e1a03004 	mov	r3, r4
   2c004:	e59f040c 	ldr	r0, [pc, #1036]	; 2c418 <_start@@Base+0x2239c>
   2c008:	ebff77cd 	bl	9f44 <fwrite@plt>
   2c00c:	e1a00004 	mov	r0, r4
   2c010:	ebff76f0 	bl	9bd8 <fflush@plt>
   2c014:	eafff954 	b	2a56c <_start@@Base+0x204f0>
   2c018:	e28d7fe6 	add	r7, sp, #920	; 0x398
   2c01c:	e28d8f4d 	add	r8, sp, #308	; 0x134
   2c020:	e1a00007 	mov	r0, r7
   2c024:	e1a06008 	mov	r6, r8
   2c028:	ebff82e1 	bl	cbb4 <_start@@Base+0x2b38>
   2c02c:	e1a00008 	mov	r0, r8
   2c030:	e59f13e4 	ldr	r1, [pc, #996]	; 2c41c <_start@@Base+0x223a0>
   2c034:	e1a02007 	mov	r2, r7
[31m   2c038:	ebff77a6 	bl	9ed8 <sprintf@plt>[0m
   2c03c:	eafff9af 	b	2a700 <_start@@Base+0x20684>
   2c040:	e59f33d8 	ldr	r3, [pc, #984]	; 2c420 <_start@@Base+0x223a4>
--
   2d070:	e12fff1e 	bx	lr
   2d074:	e92d4038 	push	{r3, r4, r5, lr}
   2d078:	e1a04000 	mov	r4, r0
   2d07c:	e5d13000 	ldrb	r3, [r1]
   2d080:	e3530000 	cmp	r3, #0
   2d084:	0a000012 	beq	2d0d4 <_start@@Base+0x23058>
   2d088:	e1a05001 	mov	r5, r1
   2d08c:	ea000005 	b	2d0a8 <_start@@Base+0x2302c>
   2d090:	e3530025 	cmp	r3, #37	; 0x25
   2d094:	14c43001 	strbne	r3, [r4], #1
   2d098:	0a000008 	beq	2d0c0 <_start@@Base+0x23044>
   2d09c:	e5f53001 	ldrb	r3, [r5, #1]!
   2d0a0:	e3530000 	cmp	r3, #0
   2d0a4:	0a00000a 	beq	2d0d4 <_start@@Base+0x23058>
   2d0a8:	e353003d 	cmp	r3, #61	; 0x3d
   2d0ac:	13530026 	cmpne	r3, #38	; 0x26
   2d0b0:	e1a00004 	mov	r0, r4
   2d0b4:	e59f1024 	ldr	r1, [pc, #36]	; 2d0e0 <_start@@Base+0x23064>
   2d0b8:	e1a02003 	mov	r2, r3
   2d0bc:	1afffff3 	bne	2d090 <_start@@Base+0x23014>
[31m   2d0c0:	ebff7384 	bl	9ed8 <sprintf@plt>[0m
   2d0c4:	e5f53001 	ldrb	r3, [r5, #1]!
   2d0c8:	e0844000 	add	r4, r4, r0
--
   2d3f8:	e58d2364 	str	r2, [sp, #868]	; 0x364
   2d3fc:	ea000004 	b	2d414 <_start@@Base+0x23398>
   2d400:	e59d3364 	ldr	r3, [sp, #868]	; 0x364
   2d404:	e2833001 	add	r3, r3, #1
   2d408:	e35300ff 	cmp	r3, #255	; 0xff
   2d40c:	e58d3364 	str	r3, [sp, #868]	; 0x364
   2d410:	ca000026 	bgt	2d4b0 <_start@@Base+0x23434>
   2d414:	e3a01064 	mov	r1, #100	; 0x64
   2d418:	e59f2af8 	ldr	r2, [pc, #2808]	; 2df18 <_start@@Base+0x23e9c>
   2d41c:	e1a00004 	mov	r0, r4
   2d420:	ebff719e 	bl	9aa0 <snprintf@plt>
   2d424:	e1a00004 	mov	r0, r4
   2d428:	ebff7283 	bl	9e3c <nvram_get@plt>
   2d42c:	e3500000 	cmp	r0, #0
   2d430:	0afffff2 	beq	2d400 <_start@@Base+0x23384>
   2d434:	e5950000 	ldr	r0, [r5]
   2d438:	e3a02002 	mov	r2, #2
   2d43c:	e5963000 	ldr	r3, [r6]
   2d440:	e59f1ad4 	ldr	r1, [pc, #2772]	; 2df1c <_start@@Base+0x23ea0>
   2d444:	e0800003 	add	r0, r0, r3
[31m   2d448:	ebff72a2 	bl	9ed8 <sprintf@plt>[0m
   2d44c:	e5963000 	ldr	r3, [r6]
   2d450:	e0803003 	add	r3, r0, r3
--
   2d508:	1a00000c 	bne	2d540 <_start@@Base+0x234c4>
   2d50c:	ebff73a7 	bl	a3b0 <_start@@Base+0x334>
   2d510:	e3500001 	cmp	r0, #1
   2d514:	0a000245 	beq	2de30 <_start@@Base+0x23db4>
   2d518:	e5950000 	ldr	r0, [r5]
   2d51c:	e3a02003 	mov	r2, #3
   2d520:	e5963000 	ldr	r3, [r6]
   2d524:	ea000009 	b	2d550 <_start@@Base+0x234d4>
   2d528:	e5950000 	ldr	r0, [r5]
   2d52c:	e3a02001 	mov	r2, #1
   2d530:	eaffffc1 	b	2d43c <_start@@Base+0x233c0>
   2d534:	e5950000 	ldr	r0, [r5]
   2d538:	e3a02003 	mov	r2, #3
   2d53c:	eaffffbe 	b	2d43c <_start@@Base+0x233c0>
   2d540:	e5950000 	ldr	r0, [r5]
   2d544:	e3a02003 	mov	r2, #3
   2d548:	e5963000 	ldr	r3, [r6]
   2d54c:	e3a04000 	mov	r4, #0
   2d550:	e59f19c4 	ldr	r1, [pc, #2500]	; 2df1c <_start@@Base+0x23ea0>
   2d554:	e0800003 	add	r0, r0, r3
[31m   2d558:	ebff725e 	bl	9ed8 <sprintf@plt>[0m
   2d55c:	e5963000 	ldr	r3, [r6]
   2d560:	e28dafc5 	add	sl, sp, #788	; 0x314
--
   2d6b4:	e59fb884 	ldr	fp, [pc, #2180]	; 2df40 <_start@@Base+0x23ec4>
   2d6b8:	e59f0884 	ldr	r0, [pc, #2180]	; 2df44 <_start@@Base+0x23ec8>
   2d6bc:	e0823003 	add	r3, r2, r3
   2d6c0:	e59f9844 	ldr	r9, [pc, #2116]	; 2df0c <_start@@Base+0x23e90>
   2d6c4:	e58d3010 	str	r3, [sp, #16]
   2d6c8:	ebff71db 	bl	9e3c <nvram_get@plt>
   2d6cc:	e3500000 	cmp	r0, #0
   2d6d0:	11a03000 	movne	r3, r0
   2d6d4:	01a0300b 	moveq	r3, fp
   2d6d8:	e59f0868 	ldr	r0, [pc, #2152]	; 2df48 <_start@@Base+0x23ecc>
   2d6dc:	e58d300c 	str	r3, [sp, #12]
   2d6e0:	ebff71d5 	bl	9e3c <nvram_get@plt>
   2d6e4:	e3500000 	cmp	r0, #0
   2d6e8:	e1a0200a 	mov	r2, sl
   2d6ec:	11a0c000 	movne	ip, r0
   2d6f0:	01a0c00b 	moveq	ip, fp
   2d6f4:	e59f1850 	ldr	r1, [pc, #2128]	; 2df4c <_start@@Base+0x23ed0>
   2d6f8:	e59d300c 	ldr	r3, [sp, #12]
   2d6fc:	e59d0010 	ldr	r0, [sp, #16]
   2d700:	e58dc000 	str	ip, [sp]
[31m   2d704:	ebff71f3 	bl	9ed8 <sprintf@plt>[0m
   2d708:	e5963000 	ldr	r3, [r6]
   2d70c:	e0803003 	add	r3, r0, r3
   2d710:	e59f0838 	ldr	r0, [pc, #2104]	; 2df50 <_start@@Base+0x23ed4>
   2d714:	e5863000 	str	r3, [r6]
   2d718:	ebff70f8 	bl	9b00 <file2str@plt>
   2d71c:	e250a000 	subs	sl, r0, #0
   2d720:	0a00000a 	beq	2d750 <_start@@Base+0x236d4>
   2d724:	e5993000 	ldr	r3, [r9]
   2d728:	e1a0200a 	mov	r2, sl
   2d72c:	e5950000 	ldr	r0, [r5]
   2d730:	e59f181c 	ldr	r1, [pc, #2076]	; 2df54 <_start@@Base+0x23ed8>
   2d734:	e0800003 	add	r0, r0, r3
[31m   2d738:	ebff71e6 	bl	9ed8 <sprintf@plt>[0m
   2d73c:	e5993000 	ldr	r3, [r9]
   2d740:	e0803003 	add	r3, r0, r3
--
   2d7e4:	e3130001 	tst	r3, #1
   2d7e8:	0afffff7 	beq	2d7cc <_start@@Base+0x23750>
   2d7ec:	e5987000 	ldr	r7, [r8]
   2d7f0:	e1a00007 	mov	r0, r7
   2d7f4:	ebff715a 	bl	9d64 <strncmp@plt>
   2d7f8:	e3500000 	cmp	r0, #0
   2d7fc:	0afffff2 	beq	2d7cc <_start@@Base+0x23750>
   2d800:	e1a00007 	mov	r0, r7
   2d804:	ebff718c 	bl	9e3c <nvram_get@plt>
   2d808:	e3500000 	cmp	r0, #0
   2d80c:	11a01000 	movne	r1, r0
   2d810:	01a0100b 	moveq	r1, fp
   2d814:	e1a00009 	mov	r0, r9
   2d818:	ebfffe15 	bl	2d074 <_start@@Base+0x22ff8>
   2d81c:	e595c000 	ldr	ip, [r5]
   2d820:	e1a03009 	mov	r3, r9
   2d824:	e5960000 	ldr	r0, [r6]
   2d828:	e5982000 	ldr	r2, [r8]
   2d82c:	e59f1730 	ldr	r1, [pc, #1840]	; 2df64 <_start@@Base+0x23ee8>
   2d830:	e08c0000 	add	r0, ip, r0
[31m   2d834:	ebff71a7 	bl	9ed8 <sprintf@plt>[0m
   2d838:	e5963000 	ldr	r3, [r6]
   2d83c:	e0803003 	add	r3, r0, r3
   2d840:	e5863000 	str	r3, [r6]
   2d844:	eaffffe0 	b	2d7cc <_start@@Base+0x23750>
   2d848:	e59d7014 	ldr	r7, [sp, #20]
   2d84c:	e5963000 	ldr	r3, [r6]
   2d850:	e28dbfd5 	add	fp, sp, #852	; 0x354
   2d854:	e5958000 	ldr	r8, [r5]
   2d858:	e59fa6e0 	ldr	sl, [pc, #1760]	; 2df40 <_start@@Base+0x23ec4>
   2d85c:	e59f0704 	ldr	r0, [pc, #1796]	; 2df68 <_start@@Base+0x23eec>
   2d860:	e0888003 	add	r8, r8, r3
   2d864:	ebff7174 	bl	9e3c <nvram_get@plt>
   2d868:	e3500000 	cmp	r0, #0
   2d86c:	e59f16f8 	ldr	r1, [pc, #1784]	; 2df6c <_start@@Base+0x23ef0>
   2d870:	11a02000 	movne	r2, r0
   2d874:	01a0200a 	moveq	r2, sl
   2d878:	e1a00008 	mov	r0, r8
[31m   2d87c:	ebff7195 	bl	9ed8 <sprintf@plt>[0m
   2d880:	e5963000 	ldr	r3, [r6]
   2d884:	e59f16e4 	ldr	r1, [pc, #1764]	; 2df70 <_start@@Base+0x23ef4>
--
   2d980:	ebff7172 	bl	9f50 <wl_ioctl@plt>
   2d984:	e3500000 	cmp	r0, #0
   2d988:	1affffda 	bne	2d8f8 <_start@@Base+0x2387c>
   2d98c:	e3a01064 	mov	r1, #100	; 0x64
   2d990:	e59f25dc 	ldr	r2, [pc, #1500]	; 2df74 <_start@@Base+0x23ef8>
   2d994:	e59d3364 	ldr	r3, [sp, #868]	; 0x364
   2d998:	e1a00004 	mov	r0, r4
   2d99c:	ebff703f 	bl	9aa0 <snprintf@plt>
   2d9a0:	e5963000 	ldr	r3, [r6]
   2d9a4:	e1a00004 	mov	r0, r4
   2d9a8:	e5957000 	ldr	r7, [r5]
   2d9ac:	e0877003 	add	r7, r7, r3
   2d9b0:	ebff7121 	bl	9e3c <nvram_get@plt>
   2d9b4:	e3033f74 	movw	r3, #16244	; 0x3f74
   2d9b8:	e3500000 	cmp	r0, #0
   2d9bc:	e3403003 	movt	r3, #3
   2d9c0:	e1a02004 	mov	r2, r4
   2d9c4:	11a03000 	movne	r3, r0
   2d9c8:	e59f1594 	ldr	r1, [pc, #1428]	; 2df64 <_start@@Base+0x23ee8>
   2d9cc:	e1a00007 	mov	r0, r7
[31m   2d9d0:	ebff7140 	bl	9ed8 <sprintf@plt>[0m
   2d9d4:	e59d2010 	ldr	r2, [sp, #16]
   2d9d8:	e5963000 	ldr	r3, [r6]
--
   2da40:	ebff7016 	bl	9aa0 <snprintf@plt>
   2da44:	e1a00004 	mov	r0, r4
   2da48:	ebff70fb 	bl	9e3c <nvram_get@plt>
   2da4c:	e3031f74 	movw	r1, #16244	; 0x3f74
   2da50:	e3500000 	cmp	r0, #0
   2da54:	e3401003 	movt	r1, #3
   2da58:	11a01000 	movne	r1, r0
   2da5c:	e28d0f93 	add	r0, sp, #588	; 0x24c
   2da60:	ebfffd83 	bl	2d074 <_start@@Base+0x22ff8>
   2da64:	e59d0014 	ldr	r0, [sp, #20]
   2da68:	e1a02004 	mov	r2, r4
   2da6c:	e59d1364 	ldr	r1, [sp, #868]	; 0x364
   2da70:	e28d3f93 	add	r3, sp, #588	; 0x24c
   2da74:	ebfffdde 	bl	2d1f4 <_start@@Base+0x23178>
   2da78:	e595c000 	ldr	ip, [r5]
   2da7c:	e28d3f93 	add	r3, sp, #588	; 0x24c
   2da80:	e5960000 	ldr	r0, [r6]
   2da84:	e1a02004 	mov	r2, r4
   2da88:	e59f14d4 	ldr	r1, [pc, #1236]	; 2df64 <_start@@Base+0x23ee8>
   2da8c:	e08c0000 	add	r0, ip, r0
[31m   2da90:	ebff7110 	bl	9ed8 <sprintf@plt>[0m
   2da94:	e5963000 	ldr	r3, [r6]
   2da98:	e0803003 	add	r3, r0, r3
--
   2df7c:	000446f4 	strdeq	r4, [r4], -r4	; <UNPREDICTABLE>
   2df80:	0003c2b4 			; <UNDEFINED> instruction: 0x0003c2b4
   2df84:	0003c2bc 			; <UNDEFINED> instruction: 0x0003c2bc
   2df88:	0003032c 	andeq	r0, r3, ip, lsr #6
   2df8c:	0003c10c 	andeq	ip, r3, ip, lsl #2
   2df90:	0003c2c4 	andeq	ip, r3, r4, asr #5
   2df94:	00035bd4 	ldrdeq	r5, [r3], -r4
   2df98:	0003c2a8 	andeq	ip, r3, r8, lsr #5
   2df9c:	e92d40f0 	push	{r4, r5, r6, r7, lr}
   2dfa0:	e24dd024 	sub	sp, sp, #36	; 0x24
   2dfa4:	e59f00bc 	ldr	r0, [pc, #188]	; 2e068 <_start@@Base+0x23fec>
   2dfa8:	e1a05002 	mov	r5, r2
   2dfac:	e1a04001 	mov	r4, r1
   2dfb0:	ebff6fa1 	bl	9e3c <nvram_get@plt>
   2dfb4:	e3500000 	cmp	r0, #0
   2dfb8:	e59f10ac 	ldr	r1, [pc, #172]	; 2e06c <_start@@Base+0x23ff0>
   2dfbc:	e59f30ac 	ldr	r3, [pc, #172]	; 2e070 <_start@@Base+0x23ff4>
   2dfc0:	11a03000 	movne	r3, r0
   2dfc4:	e59f20a8 	ldr	r2, [pc, #168]	; 2e074 <_start@@Base+0x23ff8>
   2dfc8:	e59f00a8 	ldr	r0, [pc, #168]	; 2e078 <_start@@Base+0x23ffc>
[31m   2dfcc:	ebff6fc1 	bl	9ed8 <sprintf@plt>[0m
   2dfd0:	e59f60a4 	ldr	r6, [pc, #164]	; 2e07c <_start@@Base+0x24000>
   2dfd4:	e302370e 	movw	r3, #9998	; 0x270e

[0m
[[0;33m*[0m] Function [0;33msprintf[0m used [0;33m178[0m times [0;33mhttpd.svn-base[0m

