[[0;33m*[0m] Binary protection state of [0;33mlibip6t_hbh.so[0m
[REF] s12

  	RELRO          CANARY            NX           PIE       RPATH        RUNPATH      SYMBOLS      
  	[31mNo RELRO[0m       [31mNo Canary found[0m   [32mNX enabled[0m   [33mDSO[0m          [32mNo RPATH[0m     [32mNo RUNPATH[0m   [31mSymbols
	[31mNo RELRO[0m       [31mNo Canary found[0m   [32mNX enabled[0m   [33mDSO[0m          [32mNo RPATH[0m     [32mNo RUNPATH[0m   [32mNo Symbols[0m

[0m
[[0;33m*[0m] Function [0;33mprintf[0m tear down of [0;33mlibip6t_hbh.so[0m

 a38:	ffff7bf4 			; <UNDEFINED> instruction: 0xffff7bf4
 a3c:	e59f306c 	ldr	r3, [pc, #108]	; ab0 <free@plt+0x4dc>
 a40:	e92d41f0 	push	{r4, r5, r6, r7, r8, lr}
 a44:	e2506000 	subs	r6, r0, #0
 a48:	e08f3003 	add	r3, pc, r3
 a4c:	08bd81f0 	popeq	{r4, r5, r6, r7, r8, pc}
 a50:	e59f805c 	ldr	r8, [pc, #92]	; ab4 <free@plt+0x4e0>
 a54:	e1a05001 	mov	r5, r1
 a58:	e59f7058 	ldr	r7, [pc, #88]	; ab8 <free@plt+0x4e4>
 a5c:	e3a04000 	mov	r4, #0
 a60:	e0838008 	add	r8, r3, r8
 a64:	e0837007 	add	r7, r3, r7
 a68:	e3540000 	cmp	r4, #0
 a6c:	e2844001 	add	r4, r4, #1
 a70:	13a0002c 	movne	r0, #44	; 0x2c
 a74:	03a00020 	moveq	r0, #32
 a78:	ebfffeb4 	bl	550 <putchar@plt>
 a7c:	e1d510b0 	ldrh	r1, [r5]
 a80:	e1a00008 	mov	r0, r8
 a84:	e1a01421 	lsr	r1, r1, #8
[31m a88:	ebfffeb3 	bl	55c <printf@plt>[0m
 a8c:	e0d510b2 	ldrh	r1, [r5], #2
 a90:	e1a00007 	mov	r0, r7
 a94:	e20110ff 	and	r1, r1, #255	; 0xff
 a98:	e35100ff 	cmp	r1, #255	; 0xff
 a9c:	0a000000 	beq	aa4 <free@plt+0x4d0>
[31m aa0:	ebfffead 	bl	55c <printf@plt>[0m
 aa4:	e1560004 	cmp	r6, r4
 aa8:	8affffee 	bhi	a68 <free@plt+0x494>
 aac:	e8bd81f0 	pop	{r4, r5, r6, r7, r8, pc}
 ab0:	00008700 	andeq	r8, r0, r0, lsl #14
 ab4:	ffff7cb4 			; <UNDEFINED> instruction: 0xffff7cb4
 ab8:	ffff7cb8 			; <UNDEFINED> instruction: 0xffff7cb8
 abc:	e92d4070 	push	{r4, r5, r6, lr}
 ac0:	e2815020 	add	r5, r1, #32
 ac4:	e5d52004 	ldrb	r2, [r5, #4]
 ac8:	e1a03001 	mov	r3, r1
 acc:	e59f4060 	ldr	r4, [pc, #96]	; b34 <free@plt+0x560>
 ad0:	e3120001 	tst	r2, #1
 ad4:	e08f4004 	add	r4, pc, r4
 ad8:	0a000009 	beq	b04 <free@plt+0x530>
 adc:	e5d52005 	ldrb	r2, [r5, #5]
 ae0:	e3120001 	tst	r2, #1
 ae4:	1a00000f 	bne	b28 <free@plt+0x554>
 ae8:	e59f1048 	ldr	r1, [pc, #72]	; b38 <free@plt+0x564>
 aec:	e0841001 	add	r1, r4, r1
 af0:	e59f0044 	ldr	r0, [pc, #68]	; b3c <free@plt+0x568>
 af4:	e5932020 	ldr	r2, [r3, #32]
 af8:	e0840000 	add	r0, r4, r0
[31m afc:	ebfffe96 	bl	55c <printf@plt>[0m
 b00:	e5d52004 	ldrb	r2, [r5, #4]
 b04:	e3120002 	tst	r2, #2
 b08:	0a000002 	beq	b18 <free@plt+0x544>
 b0c:	e59f002c 	ldr	r0, [pc, #44]	; b40 <free@plt+0x56c>
 b10:	e0840000 	add	r0, r4, r0
[31m b14:	ebfffe90 	bl	55c <printf@plt>[0m
 b18:	e5d50026 	ldrb	r0, [r5, #38]	; 0x26
 b1c:	e2851006 	add	r1, r5, #6
 b20:	e8bd4070 	pop	{r4, r5, r6, lr}
 b24:	eaffffc4 	b	a3c <free@plt+0x468>
 b28:	e59f1014 	ldr	r1, [pc, #20]	; b44 <free@plt+0x570>
 b2c:	e0841001 	add	r1, r4, r1
 b30:	eaffffee 	b	af0 <free@plt+0x51c>
 b34:	00008674 	andeq	r8, r0, r4, ror r6
 b38:	ffff7bf0 			; <UNDEFINED> instruction: 0xffff7bf0
 b3c:	ffff7cc0 			; <UNDEFINED> instruction: 0xffff7cc0
 b40:	ffff7cd0 			; <UNDEFINED> instruction: 0xffff7cd0
 b44:	ffff7cbc 			; <UNDEFINED> instruction: 0xffff7cbc
 b48:	e92d4070 	push	{r4, r5, r6, lr}
 b4c:	e2815020 	add	r5, r1, #32
 b50:	e59f40c4 	ldr	r4, [pc, #196]	; c1c <free@plt+0x648>
 b54:	e1a06001 	mov	r6, r1
 b58:	e59f00c0 	ldr	r0, [pc, #192]	; c20 <free@plt+0x64c>
 b5c:	e08f4004 	add	r4, pc, r4
 b60:	e0840000 	add	r0, r4, r0
[31m b64:	ebfffe7c 	bl	55c <printf@plt>[0m
 b68:	e5d53004 	ldrb	r3, [r5, #4]
 b6c:	e3130001 	tst	r3, #1
 b70:	1a000015 	bne	bcc <free@plt+0x5f8>
 b74:	e3130002 	tst	r3, #2
 b78:	1a000009 	bne	ba4 <free@plt+0x5d0>
 b7c:	e2851006 	add	r1, r5, #6
 b80:	e5d50026 	ldrb	r0, [r5, #38]	; 0x26
 b84:	ebffffac 	bl	a3c <free@plt+0x468>
 b88:	e5d51005 	ldrb	r1, [r5, #5]
 b8c:	e3d11001 	bics	r1, r1, #1
 b90:	08bd8070 	popeq	{r4, r5, r6, pc}
 b94:	e59f0088 	ldr	r0, [pc, #136]	; c24 <free@plt+0x650>
 b98:	e0840000 	add	r0, r4, r0
 b9c:	e8bd4070 	pop	{r4, r5, r6, lr}
[31m ba0:	eafffe6d 	b	55c <printf@plt>[0m
 ba4:	e59f007c 	ldr	r0, [pc, #124]	; c28 <free@plt+0x654>
 ba8:	e0840000 	add	r0, r4, r0
[31m bac:	ebfffe6a 	bl	55c <printf@plt>[0m
 bb0:	e2851006 	add	r1, r5, #6
 bb4:	e5d50026 	ldrb	r0, [r5, #38]	; 0x26
 bb8:	ebffff9f 	bl	a3c <free@plt+0x468>
 bbc:	e5d51005 	ldrb	r1, [r5, #5]
 bc0:	e3d11001 	bics	r1, r1, #1
 bc4:	08bd8070 	popeq	{r4, r5, r6, pc}
 bc8:	eafffff1 	b	b94 <free@plt+0x5c0>
 bcc:	e59f0058 	ldr	r0, [pc, #88]	; c2c <free@plt+0x658>
 bd0:	e0840000 	add	r0, r4, r0
[31m bd4:	ebfffe60 	bl	55c <printf@plt>[0m
 bd8:	e5d53005 	ldrb	r3, [r5, #5]
 bdc:	e3130001 	tst	r3, #1
 be0:	1a00000a 	bne	c10 <free@plt+0x63c>
 be4:	e59f1044 	ldr	r1, [pc, #68]	; c30 <free@plt+0x65c>
 be8:	e0841001 	add	r1, r4, r1
 bec:	e59f0040 	ldr	r0, [pc, #64]	; c34 <free@plt+0x660>
 bf0:	e0840000 	add	r0, r4, r0
[31m bf4:	ebfffe58 	bl	55c <printf@plt>[0m
 bf8:	e59f0038 	ldr	r0, [pc, #56]	; c38 <free@plt+0x664>
 bfc:	e5961020 	ldr	r1, [r6, #32]
 c00:	e0840000 	add	r0, r4, r0
[31m c04:	ebfffe54 	bl	55c <printf@plt>[0m
 c08:	e5d53004 	ldrb	r3, [r5, #4]
 c0c:	eaffffd8 	b	b74 <free@plt+0x5a0>

[0m
[[0;33m*[0m] Function [0;33mprintf[0m used [0;33m9[0m times [0;33mlibip6t_hbh.so[0m

