[[0;33m*[0m] Binary protection state of [0;33mvmstat[0m
[REF] s12

  	RELRO          CANARY            NX           PIE       RPATH        RUNPATH      SYMBOLS      
  	[31mNo RELRO[0m       [31mNo Canary found[0m   [32mNX enabled[0m   [31mNo PIE[0m       [32mNo RPATH[0m     [32mNo RUNPATH[0m   [32mNo Symbols[0m

[0m
[[0;33m*[0m] Function [0;33mstrcpy[0m tear down of [0;33mvmstat[0m

    9740:	ebfffd77 	bl	8d24 <strcmp@plt>
    9744:	e3500000 	cmp	r0, #0
    9748:	03a02b01 	moveq	r2, #1024	; 0x400
    974c:	05882004 	streq	r2, [r8, #4]
    9750:	0a00000c 	beq	9788 <_start@@Base+0x9b0>
    9754:	e1a00005 	mov	r0, r5
    9758:	e59f19e4 	ldr	r1, [pc, #2532]	; a144 <_start@@Base+0x136c>
    975c:	ebfffd70 	bl	8d24 <strcmp@plt>
    9760:	e3500000 	cmp	r0, #0
    9764:	0588a004 	streq	sl, [r8, #4]
    9768:	0a000006 	beq	9788 <_start@@Base+0x9b0>
    976c:	e1a00005 	mov	r0, r5
    9770:	e59f19d0 	ldr	r1, [pc, #2512]	; a148 <_start@@Base+0x1370>
    9774:	ebfffd6a 	bl	8d24 <strcmp@plt>
    9778:	e3500000 	cmp	r0, #0
    977c:	1a000761 	bne	b508 <_start@@Base+0x2730>
    9780:	e3a03601 	mov	r3, #1048576	; 0x100000
    9784:	e5883004 	str	r3, [r8, #4]
    9788:	e5971000 	ldr	r1, [r7]
    978c:	e59f0a54 	ldr	r0, [pc, #2644]	; a1e8 <_start@@Base+0x1410>
[31m    9790:	ebfffcfa 	bl	8b80 <strcpy@plt>[0m
    9794:	eafffef3 	b	9368 <_start@@Base+0x590>
    9798:	e3a00001 	mov	r0, #1
--
    bab8:	e1a00008 	mov	r0, r8
    babc:	e3a0100a 	mov	r1, #10
    bac0:	ebfff4b2 	bl	8d90 <strchr@plt>
    bac4:	e3500000 	cmp	r0, #0
    bac8:	e58d0024 	str	r0, [sp, #36]	; 0x24
    bacc:	0a000024 	beq	bb64 <_start@@Base+0x2d8c>
    bad0:	e280a001 	add	sl, r0, #1
    bad4:	e1a0000a 	mov	r0, sl
    bad8:	e3a0103a 	mov	r1, #58	; 0x3a
    badc:	ebfff4ab 	bl	8d90 <strchr@plt>
    bae0:	e3500000 	cmp	r0, #0
    bae4:	e58d0024 	str	r0, [sp, #36]	; 0x24
    bae8:	0a00001d 	beq	bb64 <_start@@Base+0x2d8c>
    baec:	e5c04000 	strb	r4, [r0]
    baf0:	e1a0000a 	mov	r0, sl
    baf4:	ebfff49f 	bl	8d78 <strlen@plt>
    baf8:	e350000f 	cmp	r0, #15
    bafc:	8affffeb 	bhi	bab0 <_start@@Base+0x2cd8>
    bb00:	e1a0100a 	mov	r1, sl
    bb04:	e1a00005 	mov	r0, r5
[31m    bb08:	ebfff41c 	bl	8b80 <strcpy@plt>[0m
    bb0c:	e1a00006 	mov	r0, r6
    bb10:	e59f1158 	ldr	r1, [pc, #344]	; bc70 <_start@@Base+0x2e98>
--
    bd5c:	e1a0000a 	mov	r0, sl
    bd60:	e3a0100a 	mov	r1, #10
    bd64:	ebfff409 	bl	8d90 <strchr@plt>
    bd68:	e3500000 	cmp	r0, #0
    bd6c:	e58d0024 	str	r0, [sp, #36]	; 0x24
    bd70:	0a000024 	beq	be08 <_start@@Base+0x3030>
    bd74:	e2808001 	add	r8, r0, #1
    bd78:	e1a00008 	mov	r0, r8
    bd7c:	e3a01020 	mov	r1, #32
    bd80:	ebfff402 	bl	8d90 <strchr@plt>
    bd84:	e3500000 	cmp	r0, #0
    bd88:	e58d0024 	str	r0, [sp, #36]	; 0x24
    bd8c:	0a00001d 	beq	be08 <_start@@Base+0x3030>
    bd90:	e5c05000 	strb	r5, [r0]
    bd94:	e1a00008 	mov	r0, r8
    bd98:	ebfff3f6 	bl	8d78 <strlen@plt>
    bd9c:	e350000f 	cmp	r0, #15
    bda0:	8affffeb 	bhi	bd54 <_start@@Base+0x2f7c>
    bda4:	e1a01008 	mov	r1, r8
    bda8:	e1a00006 	mov	r0, r6
[31m    bdac:	ebfff373 	bl	8b80 <strcpy@plt>[0m
    bdb0:	e1a00009 	mov	r0, r9
    bdb4:	e59f118c 	ldr	r1, [pc, #396]	; bf48 <_start@@Base+0x3170>

[0m
[[0;33m*[0m] Function [0;33mstrcpy[0m used [0;33m3[0m times [0;33mvmstat[0m

