  	RELRO          CANARY            NX           PIE       RPATH        RUNPATH      SYMBOLS      
  	[31mNo RELRO[0m       [31mNo Canary found[0m   [32mNX enabled[0m   [31mNo PIE[0m       [31mRPATH[0m        [32mNo RUNPATH[0m   [31mSymbols[0m

[0m
[[0;33m*[0m] Function [0;33mstrcat[0m tear down of [0;33mxtables-multi[0m

    d510:	1a000002 	bne	d520 <print_firewall+0x37c>
    d514:	e3a0000a 	mov	r0, #10
    d518:	e5991000 	ldr	r1, [r9]
    d51c:	ebfff2d5 	bl	a078 <fputc@plt>
    d520:	e28dd024 	add	sp, sp, #36	; 0x24
    d524:	e28dda01 	add	sp, sp, #4096	; 0x1000
    d528:	e8bd8ff0 	pop	{r4, r5, r6, r7, r8, r9, sl, fp, pc}
    d52c:	e3550000 	cmp	r5, #0
    d530:	1a00003a 	bne	d620 <print_firewall+0x47c>
    d534:	e2840004 	add	r0, r4, #4
    d538:	ebfff2dd 	bl	a0b4 <xtables_ipaddr_to_anyname@plt>
    d53c:	e28d7020 	add	r7, sp, #32
    d540:	e1a01000 	mov	r1, r0
    d544:	e2477014 	sub	r7, r7, #20
    d548:	e1a00007 	mov	r0, r7
    d54c:	ebfff36b 	bl	a300 <strcpy@plt>
    d550:	e284000c 	add	r0, r4, #12
    d554:	ebfff2ac 	bl	a00c <xtables_ipmask_to_numeric@plt>
    d558:	e1a01000 	mov	r1, r0
    d55c:	e1a00007 	mov	r0, r7
[31m    d560:	ebfff243 	bl	9e74 <strcat@plt>[0m
    d564:	e59f31d0 	ldr	r3, [pc, #464]	; d73c <print_firewall+0x598>
    d568:	e3560000 	cmp	r6, #0
--
    d594:	ebfff20f 	bl	9dd8 <fwrite@plt>
    d598:	e5d43052 	ldrb	r3, [r4, #82]	; 0x52
    d59c:	e3130002 	tst	r3, #2
    d5a0:	0affffaa 	beq	d450 <print_firewall+0x2ac>
    d5a4:	e59f019c 	ldr	r0, [pc, #412]	; d748 <print_firewall+0x5a4>
    d5a8:	ebfff327 	bl	a24c <printf@plt>
    d5ac:	eaffffa7 	b	d450 <print_firewall+0x2ac>
    d5b0:	e3550000 	cmp	r5, #0
    d5b4:	1a000016 	bne	d614 <print_firewall+0x470>
    d5b8:	e1a00004 	mov	r0, r4
    d5bc:	ebfff2bc 	bl	a0b4 <xtables_ipaddr_to_anyname@plt>
    d5c0:	e28d7020 	add	r7, sp, #32
    d5c4:	e1a01000 	mov	r1, r0
    d5c8:	e2477014 	sub	r7, r7, #20
    d5cc:	e1a00007 	mov	r0, r7
    d5d0:	ebfff34a 	bl	a300 <strcpy@plt>
    d5d4:	e2840008 	add	r0, r4, #8
    d5d8:	ebfff28b 	bl	a00c <xtables_ipmask_to_numeric@plt>
    d5dc:	e1a01000 	mov	r1, r0
    d5e0:	e1a00007 	mov	r0, r7
[31m    d5e4:	ebfff222 	bl	9e74 <strcat@plt>[0m
    d5e8:	e1a01007 	mov	r1, r7
    d5ec:	eaffff7c 	b	d3e4 <print_firewall+0x240>
--
    d644:	eafffef6 	b	d224 <print_firewall+0x80>
    d648:	e28d7a01 	add	r7, sp, #4096	; 0x1000
    d64c:	e287700c 	add	r7, r7, #12
    d650:	e1a00007 	mov	r0, r7
    d654:	ebfff236 	bl	9f34 <strlen@plt>
    d658:	e59f10c8 	ldr	r1, [pc, #200]	; d728 <print_firewall+0x584>
    d65c:	e0870000 	add	r0, r7, r0
    d660:	e3a02002 	mov	r2, #2
    d664:	ebfff1e7 	bl	9e08 <memcpy@plt>
    d668:	eaffff31 	b	d334 <print_firewall+0x190>
    d66c:	e3a01001 	mov	r1, #1
    d670:	e3a02004 	mov	r2, #4
    d674:	e5993000 	ldr	r3, [r9]
    d678:	e59f00d0 	ldr	r0, [pc, #208]	; d750 <print_firewall+0x5ac>
    d67c:	ebfff1d5 	bl	9dd8 <fwrite@plt>
    d680:	eaffff05 	b	d29c <print_firewall+0xf8>
    d684:	e28d7a01 	add	r7, sp, #4096	; 0x1000
    d688:	e2841010 	add	r1, r4, #16
    d68c:	e287700c 	add	r7, r7, #12
    d690:	e1a00007 	mov	r0, r7
[31m    d694:	ebfff1f6 	bl	9e74 <strcat@plt>[0m
    d698:	eaffff25 	b	d334 <print_firewall+0x190>
    d69c:	e1a00007 	mov	r0, r7
--
    d6ac:	e3a02004 	mov	r2, #4
    d6b0:	ebfff1d4 	bl	9e08 <memcpy@plt>
    d6b4:	eaffff38 	b	d39c <print_firewall+0x1f8>
    d6b8:	e59f3094 	ldr	r3, [pc, #148]	; d754 <print_firewall+0x5b0>
    d6bc:	e3560000 	cmp	r6, #0
    d6c0:	e1d415b0 	ldrh	r1, [r4, #80]	; 0x50
    d6c4:	e59f008c 	ldr	r0, [pc, #140]	; d758 <print_firewall+0x5b4>
    d6c8:	11a00003 	movne	r0, r3
    d6cc:	ebfff2de 	bl	a24c <printf@plt>
    d6d0:	eafffeed 	b	d28c <print_firewall+0xe8>
    d6d4:	e59d3000 	ldr	r3, [sp]
    d6d8:	e19410b3 	ldrh	r1, [r4, r3]
    d6dc:	e3510020 	cmp	r1, #32
    d6e0:	0affff89 	beq	d50c <print_firewall+0x368>
    d6e4:	e2411020 	sub	r1, r1, #32
    d6e8:	e59f006c 	ldr	r0, [pc, #108]	; d75c <print_firewall+0x5b8>
    d6ec:	ebfff2d6 	bl	a24c <printf@plt>
    d6f0:	eaffff85 	b	d50c <print_firewall+0x368>
    d6f4:	e1a00007 	mov	r0, r7
    d6f8:	e2841020 	add	r1, r4, #32
[31m    d6fc:	ebfff1dc 	bl	9e74 <strcat@plt>[0m
    d700:	eaffff25 	b	d39c <print_firewall+0x1f8>
    d704:	00016ff4 	.word	0x00016ff4
--
   120d8:	1a000002 	bne	120e8 <print_firewall+0x384>
   120dc:	e3a0000a 	mov	r0, #10
   120e0:	e5991000 	ldr	r1, [r9]
   120e4:	ebffdfe3 	bl	a078 <fputc@plt>
   120e8:	e28dd024 	add	sp, sp, #36	; 0x24
   120ec:	e28dda01 	add	sp, sp, #4096	; 0x1000
   120f0:	e8bd8ff0 	pop	{r4, r5, r6, r7, r8, r9, sl, fp, pc}
   120f4:	e3550000 	cmp	r5, #0
   120f8:	1a00003a 	bne	121e8 <print_firewall+0x484>
   120fc:	e2840010 	add	r0, r4, #16
   12100:	ebffe042 	bl	a210 <xtables_ip6addr_to_anyname@plt>
   12104:	e28d8020 	add	r8, sp, #32
   12108:	e1a01000 	mov	r1, r0
   1210c:	e2488014 	sub	r8, r8, #20
   12110:	e1a00008 	mov	r0, r8
   12114:	ebffe079 	bl	a300 <strcpy@plt>
   12118:	e1a00007 	mov	r0, r7
   1211c:	ebffdf8a 	bl	9f4c <xtables_ip6mask_to_numeric@plt>
   12120:	e1a01000 	mov	r1, r0
   12124:	e1a00008 	mov	r0, r8
[31m   12128:	ebffdf51 	bl	9e74 <strcat@plt>[0m
   1212c:	e59f31d4 	ldr	r3, [pc, #468]	; 12308 <print_firewall+0x5a4>
   12130:	e3560000 	cmp	r6, #0
--
   1215c:	ebffdf1d 	bl	9dd8 <fwrite@plt>
   12160:	e5d43083 	ldrb	r3, [r4, #131]	; 0x83
   12164:	e3130004 	tst	r3, #4
   12168:	0affffaa 	beq	12018 <print_firewall+0x2b4>
   1216c:	e59f01a0 	ldr	r0, [pc, #416]	; 12314 <print_firewall+0x5b0>
   12170:	ebffe035 	bl	a24c <printf@plt>
   12174:	eaffffa7 	b	12018 <print_firewall+0x2b4>
   12178:	e3550000 	cmp	r5, #0
   1217c:	1a000016 	bne	121dc <print_firewall+0x478>
   12180:	e1a00004 	mov	r0, r4
   12184:	ebffe021 	bl	a210 <xtables_ip6addr_to_anyname@plt>
   12188:	e28d8020 	add	r8, sp, #32
   1218c:	e1a01000 	mov	r1, r0
   12190:	e2488014 	sub	r8, r8, #20
   12194:	e1a00008 	mov	r0, r8
   12198:	ebffe058 	bl	a300 <strcpy@plt>
   1219c:	e1a00007 	mov	r0, r7
   121a0:	ebffdf69 	bl	9f4c <xtables_ip6mask_to_numeric@plt>
   121a4:	e1a01000 	mov	r1, r0
   121a8:	e1a00008 	mov	r0, r8
[31m   121ac:	ebffdf30 	bl	9e74 <strcat@plt>[0m
   121b0:	e1a01008 	mov	r1, r8
   121b4:	eaffff78 	b	11f9c <print_firewall+0x238>
--
   1220c:	eafffef3 	b	11de0 <print_firewall+0x7c>
   12210:	e28d7a01 	add	r7, sp, #4096	; 0x1000
   12214:	e287700c 	add	r7, r7, #12
   12218:	e1a00007 	mov	r0, r7
   1221c:	ebffdf44 	bl	9f34 <strlen@plt>
   12220:	e59f10c8 	ldr	r1, [pc, #200]	; 122f0 <print_firewall+0x58c>
   12224:	e0870000 	add	r0, r7, r0
   12228:	e3a02002 	mov	r2, #2
   1222c:	ebffdef5 	bl	9e08 <memcpy@plt>
   12230:	eaffff29 	b	11edc <print_firewall+0x178>
   12234:	e3a01001 	mov	r1, #1
   12238:	e3a02004 	mov	r2, #4
   1223c:	e5993000 	ldr	r3, [r9]
   12240:	e59f00d4 	ldr	r0, [pc, #212]	; 1231c <print_firewall+0x5b8>
   12244:	ebffdee3 	bl	9dd8 <fwrite@plt>
   12248:	eaffff02 	b	11e58 <print_firewall+0xf4>
   1224c:	e28d7a01 	add	r7, sp, #4096	; 0x1000
   12250:	e2841040 	add	r1, r4, #64	; 0x40
   12254:	e287700c 	add	r7, r7, #12
   12258:	e1a00007 	mov	r0, r7
[31m   1225c:	ebffdf04 	bl	9e74 <strcat@plt>[0m
   12260:	eaffff1d 	b	11edc <print_firewall+0x178>
   12264:	e1a00007 	mov	r0, r7
--
   12274:	e3a02004 	mov	r2, #4
   12278:	ebffdee2 	bl	9e08 <memcpy@plt>
   1227c:	eaffff30 	b	11f44 <print_firewall+0x1e0>
   12280:	e59f3098 	ldr	r3, [pc, #152]	; 12320 <print_firewall+0x5bc>
   12284:	e3560000 	cmp	r6, #0
   12288:	e1d418b0 	ldrh	r1, [r4, #128]	; 0x80
   1228c:	e59f0090 	ldr	r0, [pc, #144]	; 12324 <print_firewall+0x5c0>
   12290:	11a00003 	movne	r0, r3
   12294:	ebffdfec 	bl	a24c <printf@plt>
   12298:	eafffeea 	b	11e48 <print_firewall+0xe4>
   1229c:	e59d3000 	ldr	r3, [sp]
   122a0:	e19410b3 	ldrh	r1, [r4, r3]
   122a4:	e3510020 	cmp	r1, #32
   122a8:	0affff89 	beq	120d4 <print_firewall+0x370>
   122ac:	e2411020 	sub	r1, r1, #32
   122b0:	e59f0070 	ldr	r0, [pc, #112]	; 12328 <print_firewall+0x5c4>
   122b4:	ebffdfe4 	bl	a24c <printf@plt>
   122b8:	eaffff85 	b	120d4 <print_firewall+0x370>
   122bc:	e1a00007 	mov	r0, r7
   122c0:	e2841050 	add	r1, r4, #80	; 0x50
[31m   122c4:	ebffdeea 	bl	9e74 <strcat@plt>[0m
   122c8:	eaffff1d 	b	11f44 <print_firewall+0x1e0>
   122cc:	00016ff4 	.word	0x00016ff4

[0m
[[0;33m*[0m] Function [0;33mstrcat[0m used [0;33m8[0m times [0;33mxtables-multi[0m

