[[0;33m*[0m] Binary protection state of [0;33mrc.svn-base[0m
[REF] s12

  	RELRO          CANARY            NX           PIE       RPATH        RUNPATH      SYMBOLS      
  	[31mNo RELRO[0m       [31mNo Canary found[0m   [32mNX enabled[0m   [31mNo PIE[0m       [32mNo RPATH[0m     [32mNo RUNPATH[0m   [32mNo Symbols[0m

[0m
[[0;33m*[0m] Function [0;33mstrcat[0m tear down of [0;33mrc.svn-base[0m

    ae38:	ebfffba1 	bl	9cc4 <snprintf@plt>
    ae3c:	e59b4000 	ldr	r4, [fp]
    ae40:	e3540000 	cmp	r4, #0
    ae44:	0a000015 	beq	aea0 <_start@@Base+0xd80>
    ae48:	e59f7e9c 	ldr	r7, [pc, #3740]	; bcec <_start@@Base+0x1bcc>
    ae4c:	ea000002 	b	ae5c <_start@@Base+0xd3c>
    ae50:	e5b7400c 	ldr	r4, [r7, #12]!
    ae54:	e3540000 	cmp	r4, #0
    ae58:	0a000010 	beq	aea0 <_start@@Base+0xd80>
    ae5c:	e3a02003 	mov	r2, #3
    ae60:	e1a00004 	mov	r0, r4
    ae64:	e59f1e88 	ldr	r1, [pc, #3720]	; bcf4 <_start@@Base+0x1bd4>
    ae68:	ebfffb71 	bl	9c34 <strncmp@plt>
    ae6c:	e3500000 	cmp	r0, #0
    ae70:	1afffff6 	bne	ae50 <_start@@Base+0xd30>
    ae74:	e1a01008 	mov	r1, r8
    ae78:	e1a00005 	mov	r0, r5
    ae7c:	ebfffc9e 	bl	a0fc <strcpy@plt>
    ae80:	e2841003 	add	r1, r4, #3
    ae84:	e1a00005 	mov	r0, r5
[31m    ae88:	ebfffb42 	bl	9b98 <strcat@plt>[0m
    ae8c:	e1a00005 	mov	r0, r5
    ae90:	ebfffb7c 	bl	9c88 <nvram_unset@plt>
--
    aeb0:	ebfffb83 	bl	9cc4 <snprintf@plt>
    aeb4:	e59b4000 	ldr	r4, [fp]
    aeb8:	e3540000 	cmp	r4, #0
    aebc:	0a000015 	beq	af18 <_start@@Base+0xdf8>
    aec0:	e59f7e24 	ldr	r7, [pc, #3620]	; bcec <_start@@Base+0x1bcc>
    aec4:	ea000002 	b	aed4 <_start@@Base+0xdb4>
    aec8:	e5b7400c 	ldr	r4, [r7, #12]!
    aecc:	e3540000 	cmp	r4, #0
    aed0:	0a000010 	beq	af18 <_start@@Base+0xdf8>
    aed4:	e3a02004 	mov	r2, #4
    aed8:	e1a00004 	mov	r0, r4
    aedc:	e59f1fa0 	ldr	r1, [pc, #4000]	; be84 <_start@@Base+0x1d64>
    aee0:	ebfffb53 	bl	9c34 <strncmp@plt>
    aee4:	e3500000 	cmp	r0, #0
    aee8:	1afffff6 	bne	aec8 <_start@@Base+0xda8>
    aeec:	e1a01008 	mov	r1, r8
    aef0:	e1a00005 	mov	r0, r5
    aef4:	ebfffc80 	bl	a0fc <strcpy@plt>
    aef8:	e2841004 	add	r1, r4, #4
    aefc:	e1a00005 	mov	r0, r5
[31m    af00:	ebfffb24 	bl	9b98 <strcat@plt>[0m
    af04:	e1a00005 	mov	r0, r5
    af08:	ebfffb5e 	bl	9c88 <nvram_unset@plt>
--
    c230:	ebfff6a3 	bl	9cc4 <snprintf@plt>
    c234:	e59b4000 	ldr	r4, [fp]
    c238:	e3540000 	cmp	r4, #0
    c23c:	0a000015 	beq	c298 <_start@@Base+0x2178>
    c240:	e51f5370 	ldr	r5, [pc, #-880]	; bed8 <_start@@Base+0x1db8>
    c244:	ea000002 	b	c254 <_start@@Base+0x2134>
    c248:	e5b5400c 	ldr	r4, [r5, #12]!
    c24c:	e3540000 	cmp	r4, #0
    c250:	0a000010 	beq	c298 <_start@@Base+0x2178>
    c254:	e3a02004 	mov	r2, #4
    c258:	e1a00004 	mov	r0, r4
    c25c:	e51f13e0 	ldr	r1, [pc, #-992]	; be84 <_start@@Base+0x1d64>
    c260:	ebfff673 	bl	9c34 <strncmp@plt>
    c264:	e3500000 	cmp	r0, #0
    c268:	1afffff6 	bne	c248 <_start@@Base+0x2128>
    c26c:	e1a01008 	mov	r1, r8
    c270:	e1a00007 	mov	r0, r7
    c274:	ebfff7a0 	bl	a0fc <strcpy@plt>
    c278:	e2841004 	add	r1, r4, #4
    c27c:	e1a00007 	mov	r0, r7
[31m    c280:	ebfff644 	bl	9b98 <strcat@plt>[0m
    c284:	e1a00007 	mov	r0, r7
    c288:	ebfff67e 	bl	9c88 <nvram_unset@plt>
--
    c584:	ebfff5ce 	bl	9cc4 <snprintf@plt>
    c588:	e59b4000 	ldr	r4, [fp]
    c58c:	e3540000 	cmp	r4, #0
    c590:	151f56c0 	ldrne	r5, [pc, #-1728]	; bed8 <_start@@Base+0x1db8>
    c594:	1a000003 	bne	c5a8 <_start@@Base+0x2488>
    c598:	ea000019 	b	c604 <_start@@Base+0x24e4>
    c59c:	e5b5400c 	ldr	r4, [r5, #12]!
    c5a0:	e3540000 	cmp	r4, #0
    c5a4:	0a000016 	beq	c604 <_start@@Base+0x24e4>
    c5a8:	e3a02004 	mov	r2, #4
    c5ac:	e1a00004 	mov	r0, r4
    c5b0:	e51f1734 	ldr	r1, [pc, #-1844]	; be84 <_start@@Base+0x1d64>
    c5b4:	ebfff59e 	bl	9c34 <strncmp@plt>
    c5b8:	e3500000 	cmp	r0, #0
    c5bc:	1afffff6 	bne	c59c <_start@@Base+0x247c>
    c5c0:	e1a01008 	mov	r1, r8
    c5c4:	e1a00007 	mov	r0, r7
    c5c8:	ebfff6cb 	bl	a0fc <strcpy@plt>
    c5cc:	e2841004 	add	r1, r4, #4
    c5d0:	e1a00007 	mov	r0, r7
[31m    c5d4:	ebfff56f 	bl	9b98 <strcat@plt>[0m
    c5d8:	e1a00007 	mov	r0, r7
    c5dc:	ebfff5dc 	bl	9d54 <nvram_get@plt>
--
   1a3b8:	e1cc30b0 	strh	r3, [ip]
   1a3bc:	e5c5200e 	strb	r2, [r5, #14]
   1a3c0:	ebffffd9 	bl	1a32c <_start@@Base+0x1020c>
   1a3c4:	e2503000 	subs	r3, r0, #0
   1a3c8:	b3e00000 	mvnlt	r0, #0
   1a3cc:	ba000075 	blt	1a5a8 <_start@@Base+0x10488>
   1a3d0:	e3a0100f 	mov	r1, #15
   1a3d4:	e59f21f4 	ldr	r2, [pc, #500]	; 1a5d0 <_start@@Base+0x104b0>
   1a3d8:	e1a00005 	mov	r0, r5
   1a3dc:	e28d4f41 	add	r4, sp, #260	; 0x104
   1a3e0:	ebffbe37 	bl	9cc4 <snprintf@plt>
   1a3e4:	e59f31e8 	ldr	r3, [pc, #488]	; 1a5d4 <_start@@Base+0x104b4>
   1a3e8:	e1a0c004 	mov	ip, r4
   1a3ec:	e893000f 	ldm	r3, {r0, r1, r2, r3}
   1a3f0:	e8ac0007 	stmia	ip!, {r0, r1, r2}
   1a3f4:	e1a01006 	mov	r1, r6
   1a3f8:	e1a02823 	lsr	r2, r3, #16
   1a3fc:	e1cc30b0 	strh	r3, [ip]
   1a400:	e1a00004 	mov	r0, r4
   1a404:	e5cd2112 	strb	r2, [sp, #274]	; 0x112
[31m   1a408:	ebffbde2 	bl	9b98 <strcat@plt>[0m
   1a40c:	e1a00004 	mov	r0, r4
   1a410:	e59f11c0 	ldr	r1, [pc, #448]	; 1a5d8 <_start@@Base+0x104b8>
--
   1a648:	ebffff37 	bl	1a32c <_start@@Base+0x1020c>
   1a64c:	e2503000 	subs	r3, r0, #0
   1a650:	b3e00000 	mvnlt	r0, #0
   1a654:	ba000015 	blt	1a6b0 <_start@@Base+0x10590>
   1a658:	e3a0100f 	mov	r1, #15
   1a65c:	e59f2060 	ldr	r2, [pc, #96]	; 1a6c4 <_start@@Base+0x105a4>
   1a660:	e1a00004 	mov	r0, r4
   1a664:	e28d4004 	add	r4, sp, #4
   1a668:	ebffbd95 	bl	9cc4 <snprintf@plt>
   1a66c:	e1a00005 	mov	r0, r5
   1a670:	ebffdaba 	bl	11160 <_start@@Base+0x7040>
   1a674:	e59f304c 	ldr	r3, [pc, #76]	; 1a6c8 <_start@@Base+0x105a8>
   1a678:	e1a0c004 	mov	ip, r4
   1a67c:	e893000f 	ldm	r3, {r0, r1, r2, r3}
   1a680:	e8ac0007 	stmia	ip!, {r0, r1, r2}
   1a684:	e1a01005 	mov	r1, r5
   1a688:	e1a02823 	lsr	r2, r3, #16
   1a68c:	e1cc30b0 	strh	r3, [ip]
   1a690:	e1a00004 	mov	r0, r4
   1a694:	e5cd2012 	strb	r2, [sp, #18]
[31m   1a698:	ebffbd3e 	bl	9b98 <strcat@plt>[0m
   1a69c:	e1a00004 	mov	r0, r4
   1a6a0:	ebffbe14 	bl	9ef8 <unlink@plt>

[0m
[[0;33m*[0m] Function [0;33mstrcat[0m used [0;33m6[0m times [0;33mrc.svn-base[0m

