[[0;33m*[0m] Binary protection state of [0;33mlibupnp.so.svn-base[0m
[REF] s12

  	RELRO          CANARY            NX           PIE       RPATH        RUNPATH      SYMBOLS      
  	[31mNo RELRO[0m       [31mNo Canary found[0m   [32mNX enabled[0m   [33mDSO[0m          [32mNo RPATH[0m     [32mNo RUNPATH[0m   [32mNo Symbols[0m

[0m
[[0;33m*[0m] Function [0;33msprintf[0m tear down of [0;33mlibupnp.so.svn-base[0m

    27e0:	e59f40cc 	ldr	r4, [pc, #204]	; 28b4 <ssdp_response+0x108>
    27e4:	e1a00007 	mov	r0, r7
    27e8:	ebfffd53 	bl	1d3c <upnp_gmt_time@plt>
    27ec:	e59f10c4 	ldr	r1, [pc, #196]	; 28b8 <ssdp_response+0x10c>
    27f0:	e2850d83 	add	r0, r5, #8384	; 0x20c0
    27f4:	e59fe0c0 	ldr	lr, [pc, #192]	; 28bc <ssdp_response+0x110>
    27f8:	e08f4004 	add	r4, pc, r4
    27fc:	e59fc0bc 	ldr	ip, [pc, #188]	; 28c0 <ssdp_response+0x114>
    2800:	e280000c 	add	r0, r0, #12
    2804:	e595200c 	ldr	r2, [r5, #12]
    2808:	e0841001 	add	r1, r4, r1
    280c:	e58d8000 	str	r8, [sp]
    2810:	e084e00e 	add	lr, r4, lr
    2814:	e59a8000 	ldr	r8, [sl]
    2818:	e084c00c 	add	ip, r4, ip
    281c:	e1a03007 	mov	r3, r7
    2820:	e58de008 	str	lr, [sp, #8]
    2824:	e58dc00c 	str	ip, [sp, #12]
    2828:	e2466002 	sub	r6, r6, #2
    282c:	e58d8004 	str	r8, [sp, #4]
[31m    2830:	ebfffd5f 	bl	1db4 <sprintf@plt>[0m
    2834:	e0850000 	add	r0, r5, r0
    2838:	e2800d83 	add	r0, r0, #8384	; 0x20c0
    283c:	e280000c 	add	r0, r0, #12
    2840:	e3560003 	cmp	r6, #3
    2844:	908ff106 	addls	pc, pc, r6, lsl #2
    2848:	ea000007 	b	286c <ssdp_response+0xc0>
    284c:	ea000002 	b	285c <ssdp_response+0xb0>
    2850:	ea000011 	b	289c <ssdp_response+0xf0>
    2854:	ea000008 	b	287c <ssdp_response+0xd0>
    2858:	ea000007 	b	287c <ssdp_response+0xd0>
    285c:	e59f1060 	ldr	r1, [pc, #96]	; 28c4 <ssdp_response+0x118>
    2860:	e2892004 	add	r2, r9, #4
    2864:	e0841001 	add	r1, r4, r1
[31m    2868:	ebfffd51 	bl	1db4 <sprintf@plt>[0m
    286c:	e1a00005 	mov	r0, r5
    2870:	ebfffd3d 	bl	1d6c <ssdp_send@plt>
    2874:	e28dd068 	add	sp, sp, #104	; 0x68
    2878:	e8bd87f0 	pop	{r4, r5, r6, r7, r8, r9, sl, pc}
    287c:	e1a03009 	mov	r3, r9
    2880:	e59f1040 	ldr	r1, [pc, #64]	; 28c8 <ssdp_response+0x11c>
    2884:	e493c004 	ldr	ip, [r3], #4
    2888:	e0841001 	add	r1, r4, r1
    288c:	e1a0200c 	mov	r2, ip
    2890:	e58dc000 	str	ip, [sp]
[31m    2894:	ebfffd46 	bl	1db4 <sprintf@plt>[0m
    2898:	eafffff3 	b	286c <ssdp_response+0xc0>
    289c:	e59f1028 	ldr	r1, [pc, #40]	; 28cc <ssdp_response+0x120>
    28a0:	e2892004 	add	r2, r9, #4
    28a4:	e1a03002 	mov	r3, r2
    28a8:	e0841001 	add	r1, r4, r1
[31m    28ac:	ebfffd40 	bl	1db4 <sprintf@plt>[0m
    28b0:	eaffffed 	b	286c <ssdp_response+0xc0>
    28b4:	0000de2c 	andeq	sp, r0, ip, lsr #28
--
    2904:	0a000025 	beq	29a0 <ssdp_notify+0xd0>
    2908:	e59f10ec 	ldr	r1, [pc, #236]	; 29fc <ssdp_notify+0x12c>
    290c:	e1a00008 	mov	r0, r8
    2910:	e3a02042 	mov	r2, #66	; 0x42
    2914:	e0841001 	add	r1, r4, r1
    2918:	ebfffc71 	bl	1ae4 <memcpy@plt>
    291c:	e3a00041 	mov	r0, #65	; 0x41
    2920:	e0850000 	add	r0, r5, r0
    2924:	e2800d83 	add	r0, r0, #8384	; 0x20c0
    2928:	e280000c 	add	r0, r0, #12
    292c:	e3560003 	cmp	r6, #3
    2930:	908ff106 	addls	pc, pc, r6, lsl #2
    2934:	ea000007 	b	2958 <ssdp_notify+0x88>
    2938:	ea00000a 	b	2968 <ssdp_notify+0x98>
    293c:	ea000009 	b	2968 <ssdp_notify+0x98>
    2940:	ea000010 	b	2988 <ssdp_notify+0xb8>
    2944:	eaffffff 	b	2948 <ssdp_notify+0x78>
    2948:	e59f10b0 	ldr	r1, [pc, #176]	; 2a00 <ssdp_notify+0x130>
    294c:	e2872004 	add	r2, r7, #4
    2950:	e0841001 	add	r1, r4, r1
[31m    2954:	ebfffd16 	bl	1db4 <sprintf@plt>[0m
    2958:	e1a00005 	mov	r0, r5
    295c:	ebfffd02 	bl	1d6c <ssdp_send@plt>
    2960:	e28dd028 	add	sp, sp, #40	; 0x28
    2964:	e8bd87f0 	pop	{r4, r5, r6, r7, r8, r9, sl, pc}
    2968:	e1a03007 	mov	r3, r7
    296c:	e59f1090 	ldr	r1, [pc, #144]	; 2a04 <ssdp_notify+0x134>
    2970:	e493c004 	ldr	ip, [r3], #4
    2974:	e0841001 	add	r1, r4, r1
    2978:	e1a0200c 	mov	r2, ip
    297c:	e58dc000 	str	ip, [sp]
[31m    2980:	ebfffd0b 	bl	1db4 <sprintf@plt>[0m
    2984:	eafffff3 	b	2958 <ssdp_notify+0x88>
    2988:	e59f1078 	ldr	r1, [pc, #120]	; 2a08 <ssdp_notify+0x138>
    298c:	e2872004 	add	r2, r7, #4
    2990:	e1a03002 	mov	r3, r2
    2994:	e0841001 	add	r1, r4, r1
[31m    2998:	ebfffd05 	bl	1db4 <sprintf@plt>[0m
    299c:	eaffffed 	b	2958 <ssdp_notify+0x88>
    29a0:	e590a004 	ldr	sl, [r0, #4]
    29a4:	e28d9010 	add	r9, sp, #16
    29a8:	e1a00009 	mov	r0, r9
    29ac:	e1d520b8 	ldrh	r2, [r5, #8]
    29b0:	e59a101c 	ldr	r1, [sl, #28]
    29b4:	ebfffd13 	bl	1e08 <upnp_host_addr@plt>
    29b8:	e59a102c 	ldr	r1, [sl, #44]	; 0x2c
    29bc:	e1a00008 	mov	r0, r8
    29c0:	e59fe044 	ldr	lr, [pc, #68]	; 2a0c <ssdp_notify+0x13c>
    29c4:	e1a03009 	mov	r3, r9
    29c8:	e59fc040 	ldr	ip, [pc, #64]	; 2a10 <ssdp_notify+0x140>
    29cc:	e5918000 	ldr	r8, [r1]
    29d0:	e59f103c 	ldr	r1, [pc, #60]	; 2a14 <ssdp_notify+0x144>
    29d4:	e084e00e 	add	lr, r4, lr
    29d8:	e595200c 	ldr	r2, [r5, #12]
    29dc:	e084c00c 	add	ip, r4, ip
    29e0:	e58de004 	str	lr, [sp, #4]
    29e4:	e0841001 	add	r1, r4, r1
    29e8:	e58d8000 	str	r8, [sp]
    29ec:	e58dc008 	str	ip, [sp, #8]
[31m    29f0:	ebfffcef 	bl	1db4 <sprintf@plt>[0m
    29f4:	eaffffc9 	b	2920 <ssdp_notify+0x50>
    29f8:	0000dd34 	andeq	sp, r0, r4, lsr sp
--
    34cc:	e1530002 	cmp	r3, r2
    34d0:	0a000009 	beq	34fc <upnp_http_process+0xcc>
    34d4:	ca00001f 	bgt	3558 <upnp_http_process+0x128>
    34d8:	e3002193 	movw	r2, #403	; 0x193
    34dc:	e1530002 	cmp	r3, r2
    34e0:	0a00002f 	beq	35a4 <upnp_http_process+0x174>
    34e4:	ca000025 	bgt	3580 <upnp_http_process+0x150>
    34e8:	e3530e19 	cmp	r3, #400	; 0x190
    34ec:	1a000015 	bne	3548 <upnp_http_process+0x118>
    34f0:	e59fa0ec 	ldr	sl, [pc, #236]	; 35e4 <upnp_http_process+0x1b4>
    34f4:	e086a00a 	add	sl, r6, sl
    34f8:	ea000001 	b	3504 <upnp_http_process+0xd4>
    34fc:	e59fa0e4 	ldr	sl, [pc, #228]	; 35e8 <upnp_http_process+0x1b8>
    3500:	e086a00a 	add	sl, r6, sl
    3504:	e59f10e0 	ldr	r1, [pc, #224]	; 35ec <upnp_http_process+0x1bc>
    3508:	e2854d83 	add	r4, r5, #8384	; 0x20c0
    350c:	e284400c 	add	r4, r4, #12
    3510:	e1a0200a 	mov	r2, sl
    3514:	e1a00004 	mov	r0, r4
    3518:	e0861001 	add	r1, r6, r1
[31m    351c:	ebfffa24 	bl	1db4 <sprintf@plt>[0m
    3520:	e59530ac 	ldr	r3, [r5, #172]	; 0xac
    3524:	e1a08000 	mov	r8, r0
--
    357c:	eaffffe0 	b	3504 <upnp_http_process+0xd4>
    3580:	e59fa06c 	ldr	sl, [pc, #108]	; 35f4 <upnp_http_process+0x1c4>
    3584:	e086a00a 	add	sl, r6, sl
    3588:	eaffffdd 	b	3504 <upnp_http_process+0xd4>
    358c:	e59fa064 	ldr	sl, [pc, #100]	; 35f8 <upnp_http_process+0x1c8>
    3590:	e086a00a 	add	sl, r6, sl
    3594:	eaffffda 	b	3504 <upnp_http_process+0xd4>
    3598:	e59fa05c 	ldr	sl, [pc, #92]	; 35fc <upnp_http_process+0x1cc>
    359c:	e086a00a 	add	sl, r6, sl
    35a0:	eaffffd7 	b	3504 <upnp_http_process+0xd4>
    35a4:	e59fa054 	ldr	sl, [pc, #84]	; 3600 <upnp_http_process+0x1d0>
    35a8:	e086a00a 	add	sl, r6, sl
    35ac:	eaffffd4 	b	3504 <upnp_http_process+0xd4>
    35b0:	e59f104c 	ldr	r1, [pc, #76]	; 3604 <upnp_http_process+0x1d4>
    35b4:	e0850000 	add	r0, r5, r0
    35b8:	e2800d83 	add	r0, r0, #8384	; 0x20c0
    35bc:	e1a0200a 	mov	r2, sl
    35c0:	e280000c 	add	r0, r0, #12
    35c4:	e1a0300a 	mov	r3, sl
    35c8:	e0861001 	add	r1, r6, r1
[31m    35cc:	ebfff9f8 	bl	1db4 <sprintf@plt>[0m
    35d0:	e0888000 	add	r8, r8, r0
    35d4:	eaffffd6 	b	3534 <upnp_http_process+0x104>
--
    3bc8:	e5973008 	ldr	r3, [r7, #8]
    3bcc:	e3530000 	cmp	r3, #0
    3bd0:	12878010 	addne	r8, r7, #16
    3bd4:	1affffe9 	bne	3b80 <submit_prop_event_message+0x60>
    3bd8:	e2878010 	add	r8, r7, #16
    3bdc:	e594300c 	ldr	r3, [r4, #12]
    3be0:	e1a00005 	mov	r0, r5
    3be4:	e59d1014 	ldr	r1, [sp, #20]
    3be8:	e1a02008 	mov	r2, r8
    3bec:	e12fff33 	blx	r3
    3bf0:	e3500000 	cmp	r0, #0
    3bf4:	03a03001 	moveq	r3, #1
    3bf8:	05873008 	streq	r3, [r7, #8]
    3bfc:	eaffffdf 	b	3b80 <submit_prop_event_message+0x60>
    3c00:	e594c004 	ldr	ip, [r4, #4]
    3c04:	e1a0000a 	mov	r0, sl
    3c08:	e597305c 	ldr	r3, [r7, #92]	; 0x5c
    3c0c:	e59d1010 	ldr	r1, [sp, #16]
    3c10:	e1a0200c 	mov	r2, ip
    3c14:	e58dc000 	str	ip, [sp]
[31m    3c18:	ebfff865 	bl	1db4 <sprintf@plt>[0m
    3c1c:	e5944000 	ldr	r4, [r4]
    3c20:	e08aa000 	add	sl, sl, r0
--
    3c48:	e280000c 	add	r0, r0, #12
    3c4c:	e08b1001 	add	r1, fp, r1
    3c50:	ebfff7a3 	bl	1ae4 <memcpy@plt>
    3c54:	e5961008 	ldr	r1, [r6, #8]
    3c58:	e1a00004 	mov	r0, r4
    3c5c:	e1d620bc 	ldrh	r2, [r6, #12]
    3c60:	ebfff868 	bl	1e08 <upnp_host_addr@plt>
    3c64:	e1a00009 	mov	r0, r9
    3c68:	ebfff88d 	bl	1ea4 <strlen@plt>
    3c6c:	e59f104c 	ldr	r1, [pc, #76]	; 3cc0 <submit_prop_event_message+0x1a0>
    3c70:	e286c014 	add	ip, r6, #20
    3c74:	e596e048 	ldr	lr, [r6, #72]	; 0x48
    3c78:	e1a03004 	mov	r3, r4
    3c7c:	e5962010 	ldr	r2, [r6, #16]
    3c80:	e58d0000 	str	r0, [sp]
    3c84:	e2850d83 	add	r0, r5, #8384	; 0x20c0
    3c88:	e08b1001 	add	r1, fp, r1
    3c8c:	e280000c 	add	r0, r0, #12
    3c90:	e98d5000 	stmib	sp, {ip, lr}
    3c94:	e58d900c 	str	r9, [sp, #12]
[31m    3c98:	ebfff845 	bl	1db4 <sprintf@plt>[0m
    3c9c:	e1a00005 	mov	r0, r5
    3ca0:	e1a01006 	mov	r1, r6
--
    3f7c:	e19460b3 	ldrh	r6, [r4, r3]
    3f80:	e2866001 	add	r6, r6, #1
    3f84:	e6ff6076 	uxth	r6, r6
    3f88:	e18460b3 	strh	r6, [r4, r3]
    3f8c:	ebfff6d1 	bl	1ad8 <getpid@plt>
    3f90:	e3570023 	cmp	r7, #35	; 0x23
    3f94:	e1a05000 	mov	r5, r0
    3f98:	93a00000 	movls	r0, #0
    3f9c:	9a00000c 	bls	3fd4 <get_unique_id+0x74>
    3fa0:	e3a00000 	mov	r0, #0
    3fa4:	ebfff76d 	bl	1d60 <time@plt>
    3fa8:	e59f1034 	ldr	r1, [pc, #52]	; 3fe4 <get_unique_id+0x84>
    3fac:	e1a02000 	mov	r2, r0
    3fb0:	e1a03005 	mov	r3, r5
    3fb4:	e1a00008 	mov	r0, r8
    3fb8:	e58d5000 	str	r5, [sp]
    3fbc:	e0841001 	add	r1, r4, r1
    3fc0:	e58d5004 	str	r5, [sp, #4]
    3fc4:	e58d5008 	str	r5, [sp, #8]
    3fc8:	e58d600c 	str	r6, [sp, #12]
[31m    3fcc:	ebfff778 	bl	1db4 <sprintf@plt>[0m
    3fd0:	e3a00001 	mov	r0, #1
    3fd4:	e28dd010 	add	sp, sp, #16
--
    4104:	e59d301c 	ldr	r3, [sp, #28]
    4108:	e3530000 	cmp	r3, #0
    410c:	13a03000 	movne	r3, #0
    4110:	15843044 	strne	r3, [r4, #68]	; 0x44
    4114:	0a000091 	beq	4360 <subscribe+0x378>
    4118:	e28db060 	add	fp, sp, #96	; 0x60
    411c:	e287ad83 	add	sl, r7, #8384	; 0x20c0
    4120:	e1a0000b 	mov	r0, fp
    4124:	e28aa00c 	add	sl, sl, #12
    4128:	ebfff703 	bl	1d3c <upnp_gmt_time@plt>
    412c:	e59f12a0 	ldr	r1, [pc, #672]	; 43d4 <subscribe+0x3ec>
    4130:	e1a0000a 	mov	r0, sl
    4134:	e59f229c 	ldr	r2, [pc, #668]	; 43d8 <subscribe+0x3f0>
    4138:	e59f329c 	ldr	r3, [pc, #668]	; 43dc <subscribe+0x3f4>
    413c:	e0861001 	add	r1, r6, r1
    4140:	e58db000 	str	fp, [sp]
    4144:	e0862002 	add	r2, r6, r2
    4148:	e58d5004 	str	r5, [sp, #4]
    414c:	e0863003 	add	r3, r6, r3
    4150:	e58d8008 	str	r8, [sp, #8]
[31m    4154:	ebfff716 	bl	1db4 <sprintf@plt>[0m
    4158:	e1a0000a 	mov	r0, sl
    415c:	ebfff750 	bl	1ea4 <strlen@plt>
--
    4350:	e1a01009 	mov	r1, r9
    4354:	e1a02005 	mov	r2, r5
    4358:	ebfff6dd 	bl	1ed4 <gena_notify@plt>
    435c:	eaffff87 	b	4180 <subscribe+0x198>
    4360:	e59d001c 	ldr	r0, [sp, #28]
    4364:	ebfff67d 	bl	1d60 <time@plt>
    4368:	e080000b 	add	r0, r0, fp
    436c:	e3500000 	cmp	r0, #0
    4370:	e5840044 	str	r0, [r4, #68]	; 0x44
    4374:	03a03001 	moveq	r3, #1
    4378:	05843044 	streq	r3, [r4, #68]	; 0x44
    437c:	eaffff65 	b	4118 <subscribe+0x130>
    4380:	e59f105c 	ldr	r1, [pc, #92]	; 43e4 <subscribe+0x3fc>
    4384:	e28d8020 	add	r8, sp, #32
    4388:	e3a02ee1 	mov	r2, #3600	; 0xe10
    438c:	e3a03000 	mov	r3, #0
    4390:	e1a00008 	mov	r0, r8
    4394:	e1a0b002 	mov	fp, r2
    4398:	e0861001 	add	r1, r6, r1
    439c:	e58d301c 	str	r3, [sp, #28]
[31m    43a0:	ebfff683 	bl	1db4 <sprintf@plt>[0m
    43a4:	eaffff3e 	b	40a4 <subscribe+0xbc>
    43a8:	e3a00f7d 	mov	r0, #500	; 0x1f4
--
    4bac:	e28d7008 	add	r7, sp, #8
    4bb0:	e1a06000 	mov	r6, r0
    4bb4:	e1a00007 	mov	r0, r7
    4bb8:	e1a08001 	mov	r8, r1
    4bbc:	e59f4058 	ldr	r4, [pc, #88]	; 4c1c <gena_shutdown+0x2ec>
    4bc0:	e2865d83 	add	r5, r6, #8384	; 0x20c0
    4bc4:	ebfff45c 	bl	1d3c <upnp_gmt_time@plt>
    4bc8:	e59f1050 	ldr	r1, [pc, #80]	; 4c20 <gena_shutdown+0x2f0>
    4bcc:	e285500c 	add	r5, r5, #12
    4bd0:	e59fe04c 	ldr	lr, [pc, #76]	; 4c24 <gena_shutdown+0x2f4>
    4bd4:	e08f4004 	add	r4, pc, r4
    4bd8:	e59fc048 	ldr	ip, [pc, #72]	; 4c28 <gena_shutdown+0x2f8>
    4bdc:	e1a02008 	mov	r2, r8
    4be0:	e0841001 	add	r1, r4, r1
    4be4:	e1a03007 	mov	r3, r7
    4be8:	e084e00e 	add	lr, r4, lr
    4bec:	e1a00005 	mov	r0, r5
    4bf0:	e084c00c 	add	ip, r4, ip
    4bf4:	e58de000 	str	lr, [sp]
    4bf8:	e58dc004 	str	ip, [sp, #4]
[31m    4bfc:	ebfff46c 	bl	1db4 <sprintf@plt>[0m
    4c00:	e1a01005 	mov	r1, r5
    4c04:	e1a02000 	mov	r2, r0
--
    4ec4:	e08f4004 	add	r4, pc, r4
    4ec8:	0a00003e 	beq	4fc8 <soap_send_error+0x120>
    4ecc:	da000028 	ble	4f74 <soap_send_error+0xcc>
    4ed0:	e3003259 	movw	r3, #601	; 0x259
    4ed4:	e1510003 	cmp	r1, r3
    4ed8:	0a000034 	beq	4fb0 <soap_send_error+0x108>
    4edc:	e300325b 	movw	r3, #603	; 0x25b
    4ee0:	e1510003 	cmp	r1, r3
    4ee4:	0a00002b 	beq	4f98 <soap_send_error+0xf0>
    4ee8:	e3510f96 	cmp	r1, #600	; 0x258
    4eec:	0a00002c 	beq	4fa4 <soap_send_error+0xfc>
    4ef0:	e287302c 	add	r3, r7, #44	; 0x2c
    4ef4:	e59f10dc 	ldr	r1, [pc, #220]	; 4fd8 <soap_send_error+0x130>
    4ef8:	e2876dc3 	add	r6, r7, #12480	; 0x30c0
    4efc:	e286600c 	add	r6, r6, #12
    4f00:	e28d8010 	add	r8, sp, #16
    4f04:	e1a00006 	mov	r0, r6
    4f08:	e2875d83 	add	r5, r7, #8384	; 0x20c0
    4f0c:	e0841001 	add	r1, r4, r1
    4f10:	e285500c 	add	r5, r5, #12
[31m    4f14:	ebfff3a6 	bl	1db4 <sprintf@plt>[0m
    4f18:	e1a0a000 	mov	sl, r0
    4f1c:	e1a00008 	mov	r0, r8
    4f20:	ebfff385 	bl	1d3c <upnp_gmt_time@plt>
    4f24:	e59fe0b0 	ldr	lr, [pc, #176]	; 4fdc <soap_send_error+0x134>
    4f28:	e1a0200a 	mov	r2, sl
    4f2c:	e59f10ac 	ldr	r1, [pc, #172]	; 4fe0 <soap_send_error+0x138>
    4f30:	e1a03008 	mov	r3, r8
    4f34:	e59fc0a8 	ldr	ip, [pc, #168]	; 4fe4 <soap_send_error+0x13c>
    4f38:	e1a00005 	mov	r0, r5
    4f3c:	e58d6008 	str	r6, [sp, #8]
    4f40:	e0841001 	add	r1, r4, r1
    4f44:	e084c00c 	add	ip, r4, ip
    4f48:	e084400e 	add	r4, r4, lr
    4f4c:	e58dc000 	str	ip, [sp]
    4f50:	e58d4004 	str	r4, [sp, #4]
[31m    4f54:	ebfff396 	bl	1db4 <sprintf@plt>[0m
    4f58:	e1a01005 	mov	r1, r5
    4f5c:	e1a02000 	mov	r2, r0
--
    4ff4:	ffff776c 			; <UNDEFINED> instruction: 0xffff776c
    4ff8:	ffff7720 			; <UNDEFINED> instruction: 0xffff7720
    4ffc:	ffff7744 			; <UNDEFINED> instruction: 0xffff7744

00005000 <send_action_response>:
    5000:	e59f31d8 	ldr	r3, [pc, #472]	; 51e0 <send_action_response+0x1e0>
    5004:	e92d4ff0 	push	{r4, r5, r6, r7, r8, r9, sl, fp, lr}
    5008:	e2804dc3 	add	r4, r0, #12480	; 0x30c0
    500c:	e59f51d0 	ldr	r5, [pc, #464]	; 51e4 <send_action_response+0x1e4>
    5010:	e24dd014 	sub	sp, sp, #20
    5014:	e08f3003 	add	r3, pc, r3
    5018:	e1a08001 	mov	r8, r1
    501c:	e284400c 	add	r4, r4, #12
    5020:	e58d3008 	str	r3, [sp, #8]
    5024:	e1a0a002 	mov	sl, r2
    5028:	e0831005 	add	r1, r3, r5
    502c:	e5922000 	ldr	r2, [r2]
    5030:	e1a06000 	mov	r6, r0
    5034:	e5983008 	ldr	r3, [r8, #8]
    5038:	e1a00004 	mov	r0, r4
[31m    503c:	ebfff35c 	bl	1db4 <sprintf@plt>[0m
    5040:	e59a200c 	ldr	r2, [sl, #12]
    5044:	e1a07000 	mov	r7, r0
--
    5068:	e5990000 	ldr	r0, [r9]
    506c:	e28bb001 	add	fp, fp, #1
    5070:	ebfff38b 	bl	1ea4 <strlen@plt>
    5074:	e5993058 	ldr	r3, [r9, #88]	; 0x58
    5078:	e2802002 	add	r2, r0, #2
    507c:	e0827007 	add	r7, r2, r7
    5080:	e15b0004 	cmp	fp, r4
    5084:	e2800005 	add	r0, r0, #5
    5088:	e289905c 	add	r9, r9, #92	; 0x5c
    508c:	e0877003 	add	r7, r7, r3
    5090:	e0807007 	add	r7, r0, r7
    5094:	1afffff3 	bne	5068 <send_action_response+0x68>
    5098:	e1a04005 	mov	r4, r5
    509c:	e59d5004 	ldr	r5, [sp, #4]
    50a0:	e59fc140 	ldr	ip, [pc, #320]	; 51e8 <send_action_response+0x1e8>
    50a4:	e1a00004 	mov	r0, r4
    50a8:	e59d3008 	ldr	r3, [sp, #8]
    50ac:	e59a2000 	ldr	r2, [sl]
    50b0:	e58dc00c 	str	ip, [sp, #12]
    50b4:	e083100c 	add	r1, r3, ip
[31m    50b8:	ebfff33d 	bl	1db4 <sprintf@plt>[0m
    50bc:	e0801007 	add	r1, r0, r7
    50c0:	e1a00006 	mov	r0, r6
    50c4:	ebfffeb6 	bl	4ba4 <gena_shutdown+0x274>
    50c8:	e59dc008 	ldr	ip, [sp, #8]
    50cc:	e1a00004 	mov	r0, r4
    50d0:	e59a2000 	ldr	r2, [sl]
    50d4:	e5983008 	ldr	r3, [r8, #8]
    50d8:	e08c1005 	add	r1, ip, r5
[31m    50dc:	ebfff334 	bl	1db4 <sprintf@plt>[0m
    50e0:	e3a03000 	mov	r3, #0
    50e4:	e1a02000 	mov	r2, r0
    50e8:	e1a01004 	mov	r1, r4
    50ec:	e5960024 	ldr	r0, [r6, #36]	; 0x24
    50f0:	ebfff2b4 	bl	1bc8 <send@plt>
    50f4:	e59a300c 	ldr	r3, [sl, #12]
    50f8:	e3530000 	cmp	r3, #0
    50fc:	da00002a 	ble	51ac <send_action_response+0x1ac>
    5100:	e59d2008 	ldr	r2, [sp, #8]
    5104:	e3a05000 	mov	r5, #0
    5108:	e59f30dc 	ldr	r3, [pc, #220]	; 51ec <send_action_response+0x1ec>
    510c:	e1a08005 	mov	r8, r5
    5110:	e59fb0d8 	ldr	fp, [pc, #216]	; 51f0 <send_action_response+0x1f0>
    5114:	e30398d8 	movw	r9, #14552	; 0x38d8
    5118:	e0823003 	add	r3, r2, r3
    511c:	e082b00b 	add	fp, r2, fp
    5120:	e58d3004 	str	r3, [sp, #4]
    5124:	ea00000b 	b	5158 <send_action_response+0x158>
    5128:	e59d1004 	ldr	r1, [sp, #4]
    512c:	e1a00004 	mov	r0, r4
    5130:	e5972000 	ldr	r2, [r7]
[31m    5134:	ebfff31e 	bl	1db4 <sprintf@plt>[0m
    5138:	e3a03000 	mov	r3, #0
    513c:	e1a02000 	mov	r2, r0
    5140:	e1a01004 	mov	r1, r4
    5144:	e5960024 	ldr	r0, [r6, #36]	; 0x24
    5148:	ebfff29e 	bl	1bc8 <send@plt>
    514c:	e59a300c 	ldr	r3, [sl, #12]
    5150:	e1530008 	cmp	r3, r8
    5154:	da000014 	ble	51ac <send_action_response+0x1ac>
    5158:	e7967009 	ldr	r7, [r6, r9]
    515c:	e1a0100b 	mov	r1, fp
    5160:	e1a00004 	mov	r0, r4
    5164:	e2888001 	add	r8, r8, #1
    5168:	e7972005 	ldr	r2, [r7, r5]
    516c:	e0877005 	add	r7, r7, r5
[31m    5170:	ebfff30f 	bl	1db4 <sprintf@plt>[0m
    5174:	e3a03000 	mov	r3, #0
    5178:	e1a02000 	mov	r2, r0
    517c:	e1a01004 	mov	r1, r4
    5180:	e5960024 	ldr	r0, [r6, #36]	; 0x24
    5184:	ebfff28f 	bl	1bc8 <send@plt>
    5188:	e5972058 	ldr	r2, [r7, #88]	; 0x58
    518c:	e285505c 	add	r5, r5, #92	; 0x5c
    5190:	e3520000 	cmp	r2, #0
    5194:	0affffe3 	beq	5128 <send_action_response+0x128>
    5198:	e3a03000 	mov	r3, #0
    519c:	e5971054 	ldr	r1, [r7, #84]	; 0x54
    51a0:	e5960024 	ldr	r0, [r6, #36]	; 0x24
    51a4:	ebfff287 	bl	1bc8 <send@plt>
    51a8:	eaffffde 	b	5128 <send_action_response+0x128>
    51ac:	e59d3008 	ldr	r3, [sp, #8]
    51b0:	e1a00004 	mov	r0, r4
    51b4:	e59dc00c 	ldr	ip, [sp, #12]
    51b8:	e59a2000 	ldr	r2, [sl]
    51bc:	e083100c 	add	r1, r3, ip
[31m    51c0:	ebfff2fb 	bl	1db4 <sprintf@plt>[0m
    51c4:	e1a01004 	mov	r1, r4
    51c8:	e1a02000 	mov	r2, r0
--
    5ca0:	e1a00009 	mov	r0, r9
    5ca4:	e0871001 	add	r1, r7, r1
    5ca8:	ebfff035 	bl	1d84 <strcmp@plt>
    5cac:	e3500000 	cmp	r0, #0
    5cb0:	1a000007 	bne	5cd4 <description_process+0xbc>
    5cb4:	e59b0000 	ldr	r0, [fp]
    5cb8:	e28a1001 	add	r1, sl, #1
    5cbc:	ebfff030 	bl	1d84 <strcmp@plt>
    5cc0:	e3500000 	cmp	r0, #0
    5cc4:	0a000028 	beq	5d6c <description_process+0x154>
    5cc8:	e1a00005 	mov	r0, r5
    5ccc:	ebfff074 	bl	1ea4 <strlen@plt>
    5cd0:	e1a04000 	mov	r4, r0
    5cd4:	e59f10b8 	ldr	r1, [pc, #184]	; 5d94 <description_process+0x17c>
    5cd8:	e2868d83 	add	r8, r6, #8384	; 0x20c0
    5cdc:	e288800c 	add	r8, r8, #12
    5ce0:	e1a02009 	mov	r2, r9
    5ce4:	e1a03004 	mov	r3, r4
    5ce8:	e1a00008 	mov	r0, r8
    5cec:	e0871001 	add	r1, r7, r1
[31m    5cf0:	ebfff02f 	bl	1db4 <sprintf@plt>[0m
    5cf4:	e1a01008 	mov	r1, r8
    5cf8:	e1a02000 	mov	r2, r0
--
    5e40:	ebfff017 	bl	1ea4 <strlen@plt>
    5e44:	e1a01004 	mov	r1, r4
    5e48:	e1a02000 	mov	r2, r0
    5e4c:	e1a00006 	mov	r0, r6
    5e50:	ebffef23 	bl	1ae4 <memcpy@plt>
    5e54:	e1a00006 	mov	r0, r6
    5e58:	e1a01008 	mov	r1, r8
    5e5c:	ebffef9b 	bl	1cd0 <strstr@plt>
    5e60:	e2505000 	subs	r5, r0, #0
    5e64:	1affffdb 	bne	5dd8 <upnp_device_renew_rootxml+0x40>
    5e68:	e28d4028 	add	r4, sp, #40	; 0x28
    5e6c:	e597101c 	ldr	r1, [r7, #28]
    5e70:	e1a00004 	mov	r0, r4
    5e74:	e3a02050 	mov	r2, #80	; 0x50
    5e78:	ebffefe2 	bl	1e08 <upnp_host_addr@plt>
    5e7c:	e59f1084 	ldr	r1, [pc, #132]	; 5f08 <upnp_device_renew_rootxml+0x170>
    5e80:	e28d5008 	add	r5, sp, #8
    5e84:	e1a02004 	mov	r2, r4
    5e88:	e1a00005 	mov	r0, r5
    5e8c:	e0891001 	add	r1, r9, r1
[31m    5e90:	ebffefc7 	bl	1db4 <sprintf@plt>[0m
    5e94:	e59f1070 	ldr	r1, [pc, #112]	; 5f0c <upnp_device_renew_rootxml+0x174>
    5e98:	e1a06000 	mov	r6, r0
--
    60ac:	e58dc014 	str	ip, [sp, #20]
    60b0:	e5ddc148 	ldrb	ip, [sp, #328]	; 0x148
    60b4:	e58de000 	str	lr, [sp]
    60b8:	e58da00c 	str	sl, [sp, #12]
    60bc:	e58dc018 	str	ip, [sp, #24]
    60c0:	e5ddc149 	ldrb	ip, [sp, #329]	; 0x149
    60c4:	e58db010 	str	fp, [sp, #16]
    60c8:	e58dc01c 	str	ip, [sp, #28]
    60cc:	e5ddc14a 	ldrb	ip, [sp, #330]	; 0x14a
    60d0:	e58dc020 	str	ip, [sp, #32]
    60d4:	e5ddc14b 	ldrb	ip, [sp, #331]	; 0x14b
    60d8:	e58dc024 	str	ip, [sp, #36]	; 0x24
    60dc:	e5ddc14c 	ldrb	ip, [sp, #332]	; 0x14c
    60e0:	e58dc028 	str	ip, [sp, #40]	; 0x28
    60e4:	e5ddc14d 	ldrb	ip, [sp, #333]	; 0x14d
    60e8:	e58dc02c 	str	ip, [sp, #44]	; 0x2c
    60ec:	e5ddc14e 	ldrb	ip, [sp, #334]	; 0x14e
    60f0:	e58dc030 	str	ip, [sp, #48]	; 0x30
    60f4:	e5ddc14f 	ldrb	ip, [sp, #335]	; 0x14f
    60f8:	e58dc034 	str	ip, [sp, #52]	; 0x34
[31m    60fc:	ebffef2c 	bl	1db4 <sprintf@plt>[0m
    6100:	e59de03c 	ldr	lr, [sp, #60]	; 0x3c
    6104:	e5cd7124 	strb	r7, [sp, #292]	; 0x124
--
    6724:	e8bd8038 	pop	{r3, r4, r5, pc}
    6728:	e3a03000 	mov	r3, #0
    672c:	e5c03000 	strb	r3, [r0]
    6730:	e594504c 	ldr	r5, [r4, #76]	; 0x4c
    6734:	e3550000 	cmp	r5, #0
    6738:	0afffff5 	beq	6714 <upnp_tlv_translate+0x88>
    673c:	e1a00005 	mov	r0, r5
    6740:	ebffedd7 	bl	1ea4 <strlen@plt>
    6744:	e5840050 	str	r0, [r4, #80]	; 0x50
    6748:	e1a00005 	mov	r0, r5
    674c:	e8bd8038 	pop	{r3, r4, r5, pc}
    6750:	e5945008 	ldr	r5, [r4, #8]
    6754:	e584504c 	str	r5, [r4, #76]	; 0x4c
    6758:	eafffff5 	b	6734 <upnp_tlv_translate+0xa8>
    675c:	e5942008 	ldr	r2, [r4, #8]
    6760:	e2522000 	subs	r2, r2, #0
    6764:	13a02001 	movne	r2, #1
    6768:	e59f10c0 	ldr	r1, [pc, #192]	; 6830 <upnp_tlv_translate+0x1a4>
    676c:	e5842008 	str	r2, [r4, #8]
    6770:	e0831001 	add	r1, r3, r1
[31m    6774:	ebffed8e 	bl	1db4 <sprintf@plt>[0m
    6778:	e594504c 	ldr	r5, [r4, #76]	; 0x4c
    677c:	eaffffec 	b	6734 <upnp_tlv_translate+0xa8>
    6780:	e5d42008 	ldrb	r2, [r4, #8]
    6784:	e59f10a8 	ldr	r1, [pc, #168]	; 6834 <upnp_tlv_translate+0x1a8>
    6788:	e5842008 	str	r2, [r4, #8]
    678c:	e0831001 	add	r1, r3, r1
[31m    6790:	ebffed87 	bl	1db4 <sprintf@plt>[0m
    6794:	e594504c 	ldr	r5, [r4, #76]	; 0x4c
    6798:	eaffffe5 	b	6734 <upnp_tlv_translate+0xa8>
    679c:	e1d420b8 	ldrh	r2, [r4, #8]
    67a0:	eafffff7 	b	6784 <upnp_tlv_translate+0xf8>
    67a4:	e59f108c 	ldr	r1, [pc, #140]	; 6838 <upnp_tlv_translate+0x1ac>
    67a8:	e5942008 	ldr	r2, [r4, #8]
    67ac:	e0831001 	add	r1, r3, r1
[31m    67b0:	ebffed7f 	bl	1db4 <sprintf@plt>[0m
    67b4:	e594504c 	ldr	r5, [r4, #76]	; 0x4c
    67b8:	eaffffdd 	b	6734 <upnp_tlv_translate+0xa8>
    67bc:	e5d42008 	ldrb	r2, [r4, #8]
    67c0:	eaffffe8 	b	6768 <upnp_tlv_translate+0xdc>
    67c4:	e1d420b8 	ldrh	r2, [r4, #8]
    67c8:	e59f1060 	ldr	r1, [pc, #96]	; 6830 <upnp_tlv_translate+0x1a4>
    67cc:	e5842008 	str	r2, [r4, #8]
    67d0:	e0831001 	add	r1, r3, r1
    67d4:	e6bf2072 	sxth	r2, r2
[31m    67d8:	ebffed75 	bl	1db4 <sprintf@plt>[0m
    67dc:	e594504c 	ldr	r5, [r4, #76]	; 0x4c
    67e0:	eaffffd3 	b	6734 <upnp_tlv_translate+0xa8>
    67e4:	e59f1050 	ldr	r1, [pc, #80]	; 683c <upnp_tlv_translate+0x1b0>
    67e8:	e5942008 	ldr	r2, [r4, #8]
    67ec:	e0831001 	add	r1, r3, r1
[31m    67f0:	ebffed6f 	bl	1db4 <sprintf@plt>[0m
    67f4:	e594504c 	ldr	r5, [r4, #76]	; 0x4c
    67f8:	eaffffcd 	b	6734 <upnp_tlv_translate+0xa8>
--
    6dac:	e8bd80f8 	pop	{r3, r4, r5, r6, r7, pc}
    6db0:	e3a00000 	mov	r0, #0
    6db4:	e8bd80f8 	pop	{r3, r4, r5, r6, r7, pc}

00006db8 <upnp_host_addr>:
    6db8:	e92d40f0 	push	{r4, r5, r6, r7, lr}
    6dbc:	e6bf3f31 	rev	r3, r1
    6dc0:	e59f4064 	ldr	r4, [pc, #100]	; 6e2c <upnp_host_addr+0x74>
    6dc4:	e24dd014 	sub	sp, sp, #20
    6dc8:	e7e7e453 	ubfx	lr, r3, #8, #8
    6dcc:	e203c0ff 	and	ip, r3, #255	; 0xff
    6dd0:	e59f1058 	ldr	r1, [pc, #88]	; 6e30 <upnp_host_addr+0x78>
    6dd4:	e1a05002 	mov	r5, r2
    6dd8:	e08f4004 	add	r4, pc, r4
    6ddc:	e1a02c23 	lsr	r2, r3, #24
    6de0:	e7e73853 	ubfx	r3, r3, #16, #8
    6de4:	e58de000 	str	lr, [sp]
    6de8:	e0841001 	add	r1, r4, r1
    6dec:	e1a06000 	mov	r6, r0
    6df0:	e58dc004 	str	ip, [sp, #4]
[31m    6df4:	ebffebee 	bl	1db4 <sprintf@plt>[0m
    6df8:	e3550050 	cmp	r5, #80	; 0x50
    6dfc:	0a000008 	beq	6e24 <upnp_host_addr+0x6c>
    6e00:	e59f102c 	ldr	r1, [pc, #44]	; 6e34 <upnp_host_addr+0x7c>
    6e04:	e28d7008 	add	r7, sp, #8
    6e08:	e1a00007 	mov	r0, r7
    6e0c:	e1a02005 	mov	r2, r5
    6e10:	e0841001 	add	r1, r4, r1
[31m    6e14:	ebffebe6 	bl	1db4 <sprintf@plt>[0m
    6e18:	e1a00006 	mov	r0, r6
    6e1c:	e1a01007 	mov	r1, r7
--
    6e70:	e28cce76 	add	ip, ip, #1888	; 0x760
    6e74:	e59f3058 	ldr	r3, [pc, #88]	; 6ed4 <upnp_gmt_time+0x9c>
    6e78:	e28cc00c 	add	ip, ip, #12
    6e7c:	e08f4004 	add	r4, pc, r4
    6e80:	e58dc004 	str	ip, [sp, #4]
    6e84:	e59dc020 	ldr	ip, [sp, #32]
    6e88:	e0843003 	add	r3, r4, r3
    6e8c:	e0831101 	add	r1, r3, r1, lsl #2
    6e90:	e59d2030 	ldr	r2, [sp, #48]	; 0x30
    6e94:	e58dc008 	str	ip, [sp, #8]
    6e98:	e59dc01c 	ldr	ip, [sp, #28]
    6e9c:	e591e01c 	ldr	lr, [r1, #28]
    6ea0:	e59f1030 	ldr	r1, [pc, #48]	; 6ed8 <upnp_gmt_time+0xa0>
    6ea4:	e58dc00c 	str	ip, [sp, #12]
    6ea8:	e59dc018 	ldr	ip, [sp, #24]
    6eac:	e7932102 	ldr	r2, [r3, r2, lsl #2]
    6eb0:	e0841001 	add	r1, r4, r1
    6eb4:	e59d3024 	ldr	r3, [sp, #36]	; 0x24
    6eb8:	e58de000 	str	lr, [sp]
    6ebc:	e58dc010 	str	ip, [sp, #16]
[31m    6ec0:	ebffebbb 	bl	1db4 <sprintf@plt>[0m
    6ec4:	e3a00000 	mov	r0, #0
    6ec8:	e28dd04c 	add	sp, sp, #76	; 0x4c

[0m
[[0;33m*[0m] Function [0;33msprintf[0m used [0;33m35[0m times [0;33mlibupnp.so.svn-base[0m

