[[0;33m*[0m] Binary protection state of [0;33met.svn-base[0m
[REF] s12

  	RELRO          CANARY            NX           PIE       RPATH        RUNPATH      SYMBOLS      
  	[31mNo RELRO[0m       [31mNo Canary found[0m   [32mNX enabled[0m   [31mNo PIE[0m       [32mNo RPATH[0m     [32mNo RUNPATH[0m   [32mNo Symbols[0m

[0m
[[0;33m*[0m] Function [0;33mprintf[0m tear down of [0;33met.svn-base[0m

    8e74:	da00003c 	ble	8f6c <_start+0x814>
    8e78:	e2899003 	add	r9, r9, #3
    8e7c:	e1560009 	cmp	r6, r9
    8e80:	ca000039 	bgt	8f6c <_start+0x814>
    8e84:	0a000108 	beq	92ac <_start+0xb54>
    8e88:	e3a01000 	mov	r1, #0
    8e8c:	e7940102 	ldr	r0, [r4, r2, lsl #2]
    8e90:	e1a02001 	mov	r2, r1
    8e94:	ebfffdf3 	bl	8668 <strtoul@plt>
    8e98:	e30819f9 	movw	r1, #35321	; 0x89f9
    8e9c:	e58d02f8 	str	r0, [sp, #760]	; 0x2f8
    8ea0:	e28d3fbe 	add	r3, sp, #760	; 0x2f8
    8ea4:	e1a00007 	mov	r0, r7
    8ea8:	e28d2fb6 	add	r2, sp, #728	; 0x2d8
    8eac:	e58d32e8 	str	r3, [sp, #744]	; 0x2e8
    8eb0:	ebfffddd 	bl	862c <ioctl@plt>
    8eb4:	e3500000 	cmp	r0, #0
    8eb8:	ba0000a4 	blt	9150 <_start+0x9f8>
    8ebc:	e59d12fc 	ldr	r1, [sp, #764]	; 0x2fc
    8ec0:	e59f06e0 	ldr	r0, [pc, #1760]	; 95a8 <_start+0xe50>
[31m    8ec4:	ebfffddb 	bl	8638 <printf@plt>[0m
    8ec8:	eafffea3 	b	895c <_start+0x204>
    8ecc:	e5940000 	ldr	r0, [r4]
--
    91d0:	e30819f6 	movw	r1, #35318	; 0x89f6
    91d4:	13a03005 	movne	r3, #5
    91d8:	03a03004 	moveq	r3, #4
    91dc:	e58d330c 	str	r3, [sp, #780]	; 0x30c
    91e0:	e28d3fbe 	add	r3, sp, #760	; 0x2f8
    91e4:	e58d3314 	str	r3, [sp, #788]	; 0x314
    91e8:	e1a00007 	mov	r0, r7
    91ec:	e28d3fc3 	add	r3, sp, #780	; 0x30c
    91f0:	e28d2fb6 	add	r2, sp, #728	; 0x2d8
    91f4:	e58d32e8 	str	r3, [sp, #744]	; 0x2e8
    91f8:	ebfffd0b 	bl	862c <ioctl@plt>
    91fc:	e3500000 	cmp	r0, #0
    9200:	aa000001 	bge	920c <_start+0xab4>
    9204:	e59f03c4 	ldr	r0, [pc, #964]	; 95d0 <_start+0xe78>
    9208:	ebfffd87 	bl	882c <_start+0xd4>
    920c:	e59d3310 	ldr	r3, [sp, #784]	; 0x310
    9210:	e3530000 	cmp	r3, #0
    9214:	1afffdd0 	bne	895c <_start+0x204>
    9218:	e59d12f8 	ldr	r1, [sp, #760]	; 0x2f8
    921c:	e59f03b4 	ldr	r0, [pc, #948]	; 95d8 <_start+0xe80>
[31m    9220:	ebfffd04 	bl	8638 <printf@plt>[0m
    9224:	eafffdcc 	b	895c <_start+0x204>
    9228:	e2899001 	add	r9, r9, #1
--
    9474:	e28d2fb6 	add	r2, sp, #728	; 0x2d8
    9478:	e58d32e8 	str	r3, [sp, #744]	; 0x2e8
    947c:	ebfffc6a 	bl	862c <ioctl@plt>
    9480:	e3500000 	cmp	r0, #0
    9484:	aa000001 	bge	9490 <_start+0xd38>
    9488:	e59f0164 	ldr	r0, [pc, #356]	; 95f4 <_start+0xe9c>
    948c:	ebfffce6 	bl	882c <_start+0xd4>
    9490:	e59d3310 	ldr	r3, [sp, #784]	; 0x310
    9494:	e3530000 	cmp	r3, #0
    9498:	1afffd2f 	bne	895c <_start+0x204>
    949c:	e3540000 	cmp	r4, #0
    94a0:	0a000013 	beq	94f4 <_start+0xd9c>
    94a4:	e59dc304 	ldr	ip, [sp, #772]	; 0x304
    94a8:	e59d12f8 	ldr	r1, [sp, #760]	; 0x2f8
    94ac:	e59d22fc 	ldr	r2, [sp, #764]	; 0x2fc
    94b0:	e58dc000 	str	ip, [sp]
    94b4:	e59dc308 	ldr	ip, [sp, #776]	; 0x308
    94b8:	e59d3300 	ldr	r3, [sp, #768]	; 0x300
    94bc:	e59f0134 	ldr	r0, [pc, #308]	; 95f8 <_start+0xea0>
    94c0:	e58dc004 	str	ip, [sp, #4]
[31m    94c4:	ebfffc5b 	bl	8638 <printf@plt>[0m
    94c8:	eafffd23 	b	895c <_start+0x204>
    94cc:	e7940102 	ldr	r0, [r4, r2, lsl #2]
    94d0:	e1a01003 	mov	r1, r3
    94d4:	e1a02003 	mov	r2, r3
    94d8:	e58d3310 	str	r3, [sp, #784]	; 0x310
    94dc:	ebfffc61 	bl	8668 <strtoul@plt>
    94e0:	e58d02f8 	str	r0, [sp, #760]	; 0x2f8
    94e4:	e3500005 	cmp	r0, #5
    94e8:	13a04000 	movne	r4, #0
    94ec:	03a04001 	moveq	r4, #1
    94f0:	eaffffd6 	b	9450 <_start+0xcf8>
    94f4:	e59d12f8 	ldr	r1, [sp, #760]	; 0x2f8
    94f8:	e59d22fc 	ldr	r2, [sp, #764]	; 0x2fc
    94fc:	e59f00f8 	ldr	r0, [pc, #248]	; 95fc <_start+0xea4>
[31m    9500:	ebfffc4c 	bl	8638 <printf@plt>[0m
    9504:	eafffd14 	b	895c <_start+0x204>
    9508:	e58d3310 	str	r3, [sp, #784]	; 0x310

[0m
[[0;33m*[0m] Function [0;33mprintf[0m used [0;33m4[0m times [0;33met.svn-base[0m

