[[0;33m*[0m] Binary protection state of [0;33meapd[0m
[REF] s12

  	RELRO          CANARY            NX           PIE       RPATH        RUNPATH      SYMBOLS      
  	[31mNo RELRO[0m       [31mNo Canary found[0m   [32mNX enabled[0m   [31mNo PIE[0m       [32mNo RPATH[0m     [32mNo RUNPATH[0m   [32mNo Symbols[0m

[0m
[[0;33m*[0m] Function [0;33mprintf[0m tear down of [0;33meapd[0m

    b49c:	e1a00009 	mov	r0, r9
    b4a0:	ebfffe41 	bl	adac <_start+0x1e98>
    b4a4:	e3033a5c 	movw	r3, #14940	; 0x3a5c
    b4a8:	e7993003 	ldr	r3, [r9, r3]
    b4ac:	e3130001 	tst	r3, #1
    b4b0:	1a000191 	bne	bafc <_start+0x2be8>
    b4b4:	e3130002 	tst	r3, #2
    b4b8:	0afffff7 	beq	b49c <_start+0x2588>
    b4bc:	e59f067c 	ldr	r0, [pc, #1660]	; bb40 <_start+0x2c2c>
    b4c0:	ebfff609 	bl	8cec <puts@plt>
    b4c4:	e59f0678 	ldr	r0, [pc, #1656]	; bb44 <_start+0x2c30>
    b4c8:	ebfff607 	bl	8cec <puts@plt>
    b4cc:	e3023978 	movw	r3, #10616	; 0x2978
    b4d0:	e7994003 	ldr	r4, [r9, r3]
    b4d4:	e3540000 	cmp	r4, #0
    b4d8:	0a000049 	beq	b604 <_start+0x26f0>
    b4dc:	e3023964 	movw	r3, #10596	; 0x2964
    b4e0:	e1a02004 	mov	r2, r4
    b4e4:	e59f065c 	ldr	r0, [pc, #1628]	; bb48 <_start+0x2c34>
    b4e8:	e7991003 	ldr	r1, [r9, r3]
[31m    b4ec:	ebfff5e9 	bl	8c98 <printf@plt>[0m
    b4f0:	e5944038 	ldr	r4, [r4, #56]	; 0x38
    b4f4:	e3540000 	cmp	r4, #0
    b4f8:	0a000005 	beq	b514 <_start+0x2600>
    b4fc:	e1a01004 	mov	r1, r4
    b500:	e59f0644 	ldr	r0, [pc, #1604]	; bb4c <_start+0x2c38>
[31m    b504:	ebfff5e3 	bl	8c98 <printf@plt>[0m
    b508:	e5944038 	ldr	r4, [r4, #56]	; 0x38
    b50c:	e3540000 	cmp	r4, #0
    b510:	1afffff9 	bne	b4fc <_start+0x25e8>
    b514:	e3a0000a 	mov	r0, #10
    b518:	e2895da5 	add	r5, r9, #10560	; 0x2940
    b51c:	ebfff5c8 	bl	8c44 <putchar@plt>
    b520:	e2855028 	add	r5, r5, #40	; 0x28
    b524:	e2891d95 	add	r1, r9, #9536	; 0x2540
    b528:	e3a06000 	mov	r6, #0
    b52c:	e3a07001 	mov	r7, #1
    b530:	e59f0618 	ldr	r0, [pc, #1560]	; bb50 <_start+0x2c3c>
    b534:	e2811004 	add	r1, r1, #4
[31m    b538:	ebfff5d6 	bl	8c98 <printf@plt>[0m
    b53c:	e3a04000 	mov	r4, #0
    b540:	ea000006 	b	b560 <_start+0x264c>
    b544:	e3a07000 	mov	r7, #0
    b548:	e59f0604 	ldr	r0, [pc, #1540]	; bb54 <_start+0x2c40>
    b54c:	e0841006 	add	r1, r4, r6
[31m    b550:	ebfff5d0 	bl	8c98 <printf@plt>[0m
    b554:	e2844001 	add	r4, r4, #1
    b558:	e3540008 	cmp	r4, #8
    b55c:	0a00000c 	beq	b594 <_start+0x2680>
    b560:	e5d52000 	ldrb	r2, [r5]
    b564:	e2043007 	and	r3, r4, #7
    b568:	e1a03352 	asr	r3, r2, r3
    b56c:	e3130001 	tst	r3, #1
    b570:	0afffff7 	beq	b554 <_start+0x2640>
    b574:	e3570000 	cmp	r7, #0
    b578:	1afffff1 	bne	b544 <_start+0x2630>
    b57c:	e0841006 	add	r1, r4, r6
    b580:	e59f05d0 	ldr	r0, [pc, #1488]	; bb58 <_start+0x2c44>
    b584:	e2844001 	add	r4, r4, #1
[31m    b588:	ebfff5c2 	bl	8c98 <printf@plt>[0m
    b58c:	e3540008 	cmp	r4, #8
    b590:	1afffff2 	bne	b560 <_start+0x264c>
    b594:	e2866008 	add	r6, r6, #8
    b598:	e2855001 	add	r5, r5, #1
    b59c:	e3560080 	cmp	r6, #128	; 0x80
    b5a0:	1affffe5 	bne	b53c <_start+0x2628>
    b5a4:	e59f05b0 	ldr	r0, [pc, #1456]	; bb5c <_start+0x2c48>
    b5a8:	ebfff5cf 	bl	8cec <puts@plt>
    b5ac:	e3023978 	movw	r3, #10616	; 0x2978
    b5b0:	e7994003 	ldr	r4, [r9, r3]
    b5b4:	e3540000 	cmp	r4, #0
    b5b8:	0a000011 	beq	b604 <_start+0x26f0>
    b5bc:	e5941014 	ldr	r1, [r4, #20]
    b5c0:	e3510000 	cmp	r1, #0
    b5c4:	0a000003 	beq	b5d8 <_start+0x26c4>
    b5c8:	e59f0590 	ldr	r0, [pc, #1424]	; bb60 <_start+0x2c4c>
    b5cc:	e1a03001 	mov	r3, r1
    b5d0:	e5912010 	ldr	r2, [r1, #16]
[31m    b5d4:	ebfff5af 	bl	8c98 <printf@plt>[0m
    b5d8:	e5944038 	ldr	r4, [r4, #56]	; 0x38
    b5dc:	e3540000 	cmp	r4, #0
--
    b5e4:	e59f0578 	ldr	r0, [pc, #1400]	; bb64 <_start+0x2c50>
    b5e8:	ebfff5bf 	bl	8cec <puts@plt>
    b5ec:	e5941014 	ldr	r1, [r4, #20]
    b5f0:	e3510000 	cmp	r1, #0
    b5f4:	1afffff3 	bne	b5c8 <_start+0x26b4>
    b5f8:	e5944038 	ldr	r4, [r4, #56]	; 0x38
    b5fc:	e3540000 	cmp	r4, #0
    b600:	1afffff7 	bne	b5e4 <_start+0x26d0>
    b604:	e3a0000a 	mov	r0, #10
    b608:	ebfff58d 	bl	8c44 <putchar@plt>
    b60c:	e59f0554 	ldr	r0, [pc, #1364]	; bb68 <_start+0x2c54>
    b610:	ebfff5b5 	bl	8cec <puts@plt>
    b614:	e30331e8 	movw	r3, #12776	; 0x31e8
    b618:	e7994003 	ldr	r4, [r9, r3]
    b61c:	e3540000 	cmp	r4, #0
    b620:	0a000049 	beq	b74c <_start+0x2838>
    b624:	e30331d4 	movw	r3, #12756	; 0x31d4
    b628:	e1a02004 	mov	r2, r4
    b62c:	e59f0538 	ldr	r0, [pc, #1336]	; bb6c <_start+0x2c58>
    b630:	e7991003 	ldr	r1, [r9, r3]
[31m    b634:	ebfff597 	bl	8c98 <printf@plt>[0m
    b638:	e5944038 	ldr	r4, [r4, #56]	; 0x38
    b63c:	e3540000 	cmp	r4, #0
    b640:	0a000005 	beq	b65c <_start+0x2748>
    b644:	e1a01004 	mov	r1, r4
    b648:	e59f04fc 	ldr	r0, [pc, #1276]	; bb4c <_start+0x2c38>
[31m    b64c:	ebfff591 	bl	8c98 <printf@plt>[0m
    b650:	e5944038 	ldr	r4, [r4, #56]	; 0x38
    b654:	e3540000 	cmp	r4, #0
    b658:	1afffff9 	bne	b644 <_start+0x2730>
    b65c:	e3a0000a 	mov	r0, #10
    b660:	e2895dc7 	add	r5, r9, #12736	; 0x31c0
    b664:	ebfff576 	bl	8c44 <putchar@plt>
    b668:	e2855018 	add	r5, r5, #24
    b66c:	e2891db6 	add	r1, r9, #11648	; 0x2d80
    b670:	e3a06000 	mov	r6, #0
    b674:	e3a07001 	mov	r7, #1
    b678:	e59f04d0 	ldr	r0, [pc, #1232]	; bb50 <_start+0x2c3c>
    b67c:	e2811034 	add	r1, r1, #52	; 0x34
[31m    b680:	ebfff584 	bl	8c98 <printf@plt>[0m
    b684:	e3a04000 	mov	r4, #0
    b688:	ea000006 	b	b6a8 <_start+0x2794>
    b68c:	e3a07000 	mov	r7, #0
    b690:	e59f04bc 	ldr	r0, [pc, #1212]	; bb54 <_start+0x2c40>
    b694:	e0841006 	add	r1, r4, r6
[31m    b698:	ebfff57e 	bl	8c98 <printf@plt>[0m
    b69c:	e2844001 	add	r4, r4, #1
    b6a0:	e3540008 	cmp	r4, #8
    b6a4:	0a00000c 	beq	b6dc <_start+0x27c8>
    b6a8:	e5d52000 	ldrb	r2, [r5]
    b6ac:	e2043007 	and	r3, r4, #7
    b6b0:	e1a03352 	asr	r3, r2, r3
    b6b4:	e3130001 	tst	r3, #1
    b6b8:	0afffff7 	beq	b69c <_start+0x2788>
    b6bc:	e3570000 	cmp	r7, #0
    b6c0:	1afffff1 	bne	b68c <_start+0x2778>
    b6c4:	e0841006 	add	r1, r4, r6
    b6c8:	e59f0488 	ldr	r0, [pc, #1160]	; bb58 <_start+0x2c44>
    b6cc:	e2844001 	add	r4, r4, #1
[31m    b6d0:	ebfff570 	bl	8c98 <printf@plt>[0m
    b6d4:	e3540008 	cmp	r4, #8
    b6d8:	1afffff2 	bne	b6a8 <_start+0x2794>
    b6dc:	e2866008 	add	r6, r6, #8
    b6e0:	e2855001 	add	r5, r5, #1
    b6e4:	e3560080 	cmp	r6, #128	; 0x80
    b6e8:	1affffe5 	bne	b684 <_start+0x2770>
    b6ec:	e59f0468 	ldr	r0, [pc, #1128]	; bb5c <_start+0x2c48>
    b6f0:	ebfff57d 	bl	8cec <puts@plt>
    b6f4:	e30331e8 	movw	r3, #12776	; 0x31e8
    b6f8:	e7994003 	ldr	r4, [r9, r3]
    b6fc:	e3540000 	cmp	r4, #0
    b700:	0a000011 	beq	b74c <_start+0x2838>
    b704:	e5941014 	ldr	r1, [r4, #20]
    b708:	e3510000 	cmp	r1, #0
    b70c:	0a000003 	beq	b720 <_start+0x280c>
    b710:	e59f0448 	ldr	r0, [pc, #1096]	; bb60 <_start+0x2c4c>
    b714:	e1a03001 	mov	r3, r1
    b718:	e5912010 	ldr	r2, [r1, #16]
[31m    b71c:	ebfff55d 	bl	8c98 <printf@plt>[0m
    b720:	e5944038 	ldr	r4, [r4, #56]	; 0x38
    b724:	e3540000 	cmp	r4, #0
--
    b72c:	e59f0430 	ldr	r0, [pc, #1072]	; bb64 <_start+0x2c50>
    b730:	ebfff56d 	bl	8cec <puts@plt>
    b734:	e5941014 	ldr	r1, [r4, #20]
    b738:	e3510000 	cmp	r1, #0
    b73c:	1afffff3 	bne	b710 <_start+0x27fc>
    b740:	e5944038 	ldr	r4, [r4, #56]	; 0x38
    b744:	e3540000 	cmp	r4, #0
    b748:	1afffff7 	bne	b72c <_start+0x2818>
    b74c:	e3a0000a 	mov	r0, #10
    b750:	ebfff53b 	bl	8c44 <putchar@plt>
    b754:	e59f0414 	ldr	r0, [pc, #1044]	; bb70 <_start+0x2c5c>
    b758:	ebfff563 	bl	8cec <puts@plt>
    b75c:	e3023db0 	movw	r3, #11696	; 0x2db0
    b760:	e7994003 	ldr	r4, [r9, r3]
    b764:	e3540000 	cmp	r4, #0
    b768:	0a00004e 	beq	b8a8 <_start+0x2994>
    b76c:	e3023d9c 	movw	r3, #11676	; 0x2d9c
    b770:	e1a02004 	mov	r2, r4
    b774:	e59f03f8 	ldr	r0, [pc, #1016]	; bb74 <_start+0x2c60>
    b778:	e7991003 	ldr	r1, [r9, r3]
[31m    b77c:	ebfff545 	bl	8c98 <printf@plt>[0m
    b780:	e5944038 	ldr	r4, [r4, #56]	; 0x38
    b784:	e3540000 	cmp	r4, #0
    b788:	0a000005 	beq	b7a4 <_start+0x2890>
    b78c:	e1a01004 	mov	r1, r4
    b790:	e59f03b4 	ldr	r0, [pc, #948]	; bb4c <_start+0x2c38>
[31m    b794:	ebfff53f 	bl	8c98 <printf@plt>[0m
    b798:	e5944038 	ldr	r4, [r4, #56]	; 0x38
    b79c:	e3540000 	cmp	r4, #0
    b7a0:	1afffff9 	bne	b78c <_start+0x2878>
    b7a4:	e3a0000a 	mov	r0, #10
    b7a8:	e2895db6 	add	r5, r9, #11648	; 0x2d80
    b7ac:	ebfff524 	bl	8c44 <putchar@plt>
    b7b0:	e2855020 	add	r5, r5, #32
    b7b4:	e2891da5 	add	r1, r9, #10560	; 0x2940
    b7b8:	e3a06000 	mov	r6, #0
    b7bc:	e3a07001 	mov	r7, #1
    b7c0:	e59f0388 	ldr	r0, [pc, #904]	; bb50 <_start+0x2c3c>
    b7c4:	e281103c 	add	r1, r1, #60	; 0x3c
[31m    b7c8:	ebfff532 	bl	8c98 <printf@plt>[0m
    b7cc:	e3a04000 	mov	r4, #0
    b7d0:	ea000006 	b	b7f0 <_start+0x28dc>
    b7d4:	e3a07000 	mov	r7, #0
    b7d8:	e59f0374 	ldr	r0, [pc, #884]	; bb54 <_start+0x2c40>
    b7dc:	e0841006 	add	r1, r4, r6
[31m    b7e0:	ebfff52c 	bl	8c98 <printf@plt>[0m
    b7e4:	e2844001 	add	r4, r4, #1
    b7e8:	e3540008 	cmp	r4, #8
    b7ec:	0a00000c 	beq	b824 <_start+0x2910>
    b7f0:	e5d52000 	ldrb	r2, [r5]
    b7f4:	e2043007 	and	r3, r4, #7
    b7f8:	e1a03352 	asr	r3, r2, r3
    b7fc:	e3130001 	tst	r3, #1
    b800:	0afffff7 	beq	b7e4 <_start+0x28d0>
    b804:	e3570000 	cmp	r7, #0
    b808:	1afffff1 	bne	b7d4 <_start+0x28c0>
    b80c:	e0841006 	add	r1, r4, r6
    b810:	e59f0340 	ldr	r0, [pc, #832]	; bb58 <_start+0x2c44>
    b814:	e2844001 	add	r4, r4, #1
[31m    b818:	ebfff51e 	bl	8c98 <printf@plt>[0m
    b81c:	e3540008 	cmp	r4, #8
    b820:	1afffff2 	bne	b7f0 <_start+0x28dc>
    b824:	e2866008 	add	r6, r6, #8
    b828:	e2855001 	add	r5, r5, #1
    b82c:	e3560080 	cmp	r6, #128	; 0x80
    b830:	1affffe5 	bne	b7cc <_start+0x28b8>
    b834:	e59f0320 	ldr	r0, [pc, #800]	; bb5c <_start+0x2c48>
    b838:	ebfff52b 	bl	8cec <puts@plt>
    b83c:	e3023db0 	movw	r3, #11696	; 0x2db0
    b840:	e7994003 	ldr	r4, [r9, r3]
    b844:	e3540000 	cmp	r4, #0
    b848:	0a000016 	beq	b8a8 <_start+0x2994>
    b84c:	e5942028 	ldr	r2, [r4, #40]	; 0x28
    b850:	e3520000 	cmp	r2, #0
    b854:	ba000003 	blt	b868 <_start+0x2954>
    b858:	e2841018 	add	r1, r4, #24
    b85c:	e59f0314 	ldr	r0, [pc, #788]	; bb78 <_start+0x2c64>
    b860:	e1a03001 	mov	r3, r1
[31m    b864:	ebfff50b 	bl	8c98 <printf@plt>[0m
    b868:	e5941014 	ldr	r1, [r4, #20]
    b86c:	e3510000 	cmp	r1, #0
    b870:	0a000003 	beq	b884 <_start+0x2970>
    b874:	e59f02e4 	ldr	r0, [pc, #740]	; bb60 <_start+0x2c4c>
    b878:	e1a03001 	mov	r3, r1
    b87c:	e5912010 	ldr	r2, [r1, #16]
[31m    b880:	ebfff504 	bl	8c98 <printf@plt>[0m
    b884:	e5944038 	ldr	r4, [r4, #56]	; 0x38
    b888:	e3540000 	cmp	r4, #0
    b88c:	0a000005 	beq	b8a8 <_start+0x2994>
    b890:	e59f02cc 	ldr	r0, [pc, #716]	; bb64 <_start+0x2c50>
    b894:	ebfff514 	bl	8cec <puts@plt>
    b898:	e5942028 	ldr	r2, [r4, #40]	; 0x28
    b89c:	e3520000 	cmp	r2, #0
    b8a0:	aaffffec 	bge	b858 <_start+0x2944>
    b8a4:	eaffffef 	b	b868 <_start+0x2954>
    b8a8:	e3a0000a 	mov	r0, #10
    b8ac:	ebfff4e4 	bl	8c44 <putchar@plt>
    b8b0:	e59f02c4 	ldr	r0, [pc, #708]	; bb7c <_start+0x2c68>
    b8b4:	ebfff50c 	bl	8cec <puts@plt>
    b8b8:	e3033a58 	movw	r3, #14936	; 0x3a58
    b8bc:	e7994003 	ldr	r4, [r9, r3]
    b8c0:	e3540000 	cmp	r4, #0
    b8c4:	0a000049 	beq	b9f0 <_start+0x2adc>
    b8c8:	e3033a44 	movw	r3, #14916	; 0x3a44
    b8cc:	e1a02004 	mov	r2, r4
    b8d0:	e59f02a8 	ldr	r0, [pc, #680]	; bb80 <_start+0x2c6c>
    b8d4:	e7991003 	ldr	r1, [r9, r3]
[31m    b8d8:	ebfff4ee 	bl	8c98 <printf@plt>[0m
    b8dc:	e5944038 	ldr	r4, [r4, #56]	; 0x38
    b8e0:	e3540000 	cmp	r4, #0
    b8e4:	0a000005 	beq	b900 <_start+0x29ec>
    b8e8:	e1a01004 	mov	r1, r4
    b8ec:	e59f0258 	ldr	r0, [pc, #600]	; bb4c <_start+0x2c38>
[31m    b8f0:	ebfff4e8 	bl	8c98 <printf@plt>[0m
    b8f4:	e5944038 	ldr	r4, [r4, #56]	; 0x38
    b8f8:	e3540000 	cmp	r4, #0
    b8fc:	1afffff9 	bne	b8e8 <_start+0x29d4>
    b900:	e3a0000a 	mov	r0, #10
    b904:	e2895de9 	add	r5, r9, #14912	; 0x3a40
    b908:	ebfff4cd 	bl	8c44 <putchar@plt>
    b90c:	e2855008 	add	r5, r5, #8
    b910:	e2891c36 	add	r1, r9, #13824	; 0x3600
    b914:	e3a06000 	mov	r6, #0
    b918:	e3a07001 	mov	r7, #1
    b91c:	e59f0260 	ldr	r0, [pc, #608]	; bb84 <_start+0x2c70>
    b920:	e2811024 	add	r1, r1, #36	; 0x24
[31m    b924:	ebfff4db 	bl	8c98 <printf@plt>[0m
    b928:	e3a04000 	mov	r4, #0
    b92c:	ea000006 	b	b94c <_start+0x2a38>
    b930:	e3a07000 	mov	r7, #0
    b934:	e59f024c 	ldr	r0, [pc, #588]	; bb88 <_start+0x2c74>
    b938:	e0841006 	add	r1, r4, r6
[31m    b93c:	ebfff4d5 	bl	8c98 <printf@plt>[0m
    b940:	e2844001 	add	r4, r4, #1
    b944:	e3540008 	cmp	r4, #8
    b948:	0a00000c 	beq	b980 <_start+0x2a6c>
    b94c:	e5d52000 	ldrb	r2, [r5]
    b950:	e2043007 	and	r3, r4, #7
    b954:	e1a03352 	asr	r3, r2, r3
    b958:	e3130001 	tst	r3, #1
    b95c:	0afffff7 	beq	b940 <_start+0x2a2c>
    b960:	e3570000 	cmp	r7, #0
    b964:	1afffff1 	bne	b930 <_start+0x2a1c>
    b968:	e0841006 	add	r1, r4, r6
    b96c:	e59f01e4 	ldr	r0, [pc, #484]	; bb58 <_start+0x2c44>
    b970:	e2844001 	add	r4, r4, #1
[31m    b974:	ebfff4c7 	bl	8c98 <printf@plt>[0m
    b978:	e3540008 	cmp	r4, #8
    b97c:	1afffff2 	bne	b94c <_start+0x2a38>
    b980:	e2866008 	add	r6, r6, #8
    b984:	e2855001 	add	r5, r5, #1
    b988:	e3560080 	cmp	r6, #128	; 0x80
    b98c:	1affffe5 	bne	b928 <_start+0x2a14>
    b990:	e59f01c4 	ldr	r0, [pc, #452]	; bb5c <_start+0x2c48>
    b994:	ebfff4d4 	bl	8cec <puts@plt>
    b998:	e3033a58 	movw	r3, #14936	; 0x3a58
    b99c:	e7994003 	ldr	r4, [r9, r3]
    b9a0:	e3540000 	cmp	r4, #0
    b9a4:	0a000011 	beq	b9f0 <_start+0x2adc>
    b9a8:	e5941014 	ldr	r1, [r4, #20]
    b9ac:	e3510000 	cmp	r1, #0
    b9b0:	0a000003 	beq	b9c4 <_start+0x2ab0>
    b9b4:	e59f01d0 	ldr	r0, [pc, #464]	; bb8c <_start+0x2c78>
    b9b8:	e1a03001 	mov	r3, r1
    b9bc:	e5912010 	ldr	r2, [r1, #16]
[31m    b9c0:	ebfff4b4 	bl	8c98 <printf@plt>[0m
    b9c4:	e5944038 	ldr	r4, [r4, #56]	; 0x38
    b9c8:	e3540000 	cmp	r4, #0
--
    b9f4:	e3a06a01 	mov	r6, #4096	; 0x1000
    b9f8:	ebfff491 	bl	8c44 <putchar@plt>
    b9fc:	e59f0190 	ldr	r0, [pc, #400]	; bb94 <_start+0x2c80>
    ba00:	ebfff4b9 	bl	8cec <puts@plt>
    ba04:	e7993006 	ldr	r3, [r9, r6]
    ba08:	e3530000 	cmp	r3, #0
    ba0c:	da000010 	ble	ba54 <_start+0x2b40>
    ba10:	e0894006 	add	r4, r9, r6
    ba14:	e3a05000 	mov	r5, #0
    ba18:	e284401c 	add	r4, r4, #28
    ba1c:	e285c080 	add	ip, r5, #128	; 0x80
    ba20:	e5143008 	ldr	r3, [r4, #-8]
    ba24:	e089c28c 	add	ip, r9, ip, lsl #5
    ba28:	e5942000 	ldr	r2, [r4]
    ba2c:	e59f0164 	ldr	r0, [pc, #356]	; bb98 <_start+0x2c84>
    ba30:	e2855001 	add	r5, r5, #1
    ba34:	e28cc004 	add	ip, ip, #4
    ba38:	e2844020 	add	r4, r4, #32
    ba3c:	e1a0100c 	mov	r1, ip
    ba40:	e58dc000 	str	ip, [sp]
[31m    ba44:	ebfff493 	bl	8c98 <printf@plt>[0m
    ba48:	e7993006 	ldr	r3, [r9, r6]
    ba4c:	e1550003 	cmp	r5, r3
--
    ba70:	e28d7024 	add	r7, sp, #36	; 0x24
    ba74:	e28d6010 	add	r6, sp, #16
    ba78:	ebfff49b 	bl	8cec <puts@plt>
    ba7c:	e5bb4004 	ldr	r4, [fp, #4]!
    ba80:	e3540000 	cmp	r4, #0
    ba84:	0a000011 	beq	bad0 <_start+0x2bbc>
    ba88:	e284000c 	add	r0, r4, #12
    ba8c:	e1a01007 	mov	r1, r7
    ba90:	ebfff4ec 	bl	8e48 <ether_etoa@plt>
    ba94:	e1a0a005 	mov	sl, r5
    ba98:	e1a08000 	mov	r8, r0
    ba9c:	e1a01006 	mov	r1, r6
    baa0:	e2840012 	add	r0, r4, #18
    baa4:	ebfff4e7 	bl	8e48 <ether_etoa@plt>
    baa8:	e2843018 	add	r3, r4, #24
    baac:	e58d0000 	str	r0, [sp]
    bab0:	e1a0100a 	mov	r1, sl
    bab4:	e59f00e4 	ldr	r0, [pc, #228]	; bba0 <_start+0x2c8c>
    bab8:	e1a02008 	mov	r2, r8
    babc:	e2855001 	add	r5, r5, #1
[31m    bac0:	ebfff474 	bl	8c98 <printf@plt>[0m
    bac4:	e5944008 	ldr	r4, [r4, #8]
    bac8:	e3540000 	cmp	r4, #0

[0m
[[0;33m*[0m] Function [0;33mprintf[0m used [0;33m27[0m times [0;33meapd[0m

