[[0;33m*[0m] Binary protection state of [0;33mopenl2tpd[0m
[REF] s12

  	RELRO          CANARY            NX           PIE       RPATH        RUNPATH      SYMBOLS      
  	[31mNo RELRO[0m       [31mNo Canary found[0m   [32mNX enabled[0m   [31mNo PIE[0m       [32mNo RPATH[0m     [32mNo RUNPATH[0m   [31mSymbols[0m

[0m
[[0;33m*[0m] Function [0;33mprintf[0m tear down of [0;33mopenl2tpd[0m

    dc44:	e3530000 	cmp	r3, #0
    dc48:	0a000039 	beq	dd34 <l2tp_parse_args+0x350>
    dc4c:	e30737d0 	movw	r3, #30672	; 0x77d0
    dc50:	e3403007 	movt	r3, #7
    dc54:	e5933000 	ldr	r3, [r3]
    dc58:	e2033004 	and	r3, r3, #4
    dc5c:	e3530000 	cmp	r3, #0
    dc60:	0a000035 	beq	dd3c <l2tp_parse_args+0x358>
    dc64:	e30737cc 	movw	r3, #30668	; 0x77cc
    dc68:	e3403007 	movt	r3, #7
    dc6c:	e5933000 	ldr	r3, [r3]
    dc70:	e3530000 	cmp	r3, #0
    dc74:	0a000008 	beq	dc9c <l2tp_parse_args+0x2b8>
    dc78:	e3073c50 	movw	r3, #31824	; 0x7c50
    dc7c:	e3403005 	movt	r3, #5
    dc80:	e30727c4 	movw	r2, #30660	; 0x77c4
    dc84:	e3402007 	movt	r2, #7
    dc88:	e5922000 	ldr	r2, [r2]
    dc8c:	e1a00003 	mov	r0, r3
    dc90:	e1a01002 	mov	r1, r2
[31m    dc94:	ebfffc14 	bl	ccec <printf@plt>[0m
    dc98:	ea000028 	b	dd40 <l2tp_parse_args+0x35c>
    dc9c:	e30737c4 	movw	r3, #30660	; 0x77c4
--
    e990:	e3530000 	cmp	r3, #0
    e994:	0a000022 	beq	ea24 <l2tp_init+0x114>
    e998:	e30737cc 	movw	r3, #30668	; 0x77cc
    e99c:	e3403007 	movt	r3, #7
    e9a0:	e5933000 	ldr	r3, [r3]
    e9a4:	e3530000 	cmp	r3, #0
    e9a8:	0a00000e 	beq	e9e8 <l2tp_init+0xd8>
    e9ac:	e3073d60 	movw	r3, #32096	; 0x7d60
    e9b0:	e3403005 	movt	r3, #5
    e9b4:	e30727d0 	movw	r2, #30672	; 0x77d0
    e9b8:	e3402007 	movt	r2, #7
    e9bc:	e5922000 	ldr	r2, [r2]
    e9c0:	e58d2000 	str	r2, [sp]
    e9c4:	e1a00003 	mov	r0, r3
    e9c8:	e3071e90 	movw	r1, #32400	; 0x7e90
    e9cc:	e3401005 	movt	r1, #5
    e9d0:	e3072cbc 	movw	r2, #31932	; 0x7cbc
    e9d4:	e3402005 	movt	r2, #5
    e9d8:	e3073cc8 	movw	r3, #31944	; 0x7cc8
    e9dc:	e3403005 	movt	r3, #5
[31m    e9e0:	ebfff8c1 	bl	ccec <printf@plt>[0m
    e9e4:	ea00000e 	b	ea24 <l2tp_init+0x114>
    e9e8:	e30737d0 	movw	r3, #30672	; 0x77d0
--
    eb80:	e3403007 	movt	r3, #7
    eb84:	e5933000 	ldr	r3, [r3]
    eb88:	e3530000 	cmp	r3, #0
    eb8c:	0a000060 	beq	ed14 <l2tp_cleanup+0x1c4>
    eb90:	e30737d0 	movw	r3, #30672	; 0x77d0
    eb94:	e3403007 	movt	r3, #7
    eb98:	e5933000 	ldr	r3, [r3]
    eb9c:	e2033040 	and	r3, r3, #64	; 0x40
    eba0:	e3530000 	cmp	r3, #0
    eba4:	0a00005c 	beq	ed1c <l2tp_cleanup+0x1cc>
    eba8:	e30737cc 	movw	r3, #30668	; 0x77cc
    ebac:	e3403007 	movt	r3, #7
    ebb0:	e5933000 	ldr	r3, [r3]
    ebb4:	e3530000 	cmp	r3, #0
    ebb8:	0a000006 	beq	ebd8 <l2tp_cleanup+0x88>
    ebbc:	e3073de8 	movw	r3, #32232	; 0x7de8
    ebc0:	e3403005 	movt	r3, #5
    ebc4:	e1a00003 	mov	r0, r3
    ebc8:	e3071e80 	movw	r1, #32384	; 0x7e80
    ebcc:	e3401005 	movt	r1, #5
[31m    ebd0:	ebfff845 	bl	ccec <printf@plt>[0m
    ebd4:	ea000051 	b	ed20 <l2tp_cleanup+0x1d0>
    ebd8:	e3a00007 	mov	r0, #7
--
    ec8c:	e3403007 	movt	r3, #7
    ec90:	e5933000 	ldr	r3, [r3]
    ec94:	e3530000 	cmp	r3, #0
    ec98:	0a000017 	beq	ecfc <l2tp_cleanup+0x1ac>
    ec9c:	e30737d0 	movw	r3, #30672	; 0x77d0
    eca0:	e3403007 	movt	r3, #7
    eca4:	e5933000 	ldr	r3, [r3]
    eca8:	e2033040 	and	r3, r3, #64	; 0x40
    ecac:	e3530000 	cmp	r3, #0
    ecb0:	0a000011 	beq	ecfc <l2tp_cleanup+0x1ac>
    ecb4:	e30737cc 	movw	r3, #30668	; 0x77cc
    ecb8:	e3403007 	movt	r3, #7
    ecbc:	e5933000 	ldr	r3, [r3]
    ecc0:	e3530000 	cmp	r3, #0
    ecc4:	0a000006 	beq	ece4 <l2tp_cleanup+0x194>
    ecc8:	e3073e5c 	movw	r3, #32348	; 0x7e5c
    eccc:	e3403005 	movt	r3, #5
    ecd0:	e1a00003 	mov	r0, r3
    ecd4:	e3071e80 	movw	r1, #32384	; 0x7e80
    ecd8:	e3401005 	movt	r1, #5
[31m    ecdc:	ebfff802 	bl	ccec <printf@plt>[0m
    ece0:	ea000005 	b	ecfc <l2tp_cleanup+0x1ac>
    ece4:	e3a00007 	mov	r0, #7
--
   14240:	e5d32002 	ldrb	r2, [r3, #2]
   14244:	e5d33003 	ldrb	r3, [r3, #3]
   14248:	e1a03403 	lsl	r3, r3, #8
   1424c:	e1833002 	orr	r3, r3, r2
   14250:	e6ff3073 	uxth	r3, r3
   14254:	e1a00003 	mov	r0, r3
   14258:	ebffe375 	bl	d034 <ntohs@plt>
   1425c:	e1a03000 	mov	r3, r0
   14260:	e1a07003 	mov	r7, r3
   14264:	e51b00a8 	ldr	r0, [fp, #-168]	; 0xffffff58
   14268:	e51b10ac 	ldr	r1, [fp, #-172]	; 0xffffff54
   1426c:	ebffe578 	bl	d854 <l2tp_buffer_hexify>
   14270:	e1a03000 	mov	r3, r0
   14274:	e58d7000 	str	r7, [sp]
   14278:	e58d3004 	str	r3, [sp, #4]
   1427c:	e1a00004 	mov	r0, r4
   14280:	e30b1838 	movw	r1, #47160	; 0xb838
   14284:	e3401005 	movt	r1, #5
   14288:	e1a02006 	mov	r2, r6
   1428c:	e1a03005 	mov	r3, r5
[31m   14290:	ebffe295 	bl	ccec <printf@plt>[0m
   14294:	ea00002b 	b	14348 <l2tp_avp_hide_unhide+0x314>
   14298:	e51b30a4 	ldr	r3, [fp, #-164]	; 0xffffff5c
--
   1447c:	e3403007 	movt	r3, #7
   14480:	e5933000 	ldr	r3, [r3]
   14484:	e3530000 	cmp	r3, #0
   14488:	0a000011 	beq	144d4 <l2tp_avp_hide+0x17c>
   1448c:	e30a4a2c 	movw	r4, #43564	; 0xaa2c
   14490:	e3404005 	movt	r4, #5
   14494:	e51b3014 	ldr	r3, [fp, #-20]	; 0xffffffec
   14498:	e2832006 	add	r2, r3, #6
   1449c:	e51b3010 	ldr	r3, [fp, #-16]
   144a0:	e2433006 	sub	r3, r3, #6
   144a4:	e1a00002 	mov	r0, r2
   144a8:	e1a01003 	mov	r1, r3
   144ac:	ebffe4e8 	bl	d854 <l2tp_buffer_hexify>
   144b0:	e1a03000 	mov	r3, r0
   144b4:	e58d3000 	str	r3, [sp]
   144b8:	e1a00004 	mov	r0, r4
   144bc:	e30b1828 	movw	r1, #47144	; 0xb828
   144c0:	e3401005 	movt	r1, #5
   144c4:	e51b2018 	ldr	r2, [fp, #-24]	; 0xffffffe8
   144c8:	e51b3010 	ldr	r3, [fp, #-16]
[31m   144cc:	ebffe206 	bl	ccec <printf@plt>[0m
   144d0:	ea000011 	b	1451c <l2tp_avp_hide+0x1c4>
   144d4:	e51b3014 	ldr	r3, [fp, #-20]	; 0xffffffec
--
   14670:	e30737cc 	movw	r3, #30668	; 0x77cc
   14674:	e3403007 	movt	r3, #7
   14678:	e5933000 	ldr	r3, [r3]
   1467c:	e3530000 	cmp	r3, #0
   14680:	0a000010 	beq	146c8 <l2tp_avp_hide+0x370>
   14684:	e30a4a94 	movw	r4, #43668	; 0xaa94
   14688:	e3404005 	movt	r4, #5
   1468c:	e51b3020 	ldr	r3, [fp, #-32]	; 0xffffffe0
   14690:	e2832006 	add	r2, r3, #6
   14694:	e51b3034 	ldr	r3, [fp, #-52]	; 0xffffffcc
   14698:	e5933000 	ldr	r3, [r3]
   1469c:	e2433006 	sub	r3, r3, #6
   146a0:	e1a00002 	mov	r0, r2
   146a4:	e1a01003 	mov	r1, r3
   146a8:	ebffe469 	bl	d854 <l2tp_buffer_hexify>
   146ac:	e1a03000 	mov	r3, r0
   146b0:	e1a00004 	mov	r0, r4
   146b4:	e30b1828 	movw	r1, #47144	; 0xb828
   146b8:	e3401005 	movt	r1, #5
   146bc:	e1a02003 	mov	r2, r3
[31m   146c0:	ebffe189 	bl	ccec <printf@plt>[0m
   146c4:	ea00000e 	b	14704 <l2tp_avp_hide+0x3ac>
   146c8:	e51b3020 	ldr	r3, [fp, #-32]	; 0xffffffe0
--
   147fc:	e5933000 	ldr	r3, [r3]
   14800:	e3530000 	cmp	r3, #0
   14804:	0a000012 	beq	14854 <l2tp_avp_unhide+0xfc>
   14808:	e30a4ae4 	movw	r4, #43748	; 0xaae4
   1480c:	e3404005 	movt	r4, #5
   14810:	e51b3024 	ldr	r3, [fp, #-36]	; 0xffffffdc
   14814:	e5935000 	ldr	r5, [r3]
   14818:	e51b3020 	ldr	r3, [fp, #-32]	; 0xffffffe0
   1481c:	e2832006 	add	r2, r3, #6
   14820:	e51b3024 	ldr	r3, [fp, #-36]	; 0xffffffdc
   14824:	e5933000 	ldr	r3, [r3]
   14828:	e2433006 	sub	r3, r3, #6
   1482c:	e1a00002 	mov	r0, r2
   14830:	e1a01003 	mov	r1, r3
   14834:	ebffe406 	bl	d854 <l2tp_buffer_hexify>
   14838:	e1a03000 	mov	r3, r0
   1483c:	e1a00004 	mov	r0, r4
   14840:	e30b1808 	movw	r1, #47112	; 0xb808
   14844:	e3401005 	movt	r1, #5
   14848:	e1a02005 	mov	r2, r5
[31m   1484c:	ebffe126 	bl	ccec <printf@plt>[0m
   14850:	ea000012 	b	148a0 <l2tp_avp_unhide+0x148>
   14854:	e51b3024 	ldr	r3, [fp, #-36]	; 0xffffffdc
--
   148bc:	e3530000 	cmp	r3, #0
   148c0:	0a00001b 	beq	14934 <l2tp_avp_unhide+0x1dc>
   148c4:	e30737d0 	movw	r3, #30672	; 0x77d0
   148c8:	e3403007 	movt	r3, #7
   148cc:	e5933000 	ldr	r3, [r3]
   148d0:	e2033020 	and	r3, r3, #32
   148d4:	e3530000 	cmp	r3, #0
   148d8:	0a000015 	beq	14934 <l2tp_avp_unhide+0x1dc>
   148dc:	e30737cc 	movw	r3, #30668	; 0x77cc
   148e0:	e3403007 	movt	r3, #7
   148e4:	e5933000 	ldr	r3, [r3]
   148e8:	e3530000 	cmp	r3, #0
   148ec:	0a000008 	beq	14914 <l2tp_avp_unhide+0x1bc>
   148f0:	e30a3b44 	movw	r3, #43844	; 0xab44
   148f4:	e3403005 	movt	r3, #5
   148f8:	e51b2024 	ldr	r2, [fp, #-36]	; 0xffffffdc
   148fc:	e5922000 	ldr	r2, [r2]
   14900:	e1a00003 	mov	r0, r3
   14904:	e30b1808 	movw	r1, #47112	; 0xb808
   14908:	e3401005 	movt	r1, #5
[31m   1490c:	ebffe0f6 	bl	ccec <printf@plt>[0m
   14910:	ea000007 	b	14934 <l2tp_avp_unhide+0x1dc>
   14914:	e51b3024 	ldr	r3, [fp, #-36]	; 0xffffffdc
--
   149c4:	e5933000 	ldr	r3, [r3]
   149c8:	e3530000 	cmp	r3, #0
   149cc:	0a000019 	beq	14a38 <l2tp_avp_unhide+0x2e0>
   149d0:	e30737d0 	movw	r3, #30672	; 0x77d0
   149d4:	e3403007 	movt	r3, #7
   149d8:	e5933000 	ldr	r3, [r3]
   149dc:	e2033020 	and	r3, r3, #32
   149e0:	e3530000 	cmp	r3, #0
   149e4:	0a000013 	beq	14a38 <l2tp_avp_unhide+0x2e0>
   149e8:	e30737cc 	movw	r3, #30668	; 0x77cc
   149ec:	e3403007 	movt	r3, #7
   149f0:	e5933000 	ldr	r3, [r3]
   149f4:	e3530000 	cmp	r3, #0
   149f8:	0a000007 	beq	14a1c <l2tp_avp_unhide+0x2c4>
   149fc:	e30a3b94 	movw	r3, #43924	; 0xab94
   14a00:	e3403005 	movt	r3, #5
   14a04:	e15b21ba 	ldrh	r2, [fp, #-26]	; 0xffffffe6
   14a08:	e1a00003 	mov	r0, r3
   14a0c:	e30b1808 	movw	r1, #47112	; 0xb808
   14a10:	e3401005 	movt	r1, #5
[31m   14a14:	ebffe0b4 	bl	ccec <printf@plt>[0m
   14a18:	ea000006 	b	14a38 <l2tp_avp_unhide+0x2e0>
   14a1c:	e15b31ba 	ldrh	r3, [fp, #-26]	; 0xffffffe6
--
   1a438:	e5933000 	ldr	r3, [r3]
   1a43c:	e3530000 	cmp	r3, #0
   1a440:	0a000019 	beq	1a4ac <l2tp_avp_message_decode+0x700>
   1a444:	e30737d0 	movw	r3, #30672	; 0x77d0
   1a448:	e3403007 	movt	r3, #7
   1a44c:	e5933000 	ldr	r3, [r3]
   1a450:	e2033010 	and	r3, r3, #16
   1a454:	e3530000 	cmp	r3, #0
   1a458:	0a000013 	beq	1a4ac <l2tp_avp_message_decode+0x700>
   1a45c:	e30737cc 	movw	r3, #30668	; 0x77cc
   1a460:	e3403007 	movt	r3, #7
   1a464:	e5933000 	ldr	r3, [r3]
   1a468:	e3530000 	cmp	r3, #0
   1a46c:	0a000007 	beq	1a490 <l2tp_avp_message_decode+0x6e4>
   1a470:	e30b33a8 	movw	r3, #45992	; 0xb3a8
   1a474:	e3403005 	movt	r3, #5
   1a478:	e15b23b6 	ldrh	r2, [fp, #-54]	; 0xffffffca
   1a47c:	e1a00003 	mov	r0, r3
   1a480:	e30b17f0 	movw	r1, #47088	; 0xb7f0
   1a484:	e3401005 	movt	r1, #5
[31m   1a488:	ebffca17 	bl	ccec <printf@plt>[0m
   1a48c:	ea000006 	b	1a4ac <l2tp_avp_message_decode+0x700>
   1a490:	e15b33b6 	ldrh	r3, [fp, #-54]	; 0xffffffca
--
   1a538:	e3403007 	movt	r3, #7
   1a53c:	e5933000 	ldr	r3, [r3]
   1a540:	e3530000 	cmp	r3, #0
   1a544:	0a000011 	beq	1a590 <l2tp_avp_message_decode+0x7e4>
   1a548:	e30b2428 	movw	r2, #46120	; 0xb428
   1a54c:	e3402005 	movt	r2, #5
   1a550:	e15b03b6 	ldrh	r0, [fp, #-54]	; 0xffffffca
   1a554:	e30a13f4 	movw	r1, #41972	; 0xa3f4
   1a558:	e3401005 	movt	r1, #5
   1a55c:	e3a0c010 	mov	ip, #16
   1a560:	e1a03000 	mov	r3, r0
   1a564:	e1a03103 	lsl	r3, r3, #2
   1a568:	e0833000 	add	r3, r3, r0
   1a56c:	e1a03103 	lsl	r3, r3, #2
   1a570:	e0813003 	add	r3, r1, r3
   1a574:	e083300c 	add	r3, r3, ip
   1a578:	e5931000 	ldr	r1, [r3]
   1a57c:	e51b303c 	ldr	r3, [fp, #-60]	; 0xffffffc4
   1a580:	e1a00002 	mov	r0, r2
   1a584:	e1a02003 	mov	r2, r3
[31m   1a588:	ebffc9d7 	bl	ccec <printf@plt>[0m
   1a58c:	ea00000f 	b	1a5d0 <l2tp_avp_message_decode+0x824>
   1a590:	e15b13b6 	ldrh	r1, [fp, #-54]	; 0xffffffca
--
   1adf0:	e3403007 	movt	r3, #7
   1adf4:	e5933000 	ldr	r3, [r3]
   1adf8:	e2033c01 	and	r3, r3, #256	; 0x100
   1adfc:	e3530000 	cmp	r3, #0
   1ae00:	0a00001b 	beq	1ae74 <l2tp_avp_message_encode+0x308>
   1ae04:	e30737cc 	movw	r3, #30668	; 0x77cc
   1ae08:	e3403007 	movt	r3, #7
   1ae0c:	e5933000 	ldr	r3, [r3]
   1ae10:	e3530000 	cmp	r3, #0
   1ae14:	0a00000b 	beq	1ae48 <l2tp_avp_message_encode+0x2dc>
   1ae18:	e30b3638 	movw	r3, #46648	; 0xb638
   1ae1c:	e3403005 	movt	r3, #5
   1ae20:	e51b2030 	ldr	r2, [fp, #-48]	; 0xffffffd0
   1ae24:	e51bc02c 	ldr	ip, [fp, #-44]	; 0xffffffd4
   1ae28:	e15b11ba 	ldrh	r1, [fp, #-26]	; 0xffffffe6
   1ae2c:	e58d1000 	str	r1, [sp]
   1ae30:	e1a00003 	mov	r0, r3
   1ae34:	e30b17d8 	movw	r1, #47064	; 0xb7d8
   1ae38:	e3401005 	movt	r1, #5
   1ae3c:	e1a0300c 	mov	r3, ip
[31m   1ae40:	ebffc7a9 	bl	ccec <printf@plt>[0m
   1ae44:	ea00000a 	b	1ae74 <l2tp_avp_message_encode+0x308>
   1ae48:	e51b3030 	ldr	r3, [fp, #-48]	; 0xffffffd0
--
   1af78:	e5933000 	ldr	r3, [r3]
   1af7c:	e3530000 	cmp	r3, #0
   1af80:	0a000019 	beq	1afec <l2tp_avp_message_encode+0x480>
   1af84:	e30737d0 	movw	r3, #30672	; 0x77d0
   1af88:	e3403007 	movt	r3, #7
   1af8c:	e5933000 	ldr	r3, [r3]
   1af90:	e2033020 	and	r3, r3, #32
   1af94:	e3530000 	cmp	r3, #0
   1af98:	0a000013 	beq	1afec <l2tp_avp_message_encode+0x480>
   1af9c:	e30737cc 	movw	r3, #30668	; 0x77cc
   1afa0:	e3403007 	movt	r3, #7
   1afa4:	e5933000 	ldr	r3, [r3]
   1afa8:	e3530000 	cmp	r3, #0
   1afac:	0a000007 	beq	1afd0 <l2tp_avp_message_encode+0x464>
   1afb0:	e30b3698 	movw	r3, #46744	; 0xb698
   1afb4:	e3403005 	movt	r3, #5
   1afb8:	e15b21ba 	ldrh	r2, [fp, #-26]	; 0xffffffe6
   1afbc:	e1a00003 	mov	r0, r3
   1afc0:	e30b17d8 	movw	r1, #47064	; 0xb7d8
   1afc4:	e3401005 	movt	r1, #5
[31m   1afc8:	ebffc747 	bl	ccec <printf@plt>[0m
   1afcc:	ea000006 	b	1afec <l2tp_avp_message_encode+0x480>
   1afd0:	e15b31ba 	ldrh	r3, [fp, #-26]	; 0xffffffe6
--
   1b0e8:	e3403007 	movt	r3, #7
   1b0ec:	e5933000 	ldr	r3, [r3]
   1b0f0:	e2033c01 	and	r3, r3, #256	; 0x100
   1b0f4:	e3530000 	cmp	r3, #0
   1b0f8:	0a00001b 	beq	1b16c <l2tp_avp_message_encode+0x600>
   1b0fc:	e30737cc 	movw	r3, #30668	; 0x77cc
   1b100:	e3403007 	movt	r3, #7
   1b104:	e5933000 	ldr	r3, [r3]
   1b108:	e3530000 	cmp	r3, #0
   1b10c:	0a00000b 	beq	1b140 <l2tp_avp_message_encode+0x5d4>
   1b110:	e30b3638 	movw	r3, #46648	; 0xb638
   1b114:	e3403005 	movt	r3, #5
   1b118:	e51b2030 	ldr	r2, [fp, #-48]	; 0xffffffd0
   1b11c:	e51bc02c 	ldr	ip, [fp, #-44]	; 0xffffffd4
   1b120:	e3a01024 	mov	r1, #36	; 0x24
   1b124:	e58d1000 	str	r1, [sp]
   1b128:	e1a00003 	mov	r0, r3
   1b12c:	e30b17d8 	movw	r1, #47064	; 0xb7d8
   1b130:	e3401005 	movt	r1, #5
   1b134:	e1a0300c 	mov	r3, ip
[31m   1b138:	ebffc6eb 	bl	ccec <printf@plt>[0m
   1b13c:	ea00000a 	b	1b16c <l2tp_avp_message_encode+0x600>
   1b140:	e51b3030 	ldr	r3, [fp, #-48]	; 0xffffffd0
--
   1b1dc:	e5933000 	ldr	r3, [r3]
   1b1e0:	e3530000 	cmp	r3, #0
   1b1e4:	0a000019 	beq	1b250 <l2tp_avp_message_encode+0x6e4>
   1b1e8:	e30737d0 	movw	r3, #30672	; 0x77d0
   1b1ec:	e3403007 	movt	r3, #7
   1b1f0:	e5933000 	ldr	r3, [r3]
   1b1f4:	e2033020 	and	r3, r3, #32
   1b1f8:	e3530000 	cmp	r3, #0
   1b1fc:	0a000013 	beq	1b250 <l2tp_avp_message_encode+0x6e4>
   1b200:	e30737cc 	movw	r3, #30668	; 0x77cc
   1b204:	e3403007 	movt	r3, #7
   1b208:	e5933000 	ldr	r3, [r3]
   1b20c:	e3530000 	cmp	r3, #0
   1b210:	0a000007 	beq	1b234 <l2tp_avp_message_encode+0x6c8>
   1b214:	e30b3698 	movw	r3, #46744	; 0xb698
   1b218:	e3403005 	movt	r3, #5
   1b21c:	e1a00003 	mov	r0, r3
   1b220:	e30b17d8 	movw	r1, #47064	; 0xb7d8
   1b224:	e3401005 	movt	r1, #5
   1b228:	e3a02024 	mov	r2, #36	; 0x24
[31m   1b22c:	ebffc6ae 	bl	ccec <printf@plt>[0m
   1b230:	ea000006 	b	1b250 <l2tp_avp_message_encode+0x6e4>
   1b234:	e3a00007 	mov	r0, #7
--
   1b40c:	e5933000 	ldr	r3, [r3]
   1b410:	e3530000 	cmp	r3, #0
   1b414:	0a0000a1 	beq	1b6a0 <l2tp_avp_preparse+0x2f8>
   1b418:	e30737d0 	movw	r3, #30672	; 0x77d0
   1b41c:	e3403007 	movt	r3, #7
   1b420:	e5933000 	ldr	r3, [r3]
   1b424:	e2033020 	and	r3, r3, #32
   1b428:	e3530000 	cmp	r3, #0
   1b42c:	0a00009b 	beq	1b6a0 <l2tp_avp_preparse+0x2f8>
   1b430:	e30737cc 	movw	r3, #30668	; 0x77cc
   1b434:	e3403007 	movt	r3, #7
   1b438:	e5933000 	ldr	r3, [r3]
   1b43c:	e3530000 	cmp	r3, #0
   1b440:	0a000007 	beq	1b464 <l2tp_avp_preparse+0xbc>
   1b444:	e30b36c0 	movw	r3, #46784	; 0xb6c0
   1b448:	e3403005 	movt	r3, #5
   1b44c:	e1a00003 	mov	r0, r3
   1b450:	e30b17c4 	movw	r1, #47044	; 0xb7c4
   1b454:	e3401005 	movt	r1, #5
   1b458:	e51b202c 	ldr	r2, [fp, #-44]	; 0xffffffd4
[31m   1b45c:	ebffc622 	bl	ccec <printf@plt>[0m
   1b460:	ea00008e 	b	1b6a0 <l2tp_avp_preparse+0x2f8>
   1b464:	e3a00007 	mov	r0, #7
--
   1be88:	e51b2010 	ldr	r2, [fp, #-16]
   1be8c:	e1d220b0 	ldrh	r2, [r2]
   1be90:	e1a0e002 	mov	lr, r2
   1be94:	e51b2010 	ldr	r2, [fp, #-16]
   1be98:	e1d220b2 	ldrh	r2, [r2, #2]
   1be9c:	e1a00002 	mov	r0, r2
   1bea0:	e51b2010 	ldr	r2, [fp, #-16]
   1bea4:	e1d220ba 	ldrh	r2, [r2, #10]
   1bea8:	e1a01002 	mov	r1, r2
   1beac:	e51b2010 	ldr	r2, [fp, #-16]
   1beb0:	e1d220b8 	ldrh	r2, [r2, #8]
   1beb4:	e58de000 	str	lr, [sp]
   1beb8:	e58d0004 	str	r0, [sp, #4]
   1bebc:	e58d1008 	str	r1, [sp, #8]
   1bec0:	e58d200c 	str	r2, [sp, #12]
   1bec4:	e1a00003 	mov	r0, r3
   1bec8:	e30b18f0 	movw	r1, #47344	; 0xb8f0
   1becc:	e3401005 	movt	r1, #5
   1bed0:	e51b2010 	ldr	r2, [fp, #-16]
   1bed4:	e1a0300c 	mov	r3, ip
[31m   1bed8:	ebffc383 	bl	ccec <printf@plt>[0m
   1bedc:	ea000019 	b	1bf48 <l2tp_pkt_free+0x124>
   1bee0:	e51b3010 	ldr	r3, [fp, #-16]
--
   1c404:	e1a05001 	mov	r5, r1
   1c408:	e51b1028 	ldr	r1, [fp, #-40]	; 0xffffffd8
   1c40c:	e1d110b8 	ldrh	r1, [r1, #8]
   1c410:	e1a04001 	mov	r4, r1
   1c414:	e51b1034 	ldr	r1, [fp, #-52]	; 0xffffffcc
   1c418:	e591e000 	ldr	lr, [r1]
   1c41c:	e15b01b6 	ldrh	r0, [fp, #-22]	; 0xffffffea
   1c420:	e51b1028 	ldr	r1, [fp, #-40]	; 0xffffffd8
   1c424:	e591100c 	ldr	r1, [r1, #12]
   1c428:	e58d7000 	str	r7, [sp]
   1c42c:	e58d6004 	str	r6, [sp, #4]
   1c430:	e58d5008 	str	r5, [sp, #8]
   1c434:	e58d400c 	str	r4, [sp, #12]
   1c438:	e58de010 	str	lr, [sp, #16]
   1c43c:	e58d0014 	str	r0, [sp, #20]
   1c440:	e58d1018 	str	r1, [sp, #24]
   1c444:	e1a00003 	mov	r0, r3
   1c448:	e30c1214 	movw	r1, #49684	; 0xc214
   1c44c:	e3401005 	movt	r1, #5
   1c450:	e1a0300c 	mov	r3, ip
[31m   1c454:	ebffc224 	bl	ccec <printf@plt>[0m
   1c458:	ea000022 	b	1c4e8 <l2tp_net_parse_header+0x3c0>
   1c45c:	e51b302c 	ldr	r3, [fp, #-44]	; 0xffffffd4
--
   1c990:	e30737cc 	movw	r3, #30668	; 0x77cc
   1c994:	e3403007 	movt	r3, #7
   1c998:	e5933000 	ldr	r3, [r3]
   1c99c:	e3530000 	cmp	r3, #0
   1c9a0:	0a000010 	beq	1c9e8 <l2tp_net_recv_core+0x26c>
   1c9a4:	e30b39a8 	movw	r3, #47528	; 0xb9a8
   1c9a8:	e3403005 	movt	r3, #5
   1c9ac:	e51b2020 	ldr	r2, [fp, #-32]	; 0xffffffe0
   1c9b0:	e1d220b0 	ldrh	r2, [r2]
   1c9b4:	e1a0c002 	mov	ip, r2
   1c9b8:	e51b2020 	ldr	r2, [fp, #-32]	; 0xffffffe0
   1c9bc:	e1d220b2 	ldrh	r2, [r2, #2]
   1c9c0:	e58d2000 	str	r2, [sp]
   1c9c4:	e51b2048 	ldr	r2, [fp, #-72]	; 0xffffffb8
   1c9c8:	e58d2004 	str	r2, [sp, #4]
   1c9cc:	e1a00003 	mov	r0, r3
   1c9d0:	e30c11ec 	movw	r1, #49644	; 0xc1ec
   1c9d4:	e3401005 	movt	r1, #5
   1c9d8:	e51b2054 	ldr	r2, [fp, #-84]	; 0xffffffac
   1c9dc:	e1a0300c 	mov	r3, ip
[31m   1c9e0:	ebffc0c1 	bl	ccec <printf@plt>[0m
   1c9e4:	ea00000f 	b	1ca28 <l2tp_net_recv_core+0x2ac>
   1c9e8:	e51b3020 	ldr	r3, [fp, #-32]	; 0xffffffe0
--
   1cb94:	e15b34b2 	ldrh	r3, [fp, #-66]	; 0xffffffbe
   1cb98:	e1a06003 	mov	r6, r3
   1cb9c:	e51b304c 	ldr	r3, [fp, #-76]	; 0xffffffb4
   1cba0:	e5933004 	ldr	r3, [r3, #4]
   1cba4:	e1a00003 	mov	r0, r3
   1cba8:	ebffc0be 	bl	cea8 <ntohl@plt>
   1cbac:	e1a05000 	mov	r5, r0
   1cbb0:	e51b304c 	ldr	r3, [fp, #-76]	; 0xffffffb4
   1cbb4:	e1d330b2 	ldrh	r3, [r3, #2]
   1cbb8:	e1a00003 	mov	r0, r3
   1cbbc:	ebffc11c 	bl	d034 <ntohs@plt>
   1cbc0:	e1a03000 	mov	r3, r0
   1cbc4:	e58d3000 	str	r3, [sp]
   1cbc8:	e51b3048 	ldr	r3, [fp, #-72]	; 0xffffffb8
   1cbcc:	e58d3004 	str	r3, [sp, #4]
   1cbd0:	e1a00004 	mov	r0, r4
   1cbd4:	e30c11ec 	movw	r1, #49644	; 0xc1ec
   1cbd8:	e3401005 	movt	r1, #5
   1cbdc:	e1a02006 	mov	r2, r6
   1cbe0:	e1a03005 	mov	r3, r5
[31m   1cbe4:	ebffc040 	bl	ccec <printf@plt>[0m
   1cbe8:	ea00003a 	b	1ccd8 <l2tp_net_recv_core+0x55c>
   1cbec:	e15b34b2 	ldrh	r3, [fp, #-66]	; 0xffffffbe
--
   1cc5c:	0a00001d 	beq	1ccd8 <l2tp_net_recv_core+0x55c>
   1cc60:	e30737d0 	movw	r3, #30672	; 0x77d0
   1cc64:	e3403007 	movt	r3, #7
   1cc68:	e5933000 	ldr	r3, [r3]
   1cc6c:	e2033001 	and	r3, r3, #1
   1cc70:	e6ef3073 	uxtb	r3, r3
   1cc74:	e3530000 	cmp	r3, #0
   1cc78:	0a000016 	beq	1ccd8 <l2tp_net_recv_core+0x55c>
   1cc7c:	e30737cc 	movw	r3, #30668	; 0x77cc
   1cc80:	e3403007 	movt	r3, #7
   1cc84:	e5933000 	ldr	r3, [r3]
   1cc88:	e3530000 	cmp	r3, #0
   1cc8c:	0a000008 	beq	1ccb4 <l2tp_net_recv_core+0x538>
   1cc90:	e30b3a94 	movw	r3, #47764	; 0xba94
   1cc94:	e3403005 	movt	r3, #5
   1cc98:	e15b24b2 	ldrh	r2, [fp, #-66]	; 0xffffffbe
   1cc9c:	e1a00003 	mov	r0, r3
   1cca0:	e30c11ec 	movw	r1, #49644	; 0xc1ec
   1cca4:	e3401005 	movt	r1, #5
   1cca8:	e51b3048 	ldr	r3, [fp, #-72]	; 0xffffffb8
[31m   1ccac:	ebffc00e 	bl	ccec <printf@plt>[0m
   1ccb0:	ea000008 	b	1ccd8 <l2tp_net_recv_core+0x55c>
   1ccb4:	e15b34b2 	ldrh	r3, [fp, #-66]	; 0xffffffbe
--
   1cd10:	e3530000 	cmp	r3, #0
   1cd14:	0a00001a 	beq	1cd84 <l2tp_net_recv_core+0x608>
   1cd18:	e30737d0 	movw	r3, #30672	; 0x77d0
   1cd1c:	e3403007 	movt	r3, #7
   1cd20:	e5933000 	ldr	r3, [r3]
   1cd24:	e2033001 	and	r3, r3, #1
   1cd28:	e6ef3073 	uxtb	r3, r3
   1cd2c:	e3530000 	cmp	r3, #0
   1cd30:	0a000013 	beq	1cd84 <l2tp_net_recv_core+0x608>
   1cd34:	e30737cc 	movw	r3, #30668	; 0x77cc
   1cd38:	e3403007 	movt	r3, #7
   1cd3c:	e5933000 	ldr	r3, [r3]
   1cd40:	e3530000 	cmp	r3, #0
   1cd44:	0a000007 	beq	1cd68 <l2tp_net_recv_core+0x5ec>
   1cd48:	e30b3af4 	movw	r3, #47860	; 0xbaf4
   1cd4c:	e3403005 	movt	r3, #5
   1cd50:	e1a00003 	mov	r0, r3
   1cd54:	e30c11ec 	movw	r1, #49644	; 0xc1ec
   1cd58:	e3401005 	movt	r1, #5
   1cd5c:	e51b2048 	ldr	r2, [fp, #-72]	; 0xffffffb8
[31m   1cd60:	ebffbfe1 	bl	ccec <printf@plt>[0m
   1cd64:	ea000006 	b	1cd84 <l2tp_net_recv_core+0x608>
   1cd68:	e3a00007 	mov	r0, #7
--
   1ce88:	e51b5030 	ldr	r5, [fp, #-48]	; 0xffffffd0
   1ce8c:	e51b304c 	ldr	r3, [fp, #-76]	; 0xffffffb4
   1ce90:	e5933004 	ldr	r3, [r3, #4]
   1ce94:	e1a00003 	mov	r0, r3
   1ce98:	ebffc002 	bl	cea8 <ntohl@plt>
   1ce9c:	e1a07000 	mov	r7, r0
   1cea0:	e51b304c 	ldr	r3, [fp, #-76]	; 0xffffffb4
   1cea4:	e1d330b2 	ldrh	r3, [r3, #2]
   1cea8:	e1a00003 	mov	r0, r3
   1ceac:	ebffc060 	bl	d034 <ntohs@plt>
   1ceb0:	e1a03000 	mov	r3, r0
   1ceb4:	e58d7000 	str	r7, [sp]
   1ceb8:	e58d3004 	str	r3, [sp, #4]
   1cebc:	e51b3048 	ldr	r3, [fp, #-72]	; 0xffffffb8
   1cec0:	e58d3008 	str	r3, [sp, #8]
   1cec4:	e1a00004 	mov	r0, r4
   1cec8:	e30c11ec 	movw	r1, #49644	; 0xc1ec
   1cecc:	e3401005 	movt	r1, #5
   1ced0:	e1a02006 	mov	r2, r6
   1ced4:	e1a03005 	mov	r3, r5
[31m   1ced8:	ebffbf83 	bl	ccec <printf@plt>[0m
   1cedc:	ea000018 	b	1cf44 <l2tp_net_recv_core+0x7c8>
   1cee0:	e51b3028 	ldr	r3, [fp, #-40]	; 0xffffffd8
--
   1d3e4:	e3530000 	cmp	r3, #0
   1d3e8:	0a00001c 	beq	1d460 <l2tp_net_recv_unconn+0x130>
   1d3ec:	e30737d0 	movw	r3, #30672	; 0x77d0
   1d3f0:	e3403007 	movt	r3, #7
   1d3f4:	e5933000 	ldr	r3, [r3]
   1d3f8:	e2033040 	and	r3, r3, #64	; 0x40
   1d3fc:	e3530000 	cmp	r3, #0
   1d400:	0a000016 	beq	1d460 <l2tp_net_recv_unconn+0x130>
   1d404:	e30737cc 	movw	r3, #30668	; 0x77cc
   1d408:	e3403007 	movt	r3, #7
   1d40c:	e5933000 	ldr	r3, [r3]
   1d410:	e3530000 	cmp	r3, #0
   1d414:	0a000008 	beq	1d43c <l2tp_net_recv_unconn+0x10c>
   1d418:	e30b3c48 	movw	r3, #48200	; 0xbc48
   1d41c:	e3403005 	movt	r3, #5
   1d420:	e1a00003 	mov	r0, r3
   1d424:	e30c11d4 	movw	r1, #49620	; 0xc1d4
   1d428:	e3401005 	movt	r1, #5
   1d42c:	e51b2068 	ldr	r2, [fp, #-104]	; 0xffffff98
   1d430:	e51b306c 	ldr	r3, [fp, #-108]	; 0xffffff94
[31m   1d434:	ebffbe2c 	bl	ccec <printf@plt>[0m
   1d438:	ea000008 	b	1d460 <l2tp_net_recv_unconn+0x130>
   1d43c:	e51b306c 	ldr	r3, [fp, #-108]	; 0xffffff94
--
   1d550:	e30737d0 	movw	r3, #30672	; 0x77d0
   1d554:	e3403007 	movt	r3, #7
   1d558:	e5933000 	ldr	r3, [r3]
   1d55c:	e2033c01 	and	r3, r3, #256	; 0x100
   1d560:	e3530000 	cmp	r3, #0
   1d564:	0a00001a 	beq	1d5d4 <l2tp_net_recv_unconn+0x2a4>
   1d568:	e30737cc 	movw	r3, #30668	; 0x77cc
   1d56c:	e3403007 	movt	r3, #7
   1d570:	e5933000 	ldr	r3, [r3]
   1d574:	e3530000 	cmp	r3, #0
   1d578:	0a00000a 	beq	1d5a8 <l2tp_net_recv_unconn+0x278>
   1d57c:	e30b4c88 	movw	r4, #48264	; 0xbc88
   1d580:	e3404005 	movt	r4, #5
   1d584:	ebffbee9 	bl	d130 <__errno_location@plt>
   1d588:	e1a03000 	mov	r3, r0
   1d58c:	e5933000 	ldr	r3, [r3]
   1d590:	e1a00004 	mov	r0, r4
   1d594:	e30c11d4 	movw	r1, #49620	; 0xc1d4
   1d598:	e3401005 	movt	r1, #5
   1d59c:	e51b2014 	ldr	r2, [fp, #-20]	; 0xffffffec
[31m   1d5a0:	ebffbdd1 	bl	ccec <printf@plt>[0m
   1d5a4:	ea00000a 	b	1d5d4 <l2tp_net_recv_unconn+0x2a4>
   1d5a8:	ebffbee0 	bl	d130 <__errno_location@plt>
--
   1d62c:	e5933000 	ldr	r3, [r3]
   1d630:	e3530000 	cmp	r3, #0
   1d634:	0a000012 	beq	1d684 <l2tp_net_recv_unconn+0x354>
   1d638:	e30b4cd8 	movw	r4, #48344	; 0xbcd8
   1d63c:	e3404005 	movt	r4, #5
   1d640:	e51b3034 	ldr	r3, [fp, #-52]	; 0xffffffcc
   1d644:	e1a00003 	mov	r0, r3
   1d648:	ebffbe16 	bl	cea8 <ntohl@plt>
   1d64c:	e1a05000 	mov	r5, r0
   1d650:	e51b3030 	ldr	r3, [fp, #-48]	; 0xffffffd0
   1d654:	e1a00003 	mov	r0, r3
   1d658:	ebffbe12 	bl	cea8 <ntohl@plt>
   1d65c:	e1a03000 	mov	r3, r0
   1d660:	e58d5000 	str	r5, [sp]
   1d664:	e58d3004 	str	r3, [sp, #4]
   1d668:	e1a00004 	mov	r0, r4
   1d66c:	e30c11d4 	movw	r1, #49620	; 0xc1d4
   1d670:	e3401005 	movt	r1, #5
   1d674:	e51b2014 	ldr	r2, [fp, #-20]	; 0xffffffec
   1d678:	e51b3068 	ldr	r3, [fp, #-104]	; 0xffffff98
[31m   1d67c:	ebffbd9a 	bl	ccec <printf@plt>[0m
   1d680:	ea000012 	b	1d6d0 <l2tp_net_recv_unconn+0x3a0>
   1d684:	e51b3034 	ldr	r3, [fp, #-52]	; 0xffffffcc
--
   1d760:	e3530000 	cmp	r3, #0
   1d764:	0a00001c 	beq	1d7dc <l2tp_net_recv+0xdc>
   1d768:	e30737d0 	movw	r3, #30672	; 0x77d0
   1d76c:	e3403007 	movt	r3, #7
   1d770:	e5933000 	ldr	r3, [r3]
   1d774:	e2033040 	and	r3, r3, #64	; 0x40
   1d778:	e3530000 	cmp	r3, #0
   1d77c:	0a000016 	beq	1d7dc <l2tp_net_recv+0xdc>
   1d780:	e30737cc 	movw	r3, #30668	; 0x77cc
   1d784:	e3403007 	movt	r3, #7
   1d788:	e5933000 	ldr	r3, [r3]
   1d78c:	e3530000 	cmp	r3, #0
   1d790:	0a000008 	beq	1d7b8 <l2tp_net_recv+0xb8>
   1d794:	e30b3c48 	movw	r3, #48200	; 0xbc48
   1d798:	e3403005 	movt	r3, #5
   1d79c:	e1a00003 	mov	r0, r3
   1d7a0:	e30c11c4 	movw	r1, #49604	; 0xc1c4
   1d7a4:	e3401005 	movt	r1, #5
   1d7a8:	e51b2048 	ldr	r2, [fp, #-72]	; 0xffffffb8
   1d7ac:	e51b304c 	ldr	r3, [fp, #-76]	; 0xffffffb4
[31m   1d7b0:	ebffbd4d 	bl	ccec <printf@plt>[0m
   1d7b4:	ea000008 	b	1d7dc <l2tp_net_recv+0xdc>
   1d7b8:	e51b304c 	ldr	r3, [fp, #-76]	; 0xffffffb4
--
   1d934:	e30737d0 	movw	r3, #30672	; 0x77d0
   1d938:	e3403007 	movt	r3, #7
   1d93c:	e5933000 	ldr	r3, [r3]
   1d940:	e2033c01 	and	r3, r3, #256	; 0x100
   1d944:	e3530000 	cmp	r3, #0
   1d948:	0a00001a 	beq	1d9b8 <l2tp_net_recv+0x2b8>
   1d94c:	e30737cc 	movw	r3, #30668	; 0x77cc
   1d950:	e3403007 	movt	r3, #7
   1d954:	e5933000 	ldr	r3, [r3]
   1d958:	e3530000 	cmp	r3, #0
   1d95c:	0a00000a 	beq	1d98c <l2tp_net_recv+0x28c>
   1d960:	e30b4c88 	movw	r4, #48264	; 0xbc88
   1d964:	e3404005 	movt	r4, #5
   1d968:	ebffbdf0 	bl	d130 <__errno_location@plt>
   1d96c:	e1a03000 	mov	r3, r0
   1d970:	e5933000 	ldr	r3, [r3]
   1d974:	e1a00004 	mov	r0, r4
   1d978:	e30c11c4 	movw	r1, #49604	; 0xc1c4
   1d97c:	e3401005 	movt	r1, #5
   1d980:	e51b2014 	ldr	r2, [fp, #-20]	; 0xffffffec
[31m   1d984:	ebffbcd8 	bl	ccec <printf@plt>[0m
   1d988:	ea00000a 	b	1d9b8 <l2tp_net_recv+0x2b8>
   1d98c:	ebffbde7 	bl	d130 <__errno_location@plt>
--
   1dab0:	e3530000 	cmp	r3, #0
   1dab4:	0a000021 	beq	1db40 <l2tp_net_send+0xe8>
   1dab8:	e30737cc 	movw	r3, #30668	; 0x77cc
   1dabc:	e3403007 	movt	r3, #7
   1dac0:	e5933000 	ldr	r3, [r3]
   1dac4:	e3530000 	cmp	r3, #0
   1dac8:	0a00000e 	beq	1db08 <l2tp_net_send+0xb0>
   1dacc:	e30b4d44 	movw	r4, #48452	; 0xbd44
   1dad0:	e3404005 	movt	r4, #5
   1dad4:	e15b62ba 	ldrh	r6, [fp, #-42]	; 0xffffffd6
   1dad8:	e15b52bc 	ldrh	r5, [fp, #-44]	; 0xffffffd4
   1dadc:	e51b0028 	ldr	r0, [fp, #-40]	; 0xffffffd8
   1dae0:	eb0006d3 	bl	1f634 <l2tp_tunnel_get_fd>
   1dae4:	e1a03000 	mov	r3, r0
   1dae8:	e58d3000 	str	r3, [sp]
   1daec:	e1a00004 	mov	r0, r4
   1daf0:	e30c11b4 	movw	r1, #49588	; 0xc1b4
   1daf4:	e3401005 	movt	r1, #5
   1daf8:	e1a02006 	mov	r2, r6
   1dafc:	e1a03005 	mov	r3, r5
[31m   1db00:	ebffbc79 	bl	ccec <printf@plt>[0m
   1db04:	ea00000d 	b	1db40 <l2tp_net_send+0xe8>
   1db08:	e15b42ba 	ldrh	r4, [fp, #-42]	; 0xffffffd6
--
   1e108:	e51b3054 	ldr	r3, [fp, #-84]	; 0xffffffac
   1e10c:	e5933004 	ldr	r3, [r3, #4]
   1e110:	e1a00003 	mov	r0, r3
   1e114:	ebffbb63 	bl	cea8 <ntohl@plt>
   1e118:	e1a07000 	mov	r7, r0
   1e11c:	e51b3054 	ldr	r3, [fp, #-84]	; 0xffffffac
   1e120:	e1d330b2 	ldrh	r3, [r3, #2]
   1e124:	e1a00003 	mov	r0, r3
   1e128:	ebffbbc1 	bl	d034 <ntohs@plt>
   1e12c:	e1a03000 	mov	r3, r0
   1e130:	e58d9000 	str	r9, [sp]
   1e134:	e58da004 	str	sl, [sp, #4]
   1e138:	e58d8008 	str	r8, [sp, #8]
   1e13c:	e58d700c 	str	r7, [sp, #12]
   1e140:	e58d3010 	str	r3, [sp, #16]
   1e144:	e1a00004 	mov	r0, r4
   1e148:	e30c117c 	movw	r1, #49532	; 0xc17c
   1e14c:	e3401005 	movt	r1, #5
   1e150:	e1a02006 	mov	r2, r6
   1e154:	e1a03005 	mov	r3, r5
[31m   1e158:	ebffbae3 	bl	ccec <printf@plt>[0m
   1e15c:	ea00002c 	b	1e214 <l2tp_net_connect_socket+0x2bc>
   1e160:	e51b005c 	ldr	r0, [fp, #-92]	; 0xffffffa4
--
   1e26c:	e3403007 	movt	r3, #7
   1e270:	e5933000 	ldr	r3, [r3]
   1e274:	e3530000 	cmp	r3, #0
   1e278:	0a000011 	beq	1e2c4 <l2tp_net_connect_socket+0x36c>
   1e27c:	e30b4e98 	movw	r4, #48792	; 0xbe98
   1e280:	e3404005 	movt	r4, #5
   1e284:	e15b34b6 	ldrh	r3, [fp, #-70]	; 0xffffffba
   1e288:	e1a00003 	mov	r0, r3
   1e28c:	ebffbb68 	bl	d034 <ntohs@plt>
   1e290:	e1a03000 	mov	r3, r0
   1e294:	e1a05003 	mov	r5, r3
   1e298:	e51b005c 	ldr	r0, [fp, #-92]	; 0xffffffa4
   1e29c:	eb0004ce 	bl	1f5dc <l2tp_tunnel_id>
   1e2a0:	e1a03000 	mov	r3, r0
   1e2a4:	e58d3000 	str	r3, [sp]
   1e2a8:	e1a00004 	mov	r0, r4
   1e2ac:	e30c117c 	movw	r1, #49532	; 0xc17c
   1e2b0:	e3401005 	movt	r1, #5
   1e2b4:	e1a02005 	mov	r2, r5
   1e2b8:	e51b3050 	ldr	r3, [fp, #-80]	; 0xffffffb0
[31m   1e2bc:	ebffba8a 	bl	ccec <printf@plt>[0m
   1e2c0:	ea000015 	b	1e31c <l2tp_net_connect_socket+0x3c4>
   1e2c4:	e15b34b6 	ldrh	r3, [fp, #-70]	; 0xffffffba
--
   1e4d4:	ebffbad6 	bl	d034 <ntohs@plt>
   1e4d8:	e1a03000 	mov	r3, r0
   1e4dc:	e1a05003 	mov	r5, r3
   1e4e0:	e51b3034 	ldr	r3, [fp, #-52]	; 0xffffffcc
   1e4e4:	e1a00003 	mov	r0, r3
   1e4e8:	ebffba6e 	bl	cea8 <ntohl@plt>
   1e4ec:	e1a07000 	mov	r7, r0
   1e4f0:	e15b33b6 	ldrh	r3, [fp, #-54]	; 0xffffffca
   1e4f4:	e1a00003 	mov	r0, r3
   1e4f8:	ebffbacd 	bl	d034 <ntohs@plt>
   1e4fc:	e1a03000 	mov	r3, r0
   1e500:	e58d7000 	str	r7, [sp]
   1e504:	e58d3004 	str	r3, [sp, #4]
   1e508:	e51b3050 	ldr	r3, [fp, #-80]	; 0xffffffb0
   1e50c:	e58d3008 	str	r3, [sp, #8]
   1e510:	e1a00004 	mov	r0, r4
   1e514:	e30c117c 	movw	r1, #49532	; 0xc17c
   1e518:	e3401005 	movt	r1, #5
   1e51c:	e1a02006 	mov	r2, r6
   1e520:	e1a03005 	mov	r3, r5
[31m   1e524:	ebffb9f0 	bl	ccec <printf@plt>[0m
   1e528:	ea00001c 	b	1e5a0 <l2tp_net_connect_socket+0x648>
   1e52c:	e51b3044 	ldr	r3, [fp, #-68]	; 0xffffffbc
--
   1e640:	e2033080 	and	r3, r3, #128	; 0x80
   1e644:	e3530000 	cmp	r3, #0
   1e648:	0a00001e 	beq	1e6c8 <l2tp_net_create_socket+0xf8>
   1e64c:	e30737cc 	movw	r3, #30668	; 0x77cc
   1e650:	e3403007 	movt	r3, #7
   1e654:	e5933000 	ldr	r3, [r3]
   1e658:	e3530000 	cmp	r3, #0
   1e65c:	0a00000d 	beq	1e698 <l2tp_net_create_socket+0xc8>
   1e660:	e30b4fbc 	movw	r4, #49084	; 0xbfbc
   1e664:	e3404005 	movt	r4, #5
   1e668:	ebffbab0 	bl	d130 <__errno_location@plt>
   1e66c:	e1a03000 	mov	r3, r0
   1e670:	e5933000 	ldr	r3, [r3]
   1e674:	e1a00003 	mov	r0, r3
   1e678:	ebffb9aa 	bl	cd28 <strerror@plt>
   1e67c:	e1a03000 	mov	r3, r0
   1e680:	e1a00004 	mov	r0, r4
   1e684:	e30c1164 	movw	r1, #49508	; 0xc164
   1e688:	e3401005 	movt	r1, #5
   1e68c:	e1a02003 	mov	r2, r3
[31m   1e690:	ebffb995 	bl	ccec <printf@plt>[0m
   1e694:	ea00000b 	b	1e6c8 <l2tp_net_create_socket+0xf8>
   1e698:	ebffbaa4 	bl	d130 <__errno_location@plt>
--
   1e8c8:	e3403007 	movt	r3, #7
   1e8cc:	e5933000 	ldr	r3, [r3]
   1e8d0:	e3530000 	cmp	r3, #0
   1e8d4:	0a000011 	beq	1e920 <l2tp_net_create_socket+0x350>
   1e8d8:	e30c4000 	movw	r4, #49152	; 0xc000
   1e8dc:	e3404005 	movt	r4, #5
   1e8e0:	e51b3020 	ldr	r3, [fp, #-32]	; 0xffffffe0
   1e8e4:	e1a00003 	mov	r0, r3
   1e8e8:	ebffb96e 	bl	cea8 <ntohl@plt>
   1e8ec:	e1a05000 	mov	r5, r0
   1e8f0:	e15b32b2 	ldrh	r3, [fp, #-34]	; 0xffffffde
   1e8f4:	e1a00003 	mov	r0, r3
   1e8f8:	ebffb9cd 	bl	d034 <ntohs@plt>
   1e8fc:	e1a03000 	mov	r3, r0
   1e900:	e58d3000 	str	r3, [sp]
   1e904:	e1a00004 	mov	r0, r4
   1e908:	e30c1164 	movw	r1, #49508	; 0xc164
   1e90c:	e3401005 	movt	r1, #5
   1e910:	e51b2014 	ldr	r2, [fp, #-20]	; 0xffffffec
   1e914:	e1a03005 	mov	r3, r5
[31m   1e918:	ebffb8f3 	bl	ccec <printf@plt>[0m
   1e91c:	ea000010 	b	1e964 <l2tp_net_create_socket+0x394>
   1e920:	e51b3020 	ldr	r3, [fp, #-32]	; 0xffffffe0
--
   1e9f4:	e2033080 	and	r3, r3, #128	; 0x80
   1e9f8:	e3530000 	cmp	r3, #0
   1e9fc:	0a00001e 	beq	1ea7c <l2tp_net_get_local_address_for_peer+0xec>
   1ea00:	e30737cc 	movw	r3, #30668	; 0x77cc
   1ea04:	e3403007 	movt	r3, #7
   1ea08:	e5933000 	ldr	r3, [r3]
   1ea0c:	e3530000 	cmp	r3, #0
   1ea10:	0a00000d 	beq	1ea4c <l2tp_net_get_local_address_for_peer+0xbc>
   1ea14:	e30b4fbc 	movw	r4, #49084	; 0xbfbc
   1ea18:	e3404005 	movt	r4, #5
   1ea1c:	ebffb9c3 	bl	d130 <__errno_location@plt>
   1ea20:	e1a03000 	mov	r3, r0
   1ea24:	e5933000 	ldr	r3, [r3]
   1ea28:	e1a00003 	mov	r0, r3
   1ea2c:	ebffb8bd 	bl	cd28 <strerror@plt>
   1ea30:	e1a03000 	mov	r3, r0
   1ea34:	e1a00004 	mov	r0, r4
   1ea38:	e30c1140 	movw	r1, #49472	; 0xc140
   1ea3c:	e3401005 	movt	r1, #5
   1ea40:	e1a02003 	mov	r2, r3
[31m   1ea44:	ebffb8a8 	bl	ccec <printf@plt>[0m
   1ea48:	ea00000b 	b	1ea7c <l2tp_net_get_local_address_for_peer+0xec>
   1ea4c:	ebffb9b7 	bl	d130 <__errno_location@plt>
--
   1eef4:	0a00001c 	beq	1ef6c <l2tp_net_init+0x298>
   1eef8:	e30737d0 	movw	r3, #30672	; 0x77d0
   1eefc:	e3403007 	movt	r3, #7
   1ef00:	e5933000 	ldr	r3, [r3]
   1ef04:	e2033001 	and	r3, r3, #1
   1ef08:	e6ef3073 	uxtb	r3, r3
   1ef0c:	e3530000 	cmp	r3, #0
   1ef10:	0a000015 	beq	1ef6c <l2tp_net_init+0x298>
   1ef14:	e30737cc 	movw	r3, #30668	; 0x77cc
   1ef18:	e3403007 	movt	r3, #7
   1ef1c:	e5933000 	ldr	r3, [r3]
   1ef20:	e3530000 	cmp	r3, #0
   1ef24:	0a000008 	beq	1ef4c <l2tp_net_init+0x278>
   1ef28:	e30c30a8 	movw	r3, #49320	; 0xc0a8
   1ef2c:	e3403005 	movt	r3, #5
   1ef30:	e30727c4 	movw	r2, #30660	; 0x77c4
   1ef34:	e3402007 	movt	r2, #7
   1ef38:	e5922000 	ldr	r2, [r2]
   1ef3c:	e1a00003 	mov	r0, r3
   1ef40:	e51b100c 	ldr	r1, [fp, #-12]
[31m   1ef44:	ebffb768 	bl	ccec <printf@plt>[0m
   1ef48:	ea000007 	b	1ef6c <l2tp_net_init+0x298>
   1ef4c:	e30737c4 	movw	r3, #30660	; 0x77c4
--
   1fb74:	e30737cc 	movw	r3, #30668	; 0x77cc
   1fb78:	e3403007 	movt	r3, #7
   1fb7c:	e5933000 	ldr	r3, [r3]
   1fb80:	e3530000 	cmp	r3, #0
   1fb84:	0a000010 	beq	1fbcc <l2tp_tunnel_set_addresses+0x1b0>
   1fb88:	e30c356c 	movw	r3, #50540	; 0xc56c
   1fb8c:	e3403005 	movt	r3, #5
   1fb90:	e51b1018 	ldr	r1, [fp, #-24]	; 0xffffffe8
   1fb94:	e3a02e15 	mov	r2, #336	; 0x150
   1fb98:	e19120b2 	ldrh	r2, [r1, r2]
   1fb9c:	e51b1018 	ldr	r1, [fp, #-24]	; 0xffffffe8
   1fba0:	e591c0c8 	ldr	ip, [r1, #200]	; 0xc8
   1fba4:	e51b1010 	ldr	r1, [fp, #-16]
   1fba8:	e58d1000 	str	r1, [sp]
   1fbac:	e51b1008 	ldr	r1, [fp, #-8]
   1fbb0:	e58d1004 	str	r1, [sp, #4]
   1fbb4:	e1a00003 	mov	r0, r3
   1fbb8:	e30e1518 	movw	r1, #58648	; 0xe518
   1fbbc:	e3401005 	movt	r1, #5
   1fbc0:	e1a0300c 	mov	r3, ip
[31m   1fbc4:	ebffb448 	bl	ccec <printf@plt>[0m
   1fbc8:	ea00000f 	b	1fc0c <l2tp_tunnel_set_addresses+0x1f0>
   1fbcc:	e51b2018 	ldr	r2, [fp, #-24]	; 0xffffffe8
--
   20460:	e51b1010 	ldr	r1, [fp, #-16]
   20464:	e3a03e15 	mov	r3, #336	; 0x150
   20468:	e19130b3 	ldrh	r3, [r1, r3]
   2046c:	e1a0e003 	mov	lr, r3
   20470:	e15bc1b2 	ldrh	ip, [fp, #-18]	; 0xffffffee
   20474:	e15b11b4 	ldrh	r1, [fp, #-20]	; 0xffffffec
   20478:	e51b3018 	ldr	r3, [fp, #-24]	; 0xffffffe8
   2047c:	e3530000 	cmp	r3, #0
   20480:	0a000001 	beq	2048c <l2tp_tunnel_set_result+0x98>
   20484:	e51b3018 	ldr	r3, [fp, #-24]	; 0xffffffe8
   20488:	ea000001 	b	20494 <l2tp_tunnel_set_result+0xa0>
   2048c:	e30c3608 	movw	r3, #50696	; 0xc608
   20490:	e3403005 	movt	r3, #5
   20494:	e58d1000 	str	r1, [sp]
   20498:	e58d3004 	str	r3, [sp, #4]
   2049c:	e1a00002 	mov	r0, r2
   204a0:	e30e1500 	movw	r1, #58624	; 0xe500
   204a4:	e3401005 	movt	r1, #5
   204a8:	e1a0200e 	mov	r2, lr
   204ac:	e1a0300c 	mov	r3, ip
[31m   204b0:	ebffb20d 	bl	ccec <printf@plt>[0m
   204b4:	ea000016 	b	20514 <l2tp_tunnel_set_result+0x120>
   204b8:	e51b2010 	ldr	r2, [fp, #-16]
--
   20594:	e6ff2072 	uxth	r2, r2
   20598:	e1a0c002 	mov	ip, r2
   2059c:	e51b2010 	ldr	r2, [fp, #-16]
   205a0:	e59221c0 	ldr	r2, [r2, #448]	; 0x1c0
   205a4:	e5d21002 	ldrb	r1, [r2, #2]
   205a8:	e5d22003 	ldrb	r2, [r2, #3]
   205ac:	e1a02402 	lsl	r2, r2, #8
   205b0:	e1822001 	orr	r2, r2, r1
   205b4:	e6ff2072 	uxth	r2, r2
   205b8:	e1a01002 	mov	r1, r2
   205bc:	e51b2010 	ldr	r2, [fp, #-16]
   205c0:	e59221c0 	ldr	r2, [r2, #448]	; 0x1c0
   205c4:	e2822004 	add	r2, r2, #4
   205c8:	e58d1000 	str	r1, [sp]
   205cc:	e58d2004 	str	r2, [sp, #4]
   205d0:	e1a00003 	mov	r0, r3
   205d4:	e30e1500 	movw	r1, #58624	; 0xe500
   205d8:	e3401005 	movt	r1, #5
   205dc:	e1a0200e 	mov	r2, lr
   205e0:	e1a0300c 	mov	r3, ip
[31m   205e4:	ebffb1c0 	bl	ccec <printf@plt>[0m
   205e8:	ea00007d 	b	207e4 <l2tp_tunnel_set_result+0x3f0>
   205ec:	e51b2010 	ldr	r2, [fp, #-16]
--
   20990:	0a000022 	beq	20a20 <l2tp_tunnel_build_challenge+0x1e0>
   20994:	e30737cc 	movw	r3, #30668	; 0x77cc
   20998:	e3403007 	movt	r3, #7
   2099c:	e5933000 	ldr	r3, [r3]
   209a0:	e3530000 	cmp	r3, #0
   209a4:	0a00000f 	beq	209e8 <l2tp_tunnel_build_challenge+0x1a8>
   209a8:	e30c4774 	movw	r4, #51060	; 0xc774
   209ac:	e3404005 	movt	r4, #5
   209b0:	e51b3018 	ldr	r3, [fp, #-24]	; 0xffffffe8
   209b4:	e59321b8 	ldr	r2, [r3, #440]	; 0x1b8
   209b8:	e51b3018 	ldr	r3, [fp, #-24]	; 0xffffffe8
   209bc:	e59331bc 	ldr	r3, [r3, #444]	; 0x1bc
   209c0:	e1a00002 	mov	r0, r2
   209c4:	e1a01003 	mov	r1, r3
   209c8:	ebffb3a1 	bl	d854 <l2tp_buffer_hexify>
   209cc:	e1a03000 	mov	r3, r0
   209d0:	e1a00004 	mov	r0, r4
   209d4:	e30e14e4 	movw	r1, #58596	; 0xe4e4
   209d8:	e3401005 	movt	r1, #5
   209dc:	e1a02003 	mov	r2, r3
[31m   209e0:	ebffb0c1 	bl	ccec <printf@plt>[0m
   209e4:	ea00000d 	b	20a20 <l2tp_tunnel_build_challenge+0x1e0>
   209e8:	e51b3018 	ldr	r3, [fp, #-24]	; 0xffffffe8
--
   20a90:	e30737cc 	movw	r3, #30668	; 0x77cc
   20a94:	e3403007 	movt	r3, #7
   20a98:	e5933000 	ldr	r3, [r3]
   20a9c:	e3530000 	cmp	r3, #0
   20aa0:	0a000010 	beq	20ae8 <l2tp_tunnel_build_challenge_response+0xb8>
   20aa4:	e30c47a0 	movw	r4, #51104	; 0xc7a0
   20aa8:	e3404005 	movt	r4, #5
   20aac:	e55b6089 	ldrb	r6, [fp, #-137]	; 0xffffff77
   20ab0:	e51b3088 	ldr	r3, [fp, #-136]	; 0xffffff78
   20ab4:	e5935100 	ldr	r5, [r3, #256]	; 0x100
   20ab8:	e51b0090 	ldr	r0, [fp, #-144]	; 0xffffff70
   20abc:	e51b1094 	ldr	r1, [fp, #-148]	; 0xffffff6c
   20ac0:	ebffb363 	bl	d854 <l2tp_buffer_hexify>
   20ac4:	e1a03000 	mov	r3, r0
   20ac8:	e58d3000 	str	r3, [sp]
   20acc:	e1a00004 	mov	r0, r4
   20ad0:	e30e14bc 	movw	r1, #58556	; 0xe4bc
   20ad4:	e3401005 	movt	r1, #5
   20ad8:	e1a02006 	mov	r2, r6
   20adc:	e1a03005 	mov	r3, r5
[31m   20ae0:	ebffb081 	bl	ccec <printf@plt>[0m
   20ae4:	ea00000f 	b	20b28 <l2tp_tunnel_build_challenge_response+0xf8>
   20ae8:	e55b4089 	ldrb	r4, [fp, #-137]	; 0xffffff77
--
   20bb8:	e2033001 	and	r3, r3, #1
   20bbc:	e6ef3073 	uxtb	r3, r3
   20bc0:	e3530000 	cmp	r3, #0
   20bc4:	0a00001c 	beq	20c3c <l2tp_tunnel_build_challenge_response+0x20c>
   20bc8:	e30737cc 	movw	r3, #30668	; 0x77cc
   20bcc:	e3403007 	movt	r3, #7
   20bd0:	e5933000 	ldr	r3, [r3]
   20bd4:	e3530000 	cmp	r3, #0
   20bd8:	0a00000c 	beq	20c10 <l2tp_tunnel_build_challenge_response+0x1e0>
   20bdc:	e30c4774 	movw	r4, #51060	; 0xc774
   20be0:	e3404005 	movt	r4, #5
   20be4:	e59b3004 	ldr	r3, [fp, #4]
   20be8:	e1a00003 	mov	r0, r3
   20bec:	e3a01010 	mov	r1, #16
   20bf0:	ebffb317 	bl	d854 <l2tp_buffer_hexify>
   20bf4:	e1a03000 	mov	r3, r0
   20bf8:	e1a00004 	mov	r0, r4
   20bfc:	e30e14bc 	movw	r1, #58556	; 0xe4bc
   20c00:	e3401005 	movt	r1, #5
   20c04:	e1a02003 	mov	r2, r3
[31m   20c08:	ebffb037 	bl	ccec <printf@plt>[0m
   20c0c:	ea00000a 	b	20c3c <l2tp_tunnel_build_challenge_response+0x20c>
   20c10:	e59b3004 	ldr	r3, [fp, #4]
--
   20e28:	e5933000 	ldr	r3, [r3]
   20e2c:	e2033040 	and	r3, r3, #64	; 0x40
   20e30:	e3530000 	cmp	r3, #0
   20e34:	0a00001d 	beq	20eb0 <l2tp_tunnel_session_add_again+0xf4>
   20e38:	e30737cc 	movw	r3, #30668	; 0x77cc
   20e3c:	e3403007 	movt	r3, #7
   20e40:	e5933000 	ldr	r3, [r3]
   20e44:	e3530000 	cmp	r3, #0
   20e48:	0a00000c 	beq	20e80 <l2tp_tunnel_session_add_again+0xc4>
   20e4c:	e30c37f8 	movw	r3, #51192	; 0xc7f8
   20e50:	e3403005 	movt	r3, #5
   20e54:	e51b1008 	ldr	r1, [fp, #-8]
   20e58:	e3a02e15 	mov	r2, #336	; 0x150
   20e5c:	e19120b2 	ldrh	r2, [r1, r2]
   20e60:	e51b1008 	ldr	r1, [fp, #-8]
   20e64:	e591c158 	ldr	ip, [r1, #344]	; 0x158
   20e68:	e1a00003 	mov	r0, r3
   20e6c:	e30e149c 	movw	r1, #58524	; 0xe49c
   20e70:	e3401005 	movt	r1, #5
   20e74:	e1a0300c 	mov	r3, ip
[31m   20e78:	ebffaf9b 	bl	ccec <printf@plt>[0m
   20e7c:	ea00000b 	b	20eb0 <l2tp_tunnel_session_add_again+0xf4>
   20e80:	e51b2008 	ldr	r2, [fp, #-8]
--
   21054:	e5933000 	ldr	r3, [r3]
   21058:	e2033040 	and	r3, r3, #64	; 0x40
   2105c:	e3530000 	cmp	r3, #0
   21060:	0a00001d 	beq	210dc <l2tp_tunnel_session_add+0x224>
   21064:	e30737cc 	movw	r3, #30668	; 0x77cc
   21068:	e3403007 	movt	r3, #7
   2106c:	e5933000 	ldr	r3, [r3]
   21070:	e3530000 	cmp	r3, #0
   21074:	0a00000c 	beq	210ac <l2tp_tunnel_session_add+0x1f4>
   21078:	e30c37f8 	movw	r3, #51192	; 0xc7f8
   2107c:	e3403005 	movt	r3, #5
   21080:	e51b1010 	ldr	r1, [fp, #-16]
   21084:	e3a02e15 	mov	r2, #336	; 0x150
   21088:	e19120b2 	ldrh	r2, [r1, r2]
   2108c:	e51b1010 	ldr	r1, [fp, #-16]
   21090:	e591c158 	ldr	ip, [r1, #344]	; 0x158
   21094:	e1a00003 	mov	r0, r3
   21098:	e30e1484 	movw	r1, #58500	; 0xe484
   2109c:	e3401005 	movt	r1, #5
   210a0:	e1a0300c 	mov	r3, ip
[31m   210a4:	ebffaf10 	bl	ccec <printf@plt>[0m
   210a8:	ea00000b 	b	210dc <l2tp_tunnel_session_add+0x224>
   210ac:	e51b2010 	ldr	r2, [fp, #-16]
--
   21168:	e5933000 	ldr	r3, [r3]
   2116c:	e2033040 	and	r3, r3, #64	; 0x40
   21170:	e3530000 	cmp	r3, #0
   21174:	0a00001d 	beq	211f0 <l2tp_tunnel_session_remove+0x104>
   21178:	e30737cc 	movw	r3, #30668	; 0x77cc
   2117c:	e3403007 	movt	r3, #7
   21180:	e5933000 	ldr	r3, [r3]
   21184:	e3530000 	cmp	r3, #0
   21188:	0a00000c 	beq	211c0 <l2tp_tunnel_session_remove+0xd4>
   2118c:	e30c37f8 	movw	r3, #51192	; 0xc7f8
   21190:	e3403005 	movt	r3, #5
   21194:	e51b1008 	ldr	r1, [fp, #-8]
   21198:	e3a02e15 	mov	r2, #336	; 0x150
   2119c:	e19120b2 	ldrh	r2, [r1, r2]
   211a0:	e51b1008 	ldr	r1, [fp, #-8]
   211a4:	e591c158 	ldr	ip, [r1, #344]	; 0x158
   211a8:	e1a00003 	mov	r0, r3
   211ac:	e30e1468 	movw	r1, #58472	; 0xe468
   211b0:	e3401005 	movt	r1, #5
   211b4:	e1a0300c 	mov	r3, ip
[31m   211b8:	ebffaecb 	bl	ccec <printf@plt>[0m
   211bc:	ea00000b 	b	211f0 <l2tp_tunnel_session_remove+0x104>
   211c0:	e51b2008 	ldr	r2, [fp, #-8]
--
   21500:	e30737d0 	movw	r3, #30672	; 0x77d0
   21504:	e3403007 	movt	r3, #7
   21508:	e5933000 	ldr	r3, [r3]
   2150c:	e2033040 	and	r3, r3, #64	; 0x40
   21510:	e3530000 	cmp	r3, #0
   21514:	0a000019 	beq	21580 <l2tp_tunnel_persist_timeout+0xac>
   21518:	e30737cc 	movw	r3, #30668	; 0x77cc
   2151c:	e3403007 	movt	r3, #7
   21520:	e5933000 	ldr	r3, [r3]
   21524:	e3530000 	cmp	r3, #0
   21528:	0a00000a 	beq	21558 <l2tp_tunnel_persist_timeout+0x84>
   2152c:	e30c3974 	movw	r3, #51572	; 0xc974
   21530:	e3403005 	movt	r3, #5
   21534:	e51b1008 	ldr	r1, [fp, #-8]
   21538:	e3a02e15 	mov	r2, #336	; 0x150
   2153c:	e19120b2 	ldrh	r2, [r1, r2]
   21540:	e1a01002 	mov	r1, r2
   21544:	e51b2008 	ldr	r2, [fp, #-8]
   21548:	e59220c0 	ldr	r2, [r2, #192]	; 0xc0
   2154c:	e1a00003 	mov	r0, r3
[31m   21550:	ebffade5 	bl	ccec <printf@plt>[0m
   21554:	ea000009 	b	21580 <l2tp_tunnel_persist_timeout+0xac>
   21558:	e51b2008 	ldr	r2, [fp, #-8]
--
   215c4:	e30737d0 	movw	r3, #30672	; 0x77d0
   215c8:	e3403007 	movt	r3, #7
   215cc:	e5933000 	ldr	r3, [r3]
   215d0:	e2033040 	and	r3, r3, #64	; 0x40
   215d4:	e3530000 	cmp	r3, #0
   215d8:	0a000019 	beq	21644 <l2tp_tunnel_cleanup_timeout+0xac>
   215dc:	e30737cc 	movw	r3, #30668	; 0x77cc
   215e0:	e3403007 	movt	r3, #7
   215e4:	e5933000 	ldr	r3, [r3]
   215e8:	e3530000 	cmp	r3, #0
   215ec:	0a00000a 	beq	2161c <l2tp_tunnel_cleanup_timeout+0x84>
   215f0:	e30c39d8 	movw	r3, #51672	; 0xc9d8
   215f4:	e3403005 	movt	r3, #5
   215f8:	e51b1008 	ldr	r1, [fp, #-8]
   215fc:	e3a02e15 	mov	r2, #336	; 0x150
   21600:	e19120b2 	ldrh	r2, [r1, r2]
   21604:	e1a01002 	mov	r1, r2
   21608:	e51b2008 	ldr	r2, [fp, #-8]
   2160c:	e59220c0 	ldr	r2, [r2, #192]	; 0xc0
   21610:	e1a00003 	mov	r0, r3
[31m   21614:	ebffadb4 	bl	ccec <printf@plt>[0m
   21618:	ea000009 	b	21644 <l2tp_tunnel_cleanup_timeout+0xac>
   2161c:	e51b2008 	ldr	r2, [fp, #-8]
--
   21778:	e30737d0 	movw	r3, #30672	; 0x77d0
   2177c:	e3403007 	movt	r3, #7
   21780:	e5933000 	ldr	r3, [r3]
   21784:	e2033040 	and	r3, r3, #64	; 0x40
   21788:	e3530000 	cmp	r3, #0
   2178c:	0a000019 	beq	217f8 <l2tp_tunnel_setup_timeout+0xac>
   21790:	e30737cc 	movw	r3, #30668	; 0x77cc
   21794:	e3403007 	movt	r3, #7
   21798:	e5933000 	ldr	r3, [r3]
   2179c:	e3530000 	cmp	r3, #0
   217a0:	0a00000a 	beq	217d0 <l2tp_tunnel_setup_timeout+0x84>
   217a4:	e30c3a70 	movw	r3, #51824	; 0xca70
   217a8:	e3403005 	movt	r3, #5
   217ac:	e51b1008 	ldr	r1, [fp, #-8]
   217b0:	e3a02e15 	mov	r2, #336	; 0x150
   217b4:	e19120b2 	ldrh	r2, [r1, r2]
   217b8:	e1a01002 	mov	r1, r2
   217bc:	e51b2008 	ldr	r2, [fp, #-8]
   217c0:	e59220bc 	ldr	r2, [r2, #188]	; 0xbc
   217c4:	e1a00003 	mov	r0, r3
[31m   217c8:	ebffad47 	bl	ccec <printf@plt>[0m
   217cc:	ea000009 	b	217f8 <l2tp_tunnel_setup_timeout+0xac>
   217d0:	e51b2008 	ldr	r2, [fp, #-8]
--
   218b0:	e30737d0 	movw	r3, #30672	; 0x77d0
   218b4:	e3403007 	movt	r3, #7
   218b8:	e5933000 	ldr	r3, [r3]
   218bc:	e2033040 	and	r3, r3, #64	; 0x40
   218c0:	e3530000 	cmp	r3, #0
   218c4:	0a000019 	beq	21930 <l2tp_tunnel_idle_timeout+0xac>
   218c8:	e30737cc 	movw	r3, #30668	; 0x77cc
   218cc:	e3403007 	movt	r3, #7
   218d0:	e5933000 	ldr	r3, [r3]
   218d4:	e3530000 	cmp	r3, #0
   218d8:	0a00000a 	beq	21908 <l2tp_tunnel_idle_timeout+0x84>
   218dc:	e30c3b10 	movw	r3, #51984	; 0xcb10
   218e0:	e3403005 	movt	r3, #5
   218e4:	e51b1008 	ldr	r1, [fp, #-8]
   218e8:	e3a02e15 	mov	r2, #336	; 0x150
   218ec:	e19120b2 	ldrh	r2, [r1, r2]
   218f0:	e1a01002 	mov	r1, r2
   218f4:	e51b2008 	ldr	r2, [fp, #-8]
   218f8:	e59220bc 	ldr	r2, [r2, #188]	; 0xbc
   218fc:	e1a00003 	mov	r0, r3
[31m   21900:	ebffacf9 	bl	ccec <printf@plt>[0m
   21904:	ea000009 	b	21930 <l2tp_tunnel_idle_timeout+0xac>
   21908:	e51b2008 	ldr	r2, [fp, #-8]
--
   21c7c:	e3403007 	movt	r3, #7
   21c80:	e5933000 	ldr	r3, [r3]
   21c84:	e2033040 	and	r3, r3, #64	; 0x40
   21c88:	e3530000 	cmp	r3, #0
   21c8c:	0a00001b 	beq	21d00 <l2tp_tunnel_act_cleanup+0xbc>
   21c90:	e30737cc 	movw	r3, #30668	; 0x77cc
   21c94:	e3403007 	movt	r3, #7
   21c98:	e5933000 	ldr	r3, [r3]
   21c9c:	e3530000 	cmp	r3, #0
   21ca0:	0a00000b 	beq	21cd4 <l2tp_tunnel_act_cleanup+0x90>
   21ca4:	e30c3c08 	movw	r3, #52232	; 0xcc08
   21ca8:	e3403005 	movt	r3, #5
   21cac:	e51b2008 	ldr	r2, [fp, #-8]
   21cb0:	e28220a0 	add	r2, r2, #160	; 0xa0
   21cb4:	e51b1008 	ldr	r1, [fp, #-8]
   21cb8:	e591c15c 	ldr	ip, [r1, #348]	; 0x15c
   21cbc:	e1a00003 	mov	r0, r3
   21cc0:	e30e1450 	movw	r1, #58448	; 0xe450
   21cc4:	e3401005 	movt	r1, #5
   21cc8:	e1a0300c 	mov	r3, ip
[31m   21ccc:	ebffac06 	bl	ccec <printf@plt>[0m
   21cd0:	ea00000a 	b	21d00 <l2tp_tunnel_act_cleanup+0xbc>
   21cd4:	e51b3008 	ldr	r3, [fp, #-8]
--
   21db0:	e5933000 	ldr	r3, [r3]
   21db4:	e2033040 	and	r3, r3, #64	; 0x40
   21db8:	e3530000 	cmp	r3, #0
   21dbc:	0a00001d 	beq	21e38 <l2tp_tunnel_act_cleanup+0x1f4>
   21dc0:	e30737cc 	movw	r3, #30668	; 0x77cc
   21dc4:	e3403007 	movt	r3, #7
   21dc8:	e5933000 	ldr	r3, [r3]
   21dcc:	e3530000 	cmp	r3, #0
   21dd0:	0a00000c 	beq	21e08 <l2tp_tunnel_act_cleanup+0x1c4>
   21dd4:	e30c3c6c 	movw	r3, #52332	; 0xcc6c
   21dd8:	e3403005 	movt	r3, #5
   21ddc:	e51b1008 	ldr	r1, [fp, #-8]
   21de0:	e3a02e15 	mov	r2, #336	; 0x150
   21de4:	e19120b2 	ldrh	r2, [r1, r2]
   21de8:	e51b1008 	ldr	r1, [fp, #-8]
   21dec:	e591c0c0 	ldr	ip, [r1, #192]	; 0xc0
   21df0:	e1a00003 	mov	r0, r3
   21df4:	e30e1450 	movw	r1, #58448	; 0xe450
   21df8:	e3401005 	movt	r1, #5
   21dfc:	e1a0300c 	mov	r3, ip
[31m   21e00:	ebffabb9 	bl	ccec <printf@plt>[0m
   21e04:	ea00000b 	b	21e38 <l2tp_tunnel_act_cleanup+0x1f4>
   21e08:	e51b2008 	ldr	r2, [fp, #-8]
--
   221ac:	e5933000 	ldr	r3, [r3]
   221b0:	e2033040 	and	r3, r3, #64	; 0x40
   221b4:	e3530000 	cmp	r3, #0
   221b8:	0a00001d 	beq	22234 <l2tp_tunnel_act_send_sccrq+0x3f4>
   221bc:	e30737cc 	movw	r3, #30668	; 0x77cc
   221c0:	e3403007 	movt	r3, #7
   221c4:	e5933000 	ldr	r3, [r3]
   221c8:	e3530000 	cmp	r3, #0
   221cc:	0a00000c 	beq	22204 <l2tp_tunnel_act_send_sccrq+0x3c4>
   221d0:	e30c3cd0 	movw	r3, #52432	; 0xccd0
   221d4:	e3403005 	movt	r3, #5
   221d8:	e51b1008 	ldr	r1, [fp, #-8]
   221dc:	e3a02e15 	mov	r2, #336	; 0x150
   221e0:	e19120b2 	ldrh	r2, [r1, r2]
   221e4:	e51b1008 	ldr	r1, [fp, #-8]
   221e8:	e591c0bc 	ldr	ip, [r1, #188]	; 0xbc
   221ec:	e1a00003 	mov	r0, r3
   221f0:	e30e1434 	movw	r1, #58420	; 0xe434
   221f4:	e3401005 	movt	r1, #5
   221f8:	e1a0300c 	mov	r3, ip
[31m   221fc:	ebffaaba 	bl	ccec <printf@plt>[0m
   22200:	ea00000b 	b	22234 <l2tp_tunnel_act_send_sccrq+0x3f4>
   22204:	e51b2008 	ldr	r2, [fp, #-8]
--
   22db0:	0a00001d 	beq	22e2c <l2tp_tunnel_act_send_stopccn+0x23c>
   22db4:	e30737d0 	movw	r3, #30672	; 0x77d0
   22db8:	e3403007 	movt	r3, #7
   22dbc:	e5933000 	ldr	r3, [r3]
   22dc0:	e2033040 	and	r3, r3, #64	; 0x40
   22dc4:	e3530000 	cmp	r3, #0
   22dc8:	0a000017 	beq	22e2c <l2tp_tunnel_act_send_stopccn+0x23c>
   22dcc:	e30737cc 	movw	r3, #30668	; 0x77cc
   22dd0:	e3403007 	movt	r3, #7
   22dd4:	e5933000 	ldr	r3, [r3]
   22dd8:	e3530000 	cmp	r3, #0
   22ddc:	0a000009 	beq	22e08 <l2tp_tunnel_act_send_stopccn+0x218>
   22de0:	e30c3e18 	movw	r3, #52760	; 0xce18
   22de4:	e3403005 	movt	r3, #5
   22de8:	e51b1010 	ldr	r1, [fp, #-16]
   22dec:	e3a02e15 	mov	r2, #336	; 0x150
   22df0:	e19120b2 	ldrh	r2, [r1, r2]
   22df4:	e1a00003 	mov	r0, r3
   22df8:	e30e1414 	movw	r1, #58388	; 0xe414
   22dfc:	e3401005 	movt	r1, #5
[31m   22e00:	ebffa7b9 	bl	ccec <printf@plt>[0m
   22e04:	ea000008 	b	22e2c <l2tp_tunnel_act_send_stopccn+0x23c>
   22e08:	e51b2010 	ldr	r2, [fp, #-16]
--
   23988:	e3530000 	cmp	r3, #0
   2398c:	0a000020 	beq	23a14 <l2tp_tunnel_check_for_peer_collision+0x168>
   23990:	e30737cc 	movw	r3, #30668	; 0x77cc
   23994:	e3403007 	movt	r3, #7
   23998:	e5933000 	ldr	r3, [r3]
   2399c:	e3530000 	cmp	r3, #0
   239a0:	0a00000e 	beq	239e0 <l2tp_tunnel_check_for_peer_collision+0x134>
   239a4:	e30d3404 	movw	r3, #54276	; 0xd404
   239a8:	e3403005 	movt	r3, #5
   239ac:	e51b1028 	ldr	r1, [fp, #-40]	; 0xffffffd8
   239b0:	e3a02e15 	mov	r2, #336	; 0x150
   239b4:	e19120b2 	ldrh	r2, [r1, r2]
   239b8:	e51b001c 	ldr	r0, [fp, #-28]	; 0xffffffe4
   239bc:	e3a01e15 	mov	r1, #336	; 0x150
   239c0:	e19010b1 	ldrh	r1, [r0, r1]
   239c4:	e1a0c001 	mov	ip, r1
   239c8:	e1a00003 	mov	r0, r3
   239cc:	e30e13ec 	movw	r1, #58348	; 0xe3ec
   239d0:	e3401005 	movt	r1, #5
   239d4:	e1a0300c 	mov	r3, ip
[31m   239d8:	ebffa4c3 	bl	ccec <printf@plt>[0m
   239dc:	ea00000c 	b	23a14 <l2tp_tunnel_check_for_peer_collision+0x168>
   239e0:	e51b2028 	ldr	r2, [fp, #-40]	; 0xffffffd8
--
   23a70:	e3403007 	movt	r3, #7
   23a74:	e5933000 	ldr	r3, [r3]
   23a78:	e3530000 	cmp	r3, #0
   23a7c:	0a000011 	beq	23ac8 <l2tp_tunnel_check_for_peer_collision+0x21c>
   23a80:	e30d44ac 	movw	r4, #54444	; 0xd4ac
   23a84:	e3404005 	movt	r4, #5
   23a88:	e51b201c 	ldr	r2, [fp, #-28]	; 0xffffffe4
   23a8c:	e3a03e15 	mov	r3, #336	; 0x150
   23a90:	e19230b3 	ldrh	r3, [r2, r3]
   23a94:	e1a05003 	mov	r5, r3
   23a98:	e51b301c 	ldr	r3, [fp, #-28]	; 0xffffffe4
   23a9c:	e2833f5a 	add	r3, r3, #360	; 0x168
   23aa0:	e1a00003 	mov	r0, r3
   23aa4:	e3a01008 	mov	r1, #8
   23aa8:	ebffa769 	bl	d854 <l2tp_buffer_hexify>
   23aac:	e1a03000 	mov	r3, r0
   23ab0:	e1a00004 	mov	r0, r4
   23ab4:	e30e13ec 	movw	r1, #58348	; 0xe3ec
   23ab8:	e3401005 	movt	r1, #5
   23abc:	e1a02005 	mov	r2, r5
[31m   23ac0:	ebffa489 	bl	ccec <printf@plt>[0m
   23ac4:	ea000011 	b	23b10 <l2tp_tunnel_check_for_peer_collision+0x264>
   23ac8:	e51b201c 	ldr	r2, [fp, #-28]	; 0xffffffe4
--
   23b44:	e3403007 	movt	r3, #7
   23b48:	e5933000 	ldr	r3, [r3]
   23b4c:	e3530000 	cmp	r3, #0
   23b50:	0a000011 	beq	23b9c <l2tp_tunnel_check_for_peer_collision+0x2f0>
   23b54:	e30d44f4 	movw	r4, #54516	; 0xd4f4
   23b58:	e3404005 	movt	r4, #5
   23b5c:	e51b2028 	ldr	r2, [fp, #-40]	; 0xffffffd8
   23b60:	e3a03e15 	mov	r3, #336	; 0x150
   23b64:	e19230b3 	ldrh	r3, [r2, r3]
   23b68:	e1a05003 	mov	r5, r3
   23b6c:	e51b3028 	ldr	r3, [fp, #-40]	; 0xffffffd8
   23b70:	e2833f67 	add	r3, r3, #412	; 0x19c
   23b74:	e1a00003 	mov	r0, r3
   23b78:	e3a01008 	mov	r1, #8
   23b7c:	ebffa734 	bl	d854 <l2tp_buffer_hexify>
   23b80:	e1a03000 	mov	r3, r0
   23b84:	e1a00004 	mov	r0, r4
   23b88:	e30e13ec 	movw	r1, #58348	; 0xe3ec
   23b8c:	e3401005 	movt	r1, #5
   23b90:	e1a02005 	mov	r2, r5
[31m   23b94:	ebffa454 	bl	ccec <printf@plt>[0m
   23b98:	ea000011 	b	23be4 <l2tp_tunnel_check_for_peer_collision+0x338>
   23b9c:	e51b2028 	ldr	r2, [fp, #-40]	; 0xffffffd8
--
   24434:	e3403007 	movt	r3, #7
   24438:	e5933000 	ldr	r3, [r3]
   2443c:	e2033040 	and	r3, r3, #64	; 0x40
   24440:	e3530000 	cmp	r3, #0
   24444:	0a00001b 	beq	244b8 <l2tp_tunnel_handle_msg_stopccn+0xe0>
   24448:	e30737cc 	movw	r3, #30668	; 0x77cc
   2444c:	e3403007 	movt	r3, #7
   24450:	e5933000 	ldr	r3, [r3]
   24454:	e3530000 	cmp	r3, #0
   24458:	0a00000b 	beq	2448c <l2tp_tunnel_handle_msg_stopccn+0xb4>
   2445c:	e30c3c08 	movw	r3, #52232	; 0xcc08
   24460:	e3403005 	movt	r3, #5
   24464:	e51b200c 	ldr	r2, [fp, #-12]
   24468:	e28220a0 	add	r2, r2, #160	; 0xa0
   2446c:	e51b100c 	ldr	r1, [fp, #-12]
   24470:	e591c15c 	ldr	ip, [r1, #348]	; 0x15c
   24474:	e1a00003 	mov	r0, r3
   24478:	e30e13cc 	movw	r1, #58316	; 0xe3cc
   2447c:	e3401005 	movt	r1, #5
   24480:	e1a0300c 	mov	r3, ip
[31m   24484:	ebffa218 	bl	ccec <printf@plt>[0m
   24488:	ea00000a 	b	244b8 <l2tp_tunnel_handle_msg_stopccn+0xe0>
   2448c:	e51b300c 	ldr	r3, [fp, #-12]
--
   245b4:	e19120b2 	ldrh	r2, [r1, r2]
   245b8:	e1a0e002 	mov	lr, r2
   245bc:	e51b2014 	ldr	r2, [fp, #-20]	; 0xffffffec
   245c0:	e2822048 	add	r2, r2, #72	; 0x48
   245c4:	e5922000 	ldr	r2, [r2]
   245c8:	e5d21000 	ldrb	r1, [r2]
   245cc:	e5d22001 	ldrb	r2, [r2, #1]
   245d0:	e1a02402 	lsl	r2, r2, #8
   245d4:	e1822001 	orr	r2, r2, r1
   245d8:	e6ff2072 	uxth	r2, r2
   245dc:	e1a0c002 	mov	ip, r2
   245e0:	e51b100c 	ldr	r1, [fp, #-12]
   245e4:	e3002182 	movw	r2, #386	; 0x182
   245e8:	e19120b2 	ldrh	r2, [r1, r2]
   245ec:	e58d2000 	str	r2, [sp]
   245f0:	e1a00003 	mov	r0, r3
   245f4:	e30e13cc 	movw	r1, #58316	; 0xe3cc
   245f8:	e3401005 	movt	r1, #5
   245fc:	e1a0200e 	mov	r2, lr
   24600:	e1a0300c 	mov	r3, ip
[31m   24604:	ebffa1b8 	bl	ccec <printf@plt>[0m
   24608:	ea0000ca 	b	24938 <l2tp_tunnel_handle_msg_stopccn+0x560>
   2460c:	e51b200c 	ldr	r2, [fp, #-12]
--
   246b8:	e30d3700 	movw	r3, #55040	; 0xd700
   246bc:	e3403005 	movt	r3, #5
   246c0:	e51b100c 	ldr	r1, [fp, #-12]
   246c4:	e3a02e15 	mov	r2, #336	; 0x150
   246c8:	e19120b2 	ldrh	r2, [r1, r2]
   246cc:	e1a0e002 	mov	lr, r2
   246d0:	e51b2014 	ldr	r2, [fp, #-20]	; 0xffffffec
   246d4:	e2822048 	add	r2, r2, #72	; 0x48
   246d8:	e5922000 	ldr	r2, [r2]
   246dc:	e5d21000 	ldrb	r1, [r2]
   246e0:	e5d22001 	ldrb	r2, [r2, #1]
   246e4:	e1a02402 	lsl	r2, r2, #8
   246e8:	e1822001 	orr	r2, r2, r1
   246ec:	e6ff2072 	uxth	r2, r2
   246f0:	e1a0c002 	mov	ip, r2
   246f4:	e1a00003 	mov	r0, r3
   246f8:	e30e13cc 	movw	r1, #58316	; 0xe3cc
   246fc:	e3401005 	movt	r1, #5
   24700:	e1a0200e 	mov	r2, lr
   24704:	e1a0300c 	mov	r3, ip
[31m   24708:	ebffa177 	bl	ccec <printf@plt>[0m
   2470c:	ea000013 	b	24760 <l2tp_tunnel_handle_msg_stopccn+0x388>
   24710:	e51b200c 	ldr	r2, [fp, #-12]
--
   24d64:	0a000020 	beq	24dec <l2tp_tunnel_do_queued_event+0x158>
   24d68:	e30737d0 	movw	r3, #30672	; 0x77d0
   24d6c:	e3403007 	movt	r3, #7
   24d70:	e5933000 	ldr	r3, [r3]
   24d74:	e2033040 	and	r3, r3, #64	; 0x40
   24d78:	e3530000 	cmp	r3, #0
   24d7c:	0a00001c 	beq	24df4 <l2tp_tunnel_do_queued_event+0x160>
   24d80:	e30737cc 	movw	r3, #30668	; 0x77cc
   24d84:	e3403007 	movt	r3, #7
   24d88:	e5933000 	ldr	r3, [r3]
   24d8c:	e3530000 	cmp	r3, #0
   24d90:	0a000009 	beq	24dbc <l2tp_tunnel_do_queued_event+0x128>
   24d94:	e30d37cc 	movw	r3, #55244	; 0xd7cc
   24d98:	e3403005 	movt	r3, #5
   24d9c:	e15b21b8 	ldrh	r2, [fp, #-24]	; 0xffffffe8
   24da0:	e51bc014 	ldr	ip, [fp, #-20]	; 0xffffffec
   24da4:	e1a00003 	mov	r0, r3
   24da8:	e30e139c 	movw	r1, #58268	; 0xe39c
   24dac:	e3401005 	movt	r1, #5
   24db0:	e1a0300c 	mov	r3, ip
[31m   24db4:	ebff9fcc 	bl	ccec <printf@plt>[0m
   24db8:	ea00000e 	b	24df8 <l2tp_tunnel_do_queued_event+0x164>
   24dbc:	e15b31b8 	ldrh	r3, [fp, #-24]	; 0xffffffe8
--
   24ee8:	e3403007 	movt	r3, #7
   24eec:	e5933000 	ldr	r3, [r3]
   24ef0:	e2033040 	and	r3, r3, #64	; 0x40
   24ef4:	e3530000 	cmp	r3, #0
   24ef8:	0a00001b 	beq	24f6c <l2tp_tunnel_inc_use_count+0xc0>
   24efc:	e30737cc 	movw	r3, #30668	; 0x77cc
   24f00:	e3403007 	movt	r3, #7
   24f04:	e5933000 	ldr	r3, [r3]
   24f08:	e3530000 	cmp	r3, #0
   24f0c:	0a00000b 	beq	24f40 <l2tp_tunnel_inc_use_count+0x94>
   24f10:	e30d3880 	movw	r3, #55424	; 0xd880
   24f14:	e3403005 	movt	r3, #5
   24f18:	e51b2008 	ldr	r2, [fp, #-8]
   24f1c:	e28220a0 	add	r2, r2, #160	; 0xa0
   24f20:	e51b1008 	ldr	r1, [fp, #-8]
   24f24:	e591c15c 	ldr	ip, [r1, #348]	; 0x15c
   24f28:	e1a00003 	mov	r0, r3
   24f2c:	e30e1380 	movw	r1, #58240	; 0xe380
   24f30:	e3401005 	movt	r1, #5
   24f34:	e1a0300c 	mov	r3, ip
[31m   24f38:	ebff9f6b 	bl	ccec <printf@plt>[0m
   24f3c:	ea00000a 	b	24f6c <l2tp_tunnel_inc_use_count+0xc0>
   24f40:	e51b3008 	ldr	r3, [fp, #-8]
--
   24fb4:	e3403007 	movt	r3, #7
   24fb8:	e5933000 	ldr	r3, [r3]
   24fbc:	e2033040 	and	r3, r3, #64	; 0x40
   24fc0:	e3530000 	cmp	r3, #0
   24fc4:	0a00001b 	beq	25038 <l2tp_tunnel_dec_use_count+0xc4>
   24fc8:	e30737cc 	movw	r3, #30668	; 0x77cc
   24fcc:	e3403007 	movt	r3, #7
   24fd0:	e5933000 	ldr	r3, [r3]
   24fd4:	e3530000 	cmp	r3, #0
   24fd8:	0a00000b 	beq	2500c <l2tp_tunnel_dec_use_count+0x98>
   24fdc:	e30d3880 	movw	r3, #55424	; 0xd880
   24fe0:	e3403005 	movt	r3, #5
   24fe4:	e51b2010 	ldr	r2, [fp, #-16]
   24fe8:	e28220a0 	add	r2, r2, #160	; 0xa0
   24fec:	e51b1010 	ldr	r1, [fp, #-16]
   24ff0:	e591c15c 	ldr	ip, [r1, #348]	; 0x15c
   24ff4:	e1a00003 	mov	r0, r3
   24ff8:	e30e1364 	movw	r1, #58212	; 0xe364
   24ffc:	e3401005 	movt	r1, #5
   25000:	e1a0300c 	mov	r3, ip
[31m   25004:	ebff9f38 	bl	ccec <printf@plt>[0m
   25008:	ea00000a 	b	25038 <l2tp_tunnel_dec_use_count+0xc4>
   2500c:	e51b3010 	ldr	r3, [fp, #-16]
--
   256d4:	0a00001d 	beq	25750 <l2tp_tunnel_free+0x9c>
   256d8:	e30737d0 	movw	r3, #30672	; 0x77d0
   256dc:	e3403007 	movt	r3, #7
   256e0:	e5933000 	ldr	r3, [r3]
   256e4:	e2033040 	and	r3, r3, #64	; 0x40
   256e8:	e3530000 	cmp	r3, #0
   256ec:	0a000017 	beq	25750 <l2tp_tunnel_free+0x9c>
   256f0:	e30737cc 	movw	r3, #30668	; 0x77cc
   256f4:	e3403007 	movt	r3, #7
   256f8:	e5933000 	ldr	r3, [r3]
   256fc:	e3530000 	cmp	r3, #0
   25700:	0a000009 	beq	2572c <l2tp_tunnel_free+0x78>
   25704:	e30d3a54 	movw	r3, #55892	; 0xda54
   25708:	e3403005 	movt	r3, #5
   2570c:	e51b1008 	ldr	r1, [fp, #-8]
   25710:	e3a02e15 	mov	r2, #336	; 0x150
   25714:	e19120b2 	ldrh	r2, [r1, r2]
   25718:	e1a00003 	mov	r0, r3
   2571c:	e30e1350 	movw	r1, #58192	; 0xe350
   25720:	e3401005 	movt	r1, #5
[31m   25724:	ebff9d70 	bl	ccec <printf@plt>[0m
   25728:	ea000008 	b	25750 <l2tp_tunnel_free+0x9c>
   2572c:	e51b2008 	ldr	r2, [fp, #-8]
--
   25d94:	e3530000 	cmp	r3, #0
   25d98:	0a00001b 	beq	25e0c <l2tp_tunnel_link+0x94>
   25d9c:	e30737d0 	movw	r3, #30672	; 0x77d0
   25da0:	e3403007 	movt	r3, #7
   25da4:	e5933000 	ldr	r3, [r3]
   25da8:	e2033040 	and	r3, r3, #64	; 0x40
   25dac:	e3530000 	cmp	r3, #0
   25db0:	0a000015 	beq	25e0c <l2tp_tunnel_link+0x94>
   25db4:	e30737cc 	movw	r3, #30668	; 0x77cc
   25db8:	e3403007 	movt	r3, #7
   25dbc:	e5933000 	ldr	r3, [r3]
   25dc0:	e3530000 	cmp	r3, #0
   25dc4:	0a000008 	beq	25dec <l2tp_tunnel_link+0x74>
   25dc8:	e30d3b24 	movw	r3, #56100	; 0xdb24
   25dcc:	e3403005 	movt	r3, #5
   25dd0:	e51b2010 	ldr	r2, [fp, #-16]
   25dd4:	e28220a0 	add	r2, r2, #160	; 0xa0
   25dd8:	e1a00003 	mov	r0, r3
   25ddc:	e30e133c 	movw	r1, #58172	; 0xe33c
   25de0:	e3401005 	movt	r1, #5
[31m   25de4:	ebff9bc0 	bl	ccec <printf@plt>[0m
   25de8:	ea000007 	b	25e0c <l2tp_tunnel_link+0x94>
   25dec:	e51b3010 	ldr	r3, [fp, #-16]
--
   25eb8:	e3403007 	movt	r3, #7
   25ebc:	e5933000 	ldr	r3, [r3]
   25ec0:	e2033040 	and	r3, r3, #64	; 0x40
   25ec4:	e3530000 	cmp	r3, #0
   25ec8:	0a00001b 	beq	25f3c <l2tp_tunnel_unlink+0xb0>
   25ecc:	e30737cc 	movw	r3, #30668	; 0x77cc
   25ed0:	e3403007 	movt	r3, #7
   25ed4:	e5933000 	ldr	r3, [r3]
   25ed8:	e3530000 	cmp	r3, #0
   25edc:	0a00000b 	beq	25f10 <l2tp_tunnel_unlink+0x84>
   25ee0:	e30c3c08 	movw	r3, #52232	; 0xcc08
   25ee4:	e3403005 	movt	r3, #5
   25ee8:	e51b2008 	ldr	r2, [fp, #-8]
   25eec:	e28220a0 	add	r2, r2, #160	; 0xa0
   25ef0:	e51b1008 	ldr	r1, [fp, #-8]
   25ef4:	e591c15c 	ldr	ip, [r1, #348]	; 0x15c
   25ef8:	e1a00003 	mov	r0, r3
   25efc:	e30e1328 	movw	r1, #58152	; 0xe328
   25f00:	e3401005 	movt	r1, #5
   25f04:	e1a0300c 	mov	r3, ip
[31m   25f08:	ebff9b77 	bl	ccec <printf@plt>[0m
   25f0c:	ea00000a 	b	25f3c <l2tp_tunnel_unlink+0xb0>
   25f10:	e51b3008 	ldr	r3, [fp, #-8]
--
   2613c:	ebff9bbc 	bl	d034 <ntohs@plt>
   26140:	e1a03000 	mov	r3, r0
   26144:	e1a05003 	mov	r5, r3
   26148:	e51b3044 	ldr	r3, [fp, #-68]	; 0xffffffbc
   2614c:	e59330dc 	ldr	r3, [r3, #220]	; 0xdc
   26150:	e1a00003 	mov	r0, r3
   26154:	ebff9b53 	bl	cea8 <ntohl@plt>
   26158:	e1a07000 	mov	r7, r0
   2615c:	e51b3044 	ldr	r3, [fp, #-68]	; 0xffffffbc
   26160:	e1d33dba 	ldrh	r3, [r3, #218]	; 0xda
   26164:	e1a00003 	mov	r0, r3
   26168:	ebff9bb1 	bl	d034 <ntohs@plt>
   2616c:	e1a03000 	mov	r3, r0
   26170:	e58d7000 	str	r7, [sp]
   26174:	e58d3004 	str	r3, [sp, #4]
   26178:	e1a00004 	mov	r0, r4
   2617c:	e30e1310 	movw	r1, #58128	; 0xe310
   26180:	e3401005 	movt	r1, #5
   26184:	e1a02006 	mov	r2, r6
   26188:	e1a03005 	mov	r3, r5
[31m   2618c:	ebff9ad6 	bl	ccec <printf@plt>[0m
   26190:	ea00001e 	b	26210 <l2tp_tunnel_xprt_create+0x178>
   26194:	e51b3044 	ldr	r3, [fp, #-68]	; 0xffffffbc
--
   2670c:	e30737c0 	movw	r3, #30656	; 0x77c0
   26710:	e3403007 	movt	r3, #7
   26714:	e5933000 	ldr	r3, [r3]
   26718:	e3530000 	cmp	r3, #0
   2671c:	0a000015 	beq	26778 <l2tp_tunnel_param_defaults+0xcc>
   26720:	e30737d0 	movw	r3, #30672	; 0x77d0
   26724:	e3403007 	movt	r3, #7
   26728:	e5933000 	ldr	r3, [r3]
   2672c:	e2033004 	and	r3, r3, #4
   26730:	e3530000 	cmp	r3, #0
   26734:	0a00000f 	beq	26778 <l2tp_tunnel_param_defaults+0xcc>
   26738:	e30737cc 	movw	r3, #30668	; 0x77cc
   2673c:	e3403007 	movt	r3, #7
   26740:	e5933000 	ldr	r3, [r3]
   26744:	e3530000 	cmp	r3, #0
   26748:	0a000005 	beq	26764 <l2tp_tunnel_param_defaults+0xb8>
   2674c:	e30d3c10 	movw	r3, #56336	; 0xdc10
   26750:	e3403005 	movt	r3, #5
   26754:	e1a00003 	mov	r0, r3
   26758:	e51b1028 	ldr	r1, [fp, #-40]	; 0xffffffd8
[31m   2675c:	ebff9962 	bl	ccec <printf@plt>[0m
   26760:	ea000004 	b	26778 <l2tp_tunnel_param_defaults+0xcc>
   26764:	e3a00007 	mov	r0, #7
--
   267b8:	e30737c0 	movw	r3, #30656	; 0x77c0
   267bc:	e3403007 	movt	r3, #7
   267c0:	e5933000 	ldr	r3, [r3]
   267c4:	e3530000 	cmp	r3, #0
   267c8:	0a000015 	beq	26824 <l2tp_tunnel_param_defaults+0x178>
   267cc:	e30737d0 	movw	r3, #30672	; 0x77d0
   267d0:	e3403007 	movt	r3, #7
   267d4:	e5933000 	ldr	r3, [r3]
   267d8:	e2033004 	and	r3, r3, #4
   267dc:	e3530000 	cmp	r3, #0
   267e0:	0a00000f 	beq	26824 <l2tp_tunnel_param_defaults+0x178>
   267e4:	e30737cc 	movw	r3, #30668	; 0x77cc
   267e8:	e3403007 	movt	r3, #7
   267ec:	e5933000 	ldr	r3, [r3]
   267f0:	e3530000 	cmp	r3, #0
   267f4:	0a000005 	beq	26810 <l2tp_tunnel_param_defaults+0x164>
   267f8:	e30d3c58 	movw	r3, #56408	; 0xdc58
   267fc:	e3403005 	movt	r3, #5
   26800:	e1a00003 	mov	r0, r3
   26804:	e51b1024 	ldr	r1, [fp, #-36]	; 0xffffffdc
[31m   26808:	ebff9937 	bl	ccec <printf@plt>[0m
   2680c:	ea000004 	b	26824 <l2tp_tunnel_param_defaults+0x178>
   26810:	e3a00007 	mov	r0, #7
--
   27b8c:	e5933000 	ldr	r3, [r3]
   27b90:	e3530000 	cmp	r3, #0
   27b94:	0a000019 	beq	27c00 <l2tp_tunnel_create_1_svc+0xb4>
   27b98:	e30737d0 	movw	r3, #30672	; 0x77d0
   27b9c:	e3403007 	movt	r3, #7
   27ba0:	e5933000 	ldr	r3, [r3]
   27ba4:	e2033004 	and	r3, r3, #4
   27ba8:	e3530000 	cmp	r3, #0
   27bac:	0a000013 	beq	27c00 <l2tp_tunnel_create_1_svc+0xb4>
   27bb0:	e30737cc 	movw	r3, #30668	; 0x77cc
   27bb4:	e3403007 	movt	r3, #7
   27bb8:	e5933000 	ldr	r3, [r3]
   27bbc:	e3530000 	cmp	r3, #0
   27bc0:	0a000007 	beq	27be4 <l2tp_tunnel_create_1_svc+0x98>
   27bc4:	e30d3a54 	movw	r3, #55892	; 0xda54
   27bc8:	e3403005 	movt	r3, #5
   27bcc:	e1db20bc 	ldrh	r2, [fp, #12]
   27bd0:	e1a00003 	mov	r0, r3
   27bd4:	e30e12f4 	movw	r1, #58100	; 0xe2f4
   27bd8:	e3401005 	movt	r1, #5
[31m   27bdc:	ebff9442 	bl	ccec <printf@plt>[0m
   27be0:	ea000006 	b	27c00 <l2tp_tunnel_create_1_svc+0xb4>
   27be4:	e1db30bc 	ldrh	r3, [fp, #12]
--
   27fd4:	e51b3010 	ldr	r3, [fp, #-16]
   27fd8:	e59310f8 	ldr	r1, [r3, #248]	; 0xf8
   27fdc:	e51b3010 	ldr	r3, [fp, #-16]
   27fe0:	e5933100 	ldr	r3, [r3, #256]	; 0x100
   27fe4:	e3530000 	cmp	r3, #0
   27fe8:	0a000002 	beq	27ff8 <l2tp_tunnel_create_1_svc+0x4ac>
   27fec:	e51b3010 	ldr	r3, [fp, #-16]
   27ff0:	e5933100 	ldr	r3, [r3, #256]	; 0x100
   27ff4:	ea000001 	b	28000 <l2tp_tunnel_create_1_svc+0x4b4>
   27ff8:	e30c3608 	movw	r3, #50696	; 0xc608
   27ffc:	e3403005 	movt	r3, #5
   28000:	e24be03c 	sub	lr, fp, #60	; 0x3c
   28004:	e24bc04c 	sub	ip, fp, #76	; 0x4c
   28008:	e58d1000 	str	r1, [sp]
   2800c:	e58d3004 	str	r3, [sp, #4]
   28010:	e1a00002 	mov	r0, r2
   28014:	e30e12f4 	movw	r1, #58100	; 0xe2f4
   28018:	e3401005 	movt	r1, #5
   2801c:	e1a0200e 	mov	r2, lr
   28020:	e1a0300c 	mov	r3, ip
[31m   28024:	ebff9330 	bl	ccec <printf@plt>[0m
   28028:	ea000016 	b	28088 <l2tp_tunnel_create_1_svc+0x53c>
   2802c:	e51b3010 	ldr	r3, [fp, #-16]
--
   28134:	e3530000 	cmp	r3, #0
   28138:	0a00001b 	beq	281ac <l2tp_tunnel_create_1_svc+0x660>
   2813c:	e30737d0 	movw	r3, #30672	; 0x77d0
   28140:	e3403007 	movt	r3, #7
   28144:	e5933000 	ldr	r3, [r3]
   28148:	e2033004 	and	r3, r3, #4
   2814c:	e3530000 	cmp	r3, #0
   28150:	0a000015 	beq	281ac <l2tp_tunnel_create_1_svc+0x660>
   28154:	e30737cc 	movw	r3, #30668	; 0x77cc
   28158:	e3403007 	movt	r3, #7
   2815c:	e5933000 	ldr	r3, [r3]
   28160:	e3530000 	cmp	r3, #0
   28164:	0a000008 	beq	2818c <l2tp_tunnel_create_1_svc+0x640>
   28168:	e30d3e94 	movw	r3, #56980	; 0xde94
   2816c:	e3403005 	movt	r3, #5
   28170:	e59b21dc 	ldr	r2, [fp, #476]	; 0x1dc
   28174:	e5922000 	ldr	r2, [r2]
   28178:	e1a00003 	mov	r0, r3
   2817c:	e30e12f4 	movw	r1, #58100	; 0xe2f4
   28180:	e3401005 	movt	r1, #5
[31m   28184:	ebff92d8 	bl	ccec <printf@plt>[0m
   28188:	ea000007 	b	281ac <l2tp_tunnel_create_1_svc+0x660>
   2818c:	e59b31dc 	ldr	r3, [fp, #476]	; 0x1dc
--
   28210:	e5933000 	ldr	r3, [r3]
   28214:	e3530000 	cmp	r3, #0
   28218:	0a000019 	beq	28284 <l2tp_tunnel_delete_1_svc+0x9c>
   2821c:	e30737d0 	movw	r3, #30672	; 0x77d0
   28220:	e3403007 	movt	r3, #7
   28224:	e5933000 	ldr	r3, [r3]
   28228:	e2033004 	and	r3, r3, #4
   2822c:	e3530000 	cmp	r3, #0
   28230:	0a000013 	beq	28284 <l2tp_tunnel_delete_1_svc+0x9c>
   28234:	e30737cc 	movw	r3, #30668	; 0x77cc
   28238:	e3403007 	movt	r3, #7
   2823c:	e5933000 	ldr	r3, [r3]
   28240:	e3530000 	cmp	r3, #0
   28244:	0a000007 	beq	28268 <l2tp_tunnel_delete_1_svc+0x80>
   28248:	e30d3a54 	movw	r3, #55892	; 0xda54
   2824c:	e3403005 	movt	r3, #5
   28250:	e15b20be 	ldrh	r2, [fp, #-14]
   28254:	e1a00003 	mov	r0, r3
   28258:	e30e12d8 	movw	r1, #58072	; 0xe2d8
   2825c:	e3401005 	movt	r1, #5
[31m   28260:	ebff92a1 	bl	ccec <printf@plt>[0m
   28264:	ea000006 	b	28284 <l2tp_tunnel_delete_1_svc+0x9c>
   28268:	e15b30be 	ldrh	r3, [fp, #-14]
--
   283a4:	e3530000 	cmp	r3, #0
   283a8:	0a00001b 	beq	2841c <l2tp_tunnel_delete_1_svc+0x234>
   283ac:	e30737d0 	movw	r3, #30672	; 0x77d0
   283b0:	e3403007 	movt	r3, #7
   283b4:	e5933000 	ldr	r3, [r3]
   283b8:	e2033004 	and	r3, r3, #4
   283bc:	e3530000 	cmp	r3, #0
   283c0:	0a000015 	beq	2841c <l2tp_tunnel_delete_1_svc+0x234>
   283c4:	e30737cc 	movw	r3, #30668	; 0x77cc
   283c8:	e3403007 	movt	r3, #7
   283cc:	e5933000 	ldr	r3, [r3]
   283d0:	e3530000 	cmp	r3, #0
   283d4:	0a000008 	beq	283fc <l2tp_tunnel_delete_1_svc+0x214>
   283d8:	e30d3e94 	movw	r3, #56980	; 0xde94
   283dc:	e3403005 	movt	r3, #5
   283e0:	e59b2010 	ldr	r2, [fp, #16]
   283e4:	e5922000 	ldr	r2, [r2]
   283e8:	e1a00003 	mov	r0, r3
   283ec:	e30e12d8 	movw	r1, #58072	; 0xe2d8
   283f0:	e3401005 	movt	r1, #5
[31m   283f4:	ebff923c 	bl	ccec <printf@plt>[0m
   283f8:	ea000007 	b	2841c <l2tp_tunnel_delete_1_svc+0x234>
   283fc:	e59b3010 	ldr	r3, [fp, #16]
--
   28454:	e5933000 	ldr	r3, [r3]
   28458:	e3530000 	cmp	r3, #0
   2845c:	0a000019 	beq	284c8 <l2tp_tunnel_modify_1_svc+0x94>
   28460:	e30737d0 	movw	r3, #30672	; 0x77d0
   28464:	e3403007 	movt	r3, #7
   28468:	e5933000 	ldr	r3, [r3]
   2846c:	e2033004 	and	r3, r3, #4
   28470:	e3530000 	cmp	r3, #0
   28474:	0a000013 	beq	284c8 <l2tp_tunnel_modify_1_svc+0x94>
   28478:	e30737cc 	movw	r3, #30668	; 0x77cc
   2847c:	e3403007 	movt	r3, #7
   28480:	e5933000 	ldr	r3, [r3]
   28484:	e3530000 	cmp	r3, #0
   28488:	0a000007 	beq	284ac <l2tp_tunnel_modify_1_svc+0x78>
   2848c:	e30d3a54 	movw	r3, #55892	; 0xda54
   28490:	e3403005 	movt	r3, #5
   28494:	e1db20bc 	ldrh	r2, [fp, #12]
   28498:	e1a00003 	mov	r0, r3
   2849c:	e30e12bc 	movw	r1, #58044	; 0xe2bc
   284a0:	e3401005 	movt	r1, #5
[31m   284a4:	ebff9210 	bl	ccec <printf@plt>[0m
   284a8:	ea000006 	b	284c8 <l2tp_tunnel_modify_1_svc+0x94>
   284ac:	e1db30bc 	ldrh	r3, [fp, #12]
--
   28764:	e3530000 	cmp	r3, #0
   28768:	0a00001b 	beq	287dc <l2tp_tunnel_modify_1_svc+0x3a8>
   2876c:	e30737d0 	movw	r3, #30672	; 0x77d0
   28770:	e3403007 	movt	r3, #7
   28774:	e5933000 	ldr	r3, [r3]
   28778:	e2033004 	and	r3, r3, #4
   2877c:	e3530000 	cmp	r3, #0
   28780:	0a000015 	beq	287dc <l2tp_tunnel_modify_1_svc+0x3a8>
   28784:	e30737cc 	movw	r3, #30668	; 0x77cc
   28788:	e3403007 	movt	r3, #7
   2878c:	e5933000 	ldr	r3, [r3]
   28790:	e3530000 	cmp	r3, #0
   28794:	0a000008 	beq	287bc <l2tp_tunnel_modify_1_svc+0x388>
   28798:	e30d3e94 	movw	r3, #56980	; 0xde94
   2879c:	e3403005 	movt	r3, #5
   287a0:	e59b21dc 	ldr	r2, [fp, #476]	; 0x1dc
   287a4:	e5922000 	ldr	r2, [r2]
   287a8:	e1a00003 	mov	r0, r3
   287ac:	e30e12bc 	movw	r1, #58044	; 0xe2bc
   287b0:	e3401005 	movt	r1, #5
[31m   287b4:	ebff914c 	bl	ccec <printf@plt>[0m
   287b8:	ea000007 	b	287dc <l2tp_tunnel_modify_1_svc+0x3a8>
   287bc:	e59b31dc 	ldr	r3, [fp, #476]	; 0x1dc
--
   28818:	e5933000 	ldr	r3, [r3]
   2881c:	e3530000 	cmp	r3, #0
   28820:	0a000019 	beq	2888c <l2tp_tunnel_get_1_svc+0x98>
   28824:	e30737d0 	movw	r3, #30672	; 0x77d0
   28828:	e3403007 	movt	r3, #7
   2882c:	e5933000 	ldr	r3, [r3]
   28830:	e2033004 	and	r3, r3, #4
   28834:	e3530000 	cmp	r3, #0
   28838:	0a000013 	beq	2888c <l2tp_tunnel_get_1_svc+0x98>
   2883c:	e30737cc 	movw	r3, #30668	; 0x77cc
   28840:	e3403007 	movt	r3, #7
   28844:	e5933000 	ldr	r3, [r3]
   28848:	e3530000 	cmp	r3, #0
   2884c:	0a000007 	beq	28870 <l2tp_tunnel_get_1_svc+0x7c>
   28850:	e30d3a54 	movw	r3, #55892	; 0xda54
   28854:	e3403005 	movt	r3, #5
   28858:	e15b20be 	ldrh	r2, [fp, #-14]
   2885c:	e1a00003 	mov	r0, r3
   28860:	e30e12a4 	movw	r1, #58020	; 0xe2a4
   28864:	e3401005 	movt	r1, #5
[31m   28868:	ebff911f 	bl	ccec <printf@plt>[0m
   2886c:	ea000006 	b	2888c <l2tp_tunnel_get_1_svc+0x98>
   28870:	e15b30be 	ldrh	r3, [fp, #-14]
--
   293cc:	e3530000 	cmp	r3, #0
   293d0:	0a00001b 	beq	29444 <l2tp_tunnel_get_1_svc+0xc50>
   293d4:	e30737d0 	movw	r3, #30672	; 0x77d0
   293d8:	e3403007 	movt	r3, #7
   293dc:	e5933000 	ldr	r3, [r3]
   293e0:	e2033004 	and	r3, r3, #4
   293e4:	e3530000 	cmp	r3, #0
   293e8:	0a000015 	beq	29444 <l2tp_tunnel_get_1_svc+0xc50>
   293ec:	e30737cc 	movw	r3, #30668	; 0x77cc
   293f0:	e3403007 	movt	r3, #7
   293f4:	e5933000 	ldr	r3, [r3]
   293f8:	e3530000 	cmp	r3, #0
   293fc:	0a000008 	beq	29424 <l2tp_tunnel_get_1_svc+0xc30>
   29400:	e30d3e94 	movw	r3, #56980	; 0xde94
   29404:	e3403005 	movt	r3, #5
   29408:	e51b201c 	ldr	r2, [fp, #-28]	; 0xffffffe4
   2940c:	e592200c 	ldr	r2, [r2, #12]
   29410:	e1a00003 	mov	r0, r3
   29414:	e30e12a4 	movw	r1, #58020	; 0xe2a4
   29418:	e3401005 	movt	r1, #5
[31m   2941c:	ebff8e32 	bl	ccec <printf@plt>[0m
   29420:	ea000007 	b	29444 <l2tp_tunnel_get_1_svc+0xc50>
   29424:	e51b301c 	ldr	r3, [fp, #-28]	; 0xffffffe4
--
   29628:	e3403007 	movt	r3, #7
   2962c:	e5933000 	ldr	r3, [r3]
   29630:	e3530000 	cmp	r3, #0
   29634:	0a000017 	beq	29698 <l2tp_tunnel_list_1_svc+0x90>
   29638:	e30737d0 	movw	r3, #30672	; 0x77d0
   2963c:	e3403007 	movt	r3, #7
   29640:	e5933000 	ldr	r3, [r3]
   29644:	e2033004 	and	r3, r3, #4
   29648:	e3530000 	cmp	r3, #0
   2964c:	0a000011 	beq	29698 <l2tp_tunnel_list_1_svc+0x90>
   29650:	e30737cc 	movw	r3, #30668	; 0x77cc
   29654:	e3403007 	movt	r3, #7
   29658:	e5933000 	ldr	r3, [r3]
   2965c:	e3530000 	cmp	r3, #0
   29660:	0a000006 	beq	29680 <l2tp_tunnel_list_1_svc+0x78>
   29664:	e30d3f08 	movw	r3, #57096	; 0xdf08
   29668:	e3403005 	movt	r3, #5
   2966c:	e1a00003 	mov	r0, r3
   29670:	e30e128c 	movw	r1, #57996	; 0xe28c
   29674:	e3401005 	movt	r1, #5
[31m   29678:	ebff8d9b 	bl	ccec <printf@plt>[0m
   2967c:	ea000005 	b	29698 <l2tp_tunnel_list_1_svc+0x90>
   29680:	e3a00007 	mov	r0, #7
--
   2985c:	0a00001d 	beq	298d8 <l2tp_tunnel_clone+0xa8>
   29860:	e30737d0 	movw	r3, #30672	; 0x77d0
   29864:	e3403007 	movt	r3, #7
   29868:	e5933000 	ldr	r3, [r3]
   2986c:	e2033004 	and	r3, r3, #4
   29870:	e3530000 	cmp	r3, #0
   29874:	0a000017 	beq	298d8 <l2tp_tunnel_clone+0xa8>
   29878:	e30737cc 	movw	r3, #30668	; 0x77cc
   2987c:	e3403007 	movt	r3, #7
   29880:	e5933000 	ldr	r3, [r3]
   29884:	e3530000 	cmp	r3, #0
   29888:	0a000009 	beq	298b4 <l2tp_tunnel_clone+0x84>
   2988c:	e30d3a54 	movw	r3, #55892	; 0xda54
   29890:	e3403005 	movt	r3, #5
   29894:	e51b1010 	ldr	r1, [fp, #-16]
   29898:	e3a02e15 	mov	r2, #336	; 0x150
   2989c:	e19120b2 	ldrh	r2, [r1, r2]
   298a0:	e1a00003 	mov	r0, r3
   298a4:	e30e1278 	movw	r1, #57976	; 0xe278
   298a8:	e3401005 	movt	r1, #5
[31m   298ac:	ebff8d0e 	bl	ccec <printf@plt>[0m
   298b0:	ea000008 	b	298d8 <l2tp_tunnel_clone+0xa8>
   298b4:	e51b2010 	ldr	r2, [fp, #-16]
--
   29dbc:	e5933000 	ldr	r3, [r3]
   29dc0:	e3530000 	cmp	r3, #0
   29dc4:	0a000019 	beq	29e30 <l2tp_tunnel_clone+0x600>
   29dc8:	e30737d0 	movw	r3, #30672	; 0x77d0
   29dcc:	e3403007 	movt	r3, #7
   29dd0:	e5933000 	ldr	r3, [r3]
   29dd4:	e2033004 	and	r3, r3, #4
   29dd8:	e3530000 	cmp	r3, #0
   29ddc:	0a000013 	beq	29e30 <l2tp_tunnel_clone+0x600>
   29de0:	e30737cc 	movw	r3, #30668	; 0x77cc
   29de4:	e3403007 	movt	r3, #7
   29de8:	e5933000 	ldr	r3, [r3]
   29dec:	e3530000 	cmp	r3, #0
   29df0:	0a000007 	beq	29e14 <l2tp_tunnel_clone+0x5e4>
   29df4:	e30d3e94 	movw	r3, #56980	; 0xde94
   29df8:	e3403005 	movt	r3, #5
   29dfc:	e1a00003 	mov	r0, r3
   29e00:	e30e1278 	movw	r1, #57976	; 0xe278
   29e04:	e3401005 	movt	r1, #5
   29e08:	e51b2008 	ldr	r2, [fp, #-8]
[31m   29e0c:	ebff8bb6 	bl	ccec <printf@plt>[0m
   29e10:	ea000006 	b	29e30 <l2tp_tunnel_clone+0x600>
   29e14:	e3a00007 	mov	r0, #7
--
   2a974:	e5933000 	ldr	r3, [r3]
   2a978:	e3530000 	cmp	r3, #0
   2a97c:	0a000019 	beq	2a9e8 <l2tp_tunnel_profile_create_1_svc+0x94>
   2a980:	e30737d0 	movw	r3, #30672	; 0x77d0
   2a984:	e3403007 	movt	r3, #7
   2a988:	e5933000 	ldr	r3, [r3]
   2a98c:	e2033004 	and	r3, r3, #4
   2a990:	e3530000 	cmp	r3, #0
   2a994:	0a000013 	beq	2a9e8 <l2tp_tunnel_profile_create_1_svc+0x94>
   2a998:	e30737cc 	movw	r3, #30668	; 0x77cc
   2a99c:	e3403007 	movt	r3, #7
   2a9a0:	e5933000 	ldr	r3, [r3]
   2a9a4:	e3530000 	cmp	r3, #0
   2a9a8:	0a000007 	beq	2a9cc <l2tp_tunnel_profile_create_1_svc+0x78>
   2a9ac:	e30d3f98 	movw	r3, #57240	; 0xdf98
   2a9b0:	e3403005 	movt	r3, #5
   2a9b4:	e59b2008 	ldr	r2, [fp, #8]
   2a9b8:	e1a00003 	mov	r0, r3
   2a9bc:	e30e1254 	movw	r1, #57940	; 0xe254
   2a9c0:	e3401005 	movt	r1, #5
[31m   2a9c4:	ebff88c8 	bl	ccec <printf@plt>[0m
   2a9c8:	ea000006 	b	2a9e8 <l2tp_tunnel_profile_create_1_svc+0x94>
   2a9cc:	e59b3008 	ldr	r3, [fp, #8]
--
   2ada0:	e5933000 	ldr	r3, [r3]
   2ada4:	e3530000 	cmp	r3, #0
   2ada8:	0a000019 	beq	2ae14 <l2tp_tunnel_profile_create_1_svc+0x4c0>
   2adac:	e30737d0 	movw	r3, #30672	; 0x77d0
   2adb0:	e3403007 	movt	r3, #7
   2adb4:	e5933000 	ldr	r3, [r3]
   2adb8:	e2033040 	and	r3, r3, #64	; 0x40
   2adbc:	e3530000 	cmp	r3, #0
   2adc0:	0a000013 	beq	2ae14 <l2tp_tunnel_profile_create_1_svc+0x4c0>
   2adc4:	e30737cc 	movw	r3, #30668	; 0x77cc
   2adc8:	e3403007 	movt	r3, #7
   2adcc:	e5933000 	ldr	r3, [r3]
   2add0:	e3530000 	cmp	r3, #0
   2add4:	0a000007 	beq	2adf8 <l2tp_tunnel_profile_create_1_svc+0x4a4>
   2add8:	e30d3fc8 	movw	r3, #57288	; 0xdfc8
   2addc:	e3403005 	movt	r3, #5
   2ade0:	e51b2008 	ldr	r2, [fp, #-8]
   2ade4:	e5922008 	ldr	r2, [r2, #8]
   2ade8:	e1a00003 	mov	r0, r3
   2adec:	e1a01002 	mov	r1, r2
[31m   2adf0:	ebff87bd 	bl	ccec <printf@plt>[0m
   2adf4:	ea000006 	b	2ae14 <l2tp_tunnel_profile_create_1_svc+0x4c0>
   2adf8:	e51b3008 	ldr	r3, [fp, #-8]
--
   2ae54:	e3530000 	cmp	r3, #0
   2ae58:	0a00001b 	beq	2aecc <l2tp_tunnel_profile_create_1_svc+0x578>
   2ae5c:	e30737d0 	movw	r3, #30672	; 0x77d0
   2ae60:	e3403007 	movt	r3, #7
   2ae64:	e5933000 	ldr	r3, [r3]
   2ae68:	e2033004 	and	r3, r3, #4
   2ae6c:	e3530000 	cmp	r3, #0
   2ae70:	0a000015 	beq	2aecc <l2tp_tunnel_profile_create_1_svc+0x578>
   2ae74:	e30737cc 	movw	r3, #30668	; 0x77cc
   2ae78:	e3403007 	movt	r3, #7
   2ae7c:	e5933000 	ldr	r3, [r3]
   2ae80:	e3530000 	cmp	r3, #0
   2ae84:	0a000008 	beq	2aeac <l2tp_tunnel_profile_create_1_svc+0x558>
   2ae88:	e30d3e94 	movw	r3, #56980	; 0xde94
   2ae8c:	e3403005 	movt	r3, #5
   2ae90:	e59b2090 	ldr	r2, [fp, #144]	; 0x90
   2ae94:	e5922000 	ldr	r2, [r2]
   2ae98:	e1a00003 	mov	r0, r3
   2ae9c:	e30e1254 	movw	r1, #57940	; 0xe254
   2aea0:	e3401005 	movt	r1, #5
[31m   2aea4:	ebff8790 	bl	ccec <printf@plt>[0m
   2aea8:	ea000007 	b	2aecc <l2tp_tunnel_profile_create_1_svc+0x578>
   2aeac:	e59b3090 	ldr	r3, [fp, #144]	; 0x90
--
   2af14:	e5933000 	ldr	r3, [r3]
   2af18:	e3530000 	cmp	r3, #0
   2af1c:	0a000019 	beq	2af88 <l2tp_tunnel_profile_modify_1_svc+0x94>
   2af20:	e30737d0 	movw	r3, #30672	; 0x77d0
   2af24:	e3403007 	movt	r3, #7
   2af28:	e5933000 	ldr	r3, [r3]
   2af2c:	e2033004 	and	r3, r3, #4
   2af30:	e3530000 	cmp	r3, #0
   2af34:	0a000013 	beq	2af88 <l2tp_tunnel_profile_modify_1_svc+0x94>
   2af38:	e30737cc 	movw	r3, #30668	; 0x77cc
   2af3c:	e3403007 	movt	r3, #7
   2af40:	e5933000 	ldr	r3, [r3]
   2af44:	e3530000 	cmp	r3, #0
   2af48:	0a000007 	beq	2af6c <l2tp_tunnel_profile_modify_1_svc+0x78>
   2af4c:	e30d3f98 	movw	r3, #57240	; 0xdf98
   2af50:	e3403005 	movt	r3, #5
   2af54:	e59b2008 	ldr	r2, [fp, #8]
   2af58:	e1a00003 	mov	r0, r3
   2af5c:	e30e1230 	movw	r1, #57904	; 0xe230
   2af60:	e3401005 	movt	r1, #5
[31m   2af64:	ebff8760 	bl	ccec <printf@plt>[0m
   2af68:	ea000006 	b	2af88 <l2tp_tunnel_profile_modify_1_svc+0x94>
   2af6c:	e59b3008 	ldr	r3, [fp, #8]
--
   2b000:	e5933000 	ldr	r3, [r3]
   2b004:	e3530000 	cmp	r3, #0
   2b008:	0a000019 	beq	2b074 <l2tp_tunnel_profile_modify_1_svc+0x180>
   2b00c:	e30737d0 	movw	r3, #30672	; 0x77d0
   2b010:	e3403007 	movt	r3, #7
   2b014:	e5933000 	ldr	r3, [r3]
   2b018:	e2033040 	and	r3, r3, #64	; 0x40
   2b01c:	e3530000 	cmp	r3, #0
   2b020:	0a000013 	beq	2b074 <l2tp_tunnel_profile_modify_1_svc+0x180>
   2b024:	e30737cc 	movw	r3, #30668	; 0x77cc
   2b028:	e3403007 	movt	r3, #7
   2b02c:	e5933000 	ldr	r3, [r3]
   2b030:	e3530000 	cmp	r3, #0
   2b034:	0a000007 	beq	2b058 <l2tp_tunnel_profile_modify_1_svc+0x164>
   2b038:	e30e3018 	movw	r3, #57368	; 0xe018
   2b03c:	e3403005 	movt	r3, #5
   2b040:	e51b2008 	ldr	r2, [fp, #-8]
   2b044:	e5922008 	ldr	r2, [r2, #8]
   2b048:	e1a00003 	mov	r0, r3
   2b04c:	e1a01002 	mov	r1, r2
[31m   2b050:	ebff8725 	bl	ccec <printf@plt>[0m
   2b054:	ea000006 	b	2b074 <l2tp_tunnel_profile_modify_1_svc+0x180>
   2b058:	e51b3008 	ldr	r3, [fp, #-8]
--
   2b0b4:	e3530000 	cmp	r3, #0
   2b0b8:	0a00001b 	beq	2b12c <l2tp_tunnel_profile_modify_1_svc+0x238>
   2b0bc:	e30737d0 	movw	r3, #30672	; 0x77d0
   2b0c0:	e3403007 	movt	r3, #7
   2b0c4:	e5933000 	ldr	r3, [r3]
   2b0c8:	e2033004 	and	r3, r3, #4
   2b0cc:	e3530000 	cmp	r3, #0
   2b0d0:	0a000015 	beq	2b12c <l2tp_tunnel_profile_modify_1_svc+0x238>
   2b0d4:	e30737cc 	movw	r3, #30668	; 0x77cc
   2b0d8:	e3403007 	movt	r3, #7
   2b0dc:	e5933000 	ldr	r3, [r3]
   2b0e0:	e3530000 	cmp	r3, #0
   2b0e4:	0a000008 	beq	2b10c <l2tp_tunnel_profile_modify_1_svc+0x218>
   2b0e8:	e30d3e94 	movw	r3, #56980	; 0xde94
   2b0ec:	e3403005 	movt	r3, #5
   2b0f0:	e59b2090 	ldr	r2, [fp, #144]	; 0x90
   2b0f4:	e5922000 	ldr	r2, [r2]
   2b0f8:	e1a00003 	mov	r0, r3
   2b0fc:	e30e1230 	movw	r1, #57904	; 0xe230
   2b100:	e3401005 	movt	r1, #5
[31m   2b104:	ebff86f8 	bl	ccec <printf@plt>[0m
   2b108:	ea000007 	b	2b12c <l2tp_tunnel_profile_modify_1_svc+0x238>
   2b10c:	e59b3090 	ldr	r3, [fp, #144]	; 0x90
--
   2b164:	e5933000 	ldr	r3, [r3]
   2b168:	e3530000 	cmp	r3, #0
   2b16c:	0a000019 	beq	2b1d8 <l2tp_tunnel_profile_delete_1_svc+0x94>
   2b170:	e30737d0 	movw	r3, #30672	; 0x77d0
   2b174:	e3403007 	movt	r3, #7
   2b178:	e5933000 	ldr	r3, [r3]
   2b17c:	e2033004 	and	r3, r3, #4
   2b180:	e3530000 	cmp	r3, #0
   2b184:	0a000013 	beq	2b1d8 <l2tp_tunnel_profile_delete_1_svc+0x94>
   2b188:	e30737cc 	movw	r3, #30668	; 0x77cc
   2b18c:	e3403007 	movt	r3, #7
   2b190:	e5933000 	ldr	r3, [r3]
   2b194:	e3530000 	cmp	r3, #0
   2b198:	0a000007 	beq	2b1bc <l2tp_tunnel_profile_delete_1_svc+0x78>
   2b19c:	e30d3f98 	movw	r3, #57240	; 0xdf98
   2b1a0:	e3403005 	movt	r3, #5
   2b1a4:	e1a00003 	mov	r0, r3
   2b1a8:	e30e120c 	movw	r1, #57868	; 0xe20c
   2b1ac:	e3401005 	movt	r1, #5
   2b1b0:	e51b2010 	ldr	r2, [fp, #-16]
[31m   2b1b4:	ebff86cc 	bl	ccec <printf@plt>[0m
   2b1b8:	ea000006 	b	2b1d8 <l2tp_tunnel_profile_delete_1_svc+0x94>
   2b1bc:	e3a00007 	mov	r0, #7
--
   2b274:	e5933000 	ldr	r3, [r3]
   2b278:	e3530000 	cmp	r3, #0
   2b27c:	0a000019 	beq	2b2e8 <l2tp_tunnel_profile_delete_1_svc+0x1a4>
   2b280:	e30737d0 	movw	r3, #30672	; 0x77d0
   2b284:	e3403007 	movt	r3, #7
   2b288:	e5933000 	ldr	r3, [r3]
   2b28c:	e2033040 	and	r3, r3, #64	; 0x40
   2b290:	e3530000 	cmp	r3, #0
   2b294:	0a000013 	beq	2b2e8 <l2tp_tunnel_profile_delete_1_svc+0x1a4>
   2b298:	e30737cc 	movw	r3, #30668	; 0x77cc
   2b29c:	e3403007 	movt	r3, #7
   2b2a0:	e5933000 	ldr	r3, [r3]
   2b2a4:	e3530000 	cmp	r3, #0
   2b2a8:	0a000007 	beq	2b2cc <l2tp_tunnel_profile_delete_1_svc+0x188>
   2b2ac:	e30e306c 	movw	r3, #57452	; 0xe06c
   2b2b0:	e3403005 	movt	r3, #5
   2b2b4:	e51b2008 	ldr	r2, [fp, #-8]
   2b2b8:	e5922008 	ldr	r2, [r2, #8]
   2b2bc:	e1a00003 	mov	r0, r3
   2b2c0:	e1a01002 	mov	r1, r2
[31m   2b2c4:	ebff8688 	bl	ccec <printf@plt>[0m
   2b2c8:	ea000006 	b	2b2e8 <l2tp_tunnel_profile_delete_1_svc+0x1a4>
   2b2cc:	e51b3008 	ldr	r3, [fp, #-8]
--
   2b33c:	e3530000 	cmp	r3, #0
   2b340:	0a00001b 	beq	2b3b4 <l2tp_tunnel_profile_delete_1_svc+0x270>
   2b344:	e30737d0 	movw	r3, #30672	; 0x77d0
   2b348:	e3403007 	movt	r3, #7
   2b34c:	e5933000 	ldr	r3, [r3]
   2b350:	e2033004 	and	r3, r3, #4
   2b354:	e3530000 	cmp	r3, #0
   2b358:	0a000015 	beq	2b3b4 <l2tp_tunnel_profile_delete_1_svc+0x270>
   2b35c:	e30737cc 	movw	r3, #30668	; 0x77cc
   2b360:	e3403007 	movt	r3, #7
   2b364:	e5933000 	ldr	r3, [r3]
   2b368:	e3530000 	cmp	r3, #0
   2b36c:	0a000008 	beq	2b394 <l2tp_tunnel_profile_delete_1_svc+0x250>
   2b370:	e30d3e94 	movw	r3, #56980	; 0xde94
   2b374:	e3403005 	movt	r3, #5
   2b378:	e51b2014 	ldr	r2, [fp, #-20]	; 0xffffffec
   2b37c:	e5922000 	ldr	r2, [r2]
   2b380:	e1a00003 	mov	r0, r3
   2b384:	e30e120c 	movw	r1, #57868	; 0xe20c
   2b388:	e3401005 	movt	r1, #5
[31m   2b38c:	ebff8656 	bl	ccec <printf@plt>[0m
   2b390:	ea000007 	b	2b3b4 <l2tp_tunnel_profile_delete_1_svc+0x270>
   2b394:	e51b3014 	ldr	r3, [fp, #-20]	; 0xffffffec
--
   2b3e4:	e5933000 	ldr	r3, [r3]
   2b3e8:	e3530000 	cmp	r3, #0
   2b3ec:	0a000019 	beq	2b458 <l2tp_tunnel_profile_get_1_svc+0x94>
   2b3f0:	e30737d0 	movw	r3, #30672	; 0x77d0
   2b3f4:	e3403007 	movt	r3, #7
   2b3f8:	e5933000 	ldr	r3, [r3]
   2b3fc:	e2033004 	and	r3, r3, #4
   2b400:	e3530000 	cmp	r3, #0
   2b404:	0a000013 	beq	2b458 <l2tp_tunnel_profile_get_1_svc+0x94>
   2b408:	e30737cc 	movw	r3, #30668	; 0x77cc
   2b40c:	e3403007 	movt	r3, #7
   2b410:	e5933000 	ldr	r3, [r3]
   2b414:	e3530000 	cmp	r3, #0
   2b418:	0a000007 	beq	2b43c <l2tp_tunnel_profile_get_1_svc+0x78>
   2b41c:	e30d3f98 	movw	r3, #57240	; 0xdf98
   2b420:	e3403005 	movt	r3, #5
   2b424:	e1a00003 	mov	r0, r3
   2b428:	e30e11ec 	movw	r1, #57836	; 0xe1ec
   2b42c:	e3401005 	movt	r1, #5
   2b430:	e51b2010 	ldr	r2, [fp, #-16]
[31m   2b434:	ebff862c 	bl	ccec <printf@plt>[0m
   2b438:	ea000006 	b	2b458 <l2tp_tunnel_profile_get_1_svc+0x94>
   2b43c:	e3a00007 	mov	r0, #7
--
   2b8dc:	e3530000 	cmp	r3, #0
   2b8e0:	0a00001b 	beq	2b954 <l2tp_tunnel_profile_get_1_svc+0x590>
   2b8e4:	e30737d0 	movw	r3, #30672	; 0x77d0
   2b8e8:	e3403007 	movt	r3, #7
   2b8ec:	e5933000 	ldr	r3, [r3]
   2b8f0:	e2033004 	and	r3, r3, #4
   2b8f4:	e3530000 	cmp	r3, #0
   2b8f8:	0a000015 	beq	2b954 <l2tp_tunnel_profile_get_1_svc+0x590>
   2b8fc:	e30737cc 	movw	r3, #30668	; 0x77cc
   2b900:	e3403007 	movt	r3, #7
   2b904:	e5933000 	ldr	r3, [r3]
   2b908:	e3530000 	cmp	r3, #0
   2b90c:	0a000008 	beq	2b934 <l2tp_tunnel_profile_get_1_svc+0x570>
   2b910:	e30d3e94 	movw	r3, #56980	; 0xde94
   2b914:	e3403005 	movt	r3, #5
   2b918:	e51b2014 	ldr	r2, [fp, #-20]	; 0xffffffec
   2b91c:	e5922008 	ldr	r2, [r2, #8]
   2b920:	e1a00003 	mov	r0, r3
   2b924:	e30e11ec 	movw	r1, #57836	; 0xe1ec
   2b928:	e3401005 	movt	r1, #5
[31m   2b92c:	ebff84ee 	bl	ccec <printf@plt>[0m
   2b930:	ea000007 	b	2b954 <l2tp_tunnel_profile_get_1_svc+0x590>
   2b934:	e51b3014 	ldr	r3, [fp, #-20]	; 0xffffffec
--
   2ba80:	e3403007 	movt	r3, #7
   2ba84:	e5933000 	ldr	r3, [r3]
   2ba88:	e3530000 	cmp	r3, #0
   2ba8c:	0a000017 	beq	2baf0 <l2tp_tunnel_profile_list_1_svc+0x90>
   2ba90:	e30737d0 	movw	r3, #30672	; 0x77d0
   2ba94:	e3403007 	movt	r3, #7
   2ba98:	e5933000 	ldr	r3, [r3]
   2ba9c:	e2033004 	and	r3, r3, #4
   2baa0:	e3530000 	cmp	r3, #0
   2baa4:	0a000011 	beq	2baf0 <l2tp_tunnel_profile_list_1_svc+0x90>
   2baa8:	e30737cc 	movw	r3, #30668	; 0x77cc
   2baac:	e3403007 	movt	r3, #7
   2bab0:	e5933000 	ldr	r3, [r3]
   2bab4:	e3530000 	cmp	r3, #0
   2bab8:	0a000006 	beq	2bad8 <l2tp_tunnel_profile_list_1_svc+0x78>
   2babc:	e30d3f08 	movw	r3, #57096	; 0xdf08
   2bac0:	e3403005 	movt	r3, #5
   2bac4:	e1a00003 	mov	r0, r3
   2bac8:	e30e11cc 	movw	r1, #57804	; 0xe1cc
   2bacc:	e3401005 	movt	r1, #5
[31m   2bad0:	ebff8485 	bl	ccec <printf@plt>[0m
   2bad4:	ea000005 	b	2baf0 <l2tp_tunnel_profile_list_1_svc+0x90>
   2bad8:	e3a00007 	mov	r0, #7
--
   2bce4:	e5933000 	ldr	r3, [r3]
   2bce8:	e3530000 	cmp	r3, #0
   2bcec:	0a000019 	beq	2bd58 <l2tp_tunnel_profile_unset_1_svc+0x94>
   2bcf0:	e30737d0 	movw	r3, #30672	; 0x77d0
   2bcf4:	e3403007 	movt	r3, #7
   2bcf8:	e5933000 	ldr	r3, [r3]
   2bcfc:	e2033004 	and	r3, r3, #4
   2bd00:	e3530000 	cmp	r3, #0
   2bd04:	0a000013 	beq	2bd58 <l2tp_tunnel_profile_unset_1_svc+0x94>
   2bd08:	e30737cc 	movw	r3, #30668	; 0x77cc
   2bd0c:	e3403007 	movt	r3, #7
   2bd10:	e5933000 	ldr	r3, [r3]
   2bd14:	e3530000 	cmp	r3, #0
   2bd18:	0a000007 	beq	2bd3c <l2tp_tunnel_profile_unset_1_svc+0x78>
   2bd1c:	e30d3f98 	movw	r3, #57240	; 0xdf98
   2bd20:	e3403005 	movt	r3, #5
   2bd24:	e51b2010 	ldr	r2, [fp, #-16]
   2bd28:	e1a00003 	mov	r0, r3
   2bd2c:	e30e11ac 	movw	r1, #57772	; 0xe1ac
   2bd30:	e3401005 	movt	r1, #5
[31m   2bd34:	ebff83ec 	bl	ccec <printf@plt>[0m
   2bd38:	ea000006 	b	2bd58 <l2tp_tunnel_profile_unset_1_svc+0x94>
   2bd3c:	e51b3010 	ldr	r3, [fp, #-16]
--
   2c1dc:	e5933000 	ldr	r3, [r3]
   2c1e0:	e3530000 	cmp	r3, #0
   2c1e4:	0a000019 	beq	2c250 <l2tp_tunnel_profile_unset_1_svc+0x58c>
   2c1e8:	e30737d0 	movw	r3, #30672	; 0x77d0
   2c1ec:	e3403007 	movt	r3, #7
   2c1f0:	e5933000 	ldr	r3, [r3]
   2c1f4:	e2033040 	and	r3, r3, #64	; 0x40
   2c1f8:	e3530000 	cmp	r3, #0
   2c1fc:	0a000013 	beq	2c250 <l2tp_tunnel_profile_unset_1_svc+0x58c>
   2c200:	e30737cc 	movw	r3, #30668	; 0x77cc
   2c204:	e3403007 	movt	r3, #7
   2c208:	e5933000 	ldr	r3, [r3]
   2c20c:	e3530000 	cmp	r3, #0
   2c210:	0a000007 	beq	2c234 <l2tp_tunnel_profile_unset_1_svc+0x570>
   2c214:	e30e30bc 	movw	r3, #57532	; 0xe0bc
   2c218:	e3403005 	movt	r3, #5
   2c21c:	e51b2008 	ldr	r2, [fp, #-8]
   2c220:	e5922008 	ldr	r2, [r2, #8]
   2c224:	e1a00003 	mov	r0, r3
   2c228:	e1a01002 	mov	r1, r2
[31m   2c22c:	ebff82ae 	bl	ccec <printf@plt>[0m
   2c230:	ea000006 	b	2c250 <l2tp_tunnel_profile_unset_1_svc+0x58c>
   2c234:	e51b3008 	ldr	r3, [fp, #-8]
--
   2c290:	e3530000 	cmp	r3, #0
   2c294:	0a00001b 	beq	2c308 <l2tp_tunnel_profile_unset_1_svc+0x644>
   2c298:	e30737d0 	movw	r3, #30672	; 0x77d0
   2c29c:	e3403007 	movt	r3, #7
   2c2a0:	e5933000 	ldr	r3, [r3]
   2c2a4:	e2033004 	and	r3, r3, #4
   2c2a8:	e3530000 	cmp	r3, #0
   2c2ac:	0a000015 	beq	2c308 <l2tp_tunnel_profile_unset_1_svc+0x644>
   2c2b0:	e30737cc 	movw	r3, #30668	; 0x77cc
   2c2b4:	e3403007 	movt	r3, #7
   2c2b8:	e5933000 	ldr	r3, [r3]
   2c2bc:	e3530000 	cmp	r3, #0
   2c2c0:	0a000008 	beq	2c2e8 <l2tp_tunnel_profile_unset_1_svc+0x624>
   2c2c4:	e30d3e94 	movw	r3, #56980	; 0xde94
   2c2c8:	e3403005 	movt	r3, #5
   2c2cc:	e51b201c 	ldr	r2, [fp, #-28]	; 0xffffffe4
   2c2d0:	e5922000 	ldr	r2, [r2]
   2c2d4:	e1a00003 	mov	r0, r3
   2c2d8:	e30e11ac 	movw	r1, #57772	; 0xe1ac
   2c2dc:	e3401005 	movt	r1, #5
[31m   2c2e0:	ebff8281 	bl	ccec <printf@plt>[0m
   2c2e4:	ea000007 	b	2c308 <l2tp_tunnel_profile_unset_1_svc+0x644>
   2c2e8:	e51b301c 	ldr	r3, [fp, #-28]	; 0xffffffe4
--
   2c930:	e30737c0 	movw	r3, #30656	; 0x77c0
   2c934:	e3403007 	movt	r3, #7
   2c938:	e5933000 	ldr	r3, [r3]
   2c93c:	e3530000 	cmp	r3, #0
   2c940:	0a000015 	beq	2c99c <l2tp_tunnel_init+0x244>
   2c944:	e30737d0 	movw	r3, #30672	; 0x77d0
   2c948:	e3403007 	movt	r3, #7
   2c94c:	e5933000 	ldr	r3, [r3]
   2c950:	e2033040 	and	r3, r3, #64	; 0x40
   2c954:	e3530000 	cmp	r3, #0
   2c958:	0a00000f 	beq	2c99c <l2tp_tunnel_init+0x244>
   2c95c:	e30737cc 	movw	r3, #30668	; 0x77cc
   2c960:	e3403007 	movt	r3, #7
   2c964:	e5933000 	ldr	r3, [r3]
   2c968:	e3530000 	cmp	r3, #0
   2c96c:	0a000005 	beq	2c988 <l2tp_tunnel_init+0x230>
   2c970:	e30e3178 	movw	r3, #57720	; 0xe178
   2c974:	e3403005 	movt	r3, #5
   2c978:	e1a00003 	mov	r0, r3
   2c97c:	e3a01f72 	mov	r1, #456	; 0x1c8
[31m   2c980:	ebff80d9 	bl	ccec <printf@plt>[0m
   2c984:	ea000004 	b	2c99c <l2tp_tunnel_init+0x244>
   2c988:	e3a00007 	mov	r0, #7
--
   2cc88:	e3403007 	movt	r3, #7
   2cc8c:	e5933000 	ldr	r3, [r3]
   2cc90:	e3530000 	cmp	r3, #0
   2cc94:	0a000011 	beq	2cce0 <l2tp_peer_link+0x98>
   2cc98:	e30e4534 	movw	r4, #58676	; 0xe534
   2cc9c:	e3404005 	movt	r4, #5
   2cca0:	e51b3010 	ldr	r3, [fp, #-16]
   2cca4:	e5933004 	ldr	r3, [r3, #4]
   2cca8:	e1a00003 	mov	r0, r3
   2ccac:	ebff807d 	bl	cea8 <ntohl@plt>
   2ccb0:	e1a05000 	mov	r5, r0
   2ccb4:	e51b3010 	ldr	r3, [fp, #-16]
   2ccb8:	e5933008 	ldr	r3, [r3, #8]
   2ccbc:	e1a00003 	mov	r0, r3
   2ccc0:	ebff8078 	bl	cea8 <ntohl@plt>
   2ccc4:	e1a03000 	mov	r3, r0
   2ccc8:	e1a00004 	mov	r0, r4
   2cccc:	e30e1a0c 	movw	r1, #59916	; 0xea0c
   2ccd0:	e3401005 	movt	r1, #5
   2ccd4:	e1a02005 	mov	r2, r5
[31m   2ccd8:	ebff8003 	bl	ccec <printf@plt>[0m
   2ccdc:	ea000011 	b	2cd28 <l2tp_peer_link+0xe0>
   2cce0:	e51b3010 	ldr	r3, [fp, #-16]
--
   2cd8c:	e3403007 	movt	r3, #7
   2cd90:	e5933000 	ldr	r3, [r3]
   2cd94:	e3530000 	cmp	r3, #0
   2cd98:	0a000011 	beq	2cde4 <l2tp_peer_unlink+0x9c>
   2cd9c:	e30e4534 	movw	r4, #58676	; 0xe534
   2cda0:	e3404005 	movt	r4, #5
   2cda4:	e51b3010 	ldr	r3, [fp, #-16]
   2cda8:	e5933004 	ldr	r3, [r3, #4]
   2cdac:	e1a00003 	mov	r0, r3
   2cdb0:	ebff803c 	bl	cea8 <ntohl@plt>
   2cdb4:	e1a05000 	mov	r5, r0
   2cdb8:	e51b3010 	ldr	r3, [fp, #-16]
   2cdbc:	e5933008 	ldr	r3, [r3, #8]
   2cdc0:	e1a00003 	mov	r0, r3
   2cdc4:	ebff8037 	bl	cea8 <ntohl@plt>
   2cdc8:	e1a03000 	mov	r3, r0
   2cdcc:	e1a00004 	mov	r0, r4
   2cdd0:	e30e19f8 	movw	r1, #59896	; 0xe9f8
   2cdd4:	e3401005 	movt	r1, #5
   2cdd8:	e1a02005 	mov	r2, r5
[31m   2cddc:	ebff7fc2 	bl	ccec <printf@plt>[0m
   2cde0:	ea000011 	b	2ce2c <l2tp_peer_unlink+0xe4>
   2cde4:	e51b3010 	ldr	r3, [fp, #-16]
--
   2cf94:	0a000014 	beq	2cfec <l2tp_peer_inc_use_count+0xb8>
   2cf98:	e30e455c 	movw	r4, #58716	; 0xe55c
   2cf9c:	e3404005 	movt	r4, #5
   2cfa0:	e51b3010 	ldr	r3, [fp, #-16]
   2cfa4:	e5933004 	ldr	r3, [r3, #4]
   2cfa8:	e1a00003 	mov	r0, r3
   2cfac:	ebff7fbd 	bl	cea8 <ntohl@plt>
   2cfb0:	e1a05000 	mov	r5, r0
   2cfb4:	e51b3010 	ldr	r3, [fp, #-16]
   2cfb8:	e5933008 	ldr	r3, [r3, #8]
   2cfbc:	e1a00003 	mov	r0, r3
   2cfc0:	ebff7fb8 	bl	cea8 <ntohl@plt>
   2cfc4:	e1a03000 	mov	r3, r0
   2cfc8:	e51b2010 	ldr	r2, [fp, #-16]
   2cfcc:	e5922018 	ldr	r2, [r2, #24]
   2cfd0:	e58d2000 	str	r2, [sp]
   2cfd4:	e1a00004 	mov	r0, r4
   2cfd8:	e30e19e0 	movw	r1, #59872	; 0xe9e0
   2cfdc:	e3401005 	movt	r1, #5
   2cfe0:	e1a02005 	mov	r2, r5
[31m   2cfe4:	ebff7f40 	bl	ccec <printf@plt>[0m
   2cfe8:	ea000014 	b	2d040 <l2tp_peer_inc_use_count+0x10c>
   2cfec:	e51b3010 	ldr	r3, [fp, #-16]
--
   2d0ac:	0a000014 	beq	2d104 <l2tp_peer_dec_use_count+0xbc>
   2d0b0:	e30e455c 	movw	r4, #58716	; 0xe55c
   2d0b4:	e3404005 	movt	r4, #5
   2d0b8:	e51b3018 	ldr	r3, [fp, #-24]	; 0xffffffe8
   2d0bc:	e5933004 	ldr	r3, [r3, #4]
   2d0c0:	e1a00003 	mov	r0, r3
   2d0c4:	ebff7f77 	bl	cea8 <ntohl@plt>
   2d0c8:	e1a06000 	mov	r6, r0
   2d0cc:	e51b3018 	ldr	r3, [fp, #-24]	; 0xffffffe8
   2d0d0:	e5933008 	ldr	r3, [r3, #8]
   2d0d4:	e1a00003 	mov	r0, r3
   2d0d8:	ebff7f72 	bl	cea8 <ntohl@plt>
   2d0dc:	e1a03000 	mov	r3, r0
   2d0e0:	e51b2018 	ldr	r2, [fp, #-24]	; 0xffffffe8
   2d0e4:	e5922018 	ldr	r2, [r2, #24]
   2d0e8:	e58d2000 	str	r2, [sp]
   2d0ec:	e1a00004 	mov	r0, r4
   2d0f0:	e30e19c8 	movw	r1, #59848	; 0xe9c8
   2d0f4:	e3401005 	movt	r1, #5
   2d0f8:	e1a02006 	mov	r2, r6
[31m   2d0fc:	ebff7efa 	bl	ccec <printf@plt>[0m
   2d100:	ea000014 	b	2d158 <l2tp_peer_dec_use_count+0x110>
   2d104:	e51b3018 	ldr	r3, [fp, #-24]	; 0xffffffe8
--
   2d2a4:	e3403007 	movt	r3, #7
   2d2a8:	e5933000 	ldr	r3, [r3]
   2d2ac:	e3530000 	cmp	r3, #0
   2d2b0:	0a000011 	beq	2d2fc <l2tp_peer_free+0x128>
   2d2b4:	e30e4534 	movw	r4, #58676	; 0xe534
   2d2b8:	e3404005 	movt	r4, #5
   2d2bc:	e51b3010 	ldr	r3, [fp, #-16]
   2d2c0:	e5933004 	ldr	r3, [r3, #4]
   2d2c4:	e1a00003 	mov	r0, r3
   2d2c8:	ebff7ef6 	bl	cea8 <ntohl@plt>
   2d2cc:	e1a05000 	mov	r5, r0
   2d2d0:	e51b3010 	ldr	r3, [fp, #-16]
   2d2d4:	e5933008 	ldr	r3, [r3, #8]
   2d2d8:	e1a00003 	mov	r0, r3
   2d2dc:	ebff7ef1 	bl	cea8 <ntohl@plt>
   2d2e0:	e1a03000 	mov	r3, r0
   2d2e4:	e1a00004 	mov	r0, r4
   2d2e8:	e30e19b8 	movw	r1, #59832	; 0xe9b8
   2d2ec:	e3401005 	movt	r1, #5
   2d2f0:	e1a02005 	mov	r2, r5
[31m   2d2f4:	ebff7e7c 	bl	ccec <printf@plt>[0m
   2d2f8:	ea000011 	b	2d344 <l2tp_peer_free+0x170>
   2d2fc:	e51b3010 	ldr	r3, [fp, #-16]
--
   2d430:	e3403007 	movt	r3, #7
   2d434:	e5933000 	ldr	r3, [r3]
   2d438:	e3530000 	cmp	r3, #0
   2d43c:	0a000011 	beq	2d488 <l2tp_peer_alloc+0x124>
   2d440:	e30e4534 	movw	r4, #58676	; 0xe534
   2d444:	e3404005 	movt	r4, #5
   2d448:	e51b3010 	ldr	r3, [fp, #-16]
   2d44c:	e5933004 	ldr	r3, [r3, #4]
   2d450:	e1a00003 	mov	r0, r3
   2d454:	ebff7e93 	bl	cea8 <ntohl@plt>
   2d458:	e1a05000 	mov	r5, r0
   2d45c:	e51b3010 	ldr	r3, [fp, #-16]
   2d460:	e5933008 	ldr	r3, [r3, #8]
   2d464:	e1a00003 	mov	r0, r3
   2d468:	ebff7e8e 	bl	cea8 <ntohl@plt>
   2d46c:	e1a03000 	mov	r3, r0
   2d470:	e1a00004 	mov	r0, r4
   2d474:	e30e19a8 	movw	r1, #59816	; 0xe9a8
   2d478:	e3401005 	movt	r1, #5
   2d47c:	e1a02005 	mov	r2, r5
[31m   2d480:	ebff7e19 	bl	ccec <printf@plt>[0m
   2d484:	ea000011 	b	2d4d0 <l2tp_peer_alloc+0x16c>
   2d488:	e51b3010 	ldr	r3, [fp, #-16]
--
   2d680:	e30737d0 	movw	r3, #30672	; 0x77d0
   2d684:	e3403007 	movt	r3, #7
   2d688:	e5933000 	ldr	r3, [r3]
   2d68c:	e2033040 	and	r3, r3, #64	; 0x40
   2d690:	e3530000 	cmp	r3, #0
   2d694:	0a000018 	beq	2d6fc <l2tp_peer_profile_find_by_addr+0xb0>
   2d698:	e30737cc 	movw	r3, #30668	; 0x77cc
   2d69c:	e3403007 	movt	r3, #7
   2d6a0:	e5933000 	ldr	r3, [r3]
   2d6a4:	e3530000 	cmp	r3, #0
   2d6a8:	0a00000a 	beq	2d6d8 <l2tp_peer_profile_find_by_addr+0x8c>
   2d6ac:	e30e45f0 	movw	r4, #58864	; 0xe5f0
   2d6b0:	e3404005 	movt	r4, #5
   2d6b4:	e51b0028 	ldr	r0, [fp, #-40]	; 0xffffffd8
   2d6b8:	ebff7e60 	bl	d040 <inet_ntoa@plt>
   2d6bc:	e1a03000 	mov	r3, r0
   2d6c0:	e1a00004 	mov	r0, r4
   2d6c4:	e30e1988 	movw	r1, #59784	; 0xe988
   2d6c8:	e3401005 	movt	r1, #5
   2d6cc:	e1a02003 	mov	r2, r3
[31m   2d6d0:	ebff7d85 	bl	ccec <printf@plt>[0m
   2d6d4:	ea000008 	b	2d6fc <l2tp_peer_profile_find_by_addr+0xb0>
   2d6d8:	e51b0028 	ldr	r0, [fp, #-40]	; 0xffffffd8
--
   2d754:	e3403007 	movt	r3, #7
   2d758:	e5933000 	ldr	r3, [r3]
   2d75c:	e2033040 	and	r3, r3, #64	; 0x40
   2d760:	e3530000 	cmp	r3, #0
   2d764:	0a00001c 	beq	2d7dc <l2tp_peer_profile_find_by_addr+0x190>
   2d768:	e30737cc 	movw	r3, #30668	; 0x77cc
   2d76c:	e3403007 	movt	r3, #7
   2d770:	e5933000 	ldr	r3, [r3]
   2d774:	e3530000 	cmp	r3, #0
   2d778:	0a00000b 	beq	2d7ac <l2tp_peer_profile_find_by_addr+0x160>
   2d77c:	e30e4624 	movw	r4, #58916	; 0xe624
   2d780:	e3404005 	movt	r4, #5
   2d784:	e51b0028 	ldr	r0, [fp, #-40]	; 0xffffffd8
   2d788:	ebff7e2c 	bl	d040 <inet_ntoa@plt>
   2d78c:	e1a02000 	mov	r2, r0
   2d790:	e51b3020 	ldr	r3, [fp, #-32]	; 0xffffffe0
   2d794:	e5933000 	ldr	r3, [r3]
   2d798:	e1a00004 	mov	r0, r4
   2d79c:	e30e1988 	movw	r1, #59784	; 0xe988
   2d7a0:	e3401005 	movt	r1, #5
[31m   2d7a4:	ebff7d50 	bl	ccec <printf@plt>[0m
   2d7a8:	ea00000b 	b	2d7dc <l2tp_peer_profile_find_by_addr+0x190>
   2d7ac:	e51b0028 	ldr	r0, [fp, #-40]	; 0xffffffd8
--
   2d814:	e3403007 	movt	r3, #7
   2d818:	e5933000 	ldr	r3, [r3]
   2d81c:	e3530000 	cmp	r3, #0
   2d820:	0a000011 	beq	2d86c <l2tp_peer_profile_find_by_addr+0x220>
   2d824:	e30e468c 	movw	r4, #59020	; 0xe68c
   2d828:	e3404005 	movt	r4, #5
   2d82c:	e51b3020 	ldr	r3, [fp, #-32]	; 0xffffffe0
   2d830:	e5935000 	ldr	r5, [r3]
   2d834:	e51b3020 	ldr	r3, [fp, #-32]	; 0xffffffe0
   2d838:	e5933024 	ldr	r3, [r3, #36]	; 0x24
   2d83c:	e1a00003 	mov	r0, r3
   2d840:	ebff7d98 	bl	cea8 <ntohl@plt>
   2d844:	e1a03000 	mov	r3, r0
   2d848:	e51b2020 	ldr	r2, [fp, #-32]	; 0xffffffe0
   2d84c:	e5922028 	ldr	r2, [r2, #40]	; 0x28
   2d850:	e58d2000 	str	r2, [sp]
   2d854:	e1a00004 	mov	r0, r4
   2d858:	e30e1988 	movw	r1, #59784	; 0xe988
   2d85c:	e3401005 	movt	r1, #5
   2d860:	e1a02005 	mov	r2, r5
[31m   2d864:	ebff7d20 	bl	ccec <printf@plt>[0m
   2d868:	ea000011 	b	2d8b4 <l2tp_peer_profile_find_by_addr+0x268>
   2d86c:	e51b3020 	ldr	r3, [fp, #-32]	; 0xffffffe0
--
   2d910:	e3530000 	cmp	r3, #0
   2d914:	0a000022 	beq	2d9a4 <l2tp_peer_profile_find_by_addr+0x358>
   2d918:	e30737cc 	movw	r3, #30668	; 0x77cc
   2d91c:	e3403007 	movt	r3, #7
   2d920:	e5933000 	ldr	r3, [r3]
   2d924:	e3530000 	cmp	r3, #0
   2d928:	0a00000e 	beq	2d968 <l2tp_peer_profile_find_by_addr+0x31c>
   2d92c:	e30e46fc 	movw	r4, #59132	; 0xe6fc
   2d930:	e3404005 	movt	r4, #5
   2d934:	e51b0028 	ldr	r0, [fp, #-40]	; 0xffffffd8
   2d938:	ebff7dc0 	bl	d040 <inet_ntoa@plt>
   2d93c:	e1a02000 	mov	r2, r0
   2d940:	e51b3020 	ldr	r3, [fp, #-32]	; 0xffffffe0
   2d944:	e5933000 	ldr	r3, [r3]
   2d948:	e51b1020 	ldr	r1, [fp, #-32]	; 0xffffffe0
   2d94c:	e5911028 	ldr	r1, [r1, #40]	; 0x28
   2d950:	e58d1000 	str	r1, [sp]
   2d954:	e1a00004 	mov	r0, r4
   2d958:	e30e1988 	movw	r1, #59784	; 0xe988
   2d95c:	e3401005 	movt	r1, #5
[31m   2d960:	ebff7ce1 	bl	ccec <printf@plt>[0m
   2d964:	ea00000e 	b	2d9a4 <l2tp_peer_profile_find_by_addr+0x358>
   2d968:	e51b0028 	ldr	r0, [fp, #-40]	; 0xffffffd8
--
   2da04:	e3403007 	movt	r3, #7
   2da08:	e5933000 	ldr	r3, [r3]
   2da0c:	e2033040 	and	r3, r3, #64	; 0x40
   2da10:	e3530000 	cmp	r3, #0
   2da14:	0a000041 	beq	2db20 <l2tp_peer_profile_find_by_addr+0x4d4>
   2da18:	e30737cc 	movw	r3, #30668	; 0x77cc
   2da1c:	e3403007 	movt	r3, #7
   2da20:	e5933000 	ldr	r3, [r3]
   2da24:	e3530000 	cmp	r3, #0
   2da28:	0a00000b 	beq	2da5c <l2tp_peer_profile_find_by_addr+0x410>
   2da2c:	e30e4774 	movw	r4, #59252	; 0xe774
   2da30:	e3404005 	movt	r4, #5
   2da34:	e51b0028 	ldr	r0, [fp, #-40]	; 0xffffffd8
   2da38:	ebff7d80 	bl	d040 <inet_ntoa@plt>
   2da3c:	e1a02000 	mov	r2, r0
   2da40:	e51b3010 	ldr	r3, [fp, #-16]
   2da44:	e5933000 	ldr	r3, [r3]
   2da48:	e1a00004 	mov	r0, r4
   2da4c:	e30e1988 	movw	r1, #59784	; 0xe988
   2da50:	e3401005 	movt	r1, #5
[31m   2da54:	ebff7ca4 	bl	ccec <printf@plt>[0m
   2da58:	ea000030 	b	2db20 <l2tp_peer_profile_find_by_addr+0x4d4>
   2da5c:	e51b0028 	ldr	r0, [fp, #-40]	; 0xffffffd8
--
   2daa4:	e30737d0 	movw	r3, #30672	; 0x77d0
   2daa8:	e3403007 	movt	r3, #7
   2daac:	e5933000 	ldr	r3, [r3]
   2dab0:	e2033040 	and	r3, r3, #64	; 0x40
   2dab4:	e3530000 	cmp	r3, #0
   2dab8:	0a000018 	beq	2db20 <l2tp_peer_profile_find_by_addr+0x4d4>
   2dabc:	e30737cc 	movw	r3, #30668	; 0x77cc
   2dac0:	e3403007 	movt	r3, #7
   2dac4:	e5933000 	ldr	r3, [r3]
   2dac8:	e3530000 	cmp	r3, #0
   2dacc:	0a00000a 	beq	2dafc <l2tp_peer_profile_find_by_addr+0x4b0>
   2dad0:	e30e47dc 	movw	r4, #59356	; 0xe7dc
   2dad4:	e3404005 	movt	r4, #5
   2dad8:	e51b0028 	ldr	r0, [fp, #-40]	; 0xffffffd8
   2dadc:	ebff7d57 	bl	d040 <inet_ntoa@plt>
   2dae0:	e1a03000 	mov	r3, r0
   2dae4:	e1a00004 	mov	r0, r4
   2dae8:	e30e1988 	movw	r1, #59784	; 0xe988
   2daec:	e3401005 	movt	r1, #5
   2daf0:	e1a02003 	mov	r2, r3
[31m   2daf4:	ebff7c7c 	bl	ccec <printf@plt>[0m
   2daf8:	ea000008 	b	2db20 <l2tp_peer_profile_find_by_addr+0x4d4>
   2dafc:	e51b0028 	ldr	r0, [fp, #-40]	; 0xffffffd8
--
   2e140:	e5933000 	ldr	r3, [r3]
   2e144:	e3530000 	cmp	r3, #0
   2e148:	0a000019 	beq	2e1b4 <l2tp_peer_profile_create_1_svc+0x148>
   2e14c:	e30737d0 	movw	r3, #30672	; 0x77d0
   2e150:	e3403007 	movt	r3, #7
   2e154:	e5933000 	ldr	r3, [r3]
   2e158:	e2033040 	and	r3, r3, #64	; 0x40
   2e15c:	e3530000 	cmp	r3, #0
   2e160:	0a000013 	beq	2e1b4 <l2tp_peer_profile_create_1_svc+0x148>
   2e164:	e30737cc 	movw	r3, #30668	; 0x77cc
   2e168:	e3403007 	movt	r3, #7
   2e16c:	e5933000 	ldr	r3, [r3]
   2e170:	e3530000 	cmp	r3, #0
   2e174:	0a000007 	beq	2e198 <l2tp_peer_profile_create_1_svc+0x12c>
   2e178:	e30e3834 	movw	r3, #59444	; 0xe834
   2e17c:	e3403005 	movt	r3, #5
   2e180:	e51b2008 	ldr	r2, [fp, #-8]
   2e184:	e5922000 	ldr	r2, [r2]
   2e188:	e1a00003 	mov	r0, r3
   2e18c:	e1a01002 	mov	r1, r2
[31m   2e190:	ebff7ad5 	bl	ccec <printf@plt>[0m
   2e194:	ea000006 	b	2e1b4 <l2tp_peer_profile_create_1_svc+0x148>
   2e198:	e51b3008 	ldr	r3, [fp, #-8]
--
   2e2bc:	e5933000 	ldr	r3, [r3]
   2e2c0:	e3530000 	cmp	r3, #0
   2e2c4:	0a000019 	beq	2e330 <l2tp_peer_profile_delete_1_svc+0x120>
   2e2c8:	e30737d0 	movw	r3, #30672	; 0x77d0
   2e2cc:	e3403007 	movt	r3, #7
   2e2d0:	e5933000 	ldr	r3, [r3]
   2e2d4:	e2033040 	and	r3, r3, #64	; 0x40
   2e2d8:	e3530000 	cmp	r3, #0
   2e2dc:	0a000013 	beq	2e330 <l2tp_peer_profile_delete_1_svc+0x120>
   2e2e0:	e30737cc 	movw	r3, #30668	; 0x77cc
   2e2e4:	e3403007 	movt	r3, #7
   2e2e8:	e5933000 	ldr	r3, [r3]
   2e2ec:	e3530000 	cmp	r3, #0
   2e2f0:	0a000007 	beq	2e314 <l2tp_peer_profile_delete_1_svc+0x104>
   2e2f4:	e30e388c 	movw	r3, #59532	; 0xe88c
   2e2f8:	e3403005 	movt	r3, #5
   2e2fc:	e51b2008 	ldr	r2, [fp, #-8]
   2e300:	e5922000 	ldr	r2, [r2]
   2e304:	e1a00003 	mov	r0, r3
   2e308:	e1a01002 	mov	r1, r2
[31m   2e30c:	ebff7a76 	bl	ccec <printf@plt>[0m
   2e310:	ea000006 	b	2e330 <l2tp_peer_profile_delete_1_svc+0x120>
   2e314:	e51b3008 	ldr	r3, [fp, #-8]
--
   2e42c:	e5933000 	ldr	r3, [r3]
   2e430:	e3530000 	cmp	r3, #0
   2e434:	0a000019 	beq	2e4a0 <l2tp_peer_profile_modify_1_svc+0x108>
   2e438:	e30737d0 	movw	r3, #30672	; 0x77d0
   2e43c:	e3403007 	movt	r3, #7
   2e440:	e5933000 	ldr	r3, [r3]
   2e444:	e2033040 	and	r3, r3, #64	; 0x40
   2e448:	e3530000 	cmp	r3, #0
   2e44c:	0a000013 	beq	2e4a0 <l2tp_peer_profile_modify_1_svc+0x108>
   2e450:	e30737cc 	movw	r3, #30668	; 0x77cc
   2e454:	e3403007 	movt	r3, #7
   2e458:	e5933000 	ldr	r3, [r3]
   2e45c:	e3530000 	cmp	r3, #0
   2e460:	0a000007 	beq	2e484 <l2tp_peer_profile_modify_1_svc+0xec>
   2e464:	e30e38dc 	movw	r3, #59612	; 0xe8dc
   2e468:	e3403005 	movt	r3, #5
   2e46c:	e51b2008 	ldr	r2, [fp, #-8]
   2e470:	e5922000 	ldr	r2, [r2]
   2e474:	e1a00003 	mov	r0, r3
   2e478:	e1a01002 	mov	r1, r2
[31m   2e47c:	ebff7a1a 	bl	ccec <printf@plt>[0m
   2e480:	ea000006 	b	2e4a0 <l2tp_peer_profile_modify_1_svc+0x108>
   2e484:	e51b3008 	ldr	r3, [fp, #-8]
--
   2ebb4:	e5933000 	ldr	r3, [r3]
   2ebb8:	e3530000 	cmp	r3, #0
   2ebbc:	0a000019 	beq	2ec28 <l2tp_peer_profile_unset_1_svc+0x228>
   2ebc0:	e30737d0 	movw	r3, #30672	; 0x77d0
   2ebc4:	e3403007 	movt	r3, #7
   2ebc8:	e5933000 	ldr	r3, [r3]
   2ebcc:	e2033040 	and	r3, r3, #64	; 0x40
   2ebd0:	e3530000 	cmp	r3, #0
   2ebd4:	0a000013 	beq	2ec28 <l2tp_peer_profile_unset_1_svc+0x228>
   2ebd8:	e30737cc 	movw	r3, #30668	; 0x77cc
   2ebdc:	e3403007 	movt	r3, #7
   2ebe0:	e5933000 	ldr	r3, [r3]
   2ebe4:	e3530000 	cmp	r3, #0
   2ebe8:	0a000007 	beq	2ec0c <l2tp_peer_profile_unset_1_svc+0x20c>
   2ebec:	e30e3930 	movw	r3, #59696	; 0xe930
   2ebf0:	e3403005 	movt	r3, #5
   2ebf4:	e51b2008 	ldr	r2, [fp, #-8]
   2ebf8:	e5922000 	ldr	r2, [r2]
   2ebfc:	e1a00003 	mov	r0, r3
   2ec00:	e1a01002 	mov	r1, r2
[31m   2ec04:	ebff7838 	bl	ccec <printf@plt>[0m
   2ec08:	ea000006 	b	2ec28 <l2tp_peer_profile_unset_1_svc+0x228>
   2ec0c:	e51b3008 	ldr	r3, [fp, #-8]
--
   2f4e8:	e1a05001 	mov	r5, r1
   2f4ec:	e51b1018 	ldr	r1, [fp, #-24]	; 0xffffffe8
   2f4f0:	e1d110b6 	ldrh	r1, [r1, #6]
   2f4f4:	e1a04001 	mov	r4, r1
   2f4f8:	e51b1018 	ldr	r1, [fp, #-24]	; 0xffffffe8
   2f4fc:	e1d110b8 	ldrh	r1, [r1, #8]
   2f500:	e1a0e001 	mov	lr, r1
   2f504:	e51b1018 	ldr	r1, [fp, #-24]	; 0xffffffe8
   2f508:	e1d110ba 	ldrh	r1, [r1, #10]
   2f50c:	e1a00001 	mov	r0, r1
   2f510:	e15b10be 	ldrh	r1, [fp, #-14]
   2f514:	e58d5000 	str	r5, [sp]
   2f518:	e58d4004 	str	r4, [sp, #4]
   2f51c:	e58de008 	str	lr, [sp, #8]
   2f520:	e58d000c 	str	r0, [sp, #12]
   2f524:	e58d1010 	str	r1, [sp, #16]
   2f528:	e1a00003 	mov	r0, r3
   2f52c:	e3001460 	movw	r1, #1120	; 0x460
   2f530:	e3401006 	movt	r1, #6
   2f534:	e1a0300c 	mov	r3, ip
[31m   2f538:	ebff75eb 	bl	ccec <printf@plt>[0m
   2f53c:	ea00001b 	b	2f5b0 <l2tp_xprt_is_tx_window_open+0x184>
   2f540:	e51b3018 	ldr	r3, [fp, #-24]	; 0xffffffe8
--
   2f658:	e3530000 	cmp	r3, #0
   2f65c:	0a00001b 	beq	2f6d0 <l2tp_xprt_tx_window_ack+0x94>
   2f660:	e30737d0 	movw	r3, #30672	; 0x77d0
   2f664:	e3403007 	movt	r3, #7
   2f668:	e5933000 	ldr	r3, [r3]
   2f66c:	e2033080 	and	r3, r3, #128	; 0x80
   2f670:	e3530000 	cmp	r3, #0
   2f674:	0a000015 	beq	2f6d0 <l2tp_xprt_tx_window_ack+0x94>
   2f678:	e30737cc 	movw	r3, #30668	; 0x77cc
   2f67c:	e3403007 	movt	r3, #7
   2f680:	e5933000 	ldr	r3, [r3]
   2f684:	e3530000 	cmp	r3, #0
   2f688:	0a000008 	beq	2f6b0 <l2tp_xprt_tx_window_ack+0x74>
   2f68c:	e30e3ac4 	movw	r3, #60100	; 0xeac4
   2f690:	e3403005 	movt	r3, #5
   2f694:	e51b2008 	ldr	r2, [fp, #-8]
   2f698:	e1d220b0 	ldrh	r2, [r2]
   2f69c:	e1a00003 	mov	r0, r3
   2f6a0:	e3001448 	movw	r1, #1096	; 0x448
   2f6a4:	e3401006 	movt	r1, #6
[31m   2f6a8:	ebff758f 	bl	ccec <printf@plt>[0m
   2f6ac:	ea000007 	b	2f6d0 <l2tp_xprt_tx_window_ack+0x94>
   2f6b0:	e51b3008 	ldr	r3, [fp, #-8]
--
   2f720:	e3530000 	cmp	r3, #0
   2f724:	0a000013 	beq	2f778 <l2tp_xprt_tx_window_ack+0x13c>
   2f728:	e30e3af0 	movw	r3, #60144	; 0xeaf0
   2f72c:	e3403005 	movt	r3, #5
   2f730:	e51b2008 	ldr	r2, [fp, #-8]
   2f734:	e1d220b0 	ldrh	r2, [r2]
   2f738:	e51b1008 	ldr	r1, [fp, #-8]
   2f73c:	e1d118b8 	ldrh	r1, [r1, #136]	; 0x88
   2f740:	e1a0c001 	mov	ip, r1
   2f744:	e51b1008 	ldr	r1, [fp, #-8]
   2f748:	e1d118ba 	ldrh	r1, [r1, #138]	; 0x8a
   2f74c:	e1a00001 	mov	r0, r1
   2f750:	e51b1008 	ldr	r1, [fp, #-8]
   2f754:	e1d118bc 	ldrh	r1, [r1, #140]	; 0x8c
   2f758:	e58d0000 	str	r0, [sp]
   2f75c:	e58d1004 	str	r1, [sp, #4]
   2f760:	e1a00003 	mov	r0, r3
   2f764:	e3001448 	movw	r1, #1096	; 0x448
   2f768:	e3401006 	movt	r1, #6
   2f76c:	e1a0300c 	mov	r3, ip
[31m   2f770:	ebff755d 	bl	ccec <printf@plt>[0m
   2f774:	ea000012 	b	2f7c4 <l2tp_xprt_tx_window_ack+0x188>
   2f778:	e51b3008 	ldr	r3, [fp, #-8]
--
   2f83c:	0a000023 	beq	2f8d0 <l2tp_xprt_tx_window_ack+0x294>
   2f840:	e30737cc 	movw	r3, #30668	; 0x77cc
   2f844:	e3403007 	movt	r3, #7
   2f848:	e5933000 	ldr	r3, [r3]
   2f84c:	e3530000 	cmp	r3, #0
   2f850:	0a00000f 	beq	2f894 <l2tp_xprt_tx_window_ack+0x258>
   2f854:	e30e3b6c 	movw	r3, #60268	; 0xeb6c
   2f858:	e3403005 	movt	r3, #5
   2f85c:	e51b2008 	ldr	r2, [fp, #-8]
   2f860:	e1d220b0 	ldrh	r2, [r2]
   2f864:	e51b1008 	ldr	r1, [fp, #-8]
   2f868:	e1d118b8 	ldrh	r1, [r1, #136]	; 0x88
   2f86c:	e1a0c001 	mov	ip, r1
   2f870:	e51b1008 	ldr	r1, [fp, #-8]
   2f874:	e1d118bc 	ldrh	r1, [r1, #140]	; 0x8c
   2f878:	e58d1000 	str	r1, [sp]
   2f87c:	e1a00003 	mov	r0, r3
   2f880:	e3001448 	movw	r1, #1096	; 0x448
   2f884:	e3401006 	movt	r1, #6
   2f888:	e1a0300c 	mov	r3, ip
[31m   2f88c:	ebff7516 	bl	ccec <printf@plt>[0m
   2f890:	ea00000e 	b	2f8d0 <l2tp_xprt_tx_window_ack+0x294>
   2f894:	e51b3008 	ldr	r3, [fp, #-8]
--
   2f98c:	0a000023 	beq	2fa20 <l2tp_xprt_tx_window_retransmit_ind+0xcc>
   2f990:	e30737cc 	movw	r3, #30668	; 0x77cc
   2f994:	e3403007 	movt	r3, #7
   2f998:	e5933000 	ldr	r3, [r3]
   2f99c:	e3530000 	cmp	r3, #0
   2f9a0:	0a00000f 	beq	2f9e4 <l2tp_xprt_tx_window_retransmit_ind+0x90>
   2f9a4:	e30e3bcc 	movw	r3, #60364	; 0xebcc
   2f9a8:	e3403005 	movt	r3, #5
   2f9ac:	e51b2008 	ldr	r2, [fp, #-8]
   2f9b0:	e1d220b0 	ldrh	r2, [r2]
   2f9b4:	e51b1008 	ldr	r1, [fp, #-8]
   2f9b8:	e1d118b8 	ldrh	r1, [r1, #136]	; 0x88
   2f9bc:	e1a0c001 	mov	ip, r1
   2f9c0:	e51b1008 	ldr	r1, [fp, #-8]
   2f9c4:	e1d118ba 	ldrh	r1, [r1, #138]	; 0x8a
   2f9c8:	e58d1000 	str	r1, [sp]
   2f9cc:	e1a00003 	mov	r0, r3
   2f9d0:	e3001424 	movw	r1, #1060	; 0x424
   2f9d4:	e3401006 	movt	r1, #6
   2f9d8:	e1a0300c 	mov	r3, ip
[31m   2f9dc:	ebff74c2 	bl	ccec <printf@plt>[0m
   2f9e0:	ea00000e 	b	2fa20 <l2tp_xprt_tx_window_retransmit_ind+0xcc>
   2f9e4:	e51b3008 	ldr	r3, [fp, #-8]
--
   2fadc:	0a000023 	beq	2fb70 <l2tp_xprt_is_less_than_equal+0xf4>
   2fae0:	e30737cc 	movw	r3, #30668	; 0x77cc
   2fae4:	e3403007 	movt	r3, #7
   2fae8:	e5933000 	ldr	r3, [r3]
   2faec:	e3530000 	cmp	r3, #0
   2faf0:	0a00000f 	beq	2fb34 <l2tp_xprt_is_less_than_equal+0xb8>
   2faf4:	e30e4c24 	movw	r4, #60452	; 0xec24
   2faf8:	e3404005 	movt	r4, #5
   2fafc:	e51b3018 	ldr	r3, [fp, #-24]	; 0xffffffe8
   2fb00:	e59330b8 	ldr	r3, [r3, #184]	; 0xb8
   2fb04:	e1a00003 	mov	r0, r3
   2fb08:	ebffbeb3 	bl	1f5dc <l2tp_tunnel_id>
   2fb0c:	e1a03000 	mov	r3, r0
   2fb10:	e1a02003 	mov	r2, r3
   2fb14:	e15b31ba 	ldrh	r3, [fp, #-26]	; 0xffffffe6
   2fb18:	e15b11bc 	ldrh	r1, [fp, #-28]	; 0xffffffe4
   2fb1c:	e58d1000 	str	r1, [sp]
   2fb20:	e1a00004 	mov	r0, r4
   2fb24:	e300137c 	movw	r1, #892	; 0x37c
   2fb28:	e3401006 	movt	r1, #6
[31m   2fb2c:	ebff746e 	bl	ccec <printf@plt>[0m
   2fb30:	ea00000e 	b	2fb70 <l2tp_xprt_is_less_than_equal+0xf4>
   2fb34:	e51b3018 	ldr	r3, [fp, #-24]	; 0xffffffe8
--
   2fc24:	0a000023 	beq	2fcb8 <l2tp_xprt_rxq_dequeue+0xd0>
   2fc28:	e30737cc 	movw	r3, #30668	; 0x77cc
   2fc2c:	e3403007 	movt	r3, #7
   2fc30:	e5933000 	ldr	r3, [r3]
   2fc34:	e3530000 	cmp	r3, #0
   2fc38:	0a00000f 	beq	2fc7c <l2tp_xprt_rxq_dequeue+0x94>
   2fc3c:	e30e3c6c 	movw	r3, #60524	; 0xec6c
   2fc40:	e3403005 	movt	r3, #5
   2fc44:	e51b2008 	ldr	r2, [fp, #-8]
   2fc48:	e1d220b0 	ldrh	r2, [r2]
   2fc4c:	e51b100c 	ldr	r1, [fp, #-12]
   2fc50:	e1d110b8 	ldrh	r1, [r1, #8]
   2fc54:	e1a0c001 	mov	ip, r1
   2fc58:	e51b1008 	ldr	r1, [fp, #-8]
   2fc5c:	e1d11ab8 	ldrh	r1, [r1, #168]	; 0xa8
   2fc60:	e58d1000 	str	r1, [sp]
   2fc64:	e1a00003 	mov	r0, r3
   2fc68:	e300140c 	movw	r1, #1036	; 0x40c
   2fc6c:	e3401006 	movt	r1, #6
   2fc70:	e1a0300c 	mov	r3, ip
[31m   2fc74:	ebff741c 	bl	ccec <printf@plt>[0m
   2fc78:	ea00000e 	b	2fcb8 <l2tp_xprt_rxq_dequeue+0xd0>
   2fc7c:	e51b3008 	ldr	r3, [fp, #-8]
--
   2fd28:	e5933000 	ldr	r3, [r3]
   2fd2c:	e2033080 	and	r3, r3, #128	; 0x80
   2fd30:	e3530000 	cmp	r3, #0
   2fd34:	0a00001c 	beq	2fdac <l2tp_xprt_rxq_dequeue+0x1c4>
   2fd38:	e30737cc 	movw	r3, #30668	; 0x77cc
   2fd3c:	e3403007 	movt	r3, #7
   2fd40:	e5933000 	ldr	r3, [r3]
   2fd44:	e3530000 	cmp	r3, #0
   2fd48:	0a00000c 	beq	2fd80 <l2tp_xprt_rxq_dequeue+0x198>
   2fd4c:	e30e3cc4 	movw	r3, #60612	; 0xecc4
   2fd50:	e3403005 	movt	r3, #5
   2fd54:	e51b2008 	ldr	r2, [fp, #-8]
   2fd58:	e1d220b0 	ldrh	r2, [r2]
   2fd5c:	e51b1008 	ldr	r1, [fp, #-8]
   2fd60:	e1d11aba 	ldrh	r1, [r1, #170]	; 0xaa
   2fd64:	e1a0c001 	mov	ip, r1
   2fd68:	e1a00003 	mov	r0, r3
   2fd6c:	e300140c 	movw	r1, #1036	; 0x40c
   2fd70:	e3401006 	movt	r1, #6
   2fd74:	e1a0300c 	mov	r3, ip
[31m   2fd78:	ebff73db 	bl	ccec <printf@plt>[0m
   2fd7c:	ea00000a 	b	2fdac <l2tp_xprt_rxq_dequeue+0x1c4>
   2fd80:	e51b3008 	ldr	r3, [fp, #-8]
--
   2fe04:	e30737cc 	movw	r3, #30668	; 0x77cc
   2fe08:	e3403007 	movt	r3, #7
   2fe0c:	e5933000 	ldr	r3, [r3]
   2fe10:	e3530000 	cmp	r3, #0
   2fe14:	0a000010 	beq	2fe5c <l2tp_xprt_rxq_dequeue+0x274>
   2fe18:	e30e3d30 	movw	r3, #60720	; 0xed30
   2fe1c:	e3403005 	movt	r3, #5
   2fe20:	e51b2008 	ldr	r2, [fp, #-8]
   2fe24:	e1d220b0 	ldrh	r2, [r2]
   2fe28:	e51b1008 	ldr	r1, [fp, #-8]
   2fe2c:	e1d11ab8 	ldrh	r1, [r1, #168]	; 0xa8
   2fe30:	e1a0c001 	mov	ip, r1
   2fe34:	e51b100c 	ldr	r1, [fp, #-12]
   2fe38:	e1d110b8 	ldrh	r1, [r1, #8]
   2fe3c:	e2811001 	add	r1, r1, #1
   2fe40:	e58d1000 	str	r1, [sp]
   2fe44:	e1a00003 	mov	r0, r3
   2fe48:	e300140c 	movw	r1, #1036	; 0x40c
   2fe4c:	e3401006 	movt	r1, #6
   2fe50:	e1a0300c 	mov	r3, ip
[31m   2fe54:	ebff73a4 	bl	ccec <printf@plt>[0m
   2fe58:	ea00000f 	b	2fe9c <l2tp_xprt_rxq_dequeue+0x2b4>
   2fe5c:	e51b3008 	ldr	r3, [fp, #-8]
--
   2fedc:	e3530000 	cmp	r3, #0
   2fee0:	0a00001b 	beq	2ff54 <l2tp_xprt_deliver_up+0x98>
   2fee4:	e30737d0 	movw	r3, #30672	; 0x77d0
   2fee8:	e3403007 	movt	r3, #7
   2feec:	e5933000 	ldr	r3, [r3]
   2fef0:	e2033080 	and	r3, r3, #128	; 0x80
   2fef4:	e3530000 	cmp	r3, #0
   2fef8:	0a000015 	beq	2ff54 <l2tp_xprt_deliver_up+0x98>
   2fefc:	e30737cc 	movw	r3, #30668	; 0x77cc
   2ff00:	e3403007 	movt	r3, #7
   2ff04:	e5933000 	ldr	r3, [r3]
   2ff08:	e3530000 	cmp	r3, #0
   2ff0c:	0a000008 	beq	2ff34 <l2tp_xprt_deliver_up+0x78>
   2ff10:	e30e3ac4 	movw	r3, #60100	; 0xeac4
   2ff14:	e3403005 	movt	r3, #5
   2ff18:	e51b2020 	ldr	r2, [fp, #-32]	; 0xffffffe0
   2ff1c:	e1d220b0 	ldrh	r2, [r2]
   2ff20:	e1a00003 	mov	r0, r3
   2ff24:	e30013f4 	movw	r1, #1012	; 0x3f4
   2ff28:	e3401006 	movt	r1, #6
[31m   2ff2c:	ebff736e 	bl	ccec <printf@plt>[0m
   2ff30:	ea000007 	b	2ff54 <l2tp_xprt_deliver_up+0x98>
   2ff34:	e51b3020 	ldr	r3, [fp, #-32]	; 0xffffffe0
--
   2ff7c:	e30737d0 	movw	r3, #30672	; 0x77d0
   2ff80:	e3403007 	movt	r3, #7
   2ff84:	e5933000 	ldr	r3, [r3]
   2ff88:	e2033080 	and	r3, r3, #128	; 0x80
   2ff8c:	e3530000 	cmp	r3, #0
   2ff90:	0a000078 	beq	30178 <l2tp_xprt_deliver_up+0x2bc>
   2ff94:	e30737cc 	movw	r3, #30668	; 0x77cc
   2ff98:	e3403007 	movt	r3, #7
   2ff9c:	e5933000 	ldr	r3, [r3]
   2ffa0:	e3530000 	cmp	r3, #0
   2ffa4:	0a00000a 	beq	2ffd4 <l2tp_xprt_deliver_up+0x118>
   2ffa8:	e30e3d9c 	movw	r3, #60828	; 0xed9c
   2ffac:	e3403005 	movt	r3, #5
   2ffb0:	e51b2020 	ldr	r2, [fp, #-32]	; 0xffffffe0
   2ffb4:	e1d220b0 	ldrh	r2, [r2]
   2ffb8:	e1a01002 	mov	r1, r2
   2ffbc:	e51b2024 	ldr	r2, [fp, #-36]	; 0xffffffdc
   2ffc0:	e592201c 	ldr	r2, [r2, #28]
   2ffc4:	e1a00003 	mov	r0, r3
   2ffc8:	e51b3020 	ldr	r3, [fp, #-32]	; 0xffffffe0
[31m   2ffcc:	ebff7346 	bl	ccec <printf@plt>[0m
   2ffd0:	ea000069 	b	3017c <l2tp_xprt_deliver_up+0x2c0>
   2ffd4:	e51b3020 	ldr	r3, [fp, #-32]	; 0xffffffe0
--
   301f0:	e3530000 	cmp	r3, #0
   301f4:	0a000013 	beq	30248 <l2tp_xprt_deliver_to_protocol+0xbc>
   301f8:	e30e3e88 	movw	r3, #61064	; 0xee88
   301fc:	e3403005 	movt	r3, #5
   30200:	e51b2020 	ldr	r2, [fp, #-32]	; 0xffffffe0
   30204:	e1d220b0 	ldrh	r2, [r2]
   30208:	e51b1024 	ldr	r1, [fp, #-36]	; 0xffffffdc
   3020c:	e1d110b8 	ldrh	r1, [r1, #8]
   30210:	e1a0c001 	mov	ip, r1
   30214:	e51b1020 	ldr	r1, [fp, #-32]	; 0xffffffe0
   30218:	e1d11ab8 	ldrh	r1, [r1, #168]	; 0xa8
   3021c:	e1a00001 	mov	r0, r1
   30220:	e51b1024 	ldr	r1, [fp, #-36]	; 0xffffffdc
   30224:	e5911018 	ldr	r1, [r1, #24]
   30228:	e58d0000 	str	r0, [sp]
   3022c:	e58d1004 	str	r1, [sp, #4]
   30230:	e1a00003 	mov	r0, r3
   30234:	e30013d4 	movw	r1, #980	; 0x3d4
   30238:	e3401006 	movt	r1, #6
   3023c:	e1a0300c 	mov	r3, ip
[31m   30240:	ebff72a9 	bl	ccec <printf@plt>[0m
   30244:	ea000012 	b	30294 <l2tp_xprt_deliver_to_protocol+0x108>
   30248:	e51b3020 	ldr	r3, [fp, #-32]	; 0xffffffe0
--
   302fc:	0a000023 	beq	30390 <l2tp_xprt_deliver_to_protocol+0x204>
   30300:	e30737cc 	movw	r3, #30668	; 0x77cc
   30304:	e3403007 	movt	r3, #7
   30308:	e5933000 	ldr	r3, [r3]
   3030c:	e3530000 	cmp	r3, #0
   30310:	0a00000f 	beq	30354 <l2tp_xprt_deliver_to_protocol+0x1c8>
   30314:	e30e3ef8 	movw	r3, #61176	; 0xeef8
   30318:	e3403005 	movt	r3, #5
   3031c:	e51b2020 	ldr	r2, [fp, #-32]	; 0xffffffe0
   30320:	e1d220b0 	ldrh	r2, [r2]
   30324:	e51b1024 	ldr	r1, [fp, #-36]	; 0xffffffdc
   30328:	e1d110b8 	ldrh	r1, [r1, #8]
   3032c:	e1a0c001 	mov	ip, r1
   30330:	e51b1018 	ldr	r1, [fp, #-24]	; 0xffffffe8
   30334:	e1d110b8 	ldrh	r1, [r1, #8]
   30338:	e58d1000 	str	r1, [sp]
   3033c:	e1a00003 	mov	r0, r3
   30340:	e30013d4 	movw	r1, #980	; 0x3d4
   30344:	e3401006 	movt	r1, #6
   30348:	e1a0300c 	mov	r3, ip
[31m   3034c:	ebff7266 	bl	ccec <printf@plt>[0m
   30350:	ea00000e 	b	30390 <l2tp_xprt_deliver_to_protocol+0x204>
   30354:	e51b3020 	ldr	r3, [fp, #-32]	; 0xffffffe0
--
   3044c:	e5933000 	ldr	r3, [r3]
   30450:	e2033080 	and	r3, r3, #128	; 0x80
   30454:	e3530000 	cmp	r3, #0
   30458:	0a00001c 	beq	304d0 <l2tp_xprt_deliver_to_protocol+0x344>
   3045c:	e30737cc 	movw	r3, #30668	; 0x77cc
   30460:	e3403007 	movt	r3, #7
   30464:	e5933000 	ldr	r3, [r3]
   30468:	e3530000 	cmp	r3, #0
   3046c:	0a00000c 	beq	304a4 <l2tp_xprt_deliver_to_protocol+0x318>
   30470:	e30e3f60 	movw	r3, #61280	; 0xef60
   30474:	e3403005 	movt	r3, #5
   30478:	e51b2020 	ldr	r2, [fp, #-32]	; 0xffffffe0
   3047c:	e1d220b0 	ldrh	r2, [r2]
   30480:	e51b1018 	ldr	r1, [fp, #-24]	; 0xffffffe8
   30484:	e1d110b8 	ldrh	r1, [r1, #8]
   30488:	e1a0c001 	mov	ip, r1
   3048c:	e1a00003 	mov	r0, r3
   30490:	e30013d4 	movw	r1, #980	; 0x3d4
   30494:	e3401006 	movt	r1, #6
   30498:	e1a0300c 	mov	r3, ip
[31m   3049c:	ebff7212 	bl	ccec <printf@plt>[0m
   304a0:	ea00000a 	b	304d0 <l2tp_xprt_deliver_to_protocol+0x344>
   304a4:	e51b3020 	ldr	r3, [fp, #-32]	; 0xffffffe0
--
   30690:	0a00002c 	beq	30748 <l2tp_xprt_rxq_dequeue_poll+0x160>
   30694:	e30737cc 	movw	r3, #30668	; 0x77cc
   30698:	e3403007 	movt	r3, #7
   3069c:	e5933000 	ldr	r3, [r3]
   306a0:	e3530000 	cmp	r3, #0
   306a4:	0a00000f 	beq	306e8 <l2tp_xprt_rxq_dequeue_poll+0x100>
   306a8:	e30f300c 	movw	r3, #61452	; 0xf00c
   306ac:	e3403005 	movt	r3, #5
   306b0:	e51b2018 	ldr	r2, [fp, #-24]	; 0xffffffe8
   306b4:	e1d220b0 	ldrh	r2, [r2]
   306b8:	e51b1010 	ldr	r1, [fp, #-16]
   306bc:	e1d110b8 	ldrh	r1, [r1, #8]
   306c0:	e1a0c001 	mov	ip, r1
   306c4:	e51b1018 	ldr	r1, [fp, #-24]	; 0xffffffe8
   306c8:	e1d11ab8 	ldrh	r1, [r1, #168]	; 0xa8
   306cc:	e58d1000 	str	r1, [sp]
   306d0:	e1a00003 	mov	r0, r3
   306d4:	e30013b8 	movw	r1, #952	; 0x3b8
   306d8:	e3401006 	movt	r1, #6
   306dc:	e1a0300c 	mov	r3, ip
[31m   306e0:	ebff7181 	bl	ccec <printf@plt>[0m
   306e4:	ea000018 	b	3074c <l2tp_xprt_rxq_dequeue_poll+0x164>
   306e8:	e51b3018 	ldr	r3, [fp, #-24]	; 0xffffffe8
--
   30864:	e5933000 	ldr	r3, [r3]
   30868:	e2033080 	and	r3, r3, #128	; 0x80
   3086c:	e3530000 	cmp	r3, #0
   30870:	0a00001c 	beq	308e8 <l2tp_xprt_rxq_dequeue_poll+0x300>
   30874:	e30737cc 	movw	r3, #30668	; 0x77cc
   30878:	e3403007 	movt	r3, #7
   3087c:	e5933000 	ldr	r3, [r3]
   30880:	e3530000 	cmp	r3, #0
   30884:	0a00000c 	beq	308bc <l2tp_xprt_rxq_dequeue_poll+0x2d4>
   30888:	e30f30b8 	movw	r3, #61624	; 0xf0b8
   3088c:	e3403005 	movt	r3, #5
   30890:	e51b2018 	ldr	r2, [fp, #-24]	; 0xffffffe8
   30894:	e1d220b0 	ldrh	r2, [r2]
   30898:	e51b1018 	ldr	r1, [fp, #-24]	; 0xffffffe8
   3089c:	e1d11ab8 	ldrh	r1, [r1, #168]	; 0xa8
   308a0:	e1a0c001 	mov	ip, r1
   308a4:	e1a00003 	mov	r0, r3
   308a8:	e30013b8 	movw	r1, #952	; 0x3b8
   308ac:	e3401006 	movt	r1, #6
   308b0:	e1a0300c 	mov	r3, ip
[31m   308b4:	ebff710c 	bl	ccec <printf@plt>[0m
   308b8:	ea00000a 	b	308e8 <l2tp_xprt_rxq_dequeue_poll+0x300>
   308bc:	e51b3018 	ldr	r3, [fp, #-24]	; 0xffffffe8
--
   30940:	e30737cc 	movw	r3, #30668	; 0x77cc
   30944:	e3403007 	movt	r3, #7
   30948:	e5933000 	ldr	r3, [r3]
   3094c:	e3530000 	cmp	r3, #0
   30950:	0a000010 	beq	30998 <l2tp_xprt_rxq_dequeue_poll+0x3b0>
   30954:	e30e3d30 	movw	r3, #60720	; 0xed30
   30958:	e3403005 	movt	r3, #5
   3095c:	e51b2018 	ldr	r2, [fp, #-24]	; 0xffffffe8
   30960:	e1d220b0 	ldrh	r2, [r2]
   30964:	e51b1018 	ldr	r1, [fp, #-24]	; 0xffffffe8
   30968:	e1d11ab8 	ldrh	r1, [r1, #168]	; 0xa8
   3096c:	e1a0c001 	mov	ip, r1
   30970:	e51b1018 	ldr	r1, [fp, #-24]	; 0xffffffe8
   30974:	e1d11aba 	ldrh	r1, [r1, #170]	; 0xaa
   30978:	e2811001 	add	r1, r1, #1
   3097c:	e58d1000 	str	r1, [sp]
   30980:	e1a00003 	mov	r0, r3
   30984:	e30013b8 	movw	r1, #952	; 0x3b8
   30988:	e3401006 	movt	r1, #6
   3098c:	e1a0300c 	mov	r3, ip
[31m   30990:	ebff70d5 	bl	ccec <printf@plt>[0m
   30994:	ea00000f 	b	309d8 <l2tp_xprt_rxq_dequeue_poll+0x3f0>
   30998:	e51b3018 	ldr	r3, [fp, #-24]	; 0xffffffe8
--
   30a30:	e30737d0 	movw	r3, #30672	; 0x77d0
   30a34:	e3403007 	movt	r3, #7
   30a38:	e5933000 	ldr	r3, [r3]
   30a3c:	e2033080 	and	r3, r3, #128	; 0x80
   30a40:	e3530000 	cmp	r3, #0
   30a44:	0a000019 	beq	30ab0 <l2tp_xprt_flush_ack_list+0xac>
   30a48:	e30737cc 	movw	r3, #30668	; 0x77cc
   30a4c:	e3403007 	movt	r3, #7
   30a50:	e5933000 	ldr	r3, [r3]
   30a54:	e3530000 	cmp	r3, #0
   30a58:	0a00000a 	beq	30a88 <l2tp_xprt_flush_ack_list+0x84>
   30a5c:	e30f3120 	movw	r3, #61728	; 0xf120
   30a60:	e3403005 	movt	r3, #5
   30a64:	e51b2010 	ldr	r2, [fp, #-16]
   30a68:	e1d220b0 	ldrh	r2, [r2]
   30a6c:	e15bc1b2 	ldrh	ip, [fp, #-18]	; 0xffffffee
   30a70:	e1a00003 	mov	r0, r3
   30a74:	e300139c 	movw	r1, #924	; 0x39c
   30a78:	e3401006 	movt	r1, #6
   30a7c:	e1a0300c 	mov	r3, ip
[31m   30a80:	ebff7099 	bl	ccec <printf@plt>[0m
   30a84:	ea000009 	b	30ab0 <l2tp_xprt_flush_ack_list+0xac>
   30a88:	e51b3010 	ldr	r3, [fp, #-16]
--
   30af8:	0a000023 	beq	30b8c <l2tp_xprt_flush_ack_list+0x188>
   30afc:	e30737cc 	movw	r3, #30668	; 0x77cc
   30b00:	e3403007 	movt	r3, #7
   30b04:	e5933000 	ldr	r3, [r3]
   30b08:	e3530000 	cmp	r3, #0
   30b0c:	0a00000f 	beq	30b50 <l2tp_xprt_flush_ack_list+0x14c>
   30b10:	e30f315c 	movw	r3, #61788	; 0xf15c
   30b14:	e3403005 	movt	r3, #5
   30b18:	e51b2010 	ldr	r2, [fp, #-16]
   30b1c:	e1d220b0 	ldrh	r2, [r2]
   30b20:	e51b1008 	ldr	r1, [fp, #-8]
   30b24:	e1d110b8 	ldrh	r1, [r1, #8]
   30b28:	e1a0c001 	mov	ip, r1
   30b2c:	e51b1008 	ldr	r1, [fp, #-8]
   30b30:	e1d110ba 	ldrh	r1, [r1, #10]
   30b34:	e58d1000 	str	r1, [sp]
   30b38:	e1a00003 	mov	r0, r3
   30b3c:	e300139c 	movw	r1, #924	; 0x39c
   30b40:	e3401006 	movt	r1, #6
   30b44:	e1a0300c 	mov	r3, ip
[31m   30b48:	ebff7067 	bl	ccec <printf@plt>[0m
   30b4c:	ea00000e 	b	30b8c <l2tp_xprt_flush_ack_list+0x188>
   30b50:	e51b3010 	ldr	r3, [fp, #-16]
--
   30cc8:	e3530000 	cmp	r3, #0
   30ccc:	0a000021 	beq	30d58 <l2tp_xprt_recv+0xd4>
   30cd0:	e30737cc 	movw	r3, #30668	; 0x77cc
   30cd4:	e3403007 	movt	r3, #7
   30cd8:	e5933000 	ldr	r3, [r3]
   30cdc:	e3530000 	cmp	r3, #0
   30ce0:	0a00000e 	beq	30d20 <l2tp_xprt_recv+0x9c>
   30ce4:	e30f41fc 	movw	r4, #61948	; 0xf1fc
   30ce8:	e3404005 	movt	r4, #5
   30cec:	e51b3018 	ldr	r3, [fp, #-24]	; 0xffffffe8
   30cf0:	e59330b8 	ldr	r3, [r3, #184]	; 0xb8
   30cf4:	e1a00003 	mov	r0, r3
   30cf8:	ebffba37 	bl	1f5dc <l2tp_tunnel_id>
   30cfc:	e1a03000 	mov	r3, r0
   30d00:	e1a02003 	mov	r2, r3
   30d04:	e51b301c 	ldr	r3, [fp, #-28]	; 0xffffffe4
   30d08:	e1d330b6 	ldrh	r3, [r3, #6]
   30d0c:	e1a00004 	mov	r0, r4
   30d10:	e300136c 	movw	r1, #876	; 0x36c
   30d14:	e3401006 	movt	r1, #6
[31m   30d18:	ebff6ff3 	bl	ccec <printf@plt>[0m
   30d1c:	ea00000d 	b	30d58 <l2tp_xprt_recv+0xd4>
   30d20:	e51b3018 	ldr	r3, [fp, #-24]	; 0xffffffe8
--
   31110:	e3530000 	cmp	r3, #0
   31114:	0a00001b 	beq	31188 <l2tp_xprt_recv+0x504>
   31118:	e30737d0 	movw	r3, #30672	; 0x77d0
   3111c:	e3403007 	movt	r3, #7
   31120:	e5933000 	ldr	r3, [r3]
   31124:	e2033080 	and	r3, r3, #128	; 0x80
   31128:	e3530000 	cmp	r3, #0
   3112c:	0a000015 	beq	31188 <l2tp_xprt_recv+0x504>
   31130:	e30737cc 	movw	r3, #30668	; 0x77cc
   31134:	e3403007 	movt	r3, #7
   31138:	e5933000 	ldr	r3, [r3]
   3113c:	e3530000 	cmp	r3, #0
   31140:	0a000008 	beq	31168 <l2tp_xprt_recv+0x4e4>
   31144:	e30f3324 	movw	r3, #62244	; 0xf324
   31148:	e3403005 	movt	r3, #5
   3114c:	e51b2018 	ldr	r2, [fp, #-24]	; 0xffffffe8
   31150:	e1d220b0 	ldrh	r2, [r2]
   31154:	e1a00003 	mov	r0, r3
   31158:	e300136c 	movw	r1, #876	; 0x36c
   3115c:	e3401006 	movt	r1, #6
[31m   31160:	ebff6ee1 	bl	ccec <printf@plt>[0m
   31164:	ea000007 	b	31188 <l2tp_xprt_recv+0x504>
   31168:	e51b3018 	ldr	r3, [fp, #-24]	; 0xffffffe8
--
   31228:	e3403005 	movt	r3, #5
   3122c:	e51b2010 	ldr	r2, [fp, #-16]
   31230:	e1d220b0 	ldrh	r2, [r2]
   31234:	e51b1010 	ldr	r1, [fp, #-16]
   31238:	e5d1108e 	ldrb	r1, [r1, #142]	; 0x8e
   3123c:	e2011010 	and	r1, r1, #16
   31240:	e6ef1071 	uxtb	r1, r1
   31244:	e3510000 	cmp	r1, #0
   31248:	03a0c000 	moveq	ip, #0
   3124c:	13a0c001 	movne	ip, #1
   31250:	e51b1010 	ldr	r1, [fp, #-16]
   31254:	e5910084 	ldr	r0, [r1, #132]	; 0x84
   31258:	e51b1010 	ldr	r1, [fp, #-16]
   3125c:	e5911078 	ldr	r1, [r1, #120]	; 0x78
   31260:	e58d0000 	str	r0, [sp]
   31264:	e58d1004 	str	r1, [sp, #4]
   31268:	e1a00003 	mov	r0, r3
   3126c:	e3001354 	movw	r1, #852	; 0x354
   31270:	e3401006 	movt	r1, #6
   31274:	e1a0300c 	mov	r3, ip
[31m   31278:	ebff6e9b 	bl	ccec <printf@plt>[0m
   3127c:	ea000015 	b	312d8 <l2tp_xprt_retry_timeout+0x10c>
   31280:	e51b3010 	ldr	r3, [fp, #-16]
--
   31304:	e3530000 	cmp	r3, #0
   31308:	0a00001b 	beq	3137c <l2tp_xprt_retry_timeout+0x1b0>
   3130c:	e30737d0 	movw	r3, #30672	; 0x77d0
   31310:	e3403007 	movt	r3, #7
   31314:	e5933000 	ldr	r3, [r3]
   31318:	e2033080 	and	r3, r3, #128	; 0x80
   3131c:	e3530000 	cmp	r3, #0
   31320:	0a000015 	beq	3137c <l2tp_xprt_retry_timeout+0x1b0>
   31324:	e30737cc 	movw	r3, #30668	; 0x77cc
   31328:	e3403007 	movt	r3, #7
   3132c:	e5933000 	ldr	r3, [r3]
   31330:	e3530000 	cmp	r3, #0
   31334:	0a000008 	beq	3135c <l2tp_xprt_retry_timeout+0x190>
   31338:	e30f33e4 	movw	r3, #62436	; 0xf3e4
   3133c:	e3403005 	movt	r3, #5
   31340:	e51b2010 	ldr	r2, [fp, #-16]
   31344:	e1d220b0 	ldrh	r2, [r2]
   31348:	e1a00003 	mov	r0, r3
   3134c:	e3001354 	movw	r1, #852	; 0x354
   31350:	e3401006 	movt	r1, #6
[31m   31354:	ebff6e64 	bl	ccec <printf@plt>[0m
   31358:	ea000007 	b	3137c <l2tp_xprt_retry_timeout+0x1b0>
   3135c:	e51b3010 	ldr	r3, [fp, #-16]
--
   313a4:	e3530000 	cmp	r3, #0
   313a8:	0a00001b 	beq	3141c <l2tp_xprt_retry_timeout+0x250>
   313ac:	e30737d0 	movw	r3, #30672	; 0x77d0
   313b0:	e3403007 	movt	r3, #7
   313b4:	e5933000 	ldr	r3, [r3]
   313b8:	e2033080 	and	r3, r3, #128	; 0x80
   313bc:	e3530000 	cmp	r3, #0
   313c0:	0a000015 	beq	3141c <l2tp_xprt_retry_timeout+0x250>
   313c4:	e30737cc 	movw	r3, #30668	; 0x77cc
   313c8:	e3403007 	movt	r3, #7
   313cc:	e5933000 	ldr	r3, [r3]
   313d0:	e3530000 	cmp	r3, #0
   313d4:	0a000008 	beq	313fc <l2tp_xprt_retry_timeout+0x230>
   313d8:	e30f3428 	movw	r3, #62504	; 0xf428
   313dc:	e3403005 	movt	r3, #5
   313e0:	e51b2010 	ldr	r2, [fp, #-16]
   313e4:	e1d220b0 	ldrh	r2, [r2]
   313e8:	e1a00003 	mov	r0, r3
   313ec:	e3001354 	movw	r1, #852	; 0x354
   313f0:	e3401006 	movt	r1, #6
[31m   313f4:	ebff6e3c 	bl	ccec <printf@plt>[0m
   313f8:	ea000007 	b	3141c <l2tp_xprt_retry_timeout+0x250>
   313fc:	e51b3010 	ldr	r3, [fp, #-16]
--
   31464:	e3530000 	cmp	r3, #0
   31468:	0a00001b 	beq	314dc <l2tp_xprt_retry_timeout+0x310>
   3146c:	e30737d0 	movw	r3, #30672	; 0x77d0
   31470:	e3403007 	movt	r3, #7
   31474:	e5933000 	ldr	r3, [r3]
   31478:	e2033080 	and	r3, r3, #128	; 0x80
   3147c:	e3530000 	cmp	r3, #0
   31480:	0a000015 	beq	314dc <l2tp_xprt_retry_timeout+0x310>
   31484:	e30737cc 	movw	r3, #30668	; 0x77cc
   31488:	e3403007 	movt	r3, #7
   3148c:	e5933000 	ldr	r3, [r3]
   31490:	e3530000 	cmp	r3, #0
   31494:	0a000008 	beq	314bc <l2tp_xprt_retry_timeout+0x2f0>
   31498:	e30f3468 	movw	r3, #62568	; 0xf468
   3149c:	e3403005 	movt	r3, #5
   314a0:	e51b2010 	ldr	r2, [fp, #-16]
   314a4:	e1d220b0 	ldrh	r2, [r2]
   314a8:	e1a00003 	mov	r0, r3
   314ac:	e3001354 	movw	r1, #852	; 0x354
   314b0:	e3401006 	movt	r1, #6
[31m   314b4:	ebff6e0c 	bl	ccec <printf@plt>[0m
   314b8:	ea000007 	b	314dc <l2tp_xprt_retry_timeout+0x310>
   314bc:	e51b3010 	ldr	r3, [fp, #-16]
--
   31518:	0a000023 	beq	315ac <l2tp_xprt_retry_timeout+0x3e0>
   3151c:	e30737cc 	movw	r3, #30668	; 0x77cc
   31520:	e3403007 	movt	r3, #7
   31524:	e5933000 	ldr	r3, [r3]
   31528:	e3530000 	cmp	r3, #0
   3152c:	0a00000f 	beq	31570 <l2tp_xprt_retry_timeout+0x3a4>
   31530:	e30f34c0 	movw	r3, #62656	; 0xf4c0
   31534:	e3403005 	movt	r3, #5
   31538:	e51b2010 	ldr	r2, [fp, #-16]
   3153c:	e1d220b0 	ldrh	r2, [r2]
   31540:	e51b1014 	ldr	r1, [fp, #-20]	; 0xffffffec
   31544:	e1d110b8 	ldrh	r1, [r1, #8]
   31548:	e1a0c001 	mov	ip, r1
   3154c:	e51b1014 	ldr	r1, [fp, #-20]	; 0xffffffec
   31550:	e1d110ba 	ldrh	r1, [r1, #10]
   31554:	e58d1000 	str	r1, [sp]
   31558:	e1a00003 	mov	r0, r3
   3155c:	e3001354 	movw	r1, #852	; 0x354
   31560:	e3401006 	movt	r1, #6
   31564:	e1a0300c 	mov	r3, ip
[31m   31568:	ebff6ddf 	bl	ccec <printf@plt>[0m
   3156c:	ea00000e 	b	315ac <l2tp_xprt_retry_timeout+0x3e0>
   31570:	e51b3010 	ldr	r3, [fp, #-16]
--
   3160c:	e3530000 	cmp	r3, #0
   31610:	0a00006f 	beq	317d4 <l2tp_xprt_retry_timeout+0x608>
   31614:	e30737d0 	movw	r3, #30672	; 0x77d0
   31618:	e3403007 	movt	r3, #7
   3161c:	e5933000 	ldr	r3, [r3]
   31620:	e2033080 	and	r3, r3, #128	; 0x80
   31624:	e3530000 	cmp	r3, #0
   31628:	0a00006b 	beq	317dc <l2tp_xprt_retry_timeout+0x610>
   3162c:	e30737cc 	movw	r3, #30668	; 0x77cc
   31630:	e3403007 	movt	r3, #7
   31634:	e5933000 	ldr	r3, [r3]
   31638:	e3530000 	cmp	r3, #0
   3163c:	0a000008 	beq	31664 <l2tp_xprt_retry_timeout+0x498>
   31640:	e30f3468 	movw	r3, #62568	; 0xf468
   31644:	e3403005 	movt	r3, #5
   31648:	e51b2010 	ldr	r2, [fp, #-16]
   3164c:	e1d220b0 	ldrh	r2, [r2]
   31650:	e1a00003 	mov	r0, r3
   31654:	e3001354 	movw	r1, #852	; 0x354
   31658:	e3401006 	movt	r1, #6
[31m   3165c:	ebff6da2 	bl	ccec <printf@plt>[0m
   31660:	ea000060 	b	317e8 <l2tp_xprt_retry_timeout+0x61c>
   31664:	e51b3010 	ldr	r3, [fp, #-16]
--
   318bc:	e5933000 	ldr	r3, [r3]
   318c0:	e3530000 	cmp	r3, #0
   318c4:	0a000019 	beq	31930 <l2tp_xprt_retry_timeout+0x764>
   318c8:	e30737d0 	movw	r3, #30672	; 0x77d0
   318cc:	e3403007 	movt	r3, #7
   318d0:	e5933000 	ldr	r3, [r3]
   318d4:	e2033080 	and	r3, r3, #128	; 0x80
   318d8:	e3530000 	cmp	r3, #0
   318dc:	0a000013 	beq	31930 <l2tp_xprt_retry_timeout+0x764>
   318e0:	e30737cc 	movw	r3, #30668	; 0x77cc
   318e4:	e3403007 	movt	r3, #7
   318e8:	e5933000 	ldr	r3, [r3]
   318ec:	e3530000 	cmp	r3, #0
   318f0:	0a000007 	beq	31914 <l2tp_xprt_retry_timeout+0x748>
   318f4:	e30f3570 	movw	r3, #62832	; 0xf570
   318f8:	e3403005 	movt	r3, #5
   318fc:	e51b2010 	ldr	r2, [fp, #-16]
   31900:	e1d220b0 	ldrh	r2, [r2]
   31904:	e1a00003 	mov	r0, r3
   31908:	e1a01002 	mov	r1, r2
[31m   3190c:	ebff6cf6 	bl	ccec <printf@plt>[0m
   31910:	ea000006 	b	31930 <l2tp_xprt_retry_timeout+0x764>
   31914:	e51b3010 	ldr	r3, [fp, #-16]
--
   3199c:	e5933000 	ldr	r3, [r3]
   319a0:	e2033080 	and	r3, r3, #128	; 0x80
   319a4:	e3530000 	cmp	r3, #0
   319a8:	0a00001e 	beq	31a28 <l2tp_xprt_hello_timeout+0xd4>
   319ac:	e30737cc 	movw	r3, #30668	; 0x77cc
   319b0:	e3403007 	movt	r3, #7
   319b4:	e5933000 	ldr	r3, [r3]
   319b8:	e3530000 	cmp	r3, #0
   319bc:	0a00000c 	beq	319f4 <l2tp_xprt_hello_timeout+0xa0>
   319c0:	e30f35d8 	movw	r3, #62936	; 0xf5d8
   319c4:	e3403005 	movt	r3, #5
   319c8:	e51b2008 	ldr	r2, [fp, #-8]
   319cc:	e1d220b0 	ldrh	r2, [r2]
   319d0:	e51b1008 	ldr	r1, [fp, #-8]
   319d4:	e591107c 	ldr	r1, [r1, #124]	; 0x7c
   319d8:	e58d1000 	str	r1, [sp]
   319dc:	e1a00003 	mov	r0, r3
   319e0:	e300133c 	movw	r1, #828	; 0x33c
   319e4:	e3401006 	movt	r1, #6
   319e8:	e51b300c 	ldr	r3, [fp, #-12]
[31m   319ec:	ebff6cbe 	bl	ccec <printf@plt>[0m
   319f0:	ea00000c 	b	31a28 <l2tp_xprt_hello_timeout+0xd4>
   319f4:	e51b3008 	ldr	r3, [fp, #-8]
--
   31ad4:	e3403007 	movt	r3, #7
   31ad8:	e5933000 	ldr	r3, [r3]
   31adc:	e2033080 	and	r3, r3, #128	; 0x80
   31ae0:	e3530000 	cmp	r3, #0
   31ae4:	0a00001b 	beq	31b58 <l2tp_xprt_hello_timeout+0x204>
   31ae8:	e30737cc 	movw	r3, #30668	; 0x77cc
   31aec:	e3403007 	movt	r3, #7
   31af0:	e5933000 	ldr	r3, [r3]
   31af4:	e3530000 	cmp	r3, #0
   31af8:	0a00000b 	beq	31b2c <l2tp_xprt_hello_timeout+0x1d8>
   31afc:	e30f3650 	movw	r3, #63056	; 0xf650
   31b00:	e3403005 	movt	r3, #5
   31b04:	e51b2008 	ldr	r2, [fp, #-8]
   31b08:	e1d220b0 	ldrh	r2, [r2]
   31b0c:	e51b1008 	ldr	r1, [fp, #-8]
   31b10:	e591c0c0 	ldr	ip, [r1, #192]	; 0xc0
   31b14:	e1a00003 	mov	r0, r3
   31b18:	e300133c 	movw	r1, #828	; 0x33c
   31b1c:	e3401006 	movt	r1, #6
   31b20:	e1a0300c 	mov	r3, ip
[31m   31b24:	ebff6c70 	bl	ccec <printf@plt>[0m
   31b28:	ea00000a 	b	31b58 <l2tp_xprt_hello_timeout+0x204>
   31b2c:	e51b3008 	ldr	r3, [fp, #-8]
--
   31bb0:	e3403007 	movt	r3, #7
   31bb4:	e5933000 	ldr	r3, [r3]
   31bb8:	e2033040 	and	r3, r3, #64	; 0x40
   31bbc:	e3530000 	cmp	r3, #0
   31bc0:	0a00001b 	beq	31c34 <l2tp_xprt_hello_timer_adjust+0xd4>
   31bc4:	e30737cc 	movw	r3, #30668	; 0x77cc
   31bc8:	e3403007 	movt	r3, #7
   31bcc:	e5933000 	ldr	r3, [r3]
   31bd0:	e3530000 	cmp	r3, #0
   31bd4:	0a00000b 	beq	31c08 <l2tp_xprt_hello_timer_adjust+0xa8>
   31bd8:	e30f36b4 	movw	r3, #63156	; 0xf6b4
   31bdc:	e3403005 	movt	r3, #5
   31be0:	e51b1010 	ldr	r1, [fp, #-16]
   31be4:	e51b2008 	ldr	r2, [fp, #-8]
   31be8:	e081c002 	add	ip, r1, r2
   31bec:	e1a00003 	mov	r0, r3
   31bf0:	e300131c 	movw	r1, #796	; 0x31c
   31bf4:	e3401006 	movt	r1, #6
   31bf8:	e51b2008 	ldr	r2, [fp, #-8]
   31bfc:	e1a0300c 	mov	r3, ip
[31m   31c00:	ebff6c39 	bl	ccec <printf@plt>[0m
   31c04:	ea00000a 	b	31c34 <l2tp_xprt_hello_timer_adjust+0xd4>
   31c08:	e51b2010 	ldr	r2, [fp, #-16]
--
   31ca8:	e3403007 	movt	r3, #7
   31cac:	e5933000 	ldr	r3, [r3]
   31cb0:	e3530000 	cmp	r3, #0
   31cb4:	0a000011 	beq	31d00 <l2tp_xprt_zlb_timeout+0xb4>
   31cb8:	e30f36fc 	movw	r3, #63228	; 0xf6fc
   31cbc:	e3403005 	movt	r3, #5
   31cc0:	e51b2008 	ldr	r2, [fp, #-8]
   31cc4:	e1d220b0 	ldrh	r2, [r2]
   31cc8:	e51b1008 	ldr	r1, [fp, #-8]
   31ccc:	e1d110b4 	ldrh	r1, [r1, #4]
   31cd0:	e1a0c001 	mov	ip, r1
   31cd4:	e51b1008 	ldr	r1, [fp, #-8]
   31cd8:	e1d110b6 	ldrh	r1, [r1, #6]
   31cdc:	e58d1000 	str	r1, [sp]
   31ce0:	e51b100c 	ldr	r1, [fp, #-12]
   31ce4:	e58d1004 	str	r1, [sp, #4]
   31ce8:	e1a00003 	mov	r0, r3
   31cec:	e3001304 	movw	r1, #772	; 0x304
   31cf0:	e3401006 	movt	r1, #6
   31cf4:	e1a0300c 	mov	r3, ip
[31m   31cf8:	ebff6bfb 	bl	ccec <printf@plt>[0m
   31cfc:	ea000010 	b	31d44 <l2tp_xprt_zlb_timeout+0xf8>
   31d00:	e51b3008 	ldr	r3, [fp, #-8]
--
   32050:	e3530000 	cmp	r3, #0
   32054:	0a000021 	beq	320e0 <l2tp_xprt_sendmsg+0xc8>
   32058:	e30737cc 	movw	r3, #30668	; 0x77cc
   3205c:	e3403007 	movt	r3, #7
   32060:	e5933000 	ldr	r3, [r3]
   32064:	e3530000 	cmp	r3, #0
   32068:	0a00000e 	beq	320a8 <l2tp_xprt_sendmsg+0x90>
   3206c:	e30f3790 	movw	r3, #63376	; 0xf790
   32070:	e3403005 	movt	r3, #5
   32074:	e51b2050 	ldr	r2, [fp, #-80]	; 0xffffffb0
   32078:	e1d220b0 	ldrh	r2, [r2]
   3207c:	e51b1050 	ldr	r1, [fp, #-80]	; 0xffffffb0
   32080:	e591c00c 	ldr	ip, [r1, #12]
   32084:	e51b1054 	ldr	r1, [fp, #-84]	; 0xffffffac
   32088:	e1d110b6 	ldrh	r1, [r1, #6]
   3208c:	e58d1000 	str	r1, [sp]
   32090:	e1a00003 	mov	r0, r3
   32094:	e30012f0 	movw	r1, #752	; 0x2f0
   32098:	e3401006 	movt	r1, #6
   3209c:	e1a0300c 	mov	r3, ip
[31m   320a0:	ebff6b11 	bl	ccec <printf@plt>[0m
   320a4:	ea00000d 	b	320e0 <l2tp_xprt_sendmsg+0xc8>
   320a8:	e51b3050 	ldr	r3, [fp, #-80]	; 0xffffffb0
--
   32108:	e3530000 	cmp	r3, #0
   3210c:	0a00001b 	beq	32180 <l2tp_xprt_sendmsg+0x168>
   32110:	e30737d0 	movw	r3, #30672	; 0x77d0
   32114:	e3403007 	movt	r3, #7
   32118:	e5933000 	ldr	r3, [r3]
   3211c:	e2033080 	and	r3, r3, #128	; 0x80
   32120:	e3530000 	cmp	r3, #0
   32124:	0a000015 	beq	32180 <l2tp_xprt_sendmsg+0x168>
   32128:	e30737cc 	movw	r3, #30668	; 0x77cc
   3212c:	e3403007 	movt	r3, #7
   32130:	e5933000 	ldr	r3, [r3]
   32134:	e3530000 	cmp	r3, #0
   32138:	0a000008 	beq	32160 <l2tp_xprt_sendmsg+0x148>
   3213c:	e30f37d8 	movw	r3, #63448	; 0xf7d8
   32140:	e3403005 	movt	r3, #5
   32144:	e51b2050 	ldr	r2, [fp, #-80]	; 0xffffffb0
   32148:	e1d220b0 	ldrh	r2, [r2]
   3214c:	e1a00003 	mov	r0, r3
   32150:	e30012f0 	movw	r1, #752	; 0x2f0
   32154:	e3401006 	movt	r1, #6
[31m   32158:	ebff6ae3 	bl	ccec <printf@plt>[0m
   3215c:	ea000007 	b	32180 <l2tp_xprt_sendmsg+0x168>
   32160:	e51b3050 	ldr	r3, [fp, #-80]	; 0xffffffb0
--
   32274:	e51b302c 	ldr	r3, [fp, #-44]	; 0xffffffd4
   32278:	e5933004 	ldr	r3, [r3, #4]
   3227c:	e1a00003 	mov	r0, r3
   32280:	ebff6b35 	bl	cf5c <htonl@plt>
   32284:	e1a06000 	mov	r6, r0
   32288:	e51b302c 	ldr	r3, [fp, #-44]	; 0xffffffd4
   3228c:	e1d330b2 	ldrh	r3, [r3, #2]
   32290:	e1a00003 	mov	r0, r3
   32294:	ebff6b9f 	bl	d118 <htons@plt>
   32298:	e1a03000 	mov	r3, r0
   3229c:	e1a05003 	mov	r5, r3
   322a0:	e51b0024 	ldr	r0, [fp, #-36]	; 0xffffffdc
   322a4:	ebffb4e2 	bl	1f634 <l2tp_tunnel_get_fd>
   322a8:	e1a03000 	mov	r3, r0
   322ac:	e58d3000 	str	r3, [sp]
   322b0:	e1a00004 	mov	r0, r4
   322b4:	e30012f0 	movw	r1, #752	; 0x2f0
   322b8:	e3401006 	movt	r1, #6
   322bc:	e1a02006 	mov	r2, r6
   322c0:	e1a03005 	mov	r3, r5
[31m   322c4:	ebff6a88 	bl	ccec <printf@plt>[0m
   322c8:	ea000016 	b	32328 <l2tp_xprt_sendmsg+0x310>
   322cc:	e51b302c 	ldr	r3, [fp, #-44]	; 0xffffffd4
--
   3249c:	e51b302c 	ldr	r3, [fp, #-44]	; 0xffffffd4
   324a0:	e1d330b2 	ldrh	r3, [r3, #2]
   324a4:	e1a00003 	mov	r0, r3
   324a8:	ebff6b1a 	bl	d118 <htons@plt>
   324ac:	e1a03000 	mov	r3, r0
   324b0:	e1a05003 	mov	r5, r3
   324b4:	e51b0024 	ldr	r0, [fp, #-36]	; 0xffffffdc
   324b8:	ebffb45d 	bl	1f634 <l2tp_tunnel_get_fd>
   324bc:	e1a02000 	mov	r2, r0
   324c0:	e51b3054 	ldr	r3, [fp, #-84]	; 0xffffffac
   324c4:	e1d330b6 	ldrh	r3, [r3, #6]
   324c8:	e58d2000 	str	r2, [sp]
   324cc:	e51b2020 	ldr	r2, [fp, #-32]	; 0xffffffe0
   324d0:	e58d2004 	str	r2, [sp, #4]
   324d4:	e58d3008 	str	r3, [sp, #8]
   324d8:	e1a00004 	mov	r0, r4
   324dc:	e30012f0 	movw	r1, #752	; 0x2f0
   324e0:	e3401006 	movt	r1, #6
   324e4:	e1a02006 	mov	r2, r6
   324e8:	e1a03005 	mov	r3, r5
[31m   324ec:	ebff69fe 	bl	ccec <printf@plt>[0m
   324f0:	ea00001b 	b	32564 <l2tp_xprt_sendmsg+0x54c>
   324f4:	e51b302c 	ldr	r3, [fp, #-44]	; 0xffffffd4
--
   32744:	0a000023 	beq	327d8 <l2tp_xprt_process_txq+0x104>
   32748:	e30737cc 	movw	r3, #30668	; 0x77cc
   3274c:	e3403007 	movt	r3, #7
   32750:	e5933000 	ldr	r3, [r3]
   32754:	e3530000 	cmp	r3, #0
   32758:	0a00000f 	beq	3279c <l2tp_xprt_process_txq+0xc8>
   3275c:	e30f3970 	movw	r3, #63856	; 0xf970
   32760:	e3403005 	movt	r3, #5
   32764:	e51b2010 	ldr	r2, [fp, #-16]
   32768:	e1d220b0 	ldrh	r2, [r2]
   3276c:	e51b1010 	ldr	r1, [fp, #-16]
   32770:	e1d110b4 	ldrh	r1, [r1, #4]
   32774:	e1a0c001 	mov	ip, r1
   32778:	e51b1010 	ldr	r1, [fp, #-16]
   3277c:	e1d110b6 	ldrh	r1, [r1, #6]
   32780:	e58d1000 	str	r1, [sp]
   32784:	e1a00003 	mov	r0, r3
   32788:	e30012d8 	movw	r1, #728	; 0x2d8
   3278c:	e3401006 	movt	r1, #6
   32790:	e1a0300c 	mov	r3, ip
[31m   32794:	ebff6954 	bl	ccec <printf@plt>[0m
   32798:	ea00000e 	b	327d8 <l2tp_xprt_process_txq+0x104>
   3279c:	e51b3010 	ldr	r3, [fp, #-16]
--
   32860:	0a0000c2 	beq	32b70 <l2tp_xprt_process_txq+0x49c>
   32864:	e30737cc 	movw	r3, #30668	; 0x77cc
   32868:	e3403007 	movt	r3, #7
   3286c:	e5933000 	ldr	r3, [r3]
   32870:	e3530000 	cmp	r3, #0
   32874:	0a00000f 	beq	328b8 <l2tp_xprt_process_txq+0x1e4>
   32878:	e30f39e8 	movw	r3, #63976	; 0xf9e8
   3287c:	e3403005 	movt	r3, #5
   32880:	e51b2010 	ldr	r2, [fp, #-16]
   32884:	e1d220b0 	ldrh	r2, [r2]
   32888:	e51b1010 	ldr	r1, [fp, #-16]
   3288c:	e1d110b4 	ldrh	r1, [r1, #4]
   32890:	e1a0c001 	mov	ip, r1
   32894:	e51b1010 	ldr	r1, [fp, #-16]
   32898:	e1d110b6 	ldrh	r1, [r1, #6]
   3289c:	e58d1000 	str	r1, [sp]
   328a0:	e1a00003 	mov	r0, r3
   328a4:	e30012d8 	movw	r1, #728	; 0x2d8
   328a8:	e3401006 	movt	r1, #6
   328ac:	e1a0300c 	mov	r3, ip
[31m   328b0:	ebff690d 	bl	ccec <printf@plt>[0m
   328b4:	ea0000ae 	b	32b74 <l2tp_xprt_process_txq+0x4a0>
   328b8:	e51b3010 	ldr	r3, [fp, #-16]
--
   32948:	0a000023 	beq	329dc <l2tp_xprt_process_txq+0x308>
   3294c:	e30737cc 	movw	r3, #30668	; 0x77cc
   32950:	e3403007 	movt	r3, #7
   32954:	e5933000 	ldr	r3, [r3]
   32958:	e3530000 	cmp	r3, #0
   3295c:	0a00000f 	beq	329a0 <l2tp_xprt_process_txq+0x2cc>
   32960:	e30f3a5c 	movw	r3, #64092	; 0xfa5c
   32964:	e3403005 	movt	r3, #5
   32968:	e51b2010 	ldr	r2, [fp, #-16]
   3296c:	e1d220b0 	ldrh	r2, [r2]
   32970:	e51b1010 	ldr	r1, [fp, #-16]
   32974:	e1d110b4 	ldrh	r1, [r1, #4]
   32978:	e1a0c001 	mov	ip, r1
   3297c:	e51b1010 	ldr	r1, [fp, #-16]
   32980:	e1d110b6 	ldrh	r1, [r1, #6]
   32984:	e58d1000 	str	r1, [sp]
   32988:	e1a00003 	mov	r0, r3
   3298c:	e30012d8 	movw	r1, #728	; 0x2d8
   32990:	e3401006 	movt	r1, #6
   32994:	e1a0300c 	mov	r3, ip
[31m   32998:	ebff68d3 	bl	ccec <printf@plt>[0m
   3299c:	ea00000e 	b	329dc <l2tp_xprt_process_txq+0x308>
   329a0:	e51b3010 	ldr	r3, [fp, #-16]
--
   32cd4:	e30737cc 	movw	r3, #30668	; 0x77cc
   32cd8:	e3403007 	movt	r3, #7
   32cdc:	e5933000 	ldr	r3, [r3]
   32ce0:	e3530000 	cmp	r3, #0
   32ce4:	0a000010 	beq	32d2c <l2tp_xprt_send+0xd4>
   32ce8:	e30f3b38 	movw	r3, #64312	; 0xfb38
   32cec:	e3403005 	movt	r3, #5
   32cf0:	e51b2028 	ldr	r2, [fp, #-40]	; 0xffffffd8
   32cf4:	e1d220b0 	ldrh	r2, [r2]
   32cf8:	e51b102c 	ldr	r1, [fp, #-44]	; 0xffffffd4
   32cfc:	e1d110b6 	ldrh	r1, [r1, #6]
   32d00:	e1a00001 	mov	r0, r1
   32d04:	e51b102c 	ldr	r1, [fp, #-44]	; 0xffffffd4
   32d08:	e1d110b4 	ldrh	r1, [r1, #4]
   32d0c:	e58d0000 	str	r0, [sp]
   32d10:	e58d1004 	str	r1, [sp, #4]
   32d14:	e1a00003 	mov	r0, r3
   32d18:	e30012c8 	movw	r1, #712	; 0x2c8
   32d1c:	e3401006 	movt	r1, #6
   32d20:	e51b302c 	ldr	r3, [fp, #-44]	; 0xffffffd4
[31m   32d24:	ebff67f0 	bl	ccec <printf@plt>[0m
   32d28:	ea000010 	b	32d70 <l2tp_xprt_send+0x118>
   32d2c:	e51b3028 	ldr	r3, [fp, #-40]	; 0xffffffd8
--
   32dcc:	e1a00003 	mov	r0, r3
   32dd0:	ebffb217 	bl	1f634 <l2tp_tunnel_get_fd>
   32dd4:	e1a05000 	mov	r5, r0
   32dd8:	e51b301c 	ldr	r3, [fp, #-28]	; 0xffffffe4
   32ddc:	e5933004 	ldr	r3, [r3, #4]
   32de0:	e1a00003 	mov	r0, r3
   32de4:	ebff682f 	bl	cea8 <ntohl@plt>
   32de8:	e1a07000 	mov	r7, r0
   32dec:	e51b301c 	ldr	r3, [fp, #-28]	; 0xffffffe4
   32df0:	e1d330b2 	ldrh	r3, [r3, #2]
   32df4:	e1a00003 	mov	r0, r3
   32df8:	ebff688d 	bl	d034 <ntohs@plt>
   32dfc:	e1a03000 	mov	r3, r0
   32e00:	e58d7000 	str	r7, [sp]
   32e04:	e58d3004 	str	r3, [sp, #4]
   32e08:	e1a00004 	mov	r0, r4
   32e0c:	e30012c8 	movw	r1, #712	; 0x2c8
   32e10:	e3401006 	movt	r1, #6
   32e14:	e1a02006 	mov	r2, r6
   32e18:	e1a03005 	mov	r3, r5
[31m   32e1c:	ebff67b2 	bl	ccec <printf@plt>[0m
   32e20:	ea00001b 	b	32e94 <l2tp_xprt_send+0x23c>
   32e24:	e51b3028 	ldr	r3, [fp, #-40]	; 0xffffffd8
--
   32ebc:	e5933000 	ldr	r3, [r3]
   32ec0:	e2033080 	and	r3, r3, #128	; 0x80
   32ec4:	e3530000 	cmp	r3, #0
   32ec8:	0a00001e 	beq	32f48 <l2tp_xprt_send+0x2f0>
   32ecc:	e30737cc 	movw	r3, #30668	; 0x77cc
   32ed0:	e3403007 	movt	r3, #7
   32ed4:	e5933000 	ldr	r3, [r3]
   32ed8:	e3530000 	cmp	r3, #0
   32edc:	0a00000c 	beq	32f14 <l2tp_xprt_send+0x2bc>
   32ee0:	e30f3be8 	movw	r3, #64488	; 0xfbe8
   32ee4:	e3403005 	movt	r3, #5
   32ee8:	e51b2028 	ldr	r2, [fp, #-40]	; 0xffffffd8
   32eec:	e1d220b0 	ldrh	r2, [r2]
   32ef0:	e51b102c 	ldr	r1, [fp, #-44]	; 0xffffffd4
   32ef4:	e1d110b6 	ldrh	r1, [r1, #6]
   32ef8:	e58d1000 	str	r1, [sp]
   32efc:	e1a00003 	mov	r0, r3
   32f00:	e30012c8 	movw	r1, #712	; 0x2c8
   32f04:	e3401006 	movt	r1, #6
   32f08:	e51b302c 	ldr	r3, [fp, #-44]	; 0xffffffd4
[31m   32f0c:	ebff6776 	bl	ccec <printf@plt>[0m
   32f10:	ea00000c 	b	32f48 <l2tp_xprt_send+0x2f0>
   32f14:	e51b3028 	ldr	r3, [fp, #-40]	; 0xffffffd8
--
   32fdc:	e2811005 	add	r1, r1, #5
   32fe0:	e5d11000 	ldrb	r1, [r1]
   32fe4:	e1a0e001 	mov	lr, r1
   32fe8:	e51b1020 	ldr	r1, [fp, #-32]	; 0xffffffe0
   32fec:	e2811006 	add	r1, r1, #6
   32ff0:	e5d11000 	ldrb	r1, [r1]
   32ff4:	e1a00001 	mov	r0, r1
   32ff8:	e51b1020 	ldr	r1, [fp, #-32]	; 0xffffffe0
   32ffc:	e2811007 	add	r1, r1, #7
   33000:	e5d11000 	ldrb	r1, [r1]
   33004:	e58d6000 	str	r6, [sp]
   33008:	e58d5004 	str	r5, [sp, #4]
   3300c:	e58d4008 	str	r4, [sp, #8]
   33010:	e58de00c 	str	lr, [sp, #12]
   33014:	e58d0010 	str	r0, [sp, #16]
   33018:	e58d1014 	str	r1, [sp, #20]
   3301c:	e1a00003 	mov	r0, r3
   33020:	e30012c8 	movw	r1, #712	; 0x2c8
   33024:	e3401006 	movt	r1, #6
   33028:	e1a0300c 	mov	r3, ip
[31m   3302c:	ebff672e 	bl	ccec <printf@plt>[0m
   33030:	ea000029 	b	330dc <l2tp_xprt_send+0x484>
   33034:	e51b3020 	ldr	r3, [fp, #-32]	; 0xffffffe0
--
   33120:	0a000023 	beq	331b4 <l2tp_xprt_send+0x55c>
   33124:	e30737cc 	movw	r3, #30668	; 0x77cc
   33128:	e3403007 	movt	r3, #7
   3312c:	e5933000 	ldr	r3, [r3]
   33130:	e3530000 	cmp	r3, #0
   33134:	0a00000f 	beq	33178 <l2tp_xprt_send+0x520>
   33138:	e30f3ca4 	movw	r3, #64676	; 0xfca4
   3313c:	e3403005 	movt	r3, #5
   33140:	e51b2028 	ldr	r2, [fp, #-40]	; 0xffffffd8
   33144:	e1d220b0 	ldrh	r2, [r2]
   33148:	e51b1028 	ldr	r1, [fp, #-40]	; 0xffffffd8
   3314c:	e1d110b4 	ldrh	r1, [r1, #4]
   33150:	e1a0c001 	mov	ip, r1
   33154:	e51b1028 	ldr	r1, [fp, #-40]	; 0xffffffd8
   33158:	e1d110b6 	ldrh	r1, [r1, #6]
   3315c:	e58d1000 	str	r1, [sp]
   33160:	e1a00003 	mov	r0, r3
   33164:	e30012c8 	movw	r1, #712	; 0x2c8
   33168:	e3401006 	movt	r1, #6
   3316c:	e1a0300c 	mov	r3, ip
[31m   33170:	ebff66dd 	bl	ccec <printf@plt>[0m
   33174:	ea00000e 	b	331b4 <l2tp_xprt_send+0x55c>
   33178:	e51b3028 	ldr	r3, [fp, #-40]	; 0xffffffd8
--
   332a0:	e3403007 	movt	r3, #7
   332a4:	e5933000 	ldr	r3, [r3]
   332a8:	e2033080 	and	r3, r3, #128	; 0x80
   332ac:	e3530000 	cmp	r3, #0
   332b0:	0a00001a 	beq	33320 <l2tp_xprt_set_peer_tunnel_id+0xc8>
   332b4:	e30737cc 	movw	r3, #30668	; 0x77cc
   332b8:	e3403007 	movt	r3, #7
   332bc:	e5933000 	ldr	r3, [r3]
   332c0:	e3530000 	cmp	r3, #0
   332c4:	0a00000b 	beq	332f8 <l2tp_xprt_set_peer_tunnel_id+0xa0>
   332c8:	e30f3d64 	movw	r3, #64868	; 0xfd64
   332cc:	e3403005 	movt	r3, #5
   332d0:	e15b24ba 	ldrh	r2, [fp, #-74]	; 0xffffffb6
   332d4:	e51b1048 	ldr	r1, [fp, #-72]	; 0xffffffb8
   332d8:	e1d110b0 	ldrh	r1, [r1]
   332dc:	e1a0c001 	mov	ip, r1
   332e0:	e1a00003 	mov	r0, r3
   332e4:	e30012a8 	movw	r1, #680	; 0x2a8
   332e8:	e3401006 	movt	r1, #6
   332ec:	e1a0300c 	mov	r3, ip
[31m   332f0:	ebff667d 	bl	ccec <printf@plt>[0m
   332f4:	ea000009 	b	33320 <l2tp_xprt_set_peer_tunnel_id+0xc8>
   332f8:	e15b34ba 	ldrh	r3, [fp, #-74]	; 0xffffffb6
--
   335c0:	e3403007 	movt	r3, #7
   335c4:	e5933000 	ldr	r3, [r3]
   335c8:	e2033080 	and	r3, r3, #128	; 0x80
   335cc:	e3530000 	cmp	r3, #0
   335d0:	0a00001b 	beq	33644 <l2tp_xprt_set_peer_tunnel_id+0x3ec>
   335d4:	e30737cc 	movw	r3, #30668	; 0x77cc
   335d8:	e3403007 	movt	r3, #7
   335dc:	e5933000 	ldr	r3, [r3]
   335e0:	e3530000 	cmp	r3, #0
   335e4:	0a00000b 	beq	33618 <l2tp_xprt_set_peer_tunnel_id+0x3c0>
   335e8:	e30f3e18 	movw	r3, #65048	; 0xfe18
   335ec:	e3403005 	movt	r3, #5
   335f0:	e51b2048 	ldr	r2, [fp, #-72]	; 0xffffffb8
   335f4:	e1d220b0 	ldrh	r2, [r2]
   335f8:	e51b1048 	ldr	r1, [fp, #-72]	; 0xffffffb8
   335fc:	e591c078 	ldr	ip, [r1, #120]	; 0x78
   33600:	e1a00003 	mov	r0, r3
   33604:	e30012a8 	movw	r1, #680	; 0x2a8
   33608:	e3401006 	movt	r1, #6
   3360c:	e1a0300c 	mov	r3, ip
[31m   33610:	ebff65b5 	bl	ccec <printf@plt>[0m
   33614:	ea00000a 	b	33644 <l2tp_xprt_set_peer_tunnel_id+0x3ec>
   33618:	e51b3048 	ldr	r3, [fp, #-72]	; 0xffffffb8
--
   33694:	e3530000 	cmp	r3, #0
   33698:	0a00001b 	beq	3370c <l2tp_xprt_tunnel_going_down+0xb8>
   3369c:	e30737d0 	movw	r3, #30672	; 0x77d0
   336a0:	e3403007 	movt	r3, #7
   336a4:	e5933000 	ldr	r3, [r3]
   336a8:	e2033080 	and	r3, r3, #128	; 0x80
   336ac:	e3530000 	cmp	r3, #0
   336b0:	0a000015 	beq	3370c <l2tp_xprt_tunnel_going_down+0xb8>
   336b4:	e30737cc 	movw	r3, #30668	; 0x77cc
   336b8:	e3403007 	movt	r3, #7
   336bc:	e5933000 	ldr	r3, [r3]
   336c0:	e3530000 	cmp	r3, #0
   336c4:	0a000008 	beq	336ec <l2tp_xprt_tunnel_going_down+0x98>
   336c8:	e30e3ac4 	movw	r3, #60100	; 0xeac4
   336cc:	e3403005 	movt	r3, #5
   336d0:	e51b2008 	ldr	r2, [fp, #-8]
   336d4:	e1d220b0 	ldrh	r2, [r2]
   336d8:	e1a00003 	mov	r0, r3
   336dc:	e300128c 	movw	r1, #652	; 0x28c
   336e0:	e3401006 	movt	r1, #6
[31m   336e4:	ebff6580 	bl	ccec <printf@plt>[0m
   336e8:	ea000007 	b	3370c <l2tp_xprt_tunnel_going_down+0xb8>
   336ec:	e51b3008 	ldr	r3, [fp, #-8]
--
   33770:	e3530000 	cmp	r3, #0
   33774:	0a00001b 	beq	337e8 <l2tp_xprt_tunnel_down+0x94>
   33778:	e30737d0 	movw	r3, #30672	; 0x77d0
   3377c:	e3403007 	movt	r3, #7
   33780:	e5933000 	ldr	r3, [r3]
   33784:	e2033080 	and	r3, r3, #128	; 0x80
   33788:	e3530000 	cmp	r3, #0
   3378c:	0a000015 	beq	337e8 <l2tp_xprt_tunnel_down+0x94>
   33790:	e30737cc 	movw	r3, #30668	; 0x77cc
   33794:	e3403007 	movt	r3, #7
   33798:	e5933000 	ldr	r3, [r3]
   3379c:	e3530000 	cmp	r3, #0
   337a0:	0a000008 	beq	337c8 <l2tp_xprt_tunnel_down+0x74>
   337a4:	e30e3ac4 	movw	r3, #60100	; 0xeac4
   337a8:	e3403005 	movt	r3, #5
   337ac:	e51b2008 	ldr	r2, [fp, #-8]
   337b0:	e1d220b0 	ldrh	r2, [r2]
   337b4:	e1a00003 	mov	r0, r3
   337b8:	e3001274 	movw	r1, #628	; 0x274
   337bc:	e3401006 	movt	r1, #6
[31m   337c0:	ebff6549 	bl	ccec <printf@plt>[0m
   337c4:	ea000007 	b	337e8 <l2tp_xprt_tunnel_down+0x94>
   337c8:	e51b3008 	ldr	r3, [fp, #-8]
--
   3384c:	e3403007 	movt	r3, #7
   33850:	e5933000 	ldr	r3, [r3]
   33854:	e3530000 	cmp	r3, #0
   33858:	0a000017 	beq	338bc <l2tp_xprt_tunnel_down+0x168>
   3385c:	e30737d0 	movw	r3, #30672	; 0x77d0
   33860:	e3403007 	movt	r3, #7
   33864:	e5933000 	ldr	r3, [r3]
   33868:	e2033c01 	and	r3, r3, #256	; 0x100
   3386c:	e3530000 	cmp	r3, #0
   33870:	0a000011 	beq	338bc <l2tp_xprt_tunnel_down+0x168>
   33874:	e30737cc 	movw	r3, #30668	; 0x77cc
   33878:	e3403007 	movt	r3, #7
   3387c:	e5933000 	ldr	r3, [r3]
   33880:	e3530000 	cmp	r3, #0
   33884:	0a000006 	beq	338a4 <l2tp_xprt_tunnel_down+0x150>
   33888:	e30f3e78 	movw	r3, #65144	; 0xfe78
   3388c:	e3403005 	movt	r3, #5
   33890:	e1a00003 	mov	r0, r3
   33894:	e3001274 	movw	r1, #628	; 0x274
   33898:	e3401006 	movt	r1, #6
[31m   3389c:	ebff6512 	bl	ccec <printf@plt>[0m
   338a0:	ea000005 	b	338bc <l2tp_xprt_tunnel_down+0x168>
   338a4:	e3a00007 	mov	r0, #7
--
   338d0:	e3403007 	movt	r3, #7
   338d4:	e5933000 	ldr	r3, [r3]
   338d8:	e3530000 	cmp	r3, #0
   338dc:	0a000017 	beq	33940 <l2tp_xprt_tunnel_down+0x1ec>
   338e0:	e30737d0 	movw	r3, #30672	; 0x77d0
   338e4:	e3403007 	movt	r3, #7
   338e8:	e5933000 	ldr	r3, [r3]
   338ec:	e2033c01 	and	r3, r3, #256	; 0x100
   338f0:	e3530000 	cmp	r3, #0
   338f4:	0a000011 	beq	33940 <l2tp_xprt_tunnel_down+0x1ec>
   338f8:	e30737cc 	movw	r3, #30668	; 0x77cc
   338fc:	e3403007 	movt	r3, #7
   33900:	e5933000 	ldr	r3, [r3]
   33904:	e3530000 	cmp	r3, #0
   33908:	0a000006 	beq	33928 <l2tp_xprt_tunnel_down+0x1d4>
   3390c:	e30f3e9c 	movw	r3, #65180	; 0xfe9c
   33910:	e3403005 	movt	r3, #5
   33914:	e1a00003 	mov	r0, r3
   33918:	e3001274 	movw	r1, #628	; 0x274
   3391c:	e3401006 	movt	r1, #6
[31m   33920:	ebff64f1 	bl	ccec <printf@plt>[0m
   33924:	ea000005 	b	33940 <l2tp_xprt_tunnel_down+0x1ec>
   33928:	e3a00007 	mov	r0, #7
--
   33954:	e3403007 	movt	r3, #7
   33958:	e5933000 	ldr	r3, [r3]
   3395c:	e3530000 	cmp	r3, #0
   33960:	0a000017 	beq	339c4 <l2tp_xprt_tunnel_down+0x270>
   33964:	e30737d0 	movw	r3, #30672	; 0x77d0
   33968:	e3403007 	movt	r3, #7
   3396c:	e5933000 	ldr	r3, [r3]
   33970:	e2033c01 	and	r3, r3, #256	; 0x100
   33974:	e3530000 	cmp	r3, #0
   33978:	0a000011 	beq	339c4 <l2tp_xprt_tunnel_down+0x270>
   3397c:	e30737cc 	movw	r3, #30668	; 0x77cc
   33980:	e3403007 	movt	r3, #7
   33984:	e5933000 	ldr	r3, [r3]
   33988:	e3530000 	cmp	r3, #0
   3398c:	0a000006 	beq	339ac <l2tp_xprt_tunnel_down+0x258>
   33990:	e30f3ebc 	movw	r3, #65212	; 0xfebc
   33994:	e3403005 	movt	r3, #5
   33998:	e1a00003 	mov	r0, r3
   3399c:	e3001274 	movw	r1, #628	; 0x274
   339a0:	e3401006 	movt	r1, #6
[31m   339a4:	ebff64d0 	bl	ccec <printf@plt>[0m
   339a8:	ea000005 	b	339c4 <l2tp_xprt_tunnel_down+0x270>
   339ac:	e3a00007 	mov	r0, #7
--
   33a48:	e3403007 	movt	r3, #7
   33a4c:	e5933000 	ldr	r3, [r3]
   33a50:	e3530000 	cmp	r3, #0
   33a54:	0a000011 	beq	33aa0 <l2tp_xprt_tunnel_create+0xb4>
   33a58:	e30f4edc 	movw	r4, #65244	; 0xfedc
   33a5c:	e3404005 	movt	r4, #5
   33a60:	e51b3028 	ldr	r3, [fp, #-40]	; 0xffffffd8
   33a64:	e593300c 	ldr	r3, [r3, #12]
   33a68:	e1a00003 	mov	r0, r3
   33a6c:	ebff650d 	bl	cea8 <ntohl@plt>
   33a70:	e1a05000 	mov	r5, r0
   33a74:	e51b3028 	ldr	r3, [fp, #-40]	; 0xffffffd8
   33a78:	e5933010 	ldr	r3, [r3, #16]
   33a7c:	e1a00003 	mov	r0, r3
   33a80:	ebff6508 	bl	cea8 <ntohl@plt>
   33a84:	e1a03000 	mov	r3, r0
   33a88:	e1a00004 	mov	r0, r4
   33a8c:	e300125c 	movw	r1, #604	; 0x25c
   33a90:	e3401006 	movt	r1, #6
   33a94:	e1a02005 	mov	r2, r5
[31m   33a98:	ebff6493 	bl	ccec <printf@plt>[0m
   33a9c:	ea000011 	b	33ae8 <l2tp_xprt_tunnel_create+0xfc>
   33aa0:	e51b3028 	ldr	r3, [fp, #-40]	; 0xffffffd8
--
   33cfc:	e3403007 	movt	r3, #7
   33d00:	e5933000 	ldr	r3, [r3]
   33d04:	e2033080 	and	r3, r3, #128	; 0x80
   33d08:	e3530000 	cmp	r3, #0
   33d0c:	0a00001b 	beq	33d80 <l2tp_xprt_tunnel_create+0x394>
   33d10:	e30737cc 	movw	r3, #30668	; 0x77cc
   33d14:	e3403007 	movt	r3, #7
   33d18:	e5933000 	ldr	r3, [r3]
   33d1c:	e3530000 	cmp	r3, #0
   33d20:	0a00000b 	beq	33d54 <l2tp_xprt_tunnel_create+0x368>
   33d24:	e30f3f08 	movw	r3, #65288	; 0xff08
   33d28:	e3403005 	movt	r3, #5
   33d2c:	e51b2014 	ldr	r2, [fp, #-20]	; 0xffffffec
   33d30:	e1d220b0 	ldrh	r2, [r2]
   33d34:	e51b1014 	ldr	r1, [fp, #-20]	; 0xffffffec
   33d38:	e591c078 	ldr	ip, [r1, #120]	; 0x78
   33d3c:	e1a00003 	mov	r0, r3
   33d40:	e300125c 	movw	r1, #604	; 0x25c
   33d44:	e3401006 	movt	r1, #6
   33d48:	e1a0300c 	mov	r3, ip
[31m   33d4c:	ebff63e6 	bl	ccec <printf@plt>[0m
   33d50:	ea00000a 	b	33d80 <l2tp_xprt_tunnel_create+0x394>
   33d54:	e51b3014 	ldr	r3, [fp, #-20]	; 0xffffffec
--
   33df0:	e3403007 	movt	r3, #7
   33df4:	e5933000 	ldr	r3, [r3]
   33df8:	e2033080 	and	r3, r3, #128	; 0x80
   33dfc:	e3530000 	cmp	r3, #0
   33e00:	0a00001b 	beq	33e74 <l2tp_xprt_tunnel_create+0x488>
   33e04:	e30737cc 	movw	r3, #30668	; 0x77cc
   33e08:	e3403007 	movt	r3, #7
   33e0c:	e5933000 	ldr	r3, [r3]
   33e10:	e3530000 	cmp	r3, #0
   33e14:	0a00000b 	beq	33e48 <l2tp_xprt_tunnel_create+0x45c>
   33e18:	e30f3f68 	movw	r3, #65384	; 0xff68
   33e1c:	e3403005 	movt	r3, #5
   33e20:	e51b2014 	ldr	r2, [fp, #-20]	; 0xffffffec
   33e24:	e1d220b0 	ldrh	r2, [r2]
   33e28:	e51b1014 	ldr	r1, [fp, #-20]	; 0xffffffec
   33e2c:	e591c080 	ldr	ip, [r1, #128]	; 0x80
   33e30:	e1a00003 	mov	r0, r3
   33e34:	e300125c 	movw	r1, #604	; 0x25c
   33e38:	e3401006 	movt	r1, #6
   33e3c:	e1a0300c 	mov	r3, ip
[31m   33e40:	ebff63a9 	bl	ccec <printf@plt>[0m
   33e44:	ea00000a 	b	33e74 <l2tp_xprt_tunnel_create+0x488>
   33e48:	e51b3014 	ldr	r3, [fp, #-20]	; 0xffffffec
--
   33f80:	e3530000 	cmp	r3, #0
   33f84:	0a00001b 	beq	33ff8 <l2tp_xprt_tunnel_delete+0x94>
   33f88:	e30737d0 	movw	r3, #30672	; 0x77d0
   33f8c:	e3403007 	movt	r3, #7
   33f90:	e5933000 	ldr	r3, [r3]
   33f94:	e2033080 	and	r3, r3, #128	; 0x80
   33f98:	e3530000 	cmp	r3, #0
   33f9c:	0a000015 	beq	33ff8 <l2tp_xprt_tunnel_delete+0x94>
   33fa0:	e30737cc 	movw	r3, #30668	; 0x77cc
   33fa4:	e3403007 	movt	r3, #7
   33fa8:	e5933000 	ldr	r3, [r3]
   33fac:	e3530000 	cmp	r3, #0
   33fb0:	0a000008 	beq	33fd8 <l2tp_xprt_tunnel_delete+0x74>
   33fb4:	e30e3ac4 	movw	r3, #60100	; 0xeac4
   33fb8:	e3403005 	movt	r3, #5
   33fbc:	e51b2008 	ldr	r2, [fp, #-8]
   33fc0:	e1d220b0 	ldrh	r2, [r2]
   33fc4:	e1a00003 	mov	r0, r3
   33fc8:	e3001244 	movw	r1, #580	; 0x244
   33fcc:	e3401006 	movt	r1, #6
[31m   33fd0:	ebff6345 	bl	ccec <printf@plt>[0m
   33fd4:	ea000007 	b	33ff8 <l2tp_xprt_tunnel_delete+0x94>
   33fd8:	e51b3008 	ldr	r3, [fp, #-8]
--
   3412c:	e3530000 	cmp	r3, #0
   34130:	0a00001b 	beq	341a4 <l2tp_xprt_tunnel_modify+0x98>
   34134:	e30737d0 	movw	r3, #30672	; 0x77d0
   34138:	e3403007 	movt	r3, #7
   3413c:	e5933000 	ldr	r3, [r3]
   34140:	e2033004 	and	r3, r3, #4
   34144:	e3530000 	cmp	r3, #0
   34148:	0a000015 	beq	341a4 <l2tp_xprt_tunnel_modify+0x98>
   3414c:	e30737cc 	movw	r3, #30668	; 0x77cc
   34150:	e3403007 	movt	r3, #7
   34154:	e5933000 	ldr	r3, [r3]
   34158:	e3530000 	cmp	r3, #0
   3415c:	0a000008 	beq	34184 <l2tp_xprt_tunnel_modify+0x78>
   34160:	e30e3ac4 	movw	r3, #60100	; 0xeac4
   34164:	e3403005 	movt	r3, #5
   34168:	e51b2008 	ldr	r2, [fp, #-8]
   3416c:	e1d220b0 	ldrh	r2, [r2]
   34170:	e1a00003 	mov	r0, r3
   34174:	e300122c 	movw	r1, #556	; 0x22c
   34178:	e3401006 	movt	r1, #6
[31m   3417c:	ebff62da 	bl	ccec <printf@plt>[0m
   34180:	ea000007 	b	341a4 <l2tp_xprt_tunnel_modify+0x98>
   34184:	e51b3008 	ldr	r3, [fp, #-8]
--
   341e8:	e5933000 	ldr	r3, [r3]
   341ec:	e2033004 	and	r3, r3, #4
   341f0:	e3530000 	cmp	r3, #0
   341f4:	0a00001c 	beq	3426c <l2tp_xprt_tunnel_modify+0x160>
   341f8:	e30737cc 	movw	r3, #30668	; 0x77cc
   341fc:	e3403007 	movt	r3, #7
   34200:	e5933000 	ldr	r3, [r3]
   34204:	e3530000 	cmp	r3, #0
   34208:	0a00000c 	beq	34240 <l2tp_xprt_tunnel_modify+0x134>
   3420c:	e30f3fc4 	movw	r3, #65476	; 0xffc4
   34210:	e3403005 	movt	r3, #5
   34214:	e51b2008 	ldr	r2, [fp, #-8]
   34218:	e1d220b0 	ldrh	r2, [r2]
   3421c:	e51b100c 	ldr	r1, [fp, #-12]
   34220:	e1d110b4 	ldrh	r1, [r1, #4]
   34224:	e1a0c001 	mov	ip, r1
   34228:	e1a00003 	mov	r0, r3
   3422c:	e300122c 	movw	r1, #556	; 0x22c
   34230:	e3401006 	movt	r1, #6
   34234:	e1a0300c 	mov	r3, ip
[31m   34238:	ebff62ab 	bl	ccec <printf@plt>[0m
   3423c:	ea00000a 	b	3426c <l2tp_xprt_tunnel_modify+0x160>
   34240:	e51b3008 	ldr	r3, [fp, #-8]
--
   342ac:	e5933000 	ldr	r3, [r3]
   342b0:	e2033004 	and	r3, r3, #4
   342b4:	e3530000 	cmp	r3, #0
   342b8:	0a00001c 	beq	34330 <l2tp_xprt_tunnel_modify+0x224>
   342bc:	e30737cc 	movw	r3, #30668	; 0x77cc
   342c0:	e3403007 	movt	r3, #7
   342c4:	e5933000 	ldr	r3, [r3]
   342c8:	e3530000 	cmp	r3, #0
   342cc:	0a00000c 	beq	34304 <l2tp_xprt_tunnel_modify+0x1f8>
   342d0:	e3003028 	movw	r3, #40	; 0x28
   342d4:	e3403006 	movt	r3, #6
   342d8:	e51b2008 	ldr	r2, [fp, #-8]
   342dc:	e1d220b0 	ldrh	r2, [r2]
   342e0:	e51b100c 	ldr	r1, [fp, #-12]
   342e4:	e1d110b6 	ldrh	r1, [r1, #6]
   342e8:	e1a0c001 	mov	ip, r1
   342ec:	e1a00003 	mov	r0, r3
   342f0:	e300122c 	movw	r1, #556	; 0x22c
   342f4:	e3401006 	movt	r1, #6
   342f8:	e1a0300c 	mov	r3, ip
[31m   342fc:	ebff627a 	bl	ccec <printf@plt>[0m
   34300:	ea00000a 	b	34330 <l2tp_xprt_tunnel_modify+0x224>
   34304:	e51b3008 	ldr	r3, [fp, #-8]
--
   34370:	e5933000 	ldr	r3, [r3]
   34374:	e2033004 	and	r3, r3, #4
   34378:	e3530000 	cmp	r3, #0
   3437c:	0a00001c 	beq	343f4 <l2tp_xprt_tunnel_modify+0x2e8>
   34380:	e30737cc 	movw	r3, #30668	; 0x77cc
   34384:	e3403007 	movt	r3, #7
   34388:	e5933000 	ldr	r3, [r3]
   3438c:	e3530000 	cmp	r3, #0
   34390:	0a00000c 	beq	343c8 <l2tp_xprt_tunnel_modify+0x2bc>
   34394:	e3003090 	movw	r3, #144	; 0x90
   34398:	e3403006 	movt	r3, #6
   3439c:	e51b2008 	ldr	r2, [fp, #-8]
   343a0:	e1d220b0 	ldrh	r2, [r2]
   343a4:	e51b100c 	ldr	r1, [fp, #-12]
   343a8:	e1d110b8 	ldrh	r1, [r1, #8]
   343ac:	e1a0c001 	mov	ip, r1
   343b0:	e1a00003 	mov	r0, r3
   343b4:	e300122c 	movw	r1, #556	; 0x22c
   343b8:	e3401006 	movt	r1, #6
   343bc:	e1a0300c 	mov	r3, ip
[31m   343c0:	ebff6249 	bl	ccec <printf@plt>[0m
   343c4:	ea00000a 	b	343f4 <l2tp_xprt_tunnel_modify+0x2e8>
   343c8:	e51b3008 	ldr	r3, [fp, #-8]
--
   34464:	e5933000 	ldr	r3, [r3]
   34468:	e2033004 	and	r3, r3, #4
   3446c:	e3530000 	cmp	r3, #0
   34470:	0a00001c 	beq	344e8 <l2tp_xprt_tunnel_modify+0x3dc>
   34474:	e30737cc 	movw	r3, #30668	; 0x77cc
   34478:	e3403007 	movt	r3, #7
   3447c:	e5933000 	ldr	r3, [r3]
   34480:	e3530000 	cmp	r3, #0
   34484:	0a00000c 	beq	344bc <l2tp_xprt_tunnel_modify+0x3b0>
   34488:	e30030f8 	movw	r3, #248	; 0xf8
   3448c:	e3403006 	movt	r3, #6
   34490:	e51b2008 	ldr	r2, [fp, #-8]
   34494:	e1d220b0 	ldrh	r2, [r2]
   34498:	e51b100c 	ldr	r1, [fp, #-12]
   3449c:	e1d110ba 	ldrh	r1, [r1, #10]
   344a0:	e1a0c001 	mov	ip, r1
   344a4:	e1a00003 	mov	r0, r3
   344a8:	e300122c 	movw	r1, #556	; 0x22c
   344ac:	e3401006 	movt	r1, #6
   344b0:	e1a0300c 	mov	r3, ip
[31m   344b4:	ebff620c 	bl	ccec <printf@plt>[0m
   344b8:	ea00000a 	b	344e8 <l2tp_xprt_tunnel_modify+0x3dc>
   344bc:	e51b3008 	ldr	r3, [fp, #-8]
--
   34558:	e5933000 	ldr	r3, [r3]
   3455c:	e2033004 	and	r3, r3, #4
   34560:	e3530000 	cmp	r3, #0
   34564:	0a00001c 	beq	345dc <l2tp_xprt_tunnel_modify+0x4d0>
   34568:	e30737cc 	movw	r3, #30668	; 0x77cc
   3456c:	e3403007 	movt	r3, #7
   34570:	e5933000 	ldr	r3, [r3]
   34574:	e3530000 	cmp	r3, #0
   34578:	0a00000c 	beq	345b0 <l2tp_xprt_tunnel_modify+0x4a4>
   3457c:	e3003160 	movw	r3, #352	; 0x160
   34580:	e3403006 	movt	r3, #6
   34584:	e51b2008 	ldr	r2, [fp, #-8]
   34588:	e1d220b0 	ldrh	r2, [r2]
   3458c:	e51b100c 	ldr	r1, [fp, #-12]
   34590:	e1d110bc 	ldrh	r1, [r1, #12]
   34594:	e1a0c001 	mov	ip, r1
   34598:	e1a00003 	mov	r0, r3
   3459c:	e300122c 	movw	r1, #556	; 0x22c
   345a0:	e3401006 	movt	r1, #6
   345a4:	e1a0300c 	mov	r3, ip
[31m   345a8:	ebff61cf 	bl	ccec <printf@plt>[0m
   345ac:	ea00000a 	b	345dc <l2tp_xprt_tunnel_modify+0x4d0>
   345b0:	e51b3008 	ldr	r3, [fp, #-8]
--
   34614:	e3530000 	cmp	r3, #0
   34618:	0a00001b 	beq	3468c <l2tp_xprt_kernel_get+0xa0>
   3461c:	e30737d0 	movw	r3, #30672	; 0x77d0
   34620:	e3403007 	movt	r3, #7
   34624:	e5933000 	ldr	r3, [r3]
   34628:	e2033004 	and	r3, r3, #4
   3462c:	e3530000 	cmp	r3, #0
   34630:	0a000015 	beq	3468c <l2tp_xprt_kernel_get+0xa0>
   34634:	e30737cc 	movw	r3, #30668	; 0x77cc
   34638:	e3403007 	movt	r3, #7
   3463c:	e5933000 	ldr	r3, [r3]
   34640:	e3530000 	cmp	r3, #0
   34644:	0a000008 	beq	3466c <l2tp_xprt_kernel_get+0x80>
   34648:	e30e3ac4 	movw	r3, #60100	; 0xeac4
   3464c:	e3403005 	movt	r3, #5
   34650:	e51b2058 	ldr	r2, [fp, #-88]	; 0xffffffa8
   34654:	e1d220b0 	ldrh	r2, [r2]
   34658:	e1a00003 	mov	r0, r3
   3465c:	e3001214 	movw	r1, #532	; 0x214
   34660:	e3401006 	movt	r1, #6
[31m   34664:	ebff61a0 	bl	ccec <printf@plt>[0m
   34668:	ea000007 	b	3468c <l2tp_xprt_kernel_get+0xa0>
   3466c:	e51b3058 	ldr	r3, [fp, #-88]	; 0xffffffa8
--
   34868:	e3530000 	cmp	r3, #0
   3486c:	0a00001b 	beq	348e0 <l2tp_xprt_tunnel_get+0x98>
   34870:	e30737d0 	movw	r3, #30672	; 0x77d0
   34874:	e3403007 	movt	r3, #7
   34878:	e5933000 	ldr	r3, [r3]
   3487c:	e2033004 	and	r3, r3, #4
   34880:	e3530000 	cmp	r3, #0
   34884:	0a000015 	beq	348e0 <l2tp_xprt_tunnel_get+0x98>
   34888:	e30737cc 	movw	r3, #30668	; 0x77cc
   3488c:	e3403007 	movt	r3, #7
   34890:	e5933000 	ldr	r3, [r3]
   34894:	e3530000 	cmp	r3, #0
   34898:	0a000008 	beq	348c0 <l2tp_xprt_tunnel_get+0x78>
   3489c:	e30e3ac4 	movw	r3, #60100	; 0xeac4
   348a0:	e3403005 	movt	r3, #5
   348a4:	e51b2010 	ldr	r2, [fp, #-16]
   348a8:	e1d220b0 	ldrh	r2, [r2]
   348ac:	e1a00003 	mov	r0, r3
   348b0:	e30011fc 	movw	r1, #508	; 0x1fc
   348b4:	e3401006 	movt	r1, #6
[31m   348b8:	ebff610b 	bl	ccec <printf@plt>[0m
   348bc:	ea000007 	b	348e0 <l2tp_xprt_tunnel_get+0x98>
   348c0:	e51b3010 	ldr	r3, [fp, #-16]
--
   351a4:	e30028f4 	movw	r2, #2292	; 0x8f4
   351a8:	e3402006 	movt	r2, #6
   351ac:	e51b3010 	ldr	r3, [fp, #-16]
   351b0:	e283e020 	add	lr, r3, #32
   351b4:	e15bc1b2 	ldrh	ip, [fp, #-18]	; 0xffffffee
   351b8:	e15b11b4 	ldrh	r1, [fp, #-20]	; 0xffffffec
   351bc:	e51b3018 	ldr	r3, [fp, #-24]	; 0xffffffe8
   351c0:	e3530000 	cmp	r3, #0
   351c4:	0a000001 	beq	351d0 <l2tp_session_set_result+0x90>
   351c8:	e51b3018 	ldr	r3, [fp, #-24]	; 0xffffffe8
   351cc:	ea000001 	b	351d8 <l2tp_session_set_result+0x98>
   351d0:	e30038bc 	movw	r3, #2236	; 0x8bc
   351d4:	e3403006 	movt	r3, #6
   351d8:	e58d1000 	str	r1, [sp]
   351dc:	e58d3004 	str	r3, [sp, #4]
   351e0:	e1a00002 	mov	r0, r2
   351e4:	e302174c 	movw	r1, #10060	; 0x274c
   351e8:	e3401006 	movt	r1, #6
   351ec:	e1a0200e 	mov	r2, lr
   351f0:	e1a0300c 	mov	r3, ip
[31m   351f4:	ebff5ebc 	bl	ccec <printf@plt>[0m
   351f8:	ea000014 	b	35250 <l2tp_session_set_result+0x110>
   351fc:	e51b3010 	ldr	r3, [fp, #-16]
--
   352e4:	e1833001 	orr	r3, r3, r1
   352e8:	e6ff3073 	uxth	r3, r3
   352ec:	e1a01003 	mov	r1, r3
   352f0:	e51b3010 	ldr	r3, [fp, #-16]
   352f4:	e5933160 	ldr	r3, [r3, #352]	; 0x160
   352f8:	e3530004 	cmp	r3, #4
   352fc:	9a000003 	bls	35310 <l2tp_session_set_result+0x1d0>
   35300:	e51b3010 	ldr	r3, [fp, #-16]
   35304:	e593315c 	ldr	r3, [r3, #348]	; 0x15c
   35308:	e2833004 	add	r3, r3, #4
   3530c:	ea000001 	b	35318 <l2tp_session_set_result+0x1d8>
   35310:	e30038bc 	movw	r3, #2236	; 0x8bc
   35314:	e3403006 	movt	r3, #6
   35318:	e58d1000 	str	r1, [sp]
   3531c:	e58d3004 	str	r3, [sp, #4]
   35320:	e1a00002 	mov	r0, r2
   35324:	e302174c 	movw	r1, #10060	; 0x274c
   35328:	e3401006 	movt	r1, #6
   3532c:	e1a0200e 	mov	r2, lr
   35330:	e1a0300c 	mov	r3, ip
[31m   35334:	ebff5e6c 	bl	ccec <printf@plt>[0m
   35338:	ea000083 	b	3554c <l2tp_session_set_result+0x40c>
   3533c:	e51b3010 	ldr	r3, [fp, #-16]
--
   35768:	e3001a14 	movw	r1, #2580	; 0xa14
   3576c:	e3401006 	movt	r1, #6
   35770:	e51b3020 	ldr	r3, [fp, #-32]	; 0xffffffe0
   35774:	e283c020 	add	ip, r3, #32
   35778:	e51b3014 	ldr	r3, [fp, #-20]	; 0xffffffec
   3577c:	e3530000 	cmp	r3, #0
   35780:	0a000001 	beq	3578c <l2tp_session_param_defaults+0xa4>
   35784:	e51b2014 	ldr	r2, [fp, #-20]	; 0xffffffec
   35788:	ea000001 	b	35794 <l2tp_session_param_defaults+0xac>
   3578c:	e3002a58 	movw	r2, #2648	; 0xa58
   35790:	e3402006 	movt	r2, #6
   35794:	e51b3018 	ldr	r3, [fp, #-24]	; 0xffffffe8
   35798:	e3530000 	cmp	r3, #0
   3579c:	0a000001 	beq	357a8 <l2tp_session_param_defaults+0xc0>
   357a0:	e51b3018 	ldr	r3, [fp, #-24]	; 0xffffffe8
   357a4:	ea000001 	b	357b0 <l2tp_session_param_defaults+0xc8>
   357a8:	e3003a58 	movw	r3, #2648	; 0xa58
   357ac:	e3403006 	movt	r3, #6
   357b0:	e1a00001 	mov	r0, r1
   357b4:	e1a0100c 	mov	r1, ip
[31m   357b8:	ebff5d4b 	bl	ccec <printf@plt>[0m
   357bc:	ea000015 	b	35818 <l2tp_session_param_defaults+0x130>
   357c0:	e51b3020 	ldr	r3, [fp, #-32]	; 0xffffffe0
--
   35840:	e3530000 	cmp	r3, #0
   35844:	0a00001e 	beq	358c4 <l2tp_session_param_defaults+0x1dc>
   35848:	e30737d0 	movw	r3, #30672	; 0x77d0
   3584c:	e3403007 	movt	r3, #7
   35850:	e5933000 	ldr	r3, [r3]
   35854:	e2033004 	and	r3, r3, #4
   35858:	e3530000 	cmp	r3, #0
   3585c:	0a000018 	beq	358c4 <l2tp_session_param_defaults+0x1dc>
   35860:	e30737cc 	movw	r3, #30668	; 0x77cc
   35864:	e3403007 	movt	r3, #7
   35868:	e5933000 	ldr	r3, [r3]
   3586c:	e3530000 	cmp	r3, #0
   35870:	0a000008 	beq	35898 <l2tp_session_param_defaults+0x1b0>
   35874:	e3003aa4 	movw	r3, #2724	; 0xaa4
   35878:	e3403006 	movt	r3, #6
   3587c:	e51b2020 	ldr	r2, [fp, #-32]	; 0xffffffe0
   35880:	e2822020 	add	r2, r2, #32
   35884:	e1a00003 	mov	r0, r3
   35888:	e1a01002 	mov	r1, r2
   3588c:	e51b2024 	ldr	r2, [fp, #-36]	; 0xffffffdc
[31m   35890:	ebff5d15 	bl	ccec <printf@plt>[0m
   35894:	ea00000a 	b	358c4 <l2tp_session_param_defaults+0x1dc>
   35898:	e51b3020 	ldr	r3, [fp, #-32]	; 0xffffffe0
--
   358dc:	e30737c0 	movw	r3, #30656	; 0x77c0
   358e0:	e3403007 	movt	r3, #7
   358e4:	e5933000 	ldr	r3, [r3]
   358e8:	e3530000 	cmp	r3, #0
   358ec:	0a000015 	beq	35948 <l2tp_session_param_defaults+0x260>
   358f0:	e30737d0 	movw	r3, #30672	; 0x77d0
   358f4:	e3403007 	movt	r3, #7
   358f8:	e5933000 	ldr	r3, [r3]
   358fc:	e2033004 	and	r3, r3, #4
   35900:	e3530000 	cmp	r3, #0
   35904:	0a00000f 	beq	35948 <l2tp_session_param_defaults+0x260>
   35908:	e30737cc 	movw	r3, #30668	; 0x77cc
   3590c:	e3403007 	movt	r3, #7
   35910:	e5933000 	ldr	r3, [r3]
   35914:	e3530000 	cmp	r3, #0
   35918:	0a000005 	beq	35934 <l2tp_session_param_defaults+0x24c>
   3591c:	e3003b24 	movw	r3, #2852	; 0xb24
   35920:	e3403006 	movt	r3, #6
   35924:	e1a00003 	mov	r0, r3
   35928:	e51b1024 	ldr	r1, [fp, #-36]	; 0xffffffdc
[31m   3592c:	ebff5cee 	bl	ccec <printf@plt>[0m
   35930:	ea000004 	b	35948 <l2tp_session_param_defaults+0x260>
   35934:	e3a00007 	mov	r0, #7
--
   35d24:	e3530000 	cmp	r3, #0
   35d28:	0a00001b 	beq	35d9c <l2tp_session_created_ind+0xa0>
   35d2c:	e30737d0 	movw	r3, #30672	; 0x77d0
   35d30:	e3403007 	movt	r3, #7
   35d34:	e5933000 	ldr	r3, [r3]
   35d38:	e2033040 	and	r3, r3, #64	; 0x40
   35d3c:	e3530000 	cmp	r3, #0
   35d40:	0a000015 	beq	35d9c <l2tp_session_created_ind+0xa0>
   35d44:	e30737cc 	movw	r3, #30668	; 0x77cc
   35d48:	e3403007 	movt	r3, #7
   35d4c:	e5933000 	ldr	r3, [r3]
   35d50:	e3530000 	cmp	r3, #0
   35d54:	0a000008 	beq	35d7c <l2tp_session_created_ind+0x80>
   35d58:	e3003bbc 	movw	r3, #3004	; 0xbbc
   35d5c:	e3403006 	movt	r3, #6
   35d60:	e51b201c 	ldr	r2, [fp, #-28]	; 0xffffffe4
   35d64:	e2822020 	add	r2, r2, #32
   35d68:	e1a00003 	mov	r0, r3
   35d6c:	e3021730 	movw	r1, #10032	; 0x2730
   35d70:	e3401006 	movt	r1, #6
[31m   35d74:	ebff5bdc 	bl	ccec <printf@plt>[0m
   35d78:	ea000007 	b	35d9c <l2tp_session_created_ind+0xa0>
   35d7c:	e51b301c 	ldr	r3, [fp, #-28]	; 0xffffffe4
--
   35e68:	e3530000 	cmp	r3, #0
   35e6c:	0a00001b 	beq	35ee0 <l2tp_session_deleted_ind+0xa0>
   35e70:	e30737d0 	movw	r3, #30672	; 0x77d0
   35e74:	e3403007 	movt	r3, #7
   35e78:	e5933000 	ldr	r3, [r3]
   35e7c:	e2033040 	and	r3, r3, #64	; 0x40
   35e80:	e3530000 	cmp	r3, #0
   35e84:	0a000015 	beq	35ee0 <l2tp_session_deleted_ind+0xa0>
   35e88:	e30737cc 	movw	r3, #30668	; 0x77cc
   35e8c:	e3403007 	movt	r3, #7
   35e90:	e5933000 	ldr	r3, [r3]
   35e94:	e3530000 	cmp	r3, #0
   35e98:	0a000008 	beq	35ec0 <l2tp_session_deleted_ind+0x80>
   35e9c:	e3003bbc 	movw	r3, #3004	; 0xbbc
   35ea0:	e3403006 	movt	r3, #6
   35ea4:	e51b201c 	ldr	r2, [fp, #-28]	; 0xffffffe4
   35ea8:	e2822020 	add	r2, r2, #32
   35eac:	e1a00003 	mov	r0, r3
   35eb0:	e3021714 	movw	r1, #10004	; 0x2714
   35eb4:	e3401006 	movt	r1, #6
[31m   35eb8:	ebff5b8b 	bl	ccec <printf@plt>[0m
   35ebc:	ea000007 	b	35ee0 <l2tp_session_deleted_ind+0xa0>
   35ec0:	e51b301c 	ldr	r3, [fp, #-28]	; 0xffffffe4
--
   35fac:	e3530000 	cmp	r3, #0
   35fb0:	0a00001b 	beq	36024 <l2tp_session_down_ind+0xa0>
   35fb4:	e30737d0 	movw	r3, #30672	; 0x77d0
   35fb8:	e3403007 	movt	r3, #7
   35fbc:	e5933000 	ldr	r3, [r3]
   35fc0:	e2033040 	and	r3, r3, #64	; 0x40
   35fc4:	e3530000 	cmp	r3, #0
   35fc8:	0a000015 	beq	36024 <l2tp_session_down_ind+0xa0>
   35fcc:	e30737cc 	movw	r3, #30668	; 0x77cc
   35fd0:	e3403007 	movt	r3, #7
   35fd4:	e5933000 	ldr	r3, [r3]
   35fd8:	e3530000 	cmp	r3, #0
   35fdc:	0a000008 	beq	36004 <l2tp_session_down_ind+0x80>
   35fe0:	e3003bbc 	movw	r3, #3004	; 0xbbc
   35fe4:	e3403006 	movt	r3, #6
   35fe8:	e51b201c 	ldr	r2, [fp, #-28]	; 0xffffffe4
   35fec:	e2822020 	add	r2, r2, #32
   35ff0:	e1a00003 	mov	r0, r3
   35ff4:	e30216fc 	movw	r1, #9980	; 0x26fc
   35ff8:	e3401006 	movt	r1, #6
[31m   35ffc:	ebff5b3a 	bl	ccec <printf@plt>[0m
   36000:	ea000007 	b	36024 <l2tp_session_down_ind+0xa0>
   36004:	e51b301c 	ldr	r3, [fp, #-28]	; 0xffffffe4
--
   360f0:	e3530000 	cmp	r3, #0
   360f4:	0a00001b 	beq	36168 <l2tp_session_up_ind+0xa0>
   360f8:	e30737d0 	movw	r3, #30672	; 0x77d0
   360fc:	e3403007 	movt	r3, #7
   36100:	e5933000 	ldr	r3, [r3]
   36104:	e2033040 	and	r3, r3, #64	; 0x40
   36108:	e3530000 	cmp	r3, #0
   3610c:	0a000015 	beq	36168 <l2tp_session_up_ind+0xa0>
   36110:	e30737cc 	movw	r3, #30668	; 0x77cc
   36114:	e3403007 	movt	r3, #7
   36118:	e5933000 	ldr	r3, [r3]
   3611c:	e3530000 	cmp	r3, #0
   36120:	0a000008 	beq	36148 <l2tp_session_up_ind+0x80>
   36124:	e3003bbc 	movw	r3, #3004	; 0xbbc
   36128:	e3403006 	movt	r3, #6
   3612c:	e51b2024 	ldr	r2, [fp, #-36]	; 0xffffffdc
   36130:	e2822020 	add	r2, r2, #32
   36134:	e1a00003 	mov	r0, r3
   36138:	e30216e8 	movw	r1, #9960	; 0x26e8
   3613c:	e3401006 	movt	r1, #6
[31m   36140:	ebff5ae9 	bl	ccec <printf@plt>[0m
   36144:	ea000007 	b	36168 <l2tp_session_up_ind+0xa0>
   36148:	e51b3024 	ldr	r3, [fp, #-36]	; 0xffffffdc
--
   37870:	e5933000 	ldr	r3, [r3]
   37874:	e2033001 	and	r3, r3, #1
   37878:	e6ef3073 	uxtb	r3, r3
   3787c:	e3530000 	cmp	r3, #0
   37880:	0a000019 	beq	378ec <l2tp_session_handle_msg_ocrq+0x104>
   37884:	e30737cc 	movw	r3, #30668	; 0x77cc
   37888:	e3403007 	movt	r3, #7
   3788c:	e5933000 	ldr	r3, [r3]
   37890:	e3530000 	cmp	r3, #0
   37894:	0a00000b 	beq	378c8 <l2tp_session_handle_msg_ocrq+0xe0>
   37898:	e3004c14 	movw	r4, #3092	; 0xc14
   3789c:	e3404006 	movt	r4, #6
   378a0:	e51b001c 	ldr	r0, [fp, #-28]	; 0xffffffe4
   378a4:	ebff9f4c 	bl	1f5dc <l2tp_tunnel_id>
   378a8:	e1a03000 	mov	r3, r0
   378ac:	e1a02003 	mov	r2, r3
   378b0:	e15b31be 	ldrh	r3, [fp, #-30]	; 0xffffffe2
   378b4:	e1a00004 	mov	r0, r4
   378b8:	e1a01002 	mov	r1, r2
   378bc:	e1a02003 	mov	r2, r3
[31m   378c0:	ebff5509 	bl	ccec <printf@plt>[0m
   378c4:	ea000008 	b	378ec <l2tp_session_handle_msg_ocrq+0x104>
   378c8:	e51b001c 	ldr	r0, [fp, #-28]	; 0xffffffe4
--
   391ec:	e3530000 	cmp	r3, #0
   391f0:	0a00001b 	beq	39264 <l2tp_session_laic_cleanup+0xa4>
   391f4:	e30737d0 	movw	r3, #30672	; 0x77d0
   391f8:	e3403007 	movt	r3, #7
   391fc:	e5933000 	ldr	r3, [r3]
   39200:	e2033040 	and	r3, r3, #64	; 0x40
   39204:	e3530000 	cmp	r3, #0
   39208:	0a000015 	beq	39264 <l2tp_session_laic_cleanup+0xa4>
   3920c:	e30737cc 	movw	r3, #30668	; 0x77cc
   39210:	e3403007 	movt	r3, #7
   39214:	e5933000 	ldr	r3, [r3]
   39218:	e3530000 	cmp	r3, #0
   3921c:	0a000008 	beq	39244 <l2tp_session_laic_cleanup+0x84>
   39220:	e3003bbc 	movw	r3, #3004	; 0xbbc
   39224:	e3403006 	movt	r3, #6
   39228:	e51b2008 	ldr	r2, [fp, #-8]
   3922c:	e2822020 	add	r2, r2, #32
   39230:	e1a00003 	mov	r0, r3
   39234:	e30216cc 	movw	r1, #9932	; 0x26cc
   39238:	e3401006 	movt	r1, #6
[31m   3923c:	ebff4eaa 	bl	ccec <printf@plt>[0m
   39240:	ea000007 	b	39264 <l2tp_session_laic_cleanup+0xa4>
   39244:	e51b3008 	ldr	r3, [fp, #-8]
--
   392e4:	e3530000 	cmp	r3, #0
   392e8:	0a00001b 	beq	3935c <l2tp_session_laic_cleanup+0x19c>
   392ec:	e30737d0 	movw	r3, #30672	; 0x77d0
   392f0:	e3403007 	movt	r3, #7
   392f4:	e5933000 	ldr	r3, [r3]
   392f8:	e2033040 	and	r3, r3, #64	; 0x40
   392fc:	e3530000 	cmp	r3, #0
   39300:	0a000015 	beq	3935c <l2tp_session_laic_cleanup+0x19c>
   39304:	e30737cc 	movw	r3, #30668	; 0x77cc
   39308:	e3403007 	movt	r3, #7
   3930c:	e5933000 	ldr	r3, [r3]
   39310:	e3530000 	cmp	r3, #0
   39314:	0a000008 	beq	3933c <l2tp_session_laic_cleanup+0x17c>
   39318:	e301328c 	movw	r3, #4748	; 0x128c
   3931c:	e3403006 	movt	r3, #6
   39320:	e51b2008 	ldr	r2, [fp, #-8]
   39324:	e2822020 	add	r2, r2, #32
   39328:	e1a00003 	mov	r0, r3
   3932c:	e30216cc 	movw	r1, #9932	; 0x26cc
   39330:	e3401006 	movt	r1, #6
[31m   39334:	ebff4e6c 	bl	ccec <printf@plt>[0m
   39338:	ea000007 	b	3935c <l2tp_session_laic_cleanup+0x19c>
   3933c:	e51b3008 	ldr	r3, [fp, #-8]
--
   39c48:	e5933000 	ldr	r3, [r3]
   39c4c:	e2033040 	and	r3, r3, #64	; 0x40
   39c50:	e3530000 	cmp	r3, #0
   39c54:	0a00004c 	beq	39d8c <l2tp_session_do_queued_event+0x240>
   39c58:	e30737cc 	movw	r3, #30668	; 0x77cc
   39c5c:	e3403007 	movt	r3, #7
   39c60:	e5933000 	ldr	r3, [r3]
   39c64:	e3530000 	cmp	r3, #0
   39c68:	0a00000c 	beq	39ca0 <l2tp_session_do_queued_event+0x154>
   39c6c:	e301355c 	movw	r3, #5468	; 0x155c
   39c70:	e3403006 	movt	r3, #6
   39c74:	e15b21bc 	ldrh	r2, [fp, #-28]	; 0xffffffe4
   39c78:	e15b11ba 	ldrh	r1, [fp, #-26]	; 0xffffffe6
   39c7c:	e1a0c001 	mov	ip, r1
   39c80:	e51b1018 	ldr	r1, [fp, #-24]	; 0xffffffe8
   39c84:	e58d1000 	str	r1, [sp]
   39c88:	e1a00003 	mov	r0, r3
   39c8c:	e30216ac 	movw	r1, #9900	; 0x26ac
   39c90:	e3401006 	movt	r1, #6
   39c94:	e1a0300c 	mov	r3, ip
[31m   39c98:	ebff4c13 	bl	ccec <printf@plt>[0m
   39c9c:	ea00003f 	b	39da0 <l2tp_session_do_queued_event+0x254>
   39ca0:	e15b31bc 	ldrh	r3, [fp, #-28]	; 0xffffffe4
--
   39cf0:	e5933000 	ldr	r3, [r3]
   39cf4:	e2033040 	and	r3, r3, #64	; 0x40
   39cf8:	e3530000 	cmp	r3, #0
   39cfc:	0a000026 	beq	39d9c <l2tp_session_do_queued_event+0x250>
   39d00:	e30737cc 	movw	r3, #30668	; 0x77cc
   39d04:	e3403007 	movt	r3, #7
   39d08:	e5933000 	ldr	r3, [r3]
   39d0c:	e3530000 	cmp	r3, #0
   39d10:	0a00000c 	beq	39d48 <l2tp_session_do_queued_event+0x1fc>
   39d14:	e30135dc 	movw	r3, #5596	; 0x15dc
   39d18:	e3403006 	movt	r3, #6
   39d1c:	e15b21bc 	ldrh	r2, [fp, #-28]	; 0xffffffe4
   39d20:	e15b11ba 	ldrh	r1, [fp, #-26]	; 0xffffffe6
   39d24:	e1a0c001 	mov	ip, r1
   39d28:	e51b1018 	ldr	r1, [fp, #-24]	; 0xffffffe8
   39d2c:	e58d1000 	str	r1, [sp]
   39d30:	e1a00003 	mov	r0, r3
   39d34:	e30216ac 	movw	r1, #9900	; 0x26ac
   39d38:	e3401006 	movt	r1, #6
   39d3c:	e1a0300c 	mov	r3, ip
[31m   39d40:	ebff4be9 	bl	ccec <printf@plt>[0m
   39d44:	ea000015 	b	39da0 <l2tp_session_do_queued_event+0x254>
   39d48:	e15b31bc 	ldrh	r3, [fp, #-28]	; 0xffffffe4
--
   39e94:	e3403007 	movt	r3, #7
   39e98:	e5933000 	ldr	r3, [r3]
   39e9c:	e2033040 	and	r3, r3, #64	; 0x40
   39ea0:	e3530000 	cmp	r3, #0
   39ea4:	0a00001b 	beq	39f18 <l2tp_session_inc_use_count+0xc0>
   39ea8:	e30737cc 	movw	r3, #30668	; 0x77cc
   39eac:	e3403007 	movt	r3, #7
   39eb0:	e5933000 	ldr	r3, [r3]
   39eb4:	e3530000 	cmp	r3, #0
   39eb8:	0a00000b 	beq	39eec <l2tp_session_inc_use_count+0x94>
   39ebc:	e30136a0 	movw	r3, #5792	; 0x16a0
   39ec0:	e3403006 	movt	r3, #6
   39ec4:	e51b2008 	ldr	r2, [fp, #-8]
   39ec8:	e2822020 	add	r2, r2, #32
   39ecc:	e51b1008 	ldr	r1, [fp, #-8]
   39ed0:	e591c048 	ldr	ip, [r1, #72]	; 0x48
   39ed4:	e1a00003 	mov	r0, r3
   39ed8:	e3021690 	movw	r1, #9872	; 0x2690
   39edc:	e3401006 	movt	r1, #6
   39ee0:	e1a0300c 	mov	r3, ip
[31m   39ee4:	ebff4b80 	bl	ccec <printf@plt>[0m
   39ee8:	ea00000a 	b	39f18 <l2tp_session_inc_use_count+0xc0>
   39eec:	e51b3008 	ldr	r3, [fp, #-8]
--
   39f60:	e3403007 	movt	r3, #7
   39f64:	e5933000 	ldr	r3, [r3]
   39f68:	e2033040 	and	r3, r3, #64	; 0x40
   39f6c:	e3530000 	cmp	r3, #0
   39f70:	0a00001b 	beq	39fe4 <l2tp_session_dec_use_count+0xc4>
   39f74:	e30737cc 	movw	r3, #30668	; 0x77cc
   39f78:	e3403007 	movt	r3, #7
   39f7c:	e5933000 	ldr	r3, [r3]
   39f80:	e3530000 	cmp	r3, #0
   39f84:	0a00000b 	beq	39fb8 <l2tp_session_dec_use_count+0x98>
   39f88:	e30136a0 	movw	r3, #5792	; 0x16a0
   39f8c:	e3403006 	movt	r3, #6
   39f90:	e51b2010 	ldr	r2, [fp, #-16]
   39f94:	e2822020 	add	r2, r2, #32
   39f98:	e51b1010 	ldr	r1, [fp, #-16]
   39f9c:	e591c048 	ldr	ip, [r1, #72]	; 0x48
   39fa0:	e1a00003 	mov	r0, r3
   39fa4:	e3021674 	movw	r1, #9844	; 0x2674
   39fa8:	e3401006 	movt	r1, #6
   39fac:	e1a0300c 	mov	r3, ip
[31m   39fb0:	ebff4b4d 	bl	ccec <printf@plt>[0m
   39fb4:	ea00000a 	b	39fe4 <l2tp_session_dec_use_count+0xc4>
   39fb8:	e51b3010 	ldr	r3, [fp, #-16]
--
   3a098:	e3530000 	cmp	r3, #0
   3a09c:	0a00001b 	beq	3a110 <l2tp_session_link+0x9c>
   3a0a0:	e30737d0 	movw	r3, #30672	; 0x77d0
   3a0a4:	e3403007 	movt	r3, #7
   3a0a8:	e5933000 	ldr	r3, [r3]
   3a0ac:	e2033040 	and	r3, r3, #64	; 0x40
   3a0b0:	e3530000 	cmp	r3, #0
   3a0b4:	0a000015 	beq	3a110 <l2tp_session_link+0x9c>
   3a0b8:	e30737cc 	movw	r3, #30668	; 0x77cc
   3a0bc:	e3403007 	movt	r3, #7
   3a0c0:	e5933000 	ldr	r3, [r3]
   3a0c4:	e3530000 	cmp	r3, #0
   3a0c8:	0a000008 	beq	3a0f0 <l2tp_session_link+0x7c>
   3a0cc:	e3003bbc 	movw	r3, #3004	; 0xbbc
   3a0d0:	e3403006 	movt	r3, #6
   3a0d4:	e51b2010 	ldr	r2, [fp, #-16]
   3a0d8:	e2822020 	add	r2, r2, #32
   3a0dc:	e1a00003 	mov	r0, r3
   3a0e0:	e3021660 	movw	r1, #9824	; 0x2660
   3a0e4:	e3401006 	movt	r1, #6
[31m   3a0e8:	ebff4aff 	bl	ccec <printf@plt>[0m
   3a0ec:	ea000007 	b	3a110 <l2tp_session_link+0x9c>
   3a0f0:	e51b3010 	ldr	r3, [fp, #-16]
--
   3a2c8:	0a000023 	beq	3a35c <l2tp_session_tunnel_detach+0xd0>
   3a2cc:	e30737cc 	movw	r3, #30668	; 0x77cc
   3a2d0:	e3403007 	movt	r3, #7
   3a2d4:	e5933000 	ldr	r3, [r3]
   3a2d8:	e3530000 	cmp	r3, #0
   3a2dc:	0a00000f 	beq	3a320 <l2tp_session_tunnel_detach+0x94>
   3a2e0:	e30147c0 	movw	r4, #6080	; 0x17c0
   3a2e4:	e3404006 	movt	r4, #6
   3a2e8:	e51b0010 	ldr	r0, [fp, #-16]
   3a2ec:	ebff94ba 	bl	1f5dc <l2tp_tunnel_id>
   3a2f0:	e1a03000 	mov	r3, r0
   3a2f4:	e1a02003 	mov	r2, r3
   3a2f8:	e51b3014 	ldr	r3, [fp, #-20]	; 0xffffffec
   3a2fc:	e2833020 	add	r3, r3, #32
   3a300:	e51b1014 	ldr	r1, [fp, #-20]	; 0xffffffec
   3a304:	e5911048 	ldr	r1, [r1, #72]	; 0x48
   3a308:	e58d1000 	str	r1, [sp]
   3a30c:	e1a00004 	mov	r0, r4
   3a310:	e3021628 	movw	r1, #9768	; 0x2628
   3a314:	e3401006 	movt	r1, #6
[31m   3a318:	ebff4a73 	bl	ccec <printf@plt>[0m
   3a31c:	ea00000e 	b	3a35c <l2tp_session_tunnel_detach+0xd0>
   3a320:	e51b0010 	ldr	r0, [fp, #-16]
--
   3a454:	0a000023 	beq	3a4e8 <l2tp_session_tunnel_attach+0xd0>
   3a458:	e30737cc 	movw	r3, #30668	; 0x77cc
   3a45c:	e3403007 	movt	r3, #7
   3a460:	e5933000 	ldr	r3, [r3]
   3a464:	e3530000 	cmp	r3, #0
   3a468:	0a00000f 	beq	3a4ac <l2tp_session_tunnel_attach+0x94>
   3a46c:	e3014858 	movw	r4, #6232	; 0x1858
   3a470:	e3404006 	movt	r4, #6
   3a474:	e51b0010 	ldr	r0, [fp, #-16]
   3a478:	ebff9457 	bl	1f5dc <l2tp_tunnel_id>
   3a47c:	e1a03000 	mov	r3, r0
   3a480:	e1a02003 	mov	r2, r3
   3a484:	e51b3014 	ldr	r3, [fp, #-20]	; 0xffffffec
   3a488:	e2833020 	add	r3, r3, #32
   3a48c:	e51b1014 	ldr	r1, [fp, #-20]	; 0xffffffec
   3a490:	e5911048 	ldr	r1, [r1, #72]	; 0x48
   3a494:	e58d1000 	str	r1, [sp]
   3a498:	e1a00004 	mov	r0, r4
   3a49c:	e30215f0 	movw	r1, #9712	; 0x25f0
   3a4a0:	e3401006 	movt	r1, #6
[31m   3a4a4:	ebff4a10 	bl	ccec <printf@plt>[0m
   3a4a8:	ea00000e 	b	3a4e8 <l2tp_session_tunnel_attach+0xd0>
   3a4ac:	e51b0010 	ldr	r0, [fp, #-16]
--
   3a6e0:	e3530000 	cmp	r3, #0
   3a6e4:	0a000022 	beq	3a774 <l2tp_session_retry_timer_expired+0x138>
   3a6e8:	e30737cc 	movw	r3, #30668	; 0x77cc
   3a6ec:	e3403007 	movt	r3, #7
   3a6f0:	e5933000 	ldr	r3, [r3]
   3a6f4:	e3530000 	cmp	r3, #0
   3a6f8:	0a00000e 	beq	3a738 <l2tp_session_retry_timer_expired+0xfc>
   3a6fc:	e301493c 	movw	r4, #6460	; 0x193c
   3a700:	e3404006 	movt	r4, #6
   3a704:	e51b3010 	ldr	r3, [fp, #-16]
   3a708:	e2835020 	add	r5, r3, #32
   3a70c:	e51b3010 	ldr	r3, [fp, #-16]
   3a710:	e5933038 	ldr	r3, [r3, #56]	; 0x38
   3a714:	e1a00003 	mov	r0, r3
   3a718:	ebff93af 	bl	1f5dc <l2tp_tunnel_id>
   3a71c:	e1a03000 	mov	r3, r0
   3a720:	e1a00004 	mov	r0, r4
   3a724:	e30215cc 	movw	r1, #9676	; 0x25cc
   3a728:	e3401006 	movt	r1, #6
   3a72c:	e1a02005 	mov	r2, r5
[31m   3a730:	ebff496d 	bl	ccec <printf@plt>[0m
   3a734:	ea00000e 	b	3a774 <l2tp_session_retry_timer_expired+0x138>
   3a738:	e51b3010 	ldr	r3, [fp, #-16]
--
   3a84c:	e3530000 	cmp	r3, #0
   3a850:	0a000020 	beq	3a8d8 <l2tp_session_persist+0xc0>
   3a854:	e30737cc 	movw	r3, #30668	; 0x77cc
   3a858:	e3403007 	movt	r3, #7
   3a85c:	e5933000 	ldr	r3, [r3]
   3a860:	e3530000 	cmp	r3, #0
   3a864:	0a00000e 	beq	3a8a4 <l2tp_session_persist+0x8c>
   3a868:	e30139bc 	movw	r3, #6588	; 0x19bc
   3a86c:	e3403006 	movt	r3, #6
   3a870:	e51b2008 	ldr	r2, [fp, #-8]
   3a874:	e2822020 	add	r2, r2, #32
   3a878:	e51b1008 	ldr	r1, [fp, #-8]
   3a87c:	e5d110d8 	ldrb	r1, [r1, #216]	; 0xd8
   3a880:	e7e011d1 	ubfx	r1, r1, #3, #1
   3a884:	e6ef1071 	uxtb	r1, r1
   3a888:	e1a0c001 	mov	ip, r1
   3a88c:	e1a00003 	mov	r0, r3
   3a890:	e3021578 	movw	r1, #9592	; 0x2578
   3a894:	e3401006 	movt	r1, #6
   3a898:	e1a0300c 	mov	r3, ip
[31m   3a89c:	ebff4912 	bl	ccec <printf@plt>[0m
   3a8a0:	ea00000c 	b	3a8d8 <l2tp_session_persist+0xc0>
   3a8a4:	e51b3008 	ldr	r3, [fp, #-8]
--
   3aa94:	e3403007 	movt	r3, #7
   3aa98:	e5933000 	ldr	r3, [r3]
   3aa9c:	e2033040 	and	r3, r3, #64	; 0x40
   3aaa0:	e3530000 	cmp	r3, #0
   3aaa4:	0a00001b 	beq	3ab18 <l2tp_session_persist+0x300>
   3aaa8:	e30737cc 	movw	r3, #30668	; 0x77cc
   3aaac:	e3403007 	movt	r3, #7
   3aab0:	e5933000 	ldr	r3, [r3]
   3aab4:	e3530000 	cmp	r3, #0
   3aab8:	0a00000b 	beq	3aaec <l2tp_session_persist+0x2d4>
   3aabc:	e3013aa4 	movw	r3, #6820	; 0x1aa4
   3aac0:	e3403006 	movt	r3, #6
   3aac4:	e51b2008 	ldr	r2, [fp, #-8]
   3aac8:	e2822020 	add	r2, r2, #32
   3aacc:	e51b1008 	ldr	r1, [fp, #-8]
   3aad0:	e591c050 	ldr	ip, [r1, #80]	; 0x50
   3aad4:	e1a00003 	mov	r0, r3
   3aad8:	e3021578 	movw	r1, #9592	; 0x2578
   3aadc:	e3401006 	movt	r1, #6
   3aae0:	e1a0300c 	mov	r3, ip
[31m   3aae4:	ebff4880 	bl	ccec <printf@plt>[0m
   3aae8:	ea00000a 	b	3ab18 <l2tp_session_persist+0x300>
   3aaec:	e51b3008 	ldr	r3, [fp, #-8]
--
   3ab94:	0a00001e 	beq	3ac14 <l2tp_session_unlink+0xa4>
   3ab98:	e30737d0 	movw	r3, #30672	; 0x77d0
   3ab9c:	e3403007 	movt	r3, #7
   3aba0:	e5933000 	ldr	r3, [r3]
   3aba4:	e2033040 	and	r3, r3, #64	; 0x40
   3aba8:	e3530000 	cmp	r3, #0
   3abac:	0a000018 	beq	3ac14 <l2tp_session_unlink+0xa4>
   3abb0:	e30737cc 	movw	r3, #30668	; 0x77cc
   3abb4:	e3403007 	movt	r3, #7
   3abb8:	e5933000 	ldr	r3, [r3]
   3abbc:	e3530000 	cmp	r3, #0
   3abc0:	0a000009 	beq	3abec <l2tp_session_unlink+0x7c>
   3abc4:	e3013b04 	movw	r3, #6916	; 0x1b04
   3abc8:	e3403006 	movt	r3, #6
   3abcc:	e51b2008 	ldr	r2, [fp, #-8]
   3abd0:	e2822020 	add	r2, r2, #32
   3abd4:	e1a00003 	mov	r0, r3
   3abd8:	e3021564 	movw	r1, #9572	; 0x2564
   3abdc:	e3401006 	movt	r1, #6
   3abe0:	e51b300c 	ldr	r3, [fp, #-12]
[31m   3abe4:	ebff4840 	bl	ccec <printf@plt>[0m
   3abe8:	ea000009 	b	3ac14 <l2tp_session_unlink+0xa4>
   3abec:	e51b3008 	ldr	r3, [fp, #-8]
--
   3b174:	e3530000 	cmp	r3, #0
   3b178:	0a00001b 	beq	3b1ec <l2tp_session_alloc+0x574>
   3b17c:	e30737d0 	movw	r3, #30672	; 0x77d0
   3b180:	e3403007 	movt	r3, #7
   3b184:	e5933000 	ldr	r3, [r3]
   3b188:	e2033040 	and	r3, r3, #64	; 0x40
   3b18c:	e3530000 	cmp	r3, #0
   3b190:	0a000015 	beq	3b1ec <l2tp_session_alloc+0x574>
   3b194:	e30737cc 	movw	r3, #30668	; 0x77cc
   3b198:	e3403007 	movt	r3, #7
   3b19c:	e5933000 	ldr	r3, [r3]
   3b1a0:	e3530000 	cmp	r3, #0
   3b1a4:	0a000008 	beq	3b1cc <l2tp_session_alloc+0x554>
   3b1a8:	e3013ca0 	movw	r3, #7328	; 0x1ca0
   3b1ac:	e3403006 	movt	r3, #6
   3b1b0:	e51b2010 	ldr	r2, [fp, #-16]
   3b1b4:	e2822020 	add	r2, r2, #32
   3b1b8:	e1a00003 	mov	r0, r3
   3b1bc:	e3021550 	movw	r1, #9552	; 0x2550
   3b1c0:	e3401006 	movt	r1, #6
[31m   3b1c4:	ebff46c8 	bl	ccec <printf@plt>[0m
   3b1c8:	ea000007 	b	3b1ec <l2tp_session_alloc+0x574>
   3b1cc:	e51b3010 	ldr	r3, [fp, #-16]
--
   3b284:	e5933000 	ldr	r3, [r3]
   3b288:	e2033040 	and	r3, r3, #64	; 0x40
   3b28c:	e3530000 	cmp	r3, #0
   3b290:	0a00001e 	beq	3b310 <l2tp_session_alloc+0x698>
   3b294:	e30737cc 	movw	r3, #30668	; 0x77cc
   3b298:	e3403007 	movt	r3, #7
   3b29c:	e5933000 	ldr	r3, [r3]
   3b2a0:	e3530000 	cmp	r3, #0
   3b2a4:	0a00000c 	beq	3b2dc <l2tp_session_alloc+0x664>
   3b2a8:	e3014cf0 	movw	r4, #7408	; 0x1cf0
   3b2ac:	e3404006 	movt	r4, #6
   3b2b0:	e51b3010 	ldr	r3, [fp, #-16]
   3b2b4:	e2835020 	add	r5, r3, #32
   3b2b8:	e51b0018 	ldr	r0, [fp, #-24]	; 0xffffffe8
   3b2bc:	ebff90c6 	bl	1f5dc <l2tp_tunnel_id>
   3b2c0:	e1a03000 	mov	r3, r0
   3b2c4:	e1a00004 	mov	r0, r4
   3b2c8:	e3021550 	movw	r1, #9552	; 0x2550
   3b2cc:	e3401006 	movt	r1, #6
   3b2d0:	e1a02005 	mov	r2, r5
[31m   3b2d4:	ebff4684 	bl	ccec <printf@plt>[0m
   3b2d8:	ea00000c 	b	3b310 <l2tp_session_alloc+0x698>
   3b2dc:	e51b3010 	ldr	r3, [fp, #-16]
--
   3b398:	e3403007 	movt	r3, #7
   3b39c:	e5933000 	ldr	r3, [r3]
   3b3a0:	e2033040 	and	r3, r3, #64	; 0x40
   3b3a4:	e3530000 	cmp	r3, #0
   3b3a8:	0a00001b 	beq	3b41c <l2tp_session_alloc+0x7a4>
   3b3ac:	e30737cc 	movw	r3, #30668	; 0x77cc
   3b3b0:	e3403007 	movt	r3, #7
   3b3b4:	e5933000 	ldr	r3, [r3]
   3b3b8:	e3530000 	cmp	r3, #0
   3b3bc:	0a00000b 	beq	3b3f0 <l2tp_session_alloc+0x778>
   3b3c0:	e3013d4c 	movw	r3, #7500	; 0x1d4c
   3b3c4:	e3403006 	movt	r3, #6
   3b3c8:	e51b2010 	ldr	r2, [fp, #-16]
   3b3cc:	e2822020 	add	r2, r2, #32
   3b3d0:	e51b1010 	ldr	r1, [fp, #-16]
   3b3d4:	e591c04c 	ldr	ip, [r1, #76]	; 0x4c
   3b3d8:	e1a00003 	mov	r0, r3
   3b3dc:	e3021550 	movw	r1, #9552	; 0x2550
   3b3e0:	e3401006 	movt	r1, #6
   3b3e4:	e1a0300c 	mov	r3, ip
[31m   3b3e8:	ebff463f 	bl	ccec <printf@plt>[0m
   3b3ec:	ea00000a 	b	3b41c <l2tp_session_alloc+0x7a4>
   3b3f0:	e51b3010 	ldr	r3, [fp, #-16]
--
   3b504:	e3530000 	cmp	r3, #0
   3b508:	0a00001b 	beq	3b57c <l2tp_session_free+0x94>
   3b50c:	e30737d0 	movw	r3, #30672	; 0x77d0
   3b510:	e3403007 	movt	r3, #7
   3b514:	e5933000 	ldr	r3, [r3]
   3b518:	e2033040 	and	r3, r3, #64	; 0x40
   3b51c:	e3530000 	cmp	r3, #0
   3b520:	0a000015 	beq	3b57c <l2tp_session_free+0x94>
   3b524:	e30737cc 	movw	r3, #30668	; 0x77cc
   3b528:	e3403007 	movt	r3, #7
   3b52c:	e5933000 	ldr	r3, [r3]
   3b530:	e3530000 	cmp	r3, #0
   3b534:	0a000008 	beq	3b55c <l2tp_session_free+0x74>
   3b538:	e3013d9c 	movw	r3, #7580	; 0x1d9c
   3b53c:	e3403006 	movt	r3, #6
   3b540:	e51b2010 	ldr	r2, [fp, #-16]
   3b544:	e1d22db4 	ldrh	r2, [r2, #212]	; 0xd4
   3b548:	e1a00003 	mov	r0, r3
   3b54c:	e302153c 	movw	r1, #9532	; 0x253c
   3b550:	e3401006 	movt	r1, #6
[31m   3b554:	ebff45e4 	bl	ccec <printf@plt>[0m
   3b558:	ea000007 	b	3b57c <l2tp_session_free+0x94>
   3b55c:	e51b3010 	ldr	r3, [fp, #-16]
--
   3ba5c:	e3530000 	cmp	r3, #0
   3ba60:	0a000022 	beq	3baf0 <l2tp_session_free+0x608>
   3ba64:	e30737cc 	movw	r3, #30668	; 0x77cc
   3ba68:	e3403007 	movt	r3, #7
   3ba6c:	e5933000 	ldr	r3, [r3]
   3ba70:	e3530000 	cmp	r3, #0
   3ba74:	0a00000e 	beq	3bab4 <l2tp_session_free+0x5cc>
   3ba78:	e3014de4 	movw	r4, #7652	; 0x1de4
   3ba7c:	e3404006 	movt	r4, #6
   3ba80:	e51b3010 	ldr	r3, [fp, #-16]
   3ba84:	e2835020 	add	r5, r3, #32
   3ba88:	e51b3010 	ldr	r3, [fp, #-16]
   3ba8c:	e5933038 	ldr	r3, [r3, #56]	; 0x38
   3ba90:	e1a00003 	mov	r0, r3
   3ba94:	ebff8ed0 	bl	1f5dc <l2tp_tunnel_id>
   3ba98:	e1a03000 	mov	r3, r0
   3ba9c:	e1a00004 	mov	r0, r4
   3baa0:	e302153c 	movw	r1, #9532	; 0x253c
   3baa4:	e3401006 	movt	r1, #6
   3baa8:	e1a02005 	mov	r2, r5
[31m   3baac:	ebff448e 	bl	ccec <printf@plt>[0m
   3bab0:	ea00000e 	b	3baf0 <l2tp_session_free+0x608>
   3bab4:	e51b3010 	ldr	r3, [fp, #-16]
--
   3bb9c:	e5933000 	ldr	r3, [r3]
   3bba0:	e3530000 	cmp	r3, #0
   3bba4:	0a000012 	beq	3bbf4 <l2tp_session_tunnel_updown_event+0xa0>
   3bba8:	e3014e44 	movw	r4, #7748	; 0x1e44
   3bbac:	e3404006 	movt	r4, #6
   3bbb0:	e51b0020 	ldr	r0, [fp, #-32]	; 0xffffffe0
   3bbb4:	ebff8e88 	bl	1f5dc <l2tp_tunnel_id>
   3bbb8:	e1a03000 	mov	r3, r0
   3bbbc:	e1a02003 	mov	r2, r3
   3bbc0:	e51b3024 	ldr	r3, [fp, #-36]	; 0xffffffdc
   3bbc4:	e3530000 	cmp	r3, #0
   3bbc8:	0a000002 	beq	3bbd8 <l2tp_session_tunnel_updown_event+0x84>
   3bbcc:	e3013e60 	movw	r3, #7776	; 0x1e60
   3bbd0:	e3403006 	movt	r3, #6
   3bbd4:	ea000001 	b	3bbe0 <l2tp_session_tunnel_updown_event+0x8c>
   3bbd8:	e3013e64 	movw	r3, #7780	; 0x1e64
   3bbdc:	e3403006 	movt	r3, #6
   3bbe0:	e1a00004 	mov	r0, r4
   3bbe4:	e3021518 	movw	r1, #9496	; 0x2518
   3bbe8:	e3401006 	movt	r1, #6
[31m   3bbec:	ebff443e 	bl	ccec <printf@plt>[0m
   3bbf0:	ea000013 	b	3bc44 <l2tp_session_tunnel_updown_event+0xf0>
   3bbf4:	e51b0020 	ldr	r0, [fp, #-32]	; 0xffffffe0
--
   3d0c0:	e3530001 	cmp	r3, #1
   3d0c4:	1a000009 	bne	3d0f0 <l2tp_session_create_1_svc+0xb4>
   3d0c8:	e59b3014 	ldr	r3, [fp, #20]
   3d0cc:	e3530000 	cmp	r3, #0
   3d0d0:	0a000006 	beq	3d0f0 <l2tp_session_create_1_svc+0xb4>
   3d0d4:	e59b3010 	ldr	r3, [fp, #16]
   3d0d8:	e3530001 	cmp	r3, #1
   3d0dc:	1a000001 	bne	3d0e8 <l2tp_session_create_1_svc+0xac>
   3d0e0:	e59b3014 	ldr	r3, [fp, #20]
   3d0e4:	ea000000 	b	3d0ec <l2tp_session_create_1_svc+0xb0>
   3d0e8:	e3a03000 	mov	r3, #0
   3d0ec:	ea000001 	b	3d0f8 <l2tp_session_create_1_svc+0xbc>
   3d0f0:	e30038bc 	movw	r3, #2236	; 0x8bc
   3d0f4:	e3403006 	movt	r3, #6
   3d0f8:	e1db10ba 	ldrh	r1, [fp, #10]
   3d0fc:	e58d1000 	str	r1, [sp]
   3d100:	e1a00002 	mov	r0, r2
   3d104:	e30214fc 	movw	r1, #9468	; 0x24fc
   3d108:	e3401006 	movt	r1, #6
   3d10c:	e1a0200c 	mov	r2, ip
[31m   3d110:	ebff3ef5 	bl	ccec <printf@plt>[0m
   3d114:	ea00001a 	b	3d184 <l2tp_session_create_1_svc+0x148>
   3d118:	e1db30b8 	ldrh	r3, [fp, #8]
--
   3d434:	e3530000 	cmp	r3, #0
   3d438:	0a00001b 	beq	3d4ac <l2tp_session_create_1_svc+0x470>
   3d43c:	e30737d0 	movw	r3, #30672	; 0x77d0
   3d440:	e3403007 	movt	r3, #7
   3d444:	e5933000 	ldr	r3, [r3]
   3d448:	e2033004 	and	r3, r3, #4
   3d44c:	e3530000 	cmp	r3, #0
   3d450:	0a000015 	beq	3d4ac <l2tp_session_create_1_svc+0x470>
   3d454:	e30737cc 	movw	r3, #30668	; 0x77cc
   3d458:	e3403007 	movt	r3, #7
   3d45c:	e5933000 	ldr	r3, [r3]
   3d460:	e3530000 	cmp	r3, #0
   3d464:	0a000008 	beq	3d48c <l2tp_session_create_1_svc+0x450>
   3d468:	e302308c 	movw	r3, #8332	; 0x208c
   3d46c:	e3403006 	movt	r3, #6
   3d470:	e59b21fc 	ldr	r2, [fp, #508]	; 0x1fc
   3d474:	e5922000 	ldr	r2, [r2]
   3d478:	e1a00003 	mov	r0, r3
   3d47c:	e30214fc 	movw	r1, #9468	; 0x24fc
   3d480:	e3401006 	movt	r1, #6
[31m   3d484:	ebff3e18 	bl	ccec <printf@plt>[0m
   3d488:	ea000007 	b	3d4ac <l2tp_session_create_1_svc+0x470>
   3d48c:	e59b31fc 	ldr	r3, [fp, #508]	; 0x1fc
--
   3d738:	e3530000 	cmp	r3, #0
   3d73c:	0a00001b 	beq	3d7b0 <l2tp_session_delete_1_svc+0x2b4>
   3d740:	e30737d0 	movw	r3, #30672	; 0x77d0
   3d744:	e3403007 	movt	r3, #7
   3d748:	e5933000 	ldr	r3, [r3]
   3d74c:	e2033004 	and	r3, r3, #4
   3d750:	e3530000 	cmp	r3, #0
   3d754:	0a000015 	beq	3d7b0 <l2tp_session_delete_1_svc+0x2b4>
   3d758:	e30737cc 	movw	r3, #30668	; 0x77cc
   3d75c:	e3403007 	movt	r3, #7
   3d760:	e5933000 	ldr	r3, [r3]
   3d764:	e3530000 	cmp	r3, #0
   3d768:	0a000008 	beq	3d790 <l2tp_session_delete_1_svc+0x294>
   3d76c:	e302308c 	movw	r3, #8332	; 0x208c
   3d770:	e3403006 	movt	r3, #6
   3d774:	e59b2014 	ldr	r2, [fp, #20]
   3d778:	e5922000 	ldr	r2, [r2]
   3d77c:	e1a00003 	mov	r0, r3
   3d780:	e30214e0 	movw	r1, #9440	; 0x24e0
   3d784:	e3401006 	movt	r1, #6
[31m   3d788:	ebff3d57 	bl	ccec <printf@plt>[0m
   3d78c:	ea000007 	b	3d7b0 <l2tp_session_delete_1_svc+0x2b4>
   3d790:	e59b3014 	ldr	r3, [fp, #20]
--
   3d99c:	e3530000 	cmp	r3, #0
   3d9a0:	0a00001b 	beq	3da14 <l2tp_session_modify_1_svc+0x254>
   3d9a4:	e30737d0 	movw	r3, #30672	; 0x77d0
   3d9a8:	e3403007 	movt	r3, #7
   3d9ac:	e5933000 	ldr	r3, [r3]
   3d9b0:	e2033004 	and	r3, r3, #4
   3d9b4:	e3530000 	cmp	r3, #0
   3d9b8:	0a000015 	beq	3da14 <l2tp_session_modify_1_svc+0x254>
   3d9bc:	e30737cc 	movw	r3, #30668	; 0x77cc
   3d9c0:	e3403007 	movt	r3, #7
   3d9c4:	e5933000 	ldr	r3, [r3]
   3d9c8:	e3530000 	cmp	r3, #0
   3d9cc:	0a000008 	beq	3d9f4 <l2tp_session_modify_1_svc+0x234>
   3d9d0:	e302308c 	movw	r3, #8332	; 0x208c
   3d9d4:	e3403006 	movt	r3, #6
   3d9d8:	e59b21fc 	ldr	r2, [fp, #508]	; 0x1fc
   3d9dc:	e5922000 	ldr	r2, [r2]
   3d9e0:	e1a00003 	mov	r0, r3
   3d9e4:	e30214c4 	movw	r1, #9412	; 0x24c4
   3d9e8:	e3401006 	movt	r1, #6
[31m   3d9ec:	ebff3cbe 	bl	ccec <printf@plt>[0m
   3d9f0:	ea000007 	b	3da14 <l2tp_session_modify_1_svc+0x254>
   3d9f4:	e59b31fc 	ldr	r3, [fp, #508]	; 0x1fc
--
   3f230:	e3530000 	cmp	r3, #0
   3f234:	0a00001b 	beq	3f2a8 <l2tp_session_get_1_svc+0x2f0>
   3f238:	e30737d0 	movw	r3, #30672	; 0x77d0
   3f23c:	e3403007 	movt	r3, #7
   3f240:	e5933000 	ldr	r3, [r3]
   3f244:	e2033004 	and	r3, r3, #4
   3f248:	e3530000 	cmp	r3, #0
   3f24c:	0a000015 	beq	3f2a8 <l2tp_session_get_1_svc+0x2f0>
   3f250:	e30737cc 	movw	r3, #30668	; 0x77cc
   3f254:	e3403007 	movt	r3, #7
   3f258:	e5933000 	ldr	r3, [r3]
   3f25c:	e3530000 	cmp	r3, #0
   3f260:	0a000008 	beq	3f288 <l2tp_session_get_1_svc+0x2d0>
   3f264:	e302308c 	movw	r3, #8332	; 0x208c
   3f268:	e3403006 	movt	r3, #6
   3f26c:	e59b200c 	ldr	r2, [fp, #12]
   3f270:	e5922008 	ldr	r2, [r2, #8]
   3f274:	e1a00003 	mov	r0, r3
   3f278:	e30214ac 	movw	r1, #9388	; 0x24ac
   3f27c:	e3401006 	movt	r1, #6
[31m   3f280:	ebff3699 	bl	ccec <printf@plt>[0m
   3f284:	ea000007 	b	3f2a8 <l2tp_session_get_1_svc+0x2f0>
   3f288:	e59b300c 	ldr	r3, [fp, #12]
--
   3f5d0:	0a000001 	beq	3f5dc <l2tp_session_ppp_updown_ind+0x90>
   3f5d4:	e59b2004 	ldr	r2, [fp, #4]
   3f5d8:	ea000001 	b	3f5e4 <l2tp_session_ppp_updown_ind+0x98>
   3f5dc:	e302212c 	movw	r2, #8492	; 0x212c
   3f5e0:	e3402006 	movt	r2, #6
   3f5e4:	e59b3008 	ldr	r3, [fp, #8]
   3f5e8:	e3530000 	cmp	r3, #0
   3f5ec:	0a000001 	beq	3f5f8 <l2tp_session_ppp_updown_ind+0xac>
   3f5f0:	e59b3008 	ldr	r3, [fp, #8]
   3f5f4:	ea000001 	b	3f600 <l2tp_session_ppp_updown_ind+0xb4>
   3f5f8:	e302312c 	movw	r3, #8492	; 0x212c
   3f5fc:	e3403006 	movt	r3, #6
   3f600:	e51b0014 	ldr	r0, [fp, #-20]	; 0xffffffec
   3f604:	e58d0000 	str	r0, [sp]
   3f608:	e58d2004 	str	r2, [sp, #4]
   3f60c:	e58d3008 	str	r3, [sp, #8]
   3f610:	e1a00001 	mov	r0, r1
   3f614:	e1a0100e 	mov	r1, lr
   3f618:	e1a0200c 	mov	r2, ip
   3f61c:	e51b3018 	ldr	r3, [fp, #-24]	; 0xffffffe8
[31m   3f620:	ebff35b1 	bl	ccec <printf@plt>[0m
   3f624:	ea00001b 	b	3f698 <l2tp_session_ppp_updown_ind+0x14c>
   3f628:	e15be0be 	ldrh	lr, [fp, #-14]
--
   3f900:	0a00001e 	beq	3f980 <l2tp_session_ppp_accm_ind+0xbc>
   3f904:	e30737d0 	movw	r3, #30672	; 0x77d0
   3f908:	e3403007 	movt	r3, #7
   3f90c:	e5933000 	ldr	r3, [r3]
   3f910:	e2033004 	and	r3, r3, #4
   3f914:	e3530000 	cmp	r3, #0
   3f918:	0a000018 	beq	3f980 <l2tp_session_ppp_accm_ind+0xbc>
   3f91c:	e30737cc 	movw	r3, #30668	; 0x77cc
   3f920:	e3403007 	movt	r3, #7
   3f924:	e5933000 	ldr	r3, [r3]
   3f928:	e3530000 	cmp	r3, #0
   3f92c:	0a000009 	beq	3f958 <l2tp_session_ppp_accm_ind+0x94>
   3f930:	e30231b0 	movw	r3, #8624	; 0x21b0
   3f934:	e3403006 	movt	r3, #6
   3f938:	e15b10be 	ldrh	r1, [fp, #-14]
   3f93c:	e15b21b0 	ldrh	r2, [fp, #-16]
   3f940:	e51b0018 	ldr	r0, [fp, #-24]	; 0xffffffe8
   3f944:	e58d0000 	str	r0, [sp]
   3f948:	e1a00003 	mov	r0, r3
   3f94c:	e51b3014 	ldr	r3, [fp, #-20]	; 0xffffffec
[31m   3f950:	ebff34e5 	bl	ccec <printf@plt>[0m
   3f954:	ea000009 	b	3f980 <l2tp_session_ppp_accm_ind+0xbc>
   3f958:	e15b20be 	ldrh	r2, [fp, #-14]
--
   402dc:	e5933000 	ldr	r3, [r3]
   402e0:	e3530000 	cmp	r3, #0
   402e4:	0a000019 	beq	40350 <l2tp_session_profile_create_1_svc+0x1b4>
   402e8:	e30737d0 	movw	r3, #30672	; 0x77d0
   402ec:	e3403007 	movt	r3, #7
   402f0:	e5933000 	ldr	r3, [r3]
   402f4:	e2033040 	and	r3, r3, #64	; 0x40
   402f8:	e3530000 	cmp	r3, #0
   402fc:	0a000013 	beq	40350 <l2tp_session_profile_create_1_svc+0x1b4>
   40300:	e30737cc 	movw	r3, #30668	; 0x77cc
   40304:	e3403007 	movt	r3, #7
   40308:	e5933000 	ldr	r3, [r3]
   4030c:	e3530000 	cmp	r3, #0
   40310:	0a000007 	beq	40334 <l2tp_session_profile_create_1_svc+0x198>
   40314:	e3023210 	movw	r3, #8720	; 0x2210
   40318:	e3403006 	movt	r3, #6
   4031c:	e51b200c 	ldr	r2, [fp, #-12]
   40320:	e5922008 	ldr	r2, [r2, #8]
   40324:	e1a00003 	mov	r0, r3
   40328:	e1a01002 	mov	r1, r2
[31m   4032c:	ebff326e 	bl	ccec <printf@plt>[0m
   40330:	ea000006 	b	40350 <l2tp_session_profile_create_1_svc+0x1b4>
   40334:	e51b300c 	ldr	r3, [fp, #-12]
--
   40390:	e3530000 	cmp	r3, #0
   40394:	0a00001b 	beq	40408 <l2tp_session_profile_create_1_svc+0x26c>
   40398:	e30737d0 	movw	r3, #30672	; 0x77d0
   4039c:	e3403007 	movt	r3, #7
   403a0:	e5933000 	ldr	r3, [r3]
   403a4:	e2033004 	and	r3, r3, #4
   403a8:	e3530000 	cmp	r3, #0
   403ac:	0a000015 	beq	40408 <l2tp_session_profile_create_1_svc+0x26c>
   403b0:	e30737cc 	movw	r3, #30668	; 0x77cc
   403b4:	e3403007 	movt	r3, #7
   403b8:	e5933000 	ldr	r3, [r3]
   403bc:	e3530000 	cmp	r3, #0
   403c0:	0a000008 	beq	403e8 <l2tp_session_profile_create_1_svc+0x24c>
   403c4:	e302308c 	movw	r3, #8332	; 0x208c
   403c8:	e3403006 	movt	r3, #6
   403cc:	e59b206c 	ldr	r2, [fp, #108]	; 0x6c
   403d0:	e5922000 	ldr	r2, [r2]
   403d4:	e1a00003 	mov	r0, r3
   403d8:	e3021488 	movw	r1, #9352	; 0x2488
   403dc:	e3401006 	movt	r1, #6
[31m   403e0:	ebff3241 	bl	ccec <printf@plt>[0m
   403e4:	ea000007 	b	40408 <l2tp_session_profile_create_1_svc+0x26c>
   403e8:	e59b306c 	ldr	r3, [fp, #108]	; 0x6c
--
   404f0:	e5933000 	ldr	r3, [r3]
   404f4:	e3530000 	cmp	r3, #0
   404f8:	0a000019 	beq	40564 <l2tp_session_profile_delete_1_svc+0x120>
   404fc:	e30737d0 	movw	r3, #30672	; 0x77d0
   40500:	e3403007 	movt	r3, #7
   40504:	e5933000 	ldr	r3, [r3]
   40508:	e2033040 	and	r3, r3, #64	; 0x40
   4050c:	e3530000 	cmp	r3, #0
   40510:	0a000013 	beq	40564 <l2tp_session_profile_delete_1_svc+0x120>
   40514:	e30737cc 	movw	r3, #30668	; 0x77cc
   40518:	e3403007 	movt	r3, #7
   4051c:	e5933000 	ldr	r3, [r3]
   40520:	e3530000 	cmp	r3, #0
   40524:	0a000007 	beq	40548 <l2tp_session_profile_delete_1_svc+0x104>
   40528:	e3023264 	movw	r3, #8804	; 0x2264
   4052c:	e3403006 	movt	r3, #6
   40530:	e51b2008 	ldr	r2, [fp, #-8]
   40534:	e5922008 	ldr	r2, [r2, #8]
   40538:	e1a00003 	mov	r0, r3
   4053c:	e1a01002 	mov	r1, r2
[31m   40540:	ebff31e9 	bl	ccec <printf@plt>[0m
   40544:	ea000006 	b	40564 <l2tp_session_profile_delete_1_svc+0x120>
   40548:	e51b3008 	ldr	r3, [fp, #-8]
--
   405c4:	e3530000 	cmp	r3, #0
   405c8:	0a00001b 	beq	4063c <l2tp_session_profile_delete_1_svc+0x1f8>
   405cc:	e30737d0 	movw	r3, #30672	; 0x77d0
   405d0:	e3403007 	movt	r3, #7
   405d4:	e5933000 	ldr	r3, [r3]
   405d8:	e2033004 	and	r3, r3, #4
   405dc:	e3530000 	cmp	r3, #0
   405e0:	0a000015 	beq	4063c <l2tp_session_profile_delete_1_svc+0x1f8>
   405e4:	e30737cc 	movw	r3, #30668	; 0x77cc
   405e8:	e3403007 	movt	r3, #7
   405ec:	e5933000 	ldr	r3, [r3]
   405f0:	e3530000 	cmp	r3, #0
   405f4:	0a000008 	beq	4061c <l2tp_session_profile_delete_1_svc+0x1d8>
   405f8:	e302308c 	movw	r3, #8332	; 0x208c
   405fc:	e3403006 	movt	r3, #6
   40600:	e51b2014 	ldr	r2, [fp, #-20]	; 0xffffffec
   40604:	e5922000 	ldr	r2, [r2]
   40608:	e1a00003 	mov	r0, r3
   4060c:	e3021464 	movw	r1, #9316	; 0x2464
   40610:	e3401006 	movt	r1, #6
[31m   40614:	ebff31b4 	bl	ccec <printf@plt>[0m
   40618:	ea000007 	b	4063c <l2tp_session_profile_delete_1_svc+0x1f8>
   4061c:	e51b3014 	ldr	r3, [fp, #-20]	; 0xffffffec
--
   4074c:	e5933000 	ldr	r3, [r3]
   40750:	e3530000 	cmp	r3, #0
   40754:	0a000019 	beq	407c0 <l2tp_session_profile_modify_1_svc+0x174>
   40758:	e30737d0 	movw	r3, #30672	; 0x77d0
   4075c:	e3403007 	movt	r3, #7
   40760:	e5933000 	ldr	r3, [r3]
   40764:	e2033040 	and	r3, r3, #64	; 0x40
   40768:	e3530000 	cmp	r3, #0
   4076c:	0a000013 	beq	407c0 <l2tp_session_profile_modify_1_svc+0x174>
   40770:	e30737cc 	movw	r3, #30668	; 0x77cc
   40774:	e3403007 	movt	r3, #7
   40778:	e5933000 	ldr	r3, [r3]
   4077c:	e3530000 	cmp	r3, #0
   40780:	0a000007 	beq	407a4 <l2tp_session_profile_modify_1_svc+0x158>
   40784:	e30232b8 	movw	r3, #8888	; 0x22b8
   40788:	e3403006 	movt	r3, #6
   4078c:	e51b200c 	ldr	r2, [fp, #-12]
   40790:	e5922008 	ldr	r2, [r2, #8]
   40794:	e1a00003 	mov	r0, r3
   40798:	e1a01002 	mov	r1, r2
[31m   4079c:	ebff3152 	bl	ccec <printf@plt>[0m
   407a0:	ea000006 	b	407c0 <l2tp_session_profile_modify_1_svc+0x174>
   407a4:	e51b300c 	ldr	r3, [fp, #-12]
--
   40808:	e3530000 	cmp	r3, #0
   4080c:	0a00001b 	beq	40880 <l2tp_session_profile_modify_1_svc+0x234>
   40810:	e30737d0 	movw	r3, #30672	; 0x77d0
   40814:	e3403007 	movt	r3, #7
   40818:	e5933000 	ldr	r3, [r3]
   4081c:	e2033004 	and	r3, r3, #4
   40820:	e3530000 	cmp	r3, #0
   40824:	0a000015 	beq	40880 <l2tp_session_profile_modify_1_svc+0x234>
   40828:	e30737cc 	movw	r3, #30668	; 0x77cc
   4082c:	e3403007 	movt	r3, #7
   40830:	e5933000 	ldr	r3, [r3]
   40834:	e3530000 	cmp	r3, #0
   40838:	0a000008 	beq	40860 <l2tp_session_profile_modify_1_svc+0x214>
   4083c:	e302308c 	movw	r3, #8332	; 0x208c
   40840:	e3403006 	movt	r3, #6
   40844:	e59b206c 	ldr	r2, [fp, #108]	; 0x6c
   40848:	e5922000 	ldr	r2, [r2]
   4084c:	e1a00003 	mov	r0, r3
   40850:	e3021440 	movw	r1, #9280	; 0x2440
   40854:	e3401006 	movt	r1, #6
[31m   40858:	ebff3123 	bl	ccec <printf@plt>[0m
   4085c:	ea000007 	b	40880 <l2tp_session_profile_modify_1_svc+0x234>
   40860:	e59b306c 	ldr	r3, [fp, #108]	; 0x6c
--
   40c04:	e3530000 	cmp	r3, #0
   40c08:	0a00001b 	beq	40c7c <l2tp_session_profile_get_1_svc+0x3e4>
   40c0c:	e30737d0 	movw	r3, #30672	; 0x77d0
   40c10:	e3403007 	movt	r3, #7
   40c14:	e5933000 	ldr	r3, [r3]
   40c18:	e2033004 	and	r3, r3, #4
   40c1c:	e3530000 	cmp	r3, #0
   40c20:	0a000015 	beq	40c7c <l2tp_session_profile_get_1_svc+0x3e4>
   40c24:	e30737cc 	movw	r3, #30668	; 0x77cc
   40c28:	e3403007 	movt	r3, #7
   40c2c:	e5933000 	ldr	r3, [r3]
   40c30:	e3530000 	cmp	r3, #0
   40c34:	0a000008 	beq	40c5c <l2tp_session_profile_get_1_svc+0x3c4>
   40c38:	e302308c 	movw	r3, #8332	; 0x208c
   40c3c:	e3403006 	movt	r3, #6
   40c40:	e51b2014 	ldr	r2, [fp, #-20]	; 0xffffffec
   40c44:	e5922004 	ldr	r2, [r2, #4]
   40c48:	e1a00003 	mov	r0, r3
   40c4c:	e3021420 	movw	r1, #9248	; 0x2420
   40c50:	e3401006 	movt	r1, #6
[31m   40c54:	ebff3024 	bl	ccec <printf@plt>[0m
   40c58:	ea000007 	b	40c7c <l2tp_session_profile_get_1_svc+0x3e4>
   40c5c:	e51b3014 	ldr	r3, [fp, #-20]	; 0xffffffec
--
   40e24:	e3530000 	cmp	r3, #0
   40e28:	0a00001b 	beq	40e9c <l2tp_session_profile_list_1_svc+0x210>
   40e2c:	e30737d0 	movw	r3, #30672	; 0x77d0
   40e30:	e3403007 	movt	r3, #7
   40e34:	e5933000 	ldr	r3, [r3]
   40e38:	e2033004 	and	r3, r3, #4
   40e3c:	e3530000 	cmp	r3, #0
   40e40:	0a000015 	beq	40e9c <l2tp_session_profile_list_1_svc+0x210>
   40e44:	e30737cc 	movw	r3, #30668	; 0x77cc
   40e48:	e3403007 	movt	r3, #7
   40e4c:	e5933000 	ldr	r3, [r3]
   40e50:	e3530000 	cmp	r3, #0
   40e54:	0a000008 	beq	40e7c <l2tp_session_profile_list_1_svc+0x1f0>
   40e58:	e302308c 	movw	r3, #8332	; 0x208c
   40e5c:	e3403006 	movt	r3, #6
   40e60:	e51b2020 	ldr	r2, [fp, #-32]	; 0xffffffe0
   40e64:	e5922000 	ldr	r2, [r2]
   40e68:	e1a00003 	mov	r0, r3
   40e6c:	e3021400 	movw	r1, #9216	; 0x2400
   40e70:	e3401006 	movt	r1, #6
[31m   40e74:	ebff2f9c 	bl	ccec <printf@plt>[0m
   40e78:	ea000007 	b	40e9c <l2tp_session_profile_list_1_svc+0x210>
   40e7c:	e51b3020 	ldr	r3, [fp, #-32]	; 0xffffffe0
--
   411b4:	e5933000 	ldr	r3, [r3]
   411b8:	e3530000 	cmp	r3, #0
   411bc:	0a000019 	beq	41228 <l2tp_session_profile_unset_1_svc+0x32c>
   411c0:	e30737d0 	movw	r3, #30672	; 0x77d0
   411c4:	e3403007 	movt	r3, #7
   411c8:	e5933000 	ldr	r3, [r3]
   411cc:	e2033040 	and	r3, r3, #64	; 0x40
   411d0:	e3530000 	cmp	r3, #0
   411d4:	0a000013 	beq	41228 <l2tp_session_profile_unset_1_svc+0x32c>
   411d8:	e30737cc 	movw	r3, #30668	; 0x77cc
   411dc:	e3403007 	movt	r3, #7
   411e0:	e5933000 	ldr	r3, [r3]
   411e4:	e3530000 	cmp	r3, #0
   411e8:	0a000007 	beq	4120c <l2tp_session_profile_unset_1_svc+0x310>
   411ec:	e3023310 	movw	r3, #8976	; 0x2310
   411f0:	e3403006 	movt	r3, #6
   411f4:	e51b2008 	ldr	r2, [fp, #-8]
   411f8:	e5922008 	ldr	r2, [r2, #8]
   411fc:	e1a00003 	mov	r0, r3
   41200:	e1a01002 	mov	r1, r2
[31m   41204:	ebff2eb8 	bl	ccec <printf@plt>[0m
   41208:	ea000006 	b	41228 <l2tp_session_profile_unset_1_svc+0x32c>
   4120c:	e51b3008 	ldr	r3, [fp, #-8]
--
   41268:	e3530000 	cmp	r3, #0
   4126c:	0a00001b 	beq	412e0 <l2tp_session_profile_unset_1_svc+0x3e4>
   41270:	e30737d0 	movw	r3, #30672	; 0x77d0
   41274:	e3403007 	movt	r3, #7
   41278:	e5933000 	ldr	r3, [r3]
   4127c:	e2033004 	and	r3, r3, #4
   41280:	e3530000 	cmp	r3, #0
   41284:	0a000015 	beq	412e0 <l2tp_session_profile_unset_1_svc+0x3e4>
   41288:	e30737cc 	movw	r3, #30668	; 0x77cc
   4128c:	e3403007 	movt	r3, #7
   41290:	e5933000 	ldr	r3, [r3]
   41294:	e3530000 	cmp	r3, #0
   41298:	0a000008 	beq	412c0 <l2tp_session_profile_unset_1_svc+0x3c4>
   4129c:	e302308c 	movw	r3, #8332	; 0x208c
   412a0:	e3403006 	movt	r3, #6
   412a4:	e51b201c 	ldr	r2, [fp, #-28]	; 0xffffffe4
   412a8:	e5922000 	ldr	r2, [r2]
   412ac:	e1a00003 	mov	r0, r3
   412b0:	e30213dc 	movw	r1, #9180	; 0x23dc
   412b4:	e3401006 	movt	r1, #6
[31m   412b8:	ebff2e8b 	bl	ccec <printf@plt>[0m
   412bc:	ea000007 	b	412e0 <l2tp_session_profile_unset_1_svc+0x3e4>
   412c0:	e51b301c 	ldr	r3, [fp, #-28]	; 0xffffffe4
--
   41aec:	e30737c0 	movw	r3, #30656	; 0x77c0
   41af0:	e3403007 	movt	r3, #7
   41af4:	e5933000 	ldr	r3, [r3]
   41af8:	e3530000 	cmp	r3, #0
   41afc:	0a000015 	beq	41b58 <l2tp_session_init+0x21c>
   41b00:	e30737d0 	movw	r3, #30672	; 0x77d0
   41b04:	e3403007 	movt	r3, #7
   41b08:	e5933000 	ldr	r3, [r3]
   41b0c:	e2033040 	and	r3, r3, #64	; 0x40
   41b10:	e3530000 	cmp	r3, #0
   41b14:	0a00000f 	beq	41b58 <l2tp_session_init+0x21c>
   41b18:	e30737cc 	movw	r3, #30668	; 0x77cc
   41b1c:	e3403007 	movt	r3, #7
   41b20:	e5933000 	ldr	r3, [r3]
   41b24:	e3530000 	cmp	r3, #0
   41b28:	0a000005 	beq	41b44 <l2tp_session_init+0x208>
   41b2c:	e30233a4 	movw	r3, #9124	; 0x23a4
   41b30:	e3403006 	movt	r3, #6
   41b34:	e1a00003 	mov	r0, r3
   41b38:	e3a01f5e 	mov	r1, #376	; 0x178
[31m   41b3c:	ebff2c6a 	bl	ccec <printf@plt>[0m
   41b40:	ea000004 	b	41b58 <l2tp_session_init+0x21c>
   41b44:	e3a00007 	mov	r0, #7
--
   429d4:	e5933000 	ldr	r3, [r3]
   429d8:	e3530000 	cmp	r3, #0
   429dc:	0a000019 	beq	42a48 <l2tp_ppp_profile_create_1_svc+0x94>
   429e0:	e30737d0 	movw	r3, #30672	; 0x77d0
   429e4:	e3403007 	movt	r3, #7
   429e8:	e5933000 	ldr	r3, [r3]
   429ec:	e2033004 	and	r3, r3, #4
   429f0:	e3530000 	cmp	r3, #0
   429f4:	0a000013 	beq	42a48 <l2tp_ppp_profile_create_1_svc+0x94>
   429f8:	e30737cc 	movw	r3, #30668	; 0x77cc
   429fc:	e3403007 	movt	r3, #7
   42a00:	e5933000 	ldr	r3, [r3]
   42a04:	e3530000 	cmp	r3, #0
   42a08:	0a000007 	beq	42a2c <l2tp_ppp_profile_create_1_svc+0x78>
   42a0c:	e30237d4 	movw	r3, #10196	; 0x27d4
   42a10:	e3403006 	movt	r3, #6
   42a14:	e59b2018 	ldr	r2, [fp, #24]
   42a18:	e1a00003 	mov	r0, r3
   42a1c:	e3021ad0 	movw	r1, #10960	; 0x2ad0
   42a20:	e3401006 	movt	r1, #6
[31m   42a24:	ebff28b0 	bl	ccec <printf@plt>[0m
   42a28:	ea000006 	b	42a48 <l2tp_ppp_profile_create_1_svc+0x94>
   42a2c:	e59b3018 	ldr	r3, [fp, #24]
--
   4314c:	e3403007 	movt	r3, #7
   43150:	e5933000 	ldr	r3, [r3]
   43154:	e2033004 	and	r3, r3, #4
   43158:	e3530000 	cmp	r3, #0
   4315c:	0a00001b 	beq	431d0 <l2tp_ppp_profile_create_1_svc+0x81c>
   43160:	e30737cc 	movw	r3, #30668	; 0x77cc
   43164:	e3403007 	movt	r3, #7
   43168:	e5933000 	ldr	r3, [r3]
   4316c:	e3530000 	cmp	r3, #0
   43170:	0a00000b 	beq	431a4 <l2tp_ppp_profile_create_1_svc+0x7f0>
   43174:	e3023804 	movw	r3, #10244	; 0x2804
   43178:	e3403006 	movt	r3, #6
   4317c:	e51b200c 	ldr	r2, [fp, #-12]
   43180:	e5922080 	ldr	r2, [r2, #128]	; 0x80
   43184:	e51b100c 	ldr	r1, [fp, #-12]
   43188:	e591c084 	ldr	ip, [r1, #132]	; 0x84
   4318c:	e1a00003 	mov	r0, r3
   43190:	e3021ad0 	movw	r1, #10960	; 0x2ad0
   43194:	e3401006 	movt	r1, #6
   43198:	e1a0300c 	mov	r3, ip
[31m   4319c:	ebff26d2 	bl	ccec <printf@plt>[0m
   431a0:	ea00000a 	b	431d0 <l2tp_ppp_profile_create_1_svc+0x81c>
   431a4:	e51b300c 	ldr	r3, [fp, #-12]
--
   43204:	e5933000 	ldr	r3, [r3]
   43208:	e3530000 	cmp	r3, #0
   4320c:	0a000019 	beq	43278 <l2tp_ppp_profile_create_1_svc+0x8c4>
   43210:	e30737d0 	movw	r3, #30672	; 0x77d0
   43214:	e3403007 	movt	r3, #7
   43218:	e5933000 	ldr	r3, [r3]
   4321c:	e2033040 	and	r3, r3, #64	; 0x40
   43220:	e3530000 	cmp	r3, #0
   43224:	0a000013 	beq	43278 <l2tp_ppp_profile_create_1_svc+0x8c4>
   43228:	e30737cc 	movw	r3, #30668	; 0x77cc
   4322c:	e3403007 	movt	r3, #7
   43230:	e5933000 	ldr	r3, [r3]
   43234:	e3530000 	cmp	r3, #0
   43238:	0a000007 	beq	4325c <l2tp_ppp_profile_create_1_svc+0x8a8>
   4323c:	e3023834 	movw	r3, #10292	; 0x2834
   43240:	e3403006 	movt	r3, #6
   43244:	e51b200c 	ldr	r2, [fp, #-12]
   43248:	e5922008 	ldr	r2, [r2, #8]
   4324c:	e1a00003 	mov	r0, r3
   43250:	e1a01002 	mov	r1, r2
[31m   43254:	ebff26a4 	bl	ccec <printf@plt>[0m
   43258:	ea000006 	b	43278 <l2tp_ppp_profile_create_1_svc+0x8c4>
   4325c:	e51b300c 	ldr	r3, [fp, #-12]
--
   432b8:	e3530000 	cmp	r3, #0
   432bc:	0a00001b 	beq	43330 <l2tp_ppp_profile_create_1_svc+0x97c>
   432c0:	e30737d0 	movw	r3, #30672	; 0x77d0
   432c4:	e3403007 	movt	r3, #7
   432c8:	e5933000 	ldr	r3, [r3]
   432cc:	e2033004 	and	r3, r3, #4
   432d0:	e3530000 	cmp	r3, #0
   432d4:	0a000015 	beq	43330 <l2tp_ppp_profile_create_1_svc+0x97c>
   432d8:	e30737cc 	movw	r3, #30668	; 0x77cc
   432dc:	e3403007 	movt	r3, #7
   432e0:	e5933000 	ldr	r3, [r3]
   432e4:	e3530000 	cmp	r3, #0
   432e8:	0a000008 	beq	43310 <l2tp_ppp_profile_create_1_svc+0x95c>
   432ec:	e3023880 	movw	r3, #10368	; 0x2880
   432f0:	e3403006 	movt	r3, #6
   432f4:	e59b20d8 	ldr	r2, [fp, #216]	; 0xd8
   432f8:	e5922000 	ldr	r2, [r2]
   432fc:	e1a00003 	mov	r0, r3
   43300:	e3021ad0 	movw	r1, #10960	; 0x2ad0
   43304:	e3401006 	movt	r1, #6
[31m   43308:	ebff2677 	bl	ccec <printf@plt>[0m
   4330c:	ea000007 	b	43330 <l2tp_ppp_profile_create_1_svc+0x97c>
   43310:	e59b30d8 	ldr	r3, [fp, #216]	; 0xd8
--
   4339c:	e5933000 	ldr	r3, [r3]
   433a0:	e3530000 	cmp	r3, #0
   433a4:	0a000019 	beq	43410 <l2tp_ppp_profile_delete_1_svc+0x94>
   433a8:	e30737d0 	movw	r3, #30672	; 0x77d0
   433ac:	e3403007 	movt	r3, #7
   433b0:	e5933000 	ldr	r3, [r3]
   433b4:	e2033004 	and	r3, r3, #4
   433b8:	e3530000 	cmp	r3, #0
   433bc:	0a000013 	beq	43410 <l2tp_ppp_profile_delete_1_svc+0x94>
   433c0:	e30737cc 	movw	r3, #30668	; 0x77cc
   433c4:	e3403007 	movt	r3, #7
   433c8:	e5933000 	ldr	r3, [r3]
   433cc:	e3530000 	cmp	r3, #0
   433d0:	0a000007 	beq	433f4 <l2tp_ppp_profile_delete_1_svc+0x78>
   433d4:	e30237d4 	movw	r3, #10196	; 0x27d4
   433d8:	e3403006 	movt	r3, #6
   433dc:	e1a00003 	mov	r0, r3
   433e0:	e3021ab0 	movw	r1, #10928	; 0x2ab0
   433e4:	e3401006 	movt	r1, #6
   433e8:	e51b2010 	ldr	r2, [fp, #-16]
[31m   433ec:	ebff263e 	bl	ccec <printf@plt>[0m
   433f0:	ea000006 	b	43410 <l2tp_ppp_profile_delete_1_svc+0x94>
   433f4:	e3a00007 	mov	r0, #7
--
   434a4:	e5933000 	ldr	r3, [r3]
   434a8:	e3530000 	cmp	r3, #0
   434ac:	0a000019 	beq	43518 <l2tp_ppp_profile_delete_1_svc+0x19c>
   434b0:	e30737d0 	movw	r3, #30672	; 0x77d0
   434b4:	e3403007 	movt	r3, #7
   434b8:	e5933000 	ldr	r3, [r3]
   434bc:	e2033040 	and	r3, r3, #64	; 0x40
   434c0:	e3530000 	cmp	r3, #0
   434c4:	0a000013 	beq	43518 <l2tp_ppp_profile_delete_1_svc+0x19c>
   434c8:	e30737cc 	movw	r3, #30668	; 0x77cc
   434cc:	e3403007 	movt	r3, #7
   434d0:	e5933000 	ldr	r3, [r3]
   434d4:	e3530000 	cmp	r3, #0
   434d8:	0a000007 	beq	434fc <l2tp_ppp_profile_delete_1_svc+0x180>
   434dc:	e30238b8 	movw	r3, #10424	; 0x28b8
   434e0:	e3403006 	movt	r3, #6
   434e4:	e51b2008 	ldr	r2, [fp, #-8]
   434e8:	e5922008 	ldr	r2, [r2, #8]
   434ec:	e1a00003 	mov	r0, r3
   434f0:	e1a01002 	mov	r1, r2
[31m   434f4:	ebff25fc 	bl	ccec <printf@plt>[0m
   434f8:	ea000006 	b	43518 <l2tp_ppp_profile_delete_1_svc+0x19c>
   434fc:	e51b3008 	ldr	r3, [fp, #-8]
--
   43628:	e3530000 	cmp	r3, #0
   4362c:	0a00001b 	beq	436a0 <l2tp_ppp_profile_delete_1_svc+0x324>
   43630:	e30737d0 	movw	r3, #30672	; 0x77d0
   43634:	e3403007 	movt	r3, #7
   43638:	e5933000 	ldr	r3, [r3]
   4363c:	e2033004 	and	r3, r3, #4
   43640:	e3530000 	cmp	r3, #0
   43644:	0a000015 	beq	436a0 <l2tp_ppp_profile_delete_1_svc+0x324>
   43648:	e30737cc 	movw	r3, #30668	; 0x77cc
   4364c:	e3403007 	movt	r3, #7
   43650:	e5933000 	ldr	r3, [r3]
   43654:	e3530000 	cmp	r3, #0
   43658:	0a000008 	beq	43680 <l2tp_ppp_profile_delete_1_svc+0x304>
   4365c:	e3023880 	movw	r3, #10368	; 0x2880
   43660:	e3403006 	movt	r3, #6
   43664:	e51b2014 	ldr	r2, [fp, #-20]	; 0xffffffec
   43668:	e5922000 	ldr	r2, [r2]
   4366c:	e1a00003 	mov	r0, r3
   43670:	e3021ab0 	movw	r1, #10928	; 0x2ab0
   43674:	e3401006 	movt	r1, #6
[31m   43678:	ebff259b 	bl	ccec <printf@plt>[0m
   4367c:	ea000007 	b	436a0 <l2tp_ppp_profile_delete_1_svc+0x324>
   43680:	e51b3014 	ldr	r3, [fp, #-20]	; 0xffffffec
--
   436d0:	e5933000 	ldr	r3, [r3]
   436d4:	e3530000 	cmp	r3, #0
   436d8:	0a000019 	beq	43744 <l2tp_ppp_profile_modify_1_svc+0x94>
   436dc:	e30737d0 	movw	r3, #30672	; 0x77d0
   436e0:	e3403007 	movt	r3, #7
   436e4:	e5933000 	ldr	r3, [r3]
   436e8:	e2033004 	and	r3, r3, #4
   436ec:	e3530000 	cmp	r3, #0
   436f0:	0a000013 	beq	43744 <l2tp_ppp_profile_modify_1_svc+0x94>
   436f4:	e30737cc 	movw	r3, #30668	; 0x77cc
   436f8:	e3403007 	movt	r3, #7
   436fc:	e5933000 	ldr	r3, [r3]
   43700:	e3530000 	cmp	r3, #0
   43704:	0a000007 	beq	43728 <l2tp_ppp_profile_modify_1_svc+0x78>
   43708:	e30237d4 	movw	r3, #10196	; 0x27d4
   4370c:	e3403006 	movt	r3, #6
   43710:	e59b2018 	ldr	r2, [fp, #24]
   43714:	e1a00003 	mov	r0, r3
   43718:	e3021a90 	movw	r1, #10896	; 0x2a90
   4371c:	e3401006 	movt	r1, #6
[31m   43720:	ebff2571 	bl	ccec <printf@plt>[0m
   43724:	ea000006 	b	43744 <l2tp_ppp_profile_modify_1_svc+0x94>
   43728:	e59b3018 	ldr	r3, [fp, #24]
--
   4381c:	e3403007 	movt	r3, #7
   43820:	e5933000 	ldr	r3, [r3]
   43824:	e2033004 	and	r3, r3, #4
   43828:	e3530000 	cmp	r3, #0
   4382c:	0a00001b 	beq	438a0 <l2tp_ppp_profile_modify_1_svc+0x1f0>
   43830:	e30737cc 	movw	r3, #30668	; 0x77cc
   43834:	e3403007 	movt	r3, #7
   43838:	e5933000 	ldr	r3, [r3]
   4383c:	e3530000 	cmp	r3, #0
   43840:	0a00000b 	beq	43874 <l2tp_ppp_profile_modify_1_svc+0x1c4>
   43844:	e3023804 	movw	r3, #10244	; 0x2804
   43848:	e3403006 	movt	r3, #6
   4384c:	e51b200c 	ldr	r2, [fp, #-12]
   43850:	e5922080 	ldr	r2, [r2, #128]	; 0x80
   43854:	e51b100c 	ldr	r1, [fp, #-12]
   43858:	e591c084 	ldr	ip, [r1, #132]	; 0x84
   4385c:	e1a00003 	mov	r0, r3
   43860:	e3021a90 	movw	r1, #10896	; 0x2a90
   43864:	e3401006 	movt	r1, #6
   43868:	e1a0300c 	mov	r3, ip
[31m   4386c:	ebff251e 	bl	ccec <printf@plt>[0m
   43870:	ea00000a 	b	438a0 <l2tp_ppp_profile_modify_1_svc+0x1f0>
   43874:	e51b300c 	ldr	r3, [fp, #-12]
--
   438a8:	e5933000 	ldr	r3, [r3]
   438ac:	e3530000 	cmp	r3, #0
   438b0:	0a000019 	beq	4391c <l2tp_ppp_profile_modify_1_svc+0x26c>
   438b4:	e30737d0 	movw	r3, #30672	; 0x77d0
   438b8:	e3403007 	movt	r3, #7
   438bc:	e5933000 	ldr	r3, [r3]
   438c0:	e2033040 	and	r3, r3, #64	; 0x40
   438c4:	e3530000 	cmp	r3, #0
   438c8:	0a000013 	beq	4391c <l2tp_ppp_profile_modify_1_svc+0x26c>
   438cc:	e30737cc 	movw	r3, #30668	; 0x77cc
   438d0:	e3403007 	movt	r3, #7
   438d4:	e5933000 	ldr	r3, [r3]
   438d8:	e3530000 	cmp	r3, #0
   438dc:	0a000007 	beq	43900 <l2tp_ppp_profile_modify_1_svc+0x250>
   438e0:	e3023904 	movw	r3, #10500	; 0x2904
   438e4:	e3403006 	movt	r3, #6
   438e8:	e51b200c 	ldr	r2, [fp, #-12]
   438ec:	e5922008 	ldr	r2, [r2, #8]
   438f0:	e1a00003 	mov	r0, r3
   438f4:	e1a01002 	mov	r1, r2
[31m   438f8:	ebff24fb 	bl	ccec <printf@plt>[0m
   438fc:	ea000006 	b	4391c <l2tp_ppp_profile_modify_1_svc+0x26c>
   43900:	e51b300c 	ldr	r3, [fp, #-12]
--
   43964:	e3530000 	cmp	r3, #0
   43968:	0a00001b 	beq	439dc <l2tp_ppp_profile_modify_1_svc+0x32c>
   4396c:	e30737d0 	movw	r3, #30672	; 0x77d0
   43970:	e3403007 	movt	r3, #7
   43974:	e5933000 	ldr	r3, [r3]
   43978:	e2033004 	and	r3, r3, #4
   4397c:	e3530000 	cmp	r3, #0
   43980:	0a000015 	beq	439dc <l2tp_ppp_profile_modify_1_svc+0x32c>
   43984:	e30737cc 	movw	r3, #30668	; 0x77cc
   43988:	e3403007 	movt	r3, #7
   4398c:	e5933000 	ldr	r3, [r3]
   43990:	e3530000 	cmp	r3, #0
   43994:	0a000008 	beq	439bc <l2tp_ppp_profile_modify_1_svc+0x30c>
   43998:	e3023880 	movw	r3, #10368	; 0x2880
   4399c:	e3403006 	movt	r3, #6
   439a0:	e59b20d8 	ldr	r2, [fp, #216]	; 0xd8
   439a4:	e5922000 	ldr	r2, [r2]
   439a8:	e1a00003 	mov	r0, r3
   439ac:	e3021a90 	movw	r1, #10896	; 0x2a90
   439b0:	e3401006 	movt	r1, #6
[31m   439b4:	ebff24cc 	bl	ccec <printf@plt>[0m
   439b8:	ea000007 	b	439dc <l2tp_ppp_profile_modify_1_svc+0x32c>
   439bc:	e59b30d8 	ldr	r3, [fp, #216]	; 0xd8
--
   43f98:	e3530000 	cmp	r3, #0
   43f9c:	0a000021 	beq	44028 <l2tp_ppp_profile_get+0x634>
   43fa0:	e30737cc 	movw	r3, #30668	; 0x77cc
   43fa4:	e3403007 	movt	r3, #7
   43fa8:	e5933000 	ldr	r3, [r3]
   43fac:	e3530000 	cmp	r3, #0
   43fb0:	0a00000e 	beq	43ff0 <l2tp_ppp_profile_get+0x5fc>
   43fb4:	e3023958 	movw	r3, #10584	; 0x2958
   43fb8:	e3403006 	movt	r3, #6
   43fbc:	e51b2014 	ldr	r2, [fp, #-20]	; 0xffffffec
   43fc0:	e5922000 	ldr	r2, [r2]
   43fc4:	e51b1014 	ldr	r1, [fp, #-20]	; 0xffffffec
   43fc8:	e591c004 	ldr	ip, [r1, #4]
   43fcc:	e51b1014 	ldr	r1, [fp, #-20]	; 0xffffffec
   43fd0:	e5911008 	ldr	r1, [r1, #8]
   43fd4:	e58d1000 	str	r1, [sp]
   43fd8:	e1a00003 	mov	r0, r3
   43fdc:	e3021a78 	movw	r1, #10872	; 0x2a78
   43fe0:	e3401006 	movt	r1, #6
   43fe4:	e1a0300c 	mov	r3, ip
[31m   43fe8:	ebff233f 	bl	ccec <printf@plt>[0m
   43fec:	ea00000d 	b	44028 <l2tp_ppp_profile_get+0x634>
   43ff0:	e51b3014 	ldr	r3, [fp, #-20]	; 0xffffffec
--
   4415c:	e5933000 	ldr	r3, [r3]
   44160:	e3530000 	cmp	r3, #0
   44164:	0a000019 	beq	441d0 <l2tp_ppp_profile_get_1_svc+0x94>
   44168:	e30737d0 	movw	r3, #30672	; 0x77d0
   4416c:	e3403007 	movt	r3, #7
   44170:	e5933000 	ldr	r3, [r3]
   44174:	e2033004 	and	r3, r3, #4
   44178:	e3530000 	cmp	r3, #0
   4417c:	0a000013 	beq	441d0 <l2tp_ppp_profile_get_1_svc+0x94>
   44180:	e30737cc 	movw	r3, #30668	; 0x77cc
   44184:	e3403007 	movt	r3, #7
   44188:	e5933000 	ldr	r3, [r3]
   4418c:	e3530000 	cmp	r3, #0
   44190:	0a000007 	beq	441b4 <l2tp_ppp_profile_get_1_svc+0x78>
   44194:	e30237d4 	movw	r3, #10196	; 0x27d4
   44198:	e3403006 	movt	r3, #6
   4419c:	e1a00003 	mov	r0, r3
   441a0:	e3021a5c 	movw	r1, #10844	; 0x2a5c
   441a4:	e3401006 	movt	r1, #6
   441a8:	e51b2008 	ldr	r2, [fp, #-8]
[31m   441ac:	ebff22ce 	bl	ccec <printf@plt>[0m
   441b0:	ea000006 	b	441d0 <l2tp_ppp_profile_get_1_svc+0x94>
   441b4:	e3a00007 	mov	r0, #7
--
   44204:	e3530000 	cmp	r3, #0
   44208:	0a00001b 	beq	4427c <l2tp_ppp_profile_get_1_svc+0x140>
   4420c:	e30737d0 	movw	r3, #30672	; 0x77d0
   44210:	e3403007 	movt	r3, #7
   44214:	e5933000 	ldr	r3, [r3]
   44218:	e2033004 	and	r3, r3, #4
   4421c:	e3530000 	cmp	r3, #0
   44220:	0a000015 	beq	4427c <l2tp_ppp_profile_get_1_svc+0x140>
   44224:	e30737cc 	movw	r3, #30668	; 0x77cc
   44228:	e3403007 	movt	r3, #7
   4422c:	e5933000 	ldr	r3, [r3]
   44230:	e3530000 	cmp	r3, #0
   44234:	0a000008 	beq	4425c <l2tp_ppp_profile_get_1_svc+0x120>
   44238:	e3023880 	movw	r3, #10368	; 0x2880
   4423c:	e3403006 	movt	r3, #6
   44240:	e51b200c 	ldr	r2, [fp, #-12]
   44244:	e5922008 	ldr	r2, [r2, #8]
   44248:	e1a00003 	mov	r0, r3
   4424c:	e3021a5c 	movw	r1, #10844	; 0x2a5c
   44250:	e3401006 	movt	r1, #6
[31m   44254:	ebff22a4 	bl	ccec <printf@plt>[0m
   44258:	ea000007 	b	4427c <l2tp_ppp_profile_get_1_svc+0x140>
   4425c:	e51b300c 	ldr	r3, [fp, #-12]
--
   442ac:	e3403007 	movt	r3, #7
   442b0:	e5933000 	ldr	r3, [r3]
   442b4:	e3530000 	cmp	r3, #0
   442b8:	0a000017 	beq	4431c <l2tp_ppp_profile_list_1_svc+0x90>
   442bc:	e30737d0 	movw	r3, #30672	; 0x77d0
   442c0:	e3403007 	movt	r3, #7
   442c4:	e5933000 	ldr	r3, [r3]
   442c8:	e2033004 	and	r3, r3, #4
   442cc:	e3530000 	cmp	r3, #0
   442d0:	0a000011 	beq	4431c <l2tp_ppp_profile_list_1_svc+0x90>
   442d4:	e30737cc 	movw	r3, #30668	; 0x77cc
   442d8:	e3403007 	movt	r3, #7
   442dc:	e5933000 	ldr	r3, [r3]
   442e0:	e3530000 	cmp	r3, #0
   442e4:	0a000006 	beq	44304 <l2tp_ppp_profile_list_1_svc+0x78>
   442e8:	e30239a0 	movw	r3, #10656	; 0x29a0
   442ec:	e3403006 	movt	r3, #6
   442f0:	e1a00003 	mov	r0, r3
   442f4:	e3021a40 	movw	r1, #10816	; 0x2a40
   442f8:	e3401006 	movt	r1, #6
[31m   442fc:	ebff227a 	bl	ccec <printf@plt>[0m
   44300:	ea000005 	b	4431c <l2tp_ppp_profile_list_1_svc+0x90>
   44304:	e3a00007 	mov	r0, #7
--
   4450c:	e5933000 	ldr	r3, [r3]
   44510:	e3530000 	cmp	r3, #0
   44514:	0a000019 	beq	44580 <l2tp_ppp_profile_unset_1_svc+0x90>
   44518:	e30737d0 	movw	r3, #30672	; 0x77d0
   4451c:	e3403007 	movt	r3, #7
   44520:	e5933000 	ldr	r3, [r3]
   44524:	e2033004 	and	r3, r3, #4
   44528:	e3530000 	cmp	r3, #0
   4452c:	0a000013 	beq	44580 <l2tp_ppp_profile_unset_1_svc+0x90>
   44530:	e30737cc 	movw	r3, #30668	; 0x77cc
   44534:	e3403007 	movt	r3, #7
   44538:	e5933000 	ldr	r3, [r3]
   4453c:	e3530000 	cmp	r3, #0
   44540:	0a000007 	beq	44564 <l2tp_ppp_profile_unset_1_svc+0x74>
   44544:	e30237d4 	movw	r3, #10196	; 0x27d4
   44548:	e3403006 	movt	r3, #6
   4454c:	e51b2010 	ldr	r2, [fp, #-16]
   44550:	e1a00003 	mov	r0, r3
   44554:	e3021a20 	movw	r1, #10784	; 0x2a20
   44558:	e3401006 	movt	r1, #6
[31m   4455c:	ebff21e2 	bl	ccec <printf@plt>[0m
   44560:	ea000006 	b	44580 <l2tp_ppp_profile_unset_1_svc+0x90>
   44564:	e51b3010 	ldr	r3, [fp, #-16]
--
   44bec:	e3403007 	movt	r3, #7
   44bf0:	e5933000 	ldr	r3, [r3]
   44bf4:	e2033004 	and	r3, r3, #4
   44bf8:	e3530000 	cmp	r3, #0
   44bfc:	0a00001b 	beq	44c70 <l2tp_ppp_profile_unset_1_svc+0x780>
   44c00:	e30737cc 	movw	r3, #30668	; 0x77cc
   44c04:	e3403007 	movt	r3, #7
   44c08:	e5933000 	ldr	r3, [r3]
   44c0c:	e3530000 	cmp	r3, #0
   44c10:	0a00000b 	beq	44c44 <l2tp_ppp_profile_unset_1_svc+0x754>
   44c14:	e3023804 	movw	r3, #10244	; 0x2804
   44c18:	e3403006 	movt	r3, #6
   44c1c:	e51b2008 	ldr	r2, [fp, #-8]
   44c20:	e5922080 	ldr	r2, [r2, #128]	; 0x80
   44c24:	e51b1008 	ldr	r1, [fp, #-8]
   44c28:	e591c084 	ldr	ip, [r1, #132]	; 0x84
   44c2c:	e1a00003 	mov	r0, r3
   44c30:	e3021a20 	movw	r1, #10784	; 0x2a20
   44c34:	e3401006 	movt	r1, #6
   44c38:	e1a0300c 	mov	r3, ip
[31m   44c3c:	ebff202a 	bl	ccec <printf@plt>[0m
   44c40:	ea00000a 	b	44c70 <l2tp_ppp_profile_unset_1_svc+0x780>
   44c44:	e51b3008 	ldr	r3, [fp, #-8]
--
   44c78:	e5933000 	ldr	r3, [r3]
   44c7c:	e3530000 	cmp	r3, #0
   44c80:	0a000019 	beq	44cec <l2tp_ppp_profile_unset_1_svc+0x7fc>
   44c84:	e30737d0 	movw	r3, #30672	; 0x77d0
   44c88:	e3403007 	movt	r3, #7
   44c8c:	e5933000 	ldr	r3, [r3]
   44c90:	e2033040 	and	r3, r3, #64	; 0x40
   44c94:	e3530000 	cmp	r3, #0
   44c98:	0a000013 	beq	44cec <l2tp_ppp_profile_unset_1_svc+0x7fc>
   44c9c:	e30737cc 	movw	r3, #30668	; 0x77cc
   44ca0:	e3403007 	movt	r3, #7
   44ca4:	e5933000 	ldr	r3, [r3]
   44ca8:	e3530000 	cmp	r3, #0
   44cac:	0a000007 	beq	44cd0 <l2tp_ppp_profile_unset_1_svc+0x7e0>
   44cb0:	e30239c8 	movw	r3, #10696	; 0x29c8
   44cb4:	e3403006 	movt	r3, #6
   44cb8:	e51b2008 	ldr	r2, [fp, #-8]
   44cbc:	e5922008 	ldr	r2, [r2, #8]
   44cc0:	e1a00003 	mov	r0, r3
   44cc4:	e1a01002 	mov	r1, r2
[31m   44cc8:	ebff2007 	bl	ccec <printf@plt>[0m
   44ccc:	ea000006 	b	44cec <l2tp_ppp_profile_unset_1_svc+0x7fc>
   44cd0:	e51b3008 	ldr	r3, [fp, #-8]
--
   44d2c:	e3530000 	cmp	r3, #0
   44d30:	0a00001b 	beq	44da4 <l2tp_ppp_profile_unset_1_svc+0x8b4>
   44d34:	e30737d0 	movw	r3, #30672	; 0x77d0
   44d38:	e3403007 	movt	r3, #7
   44d3c:	e5933000 	ldr	r3, [r3]
   44d40:	e2033004 	and	r3, r3, #4
   44d44:	e3530000 	cmp	r3, #0
   44d48:	0a000015 	beq	44da4 <l2tp_ppp_profile_unset_1_svc+0x8b4>
   44d4c:	e30737cc 	movw	r3, #30668	; 0x77cc
   44d50:	e3403007 	movt	r3, #7
   44d54:	e5933000 	ldr	r3, [r3]
   44d58:	e3530000 	cmp	r3, #0
   44d5c:	0a000008 	beq	44d84 <l2tp_ppp_profile_unset_1_svc+0x894>
   44d60:	e3023880 	movw	r3, #10368	; 0x2880
   44d64:	e3403006 	movt	r3, #6
   44d68:	e59b2004 	ldr	r2, [fp, #4]
   44d6c:	e5922000 	ldr	r2, [r2]
   44d70:	e1a00003 	mov	r0, r3
   44d74:	e3021a20 	movw	r1, #10784	; 0x2a20
   44d78:	e3401006 	movt	r1, #6
[31m   44d7c:	ebff1fda 	bl	ccec <printf@plt>[0m
   44d80:	ea000007 	b	44da4 <l2tp_ppp_profile_unset_1_svc+0x8b4>
   44d84:	e59b3004 	ldr	r3, [fp, #4]
--
   45a28:	e30737d0 	movw	r3, #30672	; 0x77d0
   45a2c:	e3403007 	movt	r3, #7
   45a30:	e5933000 	ldr	r3, [r3]
   45a34:	e2033c01 	and	r3, r3, #256	; 0x100
   45a38:	e3530000 	cmp	r3, #0
   45a3c:	0a00029a 	beq	464ac <l2tp_event_recv+0xbac>
   45a40:	e30737cc 	movw	r3, #30668	; 0x77cc
   45a44:	e3403007 	movt	r3, #7
   45a48:	e5933000 	ldr	r3, [r3]
   45a4c:	e3530000 	cmp	r3, #0
   45a50:	0a00000a 	beq	45a80 <l2tp_event_recv+0x180>
   45a54:	e3024c0c 	movw	r4, #11276	; 0x2c0c
   45a58:	e3404006 	movt	r4, #6
   45a5c:	ebff1db3 	bl	d130 <__errno_location@plt>
   45a60:	e1a03000 	mov	r3, r0
   45a64:	e5933000 	ldr	r3, [r3]
   45a68:	e1a00004 	mov	r0, r4
   45a6c:	e3021ef4 	movw	r1, #12020	; 0x2ef4
   45a70:	e3401006 	movt	r1, #6
   45a74:	e51b2030 	ldr	r2, [fp, #-48]	; 0xffffffd0
[31m   45a78:	ebff1c9b 	bl	ccec <printf@plt>[0m
   45a7c:	ea00028d 	b	464b8 <l2tp_event_recv+0xbb8>
   45a80:	ebff1daa 	bl	d130 <__errno_location@plt>
--
   45cb8:	0a00001d 	beq	45d34 <l2tp_event_recv+0x434>
   45cbc:	e30737d0 	movw	r3, #30672	; 0x77d0
   45cc0:	e3403007 	movt	r3, #7
   45cc4:	e5933000 	ldr	r3, [r3]
   45cc8:	e2033004 	and	r3, r3, #4
   45ccc:	e3530000 	cmp	r3, #0
   45cd0:	0a000017 	beq	45d34 <l2tp_event_recv+0x434>
   45cd4:	e30737cc 	movw	r3, #30668	; 0x77cc
   45cd8:	e3403007 	movt	r3, #7
   45cdc:	e5933000 	ldr	r3, [r3]
   45ce0:	e3530000 	cmp	r3, #0
   45ce4:	0a000009 	beq	45d10 <l2tp_event_recv+0x410>
   45ce8:	e3023cfc 	movw	r3, #11516	; 0x2cfc
   45cec:	e3403006 	movt	r3, #6
   45cf0:	e51b2038 	ldr	r2, [fp, #-56]	; 0xffffffc8
   45cf4:	e1d220b0 	ldrh	r2, [r2]
   45cf8:	e1a01002 	mov	r1, r2
   45cfc:	e51b2038 	ldr	r2, [fp, #-56]	; 0xffffffc8
   45d00:	e1d220b2 	ldrh	r2, [r2, #2]
   45d04:	e1a00003 	mov	r0, r3
[31m   45d08:	ebff1bf7 	bl	ccec <printf@plt>[0m
   45d0c:	ea000008 	b	45d34 <l2tp_event_recv+0x434>
   45d10:	e51b3038 	ldr	r3, [fp, #-56]	; 0xffffffc8
--
   45ff8:	e3403007 	movt	r3, #7
   45ffc:	e5933000 	ldr	r3, [r3]
   46000:	e2033004 	and	r3, r3, #4
   46004:	e3530000 	cmp	r3, #0
   46008:	0a000099 	beq	46274 <l2tp_event_recv+0x974>
   4600c:	e30737cc 	movw	r3, #30668	; 0x77cc
   46010:	e3403007 	movt	r3, #7
   46014:	e5933000 	ldr	r3, [r3]
   46018:	e3530000 	cmp	r3, #0
   4601c:	0a00000b 	beq	46050 <l2tp_event_recv+0x750>
   46020:	e3024d50 	movw	r4, #11600	; 0x2d50
   46024:	e3404006 	movt	r4, #6
   46028:	e51b3038 	ldr	r3, [fp, #-56]	; 0xffffffc8
   4602c:	e2833004 	add	r3, r3, #4
   46030:	e1a00003 	mov	r0, r3
   46034:	ebff1c4f 	bl	d178 <strlen@plt>
   46038:	e1a03000 	mov	r3, r0
   4603c:	e2833001 	add	r3, r3, #1
   46040:	e1a00004 	mov	r0, r4
   46044:	e1a01003 	mov	r1, r3
[31m   46048:	ebff1b27 	bl	ccec <printf@plt>[0m
   4604c:	ea000091 	b	46298 <l2tp_event_recv+0x998>
   46050:	e51b3038 	ldr	r3, [fp, #-56]	; 0xffffffc8
--
   460d0:	e3403007 	movt	r3, #7
   460d4:	e5933000 	ldr	r3, [r3]
   460d8:	e2033004 	and	r3, r3, #4
   460dc:	e3530000 	cmp	r3, #0
   460e0:	0a000067 	beq	46284 <l2tp_event_recv+0x984>
   460e4:	e30737cc 	movw	r3, #30668	; 0x77cc
   460e8:	e3403007 	movt	r3, #7
   460ec:	e5933000 	ldr	r3, [r3]
   460f0:	e3530000 	cmp	r3, #0
   460f4:	0a00000b 	beq	46128 <l2tp_event_recv+0x828>
   460f8:	e3024d50 	movw	r4, #11600	; 0x2d50
   460fc:	e3404006 	movt	r4, #6
   46100:	e51b3038 	ldr	r3, [fp, #-56]	; 0xffffffc8
   46104:	e2833004 	add	r3, r3, #4
   46108:	e1a00003 	mov	r0, r3
   4610c:	ebff1c19 	bl	d178 <strlen@plt>
   46110:	e1a03000 	mov	r3, r0
   46114:	e2833001 	add	r3, r3, #1
   46118:	e1a00004 	mov	r0, r4
   4611c:	e1a01003 	mov	r1, r3
[31m   46120:	ebff1af1 	bl	ccec <printf@plt>[0m
   46124:	ea00005b 	b	46298 <l2tp_event_recv+0x998>
   46128:	e51b3038 	ldr	r3, [fp, #-56]	; 0xffffffc8
--
   4856c:	e3403007 	movt	r3, #7
   48570:	e5933000 	ldr	r3, [r3]
   48574:	e3530000 	cmp	r3, #0
   48578:	0a000017 	beq	485dc <l2tp_statusfile_file_create+0xd4>
   4857c:	e30737d0 	movw	r3, #30672	; 0x77d0
   48580:	e3403007 	movt	r3, #7
   48584:	e5933000 	ldr	r3, [r3]
   48588:	e2033040 	and	r3, r3, #64	; 0x40
   4858c:	e3530000 	cmp	r3, #0
   48590:	0a000011 	beq	485dc <l2tp_statusfile_file_create+0xd4>
   48594:	e30737cc 	movw	r3, #30668	; 0x77cc
   48598:	e3403007 	movt	r3, #7
   4859c:	e5933000 	ldr	r3, [r3]
   485a0:	e3530000 	cmp	r3, #0
   485a4:	0a000006 	beq	485c4 <l2tp_statusfile_file_create+0xbc>
   485a8:	e3023f38 	movw	r3, #12088	; 0x2f38
   485ac:	e3403006 	movt	r3, #6
   485b0:	e24b2f42 	sub	r2, fp, #264	; 0x108
   485b4:	e1a00003 	mov	r0, r3
   485b8:	e1a01002 	mov	r1, r2
[31m   485bc:	ebff11ca 	bl	ccec <printf@plt>[0m
   485c0:	ea000005 	b	485dc <l2tp_statusfile_file_create+0xd4>
   485c4:	e24b3f42 	sub	r3, fp, #264	; 0x108
--
   48718:	e3403007 	movt	r3, #7
   4871c:	e5933000 	ldr	r3, [r3]
   48720:	e3530000 	cmp	r3, #0
   48724:	0a000017 	beq	48788 <l2tp_statusfile_file_delete+0x180>
   48728:	e30737d0 	movw	r3, #30672	; 0x77d0
   4872c:	e3403007 	movt	r3, #7
   48730:	e5933000 	ldr	r3, [r3]
   48734:	e2033040 	and	r3, r3, #64	; 0x40
   48738:	e3530000 	cmp	r3, #0
   4873c:	0a000011 	beq	48788 <l2tp_statusfile_file_delete+0x180>
   48740:	e30737cc 	movw	r3, #30668	; 0x77cc
   48744:	e3403007 	movt	r3, #7
   48748:	e5933000 	ldr	r3, [r3]
   4874c:	e3530000 	cmp	r3, #0
   48750:	0a000006 	beq	48770 <l2tp_statusfile_file_delete+0x168>
   48754:	e3023f94 	movw	r3, #12180	; 0x2f94
   48758:	e3403006 	movt	r3, #6
   4875c:	e24b2f42 	sub	r2, fp, #264	; 0x108
   48760:	e1a00003 	mov	r0, r3
   48764:	e1a01002 	mov	r1, r2
[31m   48768:	ebff115f 	bl	ccec <printf@plt>[0m
   4876c:	ea000005 	b	48788 <l2tp_statusfile_file_delete+0x180>
   48770:	e24b3f42 	sub	r3, fp, #264	; 0x108
--
   48858:	e3403007 	movt	r3, #7
   4885c:	e5933000 	ldr	r3, [r3]
   48860:	e3530000 	cmp	r3, #0
   48864:	0a000017 	beq	488c8 <l2tp_statusfile_dir_create+0x100>
   48868:	e30737d0 	movw	r3, #30672	; 0x77d0
   4886c:	e3403007 	movt	r3, #7
   48870:	e5933000 	ldr	r3, [r3]
   48874:	e2033040 	and	r3, r3, #64	; 0x40
   48878:	e3530000 	cmp	r3, #0
   4887c:	0a000011 	beq	488c8 <l2tp_statusfile_dir_create+0x100>
   48880:	e30737cc 	movw	r3, #30668	; 0x77cc
   48884:	e3403007 	movt	r3, #7
   48888:	e5933000 	ldr	r3, [r3]
   4888c:	e3530000 	cmp	r3, #0
   48890:	0a000006 	beq	488b0 <l2tp_statusfile_dir_create+0xe8>
   48894:	e3023fc8 	movw	r3, #12232	; 0x2fc8
   48898:	e3403006 	movt	r3, #6
   4889c:	e24b2f42 	sub	r2, fp, #264	; 0x108
   488a0:	e1a00003 	mov	r0, r3
   488a4:	e1a01002 	mov	r1, r2
[31m   488a8:	ebff110f 	bl	ccec <printf@plt>[0m
   488ac:	ea000005 	b	488c8 <l2tp_statusfile_dir_create+0x100>
   488b0:	e24b3f42 	sub	r3, fp, #264	; 0x108
--
   48b88:	e3403007 	movt	r3, #7
   48b8c:	e5933000 	ldr	r3, [r3]
   48b90:	e3530000 	cmp	r3, #0
   48b94:	0a000017 	beq	48bf8 <l2tp_statusfile_dir_delete+0x2d8>
   48b98:	e30737d0 	movw	r3, #30672	; 0x77d0
   48b9c:	e3403007 	movt	r3, #7
   48ba0:	e5933000 	ldr	r3, [r3]
   48ba4:	e2033040 	and	r3, r3, #64	; 0x40
   48ba8:	e3530000 	cmp	r3, #0
   48bac:	0a000011 	beq	48bf8 <l2tp_statusfile_dir_delete+0x2d8>
   48bb0:	e30737cc 	movw	r3, #30668	; 0x77cc
   48bb4:	e3403007 	movt	r3, #7
   48bb8:	e5933000 	ldr	r3, [r3]
   48bbc:	e3530000 	cmp	r3, #0
   48bc0:	0a000006 	beq	48be0 <l2tp_statusfile_dir_delete+0x2c0>
   48bc4:	e3033000 	movw	r3, #12288	; 0x3000
   48bc8:	e3403006 	movt	r3, #6
   48bcc:	e24b2e11 	sub	r2, fp, #272	; 0x110
   48bd0:	e1a00003 	mov	r0, r3
   48bd4:	e1a01002 	mov	r1, r2
[31m   48bd8:	ebff1043 	bl	ccec <printf@plt>[0m
   48bdc:	ea000005 	b	48bf8 <l2tp_statusfile_dir_delete+0x2d8>
   48be0:	e24b3e11 	sub	r3, fp, #272	; 0x110
--
   48c18:	e3403007 	movt	r3, #7
   48c1c:	e5933000 	ldr	r3, [r3]
   48c20:	e3530000 	cmp	r3, #0
   48c24:	0a000017 	beq	48c88 <l2tp_statusfile_dir_delete+0x368>
   48c28:	e30737d0 	movw	r3, #30672	; 0x77d0
   48c2c:	e3403007 	movt	r3, #7
   48c30:	e5933000 	ldr	r3, [r3]
   48c34:	e2033040 	and	r3, r3, #64	; 0x40
   48c38:	e3530000 	cmp	r3, #0
   48c3c:	0a000011 	beq	48c88 <l2tp_statusfile_dir_delete+0x368>
   48c40:	e30737cc 	movw	r3, #30668	; 0x77cc
   48c44:	e3403007 	movt	r3, #7
   48c48:	e5933000 	ldr	r3, [r3]
   48c4c:	e3530000 	cmp	r3, #0
   48c50:	0a000006 	beq	48c70 <l2tp_statusfile_dir_delete+0x350>
   48c54:	e3033000 	movw	r3, #12288	; 0x3000
   48c58:	e3403006 	movt	r3, #6
   48c5c:	e24b2e11 	sub	r2, fp, #272	; 0x110
   48c60:	e1a00003 	mov	r0, r3
   48c64:	e1a01002 	mov	r1, r2
[31m   48c68:	ebff101f 	bl	ccec <printf@plt>[0m
   48c6c:	ea000005 	b	48c88 <l2tp_statusfile_dir_delete+0x368>
   48c70:	e24b3e11 	sub	r3, fp, #272	; 0x110
--
   49138:	e5933000 	ldr	r3, [r3]
   4913c:	e3530000 	cmp	r3, #0
   49140:	0a000038 	beq	49228 <l2tp_statusfile_tunnel_created_ind+0x224>
   49144:	e30737d0 	movw	r3, #30672	; 0x77d0
   49148:	e3403007 	movt	r3, #7
   4914c:	e5933000 	ldr	r3, [r3]
   49150:	e2033040 	and	r3, r3, #64	; 0x40
   49154:	e3530000 	cmp	r3, #0
   49158:	0a000034 	beq	49230 <l2tp_statusfile_tunnel_created_ind+0x22c>
   4915c:	e30737cc 	movw	r3, #30668	; 0x77cc
   49160:	e3403007 	movt	r3, #7
   49164:	e5933000 	ldr	r3, [r3]
   49168:	e3530000 	cmp	r3, #0
   4916c:	0a000007 	beq	49190 <l2tp_statusfile_tunnel_created_ind+0x18c>
   49170:	e3033094 	movw	r3, #12436	; 0x3094
   49174:	e3403006 	movt	r3, #6
   49178:	e1a00003 	mov	r0, r3
   4917c:	e303139c 	movw	r1, #13212	; 0x339c
   49180:	e3401006 	movt	r1, #6
   49184:	e51b2008 	ldr	r2, [fp, #-8]
[31m   49188:	ebff0ed7 	bl	ccec <printf@plt>[0m
   4918c:	ea000028 	b	49234 <l2tp_statusfile_tunnel_created_ind+0x230>
   49190:	e3a00007 	mov	r0, #7
--
   49304:	e5933000 	ldr	r3, [r3]
   49308:	e3530000 	cmp	r3, #0
   4930c:	0a00001b 	beq	49380 <l2tp_statusfile_tunnel_deleted_ind+0x13c>
   49310:	e30737d0 	movw	r3, #30672	; 0x77d0
   49314:	e3403007 	movt	r3, #7
   49318:	e5933000 	ldr	r3, [r3]
   4931c:	e2033040 	and	r3, r3, #64	; 0x40
   49320:	e3530000 	cmp	r3, #0
   49324:	0a000015 	beq	49380 <l2tp_statusfile_tunnel_deleted_ind+0x13c>
   49328:	e30737cc 	movw	r3, #30668	; 0x77cc
   4932c:	e3403007 	movt	r3, #7
   49330:	e5933000 	ldr	r3, [r3]
   49334:	e3530000 	cmp	r3, #0
   49338:	0a000007 	beq	4935c <l2tp_statusfile_tunnel_deleted_ind+0x118>
   4933c:	e3033094 	movw	r3, #12436	; 0x3094
   49340:	e3403006 	movt	r3, #6
   49344:	e1a00003 	mov	r0, r3
   49348:	e3031378 	movw	r1, #13176	; 0x3378
   4934c:	e3401006 	movt	r1, #6
   49350:	e51b2008 	ldr	r2, [fp, #-8]
[31m   49354:	ebff0e64 	bl	ccec <printf@plt>[0m
   49358:	ea000008 	b	49380 <l2tp_statusfile_tunnel_deleted_ind+0x13c>
   4935c:	e3a00007 	mov	r0, #7
--
   49410:	e5933000 	ldr	r3, [r3]
   49414:	e3530000 	cmp	r3, #0
   49418:	0a00001b 	beq	4948c <l2tp_statusfile_tunnel_modified_ind+0xfc>
   4941c:	e30737d0 	movw	r3, #30672	; 0x77d0
   49420:	e3403007 	movt	r3, #7
   49424:	e5933000 	ldr	r3, [r3]
   49428:	e2033040 	and	r3, r3, #64	; 0x40
   4942c:	e3530000 	cmp	r3, #0
   49430:	0a000015 	beq	4948c <l2tp_statusfile_tunnel_modified_ind+0xfc>
   49434:	e30737cc 	movw	r3, #30668	; 0x77cc
   49438:	e3403007 	movt	r3, #7
   4943c:	e5933000 	ldr	r3, [r3]
   49440:	e3530000 	cmp	r3, #0
   49444:	0a000007 	beq	49468 <l2tp_statusfile_tunnel_modified_ind+0xd8>
   49448:	e3033094 	movw	r3, #12436	; 0x3094
   4944c:	e3403006 	movt	r3, #6
   49450:	e1a00003 	mov	r0, r3
   49454:	e3031354 	movw	r1, #13140	; 0x3354
   49458:	e3401006 	movt	r1, #6
   4945c:	e51b2008 	ldr	r2, [fp, #-8]
[31m   49460:	ebff0e21 	bl	ccec <printf@plt>[0m
   49464:	ea000008 	b	4948c <l2tp_statusfile_tunnel_modified_ind+0xfc>
   49468:	e3a00007 	mov	r0, #7
--
   4952c:	e5933000 	ldr	r3, [r3]
   49530:	e3530000 	cmp	r3, #0
   49534:	0a00001b 	beq	495a8 <l2tp_statusfile_tunnel_up_ind+0x10c>
   49538:	e30737d0 	movw	r3, #30672	; 0x77d0
   4953c:	e3403007 	movt	r3, #7
   49540:	e5933000 	ldr	r3, [r3]
   49544:	e2033040 	and	r3, r3, #64	; 0x40
   49548:	e3530000 	cmp	r3, #0
   4954c:	0a000015 	beq	495a8 <l2tp_statusfile_tunnel_up_ind+0x10c>
   49550:	e30737cc 	movw	r3, #30668	; 0x77cc
   49554:	e3403007 	movt	r3, #7
   49558:	e5933000 	ldr	r3, [r3]
   4955c:	e3530000 	cmp	r3, #0
   49560:	0a000007 	beq	49584 <l2tp_statusfile_tunnel_up_ind+0xe8>
   49564:	e3033094 	movw	r3, #12436	; 0x3094
   49568:	e3403006 	movt	r3, #6
   4956c:	e1a00003 	mov	r0, r3
   49570:	e3031334 	movw	r1, #13108	; 0x3334
   49574:	e3401006 	movt	r1, #6
   49578:	e51b2008 	ldr	r2, [fp, #-8]
[31m   4957c:	ebff0dda 	bl	ccec <printf@plt>[0m
   49580:	ea000008 	b	495a8 <l2tp_statusfile_tunnel_up_ind+0x10c>
   49584:	e3a00007 	mov	r0, #7
--
   49638:	e5933000 	ldr	r3, [r3]
   4963c:	e3530000 	cmp	r3, #0
   49640:	0a00001b 	beq	496b4 <l2tp_statusfile_tunnel_down_ind+0xfc>
   49644:	e30737d0 	movw	r3, #30672	; 0x77d0
   49648:	e3403007 	movt	r3, #7
   4964c:	e5933000 	ldr	r3, [r3]
   49650:	e2033040 	and	r3, r3, #64	; 0x40
   49654:	e3530000 	cmp	r3, #0
   49658:	0a000015 	beq	496b4 <l2tp_statusfile_tunnel_down_ind+0xfc>
   4965c:	e30737cc 	movw	r3, #30668	; 0x77cc
   49660:	e3403007 	movt	r3, #7
   49664:	e5933000 	ldr	r3, [r3]
   49668:	e3530000 	cmp	r3, #0
   4966c:	0a000007 	beq	49690 <l2tp_statusfile_tunnel_down_ind+0xd8>
   49670:	e3033094 	movw	r3, #12436	; 0x3094
   49674:	e3403006 	movt	r3, #6
   49678:	e1a00003 	mov	r0, r3
   4967c:	e3031314 	movw	r1, #13076	; 0x3314
   49680:	e3401006 	movt	r1, #6
   49684:	e51b2008 	ldr	r2, [fp, #-8]
[31m   49688:	ebff0d97 	bl	ccec <printf@plt>[0m
   4968c:	ea000008 	b	496b4 <l2tp_statusfile_tunnel_down_ind+0xfc>
   49690:	e3a00007 	mov	r0, #7
--
   4988c:	e5933000 	ldr	r3, [r3]
   49890:	e3530000 	cmp	r3, #0
   49894:	0a000019 	beq	49900 <l2tp_statusfile_session_created_ind+0x23c>
   49898:	e30737d0 	movw	r3, #30672	; 0x77d0
   4989c:	e3403007 	movt	r3, #7
   498a0:	e5933000 	ldr	r3, [r3]
   498a4:	e2033040 	and	r3, r3, #64	; 0x40
   498a8:	e3530000 	cmp	r3, #0
   498ac:	0a000013 	beq	49900 <l2tp_statusfile_session_created_ind+0x23c>
   498b0:	e30737cc 	movw	r3, #30668	; 0x77cc
   498b4:	e3403007 	movt	r3, #7
   498b8:	e5933000 	ldr	r3, [r3]
   498bc:	e3530000 	cmp	r3, #0
   498c0:	0a000007 	beq	498e4 <l2tp_statusfile_session_created_ind+0x220>
   498c4:	e3033094 	movw	r3, #12436	; 0x3094
   498c8:	e3403006 	movt	r3, #6
   498cc:	e1a00003 	mov	r0, r3
   498d0:	e30312f0 	movw	r1, #13040	; 0x32f0
   498d4:	e3401006 	movt	r1, #6
   498d8:	e51b2008 	ldr	r2, [fp, #-8]
[31m   498dc:	ebff0d02 	bl	ccec <printf@plt>[0m
   498e0:	ea000006 	b	49900 <l2tp_statusfile_session_created_ind+0x23c>
   498e4:	e3a00007 	mov	r0, #7
--
   49a94:	e5933000 	ldr	r3, [r3]
   49a98:	e3530000 	cmp	r3, #0
   49a9c:	0a00001b 	beq	49b10 <l2tp_statusfile_session_deleted_ind+0x170>
   49aa0:	e30737d0 	movw	r3, #30672	; 0x77d0
   49aa4:	e3403007 	movt	r3, #7
   49aa8:	e5933000 	ldr	r3, [r3]
   49aac:	e2033040 	and	r3, r3, #64	; 0x40
   49ab0:	e3530000 	cmp	r3, #0
   49ab4:	0a000015 	beq	49b10 <l2tp_statusfile_session_deleted_ind+0x170>
   49ab8:	e30737cc 	movw	r3, #30668	; 0x77cc
   49abc:	e3403007 	movt	r3, #7
   49ac0:	e5933000 	ldr	r3, [r3]
   49ac4:	e3530000 	cmp	r3, #0
   49ac8:	0a000007 	beq	49aec <l2tp_statusfile_session_deleted_ind+0x14c>
   49acc:	e3033094 	movw	r3, #12436	; 0x3094
   49ad0:	e3403006 	movt	r3, #6
   49ad4:	e1a00003 	mov	r0, r3
   49ad8:	e30312cc 	movw	r1, #13004	; 0x32cc
   49adc:	e3401006 	movt	r1, #6
   49ae0:	e51b2008 	ldr	r2, [fp, #-8]
[31m   49ae4:	ebff0c80 	bl	ccec <printf@plt>[0m
   49ae8:	ea000008 	b	49b10 <l2tp_statusfile_session_deleted_ind+0x170>
   49aec:	e3a00007 	mov	r0, #7
--
   49bc4:	e5933000 	ldr	r3, [r3]
   49bc8:	e3530000 	cmp	r3, #0
   49bcc:	0a00001b 	beq	49c40 <l2tp_statusfile_session_modified_ind+0x120>
   49bd0:	e30737d0 	movw	r3, #30672	; 0x77d0
   49bd4:	e3403007 	movt	r3, #7
   49bd8:	e5933000 	ldr	r3, [r3]
   49bdc:	e2033040 	and	r3, r3, #64	; 0x40
   49be0:	e3530000 	cmp	r3, #0
   49be4:	0a000015 	beq	49c40 <l2tp_statusfile_session_modified_ind+0x120>
   49be8:	e30737cc 	movw	r3, #30668	; 0x77cc
   49bec:	e3403007 	movt	r3, #7
   49bf0:	e5933000 	ldr	r3, [r3]
   49bf4:	e3530000 	cmp	r3, #0
   49bf8:	0a000007 	beq	49c1c <l2tp_statusfile_session_modified_ind+0xfc>
   49bfc:	e3033094 	movw	r3, #12436	; 0x3094
   49c00:	e3403006 	movt	r3, #6
   49c04:	e1a00003 	mov	r0, r3
   49c08:	e30312a4 	movw	r1, #12964	; 0x32a4
   49c0c:	e3401006 	movt	r1, #6
   49c10:	e51b2008 	ldr	r2, [fp, #-8]
[31m   49c14:	ebff0c34 	bl	ccec <printf@plt>[0m
   49c18:	ea000008 	b	49c40 <l2tp_statusfile_session_modified_ind+0x120>
   49c1c:	e3a00007 	mov	r0, #7
--
   49d00:	e5933000 	ldr	r3, [r3]
   49d04:	e3530000 	cmp	r3, #0
   49d08:	0a00001b 	beq	49d7c <l2tp_statusfile_session_up_ind+0x12c>
   49d0c:	e30737d0 	movw	r3, #30672	; 0x77d0
   49d10:	e3403007 	movt	r3, #7
   49d14:	e5933000 	ldr	r3, [r3]
   49d18:	e2033040 	and	r3, r3, #64	; 0x40
   49d1c:	e3530000 	cmp	r3, #0
   49d20:	0a000015 	beq	49d7c <l2tp_statusfile_session_up_ind+0x12c>
   49d24:	e30737cc 	movw	r3, #30668	; 0x77cc
   49d28:	e3403007 	movt	r3, #7
   49d2c:	e5933000 	ldr	r3, [r3]
   49d30:	e3530000 	cmp	r3, #0
   49d34:	0a000007 	beq	49d58 <l2tp_statusfile_session_up_ind+0x108>
   49d38:	e3033094 	movw	r3, #12436	; 0x3094
   49d3c:	e3403006 	movt	r3, #6
   49d40:	e1a00003 	mov	r0, r3
   49d44:	e3031284 	movw	r1, #12932	; 0x3284
   49d48:	e3401006 	movt	r1, #6
   49d4c:	e51b2008 	ldr	r2, [fp, #-8]
[31m   49d50:	ebff0be5 	bl	ccec <printf@plt>[0m
   49d54:	ea000008 	b	49d7c <l2tp_statusfile_session_up_ind+0x12c>
   49d58:	e3a00007 	mov	r0, #7
--
   49e30:	e5933000 	ldr	r3, [r3]
   49e34:	e3530000 	cmp	r3, #0
   49e38:	0a00001b 	beq	49eac <l2tp_statusfile_session_down_ind+0x120>
   49e3c:	e30737d0 	movw	r3, #30672	; 0x77d0
   49e40:	e3403007 	movt	r3, #7
   49e44:	e5933000 	ldr	r3, [r3]
   49e48:	e2033040 	and	r3, r3, #64	; 0x40
   49e4c:	e3530000 	cmp	r3, #0
   49e50:	0a000015 	beq	49eac <l2tp_statusfile_session_down_ind+0x120>
   49e54:	e30737cc 	movw	r3, #30668	; 0x77cc
   49e58:	e3403007 	movt	r3, #7
   49e5c:	e5933000 	ldr	r3, [r3]
   49e60:	e3530000 	cmp	r3, #0
   49e64:	0a000007 	beq	49e88 <l2tp_statusfile_session_down_ind+0xfc>
   49e68:	e3033094 	movw	r3, #12436	; 0x3094
   49e6c:	e3403006 	movt	r3, #6
   49e70:	e1a00003 	mov	r0, r3
   49e74:	e3031260 	movw	r1, #12896	; 0x3260
   49e78:	e3401006 	movt	r1, #6
   49e7c:	e51b2008 	ldr	r2, [fp, #-8]
[31m   49e80:	ebff0b99 	bl	ccec <printf@plt>[0m
   49e84:	ea000008 	b	49eac <l2tp_statusfile_session_down_ind+0x120>
   49e88:	e3a00007 	mov	r0, #7
--
   49fd8:	e5933000 	ldr	r3, [r3]
   49fdc:	e3530000 	cmp	r3, #0
   49fe0:	0a000019 	beq	4a04c <l2tp_statusfile_peer_created_ind+0x190>
   49fe4:	e30737d0 	movw	r3, #30672	; 0x77d0
   49fe8:	e3403007 	movt	r3, #7
   49fec:	e5933000 	ldr	r3, [r3]
   49ff0:	e2033040 	and	r3, r3, #64	; 0x40
   49ff4:	e3530000 	cmp	r3, #0
   49ff8:	0a000013 	beq	4a04c <l2tp_statusfile_peer_created_ind+0x190>
   49ffc:	e30737cc 	movw	r3, #30668	; 0x77cc
   4a000:	e3403007 	movt	r3, #7
   4a004:	e5933000 	ldr	r3, [r3]
   4a008:	e3530000 	cmp	r3, #0
   4a00c:	0a000007 	beq	4a030 <l2tp_statusfile_peer_created_ind+0x174>
   4a010:	e3033094 	movw	r3, #12436	; 0x3094
   4a014:	e3403006 	movt	r3, #6
   4a018:	e1a00003 	mov	r0, r3
   4a01c:	e303123c 	movw	r1, #12860	; 0x323c
   4a020:	e3401006 	movt	r1, #6
   4a024:	e51b2008 	ldr	r2, [fp, #-8]
[31m   4a028:	ebff0b2f 	bl	ccec <printf@plt>[0m
   4a02c:	ea000006 	b	4a04c <l2tp_statusfile_peer_created_ind+0x190>
   4a030:	e3a00007 	mov	r0, #7
--
   4a1b8:	e5933000 	ldr	r3, [r3]
   4a1bc:	e3530000 	cmp	r3, #0
   4a1c0:	0a00001b 	beq	4a234 <l2tp_statusfile_peer_deleted_ind+0x180>
   4a1c4:	e30737d0 	movw	r3, #30672	; 0x77d0
   4a1c8:	e3403007 	movt	r3, #7
   4a1cc:	e5933000 	ldr	r3, [r3]
   4a1d0:	e2033040 	and	r3, r3, #64	; 0x40
   4a1d4:	e3530000 	cmp	r3, #0
   4a1d8:	0a000015 	beq	4a234 <l2tp_statusfile_peer_deleted_ind+0x180>
   4a1dc:	e30737cc 	movw	r3, #30668	; 0x77cc
   4a1e0:	e3403007 	movt	r3, #7
   4a1e4:	e5933000 	ldr	r3, [r3]
   4a1e8:	e3530000 	cmp	r3, #0
   4a1ec:	0a000007 	beq	4a210 <l2tp_statusfile_peer_deleted_ind+0x15c>
   4a1f0:	e3033094 	movw	r3, #12436	; 0x3094
   4a1f4:	e3403006 	movt	r3, #6
   4a1f8:	e1a00003 	mov	r0, r3
   4a1fc:	e3031218 	movw	r1, #12824	; 0x3218
   4a200:	e3401006 	movt	r1, #6
   4a204:	e51b2008 	ldr	r2, [fp, #-8]
[31m   4a208:	ebff0ab7 	bl	ccec <printf@plt>[0m
   4a20c:	ea000008 	b	4a234 <l2tp_statusfile_peer_deleted_ind+0x180>
   4a210:	e3a00007 	mov	r0, #7
--
   4dc30:	e24dd014 	sub	sp, sp, #20
   4dc34:	e50b0018 	str	r0, [fp, #-24]	; 0xffffffe8
   4dc38:	e50b101c 	str	r1, [fp, #-28]	; 0xffffffe4
   4dc3c:	e24b3014 	sub	r3, fp, #20
   4dc40:	e51b0018 	ldr	r0, [fp, #-24]	; 0xffffffe8
   4dc44:	e3a01000 	mov	r1, #0
   4dc48:	e3a02000 	mov	r2, #0
   4dc4c:	ebfefd28 	bl	d0f4 <getaddrinfo@plt>
   4dc50:	e50b0010 	str	r0, [fp, #-16]
   4dc54:	e51b3010 	ldr	r3, [fp, #-16]
   4dc58:	e3530000 	cmp	r3, #0
   4dc5c:	0a00000a 	beq	4dc8c <resolveip+0x64>
   4dc60:	e30b4dfc 	movw	r4, #48636	; 0xbdfc
   4dc64:	e3404006 	movt	r4, #6
   4dc68:	e51b0010 	ldr	r0, [fp, #-16]
   4dc6c:	ebfefc78 	bl	ce54 <gai_strerror@plt>
   4dc70:	e1a03000 	mov	r3, r0
   4dc74:	e1a00004 	mov	r0, r4
   4dc78:	e51b1018 	ldr	r1, [fp, #-24]	; 0xffffffe8
   4dc7c:	e1a02003 	mov	r2, r3
[31m   4dc80:	ebfefc19 	bl	ccec <printf@plt>[0m
   4dc84:	e3a03000 	mov	r3, #0
   4dc88:	ea000008 	b	4dcb0 <resolveip+0x88>

[0m
[[0;33m*[0m] Function [0;33mprintf[0m used [0;33m264[0m times [0;33mopenl2tpd[0m

