[[0;33m*[0m] Binary protection state of [0;33mudhcpd[0m
[REF] s12

  	RELRO          CANARY            NX           PIE       RPATH        RUNPATH      SYMBOLS      
  	[31mNo RELRO[0m       [31mNo Canary found[0m   [32mNX enabled[0m   [31mNo PIE[0m       [32mNo RPATH[0m     [32mNo RUNPATH[0m   [32mNo Symbols[0m

[0m
[[0;33m*[0m] Function [0;33mprintf[0m tear down of [0;33mudhcpd[0m

    9340:	e1a04000 	mov	r4, r0
    9344:	e5930044 	ldr	r0, [r3, #68]	; 0x44
    9348:	eb0011e2 	bl	dad8 <_start+0x4878>
    934c:	e1a00004 	mov	r0, r4
    9350:	ebffffa1 	bl	91dc <exit@plt>
    9354:	e52de004 	push	{lr}		; (str lr, [sp, #-4]!)
    9358:	e24dd00c 	sub	sp, sp, #12
    935c:	e28d1008 	add	r1, sp, #8
    9360:	e3a02004 	mov	r2, #4
    9364:	e3a03040 	mov	r3, #64	; 0x40
    9368:	e5210004 	str	r0, [r1, #-4]!
    936c:	e59f0044 	ldr	r0, [pc, #68]	; 93b8 <_start+0x158>
    9370:	e5900004 	ldr	r0, [r0, #4]
    9374:	ebffff0e 	bl	8fb4 <send@plt>
    9378:	e3500000 	cmp	r0, #0
    937c:	ba000001 	blt	9388 <_start+0x128>
    9380:	e28dd00c 	add	sp, sp, #12
    9384:	e8bd8000 	ldmfd	sp!, {pc}
    9388:	e59f102c 	ldr	r1, [pc, #44]	; 93bc <_start+0x15c>
    938c:	e59f002c 	ldr	r0, [pc, #44]	; 93c0 <_start+0x160>
[31m    9390:	ebfffed1 	bl	8edc <printf@plt>[0m
    9394:	ebffff8d 	bl	91d0 <__errno_location@plt>
    9398:	e5900000 	ldr	r0, [r0]
    939c:	ebfffed7 	bl	8f00 <strerror@plt>
    93a0:	e1a01000 	mov	r1, r0
    93a4:	e59f0018 	ldr	r0, [pc, #24]	; 93c4 <_start+0x164>
[31m    93a8:	ebfffecb 	bl	8edc <printf@plt>[0m
    93ac:	e3a0000a 	mov	r0, #10
    93b0:	ebfffeba 	bl	8ea0 <putchar@plt>
    93b4:	eafffff1 	b	9380 <_start+0x120>
    93b8:	00017938 	andeq	r7, r1, r8, lsr r9
    93bc:	0000dc64 	andeq	sp, r0, r4, ror #24
    93c0:	0000dc5c 	andeq	sp, r0, ip, asr ip
    93c4:	0000dc6c 	andeq	sp, r0, ip, ror #24
    93c8:	e92d4ff0 	push	{r4, r5, r6, r7, r8, r9, sl, fp, lr}
    93cc:	e1a05000 	mov	r5, r0
    93d0:	e24ddfcd 	sub	sp, sp, #820	; 0x334
    93d4:	e1a04001 	mov	r4, r1
    93d8:	e59f068c 	ldr	r0, [pc, #1676]	; 9a6c <_start+0x80c>
    93dc:	e59f168c 	ldr	r1, [pc, #1676]	; 9a70 <_start+0x810>
[31m    93e0:	ebfffebd 	bl	8edc <printf@plt>[0m
    93e4:	e59f1688 	ldr	r1, [pc, #1672]	; 9a74 <_start+0x814>
    93e8:	e59f0688 	ldr	r0, [pc, #1672]	; 9a78 <_start+0x818>
[31m    93ec:	ebfffeba 	bl	8edc <printf@plt>[0m
    93f0:	e3a0000a 	mov	r0, #10
    93f4:	ebfffea9 	bl	8ea0 <putchar@plt>
--
    9610:	e28d0020 	add	r0, sp, #32
    9614:	e1a01006 	mov	r1, r6
    9618:	eb000fcb 	bl	d54c <_start+0x42ec>
    961c:	e3500000 	cmp	r0, #0
    9620:	ba00002a 	blt	96d0 <_start+0x470>
    9624:	e28d0020 	add	r0, sp, #32
    9628:	e3a01035 	mov	r1, #53	; 0x35
    962c:	eb000dc2 	bl	cd3c <_start+0x3adc>
    9630:	e250b000 	subs	fp, r0, #0
    9634:	0affffc8 	beq	955c <_start+0x2fc>
    9638:	e5970058 	ldr	r0, [r7, #88]	; 0x58
    963c:	e28d103c 	add	r1, sp, #60	; 0x3c
    9640:	eb0006f0 	bl	b208 <_start+0x1fa8>
    9644:	e3500000 	cmp	r0, #0
    9648:	e58d0018 	str	r0, [sp, #24]
    964c:	0a0000d9 	beq	99b8 <_start+0x758>
    9650:	e28dcfb1 	add	ip, sp, #708	; 0x2c4
    9654:	e59f1414 	ldr	r1, [pc, #1044]	; 9a70 <_start+0x810>
    9658:	e59f040c 	ldr	r0, [pc, #1036]	; 9a6c <_start+0x80c>
    965c:	e58dc014 	str	ip, [sp, #20]
[31m    9660:	ebfffe1d 	bl	8edc <printf@plt>[0m
    9664:	e59d1018 	ldr	r1, [sp, #24]
    9668:	e59f0424 	ldr	r0, [pc, #1060]	; 9a94 <_start+0x834>
[31m    966c:	ebfffe1a 	bl	8edc <printf@plt>[0m
    9670:	e3a0000a 	mov	r0, #10
    9674:	ebfffe09 	bl	8ea0 <putchar@plt>
--
    96c0:	00009890 	muleq	r0, r0, r8
    96c4:	00009890 	muleq	r0, r0, r8
    96c8:	00009840 	andeq	r9, r0, r0, asr #16
    96cc:	00009740 	andeq	r9, r0, r0, asr #14
    96d0:	e3700001 	cmn	r0, #1
    96d4:	1affffa0 	bne	955c <_start+0x2fc>
    96d8:	ebfffebc 	bl	91d0 <__errno_location@plt>
    96dc:	e5903000 	ldr	r3, [r0]
    96e0:	e3530004 	cmp	r3, #4
    96e4:	0affff9c 	beq	955c <_start+0x2fc>
    96e8:	e1a00006 	mov	r0, r6
    96ec:	ebfffed2 	bl	923c <close@plt>
    96f0:	e3a00000 	mov	r0, #0
    96f4:	e3a01043 	mov	r1, #67	; 0x43
    96f8:	e5972010 	ldr	r2, [r7, #16]
    96fc:	eb000f09 	bl	d328 <_start+0x40c8>
    9700:	e2506000 	subs	r6, r0, #0
    9704:	aaffff96 	bge	9564 <_start+0x304>
    9708:	e59f1388 	ldr	r1, [pc, #904]	; 9a98 <_start+0x838>
    970c:	e59f0358 	ldr	r0, [pc, #856]	; 9a6c <_start+0x80c>
[31m    9710:	ebfffdf1 	bl	8edc <printf@plt>[0m
    9714:	ebfffead 	bl	91d0 <__errno_location@plt>
    9718:	e5900000 	ldr	r0, [r0]
    971c:	ebfffdf7 	bl	8f00 <strerror@plt>
    9720:	e1a01000 	mov	r1, r0
    9724:	e59f0370 	ldr	r0, [pc, #880]	; 9a9c <_start+0x83c>
[31m    9728:	ebfffdeb 	bl	8edc <printf@plt>[0m
    972c:	e3a0000a 	mov	r0, #10
    9730:	ebfffdda 	bl	8ea0 <putchar@plt>
--
    9828:	e59d3328 	ldr	r3, [sp, #808]	; 0x328
    982c:	e1510003 	cmp	r1, r3
    9830:	1affff49 	bne	955c <_start+0x2fc>
    9834:	e28d0020 	add	r0, sp, #32
    9838:	eb0005db 	bl	afac <_start+0x1d4c>
    983c:	eaffff46 	b	955c <_start+0x2fc>
    9840:	e35c0000 	cmp	ip, #0
    9844:	0affff44 	beq	955c <_start+0x2fc>
    9848:	e3a00000 	mov	r0, #0
    984c:	e58dc014 	str	ip, [sp, #20]
    9850:	ebfffe40 	bl	9158 <time@plt>
    9854:	e59dc014 	ldr	ip, [sp, #20]
    9858:	e58c0014 	str	r0, [ip, #20]
    985c:	eaffff3e 	b	955c <_start+0x2fc>
    9860:	e28d0020 	add	r0, sp, #32
    9864:	eb000508 	bl	ac8c <_start+0x1a2c>
    9868:	e3500000 	cmp	r0, #0
    986c:	aaffff3a 	bge	955c <_start+0x2fc>
    9870:	e59f1220 	ldr	r1, [pc, #544]	; 9a98 <_start+0x838>
    9874:	e59f01f0 	ldr	r0, [pc, #496]	; 9a6c <_start+0x80c>
[31m    9878:	ebfffd97 	bl	8edc <printf@plt>[0m
    987c:	e59f021c 	ldr	r0, [pc, #540]	; 9aa0 <_start+0x840>
[31m    9880:	ebfffd95 	bl	8edc <printf@plt>[0m
    9884:	e3a0000a 	mov	r0, #10
    9888:	ebfffd84 	bl	8ea0 <putchar@plt>
    988c:	eaffff32 	b	955c <_start+0x2fc>
    9890:	e59f120c 	ldr	r1, [pc, #524]	; 9aa4 <_start+0x844>
    9894:	e59f01d0 	ldr	r0, [pc, #464]	; 9a6c <_start+0x80c>
[31m    9898:	ebfffd8f 	bl	8edc <printf@plt>[0m
    989c:	e5db1000 	ldrb	r1, [fp]
    98a0:	e59f0200 	ldr	r0, [pc, #512]	; 9aa8 <_start+0x848>
[31m    98a4:	ebfffd8c 	bl	8edc <printf@plt>[0m
    98a8:	e3a0000a 	mov	r0, #10
    98ac:	ebfffd7b 	bl	8ea0 <putchar@plt>
    98b0:	eaffff29 	b	955c <_start+0x2fc>
    98b4:	e59f11b4 	ldr	r1, [pc, #436]	; 9a70 <_start+0x810>
    98b8:	e59f01ac 	ldr	r0, [pc, #428]	; 9a6c <_start+0x80c>
[31m    98bc:	ebfffd86 	bl	8edc <printf@plt>[0m
    98c0:	e59f01e4 	ldr	r0, [pc, #484]	; 9aac <_start+0x84c>
[31m    98c4:	ebfffd84 	bl	8edc <printf@plt>[0m
    98c8:	e1a0000b 	mov	r0, fp
    98cc:	ebfffd73 	bl	8ea0 <putchar@plt>
--
    9948:	b1a00000 	movlt	r0, r0
    994c:	e2800001 	add	r0, r0, #1
    9950:	eaffff1d 	b	95cc <_start+0x36c>
    9954:	ebfffe1d 	bl	91d0 <__errno_location@plt>
    9958:	e5903000 	ldr	r3, [r0]
    995c:	e3530004 	cmp	r3, #4
    9960:	1afffefd 	bne	955c <_start+0x2fc>
    9964:	eaffff20 	b	95ec <_start+0x38c>
    9968:	e28d1fc9 	add	r1, sp, #804	; 0x324
    996c:	e3a02004 	mov	r2, #4
    9970:	ebfffdb9 	bl	905c <read@plt>
    9974:	e3500000 	cmp	r0, #0
    9978:	bafffef7 	blt	955c <_start+0x2fc>
    997c:	e59db324 	ldr	fp, [sp, #804]	; 0x324
    9980:	e35b000a 	cmp	fp, #10
    9984:	0affffca 	beq	98b4 <_start+0x654>
    9988:	e35b000f 	cmp	fp, #15
    998c:	1affff1f 	bne	9610 <_start+0x3b0>
    9990:	e59f10d8 	ldr	r1, [pc, #216]	; 9a70 <_start+0x810>
    9994:	e59f00d0 	ldr	r0, [pc, #208]	; 9a6c <_start+0x80c>
[31m    9998:	ebfffd4f 	bl	8edc <printf@plt>[0m
    999c:	e59f010c 	ldr	r0, [pc, #268]	; 9ab0 <_start+0x850>
[31m    99a0:	ebfffd4d 	bl	8edc <printf@plt>[0m
    99a4:	e3a0000a 	mov	r0, #10
    99a8:	ebfffd3c 	bl	8ea0 <putchar@plt>
--
    9ce0:	ebfffc80 	bl	8ee8 <recv@plt>
    9ce4:	e1dd3bb8 	ldrh	r3, [sp, #184]	; 0xb8
    9ce8:	e3500000 	cmp	r0, #0
    9cec:	b3a09000 	movlt	r9, #0
    9cf0:	e3530c02 	cmp	r3, #512	; 0x200
    9cf4:	1affffe0 	bne	9c7c <_start+0xa1c>
    9cf8:	e59d001c 	ldr	r0, [sp, #28]
    9cfc:	e3a02006 	mov	r2, #6
    9d00:	e59d1014 	ldr	r1, [sp, #20]
    9d04:	ebfffc6b 	bl	8eb8 <bcmp@plt>
    9d08:	e3500000 	cmp	r0, #0
    9d0c:	1affffda 	bne	9c7c <_start+0xa1c>
    9d10:	e59d30c0 	ldr	r3, [sp, #192]	; 0xc0
    9d14:	e59d2018 	ldr	r2, [sp, #24]
    9d18:	e1530002 	cmp	r3, r2
    9d1c:	1affffd6 	bne	9c7c <_start+0xa1c>
    9d20:	e1a09004 	mov	r9, r4
    9d24:	eaffffdf 	b	9ca8 <_start+0xa48>
    9d28:	e59f1048 	ldr	r1, [pc, #72]	; 9d78 <_start+0xb18>
    9d2c:	e59f0048 	ldr	r0, [pc, #72]	; 9d7c <_start+0xb1c>
[31m    9d30:	ebfffc69 	bl	8edc <printf@plt>[0m
    9d34:	e59f0044 	ldr	r0, [pc, #68]	; 9d80 <_start+0xb20>
[31m    9d38:	ebfffc67 	bl	8edc <printf@plt>[0m
    9d3c:	e3a0000a 	mov	r0, #10
    9d40:	ebfffc56 	bl	8ea0 <putchar@plt>
    9d44:	e59d9010 	ldr	r9, [sp, #16]
    9d48:	eaffffd8 	b	9cb0 <_start+0xa50>
    9d4c:	e59f1024 	ldr	r1, [pc, #36]	; 9d78 <_start+0xb18>
    9d50:	e59f0024 	ldr	r0, [pc, #36]	; 9d7c <_start+0xb1c>
[31m    9d54:	ebfffc60 	bl	8edc <printf@plt>[0m
    9d58:	e59f0024 	ldr	r0, [pc, #36]	; 9d84 <_start+0xb24>
[31m    9d5c:	ebfffc5e 	bl	8edc <printf@plt>[0m
    9d60:	e3a0000a 	mov	r0, #10
    9d64:	ebfffc4d 	bl	8ea0 <putchar@plt>
--
    a340:	ea000002 	b	a350 <_start+0x10f0>
    a344:	e5f73038 	ldrb	r3, [r7, #56]!	; 0x38
    a348:	e3530000 	cmp	r3, #0
    a34c:	0affffb9 	beq	a238 <_start+0xfd8>
    a350:	e0668186 	rsb	r8, r6, r6, lsl #3
    a354:	e1a0000a 	mov	r0, sl
    a358:	e2866001 	add	r6, r6, #1
    a35c:	e1a08188 	lsl	r8, r8, #3
    a360:	e0851008 	add	r1, r5, r8
    a364:	ebfffb48 	bl	908c <strcasecmp@plt>
    a368:	e3500000 	cmp	r0, #0
    a36c:	1afffff4 	bne	a344 <_start+0x10e4>
    a370:	e5971014 	ldr	r1, [r7, #20]
    a374:	e1a00009 	mov	r0, r9
    a378:	e5973010 	ldr	r3, [r7, #16]
    a37c:	e12fff33 	blx	r3
    a380:	e3500000 	cmp	r0, #0
    a384:	1affffee 	bne	a344 <_start+0x10e4>
    a388:	e59f108c 	ldr	r1, [pc, #140]	; a41c <_start+0x11bc>
    a38c:	e59f008c 	ldr	r0, [pc, #140]	; a420 <_start+0x11c0>
[31m    a390:	ebfffad1 	bl	8edc <printf@plt>[0m
    a394:	e28d1008 	add	r1, sp, #8
    a398:	e59f0084 	ldr	r0, [pc, #132]	; a424 <_start+0x11c4>
[31m    a39c:	ebffface 	bl	8edc <printf@plt>[0m
    a3a0:	e3a0000a 	mov	r0, #10
    a3a4:	ebfffabd 	bl	8ea0 <putchar@plt>
    a3a8:	e3072230 	movw	r2, #29232	; 0x7230
    a3ac:	e2880018 	add	r0, r8, #24
    a3b0:	e3402001 	movt	r2, #1
    a3b4:	e5973010 	ldr	r3, [r7, #16]
    a3b8:	e5971014 	ldr	r1, [r7, #20]
    a3bc:	e0820000 	add	r0, r2, r0
    a3c0:	e12fff33 	blx	r3
    a3c4:	eaffffde 	b	a344 <_start+0x10e4>
    a3c8:	e1a02006 	mov	r2, r6
    a3cc:	eaffffd5 	b	a328 <_start+0x10c8>
    a3d0:	e59d0004 	ldr	r0, [sp, #4]
    a3d4:	ebfffb59 	bl	9140 <fclose@plt>
    a3d8:	e3a00001 	mov	r0, #1
    a3dc:	e28dd0ac 	add	sp, sp, #172	; 0xac
    a3e0:	e8bd8ff0 	pop	{r4, r5, r6, r7, r8, r9, sl, fp, pc}
    a3e4:	e59f1030 	ldr	r1, [pc, #48]	; a41c <_start+0x11bc>
    a3e8:	e59f0030 	ldr	r0, [pc, #48]	; a420 <_start+0x11c0>
[31m    a3ec:	ebfffaba 	bl	8edc <printf@plt>[0m
    a3f0:	e1a01008 	mov	r1, r8
    a3f4:	e59f002c 	ldr	r0, [pc, #44]	; a428 <_start+0x11c8>
[31m    a3f8:	ebfffab7 	bl	8edc <printf@plt>[0m
    a3fc:	e3a0000a 	mov	r0, #10
    a400:	ebfffaa6 	bl	8ea0 <putchar@plt>
--
    a538:	006bc00c 	rsbeq	ip, fp, ip
    a53c:	06bfcf3c 	reveq	ip, ip
    a540:	eaffffcf 	b	a484 <_start+0x1224>
    a544:	e1a00008 	mov	r0, r8
    a548:	ebfffafc 	bl	9140 <fclose@plt>
    a54c:	e5972048 	ldr	r2, [r7, #72]	; 0x48
    a550:	e3520000 	cmp	r2, #0
    a554:	0a000007 	beq	a578 <_start+0x1318>
    a558:	e59f3044 	ldr	r3, [pc, #68]	; a5a4 <_start+0x1344>
    a55c:	e28d4004 	add	r4, sp, #4
    a560:	e59f1048 	ldr	r1, [pc, #72]	; a5b0 <_start+0x1350>
    a564:	e1a00004 	mov	r0, r4
    a568:	e5933040 	ldr	r3, [r3, #64]	; 0x40
[31m    a56c:	ebfffb05 	bl	9188 <sprintf@plt>[0m
    a570:	e1a00004 	mov	r0, r4
    a574:	ebfffa7c 	bl	8f6c <system@plt>
    a578:	e28ddf43 	add	sp, sp, #268	; 0x10c
    a57c:	e8bd8ff0 	pop	{r4, r5, r6, r7, r8, r9, sl, fp, pc}
    a580:	e59f102c 	ldr	r1, [pc, #44]	; a5b4 <_start+0x1354>
    a584:	e59f002c 	ldr	r0, [pc, #44]	; a5b8 <_start+0x1358>
[31m    a588:	ebfffa53 	bl	8edc <printf@plt>[0m
    a58c:	e5971040 	ldr	r1, [r7, #64]	; 0x40
    a590:	e59f0024 	ldr	r0, [pc, #36]	; a5bc <_start+0x135c>
[31m    a594:	ebfffa50 	bl	8edc <printf@plt>[0m
    a598:	e3a0000a 	mov	r0, #10
    a59c:	ebfffa3f 	bl	8ea0 <putchar@plt>
--
    a630:	3affffef 	bcc	a5f4 <_start+0x1394>
    a634:	e5942008 	ldr	r2, [r4, #8]
    a638:	e6bf2f32 	rev	r2, r2
    a63c:	e1530002 	cmp	r3, r2
    a640:	8affffeb 	bhi	a5f4 <_start+0x1394>
    a644:	e5d40028 	ldrb	r0, [r4, #40]	; 0x28
    a648:	e2855001 	add	r5, r5, #1
    a64c:	e59d2024 	ldr	r2, [sp, #36]	; 0x24
    a650:	e3500000 	cmp	r0, #0
    a654:	e6bf2f32 	rev	r2, r2
    a658:	e58d2024 	str	r2, [sp, #36]	; 0x24
    a65c:	0a000011 	beq	a6a8 <_start+0x1448>
    a660:	e1a00006 	mov	r0, r6
    a664:	e1a0300a 	mov	r3, sl
    a668:	e58d9000 	str	r9, [sp]
    a66c:	eb000079 	bl	a858 <_start+0x15f8>
    a670:	e3500000 	cmp	r0, #0
    a674:	1affffde 	bne	a5f4 <_start+0x1394>
    a678:	e59f1070 	ldr	r1, [pc, #112]	; a6f0 <_start+0x1490>
    a67c:	e59f0070 	ldr	r0, [pc, #112]	; a6f4 <_start+0x1494>
[31m    a680:	ebfffa15 	bl	8edc <printf@plt>[0m
    a684:	e1a0100b 	mov	r1, fp
    a688:	e59f0068 	ldr	r0, [pc, #104]	; a6f8 <_start+0x1498>
[31m    a68c:	ebfffa12 	bl	8edc <printf@plt>[0m
    a690:	e3a0000a 	mov	r0, #10
    a694:	ebfffa01 	bl	8ea0 <putchar@plt>
    a698:	e1a00008 	mov	r0, r8
    a69c:	ebfffaa7 	bl	9140 <fclose@plt>
    a6a0:	e28dd06c 	add	sp, sp, #108	; 0x6c
    a6a4:	e8bd8ff0 	pop	{r4, r5, r6, r7, r8, r9, sl, fp, pc}
    a6a8:	e58d200c 	str	r2, [sp, #12]
    a6ac:	ebfffaa9 	bl	9158 <time@plt>
    a6b0:	e59d200c 	ldr	r2, [sp, #12]
    a6b4:	e59d1020 	ldr	r1, [sp, #32]
    a6b8:	e0602002 	rsb	r2, r0, r2
    a6bc:	e58d2024 	str	r2, [sp, #36]	; 0x24
    a6c0:	eaffffe6 	b	a660 <_start+0x1400>
    a6c4:	e59f1030 	ldr	r1, [pc, #48]	; a6fc <_start+0x149c>
    a6c8:	e59f0024 	ldr	r0, [pc, #36]	; a6f4 <_start+0x1494>
[31m    a6cc:	ebfffa02 	bl	8edc <printf@plt>[0m
    a6d0:	e1a0100b 	mov	r1, fp
    a6d4:	e59f0024 	ldr	r0, [pc, #36]	; a700 <_start+0x14a0>
[31m    a6d8:	ebfff9ff 	bl	8edc <printf@plt>[0m
    a6dc:	e3a0000a 	mov	r0, #10
    a6e0:	ebfff9ee 	bl	8ea0 <putchar@plt>
--
    a9d0:	e15c0002 	cmp	ip, r2
    a9d4:	8afffff7 	bhi	a9b8 <_start+0x1758>
    a9d8:	e3a00000 	mov	r0, #0
    a9dc:	e8bd0010 	ldmfd	sp!, {r4}
    a9e0:	e12fff1e 	bx	lr
    a9e4:	0001797c 	andeq	r7, r1, ip, ror r9
    a9e8:	000179d8 	ldrdeq	r7, [r1], -r8
    a9ec:	e92d4070 	push	{r4, r5, r6, lr}
    a9f0:	e24dd008 	sub	sp, sp, #8
    a9f4:	e59f406c 	ldr	r4, [pc, #108]	; aa68 <_start+0x1808>
    a9f8:	e1a06000 	mov	r6, r0
    a9fc:	e5941000 	ldr	r1, [r4]
    aa00:	e2842018 	add	r2, r4, #24
    aa04:	e5943010 	ldr	r3, [r4, #16]
    aa08:	ebfffc2a 	bl	9ab8 <_start+0x858>
    aa0c:	e2505000 	subs	r5, r0, #0
    aa10:	13a00000 	movne	r0, #0
    aa14:	1a000011 	bne	aa60 <_start+0x1800>
    aa18:	e59f104c 	ldr	r1, [pc, #76]	; aa6c <_start+0x180c>
    aa1c:	e59f004c 	ldr	r0, [pc, #76]	; aa70 <_start+0x1810>
[31m    aa20:	ebfff92d 	bl	8edc <printf@plt>[0m
    aa24:	e1a00006 	mov	r0, r6
    aa28:	ebfff9c7 	bl	914c <inet_ntoa@plt>
    aa2c:	e5942034 	ldr	r2, [r4, #52]	; 0x34
    aa30:	e1a01000 	mov	r1, r0
    aa34:	e59f0038 	ldr	r0, [pc, #56]	; aa74 <_start+0x1814>
[31m    aa38:	ebfff927 	bl	8edc <printf@plt>[0m
    aa3c:	e3a0000a 	mov	r0, #10
    aa40:	ebfff916 	bl	8ea0 <putchar@plt>
--
    acdc:	e1a00006 	mov	r0, r6
    ace0:	e6bf2f37 	rev	r2, r7
    ace4:	eb00089c 	bl	cf5c <_start+0x3cfc>
    ace8:	e595500c 	ldr	r5, [r5, #12]
    acec:	e3550000 	cmp	r5, #0
    acf0:	0a000008 	beq	ad18 <_start+0x1ab8>
    acf4:	e5951000 	ldr	r1, [r5]
    acf8:	e1a00006 	mov	r0, r6
    acfc:	e5d13000 	ldrb	r3, [r1]
    ad00:	e3530033 	cmp	r3, #51	; 0x33
    ad04:	0a000000 	beq	ad0c <_start+0x1aac>
    ad08:	eb000872 	bl	ced8 <_start+0x3c78>
    ad0c:	e5955004 	ldr	r5, [r5, #4]
    ad10:	e3550000 	cmp	r5, #0
    ad14:	1afffff6 	bne	acf4 <_start+0x1a94>
    ad18:	e1a00004 	mov	r0, r4
    ad1c:	ebffff9c 	bl	ab94 <_start+0x1934>
    ad20:	e59d501c 	ldr	r5, [sp, #28]
    ad24:	e59f1238 	ldr	r1, [pc, #568]	; af64 <_start+0x1d04>
    ad28:	e59f0238 	ldr	r0, [pc, #568]	; af68 <_start+0x1d08>
[31m    ad2c:	ebfff86a 	bl	8edc <printf@plt>[0m
    ad30:	e1a00005 	mov	r0, r5
    ad34:	ebfff904 	bl	914c <inet_ntoa@plt>
    ad38:	e1a01000 	mov	r1, r0
    ad3c:	e59f0228 	ldr	r0, [pc, #552]	; af6c <_start+0x1d0c>
[31m    ad40:	ebfff865 	bl	8edc <printf@plt>[0m
    ad44:	e3a0000a 	mov	r0, #10
    ad48:	ebfff854 	bl	8ea0 <putchar@plt>
--
    ae54:	e58d7230 	str	r7, [sp, #560]	; 0x230
    ae58:	e1570003 	cmp	r7, r3
    ae5c:	81a07003 	movhi	r7, r3
    ae60:	858d3230 	strhi	r3, [sp, #560]	; 0x230
    ae64:	e595303c 	ldr	r3, [r5, #60]	; 0x3c
    ae68:	e1570003 	cmp	r7, r3
    ae6c:	359f30ec 	ldrcc	r3, [pc, #236]	; af60 <_start+0x1d00>
    ae70:	35937020 	ldrcc	r7, [r3, #32]
    ae74:	358d7230 	strcc	r7, [sp, #560]	; 0x230
    ae78:	eaffff95 	b	acd4 <_start+0x1a74>
    ae7c:	e1a00007 	mov	r0, r7
    ae80:	ebfffe53 	bl	a7d4 <_start+0x1574>
    ae84:	e3500000 	cmp	r0, #0
    ae88:	0a000026 	beq	af28 <_start+0x1cc8>
    ae8c:	e5977010 	ldr	r7, [r7, #16]
    ae90:	e58d701c 	str	r7, [sp, #28]
    ae94:	e3570000 	cmp	r7, #0
    ae98:	1affffd3 	bne	adec <_start+0x1b8c>
    ae9c:	e59f10cc 	ldr	r1, [pc, #204]	; af70 <_start+0x1d10>
    aea0:	e59f00c0 	ldr	r0, [pc, #192]	; af68 <_start+0x1d08>
[31m    aea4:	ebfff80c 	bl	8edc <printf@plt>[0m
    aea8:	e59f00c4 	ldr	r0, [pc, #196]	; af74 <_start+0x1d14>
[31m    aeac:	ebfff80a 	bl	8edc <printf@plt>[0m
    aeb0:	e3a0000a 	mov	r0, #10
    aeb4:	ebfff7f9 	bl	8ea0 <putchar@plt>
--
    aef4:	ebfffea0 	bl	a97c <_start+0x171c>
    aef8:	e3500000 	cmp	r0, #0
    aefc:	0a000002 	beq	af0c <_start+0x1cac>
    af00:	ebfffe33 	bl	a7d4 <_start+0x1574>
    af04:	e3500000 	cmp	r0, #0
    af08:	0affffb2 	beq	add8 <_start+0x1b78>
    af0c:	e5950058 	ldr	r0, [r5, #88]	; 0x58
    af10:	e1a01007 	mov	r1, r7
    af14:	eb0000cd 	bl	b250 <_start+0x1ff0>
    af18:	e3500000 	cmp	r0, #0
    af1c:	1affffad 	bne	add8 <_start+0x1b78>
    af20:	e58d701c 	str	r7, [sp, #28]
    af24:	eaffffda 	b	ae94 <_start+0x1c34>
    af28:	e5978014 	ldr	r8, [r7, #20]
    af2c:	ebfff889 	bl	9158 <time@plt>
    af30:	e0600008 	rsb	r0, r0, r8
    af34:	e58d0230 	str	r0, [sp, #560]	; 0x230
    af38:	eaffffd3 	b	ae8c <_start+0x1c2c>
    af3c:	e59f102c 	ldr	r1, [pc, #44]	; af70 <_start+0x1d10>
    af40:	e59f0020 	ldr	r0, [pc, #32]	; af68 <_start+0x1d08>
[31m    af44:	ebfff7e4 	bl	8edc <printf@plt>[0m
    af48:	e59f0028 	ldr	r0, [pc, #40]	; af78 <_start+0x1d18>
[31m    af4c:	ebfff7e2 	bl	8edc <printf@plt>[0m
    af50:	e3a0000a 	mov	r0, #10
    af54:	ebfff7d1 	bl	8ea0 <putchar@plt>
--
    b030:	e1a00008 	mov	r0, r8
    b034:	e6bf2f37 	rev	r2, r7
    b038:	eb0007c7 	bl	cf5c <_start+0x3cfc>
    b03c:	e596600c 	ldr	r6, [r6, #12]
    b040:	e3560000 	cmp	r6, #0
    b044:	0a000008 	beq	b06c <_start+0x1e0c>
    b048:	e5961000 	ldr	r1, [r6]
    b04c:	e1a00008 	mov	r0, r8
    b050:	e5d13000 	ldrb	r3, [r1]
    b054:	e3530033 	cmp	r3, #51	; 0x33
    b058:	0a000000 	beq	b060 <_start+0x1e00>
    b05c:	eb00079d 	bl	ced8 <_start+0x3c78>
    b060:	e5966004 	ldr	r6, [r6, #4]
    b064:	e3560000 	cmp	r6, #0
    b068:	1afffff6 	bne	b048 <_start+0x1de8>
    b06c:	e1a00004 	mov	r0, r4
    b070:	ebfffec7 	bl	ab94 <_start+0x1934>
    b074:	e59d6018 	ldr	r6, [sp, #24]
    b078:	e59f10a4 	ldr	r1, [pc, #164]	; b124 <_start+0x1ec4>
    b07c:	e59f00a4 	ldr	r0, [pc, #164]	; b128 <_start+0x1ec8>
[31m    b080:	ebfff795 	bl	8edc <printf@plt>[0m
    b084:	e1a00006 	mov	r0, r6
    b088:	ebfff82f 	bl	914c <inet_ntoa@plt>
    b08c:	e1a01000 	mov	r1, r0
    b090:	e59f0094 	ldr	r0, [pc, #148]	; b12c <_start+0x1ecc>
[31m    b094:	ebfff790 	bl	8edc <printf@plt>[0m
    b098:	e3a0000a 	mov	r0, #10
    b09c:	ebfff77f 	bl	8ea0 <putchar@plt>
--
    b320:	ebfff708 	bl	8f48 <perror@plt>
    b324:	e3a00001 	mov	r0, #1
    b328:	ebffffdd 	bl	b2a4 <_start+0x2044>
    b32c:	eafffff5 	b	b308 <_start+0x20a8>
    b330:	00017690 	muleq	r1, r0, r6
    b334:	0000dcc8 	andeq	sp, r0, r8, asr #25
    b338:	e59f3058 	ldr	r3, [pc, #88]	; b398 <_start+0x2138>
    b33c:	e3a02004 	mov	r2, #4
    b340:	e52de004 	push	{lr}		; (str lr, [sp, #-4]!)
    b344:	e24dd00c 	sub	sp, sp, #12
    b348:	e28d1008 	add	r1, sp, #8
    b34c:	e5210004 	str	r0, [r1, #-4]!
    b350:	e593000c 	ldr	r0, [r3, #12]
    b354:	ebfff725 	bl	8ff0 <write@plt>
    b358:	e3500000 	cmp	r0, #0
    b35c:	ba000001 	blt	b368 <_start+0x2108>
    b360:	e28dd00c 	add	sp, sp, #12
    b364:	e8bd8000 	ldmfd	sp!, {pc}
    b368:	e59f102c 	ldr	r1, [pc, #44]	; b39c <_start+0x213c>
    b36c:	e59f002c 	ldr	r0, [pc, #44]	; b3a0 <_start+0x2140>
[31m    b370:	ebfff6d9 	bl	8edc <printf@plt>[0m
    b374:	ebfff795 	bl	91d0 <__errno_location@plt>
    b378:	e5900000 	ldr	r0, [r0]
    b37c:	ebfff6df 	bl	8f00 <strerror@plt>
    b380:	e1a01000 	mov	r1, r0
    b384:	e59f0018 	ldr	r0, [pc, #24]	; b3a4 <_start+0x2144>
[31m    b388:	ebfff6d3 	bl	8edc <printf@plt>[0m
    b38c:	e3a0000a 	mov	r0, #10
    b390:	ebfff6c2 	bl	8ea0 <putchar@plt>
--
    b4a4:	e1a02006 	mov	r2, r6
    b4a8:	e5883014 	str	r3, [r8, #20]
    b4ac:	e2800002 	add	r0, r0, #2
    b4b0:	e5c3c000 	strb	ip, [r3]
    b4b4:	e5c36001 	strb	r6, [r3, #1]
    b4b8:	ebfff6ed 	bl	9074 <strncpy@plt>
    b4bc:	eaffffc2 	b	b3cc <_start+0x216c>
    b4c0:	e3500073 	cmp	r0, #115	; 0x73
    b4c4:	0a00000e 	beq	b504 <_start+0x22a4>
    b4c8:	aa000005 	bge	b4e4 <_start+0x2284>
    b4cc:	e5940000 	ldr	r0, [r4]
    b4d0:	ebfff6cf 	bl	9014 <inet_addr@plt>
    b4d4:	e3071954 	movw	r1, #31060	; 0x7954
    b4d8:	e3401001 	movt	r1, #1
    b4dc:	e5810010 	str	r0, [r1, #16]
    b4e0:	eaffffb9 	b	b3cc <_start+0x216c>
    b4e4:	e3500076 	cmp	r0, #118	; 0x76
    b4e8:	1affffcc 	bne	b420 <_start+0x21c0>
    b4ec:	e59f1ad8 	ldr	r1, [pc, #2776]	; bfcc <_start+0x2d6c>
    b4f0:	e59f0ad8 	ldr	r0, [pc, #2776]	; bfd0 <_start+0x2d70>
[31m    b4f4:	ebfff678 	bl	8edc <printf@plt>[0m
    b4f8:	e1a0000a 	mov	r0, sl
    b4fc:	ebffff68 	bl	b2a4 <_start+0x2044>
--
    b52c:	0a000001 	beq	b538 <_start+0x22d8>
    b530:	e1a00003 	mov	r0, r3
    b534:	ebfff746 	bl	9254 <free@plt>
    b538:	e2860002 	add	r0, r6, #2
    b53c:	ebfff68d 	bl	8f78 <malloc@plt>
    b540:	e3a0203d 	mov	r2, #61	; 0x3d
    b544:	e1a03000 	mov	r3, r0
    b548:	e5941000 	ldr	r1, [r4]
    b54c:	e5c32000 	strb	r2, [r3]
    b550:	e1a02006 	mov	r2, r6
    b554:	e5c36001 	strb	r6, [r3, #1]
    b558:	e5e0a002 	strb	sl, [r0, #2]!
    b55c:	e5883010 	str	r3, [r8, #16]
    b560:	ebfff6c3 	bl	9074 <strncpy@plt>
    b564:	eaffff98 	b	b3cc <_start+0x216c>
    b568:	e5943000 	ldr	r3, [r4]
    b56c:	e5853004 	str	r3, [r5, #4]
    b570:	eaffff95 	b	b3cc <_start+0x216c>
    b574:	e59f1a58 	ldr	r1, [pc, #2648]	; bfd4 <_start+0x2d74>
    b578:	e59f0a58 	ldr	r0, [pc, #2648]	; bfd8 <_start+0x2d78>
[31m    b57c:	ebfff656 	bl	8edc <printf@plt>[0m
    b580:	e59f1a44 	ldr	r1, [pc, #2628]	; bfcc <_start+0x2d6c>
    b584:	e59f0a50 	ldr	r0, [pc, #2640]	; bfdc <_start+0x2d7c>
[31m    b588:	ebfff653 	bl	8edc <printf@plt>[0m
    b58c:	e3a0000a 	mov	r0, #10
    b590:	ebfff642 	bl	8ea0 <putchar@plt>
--
    b854:	e1a03312 	lsl	r3, r2, r3
    b858:	e213c05a 	ands	ip, r3, #90	; 0x5a
    b85c:	e58dc01c 	str	ip, [sp, #28]
    b860:	1a00014a 	bne	bd90 <_start+0x2b30>
    b864:	e3130001 	tst	r3, #1
    b868:	0a0001a5 	beq	bf04 <_start+0x2ca4>
    b86c:	e5d03000 	ldrb	r3, [r0]
    b870:	e3530002 	cmp	r3, #2
    b874:	0a0001a9 	beq	bf20 <_start+0x2cc0>
    b878:	e596a018 	ldr	sl, [r6, #24]
    b87c:	eaffff9a 	b	b6ec <_start+0x248c>
    b880:	e3530001 	cmp	r3, #1
    b884:	0a0000c0 	beq	bb8c <_start+0x292c>
    b888:	e5980018 	ldr	r0, [r8, #24]
    b88c:	eb0006f1 	bl	d458 <_start+0x41f8>
    b890:	e5860000 	str	r0, [r6]
    b894:	e3500000 	cmp	r0, #0
    b898:	aaffffa5 	bge	b734 <_start+0x24d4>
    b89c:	e59f174c 	ldr	r1, [pc, #1868]	; bff0 <_start+0x2d90>
    b8a0:	e59f0730 	ldr	r0, [pc, #1840]	; bfd8 <_start+0x2d78>
[31m    b8a4:	ebfff58c 	bl	8edc <printf@plt>[0m
    b8a8:	ebfff648 	bl	91d0 <__errno_location@plt>
    b8ac:	e5900000 	ldr	r0, [r0]
    b8b0:	ebfff592 	bl	8f00 <strerror@plt>
    b8b4:	e1a01000 	mov	r1, r0
    b8b8:	e59f0734 	ldr	r0, [pc, #1844]	; bff4 <_start+0x2d94>
[31m    b8bc:	ebfff586 	bl	8edc <printf@plt>[0m
    b8c0:	e3a0000a 	mov	r0, #10
    b8c4:	ebfff575 	bl	8ea0 <putchar@plt>
--
    b9e8:	e584301c 	str	r3, [r4, #28]
    b9ec:	e584a018 	str	sl, [r4, #24]
    b9f0:	eaffff3d 	b	b6ec <_start+0x248c>
    b9f4:	e3e0c102 	mvn	ip, #-2147483648	; 0x80000000
    b9f8:	e584c018 	str	ip, [r4, #24]
    b9fc:	e1a0a00c 	mov	sl, ip
    ba00:	eaffff39 	b	b6ec <_start+0x248c>
    ba04:	e59d32e4 	ldr	r3, [sp, #740]	; 0x2e4
    ba08:	e59d1018 	ldr	r1, [sp, #24]
    ba0c:	e0821391 	umull	r1, r2, r1, r3
    ba10:	e1a026a2 	lsr	r2, r2, #13
    ba14:	e06b3003 	rsb	r3, fp, r3
    ba18:	e2822001 	add	r2, r2, #1
    ba1c:	e1530002 	cmp	r3, r2
    ba20:	8a00005f 	bhi	bba4 <_start+0x2944>
    ba24:	e3a03000 	mov	r3, #0
    ba28:	e59f15a4 	ldr	r1, [pc, #1444]	; bfd4 <_start+0x2d74>
    ba2c:	e5843014 	str	r3, [r4, #20]
    ba30:	e59f05a0 	ldr	r0, [pc, #1440]	; bfd8 <_start+0x2d78>
    ba34:	e58d3008 	str	r3, [sp, #8]
[31m    ba38:	ebfff527 	bl	8edc <printf@plt>[0m
    ba3c:	e59f05b4 	ldr	r0, [pc, #1460]	; bff8 <_start+0x2d98>
[31m    ba40:	ebfff525 	bl	8edc <printf@plt>[0m
    ba44:	e3a0000a 	mov	r0, #10
    ba48:	ebfff514 	bl	8ea0 <putchar@plt>
--
    ba84:	e1a022a0 	lsr	r2, r0, #5
    ba88:	e08c2102 	add	r2, ip, r2, lsl #2
    ba8c:	e51220a4 	ldr	r2, [r2, #-164]	; 0xffffff5c
    ba90:	e1a03352 	asr	r3, r2, r3
    ba94:	e3130001 	tst	r3, #1
    ba98:	0affff76 	beq	b878 <_start+0x2618>
    ba9c:	e28d1e2e 	add	r1, sp, #736	; 0x2e0
    baa0:	e3a02004 	mov	r2, #4
    baa4:	ebfff56c 	bl	905c <read@plt>
    baa8:	e3500000 	cmp	r0, #0
    baac:	baffff71 	blt	b878 <_start+0x2618>
    bab0:	e59da2e0 	ldr	sl, [sp, #736]	; 0x2e0
    bab4:	e35a000c 	cmp	sl, #12
    bab8:	0a00006f 	beq	bc7c <_start+0x2a1c>
    babc:	e35a000f 	cmp	sl, #15
    bac0:	0a000062 	beq	bc50 <_start+0x29f0>
    bac4:	e35a000a 	cmp	sl, #10
    bac8:	1affff6a 	bne	b878 <_start+0x2618>
    bacc:	e59f1500 	ldr	r1, [pc, #1280]	; bfd4 <_start+0x2d74>
    bad0:	e59f0500 	ldr	r0, [pc, #1280]	; bfd8 <_start+0x2d78>
[31m    bad4:	ebfff500 	bl	8edc <printf@plt>[0m
    bad8:	e59f051c 	ldr	r0, [pc, #1308]	; bffc <_start+0x2d9c>
[31m    badc:	ebfff4fe 	bl	8edc <printf@plt>[0m
    bae0:	e1a0000a 	mov	r0, sl
    bae4:	ebfff4ed 	bl	8ea0 <putchar@plt>
--
    bc08:	e3530000 	cmp	r3, #0
    bc0c:	1a000055 	bne	bd68 <_start+0x2b08>
    bc10:	e28aa03c 	add	sl, sl, #60	; 0x3c
    bc14:	e3a03000 	mov	r3, #0
    bc18:	e584301c 	str	r3, [r4, #28]
    bc1c:	e584a018 	str	sl, [r4, #24]
    bc20:	eafffeb1 	b	b6ec <_start+0x248c>
    bc24:	ebfff569 	bl	91d0 <__errno_location@plt>
    bc28:	e5903000 	ldr	r3, [r0]
    bc2c:	e3530004 	cmp	r3, #4
    bc30:	0afffefc 	beq	b828 <_start+0x25c8>
    bc34:	e5940004 	ldr	r0, [r4, #4]
    bc38:	ebfffd90 	bl	b280 <_start+0x2020>
    bc3c:	e594a018 	ldr	sl, [r4, #24]
    bc40:	eafffea9 	b	b6ec <_start+0x248c>
    bc44:	e28d0020 	add	r0, sp, #32
    bc48:	eb00063f 	bl	d54c <_start+0x42ec>
    bc4c:	eafffeed 	b	b808 <_start+0x25a8>
    bc50:	e59f137c 	ldr	r1, [pc, #892]	; bfd4 <_start+0x2d74>
    bc54:	e59f037c 	ldr	r0, [pc, #892]	; bfd8 <_start+0x2d78>
[31m    bc58:	ebfff49f 	bl	8edc <printf@plt>[0m
    bc5c:	e59f039c 	ldr	r0, [pc, #924]	; c000 <_start+0x2da0>
[31m    bc60:	ebfff49d 	bl	8edc <printf@plt>[0m
    bc64:	e3a0000a 	mov	r0, #10
    bc68:	ebfff48c 	bl	8ea0 <putchar@plt>
    bc6c:	e3a00000 	mov	r0, #0
    bc70:	ebfffd8b 	bl	b2a4 <_start+0x2044>
    bc74:	e596a018 	ldr	sl, [r6, #24]
    bc78:	eafffe9b 	b	b6ec <_start+0x248c>
    bc7c:	e5963014 	ldr	r3, [r6, #20]
    bc80:	e2433002 	sub	r3, r3, #2
    bc84:	e3530002 	cmp	r3, #2
    bc88:	9a00001e 	bls	bd08 <_start+0x2aa8>
    bc8c:	e59f1340 	ldr	r1, [pc, #832]	; bfd4 <_start+0x2d74>
    bc90:	e3e0a102 	mvn	sl, #-2147483648	; 0x80000000
    bc94:	e59f033c 	ldr	r0, [pc, #828]	; bfd8 <_start+0x2d78>
[31m    bc98:	ebfff48f 	bl	8edc <printf@plt>[0m
    bc9c:	e59f0360 	ldr	r0, [pc, #864]	; c004 <_start+0x2da4>
[31m    bca0:	ebfff48d 	bl	8edc <printf@plt>[0m
    bca4:	e3a0000a 	mov	r0, #10
    bca8:	ebfff47c 	bl	8ea0 <putchar@plt>
    bcac:	e3a00000 	mov	r0, #0
    bcb0:	ebfffd72 	bl	b280 <_start+0x2020>
    bcb4:	e3a03007 	mov	r3, #7
    bcb8:	e584a018 	str	sl, [r4, #24]
    bcbc:	e5843014 	str	r3, [r4, #20]
    bcc0:	eafffe89 	b	b6ec <_start+0x248c>
    bcc4:	e1a00009 	mov	r0, r9
    bcc8:	e5961020 	ldr	r1, [r6, #32]
    bccc:	e5962010 	ldr	r2, [r6, #16]
    bcd0:	eb0001a8 	bl	c378 <_start+0x3118>
    bcd4:	eaffff2c 	b	b98c <_start+0x272c>
    bcd8:	eb000115 	bl	c134 <_start+0x2ed4>
    bcdc:	e1a09000 	mov	r9, r0
    bce0:	eaffff37 	b	b9c4 <_start+0x2764>
    bce4:	e59f12e8 	ldr	r1, [pc, #744]	; bfd4 <_start+0x2d74>
    bce8:	e59f02e8 	ldr	r0, [pc, #744]	; bfd8 <_start+0x2d78>
[31m    bcec:	ebfff47a 	bl	8edc <printf@plt>[0m
    bcf0:	e59f0310 	ldr	r0, [pc, #784]	; c008 <_start+0x2da8>
[31m    bcf4:	ebfff478 	bl	8edc <printf@plt>[0m
    bcf8:	e3a0000a 	mov	r0, #10
    bcfc:	ebfff467 	bl	8ea0 <putchar@plt>
    bd00:	ebfffd6f 	bl	b2c4 <_start+0x2064>
    bd04:	eaffffc1 	b	bc10 <_start+0x29b0>
    bd08:	e5960020 	ldr	r0, [r6, #32]
    bd0c:	ebfff50e 	bl	914c <inet_ntoa@plt>
    bd10:	e1a01000 	mov	r1, r0
    bd14:	e28d0fb1 	add	r0, sp, #708	; 0x2c4
    bd18:	ebfff463 	bl	8eac <strcpy@plt>
    bd1c:	e596a010 	ldr	sl, [r6, #16]
    bd20:	e59f12ac 	ldr	r1, [pc, #684]	; bfd4 <_start+0x2d74>
    bd24:	e59f02ac 	ldr	r0, [pc, #684]	; bfd8 <_start+0x2d78>
[31m    bd28:	ebfff46b 	bl	8edc <printf@plt>[0m
    bd2c:	e1a0000a 	mov	r0, sl
    bd30:	ebfff505 	bl	914c <inet_ntoa@plt>
    bd34:	e28d2fb1 	add	r2, sp, #708	; 0x2c4
    bd38:	e1a01000 	mov	r1, r0
    bd3c:	e59f02c8 	ldr	r0, [pc, #712]	; c00c <_start+0x2dac>
[31m    bd40:	ebfff465 	bl	8edc <printf@plt>[0m
    bd44:	e3a0000a 	mov	r0, #10
    bd48:	ebfff454 	bl	8ea0 <putchar@plt>
    bd4c:	e5961010 	ldr	r1, [r6, #16]
    bd50:	e5960020 	ldr	r0, [r6, #32]
    bd54:	eb0001b8 	bl	c43c <_start+0x31dc>
    bd58:	e3a00000 	mov	r0, #0
    bd5c:	e59f1288 	ldr	r1, [pc, #648]	; bfec <_start+0x2d8c>
    bd60:	eb00027d 	bl	c75c <_start+0x34fc>
    bd64:	eaffffc8 	b	bc8c <_start+0x2a2c>
    bd68:	e59f1264 	ldr	r1, [pc, #612]	; bfd4 <_start+0x2d74>
    bd6c:	e59f0264 	ldr	r0, [pc, #612]	; bfd8 <_start+0x2d78>
[31m    bd70:	ebfff459 	bl	8edc <printf@plt>[0m
    bd74:	e59f0294 	ldr	r0, [pc, #660]	; c010 <_start+0x2db0>
[31m    bd78:	ebfff457 	bl	8edc <printf@plt>[0m
    bd7c:	e3a0000a 	mov	r0, #10
    bd80:	ebfff446 	bl	8ea0 <putchar@plt>
    bd84:	e3a00001 	mov	r0, #1
    bd88:	ebfffd45 	bl	b2a4 <_start+0x2044>
    bd8c:	eaffff9f 	b	bc10 <_start+0x29b0>
    bd90:	e5d03000 	ldrb	r3, [r0]
    bd94:	e3530005 	cmp	r3, #5
    bd98:	0a00001d 	beq	be14 <_start+0x2bb4>
    bd9c:	e3530006 	cmp	r3, #6
    bda0:	1afffeb4 	bne	b878 <_start+0x2618>
    bda4:	e59f1228 	ldr	r1, [pc, #552]	; bfd4 <_start+0x2d74>
    bda8:	e59f0228 	ldr	r0, [pc, #552]	; bfd8 <_start+0x2d78>
[31m    bdac:	ebfff44a 	bl	8edc <printf@plt>[0m
    bdb0:	e59f025c 	ldr	r0, [pc, #604]	; c014 <_start+0x2db4>
[31m    bdb4:	ebfff448 	bl	8edc <printf@plt>[0m
    bdb8:	e3a0000a 	mov	r0, #10
    bdbc:	ebfff437 	bl	8ea0 <putchar@plt>
--
    be14:	e3a01033 	mov	r1, #51	; 0x33
    be18:	e28d0020 	add	r0, sp, #32
    be1c:	eb0003c6 	bl	cd3c <_start+0x3adc>
    be20:	e2501000 	subs	r1, r0, #0
    be24:	0a00004e 	beq	bf64 <_start+0x2d04>
    be28:	e28d0fb9 	add	r0, sp, #740	; 0x2e4
    be2c:	e3a02004 	mov	r2, #4
    be30:	ebfff441 	bl	8f3c <memcpy@plt>
    be34:	e59d92e4 	ldr	r9, [sp, #740]	; 0x2e4
    be38:	e6bf9f39 	rev	r9, r9
    be3c:	e58d92e4 	str	r9, [sp, #740]	; 0x2e4
    be40:	e59d3030 	ldr	r3, [sp, #48]	; 0x30
    be44:	e1a0c0a9 	lsr	ip, r9, #1
    be48:	e59f1184 	ldr	r1, [pc, #388]	; bfd4 <_start+0x2d74>
    be4c:	e3a0b007 	mov	fp, #7
    be50:	e59f0180 	ldr	r0, [pc, #384]	; bfd8 <_start+0x2d78>
    be54:	e00b099b 	mul	fp, fp, r9
    be58:	e58dc00c 	str	ip, [sp, #12]
    be5c:	e58d3008 	str	r3, [sp, #8]
    be60:	e58da010 	str	sl, [sp, #16]
[31m    be64:	ebfff41c 	bl	8edc <printf@plt>[0m
    be68:	e59d3008 	ldr	r3, [sp, #8]
    be6c:	e1a0b1ab 	lsr	fp, fp, #3
    be70:	e1a00003 	mov	r0, r3
    be74:	ebfff4b4 	bl	914c <inet_ntoa@plt>
    be78:	e1a02009 	mov	r2, r9
    be7c:	e1a01000 	mov	r1, r0
    be80:	e59f0194 	ldr	r0, [pc, #404]	; c01c <_start+0x2dbc>
[31m    be84:	ebfff414 	bl	8edc <printf@plt>[0m
    be88:	e3a0000a 	mov	r0, #10
    be8c:	ebfff403 	bl	8ea0 <putchar@plt>
--
    bf20:	e3a01036 	mov	r1, #54	; 0x36
    bf24:	e28d0020 	add	r0, sp, #32
    bf28:	eb000383 	bl	cd3c <_start+0x3adc>
    bf2c:	e2501000 	subs	r1, r0, #0
    bf30:	0afffe50 	beq	b878 <_start+0x2618>
    bf34:	e3a02004 	mov	r2, #4
    bf38:	e59f00e0 	ldr	r0, [pc, #224]	; c020 <_start+0x2dc0>
    bf3c:	ebfff3fe 	bl	8f3c <memcpy@plt>
    bf40:	e59d3030 	ldr	r3, [sp, #48]	; 0x30
    bf44:	e3a01001 	mov	r1, #1
    bf48:	e59d201c 	ldr	r2, [sp, #28]
    bf4c:	e59d9024 	ldr	r9, [sp, #36]	; 0x24
    bf50:	e5861014 	str	r1, [r6, #20]
    bf54:	e5863010 	str	r3, [r6, #16]
    bf58:	e586a018 	str	sl, [r6, #24]
    bf5c:	e586201c 	str	r2, [r6, #28]
    bf60:	eafffde1 	b	b6ec <_start+0x248c>
    bf64:	e59f1084 	ldr	r1, [pc, #132]	; bff0 <_start+0x2d90>
    bf68:	e3a09ee1 	mov	r9, #3600	; 0xe10
    bf6c:	e59f0064 	ldr	r0, [pc, #100]	; bfd8 <_start+0x2d78>
[31m    bf70:	ebfff3d9 	bl	8edc <printf@plt>[0m
    bf74:	e59f00a8 	ldr	r0, [pc, #168]	; c024 <_start+0x2dc4>
[31m    bf78:	ebfff3d7 	bl	8edc <printf@plt>[0m
    bf7c:	e3a0000a 	mov	r0, #10
    bf80:	ebfff3c6 	bl	8ea0 <putchar@plt>
--
    c158:	e59f00bc 	ldr	r0, [pc, #188]	; c21c <_start+0x2fbc>
    c15c:	e1a01005 	mov	r1, r5
    c160:	ebfff429 	bl	920c <open@plt>
    c164:	e2506000 	subs	r6, r0, #0
    c168:	ba00000c 	blt	c1a0 <_start+0x2f40>
    c16c:	e28d1004 	add	r1, sp, #4
    c170:	e3a02004 	mov	r2, #4
    c174:	ebfff3b8 	bl	905c <read@plt>
    c178:	e3500000 	cmp	r0, #0
    c17c:	ba000016 	blt	c1dc <_start+0x2f7c>
    c180:	e1a00006 	mov	r0, r6
    c184:	ebfff42c 	bl	923c <close@plt>
    c188:	e59d0004 	ldr	r0, [sp, #4]
    c18c:	ebfff3e8 	bl	9134 <srand@plt>
    c190:	e5943000 	ldr	r3, [r4]
    c194:	e2833001 	add	r3, r3, #1
    c198:	e5843000 	str	r3, [r4]
    c19c:	eaffffea 	b	c14c <_start+0x2eec>
    c1a0:	e59f1078 	ldr	r1, [pc, #120]	; c220 <_start+0x2fc0>
    c1a4:	e59f0078 	ldr	r0, [pc, #120]	; c224 <_start+0x2fc4>
[31m    c1a8:	ebfff34b 	bl	8edc <printf@plt>[0m
    c1ac:	ebfff407 	bl	91d0 <__errno_location@plt>
    c1b0:	e5900000 	ldr	r0, [r0]
    c1b4:	ebfff351 	bl	8f00 <strerror@plt>
    c1b8:	e1a01000 	mov	r1, r0
    c1bc:	e59f0064 	ldr	r0, [pc, #100]	; c228 <_start+0x2fc8>
[31m    c1c0:	ebfff345 	bl	8edc <printf@plt>[0m
    c1c4:	e3a0000a 	mov	r0, #10
    c1c8:	ebfff334 	bl	8ea0 <putchar@plt>
    c1cc:	e1a00005 	mov	r0, r5
    c1d0:	ebfff3e0 	bl	9158 <time@plt>
    c1d4:	e58d0004 	str	r0, [sp, #4]
    c1d8:	eaffffeb 	b	c18c <_start+0x2f2c>
    c1dc:	e59f103c 	ldr	r1, [pc, #60]	; c220 <_start+0x2fc0>
    c1e0:	e59f003c 	ldr	r0, [pc, #60]	; c224 <_start+0x2fc4>
[31m    c1e4:	ebfff33c 	bl	8edc <printf@plt>[0m
    c1e8:	ebfff3f8 	bl	91d0 <__errno_location@plt>
    c1ec:	e5900000 	ldr	r0, [r0]
    c1f0:	ebfff342 	bl	8f00 <strerror@plt>
    c1f4:	e1a01000 	mov	r1, r0
    c1f8:	e59f0028 	ldr	r0, [pc, #40]	; c228 <_start+0x2fc8>
[31m    c1fc:	ebfff336 	bl	8edc <printf@plt>[0m
    c200:	e3a0000a 	mov	r0, #10
    c204:	ebfff325 	bl	8ea0 <putchar@plt>
--
    c2c4:	e1a07001 	mov	r7, r1
    c2c8:	e1a00004 	mov	r0, r4
    c2cc:	e28460f0 	add	r6, r4, #240	; 0xf0
    c2d0:	e3a01003 	mov	r1, #3
    c2d4:	ebffff53 	bl	c028 <_start+0x2dc8>
    c2d8:	e1a02005 	mov	r2, r5
    c2dc:	e3a01032 	mov	r1, #50	; 0x32
    c2e0:	e1a00006 	mov	r0, r6
    c2e4:	e58d8018 	str	r8, [sp, #24]
    c2e8:	eb00031b 	bl	cf5c <_start+0x3cfc>
    c2ec:	e1a02007 	mov	r2, r7
    c2f0:	e3a01036 	mov	r1, #54	; 0x36
    c2f4:	e1a00006 	mov	r0, r6
    c2f8:	eb000317 	bl	cf5c <_start+0x3cfc>
    c2fc:	e1a00004 	mov	r0, r4
    c300:	ebffff6a 	bl	c0b0 <_start+0x2e50>
    c304:	e30e15a8 	movw	r1, #58792	; 0xe5a8
    c308:	e30d0c5c 	movw	r0, #56412	; 0xdc5c
    c30c:	e3401000 	movt	r1, #0
    c310:	e3400000 	movt	r0, #0
[31m    c314:	ebfff2f0 	bl	8edc <printf@plt>[0m
    c318:	e1a00005 	mov	r0, r5
    c31c:	ebfff38a 	bl	914c <inet_ntoa@plt>
    c320:	e1a01000 	mov	r1, r0
    c324:	e30e05b0 	movw	r0, #58800	; 0xe5b0
    c328:	e3400000 	movt	r0, #0
[31m    c32c:	ebfff2ea 	bl	8edc <printf@plt>[0m
    c330:	e3a0000a 	mov	r0, #10
    c334:	ebfff2d9 	bl	8ea0 <putchar@plt>
--
    c364:	e58de004 	str	lr, [sp, #4]
    c368:	e58dc008 	str	ip, [sp, #8]
    c36c:	eb0004ea 	bl	d71c <_start+0x44bc>
    c370:	e28ddf8e 	add	sp, sp, #568	; 0x238
    c374:	e8bd81f0 	pop	{r4, r5, r6, r7, r8, pc}
    c378:	e92d40f0 	push	{r4, r5, r6, r7, lr}
    c37c:	e24ddf8f 	sub	sp, sp, #572	; 0x23c
    c380:	e28d4014 	add	r4, sp, #20
    c384:	e1a06000 	mov	r6, r0
    c388:	e1a05001 	mov	r5, r1
    c38c:	e1a00004 	mov	r0, r4
    c390:	e3a01003 	mov	r1, #3
    c394:	e1a07002 	mov	r7, r2
    c398:	ebffff22 	bl	c028 <_start+0x2dc8>
    c39c:	e1a00004 	mov	r0, r4
    c3a0:	e58d6018 	str	r6, [sp, #24]
    c3a4:	e58d7020 	str	r7, [sp, #32]
    c3a8:	ebffff40 	bl	c0b0 <_start+0x2e50>
    c3ac:	e59f1074 	ldr	r1, [pc, #116]	; c428 <_start+0x31c8>
    c3b0:	e59f0074 	ldr	r0, [pc, #116]	; c42c <_start+0x31cc>
[31m    c3b4:	ebfff2c8 	bl	8edc <printf@plt>[0m
    c3b8:	e59f0070 	ldr	r0, [pc, #112]	; c430 <_start+0x31d0>
[31m    c3bc:	ebfff2c6 	bl	8edc <printf@plt>[0m
    c3c0:	e3a0000a 	mov	r0, #10
    c3c4:	ebfff2b5 	bl	8ea0 <putchar@plt>
--
    c44c:	e1a06000 	mov	r6, r0
    c450:	e3a01007 	mov	r1, #7
    c454:	e1a00005 	mov	r0, r5
    c458:	e28570f0 	add	r7, r5, #240	; 0xf0
    c45c:	ebfffef1 	bl	c028 <_start+0x2dc8>
    c460:	ebffff33 	bl	c134 <_start+0x2ed4>
    c464:	e1a02004 	mov	r2, r4
    c468:	e58d0010 	str	r0, [sp, #16]
    c46c:	e3a01032 	mov	r1, #50	; 0x32
    c470:	e1a00007 	mov	r0, r7
    c474:	e58d4018 	str	r4, [sp, #24]
    c478:	eb0002b7 	bl	cf5c <_start+0x3cfc>
    c47c:	e1a02006 	mov	r2, r6
    c480:	e1a00007 	mov	r0, r7
    c484:	e3a01036 	mov	r1, #54	; 0x36
    c488:	eb0002b3 	bl	cf5c <_start+0x3cfc>
    c48c:	e30e15a8 	movw	r1, #58792	; 0xe5a8
    c490:	e30d0c5c 	movw	r0, #56412	; 0xdc5c
    c494:	e3401000 	movt	r1, #0
    c498:	e3400000 	movt	r0, #0
[31m    c49c:	ebfff28e 	bl	8edc <printf@plt>[0m
    c4a0:	e30e05e0 	movw	r0, #58848	; 0xe5e0
    c4a4:	e3400000 	movt	r0, #0
[31m    c4a8:	ebfff28b 	bl	8edc <printf@plt>[0m
    c4ac:	e3a0000a 	mov	r0, #10
    c4b0:	ebfff27a 	bl	8ea0 <putchar@plt>
--
    c630:	e35a0000 	cmp	sl, #0
    c634:	e5cd9019 	strb	r9, [sp, #25]
    c638:	e58db01c 	str	fp, [sp, #28]
    c63c:	e18180b6 	strh	r8, [r1, r6]
    c640:	e58d2020 	str	r2, [sp, #32]
    c644:	1a000014 	bne	c69c <_start+0x343c>
    c648:	e247701c 	sub	r7, r7, #28
    c64c:	e1a00005 	mov	r0, r5
    c650:	e1a02007 	mov	r2, r7
    c654:	e28d102c 	add	r1, sp, #44	; 0x2c
    c658:	ebfff237 	bl	8f3c <memcpy@plt>
    c65c:	e59530ec 	ldr	r3, [r5, #236]	; 0xec
    c660:	e3052363 	movw	r2, #21347	; 0x5363
    c664:	e3462382 	movt	r2, #25474	; 0x6382
    c668:	e6bf3f33 	rev	r3, r3
    c66c:	e1530002 	cmp	r3, r2
    c670:	01a00007 	moveq	r0, r7
    c674:	0affffa9 	beq	c520 <_start+0x32c0>
    c678:	e59f1034 	ldr	r1, [pc, #52]	; c6b4 <_start+0x3454>
    c67c:	e59f0034 	ldr	r0, [pc, #52]	; c6b8 <_start+0x3458>
[31m    c680:	ebfff215 	bl	8edc <printf@plt>[0m
    c684:	e59f0030 	ldr	r0, [pc, #48]	; c6bc <_start+0x345c>
[31m    c688:	ebfff213 	bl	8edc <printf@plt>[0m
    c68c:	e3a0000a 	mov	r0, #10
    c690:	ebfff202 	bl	8ea0 <putchar@plt>
--
    cb88:	1a000043 	bne	cc9c <_start+0x3a3c>
    cb8c:	e59d1014 	ldr	r1, [sp, #20]
    cb90:	e2113002 	ands	r3, r1, #2
    cb94:	1a000002 	bne	cba4 <_start+0x3944>
    cb98:	e5d6202c 	ldrb	r2, [r6, #44]	; 0x2c
    cb9c:	e3520000 	cmp	r2, #0
    cba0:	1a00002e 	bne	cc60 <_start+0x3a00>
    cba4:	e59d100c 	ldr	r1, [sp, #12]
    cba8:	e3a03000 	mov	r3, #0
    cbac:	e59d2010 	ldr	r2, [sp, #16]
    cbb0:	e7823101 	str	r3, [r2, r1, lsl #2]
    cbb4:	e594000c 	ldr	r0, [r4, #12]
    cbb8:	e3a03000 	mov	r3, #0
    cbbc:	e59dc010 	ldr	ip, [sp, #16]
    cbc0:	e1a02005 	mov	r2, r5
    cbc4:	e1a01000 	mov	r1, r0
    cbc8:	e58dc000 	str	ip, [sp]
    cbcc:	ebfff0e3 	bl	8f60 <execle@plt>
    cbd0:	e59f114c 	ldr	r1, [pc, #332]	; cd24 <_start+0x3ac4>
    cbd4:	e59f014c 	ldr	r0, [pc, #332]	; cd28 <_start+0x3ac8>
[31m    cbd8:	ebfff0bf 	bl	8edc <printf@plt>[0m
    cbdc:	e594400c 	ldr	r4, [r4, #12]
    cbe0:	ebfff17a 	bl	91d0 <__errno_location@plt>
    cbe4:	e5900000 	ldr	r0, [r0]
    cbe8:	ebfff0c4 	bl	8f00 <strerror@plt>
    cbec:	e1a01004 	mov	r1, r4
    cbf0:	e1a02000 	mov	r2, r0
    cbf4:	e59f0130 	ldr	r0, [pc, #304]	; cd2c <_start+0x3acc>
[31m    cbf8:	ebfff0b7 	bl	8edc <printf@plt>[0m
    cbfc:	e3a0000a 	mov	r0, #10
    cc00:	ebfff0a6 	bl	8ea0 <putchar@plt>
--
    cddc:	e3170001 	tst	r7, #1
    cde0:	0a00001c 	beq	ce58 <_start+0x3bf8>
    cde4:	e280c06c 	add	ip, r0, #108	; 0x6c
    cde8:	e3a05001 	mov	r5, #1
    cdec:	e3a06080 	mov	r6, #128	; 0x80
    cdf0:	e3a02000 	mov	r2, #0
    cdf4:	e7dc3002 	ldrb	r3, [ip, r2]
    cdf8:	e1a04002 	mov	r4, r2
    cdfc:	e1530001 	cmp	r3, r1
    ce00:	1affffe6 	bne	cda0 <_start+0x3b40>
    ce04:	e2823001 	add	r3, r2, #1
    ce08:	e1a02003 	mov	r2, r3
    ce0c:	e7dc2002 	ldrb	r2, [ip, r2]
    ce10:	e0823003 	add	r3, r2, r3
    ce14:	e1530006 	cmp	r3, r6
    ce18:	b2840002 	addlt	r0, r4, #2
    ce1c:	b08c0000 	addlt	r0, ip, r0
    ce20:	b8bd80f8 	poplt	{r3, r4, r5, r6, r7, pc}
    ce24:	e59f106c 	ldr	r1, [pc, #108]	; ce98 <_start+0x3c38>
    ce28:	e59f006c 	ldr	r0, [pc, #108]	; ce9c <_start+0x3c3c>
[31m    ce2c:	ebfff02a 	bl	8edc <printf@plt>[0m
    ce30:	e59f0068 	ldr	r0, [pc, #104]	; cea0 <_start+0x3c40>
[31m    ce34:	ebfff028 	bl	8edc <printf@plt>[0m
    ce38:	e3a0000a 	mov	r0, #10
    ce3c:	ebfff017 	bl	8ea0 <putchar@plt>
--
    cee0:	e1a05000 	mov	r5, r0
    cee4:	ebffffee 	bl	cea4 <_start+0x3c44>
    cee8:	e5d42001 	ldrb	r2, [r4, #1]
    ceec:	e0803002 	add	r3, r0, r2
    cef0:	e3530e13 	cmp	r3, #304	; 0x130
    cef4:	ca00000b 	bgt	cf28 <_start+0x3cc8>
    cef8:	e0855000 	add	r5, r5, r0
    cefc:	e1a01004 	mov	r1, r4
    cf00:	e1a00005 	mov	r0, r5
    cf04:	e2822002 	add	r2, r2, #2
    cf08:	ebfff00b 	bl	8f3c <memcpy@plt>
    cf0c:	e5d43001 	ldrb	r3, [r4, #1]
    cf10:	e0855003 	add	r5, r5, r3
    cf14:	e3e03000 	mvn	r3, #0
    cf18:	e5c53002 	strb	r3, [r5, #2]
    cf1c:	e5d40001 	ldrb	r0, [r4, #1]
    cf20:	e2800002 	add	r0, r0, #2
    cf24:	e8bd8038 	pop	{r3, r4, r5, pc}
    cf28:	e59f1020 	ldr	r1, [pc, #32]	; cf50 <_start+0x3cf0>
    cf2c:	e59f0020 	ldr	r0, [pc, #32]	; cf54 <_start+0x3cf4>
[31m    cf30:	ebffefe9 	bl	8edc <printf@plt>[0m
    cf34:	e5d41000 	ldrb	r1, [r4]
    cf38:	e59f0018 	ldr	r0, [pc, #24]	; cf58 <_start+0x3cf8>
[31m    cf3c:	ebffefe6 	bl	8edc <printf@plt>[0m
    cf40:	e3a0000a 	mov	r0, #10
    cf44:	ebffefd5 	bl	8ea0 <putchar@plt>
--
    d1f8:	1a000010 	bne	d240 <_start+0x3fe0>
    d1fc:	e59d3010 	ldr	r3, [sp, #16]
    d200:	e1a0000a 	mov	r0, sl
    d204:	e3081927 	movw	r1, #35111	; 0x8927
    d208:	e1a0200d 	mov	r2, sp
    d20c:	e5883000 	str	r3, [r8]
    d210:	ebffef2e 	bl	8ed0 <ioctl@plt>
    d214:	e2505000 	subs	r5, r0, #0
    d218:	1a000015 	bne	d274 <_start+0x4014>
    d21c:	e2841012 	add	r1, r4, #18
    d220:	e3a02006 	mov	r2, #6
    d224:	e1a00007 	mov	r0, r7
    d228:	ebffef43 	bl	8f3c <memcpy@plt>
    d22c:	e1a0000a 	mov	r0, sl
    d230:	ebfff001 	bl	923c <close@plt>
    d234:	e1a00005 	mov	r0, r5
    d238:	e28dd024 	add	sp, sp, #36	; 0x24
    d23c:	e8bd85f0 	pop	{r4, r5, r6, r7, r8, sl, pc}
    d240:	e59f10c8 	ldr	r1, [pc, #200]	; d310 <_start+0x40b0>
    d244:	e59f00c8 	ldr	r0, [pc, #200]	; d314 <_start+0x40b4>
[31m    d248:	ebffef23 	bl	8edc <printf@plt>[0m
    d24c:	ebffefdf 	bl	91d0 <__errno_location@plt>
    d250:	e5900000 	ldr	r0, [r0]
    d254:	ebffef29 	bl	8f00 <strerror@plt>
    d258:	e1a01000 	mov	r1, r0
    d25c:	e59f00b4 	ldr	r0, [pc, #180]	; d318 <_start+0x40b8>
[31m    d260:	ebffef1d 	bl	8edc <printf@plt>[0m
    d264:	e3a0000a 	mov	r0, #10
    d268:	ebffef0c 	bl	8ea0 <putchar@plt>
    d26c:	e3e00000 	mvn	r0, #0
    d270:	eafffff0 	b	d238 <_start+0x3fd8>
    d274:	e59f1094 	ldr	r1, [pc, #148]	; d310 <_start+0x40b0>
    d278:	e59f0094 	ldr	r0, [pc, #148]	; d314 <_start+0x40b4>
[31m    d27c:	ebffef16 	bl	8edc <printf@plt>[0m
    d280:	ebffefd2 	bl	91d0 <__errno_location@plt>
    d284:	e5900000 	ldr	r0, [r0]
    d288:	ebffef1c 	bl	8f00 <strerror@plt>
    d28c:	e1a01000 	mov	r1, r0
    d290:	e59f0084 	ldr	r0, [pc, #132]	; d31c <_start+0x40bc>
[31m    d294:	ebffef10 	bl	8edc <printf@plt>[0m
    d298:	e3a0000a 	mov	r0, #10
    d29c:	ebffeeff 	bl	8ea0 <putchar@plt>
    d2a0:	e3e00000 	mvn	r0, #0
    d2a4:	eaffffe3 	b	d238 <_start+0x3fd8>
    d2a8:	e59f1060 	ldr	r1, [pc, #96]	; d310 <_start+0x40b0>
    d2ac:	e59f0060 	ldr	r0, [pc, #96]	; d314 <_start+0x40b4>
[31m    d2b0:	ebffef09 	bl	8edc <printf@plt>[0m
    d2b4:	ebffefc5 	bl	91d0 <__errno_location@plt>
    d2b8:	e5900000 	ldr	r0, [r0]
    d2bc:	ebffef0f 	bl	8f00 <strerror@plt>
    d2c0:	e1a01000 	mov	r1, r0
    d2c4:	e59f0054 	ldr	r0, [pc, #84]	; d320 <_start+0x40c0>
[31m    d2c8:	ebffef03 	bl	8edc <printf@plt>[0m
    d2cc:	e3a0000a 	mov	r0, #10
    d2d0:	ebffeef2 	bl	8ea0 <putchar@plt>
    d2d4:	e3e00000 	mvn	r0, #0
    d2d8:	eaffffd6 	b	d238 <_start+0x3fd8>
    d2dc:	e59f102c 	ldr	r1, [pc, #44]	; d310 <_start+0x40b0>
    d2e0:	e59f002c 	ldr	r0, [pc, #44]	; d314 <_start+0x40b4>
[31m    d2e4:	ebffeefc 	bl	8edc <printf@plt>[0m
    d2e8:	ebffefb8 	bl	91d0 <__errno_location@plt>
    d2ec:	e5900000 	ldr	r0, [r0]
    d2f0:	ebffef02 	bl	8f00 <strerror@plt>
    d2f4:	e1a01000 	mov	r1, r0
    d2f8:	e59f0024 	ldr	r0, [pc, #36]	; d324 <_start+0x40c4>
[31m    d2fc:	ebffeef6 	bl	8edc <printf@plt>[0m
    d300:	e3a0000a 	mov	r0, #10
    d304:	ebffeee5 	bl	8ea0 <putchar@plt>
--
    d610:	ebffeefa 	bl	9200 <strlen@plt>
    d614:	e6ef0070 	uxtb	r0, r0
    d618:	e15a0000 	cmp	sl, r0
    d61c:	0a000003 	beq	d630 <_start+0x43d0>
    d620:	e5f53008 	ldrb	r3, [r5, #8]!
    d624:	e3530000 	cmp	r3, #0
    d628:	1afffff6 	bne	d608 <_start+0x43a8>
    d62c:	eaffffe8 	b	d5d4 <_start+0x4374>
    d630:	e1a01005 	mov	r1, r5
    d634:	e1a00007 	mov	r0, r7
    d638:	e1a0200a 	mov	r2, sl
    d63c:	ebffee89 	bl	9068 <strncmp@plt>
    d640:	e3500000 	cmp	r0, #0
    d644:	01d430ba 	ldrheq	r3, [r4, #10]
    d648:	03833080 	orreq	r3, r3, #128	; 0x80
    d64c:	01c430ba 	strheq	r3, [r4, #10]
    d650:	eafffff2 	b	d620 <_start+0x43c0>
    d654:	e59f1020 	ldr	r1, [pc, #32]	; d67c <_start+0x441c>
    d658:	e3e06001 	mvn	r6, #1
    d65c:	e59f001c 	ldr	r0, [pc, #28]	; d680 <_start+0x4420>
[31m    d660:	ebffee1d 	bl	8edc <printf@plt>[0m
    d664:	e59f0018 	ldr	r0, [pc, #24]	; d684 <_start+0x4424>
[31m    d668:	ebffee1b 	bl	8edc <printf@plt>[0m
    d66c:	e3a0000a 	mov	r0, #10
    d670:	ebffee0a 	bl	8ea0 <putchar@plt>
--
    d9f0:	e1a04000 	mov	r4, r0
    d9f4:	e1a00005 	mov	r0, r5
    d9f8:	ebffee0f 	bl	923c <close@plt>
    d9fc:	eaffffc9 	b	d928 <_start+0x46c8>
    da00:	e92d4038 	push	{r3, r4, r5, lr}
    da04:	e2505000 	subs	r5, r0, #0
    da08:	03e04000 	mvneq	r4, #0
    da0c:	0a000007 	beq	da30 <_start+0x47d0>
    da10:	e3a01041 	mov	r1, #65	; 0x41
    da14:	e3a02f69 	mov	r2, #420	; 0x1a4
    da18:	ebffedfb 	bl	920c <open@plt>
    da1c:	e2504000 	subs	r4, r0, #0
    da20:	ba000004 	blt	da38 <_start+0x47d8>
    da24:	e3a01001 	mov	r1, #1
    da28:	e3a02000 	mov	r2, #0
    da2c:	ebffedbd 	bl	9128 <lockf@plt>
    da30:	e1a00004 	mov	r0, r4
    da34:	e8bd8038 	pop	{r3, r4, r5, pc}
    da38:	e59f1030 	ldr	r1, [pc, #48]	; da70 <_start+0x4810>
    da3c:	e59f0030 	ldr	r0, [pc, #48]	; da74 <_start+0x4814>
[31m    da40:	ebffed25 	bl	8edc <printf@plt>[0m
    da44:	ebffede1 	bl	91d0 <__errno_location@plt>
    da48:	e5900000 	ldr	r0, [r0]
    da4c:	ebffed2b 	bl	8f00 <strerror@plt>
    da50:	e1a01005 	mov	r1, r5
    da54:	e1a02000 	mov	r2, r0
    da58:	e59f0018 	ldr	r0, [pc, #24]	; da78 <_start+0x4818>
[31m    da5c:	ebffed1e 	bl	8edc <printf@plt>[0m
    da60:	e3a0000a 	mov	r0, #10
    da64:	ebffed0d 	bl	8ea0 <putchar@plt>

[0m
[[0;33m*[0m] Function [0;33mprintf[0m used [0;33m97[0m times [0;33mudhcpd[0m

