[[0;33m*[0m] Binary protection state of [0;33mlibreadline.so.5.2[0m
[REF] s12

  	RELRO          CANARY            NX           PIE       RPATH        RUNPATH      SYMBOLS      
  	[31mNo RELRO[0m       [31mNo Canary found[0m   [31mNX disabled[0m  [33mDSO[0m          [31mRPATH[0m        [32mNo RUNPATH[0m   [31mSymbols[0m

[0m
[[0;33m*[0m] Function [0;33mfprintf[0m tear down of [0;33mlibreadline.so.5.2[0m

    9074:	04110001 	bal	907c <_init+0x4c>
    9078:	00000000 	nop
    907c:	3c1c0004 	lui	gp,0x4
    9080:	279cd584 	addiu	gp,gp,-10876
    9084:	039fe021 	addu	gp,gp,ra
    9088:	8f998028 	lw	t9,-32728(gp)
    908c:	27399e10 	addiu	t9,t9,-25072
    9090:	0320f809 	jalr	t9
    9094:	00000000 	nop
    9098:	8fbc0010 	lw	gp,16(sp)
    909c:	8fbf001c 	lw	ra,28(sp)
    90a0:	03e00008 	jr	ra
    90a4:	27bd0020 	addiu	sp,sp,32

Disassembly of section .text:

000090b0 <memory_error_and_abort>:
    90b0:	3c1c0004 	lui	gp,0x4
    90b4:	279cd550 	addiu	gp,gp,-10928
    90b8:	0399e021 	addu	gp,gp,t9
    90bc:	8f828270 	lw	v0,-32144(gp)
    90c0:	27bdffe0 	addiu	sp,sp,-32
    90c4:	afbc0010 	sw	gp,16(sp)
    90c8:	8f858028 	lw	a1,-32728(gp)
    90cc:	afbf001c 	sw	ra,28(sp)
[31m    90d0:	8f9984ec 	lw	t9,fprintf[0m
    90d4:	00803021 	move	a2,a0
    90d8:	8c440000 	lw	a0,0(v0)
--
   125c0:	1480ffc5 	bnez	a0,124d8 <display_matches+0xb0>
   125c4:	8f828024 	lw	v0,-32732(gp)
   125c8:	8f82852c 	lw	v0,-31444(gp)
   125cc:	8c590000 	lw	t9,0(v0)
   125d0:	13200007 	beqz	t9,125f0 <display_matches+0x1c8>
   125d4:	2694ffff 	addiu	s4,s4,-1
   125d8:	02402021 	move	a0,s2
   125dc:	02802821 	move	a1,s4
   125e0:	0320f809 	jalr	t9
   125e4:	02603021 	move	a2,s3
   125e8:	10000030 	b	126ac <display_matches+0x284>
   125ec:	8fbf0054 	lw	ra,84(sp)
   125f0:	8f8283d8 	lw	v0,-31784(gp)
   125f4:	8c420000 	lw	v0,0(v0)
   125f8:	1840001e 	blez	v0,12674 <display_matches+0x24c>
   125fc:	0282102a 	slt	v0,s4,v0
   12600:	1440001d 	bnez	v0,12678 <display_matches+0x250>
   12604:	8f998644 	lw	t9,-31164(gp)
   12608:	8f99881c 	lw	t9,-30692(gp)
   1260c:	0320f809 	jalr	t9
   12610:	00000000 	nop
   12614:	8fbc0010 	lw	gp,16(sp)
   12618:	02803021 	move	a2,s4
   1261c:	8f908474 	lw	s0,-31628(gp)
   12620:	8f858028 	lw	a1,-32728(gp)
[31m   12624:	8f9984ec 	lw	t9,fprintf[0m
   12628:	8e040000 	lw	a0,0(s0)
   1262c:	0320f809 	jalr	t9
--
   13008:	8f9986bc 	lw	t9,-31044(gp)
   1300c:	0320f809 	jalr	t9
   13010:	00409021 	move	s2,v0
   13014:	8fbc0018 	lw	gp,24(sp)
   13018:	8f848028 	lw	a0,-32728(gp)
   1301c:	8f9986bc 	lw	t9,-31044(gp)
   13020:	0320f809 	jalr	t9
   13024:	2484acf0 	addiu	a0,a0,-21264
   13028:	8e220000 	lw	v0,0(s1)
   1302c:	12420005 	beq	s2,v0,13044 <rl_complete_internal+0x3e4>
   13030:	8fbc0018 	lw	gp,24(sp)
   13034:	8f998048 	lw	t9,-32696(gp)
   13038:	0320f809 	jalr	t9
   1303c:	02402021 	move	a0,s2
   13040:	8fbc0018 	lw	gp,24(sp)
   13044:	1000ffa5 	b	12edc <rl_complete_internal+0x27c>
   13048:	8f9987cc 	lw	t9,-30772(gp)
   1304c:	8fa4002c 	lw	a0,44(sp)
   13050:	8f998024 	lw	t9,-32732(gp)
   13054:	27392428 	addiu	t9,t9,9256
   13058:	0411fcf3 	bal	12428 <display_matches>
   1305c:	00000000 	nop
   13060:	1000ffa1 	b	12ee8 <rl_complete_internal+0x288>
   13064:	8fbc0018 	lw	gp,24(sp)
   13068:	8f858028 	lw	a1,-32728(gp)
[31m   1306c:	8f9984ec 	lw	t9,fprintf[0m
   13070:	8c440000 	lw	a0,0(v0)
   13074:	24a5acf4 	addiu	a1,a1,-21260
--
   13950:	24030002 	li	v1,2
   13954:	54430068 	bnel	v0,v1,13af8 <_rl_macro_dumper_internal+0x210>
   13958:	26520001 	addiu	s2,s2,1
   1395c:	26d93674 	addiu	t9,s6,13940
   13960:	0411ff44 	bal	13674 <_rl_get_keyname>
   13964:	02402021 	move	a0,s2
   13968:	8fbc0018 	lw	gp,24(sp)
   1396c:	0040a821 	move	s5,v0
   13970:	8f828024 	lw	v0,-32732(gp)
   13974:	245933d0 	addiu	t9,v0,13264
   13978:	0411fe95 	bal	133d0 <_rl_untranslate_macro_value>
   1397c:	8e640004 	lw	a0,4(s3)
   13980:	8fbc0018 	lw	gp,24(sp)
   13984:	00408821 	move	s1,v0
   13988:	2686af9c 	addiu	a2,s4,-20580
   1398c:	8f828474 	lw	v0,-31628(gp)
   13990:	0210300b 	movn	a2,s0,s0
   13994:	03c02821 	move	a1,s8
   13998:	8c440000 	lw	a0,0(v0)
   1399c:	2682af9c 	addiu	v0,s4,-20580
   139a0:	0231100b 	movn	v0,s1,s1
   139a4:	16e00003 	bnez	s7,139b4 <_rl_macro_dumper_internal+0xcc>
   139a8:	afa20010 	sw	v0,16(sp)
   139ac:	8f858028 	lw	a1,-32728(gp)
   139b0:	24a5ad54 	addiu	a1,a1,-21164
[31m   139b4:	8f9984ec 	lw	t9,fprintf[0m
   139b8:	0320f809 	jalr	t9
   139bc:	02a03821 	move	a3,s5
--
   13c60:	8f9983f8 	lw	t9,-31752(gp)
   13c64:	2410ffff 	li	s0,-1
   13c68:	8fbf0024 	lw	ra,36(sp)
   13c6c:	02001021 	move	v0,s0
   13c70:	8fb20020 	lw	s2,32(sp)
   13c74:	8fb1001c 	lw	s1,28(sp)
   13c78:	8fb00018 	lw	s0,24(sp)
   13c7c:	03e00008 	jr	ra
   13c80:	27bd0028 	addiu	sp,sp,40

00013c84 <_rl_init_file_error>:
   13c84:	3c1c0003 	lui	gp,0x3
   13c88:	279c297c 	addiu	gp,gp,10620
   13c8c:	0399e021 	addu	gp,gp,t9
   13c90:	8f838018 	lw	v1,-32744(gp)
   13c94:	00801021 	move	v0,a0
   13c98:	27bdffd8 	addiu	sp,sp,-40
   13c9c:	8c64f37c 	lw	a0,-3204(v1)
   13ca0:	afbc0018 	sw	gp,24(sp)
   13ca4:	afbf0024 	sw	ra,36(sp)
   13ca8:	1080000e 	beqz	a0,13ce4 <_rl_init_file_error+0x60>
   13cac:	8f838270 	lw	v1,-32144(gp)
   13cb0:	8c640000 	lw	a0,0(v1)
   13cb4:	8f838018 	lw	v1,-32744(gp)
   13cb8:	8f858028 	lw	a1,-32728(gp)
[31m   13cbc:	8f9984ec 	lw	t9,fprintf[0m
   13cc0:	8c66f374 	lw	a2,-3212(v1)
   13cc4:	8f838018 	lw	v1,-32744(gp)
   13cc8:	afa20010 	sw	v0,16(sp)
   13ccc:	24a5ad68 	addiu	a1,a1,-21144
   13cd0:	0320f809 	jalr	t9
   13cd4:	8c67f380 	lw	a3,-3200(v1)
   13cd8:	8fbf0024 	lw	ra,36(sp)
   13cdc:	03e00008 	jr	ra
   13ce0:	27bd0028 	addiu	sp,sp,40
   13ce4:	8f858028 	lw	a1,-32728(gp)
   13ce8:	8fbf0024 	lw	ra,36(sp)
   13cec:	8c640000 	lw	a0,0(v1)
[31m   13cf0:	8f9984ec 	lw	t9,fprintf[0m
   13cf4:	24a5ad84 	addiu	a1,a1,-21116
   13cf8:	00403021 	move	a2,v0
--
   166b8:	8f998890 	lw	t9,-30576(gp)
   166bc:	27bdffd0 	addiu	sp,sp,-48
   166c0:	afbc0010 	sw	gp,16(sp)
   166c4:	afb0001c 	sw	s0,28(sp)
   166c8:	afbf002c 	sw	ra,44(sp)
   166cc:	afb30028 	sw	s3,40(sp)
   166d0:	afb20024 	sw	s2,36(sp)
   166d4:	afb10020 	sw	s1,32(sp)
   166d8:	0320f809 	jalr	t9
   166dc:	00000000 	nop
   166e0:	00408021 	move	s0,v0
   166e4:	10400017 	beqz	v0,16744 <rl_list_funmap_names+0x98>
   166e8:	8fbc0010 	lw	gp,16(sp)
   166ec:	8f928028 	lw	s2,-32728(gp)
   166f0:	00408821 	move	s1,v0
   166f4:	8f938474 	lw	s3,-31628(gp)
   166f8:	10000005 	b	16710 <rl_list_funmap_names+0x64>
   166fc:	2652af18 	addiu	s2,s2,-20712
   16700:	8e640000 	lw	a0,0(s3)
   16704:	0320f809 	jalr	t9
   16708:	02402821 	move	a1,s2
   1670c:	8fbc0010 	lw	gp,16(sp)
   16710:	26310004 	addiu	s1,s1,4
   16714:	8e26fffc 	lw	a2,-4(s1)
   16718:	14c0fff9 	bnez	a2,16700 <rl_list_funmap_names+0x54>
[31m   1671c:	8f9984ec 	lw	t9,fprintf[0m
   16720:	02002021 	move	a0,s0
   16724:	8fbf002c 	lw	ra,44(sp)
--
   16c30:	26d6af90 	addiu	s6,s6,-20592
   16c34:	1000005f 	b	16db4 <rl_function_dumper+0x200>
   16c38:	26b5af98 	addiu	s5,s5,-20584
   16c3c:	0320f809 	jalr	t9
   16c40:	02202021 	move	a0,s1
   16c44:	8fbc0010 	lw	gp,16(sp)
   16c48:	00402021 	move	a0,v0
   16c4c:	8f8282a4 	lw	v0,-32092(gp)
   16c50:	8f998358 	lw	t9,-31912(gp)
   16c54:	0320f809 	jalr	t9
   16c58:	8c450000 	lw	a1,0(v0)
   16c5c:	00408021 	move	s0,v0
   16c60:	8fa20048 	lw	v0,72(sp)
   16c64:	1040001d 	beqz	v0,16cdc <rl_function_dumper+0x128>
   16c68:	8fbc0010 	lw	gp,16(sp)
   16c6c:	12000003 	beqz	s0,16c7c <rl_function_dumper+0xc8>
   16c70:	8f948474 	lw	s4,-31628(gp)
   16c74:	10000013 	b	16cc4 <rl_function_dumper+0x110>
   16c78:	02009821 	move	s3,s0
   16c7c:	8f828474 	lw	v0,-31628(gp)
   16c80:	8f858028 	lw	a1,-32728(gp)
   16c84:	02203021 	move	a2,s1
   16c88:	8c440000 	lw	a0,0(v0)
   16c8c:	24a5af3c 	addiu	a1,a1,-20676
   16c90:	10000019 	b	16cf8 <rl_function_dumper+0x144>
[31m   16c94:	8f9984ec 	lw	t9,fprintf[0m
[31m   16c98:	8f9984ec 	lw	t9,fprintf[0m
   16c9c:	8e840000 	lw	a0,0(s4)
   16ca0:	24a5af50 	addiu	a1,a1,-20656
   16ca4:	0320f809 	jalr	t9
   16ca8:	02203821 	move	a3,s1
   16cac:	8fbc0010 	lw	gp,16(sp)
   16cb0:	8e640000 	lw	a0,0(s3)
   16cb4:	8f998048 	lw	t9,-32696(gp)
   16cb8:	0320f809 	jalr	t9
   16cbc:	26730004 	addiu	s3,s3,4
   16cc0:	8fbc0010 	lw	gp,16(sp)
   16cc4:	8e660000 	lw	a2,0(s3)
   16cc8:	14c0fff3 	bnez	a2,16c98 <rl_function_dumper+0xe4>
   16ccc:	8f858028 	lw	a1,-32728(gp)
   16cd0:	02002021 	move	a0,s0
   16cd4:	10000034 	b	16da8 <rl_function_dumper+0x1f4>
   16cd8:	8f998048 	lw	t9,-32696(gp)
   16cdc:	8f888474 	lw	t0,-31628(gp)
[31m   16ce0:	8f9984ec 	lw	t9,fprintf[0m
   16ce4:	16000008 	bnez	s0,16d08 <rl_function_dumper+0x154>
   16ce8:	8d040000 	lw	a0,0(t0)
   16cec:	8f858028 	lw	a1,-32728(gp)
   16cf0:	02203021 	move	a2,s1
   16cf4:	24a5af5c 	addiu	a1,a1,-20644
   16cf8:	0320f809 	jalr	t9
   16cfc:	26520004 	addiu	s2,s2,4
   16d00:	1000002c 	b	16db4 <rl_function_dumper+0x200>
   16d04:	8fbc0010 	lw	gp,16(sp)
   16d08:	02203021 	move	a2,s1
   16d0c:	afa8001c 	sw	t0,28(sp)
   16d10:	0320f809 	jalr	t9
   16d14:	27c5af7c 	addiu	a1,s8,-20612
   16d18:	8fbc0010 	lw	gp,16(sp)
   16d1c:	02009821 	move	s3,s0
   16d20:	02008821 	move	s1,s0
   16d24:	0000a021 	move	s4,zero
   16d28:	8fa8001c 	lw	t0,28(sp)
   16d2c:	1000000f 	b	16d6c <rl_function_dumper+0x1b8>
   16d30:	8f838028 	lw	v1,-32728(gp)
   16d34:	8d040000 	lw	a0,0(t0)
[31m   16d38:	8f9984ec 	lw	t9,fprintf[0m
   16d3c:	2467af34 	addiu	a3,v1,-20684
   16d40:	26e2af38 	addiu	v0,s7,-20680
--
   16f34:	8f968028 	lw	s6,-32728(gp)
   16f38:	8f908018 	lw	s0,-32744(gp)
   16f3c:	8f958028 	lw	s5,-32728(gp)
   16f40:	afbc0010 	sw	gp,16(sp)
   16f44:	afb40030 	sw	s4,48(sp)
   16f48:	afb3002c 	sw	s3,44(sp)
   16f4c:	afb20028 	sw	s2,40(sp)
   16f50:	afb10024 	sw	s1,36(sp)
   16f54:	afbf003c 	sw	ra,60(sp)
   16f58:	00808821 	move	s1,a0
   16f5c:	2610b9e8 	addiu	s0,s0,-17944
   16f60:	8f948474 	lw	s4,-31628(gp)
   16f64:	26d6afb0 	addiu	s6,s6,-20560
   16f68:	8f938028 	lw	s3,-32728(gp)
   16f6c:	8f928028 	lw	s2,-32728(gp)
   16f70:	1000000d 	b	16fa8 <rl_variable_dumper+0x90>
   16f74:	26b5afa4 	addiu	s5,s5,-20572
   16f78:	2647b0ac 	addiu	a3,s2,-20308
   16f7c:	8e840000 	lw	a0,0(s4)
   16f80:	8c430000 	lw	v1,0(v0)
   16f84:	2662ade8 	addiu	v0,s3,-21016
   16f88:	02a02821 	move	a1,s5
   16f8c:	16200002 	bnez	s1,16f98 <rl_variable_dumper+0x80>
   16f90:	0043380a 	movz	a3,v0,v1
   16f94:	02c02821 	move	a1,s6
[31m   16f98:	8f9984ec 	lw	t9,fprintf[0m
   16f9c:	0320f809 	jalr	t9
   16fa0:	2610000c 	addiu	s0,s0,12
   16fa4:	8fbc0010 	lw	gp,16(sp)
   16fa8:	8e060000 	lw	a2,0(s0)
   16fac:	54c0fff2 	bnezl	a2,16f78 <rl_variable_dumper+0x60>
   16fb0:	8e020004 	lw	v0,4(s0)
   16fb4:	8f908018 	lw	s0,-32744(gp)
   16fb8:	8f938028 	lw	s3,-32728(gp)
   16fbc:	8f928028 	lw	s2,-32728(gp)
   16fc0:	2610b5bc 	addiu	s0,s0,-19012
   16fc4:	8f948024 	lw	s4,-32732(gp)
   16fc8:	2673afb0 	addiu	s3,s3,-20560
   16fcc:	10000012 	b	17018 <rl_variable_dumper+0x100>
   16fd0:	2652afa4 	addiu	s2,s2,-20572
   16fd4:	269963c8 	addiu	t9,s4,25544
   16fd8:	0411fcfb 	bal	163c8 <_rl_get_string_variable_value>
   16fdc:	afa60018 	sw	a2,24(sp)
   16fe0:	00403821 	move	a3,v0
   16fe4:	8fbc0010 	lw	gp,16(sp)
   16fe8:	1040000a 	beqz	v0,17014 <rl_variable_dumper+0xfc>
   16fec:	8fa60018 	lw	a2,24(sp)
   16ff0:	8f828474 	lw	v0,-31628(gp)
   16ff4:	02402821 	move	a1,s2
   16ff8:	16200003 	bnez	s1,17008 <rl_variable_dumper+0xf0>
   16ffc:	8c440000 	lw	a0,0(v0)
   17000:	8e060000 	lw	a2,0(s0)
   17004:	02602821 	move	a1,s3
[31m   17008:	8f9984ec 	lw	t9,fprintf[0m
   1700c:	0320f809 	jalr	t9
   17010:	00000000 	nop
--
   1a628:	8c420000 	lw	v0,0(v0)
   1a62c:	1c40000a 	bgtz	v0,1a658 <update_line+0xc04>
   1a630:	8f9984a8 	lw	t9,-31576(gp)
   1a634:	8f828018 	lw	v0,-32744(gp)
   1a638:	8c42f3f4 	lw	v0,-3084(v0)
   1a63c:	0054102a 	slt	v0,v0,s4
   1a640:	10400005 	beqz	v0,1a658 <update_line+0xc04>
   1a644:	00000000 	nop
   1a648:	8fb90048 	lw	t9,72(sp)
   1a64c:	17200054 	bnez	t9,1a7a0 <update_line+0xd4c>
   1a650:	8f9984a8 	lw	t9,-31576(gp)
   1a654:	8f9984a8 	lw	t9,-31576(gp)
   1a658:	0320f809 	jalr	t9
   1a65c:	00000000 	nop
   1a660:	24030001 	li	v1,1
   1a664:	10430005 	beq	v0,v1,1a67c <update_line+0xc28>
   1a668:	8fbc0018 	lw	gp,24(sp)
   1a66c:	8f828388 	lw	v0,-31864(gp)
   1a670:	8c420000 	lw	v0,0(v0)
   1a674:	1040000d 	beqz	v0,1a6ac <update_line+0xc58>
   1a678:	8f828120 	lw	v0,-32480(gp)
   1a67c:	8fa30040 	lw	v1,64(sp)
   1a680:	12830009 	beq	s4,v1,1a6a8 <update_line+0xc54>
   1a684:	8f828270 	lw	v0,-32144(gp)
   1a688:	8f858028 	lw	a1,-32728(gp)
[31m   1a68c:	8f9984ec 	lw	t9,fprintf[0m
   1a690:	8c440000 	lw	a0,0(v0)
   1a694:	24a5b280 	addiu	a1,a1,-19840

[0m
[[0;33m*[0m] Function [0;33mfprintf[0m used [0;33m14[0m times [0;33mlibreadline.so.5.2[0m

