[[0;33m*[0m] Binary protection state of [0;33mlibreadline.so.5.2[0m
[REF] s12

  	RELRO          CANARY            NX           PIE       RPATH        RUNPATH      SYMBOLS      
  	[31mNo RELRO[0m       [31mNo Canary found[0m   [31mNX disabled[0m  [33mDSO[0m          [31mRPATH[0m        [32mNo RUNPATH[0m   [31mSymbols[0m

[0m
[[0;33m*[0m] Function [0;33msprintf[0m tear down of [0;33mlibreadline.so.5.2[0m

   16424:	10000069 	b	165cc <_rl_get_string_variable_value+0x204>
   16428:	2610adec 	addiu	s0,s0,-21012
   1642c:	8f858028 	lw	a1,-32728(gp)
   16430:	8f9983f8 	lw	t9,-31752(gp)
   16434:	02002021 	move	a0,s0
   16438:	0320f809 	jalr	t9
   1643c:	24a5aec0 	addiu	a1,a1,-20800
   16440:	14400007 	bnez	v0,16460 <_rl_get_string_variable_value+0x98>
   16444:	8fbc0010 	lw	gp,16(sp)
   16448:	8f828108 	lw	v0,-32504(gp)
   1644c:	8c500000 	lw	s0,0(v0)
   16450:	1600005f 	bnez	s0,165d0 <_rl_get_string_variable_value+0x208>
   16454:	8fbf0024 	lw	ra,36(sp)
   16458:	1000005b 	b	165c8 <_rl_get_string_variable_value+0x200>
   1645c:	8f908028 	lw	s0,-32728(gp)
   16460:	8f858028 	lw	a1,-32728(gp)
   16464:	8f9983f8 	lw	t9,-31752(gp)
   16468:	02002021 	move	a0,s0
   1646c:	0320f809 	jalr	t9
   16470:	24a5aed0 	addiu	a1,a1,-20784
   16474:	1440000b 	bnez	v0,164a4 <_rl_get_string_variable_value+0xdc>
   16478:	8fbc0010 	lw	gp,16(sp)
   1647c:	8f8283d8 	lw	v0,-31784(gp)
   16480:	8f908018 	lw	s0,-32744(gp)
   16484:	8f858028 	lw	a1,-32728(gp)
[31m   16488:	8f998284 	lw	t9,sprintf[0m
   1648c:	8c460000 	lw	a2,0(v0)
   16490:	2604f390 	addiu	a0,s0,-3184
--
   169ec:	94630000 	lhu	v1,0(v1)
   169f0:	30630002 	andi	v1,v1,0x2
   169f4:	50600014 	beqzl	v1,16a48 <rl_invoking_keyseqs_in_map+0x2e8>
   169f8:	00821021 	addu	v0,a0,v0
   169fc:	8f8285fc 	lw	v0,-31236(gp)
   16a00:	8c420000 	lw	v0,0(v0)
   16a04:	00511021 	addu	v0,v0,s1
   16a08:	90420000 	lbu	v0,0(v0)
   16a0c:	00021040 	sll	v0,v0,0x1
   16a10:	1000000d 	b	16a48 <rl_invoking_keyseqs_in_map+0x2e8>
   16a14:	00821021 	addu	v0,a0,v0
   16a18:	16d7000c 	bne	s6,s7,16a4c <rl_invoking_keyseqs_in_map+0x2ec>
   16a1c:	02e03021 	move	a2,s7
   16a20:	8f82877c 	lw	v0,-30852(gp)
   16a24:	8c420000 	lw	v0,0(v0)
   16a28:	00511021 	addu	v0,v0,s1
   16a2c:	94420000 	lhu	v0,0(v0)
   16a30:	30420002 	andi	v0,v0,0x2
   16a34:	10400005 	beqz	v0,16a4c <rl_invoking_keyseqs_in_map+0x2ec>
   16a38:	02c03021 	move	a2,s6
   16a3c:	8f8285fc 	lw	v0,-31236(gp)
   16a40:	8c420000 	lw	v0,0(v0)
   16a44:	00511021 	addu	v0,v0,s1
   16a48:	84460000 	lh	a2,0(v0)
   16a4c:	8f858028 	lw	a1,-32728(gp)
[31m   16a50:	8f998284 	lw	t9,sprintf[0m
   16a54:	02402021 	move	a0,s2
   16a58:	0320f809 	jalr	t9
--
   1b164:	ad02f408 	sw	v0,-3064(t0)
   1b168:	8f828018 	lw	v0,-32744(gp)
   1b16c:	0320f809 	jalr	t9
   1b170:	8c45e540 	lw	a1,-6848(v0)
   1b174:	8fbc0018 	lw	gp,24(sp)
   1b178:	8fa70040 	lw	a3,64(sp)
   1b17c:	8fa30048 	lw	v1,72(sp)
   1b180:	0040b021 	move	s6,v0
   1b184:	afc2f3fc 	sw	v0,-3076(s8)
   1b188:	8f828100 	lw	v0,-32512(gp)
   1b18c:	8c420000 	lw	v0,0(v0)
   1b190:	16620004 	bne	s3,v0,1b1a4 <rl_redisplay+0x6e0>
   1b194:	329400ff 	andi	s4,s4,0xff
   1b198:	8f848018 	lw	a0,-32744(gp)
   1b19c:	afb10034 	sw	s1,52(sp)
   1b1a0:	ac90f404 	sw	s0,-3068(a0)
   1b1a4:	2682ff80 	addiu	v0,s4,-128
   1b1a8:	2c420080 	sltiu	v0,v0,128
   1b1ac:	1040002c 	beqz	v0,1b260 <rl_redisplay+0x79c>
   1b1b0:	24020009 	li	v0,9
   1b1b4:	8f828804 	lw	v0,-30716(gp)
   1b1b8:	8c420000 	lw	v0,0(v0)
   1b1bc:	14400080 	bnez	v0,1b3c0 <rl_redisplay+0x8fc>
   1b1c0:	2a820020 	slti	v0,s4,32
   1b1c4:	8f858028 	lw	a1,-32728(gp)
[31m   1b1c8:	8f998284 	lw	t9,sprintf[0m
   1b1cc:	02d02021 	addu	a0,s6,s0
   1b1d0:	02803021 	move	a2,s4
--
   28e08:	8fbf001c 	lw	ra,28(sp)
   28e0c:	8fb00018 	lw	s0,24(sp)
   28e10:	03e00008 	jr	ra
   28e14:	27bd0020 	addiu	sp,sp,32

00028e18 <sh_set_lines_and_columns>:
   28e18:	3c1c0002 	lui	gp,0x2
   28e1c:	279cd7e8 	addiu	gp,gp,-10264
   28e20:	0399e021 	addu	gp,gp,t9
   28e24:	8f998884 	lw	t9,-30588(gp)
   28e28:	27bdffd0 	addiu	sp,sp,-48
   28e2c:	00803021 	move	a2,a0
   28e30:	afbf002c 	sw	ra,44(sp)
   28e34:	afbc0010 	sw	gp,16(sp)
   28e38:	afb20028 	sw	s2,40(sp)
   28e3c:	afb10024 	sw	s1,36(sp)
   28e40:	afb00020 	sw	s0,32(sp)
   28e44:	afa60018 	sw	a2,24(sp)
   28e48:	2404000c 	li	a0,12
   28e4c:	0320f809 	jalr	t9
   28e50:	00a09021 	move	s2,a1
   28e54:	8fbc0010 	lw	gp,16(sp)
   28e58:	8fa60018 	lw	a2,24(sp)
   28e5c:	00402021 	move	a0,v0
   28e60:	8f918028 	lw	s1,-32728(gp)
[31m   28e64:	8f998284 	lw	t9,sprintf[0m
   28e68:	00408021 	move	s0,v0
   28e6c:	0320f809 	jalr	t9
   28e70:	2625aee8 	addiu	a1,s1,-20760
   28e74:	8fbc0010 	lw	gp,16(sp)
   28e78:	02002821 	move	a1,s0
   28e7c:	24060001 	li	a2,1
   28e80:	8f848028 	lw	a0,-32728(gp)
   28e84:	8f998400 	lw	t9,-31744(gp)
   28e88:	0320f809 	jalr	t9
   28e8c:	2484b320 	addiu	a0,a0,-19680
   28e90:	8fbc0010 	lw	gp,16(sp)
   28e94:	8f998048 	lw	t9,-32696(gp)
   28e98:	0320f809 	jalr	t9
   28e9c:	02002021 	move	a0,s0
   28ea0:	8fbc0010 	lw	gp,16(sp)
   28ea4:	8f998884 	lw	t9,-30588(gp)
   28ea8:	0320f809 	jalr	t9
   28eac:	2404000c 	li	a0,12
   28eb0:	8fbc0010 	lw	gp,16(sp)
   28eb4:	2625aee8 	addiu	a1,s1,-20760
   28eb8:	02403021 	move	a2,s2
[31m   28ebc:	8f998284 	lw	t9,sprintf[0m
   28ec0:	00402021 	move	a0,v0
   28ec4:	0320f809 	jalr	t9

[0m
[[0;33m*[0m] Function [0;33msprintf[0m used [0;33m5[0m times [0;33mlibreadline.so.5.2[0m

